ARM GAS  C:\Users\skipi\AppData\Local\Temp\ccpgF6Mp.s 			page 1


   1              		.cpu cortex-m7
   2              		.eabi_attribute 28, 1
   3              		.eabi_attribute 20, 1
   4              		.eabi_attribute 21, 1
   5              		.eabi_attribute 23, 3
   6              		.eabi_attribute 24, 1
   7              		.eabi_attribute 25, 1
   8              		.eabi_attribute 26, 1
   9              		.eabi_attribute 30, 2
  10              		.eabi_attribute 34, 1
  11              		.eabi_attribute 18, 4
  12              		.file	"main.cpp"
  13              		.text
  14              	.Ltext0:
  15              		.cfi_sections	.debug_frame
  16              		.section	.text._ZN5daisy7EncoderD2Ev,"axG",%progbits,_ZN5daisy7EncoderD5Ev,comdat
  17              		.align	1
  18              		.p2align 2,,3
  19              		.weak	_ZN5daisy7EncoderD2Ev
  20              		.arch armv7e-m
  21              		.syntax unified
  22              		.thumb
  23              		.thumb_func
  24              		.fpu fpv5-d16
  26              	_ZN5daisy7EncoderD2Ev:
  27              	.LVL0:
  28              	.LFB1699:
  29              		.file 1 "../libs/PoliTeKDSP/libs/libDaisy/src/hid/encoder.h"
   1:../libs/PoliTeKDSP/libs/libDaisy/src/hid/encoder.h **** #pragma once
   2:../libs/PoliTeKDSP/libs/libDaisy/src/hid/encoder.h **** #ifndef DSY_ENCODER_H
   3:../libs/PoliTeKDSP/libs/libDaisy/src/hid/encoder.h **** #define DSY_ENCODER_H
   4:../libs/PoliTeKDSP/libs/libDaisy/src/hid/encoder.h **** #include "daisy_core.h"
   5:../libs/PoliTeKDSP/libs/libDaisy/src/hid/encoder.h **** #include "per/gpio.h"
   6:../libs/PoliTeKDSP/libs/libDaisy/src/hid/encoder.h **** #include "hid/switch.h"
   7:../libs/PoliTeKDSP/libs/libDaisy/src/hid/encoder.h **** 
   8:../libs/PoliTeKDSP/libs/libDaisy/src/hid/encoder.h **** namespace daisy
   9:../libs/PoliTeKDSP/libs/libDaisy/src/hid/encoder.h **** {
  10:../libs/PoliTeKDSP/libs/libDaisy/src/hid/encoder.h **** /** 
  11:../libs/PoliTeKDSP/libs/libDaisy/src/hid/encoder.h ****     @brief Generic Class for handling Quadrature Encoders \n 
  12:../libs/PoliTeKDSP/libs/libDaisy/src/hid/encoder.h ****     Inspired/influenced by Mutable Instruments (pichenettes) Encoder classes
  13:../libs/PoliTeKDSP/libs/libDaisy/src/hid/encoder.h ****     @author Stephen Hensley
  14:../libs/PoliTeKDSP/libs/libDaisy/src/hid/encoder.h ****     @date December 2019
  15:../libs/PoliTeKDSP/libs/libDaisy/src/hid/encoder.h ****     @ingroup controls
  16:../libs/PoliTeKDSP/libs/libDaisy/src/hid/encoder.h **** */
  17:../libs/PoliTeKDSP/libs/libDaisy/src/hid/encoder.h **** class Encoder
  18:../libs/PoliTeKDSP/libs/libDaisy/src/hid/encoder.h **** {
  19:../libs/PoliTeKDSP/libs/libDaisy/src/hid/encoder.h ****   public:
  20:../libs/PoliTeKDSP/libs/libDaisy/src/hid/encoder.h ****     Encoder() {}
  21:../libs/PoliTeKDSP/libs/libDaisy/src/hid/encoder.h ****     ~Encoder() {}
  30              		.loc 1 21 5 view -0
  31              		.cfi_startproc
  32              		@ args = 0, pretend = 0, frame = 0
  33              		@ frame_needed = 0, uses_anonymous_args = 0
  34              		@ link register save eliminated.
  35              	.LBB568:
  36              	.LBI568:
  37              		.file 2 "../libs/PoliTeKDSP/libs/libDaisy/src/hid/switch.h"
ARM GAS  C:\Users\skipi\AppData\Local\Temp\ccpgF6Mp.s 			page 2


   1:../libs/PoliTeKDSP/libs/libDaisy/src/hid/switch.h **** #pragma once
   2:../libs/PoliTeKDSP/libs/libDaisy/src/hid/switch.h **** #ifndef DSY_SWITCH_H
   3:../libs/PoliTeKDSP/libs/libDaisy/src/hid/switch.h **** #define DSY_SWITCH_H
   4:../libs/PoliTeKDSP/libs/libDaisy/src/hid/switch.h **** #include "daisy_core.h"
   5:../libs/PoliTeKDSP/libs/libDaisy/src/hid/switch.h **** #include "per/gpio.h"
   6:../libs/PoliTeKDSP/libs/libDaisy/src/hid/switch.h **** #include "sys/system.h"
   7:../libs/PoliTeKDSP/libs/libDaisy/src/hid/switch.h **** 
   8:../libs/PoliTeKDSP/libs/libDaisy/src/hid/switch.h **** namespace daisy
   9:../libs/PoliTeKDSP/libs/libDaisy/src/hid/switch.h **** {
  10:../libs/PoliTeKDSP/libs/libDaisy/src/hid/switch.h **** /** 
  11:../libs/PoliTeKDSP/libs/libDaisy/src/hid/switch.h ****     Generic Class for handling momentary/latching switches \n 
  12:../libs/PoliTeKDSP/libs/libDaisy/src/hid/switch.h ****     Inspired/influenced by Mutable Instruments (pichenettes) Switch classes
  13:../libs/PoliTeKDSP/libs/libDaisy/src/hid/switch.h ****     @author Stephen Hensley
  14:../libs/PoliTeKDSP/libs/libDaisy/src/hid/switch.h ****     @date December 2019
  15:../libs/PoliTeKDSP/libs/libDaisy/src/hid/switch.h ****     @ingroup controls
  16:../libs/PoliTeKDSP/libs/libDaisy/src/hid/switch.h **** */
  17:../libs/PoliTeKDSP/libs/libDaisy/src/hid/switch.h **** class Switch
  18:../libs/PoliTeKDSP/libs/libDaisy/src/hid/switch.h **** {
  19:../libs/PoliTeKDSP/libs/libDaisy/src/hid/switch.h ****   public:
  20:../libs/PoliTeKDSP/libs/libDaisy/src/hid/switch.h ****     /** Specifies the expected behavior of the switch */
  21:../libs/PoliTeKDSP/libs/libDaisy/src/hid/switch.h ****     enum Type
  22:../libs/PoliTeKDSP/libs/libDaisy/src/hid/switch.h ****     {
  23:../libs/PoliTeKDSP/libs/libDaisy/src/hid/switch.h ****         TYPE_TOGGLE,    /**< & */
  24:../libs/PoliTeKDSP/libs/libDaisy/src/hid/switch.h ****         TYPE_MOMENTARY, /**< & */
  25:../libs/PoliTeKDSP/libs/libDaisy/src/hid/switch.h ****     };
  26:../libs/PoliTeKDSP/libs/libDaisy/src/hid/switch.h ****     /** Specifies whether the pressed is HIGH or LOW. */
  27:../libs/PoliTeKDSP/libs/libDaisy/src/hid/switch.h ****     enum Polarity
  28:../libs/PoliTeKDSP/libs/libDaisy/src/hid/switch.h ****     {
  29:../libs/PoliTeKDSP/libs/libDaisy/src/hid/switch.h ****         POLARITY_NORMAL,   /**< & */
  30:../libs/PoliTeKDSP/libs/libDaisy/src/hid/switch.h ****         POLARITY_INVERTED, /**< & */
  31:../libs/PoliTeKDSP/libs/libDaisy/src/hid/switch.h ****     };
  32:../libs/PoliTeKDSP/libs/libDaisy/src/hid/switch.h **** 
  33:../libs/PoliTeKDSP/libs/libDaisy/src/hid/switch.h ****     Switch() {}
  34:../libs/PoliTeKDSP/libs/libDaisy/src/hid/switch.h ****     ~Switch() {}
  38              		.loc 2 34 5 view .LVU1
  39              		.loc 2 34 5 is_stmt 0 view .LVU2
  40              	.LBE568:
  41              		.loc 1 21 17 view .LVU3
  42 0000 7047     		bx	lr
  43              		.cfi_endproc
  44              	.LFE1699:
  46              		.weak	_ZN5daisy7EncoderD1Ev
  47              		.thumb_set _ZN5daisy7EncoderD1Ev,_ZN5daisy7EncoderD2Ev
  48 0002 00BF     		.section	.text._ZN5daisy9DaisySeedD2Ev,"axG",%progbits,_ZN5daisy9DaisySeedD5Ev,comdat
  49              		.align	1
  50              		.p2align 2,,3
  51              		.weak	_ZN5daisy9DaisySeedD2Ev
  52              		.syntax unified
  53              		.thumb
  54              		.thumb_func
  55              		.fpu fpv5-d16
  57              	_ZN5daisy9DaisySeedD2Ev:
  58              	.LVL1:
  59              	.LFB2729:
  60              		.file 3 "../libs/PoliTeKDSP/libs/libDaisy/src/daisy_seed.h"
   1:../libs/PoliTeKDSP/libs/libDaisy/src/daisy_seed.h **** #pragma once
   2:../libs/PoliTeKDSP/libs/libDaisy/src/daisy_seed.h **** #ifndef DSY_SEED_H
ARM GAS  C:\Users\skipi\AppData\Local\Temp\ccpgF6Mp.s 			page 3


   3:../libs/PoliTeKDSP/libs/libDaisy/src/daisy_seed.h **** #define DSY_SEED_H
   4:../libs/PoliTeKDSP/libs/libDaisy/src/daisy_seed.h **** 
   5:../libs/PoliTeKDSP/libs/libDaisy/src/daisy_seed.h **** #include "daisy.h"
   6:../libs/PoliTeKDSP/libs/libDaisy/src/daisy_seed.h **** 
   7:../libs/PoliTeKDSP/libs/libDaisy/src/daisy_seed.h **** //Uncomment this out if you're still using the rev2 hardware
   8:../libs/PoliTeKDSP/libs/libDaisy/src/daisy_seed.h **** //#define SEED_REV2
   9:../libs/PoliTeKDSP/libs/libDaisy/src/daisy_seed.h **** 
  10:../libs/PoliTeKDSP/libs/libDaisy/src/daisy_seed.h **** namespace daisy
  11:../libs/PoliTeKDSP/libs/libDaisy/src/daisy_seed.h **** {
  12:../libs/PoliTeKDSP/libs/libDaisy/src/daisy_seed.h **** /**
  13:../libs/PoliTeKDSP/libs/libDaisy/src/daisy_seed.h ****    @brief This is the higher-level interface for the Daisy board. \n 
  14:../libs/PoliTeKDSP/libs/libDaisy/src/daisy_seed.h ****     All basic peripheral configuration/initialization is setup here. \n
  15:../libs/PoliTeKDSP/libs/libDaisy/src/daisy_seed.h **** 
  16:../libs/PoliTeKDSP/libs/libDaisy/src/daisy_seed.h ****    @ingroup boards
  17:../libs/PoliTeKDSP/libs/libDaisy/src/daisy_seed.h **** */
  18:../libs/PoliTeKDSP/libs/libDaisy/src/daisy_seed.h **** class DaisySeed
  19:../libs/PoliTeKDSP/libs/libDaisy/src/daisy_seed.h **** {
  20:../libs/PoliTeKDSP/libs/libDaisy/src/daisy_seed.h ****   public:
  21:../libs/PoliTeKDSP/libs/libDaisy/src/daisy_seed.h ****     DaisySeed() {}
  22:../libs/PoliTeKDSP/libs/libDaisy/src/daisy_seed.h ****     ~DaisySeed() {}
  61              		.loc 3 22 5 is_stmt 1 view -0
  62              		.cfi_startproc
  63              		@ args = 0, pretend = 0, frame = 0
  64              		@ frame_needed = 0, uses_anonymous_args = 0
  65              		@ link register save eliminated.
  66              	.LBB569:
  67              	.LBI569:
  68              		.file 4 "../libs/PoliTeKDSP/libs/libDaisy/src/dev/codec_ak4556.h"
   1:../libs/PoliTeKDSP/libs/libDaisy/src/dev/codec_ak4556.h **** #pragma once
   2:../libs/PoliTeKDSP/libs/libDaisy/src/dev/codec_ak4556.h **** #ifndef DSY_CODEC_AK4556_H
   3:../libs/PoliTeKDSP/libs/libDaisy/src/dev/codec_ak4556.h **** #define DSY_CODEC_AK4556_H
   4:../libs/PoliTeKDSP/libs/libDaisy/src/dev/codec_ak4556.h **** 
   5:../libs/PoliTeKDSP/libs/libDaisy/src/dev/codec_ak4556.h **** #include "daisy_core.h"
   6:../libs/PoliTeKDSP/libs/libDaisy/src/dev/codec_ak4556.h **** #include "per/gpio.h"
   7:../libs/PoliTeKDSP/libs/libDaisy/src/dev/codec_ak4556.h **** 
   8:../libs/PoliTeKDSP/libs/libDaisy/src/dev/codec_ak4556.h **** namespace daisy
   9:../libs/PoliTeKDSP/libs/libDaisy/src/dev/codec_ak4556.h **** {
  10:../libs/PoliTeKDSP/libs/libDaisy/src/dev/codec_ak4556.h **** /** @brief Ak4556 Codec support 
  11:../libs/PoliTeKDSP/libs/libDaisy/src/dev/codec_ak4556.h ****  ** @author shensley
  12:../libs/PoliTeKDSP/libs/libDaisy/src/dev/codec_ak4556.h ****  ** @addtogroup codec
  13:../libs/PoliTeKDSP/libs/libDaisy/src/dev/codec_ak4556.h ****  ** 
  14:../libs/PoliTeKDSP/libs/libDaisy/src/dev/codec_ak4556.h ****  ** I don't see any real reason to have this be more than a function, but in case we want
  15:../libs/PoliTeKDSP/libs/libDaisy/src/dev/codec_ak4556.h ****  ** to add other functions down the road I wrapped the function in a class.
  16:../libs/PoliTeKDSP/libs/libDaisy/src/dev/codec_ak4556.h ****  ***/
  17:../libs/PoliTeKDSP/libs/libDaisy/src/dev/codec_ak4556.h **** class Ak4556
  18:../libs/PoliTeKDSP/libs/libDaisy/src/dev/codec_ak4556.h **** {
  19:../libs/PoliTeKDSP/libs/libDaisy/src/dev/codec_ak4556.h ****   public:
  20:../libs/PoliTeKDSP/libs/libDaisy/src/dev/codec_ak4556.h ****     Ak4556() {}
  21:../libs/PoliTeKDSP/libs/libDaisy/src/dev/codec_ak4556.h ****     ~Ak4556() {}
  69              		.loc 4 21 5 view .LVU5
  70              		.loc 4 21 5 is_stmt 0 view .LVU6
  71              	.LBE569:
  72              	.LBB570:
  73              	.LBI570:
  74              		.file 5 "../libs/PoliTeKDSP/libs/libDaisy/src/sys/system.h"
   1:../libs/PoliTeKDSP/libs/libDaisy/src/sys/system.h **** #ifndef DSY_SYSTEM_H
   2:../libs/PoliTeKDSP/libs/libDaisy/src/sys/system.h **** #define DSY_SYSTEM_H
ARM GAS  C:\Users\skipi\AppData\Local\Temp\ccpgF6Mp.s 			page 4


   3:../libs/PoliTeKDSP/libs/libDaisy/src/sys/system.h **** 
   4:../libs/PoliTeKDSP/libs/libDaisy/src/sys/system.h **** #ifndef UNIT_TEST // for unit tests, a dummy implementation is provided below
   5:../libs/PoliTeKDSP/libs/libDaisy/src/sys/system.h **** 
   6:../libs/PoliTeKDSP/libs/libDaisy/src/sys/system.h **** #include <cstdint>
   7:../libs/PoliTeKDSP/libs/libDaisy/src/sys/system.h **** #include "per/tim.h"
   8:../libs/PoliTeKDSP/libs/libDaisy/src/sys/system.h **** 
   9:../libs/PoliTeKDSP/libs/libDaisy/src/sys/system.h **** namespace daisy
  10:../libs/PoliTeKDSP/libs/libDaisy/src/sys/system.h **** {
  11:../libs/PoliTeKDSP/libs/libDaisy/src/sys/system.h **** /** A handle for interacting with the Core System.
  12:../libs/PoliTeKDSP/libs/libDaisy/src/sys/system.h ****  ** This includes the Clock tree, MPU, global DMA initialization,
  13:../libs/PoliTeKDSP/libs/libDaisy/src/sys/system.h ****  ** cache handling, and any other necessary global initiailzation
  14:../libs/PoliTeKDSP/libs/libDaisy/src/sys/system.h ****  **
  15:../libs/PoliTeKDSP/libs/libDaisy/src/sys/system.h ****  ** @author shensley
  16:../libs/PoliTeKDSP/libs/libDaisy/src/sys/system.h ****  ** @ingroup system
  17:../libs/PoliTeKDSP/libs/libDaisy/src/sys/system.h ****  */
  18:../libs/PoliTeKDSP/libs/libDaisy/src/sys/system.h **** class System
  19:../libs/PoliTeKDSP/libs/libDaisy/src/sys/system.h **** {
  20:../libs/PoliTeKDSP/libs/libDaisy/src/sys/system.h ****   public:
  21:../libs/PoliTeKDSP/libs/libDaisy/src/sys/system.h ****     /** Contains settings for initializing the System */
  22:../libs/PoliTeKDSP/libs/libDaisy/src/sys/system.h ****     struct Config
  23:../libs/PoliTeKDSP/libs/libDaisy/src/sys/system.h ****     {
  24:../libs/PoliTeKDSP/libs/libDaisy/src/sys/system.h ****         /** Specifies the system clock frequency that feeds APB/AHB clocks, etc. */
  25:../libs/PoliTeKDSP/libs/libDaisy/src/sys/system.h ****         enum class SysClkFreq
  26:../libs/PoliTeKDSP/libs/libDaisy/src/sys/system.h ****         {
  27:../libs/PoliTeKDSP/libs/libDaisy/src/sys/system.h ****             FREQ_400MHZ,
  28:../libs/PoliTeKDSP/libs/libDaisy/src/sys/system.h ****             FREQ_480MHZ,
  29:../libs/PoliTeKDSP/libs/libDaisy/src/sys/system.h ****         };
  30:../libs/PoliTeKDSP/libs/libDaisy/src/sys/system.h **** 
  31:../libs/PoliTeKDSP/libs/libDaisy/src/sys/system.h ****         /** Method to call on the struct to set to defaults
  32:../libs/PoliTeKDSP/libs/libDaisy/src/sys/system.h ****          ** CPU Freq set to 400MHz
  33:../libs/PoliTeKDSP/libs/libDaisy/src/sys/system.h ****          ** Cache Enabled
  34:../libs/PoliTeKDSP/libs/libDaisy/src/sys/system.h ****          ** */
  35:../libs/PoliTeKDSP/libs/libDaisy/src/sys/system.h ****         void Defaults()
  36:../libs/PoliTeKDSP/libs/libDaisy/src/sys/system.h ****         {
  37:../libs/PoliTeKDSP/libs/libDaisy/src/sys/system.h ****             cpu_freq    = SysClkFreq::FREQ_400MHZ;
  38:../libs/PoliTeKDSP/libs/libDaisy/src/sys/system.h ****             use_dcache  = true;
  39:../libs/PoliTeKDSP/libs/libDaisy/src/sys/system.h ****             use_icache  = true;
  40:../libs/PoliTeKDSP/libs/libDaisy/src/sys/system.h ****             skip_clocks = false;
  41:../libs/PoliTeKDSP/libs/libDaisy/src/sys/system.h ****         }
  42:../libs/PoliTeKDSP/libs/libDaisy/src/sys/system.h **** 
  43:../libs/PoliTeKDSP/libs/libDaisy/src/sys/system.h ****         /** Method to call on the struct to set to boost mode:
  44:../libs/PoliTeKDSP/libs/libDaisy/src/sys/system.h ****          ** CPU Freq set to 480MHz
  45:../libs/PoliTeKDSP/libs/libDaisy/src/sys/system.h ****          ** Cache Enabled
  46:../libs/PoliTeKDSP/libs/libDaisy/src/sys/system.h ****          ** */
  47:../libs/PoliTeKDSP/libs/libDaisy/src/sys/system.h ****         void Boost()
  48:../libs/PoliTeKDSP/libs/libDaisy/src/sys/system.h ****         {
  49:../libs/PoliTeKDSP/libs/libDaisy/src/sys/system.h ****             cpu_freq    = SysClkFreq::FREQ_480MHZ;
  50:../libs/PoliTeKDSP/libs/libDaisy/src/sys/system.h ****             use_dcache  = true;
  51:../libs/PoliTeKDSP/libs/libDaisy/src/sys/system.h ****             use_icache  = true;
  52:../libs/PoliTeKDSP/libs/libDaisy/src/sys/system.h ****             skip_clocks = false;
  53:../libs/PoliTeKDSP/libs/libDaisy/src/sys/system.h ****         }
  54:../libs/PoliTeKDSP/libs/libDaisy/src/sys/system.h **** 
  55:../libs/PoliTeKDSP/libs/libDaisy/src/sys/system.h ****         SysClkFreq cpu_freq;
  56:../libs/PoliTeKDSP/libs/libDaisy/src/sys/system.h ****         bool       use_dcache;
  57:../libs/PoliTeKDSP/libs/libDaisy/src/sys/system.h ****         bool       use_icache;
  58:../libs/PoliTeKDSP/libs/libDaisy/src/sys/system.h ****         bool       skip_clocks;
  59:../libs/PoliTeKDSP/libs/libDaisy/src/sys/system.h ****     };
ARM GAS  C:\Users\skipi\AppData\Local\Temp\ccpgF6Mp.s 			page 5


  60:../libs/PoliTeKDSP/libs/libDaisy/src/sys/system.h **** 
  61:../libs/PoliTeKDSP/libs/libDaisy/src/sys/system.h ****     /** Describes the different regions of memory available to the Daisy */
  62:../libs/PoliTeKDSP/libs/libDaisy/src/sys/system.h ****     enum MemoryRegion
  63:../libs/PoliTeKDSP/libs/libDaisy/src/sys/system.h ****     {
  64:../libs/PoliTeKDSP/libs/libDaisy/src/sys/system.h ****         INTERNAL_FLASH = 0,
  65:../libs/PoliTeKDSP/libs/libDaisy/src/sys/system.h ****         ITCMRAM,
  66:../libs/PoliTeKDSP/libs/libDaisy/src/sys/system.h ****         DTCMRAM,
  67:../libs/PoliTeKDSP/libs/libDaisy/src/sys/system.h ****         SRAM_D1,
  68:../libs/PoliTeKDSP/libs/libDaisy/src/sys/system.h ****         SRAM_D2,
  69:../libs/PoliTeKDSP/libs/libDaisy/src/sys/system.h ****         SRAM_D3,
  70:../libs/PoliTeKDSP/libs/libDaisy/src/sys/system.h ****         SDRAM,
  71:../libs/PoliTeKDSP/libs/libDaisy/src/sys/system.h ****         QSPI,
  72:../libs/PoliTeKDSP/libs/libDaisy/src/sys/system.h ****         INVALID_ADDRESS,
  73:../libs/PoliTeKDSP/libs/libDaisy/src/sys/system.h ****     };
  74:../libs/PoliTeKDSP/libs/libDaisy/src/sys/system.h **** 
  75:../libs/PoliTeKDSP/libs/libDaisy/src/sys/system.h ****     /** Bootloader struct for controlling bootloading parameters */
  76:../libs/PoliTeKDSP/libs/libDaisy/src/sys/system.h ****     struct BootInfo
  77:../libs/PoliTeKDSP/libs/libDaisy/src/sys/system.h ****     {
  78:../libs/PoliTeKDSP/libs/libDaisy/src/sys/system.h ****         enum class Type : uint32_t
  79:../libs/PoliTeKDSP/libs/libDaisy/src/sys/system.h ****         {
  80:../libs/PoliTeKDSP/libs/libDaisy/src/sys/system.h ****             INVALID      = 0x00000000,
  81:../libs/PoliTeKDSP/libs/libDaisy/src/sys/system.h ****             JUMP         = 0xDEADBEEF,
  82:../libs/PoliTeKDSP/libs/libDaisy/src/sys/system.h ****             SKIP_TIMEOUT = 0x5AFEB007,
  83:../libs/PoliTeKDSP/libs/libDaisy/src/sys/system.h ****             INF_TIMEOUT  = 0xB0074EFA,
  84:../libs/PoliTeKDSP/libs/libDaisy/src/sys/system.h ****         } status;
  85:../libs/PoliTeKDSP/libs/libDaisy/src/sys/system.h ****         uint32_t data;
  86:../libs/PoliTeKDSP/libs/libDaisy/src/sys/system.h ****         enum class Version : uint32_t
  87:../libs/PoliTeKDSP/libs/libDaisy/src/sys/system.h ****         {
  88:../libs/PoliTeKDSP/libs/libDaisy/src/sys/system.h ****             LT_v6_0 = 0, // Less than v6.0
  89:../libs/PoliTeKDSP/libs/libDaisy/src/sys/system.h ****             NONE,        // No bootloader present
  90:../libs/PoliTeKDSP/libs/libDaisy/src/sys/system.h ****             v6_0,        // v6.0
  91:../libs/PoliTeKDSP/libs/libDaisy/src/sys/system.h ****             v6_1,        // v6.1 or greater
  92:../libs/PoliTeKDSP/libs/libDaisy/src/sys/system.h ****             LAST
  93:../libs/PoliTeKDSP/libs/libDaisy/src/sys/system.h ****         } version;
  94:../libs/PoliTeKDSP/libs/libDaisy/src/sys/system.h ****     };
  95:../libs/PoliTeKDSP/libs/libDaisy/src/sys/system.h **** 
  96:../libs/PoliTeKDSP/libs/libDaisy/src/sys/system.h ****     System() {}
  97:../libs/PoliTeKDSP/libs/libDaisy/src/sys/system.h ****     ~System() {}
  75              		.loc 5 97 5 is_stmt 1 view .LVU7
  76              		.loc 5 97 5 is_stmt 0 view .LVU8
  77              	.LBE570:
  78              	.LBB571:
  79              	.LBI571:
  80              		.file 6 "../libs/PoliTeKDSP/libs/libDaisy/src/hid/usb.h"
   1:../libs/PoliTeKDSP/libs/libDaisy/src/hid/usb.h **** #pragma once
   2:../libs/PoliTeKDSP/libs/libDaisy/src/hid/usb.h **** #ifndef DSY_HID_USB_H
   3:../libs/PoliTeKDSP/libs/libDaisy/src/hid/usb.h **** #define DSY_HID_USB_H
   4:../libs/PoliTeKDSP/libs/libDaisy/src/hid/usb.h **** #include <stdint.h>
   5:../libs/PoliTeKDSP/libs/libDaisy/src/hid/usb.h **** #include <stdlib.h>
   6:../libs/PoliTeKDSP/libs/libDaisy/src/hid/usb.h **** 
   7:../libs/PoliTeKDSP/libs/libDaisy/src/hid/usb.h **** namespace daisy
   8:../libs/PoliTeKDSP/libs/libDaisy/src/hid/usb.h **** /** @addtogroup human_interface
   9:../libs/PoliTeKDSP/libs/libDaisy/src/hid/usb.h ****     @{
  10:../libs/PoliTeKDSP/libs/libDaisy/src/hid/usb.h **** */
  11:../libs/PoliTeKDSP/libs/libDaisy/src/hid/usb.h **** 
  12:../libs/PoliTeKDSP/libs/libDaisy/src/hid/usb.h **** {
  13:../libs/PoliTeKDSP/libs/libDaisy/src/hid/usb.h **** /** 
ARM GAS  C:\Users\skipi\AppData\Local\Temp\ccpgF6Mp.s 			page 6


  14:../libs/PoliTeKDSP/libs/libDaisy/src/hid/usb.h ****     @brief Interface for initializing and using the USB Peripherals on the daisy
  15:../libs/PoliTeKDSP/libs/libDaisy/src/hid/usb.h ****     @author Stephen Hensley
  16:../libs/PoliTeKDSP/libs/libDaisy/src/hid/usb.h ****     @date December 2019
  17:../libs/PoliTeKDSP/libs/libDaisy/src/hid/usb.h **** */
  18:../libs/PoliTeKDSP/libs/libDaisy/src/hid/usb.h **** class UsbHandle
  19:../libs/PoliTeKDSP/libs/libDaisy/src/hid/usb.h **** {
  20:../libs/PoliTeKDSP/libs/libDaisy/src/hid/usb.h ****   public:
  21:../libs/PoliTeKDSP/libs/libDaisy/src/hid/usb.h ****     /** Return values for USBHandle Functions */
  22:../libs/PoliTeKDSP/libs/libDaisy/src/hid/usb.h ****     enum class Result
  23:../libs/PoliTeKDSP/libs/libDaisy/src/hid/usb.h ****     {
  24:../libs/PoliTeKDSP/libs/libDaisy/src/hid/usb.h ****         OK,
  25:../libs/PoliTeKDSP/libs/libDaisy/src/hid/usb.h ****         ERR,
  26:../libs/PoliTeKDSP/libs/libDaisy/src/hid/usb.h ****     };
  27:../libs/PoliTeKDSP/libs/libDaisy/src/hid/usb.h **** 
  28:../libs/PoliTeKDSP/libs/libDaisy/src/hid/usb.h ****     /** Specified which of the two USB Peripherals to initialize. */
  29:../libs/PoliTeKDSP/libs/libDaisy/src/hid/usb.h ****     enum UsbPeriph
  30:../libs/PoliTeKDSP/libs/libDaisy/src/hid/usb.h ****     {
  31:../libs/PoliTeKDSP/libs/libDaisy/src/hid/usb.h ****         FS_INTERNAL, /**< Internal pin */
  32:../libs/PoliTeKDSP/libs/libDaisy/src/hid/usb.h ****         FS_EXTERNAL, /**< FS External D+ pin is Pin 38 (GPIO32). FS External D- pin is Pin 37 (GPIO
  33:../libs/PoliTeKDSP/libs/libDaisy/src/hid/usb.h ****         FS_BOTH,     /**< Both */
  34:../libs/PoliTeKDSP/libs/libDaisy/src/hid/usb.h ****     };
  35:../libs/PoliTeKDSP/libs/libDaisy/src/hid/usb.h **** 
  36:../libs/PoliTeKDSP/libs/libDaisy/src/hid/usb.h **** 
  37:../libs/PoliTeKDSP/libs/libDaisy/src/hid/usb.h ****     /** Function called upon reception of a buffer */
  38:../libs/PoliTeKDSP/libs/libDaisy/src/hid/usb.h ****     typedef void (*ReceiveCallback)(uint8_t* buff, uint32_t* len);
  39:../libs/PoliTeKDSP/libs/libDaisy/src/hid/usb.h **** 
  40:../libs/PoliTeKDSP/libs/libDaisy/src/hid/usb.h ****     UsbHandle() {}
  41:../libs/PoliTeKDSP/libs/libDaisy/src/hid/usb.h **** 
  42:../libs/PoliTeKDSP/libs/libDaisy/src/hid/usb.h ****     ~UsbHandle() {}
  81              		.loc 6 42 5 is_stmt 1 view .LVU9
  82              		.loc 6 42 5 is_stmt 0 view .LVU10
  83              	.LBE571:
  84              	.LBB572:
  85              	.LBI572:
  86              		.file 7 "../libs/PoliTeKDSP/libs/libDaisy/src/per/adc.h"
   1:../libs/PoliTeKDSP/libs/libDaisy/src/per/adc.h **** #pragma once
   2:../libs/PoliTeKDSP/libs/libDaisy/src/per/adc.h **** #ifndef DSY_ADC_H
   3:../libs/PoliTeKDSP/libs/libDaisy/src/per/adc.h **** #define DSY_ADC_H /**< Macro */
   4:../libs/PoliTeKDSP/libs/libDaisy/src/per/adc.h **** #include <stdint.h>
   5:../libs/PoliTeKDSP/libs/libDaisy/src/per/adc.h **** #include <stdlib.h>
   6:../libs/PoliTeKDSP/libs/libDaisy/src/per/adc.h **** #include "daisy_core.h"
   7:../libs/PoliTeKDSP/libs/libDaisy/src/per/adc.h **** #include "per/gpio.h"
   8:../libs/PoliTeKDSP/libs/libDaisy/src/per/adc.h **** 
   9:../libs/PoliTeKDSP/libs/libDaisy/src/per/adc.h **** #define DSY_ADC_MAX_CHANNELS 16 /**< Maximum number of ADC channels */
  10:../libs/PoliTeKDSP/libs/libDaisy/src/per/adc.h **** 
  11:../libs/PoliTeKDSP/libs/libDaisy/src/per/adc.h **** namespace daisy
  12:../libs/PoliTeKDSP/libs/libDaisy/src/per/adc.h **** {
  13:../libs/PoliTeKDSP/libs/libDaisy/src/per/adc.h **** /** @addtogroup per_analog
  14:../libs/PoliTeKDSP/libs/libDaisy/src/per/adc.h ****     @{
  15:../libs/PoliTeKDSP/libs/libDaisy/src/per/adc.h **** */
  16:../libs/PoliTeKDSP/libs/libDaisy/src/per/adc.h **** 
  17:../libs/PoliTeKDSP/libs/libDaisy/src/per/adc.h **** /* While there may not be many configuration options here,
  18:../libs/PoliTeKDSP/libs/libDaisy/src/per/adc.h **** using a struct like this allows us to add more configuration
  19:../libs/PoliTeKDSP/libs/libDaisy/src/per/adc.h **** later without breaking existing functionality.
  20:../libs/PoliTeKDSP/libs/libDaisy/src/per/adc.h **** */
  21:../libs/PoliTeKDSP/libs/libDaisy/src/per/adc.h **** 
  22:../libs/PoliTeKDSP/libs/libDaisy/src/per/adc.h **** /** @brief   Configuration Structure for an ADC Channel 
ARM GAS  C:\Users\skipi\AppData\Local\Temp\ccpgF6Mp.s 			page 7


  23:../libs/PoliTeKDSP/libs/libDaisy/src/per/adc.h ****  *  @details This can be used to configure a a single input, 
  24:../libs/PoliTeKDSP/libs/libDaisy/src/per/adc.h ****  *           or a multiplexed input, allowing up to 8 inputs on 
  25:../libs/PoliTeKDSP/libs/libDaisy/src/per/adc.h ****  *           one channel.
  26:../libs/PoliTeKDSP/libs/libDaisy/src/per/adc.h ****  *  @note    Sharing data lines to multiple muxes _is_ possible, but
  27:../libs/PoliTeKDSP/libs/libDaisy/src/per/adc.h ****  *           each channel sharing data lines must be set to the maximum
  28:../libs/PoliTeKDSP/libs/libDaisy/src/per/adc.h ****  *           number of channels, even if some multiplexers have fewer
  29:../libs/PoliTeKDSP/libs/libDaisy/src/per/adc.h ****  *           inputs connected.
  30:../libs/PoliTeKDSP/libs/libDaisy/src/per/adc.h **** */
  31:../libs/PoliTeKDSP/libs/libDaisy/src/per/adc.h **** struct AdcChannelConfig
  32:../libs/PoliTeKDSP/libs/libDaisy/src/per/adc.h **** {
  33:../libs/PoliTeKDSP/libs/libDaisy/src/per/adc.h ****     /** Which pin to use for multiplexing */
  34:../libs/PoliTeKDSP/libs/libDaisy/src/per/adc.h ****     enum MuxPin
  35:../libs/PoliTeKDSP/libs/libDaisy/src/per/adc.h ****     {
  36:../libs/PoliTeKDSP/libs/libDaisy/src/per/adc.h ****         MUX_SEL_0,    /**< & */
  37:../libs/PoliTeKDSP/libs/libDaisy/src/per/adc.h ****         MUX_SEL_1,    /**< & */
  38:../libs/PoliTeKDSP/libs/libDaisy/src/per/adc.h ****         MUX_SEL_2,    /**< & */
  39:../libs/PoliTeKDSP/libs/libDaisy/src/per/adc.h ****         MUX_SEL_LAST, /**< & */
  40:../libs/PoliTeKDSP/libs/libDaisy/src/per/adc.h ****     };
  41:../libs/PoliTeKDSP/libs/libDaisy/src/per/adc.h **** 
  42:../libs/PoliTeKDSP/libs/libDaisy/src/per/adc.h ****     /** \brief per channel conversion speed added to fixed time based on bitdepth, etc. */
  43:../libs/PoliTeKDSP/libs/libDaisy/src/per/adc.h ****     enum ConversionSpeed
  44:../libs/PoliTeKDSP/libs/libDaisy/src/per/adc.h ****     {
  45:../libs/PoliTeKDSP/libs/libDaisy/src/per/adc.h ****         SPEED_1CYCLES_5,
  46:../libs/PoliTeKDSP/libs/libDaisy/src/per/adc.h ****         SPEED_2CYCLES_5,
  47:../libs/PoliTeKDSP/libs/libDaisy/src/per/adc.h ****         SPEED_8CYCLES_5,
  48:../libs/PoliTeKDSP/libs/libDaisy/src/per/adc.h ****         SPEED_16CYCLES_5,
  49:../libs/PoliTeKDSP/libs/libDaisy/src/per/adc.h ****         SPEED_32CYCLES_5,
  50:../libs/PoliTeKDSP/libs/libDaisy/src/per/adc.h ****         SPEED_64CYCLES_5,
  51:../libs/PoliTeKDSP/libs/libDaisy/src/per/adc.h ****         SPEED_387CYCLES_5,
  52:../libs/PoliTeKDSP/libs/libDaisy/src/per/adc.h ****         SPEED_810CYCLES_5,
  53:../libs/PoliTeKDSP/libs/libDaisy/src/per/adc.h ****     };
  54:../libs/PoliTeKDSP/libs/libDaisy/src/per/adc.h **** 
  55:../libs/PoliTeKDSP/libs/libDaisy/src/per/adc.h ****     /** Initializes a single ADC pin as an ADC. 
  56:../libs/PoliTeKDSP/libs/libDaisy/src/per/adc.h ****     \param pin Pin to init.
  57:../libs/PoliTeKDSP/libs/libDaisy/src/per/adc.h ****     \param speed conversion speed for this pin defaults to 8.5 cycles
  58:../libs/PoliTeKDSP/libs/libDaisy/src/per/adc.h ****      */
  59:../libs/PoliTeKDSP/libs/libDaisy/src/per/adc.h ****     void InitSingle(Pin pin, ConversionSpeed speed = SPEED_8CYCLES_5);
  60:../libs/PoliTeKDSP/libs/libDaisy/src/per/adc.h **** 
  61:../libs/PoliTeKDSP/libs/libDaisy/src/per/adc.h ****     /** 
  62:../libs/PoliTeKDSP/libs/libDaisy/src/per/adc.h ****     Initializes a single ADC pin as a Multiplexed ADC.
  63:../libs/PoliTeKDSP/libs/libDaisy/src/per/adc.h ****     Requires a CD405X Multiplexer connected to the pin.
  64:../libs/PoliTeKDSP/libs/libDaisy/src/per/adc.h ****     You only need to supply the mux pins that are required,
  65:../libs/PoliTeKDSP/libs/libDaisy/src/per/adc.h ****     e.g. a 4052 mux would only require mux_0 and mux_1.
  66:../libs/PoliTeKDSP/libs/libDaisy/src/per/adc.h ****     Internal Callbacks handle the pin addressing.
  67:../libs/PoliTeKDSP/libs/libDaisy/src/per/adc.h ****     \param adc_pin &
  68:../libs/PoliTeKDSP/libs/libDaisy/src/per/adc.h ****     \param mux_channels must be 1-8
  69:../libs/PoliTeKDSP/libs/libDaisy/src/per/adc.h ****     \param mux_0 First mux pin
  70:../libs/PoliTeKDSP/libs/libDaisy/src/per/adc.h ****     \param mux_1 Second mux pin
  71:../libs/PoliTeKDSP/libs/libDaisy/src/per/adc.h ****     \param mux_2 Third mux pin
  72:../libs/PoliTeKDSP/libs/libDaisy/src/per/adc.h ****     \param speed conversion speed for this pin defaults to 8.5 cycles
  73:../libs/PoliTeKDSP/libs/libDaisy/src/per/adc.h ****     */
  74:../libs/PoliTeKDSP/libs/libDaisy/src/per/adc.h ****     void InitMux(Pin             adc_pin,
  75:../libs/PoliTeKDSP/libs/libDaisy/src/per/adc.h ****                  size_t          mux_channels,
  76:../libs/PoliTeKDSP/libs/libDaisy/src/per/adc.h ****                  Pin             mux_0,
  77:../libs/PoliTeKDSP/libs/libDaisy/src/per/adc.h ****                  Pin             mux_1 = Pin(PORTX, 0),
  78:../libs/PoliTeKDSP/libs/libDaisy/src/per/adc.h ****                  Pin             mux_2 = Pin(PORTX, 0),
  79:../libs/PoliTeKDSP/libs/libDaisy/src/per/adc.h ****                  ConversionSpeed speed = SPEED_8CYCLES_5);
ARM GAS  C:\Users\skipi\AppData\Local\Temp\ccpgF6Mp.s 			page 8


  80:../libs/PoliTeKDSP/libs/libDaisy/src/per/adc.h **** 
  81:../libs/PoliTeKDSP/libs/libDaisy/src/per/adc.h ****     GPIO            pin_;                   /**< & */
  82:../libs/PoliTeKDSP/libs/libDaisy/src/per/adc.h ****     GPIO            mux_pin_[MUX_SEL_LAST]; /**< & */
  83:../libs/PoliTeKDSP/libs/libDaisy/src/per/adc.h ****     uint8_t         mux_channels_;          /**< & */
  84:../libs/PoliTeKDSP/libs/libDaisy/src/per/adc.h ****     ConversionSpeed speed_;
  85:../libs/PoliTeKDSP/libs/libDaisy/src/per/adc.h **** };
  86:../libs/PoliTeKDSP/libs/libDaisy/src/per/adc.h **** 
  87:../libs/PoliTeKDSP/libs/libDaisy/src/per/adc.h **** /**
  88:../libs/PoliTeKDSP/libs/libDaisy/src/per/adc.h ****    @brief Handler for analog to digital conversion
  89:../libs/PoliTeKDSP/libs/libDaisy/src/per/adc.h **** */
  90:../libs/PoliTeKDSP/libs/libDaisy/src/per/adc.h **** class AdcHandle
  91:../libs/PoliTeKDSP/libs/libDaisy/src/per/adc.h **** {
  92:../libs/PoliTeKDSP/libs/libDaisy/src/per/adc.h ****   public:
  93:../libs/PoliTeKDSP/libs/libDaisy/src/per/adc.h ****     /** Supported oversampling amounts */
  94:../libs/PoliTeKDSP/libs/libDaisy/src/per/adc.h ****     enum OverSampling
  95:../libs/PoliTeKDSP/libs/libDaisy/src/per/adc.h ****     {
  96:../libs/PoliTeKDSP/libs/libDaisy/src/per/adc.h ****         OVS_NONE, /**< & */
  97:../libs/PoliTeKDSP/libs/libDaisy/src/per/adc.h ****         OVS_4,    /**< & */
  98:../libs/PoliTeKDSP/libs/libDaisy/src/per/adc.h ****         OVS_8,    /**< & */
  99:../libs/PoliTeKDSP/libs/libDaisy/src/per/adc.h ****         OVS_16,   /**< & */
 100:../libs/PoliTeKDSP/libs/libDaisy/src/per/adc.h ****         OVS_32,   /**< & */
 101:../libs/PoliTeKDSP/libs/libDaisy/src/per/adc.h ****         OVS_64,   /**< & */
 102:../libs/PoliTeKDSP/libs/libDaisy/src/per/adc.h ****         OVS_128,  /**< & */
 103:../libs/PoliTeKDSP/libs/libDaisy/src/per/adc.h ****         OVS_256,  /**< & */
 104:../libs/PoliTeKDSP/libs/libDaisy/src/per/adc.h ****         OVS_512,  /**< & */
 105:../libs/PoliTeKDSP/libs/libDaisy/src/per/adc.h ****         OVS_1024, /**< & */
 106:../libs/PoliTeKDSP/libs/libDaisy/src/per/adc.h ****         OVS_LAST, /**< & */
 107:../libs/PoliTeKDSP/libs/libDaisy/src/per/adc.h ****     };
 108:../libs/PoliTeKDSP/libs/libDaisy/src/per/adc.h **** 
 109:../libs/PoliTeKDSP/libs/libDaisy/src/per/adc.h ****     AdcHandle() {}
 110:../libs/PoliTeKDSP/libs/libDaisy/src/per/adc.h ****     ~AdcHandle() {}
  87              		.loc 7 110 5 is_stmt 1 view .LVU11
  88              		.loc 7 110 5 is_stmt 0 view .LVU12
  89              	.LBE572:
  90              	.LBB573:
  91              	.LBI573:
  92              		.file 8 "../libs/PoliTeKDSP/libs/libDaisy/src/hid/audio.h"
   1:../libs/PoliTeKDSP/libs/libDaisy/src/hid/audio.h **** #ifndef DSY_AUDIO_H
   2:../libs/PoliTeKDSP/libs/libDaisy/src/hid/audio.h **** #define DSY_AUDIO_H /**< & */
   3:../libs/PoliTeKDSP/libs/libDaisy/src/hid/audio.h **** 
   4:../libs/PoliTeKDSP/libs/libDaisy/src/hid/audio.h **** #include "per/sai.h"
   5:../libs/PoliTeKDSP/libs/libDaisy/src/hid/audio.h **** 
   6:../libs/PoliTeKDSP/libs/libDaisy/src/hid/audio.h **** namespace daisy
   7:../libs/PoliTeKDSP/libs/libDaisy/src/hid/audio.h **** {
   8:../libs/PoliTeKDSP/libs/libDaisy/src/hid/audio.h **** /** @brief Audio Engine Handle
   9:../libs/PoliTeKDSP/libs/libDaisy/src/hid/audio.h ****  *  @ingroup audio 
  10:../libs/PoliTeKDSP/libs/libDaisy/src/hid/audio.h ****  *  @details This class allows for higher level access to an audio engine.
  11:../libs/PoliTeKDSP/libs/libDaisy/src/hid/audio.h ****  *           If you're using a SOM like the DaisySeed or DaisyPatchSM (or any 
  12:../libs/PoliTeKDSP/libs/libDaisy/src/hid/audio.h ****  *            board that includes one of those objects) then the intialization
  13:../libs/PoliTeKDSP/libs/libDaisy/src/hid/audio.h ****  *            is already taken  care of.
  14:../libs/PoliTeKDSP/libs/libDaisy/src/hid/audio.h ****  *           If you're setting up your own custom hardware, or need to make changes
  15:../libs/PoliTeKDSP/libs/libDaisy/src/hid/audio.h ****  *           you will have to take the following steps:
  16:../libs/PoliTeKDSP/libs/libDaisy/src/hid/audio.h ****  *             1. Create and Initialize an SaiHandle or two depending on your requirements
  17:../libs/PoliTeKDSP/libs/libDaisy/src/hid/audio.h ****  *             2. Initialize the Audio Handle with the desired settings and the Initialized SaiHand
  18:../libs/PoliTeKDSP/libs/libDaisy/src/hid/audio.h ****  *             3. If the connected codec requires special configuration or initialization, do so
  19:../libs/PoliTeKDSP/libs/libDaisy/src/hid/audio.h ****  *             4. Write a callback method using either the AudioCallback or the InterleavingAudioCa
  20:../libs/PoliTeKDSP/libs/libDaisy/src/hid/audio.h ****  *             5. Start the Audio using one of the StartAudio function
ARM GAS  C:\Users\skipi\AppData\Local\Temp\ccpgF6Mp.s 			page 9


  21:../libs/PoliTeKDSP/libs/libDaisy/src/hid/audio.h ****  */
  22:../libs/PoliTeKDSP/libs/libDaisy/src/hid/audio.h **** class AudioHandle
  23:../libs/PoliTeKDSP/libs/libDaisy/src/hid/audio.h **** {
  24:../libs/PoliTeKDSP/libs/libDaisy/src/hid/audio.h ****   public:
  25:../libs/PoliTeKDSP/libs/libDaisy/src/hid/audio.h ****     /** Manually configurable details about the Audio Engine */
  26:../libs/PoliTeKDSP/libs/libDaisy/src/hid/audio.h ****     /** TODO: Figure out how to get samplerate in here. */
  27:../libs/PoliTeKDSP/libs/libDaisy/src/hid/audio.h ****     struct Config
  28:../libs/PoliTeKDSP/libs/libDaisy/src/hid/audio.h ****     {
  29:../libs/PoliTeKDSP/libs/libDaisy/src/hid/audio.h ****         /** number of samples to process per callback */
  30:../libs/PoliTeKDSP/libs/libDaisy/src/hid/audio.h ****         size_t blocksize = 48;
  31:../libs/PoliTeKDSP/libs/libDaisy/src/hid/audio.h **** 
  32:../libs/PoliTeKDSP/libs/libDaisy/src/hid/audio.h ****         /**< Sample rate of audio */
  33:../libs/PoliTeKDSP/libs/libDaisy/src/hid/audio.h ****         SaiHandle::Config::SampleRate samplerate
  34:../libs/PoliTeKDSP/libs/libDaisy/src/hid/audio.h ****             = SaiHandle::Config::SampleRate::SAI_48KHZ;
  35:../libs/PoliTeKDSP/libs/libDaisy/src/hid/audio.h **** 
  36:../libs/PoliTeKDSP/libs/libDaisy/src/hid/audio.h ****         /** factor for adjustment before and after callback for hardware that may have extra headro
  37:../libs/PoliTeKDSP/libs/libDaisy/src/hid/audio.h ****         float postgain = 1.f;
  38:../libs/PoliTeKDSP/libs/libDaisy/src/hid/audio.h **** 
  39:../libs/PoliTeKDSP/libs/libDaisy/src/hid/audio.h ****         /** factor for additional one-sided compensation to audio path for hardware that may
  40:../libs/PoliTeKDSP/libs/libDaisy/src/hid/audio.h ****          *  have unequal input/output ranges
  41:../libs/PoliTeKDSP/libs/libDaisy/src/hid/audio.h ****          */
  42:../libs/PoliTeKDSP/libs/libDaisy/src/hid/audio.h ****         float output_compensation = 1.f;
  43:../libs/PoliTeKDSP/libs/libDaisy/src/hid/audio.h ****     };
  44:../libs/PoliTeKDSP/libs/libDaisy/src/hid/audio.h **** 
  45:../libs/PoliTeKDSP/libs/libDaisy/src/hid/audio.h ****     enum class Result
  46:../libs/PoliTeKDSP/libs/libDaisy/src/hid/audio.h ****     {
  47:../libs/PoliTeKDSP/libs/libDaisy/src/hid/audio.h ****         OK,
  48:../libs/PoliTeKDSP/libs/libDaisy/src/hid/audio.h ****         ERR,
  49:../libs/PoliTeKDSP/libs/libDaisy/src/hid/audio.h ****     };
  50:../libs/PoliTeKDSP/libs/libDaisy/src/hid/audio.h **** 
  51:../libs/PoliTeKDSP/libs/libDaisy/src/hid/audio.h ****     /** Non-Interleaving input buffer
  52:../libs/PoliTeKDSP/libs/libDaisy/src/hid/audio.h ****      * Buffer arranged by float[chn][sample] 
  53:../libs/PoliTeKDSP/libs/libDaisy/src/hid/audio.h ****      * const so that the user can't modify the input
  54:../libs/PoliTeKDSP/libs/libDaisy/src/hid/audio.h ****      */
  55:../libs/PoliTeKDSP/libs/libDaisy/src/hid/audio.h ****     typedef const float* const* InputBuffer;
  56:../libs/PoliTeKDSP/libs/libDaisy/src/hid/audio.h **** 
  57:../libs/PoliTeKDSP/libs/libDaisy/src/hid/audio.h ****     /** Non-Interleaving output buffer
  58:../libs/PoliTeKDSP/libs/libDaisy/src/hid/audio.h ****      * Arranged by float[chn][sample] 
  59:../libs/PoliTeKDSP/libs/libDaisy/src/hid/audio.h ****      */
  60:../libs/PoliTeKDSP/libs/libDaisy/src/hid/audio.h ****     typedef float** OutputBuffer;
  61:../libs/PoliTeKDSP/libs/libDaisy/src/hid/audio.h **** 
  62:../libs/PoliTeKDSP/libs/libDaisy/src/hid/audio.h ****     /** Type for a Non-Interleaving audio callback 
  63:../libs/PoliTeKDSP/libs/libDaisy/src/hid/audio.h ****      * Non-Interleaving audio callbacks in daisy will be of this type
  64:../libs/PoliTeKDSP/libs/libDaisy/src/hid/audio.h ****      */
  65:../libs/PoliTeKDSP/libs/libDaisy/src/hid/audio.h ****     typedef void (*AudioCallback)(InputBuffer  in,
  66:../libs/PoliTeKDSP/libs/libDaisy/src/hid/audio.h ****                                   OutputBuffer out,
  67:../libs/PoliTeKDSP/libs/libDaisy/src/hid/audio.h ****                                   size_t       size);
  68:../libs/PoliTeKDSP/libs/libDaisy/src/hid/audio.h **** 
  69:../libs/PoliTeKDSP/libs/libDaisy/src/hid/audio.h ****     /** Interleaving Input buffer
  70:../libs/PoliTeKDSP/libs/libDaisy/src/hid/audio.h ****      ** audio is prepared as { L0, R0, L1, R1, . . . LN, RN }]
  71:../libs/PoliTeKDSP/libs/libDaisy/src/hid/audio.h ****      ** this is const, as the user shouldn't modify it
  72:../libs/PoliTeKDSP/libs/libDaisy/src/hid/audio.h ****     */
  73:../libs/PoliTeKDSP/libs/libDaisy/src/hid/audio.h ****     typedef const float* InterleavingInputBuffer;
  74:../libs/PoliTeKDSP/libs/libDaisy/src/hid/audio.h **** 
  75:../libs/PoliTeKDSP/libs/libDaisy/src/hid/audio.h ****     /** Interleaving Output buffer 
  76:../libs/PoliTeKDSP/libs/libDaisy/src/hid/audio.h ****      ** audio is prepared as { L0, R0, L1, R1, . . . LN, RN }
  77:../libs/PoliTeKDSP/libs/libDaisy/src/hid/audio.h ****     */
ARM GAS  C:\Users\skipi\AppData\Local\Temp\ccpgF6Mp.s 			page 10


  78:../libs/PoliTeKDSP/libs/libDaisy/src/hid/audio.h ****     typedef float* InterleavingOutputBuffer;
  79:../libs/PoliTeKDSP/libs/libDaisy/src/hid/audio.h **** 
  80:../libs/PoliTeKDSP/libs/libDaisy/src/hid/audio.h ****     /** Interleaving Audio Callback 
  81:../libs/PoliTeKDSP/libs/libDaisy/src/hid/audio.h ****      * Interleaving audio callbacks in daisy must be of this type
  82:../libs/PoliTeKDSP/libs/libDaisy/src/hid/audio.h ****      */
  83:../libs/PoliTeKDSP/libs/libDaisy/src/hid/audio.h ****     typedef void (*InterleavingAudioCallback)(InterleavingInputBuffer  in,
  84:../libs/PoliTeKDSP/libs/libDaisy/src/hid/audio.h ****                                               InterleavingOutputBuffer out,
  85:../libs/PoliTeKDSP/libs/libDaisy/src/hid/audio.h ****                                               size_t                   size);
  86:../libs/PoliTeKDSP/libs/libDaisy/src/hid/audio.h **** 
  87:../libs/PoliTeKDSP/libs/libDaisy/src/hid/audio.h ****     AudioHandle() : pimpl_(nullptr) {}
  88:../libs/PoliTeKDSP/libs/libDaisy/src/hid/audio.h ****     ~AudioHandle() {}
  93              		.loc 8 88 5 is_stmt 1 view .LVU13
  94              		.loc 8 88 5 is_stmt 0 view .LVU14
  95              	.LBE573:
  96              		.loc 3 22 19 view .LVU15
  97 0000 7047     		bx	lr
  98              		.cfi_endproc
  99              	.LFE2729:
 101              		.weak	_ZN5daisy9DaisySeedD1Ev
 102              		.thumb_set _ZN5daisy9DaisySeedD1Ev,_ZN5daisy9DaisySeedD2Ev
 103 0002 00BF     		.section	.text._ZN5daisy11OledDisplayINS_13SSD130xDriverILj128ELj64ENS_19SSD130xI2CTransportEEEED2
 104              		.align	1
 105              		.p2align 2,,3
 106              		.weak	_ZN5daisy11OledDisplayINS_13SSD130xDriverILj128ELj64ENS_19SSD130xI2CTransportEEEED2Ev
 107              		.syntax unified
 108              		.thumb
 109              		.thumb_func
 110              		.fpu fpv5-d16
 112              	_ZN5daisy11OledDisplayINS_13SSD130xDriverILj128ELj64ENS_19SSD130xI2CTransportEEEED2Ev:
 113              	.LVL2:
 114              	.LFB5712:
 115              		.file 9 "../libs/PoliTeKDSP/libs/libDaisy/src/hid/disp/oled_display.h"
   1:../libs/PoliTeKDSP/libs/libDaisy/src/hid/disp/oled_display.h **** #pragma once
   2:../libs/PoliTeKDSP/libs/libDaisy/src/hid/disp/oled_display.h **** #ifndef DSY_OLED_DISPLAY_H
   3:../libs/PoliTeKDSP/libs/libDaisy/src/hid/disp/oled_display.h **** #define DSY_OLED_DISPLAY_H /**< Macro */
   4:../libs/PoliTeKDSP/libs/libDaisy/src/hid/disp/oled_display.h **** 
   5:../libs/PoliTeKDSP/libs/libDaisy/src/hid/disp/oled_display.h **** #include "display.h"
   6:../libs/PoliTeKDSP/libs/libDaisy/src/hid/disp/oled_display.h **** 
   7:../libs/PoliTeKDSP/libs/libDaisy/src/hid/disp/oled_display.h **** namespace daisy
   8:../libs/PoliTeKDSP/libs/libDaisy/src/hid/disp/oled_display.h **** {
   9:../libs/PoliTeKDSP/libs/libDaisy/src/hid/disp/oled_display.h **** /** 
  10:../libs/PoliTeKDSP/libs/libDaisy/src/hid/disp/oled_display.h ****  * This class is for drawing to a monochrome OLED display. 
  11:../libs/PoliTeKDSP/libs/libDaisy/src/hid/disp/oled_display.h ****  * @ingroup device
  12:../libs/PoliTeKDSP/libs/libDaisy/src/hid/disp/oled_display.h **** */
  13:../libs/PoliTeKDSP/libs/libDaisy/src/hid/disp/oled_display.h **** template <typename DisplayDriver>
  14:../libs/PoliTeKDSP/libs/libDaisy/src/hid/disp/oled_display.h **** class OledDisplay : public OneBitGraphicsDisplayImpl<OledDisplay<DisplayDriver>>
  15:../libs/PoliTeKDSP/libs/libDaisy/src/hid/disp/oled_display.h **** {
  16:../libs/PoliTeKDSP/libs/libDaisy/src/hid/disp/oled_display.h ****   public:
  17:../libs/PoliTeKDSP/libs/libDaisy/src/hid/disp/oled_display.h ****     OledDisplay() {}
  18:../libs/PoliTeKDSP/libs/libDaisy/src/hid/disp/oled_display.h ****     virtual ~OledDisplay() {}
 116              		.loc 9 18 13 is_stmt 1 view -0
 117              		.cfi_startproc
 118              		@ args = 0, pretend = 0, frame = 0
 119              		@ frame_needed = 0, uses_anonymous_args = 0
 120              		@ link register save eliminated.
 121              	.LBB574:
 122              	.LBI574:
ARM GAS  C:\Users\skipi\AppData\Local\Temp\ccpgF6Mp.s 			page 11


 123              		.file 10 "../libs/PoliTeKDSP/libs/libDaisy/src/hid/disp/display.h"
   1:../libs/PoliTeKDSP/libs/libDaisy/src/hid/disp/display.h **** #pragma once
   2:../libs/PoliTeKDSP/libs/libDaisy/src/hid/disp/display.h **** #ifndef DSY_DISPLAY_H
   3:../libs/PoliTeKDSP/libs/libDaisy/src/hid/disp/display.h **** #define DSY_DISPLAY_H /**< Macro */
   4:../libs/PoliTeKDSP/libs/libDaisy/src/hid/disp/display.h **** #include <cmath>
   5:../libs/PoliTeKDSP/libs/libDaisy/src/hid/disp/display.h **** #include "util/oled_fonts.h"
   6:../libs/PoliTeKDSP/libs/libDaisy/src/hid/disp/display.h **** #include "daisy_core.h"
   7:../libs/PoliTeKDSP/libs/libDaisy/src/hid/disp/display.h **** #include "graphics_common.h"
   8:../libs/PoliTeKDSP/libs/libDaisy/src/hid/disp/display.h **** 
   9:../libs/PoliTeKDSP/libs/libDaisy/src/hid/disp/display.h **** #ifndef deg2rad
  10:../libs/PoliTeKDSP/libs/libDaisy/src/hid/disp/display.h **** #define deg2rad(deg) ((deg)*3.141592 / 180.0)
  11:../libs/PoliTeKDSP/libs/libDaisy/src/hid/disp/display.h **** #endif
  12:../libs/PoliTeKDSP/libs/libDaisy/src/hid/disp/display.h **** 
  13:../libs/PoliTeKDSP/libs/libDaisy/src/hid/disp/display.h **** namespace daisy
  14:../libs/PoliTeKDSP/libs/libDaisy/src/hid/disp/display.h **** {
  15:../libs/PoliTeKDSP/libs/libDaisy/src/hid/disp/display.h **** /** 
  16:../libs/PoliTeKDSP/libs/libDaisy/src/hid/disp/display.h ****  * This interface is used as a base class for all types of 1bit-per-pixel
  17:../libs/PoliTeKDSP/libs/libDaisy/src/hid/disp/display.h ****  * graphics displays.
  18:../libs/PoliTeKDSP/libs/libDaisy/src/hid/disp/display.h **** */
  19:../libs/PoliTeKDSP/libs/libDaisy/src/hid/disp/display.h **** class OneBitGraphicsDisplay
  20:../libs/PoliTeKDSP/libs/libDaisy/src/hid/disp/display.h **** {
  21:../libs/PoliTeKDSP/libs/libDaisy/src/hid/disp/display.h ****   public:
  22:../libs/PoliTeKDSP/libs/libDaisy/src/hid/disp/display.h ****     OneBitGraphicsDisplay() {}
  23:../libs/PoliTeKDSP/libs/libDaisy/src/hid/disp/display.h ****     virtual ~OneBitGraphicsDisplay() {}
  24:../libs/PoliTeKDSP/libs/libDaisy/src/hid/disp/display.h **** 
  25:../libs/PoliTeKDSP/libs/libDaisy/src/hid/disp/display.h ****     virtual uint16_t Height() const = 0;
  26:../libs/PoliTeKDSP/libs/libDaisy/src/hid/disp/display.h ****     virtual uint16_t Width() const  = 0;
  27:../libs/PoliTeKDSP/libs/libDaisy/src/hid/disp/display.h **** 
  28:../libs/PoliTeKDSP/libs/libDaisy/src/hid/disp/display.h ****     Rectangle GetBounds() const
  29:../libs/PoliTeKDSP/libs/libDaisy/src/hid/disp/display.h ****     {
  30:../libs/PoliTeKDSP/libs/libDaisy/src/hid/disp/display.h ****         return Rectangle(int16_t(Width()), int16_t(Height()));
  31:../libs/PoliTeKDSP/libs/libDaisy/src/hid/disp/display.h ****     }
  32:../libs/PoliTeKDSP/libs/libDaisy/src/hid/disp/display.h **** 
  33:../libs/PoliTeKDSP/libs/libDaisy/src/hid/disp/display.h **** 
  34:../libs/PoliTeKDSP/libs/libDaisy/src/hid/disp/display.h ****     size_t CurrentX() { return currentX_; };
  35:../libs/PoliTeKDSP/libs/libDaisy/src/hid/disp/display.h ****     size_t CurrentY() { return currentY_; };
  36:../libs/PoliTeKDSP/libs/libDaisy/src/hid/disp/display.h **** 
  37:../libs/PoliTeKDSP/libs/libDaisy/src/hid/disp/display.h ****     /** 
  38:../libs/PoliTeKDSP/libs/libDaisy/src/hid/disp/display.h ****     Fills the entire display with either on/off.
  39:../libs/PoliTeKDSP/libs/libDaisy/src/hid/disp/display.h ****     \param on Sets on or off.
  40:../libs/PoliTeKDSP/libs/libDaisy/src/hid/disp/display.h ****     */
  41:../libs/PoliTeKDSP/libs/libDaisy/src/hid/disp/display.h ****     virtual void Fill(bool on) = 0;
  42:../libs/PoliTeKDSP/libs/libDaisy/src/hid/disp/display.h **** 
  43:../libs/PoliTeKDSP/libs/libDaisy/src/hid/disp/display.h ****     /**
  44:../libs/PoliTeKDSP/libs/libDaisy/src/hid/disp/display.h ****     Sets the pixel at the specified coordinate to be on/off.
  45:../libs/PoliTeKDSP/libs/libDaisy/src/hid/disp/display.h ****     \param x   x Coordinate
  46:../libs/PoliTeKDSP/libs/libDaisy/src/hid/disp/display.h ****     \param y   y coordinate
  47:../libs/PoliTeKDSP/libs/libDaisy/src/hid/disp/display.h ****     \param on  on or off
  48:../libs/PoliTeKDSP/libs/libDaisy/src/hid/disp/display.h ****     */
  49:../libs/PoliTeKDSP/libs/libDaisy/src/hid/disp/display.h ****     virtual void DrawPixel(uint_fast8_t x, uint_fast8_t y, bool on) = 0;
  50:../libs/PoliTeKDSP/libs/libDaisy/src/hid/disp/display.h **** 
  51:../libs/PoliTeKDSP/libs/libDaisy/src/hid/disp/display.h ****     /**
  52:../libs/PoliTeKDSP/libs/libDaisy/src/hid/disp/display.h ****     Draws a line from (x1, y1) to (y1, y2)
  53:../libs/PoliTeKDSP/libs/libDaisy/src/hid/disp/display.h ****     \param x1  x Coordinate of the starting point
  54:../libs/PoliTeKDSP/libs/libDaisy/src/hid/disp/display.h ****     \param y1  y Coordinate of the starting point
  55:../libs/PoliTeKDSP/libs/libDaisy/src/hid/disp/display.h ****     \param x2  x Coordinate of the ending point
  56:../libs/PoliTeKDSP/libs/libDaisy/src/hid/disp/display.h ****     \param y2  y Coordinate of the ending point
ARM GAS  C:\Users\skipi\AppData\Local\Temp\ccpgF6Mp.s 			page 12


  57:../libs/PoliTeKDSP/libs/libDaisy/src/hid/disp/display.h ****     \param on  on or off
  58:../libs/PoliTeKDSP/libs/libDaisy/src/hid/disp/display.h ****     */
  59:../libs/PoliTeKDSP/libs/libDaisy/src/hid/disp/display.h ****     virtual void DrawLine(uint_fast8_t x1,
  60:../libs/PoliTeKDSP/libs/libDaisy/src/hid/disp/display.h ****                           uint_fast8_t y1,
  61:../libs/PoliTeKDSP/libs/libDaisy/src/hid/disp/display.h ****                           uint_fast8_t x2,
  62:../libs/PoliTeKDSP/libs/libDaisy/src/hid/disp/display.h ****                           uint_fast8_t y2,
  63:../libs/PoliTeKDSP/libs/libDaisy/src/hid/disp/display.h ****                           bool         on)
  64:../libs/PoliTeKDSP/libs/libDaisy/src/hid/disp/display.h ****         = 0;
  65:../libs/PoliTeKDSP/libs/libDaisy/src/hid/disp/display.h **** 
  66:../libs/PoliTeKDSP/libs/libDaisy/src/hid/disp/display.h ****     /**
  67:../libs/PoliTeKDSP/libs/libDaisy/src/hid/disp/display.h ****     Draws a rectangle based on two coordinates.
  68:../libs/PoliTeKDSP/libs/libDaisy/src/hid/disp/display.h ****     \param x1 x Coordinate of the first point
  69:../libs/PoliTeKDSP/libs/libDaisy/src/hid/disp/display.h ****     \param y1 y Coordinate of the first point
  70:../libs/PoliTeKDSP/libs/libDaisy/src/hid/disp/display.h ****     \param x2 x Coordinate of the second point
  71:../libs/PoliTeKDSP/libs/libDaisy/src/hid/disp/display.h ****     \param y2 y Coordinate of the second point
  72:../libs/PoliTeKDSP/libs/libDaisy/src/hid/disp/display.h ****     \param on on or off
  73:../libs/PoliTeKDSP/libs/libDaisy/src/hid/disp/display.h ****     \param fill fill the rectangle or draw only the outline
  74:../libs/PoliTeKDSP/libs/libDaisy/src/hid/disp/display.h ****     */
  75:../libs/PoliTeKDSP/libs/libDaisy/src/hid/disp/display.h ****     virtual void DrawRect(uint_fast8_t x1,
  76:../libs/PoliTeKDSP/libs/libDaisy/src/hid/disp/display.h ****                           uint_fast8_t y1,
  77:../libs/PoliTeKDSP/libs/libDaisy/src/hid/disp/display.h ****                           uint_fast8_t x2,
  78:../libs/PoliTeKDSP/libs/libDaisy/src/hid/disp/display.h ****                           uint_fast8_t y2,
  79:../libs/PoliTeKDSP/libs/libDaisy/src/hid/disp/display.h ****                           bool         on,
  80:../libs/PoliTeKDSP/libs/libDaisy/src/hid/disp/display.h ****                           bool         fill = false)
  81:../libs/PoliTeKDSP/libs/libDaisy/src/hid/disp/display.h ****         = 0;
  82:../libs/PoliTeKDSP/libs/libDaisy/src/hid/disp/display.h **** 
  83:../libs/PoliTeKDSP/libs/libDaisy/src/hid/disp/display.h ****     /**
  84:../libs/PoliTeKDSP/libs/libDaisy/src/hid/disp/display.h ****     Draws a rectangle.
  85:../libs/PoliTeKDSP/libs/libDaisy/src/hid/disp/display.h ****     \param rect the rectangle
  86:../libs/PoliTeKDSP/libs/libDaisy/src/hid/disp/display.h ****     \param on   on or off
  87:../libs/PoliTeKDSP/libs/libDaisy/src/hid/disp/display.h ****     \param fill fill the rectangle or draw only the outline
  88:../libs/PoliTeKDSP/libs/libDaisy/src/hid/disp/display.h ****     */
  89:../libs/PoliTeKDSP/libs/libDaisy/src/hid/disp/display.h ****     void DrawRect(const Rectangle& rect, bool on, bool fill = false)
  90:../libs/PoliTeKDSP/libs/libDaisy/src/hid/disp/display.h ****     {
  91:../libs/PoliTeKDSP/libs/libDaisy/src/hid/disp/display.h ****         DrawRect(rect.GetX(),
  92:../libs/PoliTeKDSP/libs/libDaisy/src/hid/disp/display.h ****                  rect.GetY(),
  93:../libs/PoliTeKDSP/libs/libDaisy/src/hid/disp/display.h ****                  rect.GetRight(),
  94:../libs/PoliTeKDSP/libs/libDaisy/src/hid/disp/display.h ****                  rect.GetBottom(),
  95:../libs/PoliTeKDSP/libs/libDaisy/src/hid/disp/display.h ****                  on,
  96:../libs/PoliTeKDSP/libs/libDaisy/src/hid/disp/display.h ****                  fill);
  97:../libs/PoliTeKDSP/libs/libDaisy/src/hid/disp/display.h ****     }
  98:../libs/PoliTeKDSP/libs/libDaisy/src/hid/disp/display.h **** 
  99:../libs/PoliTeKDSP/libs/libDaisy/src/hid/disp/display.h ****     /**
 100:../libs/PoliTeKDSP/libs/libDaisy/src/hid/disp/display.h ****     Draws an arc around the specified coordinate
 101:../libs/PoliTeKDSP/libs/libDaisy/src/hid/disp/display.h ****     \param x           x Coordinate of the center of the arc
 102:../libs/PoliTeKDSP/libs/libDaisy/src/hid/disp/display.h ****     \param y           y Coordinate of the center of the arc
 103:../libs/PoliTeKDSP/libs/libDaisy/src/hid/disp/display.h ****     \param radius      radius of the arc
 104:../libs/PoliTeKDSP/libs/libDaisy/src/hid/disp/display.h ****     \param start_angle angle where to start the arc
 105:../libs/PoliTeKDSP/libs/libDaisy/src/hid/disp/display.h ****     \param sweep       total angle of the arc
 106:../libs/PoliTeKDSP/libs/libDaisy/src/hid/disp/display.h ****     \param on  on or off
 107:../libs/PoliTeKDSP/libs/libDaisy/src/hid/disp/display.h ****     */
 108:../libs/PoliTeKDSP/libs/libDaisy/src/hid/disp/display.h ****     virtual void DrawArc(uint_fast8_t x,
 109:../libs/PoliTeKDSP/libs/libDaisy/src/hid/disp/display.h ****                          uint_fast8_t y,
 110:../libs/PoliTeKDSP/libs/libDaisy/src/hid/disp/display.h ****                          uint_fast8_t radius,
 111:../libs/PoliTeKDSP/libs/libDaisy/src/hid/disp/display.h ****                          int_fast16_t start_angle,
 112:../libs/PoliTeKDSP/libs/libDaisy/src/hid/disp/display.h ****                          int_fast16_t sweep,
 113:../libs/PoliTeKDSP/libs/libDaisy/src/hid/disp/display.h ****                          bool         on)
ARM GAS  C:\Users\skipi\AppData\Local\Temp\ccpgF6Mp.s 			page 13


 114:../libs/PoliTeKDSP/libs/libDaisy/src/hid/disp/display.h ****         = 0;
 115:../libs/PoliTeKDSP/libs/libDaisy/src/hid/disp/display.h **** 
 116:../libs/PoliTeKDSP/libs/libDaisy/src/hid/disp/display.h ****     /**
 117:../libs/PoliTeKDSP/libs/libDaisy/src/hid/disp/display.h ****     Draws a circle around the specified coordinate
 118:../libs/PoliTeKDSP/libs/libDaisy/src/hid/disp/display.h ****     \param x           x Coordinate of the center of the circle
 119:../libs/PoliTeKDSP/libs/libDaisy/src/hid/disp/display.h ****     \param y           y Coordinate of the center of the circle
 120:../libs/PoliTeKDSP/libs/libDaisy/src/hid/disp/display.h ****     \param radius      radius of the circle
 121:../libs/PoliTeKDSP/libs/libDaisy/src/hid/disp/display.h ****     \param on  on or off
 122:../libs/PoliTeKDSP/libs/libDaisy/src/hid/disp/display.h ****     */
 123:../libs/PoliTeKDSP/libs/libDaisy/src/hid/disp/display.h ****     void
 124:../libs/PoliTeKDSP/libs/libDaisy/src/hid/disp/display.h ****     DrawCircle(uint_fast8_t x, uint_fast8_t y, uint_fast8_t radius, bool on)
 125:../libs/PoliTeKDSP/libs/libDaisy/src/hid/disp/display.h ****     {
 126:../libs/PoliTeKDSP/libs/libDaisy/src/hid/disp/display.h ****         DrawArc(x, y, radius, 0, 360, on);
 127:../libs/PoliTeKDSP/libs/libDaisy/src/hid/disp/display.h ****     };
 128:../libs/PoliTeKDSP/libs/libDaisy/src/hid/disp/display.h **** 
 129:../libs/PoliTeKDSP/libs/libDaisy/src/hid/disp/display.h ****     /** 
 130:../libs/PoliTeKDSP/libs/libDaisy/src/hid/disp/display.h ****     Writes the character with the specific FontDef
 131:../libs/PoliTeKDSP/libs/libDaisy/src/hid/disp/display.h ****     to the display buffer at the current Cursor position.
 132:../libs/PoliTeKDSP/libs/libDaisy/src/hid/disp/display.h ****     \param ch character to be written
 133:../libs/PoliTeKDSP/libs/libDaisy/src/hid/disp/display.h ****     \param font font to be written in
 134:../libs/PoliTeKDSP/libs/libDaisy/src/hid/disp/display.h ****     \param on    on or off
 135:../libs/PoliTeKDSP/libs/libDaisy/src/hid/disp/display.h ****     \return &
 136:../libs/PoliTeKDSP/libs/libDaisy/src/hid/disp/display.h ****     */
 137:../libs/PoliTeKDSP/libs/libDaisy/src/hid/disp/display.h ****     virtual char WriteChar(char ch, FontDef font, bool on) = 0;
 138:../libs/PoliTeKDSP/libs/libDaisy/src/hid/disp/display.h **** 
 139:../libs/PoliTeKDSP/libs/libDaisy/src/hid/disp/display.h ****     /** 
 140:../libs/PoliTeKDSP/libs/libDaisy/src/hid/disp/display.h ****     Similar to WriteChar, except it will handle an entire String.
 141:../libs/PoliTeKDSP/libs/libDaisy/src/hid/disp/display.h ****     Wrapping does not happen automatically, so the width
 142:../libs/PoliTeKDSP/libs/libDaisy/src/hid/disp/display.h ****     of the string must be kept within the dimensions of the screen.
 143:../libs/PoliTeKDSP/libs/libDaisy/src/hid/disp/display.h ****     \param str string to be written
 144:../libs/PoliTeKDSP/libs/libDaisy/src/hid/disp/display.h ****     \param font font to use
 145:../libs/PoliTeKDSP/libs/libDaisy/src/hid/disp/display.h ****     \param on  on or off
 146:../libs/PoliTeKDSP/libs/libDaisy/src/hid/disp/display.h ****     \return &
 147:../libs/PoliTeKDSP/libs/libDaisy/src/hid/disp/display.h ****     */
 148:../libs/PoliTeKDSP/libs/libDaisy/src/hid/disp/display.h ****     virtual char WriteString(const char* str, FontDef font, bool on) = 0;
 149:../libs/PoliTeKDSP/libs/libDaisy/src/hid/disp/display.h **** 
 150:../libs/PoliTeKDSP/libs/libDaisy/src/hid/disp/display.h ****     /** 
 151:../libs/PoliTeKDSP/libs/libDaisy/src/hid/disp/display.h ****     Similar to WriteString but justified within a bounding box.
 152:../libs/PoliTeKDSP/libs/libDaisy/src/hid/disp/display.h ****     \param str          string to be written
 153:../libs/PoliTeKDSP/libs/libDaisy/src/hid/disp/display.h ****     \param font         font to use
 154:../libs/PoliTeKDSP/libs/libDaisy/src/hid/disp/display.h ****     \param boundingBox  the bounding box to draw the text in
 155:../libs/PoliTeKDSP/libs/libDaisy/src/hid/disp/display.h ****     \param alignment    the alignment to use
 156:../libs/PoliTeKDSP/libs/libDaisy/src/hid/disp/display.h ****     \param on           on or off
 157:../libs/PoliTeKDSP/libs/libDaisy/src/hid/disp/display.h ****     \return The rectangle that was drawn to
 158:../libs/PoliTeKDSP/libs/libDaisy/src/hid/disp/display.h ****     */
 159:../libs/PoliTeKDSP/libs/libDaisy/src/hid/disp/display.h ****     virtual Rectangle WriteStringAligned(const char*    str,
 160:../libs/PoliTeKDSP/libs/libDaisy/src/hid/disp/display.h ****                                          const FontDef& font,
 161:../libs/PoliTeKDSP/libs/libDaisy/src/hid/disp/display.h ****                                          Rectangle      boundingBox,
 162:../libs/PoliTeKDSP/libs/libDaisy/src/hid/disp/display.h ****                                          Alignment      alignment,
 163:../libs/PoliTeKDSP/libs/libDaisy/src/hid/disp/display.h ****                                          bool           on)
 164:../libs/PoliTeKDSP/libs/libDaisy/src/hid/disp/display.h ****         = 0;
 165:../libs/PoliTeKDSP/libs/libDaisy/src/hid/disp/display.h **** 
 166:../libs/PoliTeKDSP/libs/libDaisy/src/hid/disp/display.h ****     /** 
 167:../libs/PoliTeKDSP/libs/libDaisy/src/hid/disp/display.h ****     Moves the 'Cursor' position used for WriteChar, and WriteStr to the specified coordinate.
 168:../libs/PoliTeKDSP/libs/libDaisy/src/hid/disp/display.h ****     \param x x pos
 169:../libs/PoliTeKDSP/libs/libDaisy/src/hid/disp/display.h ****     \param y y pos
 170:../libs/PoliTeKDSP/libs/libDaisy/src/hid/disp/display.h ****     */
ARM GAS  C:\Users\skipi\AppData\Local\Temp\ccpgF6Mp.s 			page 14


 171:../libs/PoliTeKDSP/libs/libDaisy/src/hid/disp/display.h ****     void SetCursor(uint16_t x, uint16_t y)
 172:../libs/PoliTeKDSP/libs/libDaisy/src/hid/disp/display.h ****     {
 173:../libs/PoliTeKDSP/libs/libDaisy/src/hid/disp/display.h ****         currentX_ = (x >= Width()) ? Width() - 1 : x;
 174:../libs/PoliTeKDSP/libs/libDaisy/src/hid/disp/display.h ****         currentY_ = (y >= Height()) ? Height() - 1 : y;
 175:../libs/PoliTeKDSP/libs/libDaisy/src/hid/disp/display.h ****     }
 176:../libs/PoliTeKDSP/libs/libDaisy/src/hid/disp/display.h **** 
 177:../libs/PoliTeKDSP/libs/libDaisy/src/hid/disp/display.h ****     /** 
 178:../libs/PoliTeKDSP/libs/libDaisy/src/hid/disp/display.h ****     Writes the current display buffer to the OLED device using SPI or I2C depending on 
 179:../libs/PoliTeKDSP/libs/libDaisy/src/hid/disp/display.h ****     how the object was initialized.
 180:../libs/PoliTeKDSP/libs/libDaisy/src/hid/disp/display.h ****     */
 181:../libs/PoliTeKDSP/libs/libDaisy/src/hid/disp/display.h ****     virtual void Update() = 0;
 182:../libs/PoliTeKDSP/libs/libDaisy/src/hid/disp/display.h **** 
 183:../libs/PoliTeKDSP/libs/libDaisy/src/hid/disp/display.h ****     /** 
 184:../libs/PoliTeKDSP/libs/libDaisy/src/hid/disp/display.h ****     Returns true if the Update has finished, used for chained DMA transfers
 185:../libs/PoliTeKDSP/libs/libDaisy/src/hid/disp/display.h ****     */
 186:../libs/PoliTeKDSP/libs/libDaisy/src/hid/disp/display.h ****     virtual bool UpdateFinished() = 0;
 187:../libs/PoliTeKDSP/libs/libDaisy/src/hid/disp/display.h **** 
 188:../libs/PoliTeKDSP/libs/libDaisy/src/hid/disp/display.h ****   protected:
 189:../libs/PoliTeKDSP/libs/libDaisy/src/hid/disp/display.h ****     uint16_t currentX_;
 190:../libs/PoliTeKDSP/libs/libDaisy/src/hid/disp/display.h ****     uint16_t currentY_;
 191:../libs/PoliTeKDSP/libs/libDaisy/src/hid/disp/display.h **** };
 192:../libs/PoliTeKDSP/libs/libDaisy/src/hid/disp/display.h **** 
 193:../libs/PoliTeKDSP/libs/libDaisy/src/hid/disp/display.h **** /** This class is intended as a intermediary class for your actual implementation of the OneBitGrap
 194:../libs/PoliTeKDSP/libs/libDaisy/src/hid/disp/display.h ****  *  interface. It uses the CRTP design pattern where the template argument is the child class. It p
 195:../libs/PoliTeKDSP/libs/libDaisy/src/hid/disp/display.h ****  *  implementations for most of the functions, except DrawPixel(), Update() and Fill(), which you'l
 196:../libs/PoliTeKDSP/libs/libDaisy/src/hid/disp/display.h ****  *  to provide in your child class.
 197:../libs/PoliTeKDSP/libs/libDaisy/src/hid/disp/display.h ****  *  The main goal of this class is to provide common drawing functions without relying on massive a
 198:../libs/PoliTeKDSP/libs/libDaisy/src/hid/disp/display.h ****  *  virtual function calls that would result in a performance loss. To achieve this, any drawing fu
 199:../libs/PoliTeKDSP/libs/libDaisy/src/hid/disp/display.h ****  *  is implemented here and internally calls other drawing functions (e.g. DrawRect() which interna
 200:../libs/PoliTeKDSP/libs/libDaisy/src/hid/disp/display.h ****  *  DrawPixel() and DrawLine()) makes these calls via the qualified name of these functions to expl
 201:../libs/PoliTeKDSP/libs/libDaisy/src/hid/disp/display.h ****  *  suppress the virtual dispatch mechanism like this:
 202:../libs/PoliTeKDSP/libs/libDaisy/src/hid/disp/display.h ****  * 
 203:../libs/PoliTeKDSP/libs/libDaisy/src/hid/disp/display.h ****  *      ChildType::DrawPixel(...); // no virtual function call; direct call into the child class fu
 204:../libs/PoliTeKDSP/libs/libDaisy/src/hid/disp/display.h ****  *  
 205:../libs/PoliTeKDSP/libs/libDaisy/src/hid/disp/display.h ****  *  To create a custom OneBitGraphicsDisplay implementation, you can 
 206:../libs/PoliTeKDSP/libs/libDaisy/src/hid/disp/display.h ****  *  A) inherit from OneBitGraphicsDisplay directly and provide all the drawing functions yourself
 207:../libs/PoliTeKDSP/libs/libDaisy/src/hid/disp/display.h ****  *  B) Inherit from OneBitGraphicsDisplayImpl and only provide DrawPixel(), Fill() and Update()
 208:../libs/PoliTeKDSP/libs/libDaisy/src/hid/disp/display.h ****  *     like this:
 209:../libs/PoliTeKDSP/libs/libDaisy/src/hid/disp/display.h ****  *  
 210:../libs/PoliTeKDSP/libs/libDaisy/src/hid/disp/display.h ****  *      class MyDisplayClass : public OneBitGraphicsDisplayImpl<MyDisplayClass> 
 211:../libs/PoliTeKDSP/libs/libDaisy/src/hid/disp/display.h ****  *      {
 212:../libs/PoliTeKDSP/libs/libDaisy/src/hid/disp/display.h ****  *      public:
 213:../libs/PoliTeKDSP/libs/libDaisy/src/hid/disp/display.h ****  *          void Fill() override { ... };
 214:../libs/PoliTeKDSP/libs/libDaisy/src/hid/disp/display.h ****  *          void DrawPixel(uint_fast8_t x, uint_fast8_t y, bool on) override { ... };
 215:../libs/PoliTeKDSP/libs/libDaisy/src/hid/disp/display.h ****  *          void Update() override { ... }
 216:../libs/PoliTeKDSP/libs/libDaisy/src/hid/disp/display.h ****  *      };
 217:../libs/PoliTeKDSP/libs/libDaisy/src/hid/disp/display.h ****  *  
 218:../libs/PoliTeKDSP/libs/libDaisy/src/hid/disp/display.h ****  */
 219:../libs/PoliTeKDSP/libs/libDaisy/src/hid/disp/display.h **** template <class ChildType>
 220:../libs/PoliTeKDSP/libs/libDaisy/src/hid/disp/display.h **** class OneBitGraphicsDisplayImpl : public OneBitGraphicsDisplay
 221:../libs/PoliTeKDSP/libs/libDaisy/src/hid/disp/display.h **** {
 222:../libs/PoliTeKDSP/libs/libDaisy/src/hid/disp/display.h ****   public:
 223:../libs/PoliTeKDSP/libs/libDaisy/src/hid/disp/display.h ****     OneBitGraphicsDisplayImpl() {}
 224:../libs/PoliTeKDSP/libs/libDaisy/src/hid/disp/display.h ****     virtual ~OneBitGraphicsDisplayImpl() {}
 124              		.loc 10 224 13 view .LVU17
 125              	.LBB575:
 126              	.LBI575:
ARM GAS  C:\Users\skipi\AppData\Local\Temp\ccpgF6Mp.s 			page 15


  23:../libs/PoliTeKDSP/libs/libDaisy/src/hid/disp/display.h **** 
 127              		.loc 10 23 13 view .LVU18
  23:../libs/PoliTeKDSP/libs/libDaisy/src/hid/disp/display.h **** 
 128              		.loc 10 23 13 is_stmt 0 view .LVU19
 129              	.LBE575:
 130              	.LBE574:
 131              		.loc 9 18 29 view .LVU20
 132 0000 7047     		bx	lr
 133              		.cfi_endproc
 134              	.LFE5712:
 136              		.weak	_ZN5daisy11OledDisplayINS_13SSD130xDriverILj128ELj64ENS_19SSD130xI2CTransportEEEED1Ev
 137              		.thumb_set _ZN5daisy11OledDisplayINS_13SSD130xDriverILj128ELj64ENS_19SSD130xI2CTransportEEEED1Ev,_
 138 0002 00BF     		.section	.text._ZNK5daisy11OledDisplayINS_13SSD130xDriverILj128ELj64ENS_19SSD130xI2CTransportEEEE6
 139              		.align	1
 140              		.p2align 2,,3
 141              		.weak	_ZNK5daisy11OledDisplayINS_13SSD130xDriverILj128ELj64ENS_19SSD130xI2CTransportEEEE6HeightEv
 142              		.syntax unified
 143              		.thumb
 144              		.thumb_func
 145              		.fpu fpv5-d16
 147              	_ZNK5daisy11OledDisplayINS_13SSD130xDriverILj128ELj64ENS_19SSD130xI2CTransportEEEE6HeightEv:
 148              	.LVL3:
 149              	.LFB5715:
  19:../libs/PoliTeKDSP/libs/libDaisy/src/hid/disp/oled_display.h **** 
  20:../libs/PoliTeKDSP/libs/libDaisy/src/hid/disp/oled_display.h ****     struct Config
  21:../libs/PoliTeKDSP/libs/libDaisy/src/hid/disp/oled_display.h ****     {
  22:../libs/PoliTeKDSP/libs/libDaisy/src/hid/disp/oled_display.h ****         typename DisplayDriver::Config driver_config;
  23:../libs/PoliTeKDSP/libs/libDaisy/src/hid/disp/oled_display.h ****     };
  24:../libs/PoliTeKDSP/libs/libDaisy/src/hid/disp/oled_display.h **** 
  25:../libs/PoliTeKDSP/libs/libDaisy/src/hid/disp/oled_display.h ****     void Init(Config config) { driver_.Init(config.driver_config); }
  26:../libs/PoliTeKDSP/libs/libDaisy/src/hid/disp/oled_display.h **** 
  27:../libs/PoliTeKDSP/libs/libDaisy/src/hid/disp/oled_display.h ****     uint16_t Height() const override { return driver_.Height(); }
 150              		.loc 9 27 14 is_stmt 1 view -0
 151              		.cfi_startproc
 152              		@ args = 0, pretend = 0, frame = 0
 153              		@ frame_needed = 0, uses_anonymous_args = 0
 154              		@ link register save eliminated.
 155              		.loc 9 27 65 is_stmt 0 view .LVU22
 156 0000 4020     		movs	r0, #64
 157              	.LVL4:
 158              		.loc 9 27 65 view .LVU23
 159 0002 7047     		bx	lr
 160              		.cfi_endproc
 161              	.LFE5715:
 163              		.section	.text._ZNK5daisy11OledDisplayINS_13SSD130xDriverILj128ELj64ENS_19SSD130xI2CTransportEEEE5
 164              		.align	1
 165              		.p2align 2,,3
 166              		.weak	_ZNK5daisy11OledDisplayINS_13SSD130xDriverILj128ELj64ENS_19SSD130xI2CTransportEEEE5WidthEv
 167              		.syntax unified
 168              		.thumb
 169              		.thumb_func
 170              		.fpu fpv5-d16
 172              	_ZNK5daisy11OledDisplayINS_13SSD130xDriverILj128ELj64ENS_19SSD130xI2CTransportEEEE5WidthEv:
 173              	.LVL5:
 174              	.LFB5716:
  28:../libs/PoliTeKDSP/libs/libDaisy/src/hid/disp/oled_display.h ****     uint16_t Width() const override { return driver_.Width(); }
 175              		.loc 9 28 14 is_stmt 1 view -0
ARM GAS  C:\Users\skipi\AppData\Local\Temp\ccpgF6Mp.s 			page 16


 176              		.cfi_startproc
 177              		@ args = 0, pretend = 0, frame = 0
 178              		@ frame_needed = 0, uses_anonymous_args = 0
 179              		@ link register save eliminated.
 180              		.loc 9 28 63 is_stmt 0 view .LVU25
 181 0000 8020     		movs	r0, #128
 182              	.LVL6:
 183              		.loc 9 28 63 view .LVU26
 184 0002 7047     		bx	lr
 185              		.cfi_endproc
 186              	.LFE5716:
 188              		.section	.text._ZN5daisy11OledDisplayINS_13SSD130xDriverILj128ELj64ENS_19SSD130xI2CTransportEEEE4F
 189              		.align	1
 190              		.p2align 2,,3
 191              		.weak	_ZN5daisy11OledDisplayINS_13SSD130xDriverILj128ELj64ENS_19SSD130xI2CTransportEEEE4FillEb
 192              		.syntax unified
 193              		.thumb
 194              		.thumb_func
 195              		.fpu fpv5-d16
 197              	_ZN5daisy11OledDisplayINS_13SSD130xDriverILj128ELj64ENS_19SSD130xI2CTransportEEEE4FillEb:
 198              	.LVL7:
 199              	.LFB5717:
  29:../libs/PoliTeKDSP/libs/libDaisy/src/hid/disp/oled_display.h **** 
  30:../libs/PoliTeKDSP/libs/libDaisy/src/hid/disp/oled_display.h ****     /** 
  31:../libs/PoliTeKDSP/libs/libDaisy/src/hid/disp/oled_display.h ****     Fills the entire display with either on/off.
  32:../libs/PoliTeKDSP/libs/libDaisy/src/hid/disp/oled_display.h ****     \param on Sets on or off.
  33:../libs/PoliTeKDSP/libs/libDaisy/src/hid/disp/oled_display.h ****     */
  34:../libs/PoliTeKDSP/libs/libDaisy/src/hid/disp/oled_display.h ****     void Fill(bool on) override { driver_.Fill(on); }
 200              		.loc 9 34 10 is_stmt 1 view -0
 201              		.cfi_startproc
 202              		@ args = 0, pretend = 0, frame = 0
 203              		@ frame_needed = 0, uses_anonymous_args = 0
 204              		@ link register save eliminated.
 205              	.LBB576:
 206              	.LBI576:
 207              		.file 11 "Display/../../libs/PoliTeKDSP/libs/libDaisy/src/dev/oled_ssd130x.h"
   1:Display/../../libs/PoliTeKDSP/libs/libDaisy/src/dev/oled_ssd130x.h **** #pragma once
   2:Display/../../libs/PoliTeKDSP/libs/libDaisy/src/dev/oled_ssd130x.h **** #ifndef SA_OLED_SSD130X_H
   3:Display/../../libs/PoliTeKDSP/libs/libDaisy/src/dev/oled_ssd130x.h **** #define SA_OLED_SSD130X_H /**< & */
   4:Display/../../libs/PoliTeKDSP/libs/libDaisy/src/dev/oled_ssd130x.h **** 
   5:Display/../../libs/PoliTeKDSP/libs/libDaisy/src/dev/oled_ssd130x.h **** #include "per/i2c.h"
   6:Display/../../libs/PoliTeKDSP/libs/libDaisy/src/dev/oled_ssd130x.h **** #include "per/spi.h"
   7:Display/../../libs/PoliTeKDSP/libs/libDaisy/src/dev/oled_ssd130x.h **** #include "per/gpio.h"
   8:Display/../../libs/PoliTeKDSP/libs/libDaisy/src/dev/oled_ssd130x.h **** #include "sys/system.h"
   9:Display/../../libs/PoliTeKDSP/libs/libDaisy/src/dev/oled_ssd130x.h **** #include "stm32h7xx_hal.h"
  10:Display/../../libs/PoliTeKDSP/libs/libDaisy/src/dev/oled_ssd130x.h **** 
  11:Display/../../libs/PoliTeKDSP/libs/libDaisy/src/dev/oled_ssd130x.h **** namespace daisy
  12:Display/../../libs/PoliTeKDSP/libs/libDaisy/src/dev/oled_ssd130x.h **** {
  13:Display/../../libs/PoliTeKDSP/libs/libDaisy/src/dev/oled_ssd130x.h **** /**
  14:Display/../../libs/PoliTeKDSP/libs/libDaisy/src/dev/oled_ssd130x.h ****  * I2C Transport for SSD1306 / SSD1309 OLED display devices
  15:Display/../../libs/PoliTeKDSP/libs/libDaisy/src/dev/oled_ssd130x.h ****  */
  16:Display/../../libs/PoliTeKDSP/libs/libDaisy/src/dev/oled_ssd130x.h **** class SSD130xI2CTransport
  17:Display/../../libs/PoliTeKDSP/libs/libDaisy/src/dev/oled_ssd130x.h **** {
  18:Display/../../libs/PoliTeKDSP/libs/libDaisy/src/dev/oled_ssd130x.h ****   public:
  19:Display/../../libs/PoliTeKDSP/libs/libDaisy/src/dev/oled_ssd130x.h ****     struct Config
  20:Display/../../libs/PoliTeKDSP/libs/libDaisy/src/dev/oled_ssd130x.h ****     {
  21:Display/../../libs/PoliTeKDSP/libs/libDaisy/src/dev/oled_ssd130x.h ****         Config()
ARM GAS  C:\Users\skipi\AppData\Local\Temp\ccpgF6Mp.s 			page 17


  22:Display/../../libs/PoliTeKDSP/libs/libDaisy/src/dev/oled_ssd130x.h ****         {
  23:Display/../../libs/PoliTeKDSP/libs/libDaisy/src/dev/oled_ssd130x.h ****             // Intialize using defaults
  24:Display/../../libs/PoliTeKDSP/libs/libDaisy/src/dev/oled_ssd130x.h ****             Defaults();
  25:Display/../../libs/PoliTeKDSP/libs/libDaisy/src/dev/oled_ssd130x.h ****         }
  26:Display/../../libs/PoliTeKDSP/libs/libDaisy/src/dev/oled_ssd130x.h ****         I2CHandle::Config i2c_config;
  27:Display/../../libs/PoliTeKDSP/libs/libDaisy/src/dev/oled_ssd130x.h ****         uint8_t           i2c_address;
  28:Display/../../libs/PoliTeKDSP/libs/libDaisy/src/dev/oled_ssd130x.h ****         void              Defaults()
  29:Display/../../libs/PoliTeKDSP/libs/libDaisy/src/dev/oled_ssd130x.h ****         {
  30:Display/../../libs/PoliTeKDSP/libs/libDaisy/src/dev/oled_ssd130x.h ****             i2c_config.periph         = I2CHandle::Config::Peripheral::I2C_1;
  31:Display/../../libs/PoliTeKDSP/libs/libDaisy/src/dev/oled_ssd130x.h ****             i2c_config.speed          = I2CHandle::Config::Speed::I2C_1MHZ;
  32:Display/../../libs/PoliTeKDSP/libs/libDaisy/src/dev/oled_ssd130x.h ****             i2c_config.mode           = I2CHandle::Config::Mode::I2C_MASTER;
  33:Display/../../libs/PoliTeKDSP/libs/libDaisy/src/dev/oled_ssd130x.h ****             i2c_config.pin_config.scl = Pin(PORTB, 8);
  34:Display/../../libs/PoliTeKDSP/libs/libDaisy/src/dev/oled_ssd130x.h ****             i2c_config.pin_config.sda = Pin(PORTB, 9);
  35:Display/../../libs/PoliTeKDSP/libs/libDaisy/src/dev/oled_ssd130x.h ****             i2c_address               = 0x3C;
  36:Display/../../libs/PoliTeKDSP/libs/libDaisy/src/dev/oled_ssd130x.h ****         }
  37:Display/../../libs/PoliTeKDSP/libs/libDaisy/src/dev/oled_ssd130x.h ****     };
  38:Display/../../libs/PoliTeKDSP/libs/libDaisy/src/dev/oled_ssd130x.h ****     void Init(const Config& config)
  39:Display/../../libs/PoliTeKDSP/libs/libDaisy/src/dev/oled_ssd130x.h ****     {
  40:Display/../../libs/PoliTeKDSP/libs/libDaisy/src/dev/oled_ssd130x.h ****         i2c_address_ = config.i2c_address;
  41:Display/../../libs/PoliTeKDSP/libs/libDaisy/src/dev/oled_ssd130x.h ****         i2c_.Init(config.i2c_config);
  42:Display/../../libs/PoliTeKDSP/libs/libDaisy/src/dev/oled_ssd130x.h ****     };
  43:Display/../../libs/PoliTeKDSP/libs/libDaisy/src/dev/oled_ssd130x.h ****     void SendCommand(uint8_t cmd)
  44:Display/../../libs/PoliTeKDSP/libs/libDaisy/src/dev/oled_ssd130x.h ****     {
  45:Display/../../libs/PoliTeKDSP/libs/libDaisy/src/dev/oled_ssd130x.h ****         uint8_t buf[2] = {0X00, cmd};
  46:Display/../../libs/PoliTeKDSP/libs/libDaisy/src/dev/oled_ssd130x.h ****         i2c_.TransmitBlocking(i2c_address_, buf, 2, 1000);
  47:Display/../../libs/PoliTeKDSP/libs/libDaisy/src/dev/oled_ssd130x.h ****     };
  48:Display/../../libs/PoliTeKDSP/libs/libDaisy/src/dev/oled_ssd130x.h **** 
  49:Display/../../libs/PoliTeKDSP/libs/libDaisy/src/dev/oled_ssd130x.h ****     void SendData(uint8_t* buff, size_t size)
  50:Display/../../libs/PoliTeKDSP/libs/libDaisy/src/dev/oled_ssd130x.h ****     {
  51:Display/../../libs/PoliTeKDSP/libs/libDaisy/src/dev/oled_ssd130x.h ****         for(size_t i = 0; i < size; i++)
  52:Display/../../libs/PoliTeKDSP/libs/libDaisy/src/dev/oled_ssd130x.h ****         {
  53:Display/../../libs/PoliTeKDSP/libs/libDaisy/src/dev/oled_ssd130x.h ****             uint8_t buf[2] = {0X40, buff[i]};
  54:Display/../../libs/PoliTeKDSP/libs/libDaisy/src/dev/oled_ssd130x.h ****             i2c_.TransmitBlocking(i2c_address_, buf, 2, 1000);
  55:Display/../../libs/PoliTeKDSP/libs/libDaisy/src/dev/oled_ssd130x.h ****         }
  56:Display/../../libs/PoliTeKDSP/libs/libDaisy/src/dev/oled_ssd130x.h ****     };
  57:Display/../../libs/PoliTeKDSP/libs/libDaisy/src/dev/oled_ssd130x.h **** 
  58:Display/../../libs/PoliTeKDSP/libs/libDaisy/src/dev/oled_ssd130x.h ****   private:
  59:Display/../../libs/PoliTeKDSP/libs/libDaisy/src/dev/oled_ssd130x.h ****     daisy::I2CHandle i2c_;
  60:Display/../../libs/PoliTeKDSP/libs/libDaisy/src/dev/oled_ssd130x.h ****     uint8_t          i2c_address_;
  61:Display/../../libs/PoliTeKDSP/libs/libDaisy/src/dev/oled_ssd130x.h **** };
  62:Display/../../libs/PoliTeKDSP/libs/libDaisy/src/dev/oled_ssd130x.h **** 
  63:Display/../../libs/PoliTeKDSP/libs/libDaisy/src/dev/oled_ssd130x.h **** /**
  64:Display/../../libs/PoliTeKDSP/libs/libDaisy/src/dev/oled_ssd130x.h ****  * 4 Wire SPI Transport for SSD1306 / SSD1309 OLED display devices
  65:Display/../../libs/PoliTeKDSP/libs/libDaisy/src/dev/oled_ssd130x.h ****  */
  66:Display/../../libs/PoliTeKDSP/libs/libDaisy/src/dev/oled_ssd130x.h **** class SSD130x4WireSpiTransport
  67:Display/../../libs/PoliTeKDSP/libs/libDaisy/src/dev/oled_ssd130x.h **** {
  68:Display/../../libs/PoliTeKDSP/libs/libDaisy/src/dev/oled_ssd130x.h ****   public:
  69:Display/../../libs/PoliTeKDSP/libs/libDaisy/src/dev/oled_ssd130x.h ****     struct Config
  70:Display/../../libs/PoliTeKDSP/libs/libDaisy/src/dev/oled_ssd130x.h ****     {
  71:Display/../../libs/PoliTeKDSP/libs/libDaisy/src/dev/oled_ssd130x.h ****         Config()
  72:Display/../../libs/PoliTeKDSP/libs/libDaisy/src/dev/oled_ssd130x.h ****         {
  73:Display/../../libs/PoliTeKDSP/libs/libDaisy/src/dev/oled_ssd130x.h ****             // Initialize using defaults
  74:Display/../../libs/PoliTeKDSP/libs/libDaisy/src/dev/oled_ssd130x.h ****             Defaults();
  75:Display/../../libs/PoliTeKDSP/libs/libDaisy/src/dev/oled_ssd130x.h ****         }
  76:Display/../../libs/PoliTeKDSP/libs/libDaisy/src/dev/oled_ssd130x.h ****         SpiHandle::Config spi_config;
  77:Display/../../libs/PoliTeKDSP/libs/libDaisy/src/dev/oled_ssd130x.h ****         struct
  78:Display/../../libs/PoliTeKDSP/libs/libDaisy/src/dev/oled_ssd130x.h ****         {
ARM GAS  C:\Users\skipi\AppData\Local\Temp\ccpgF6Mp.s 			page 18


  79:Display/../../libs/PoliTeKDSP/libs/libDaisy/src/dev/oled_ssd130x.h ****             Pin dc;    /**< & */
  80:Display/../../libs/PoliTeKDSP/libs/libDaisy/src/dev/oled_ssd130x.h ****             Pin reset; /**< & */
  81:Display/../../libs/PoliTeKDSP/libs/libDaisy/src/dev/oled_ssd130x.h ****         } pin_config;
  82:Display/../../libs/PoliTeKDSP/libs/libDaisy/src/dev/oled_ssd130x.h ****         bool useDma;
  83:Display/../../libs/PoliTeKDSP/libs/libDaisy/src/dev/oled_ssd130x.h ****         void Defaults()
  84:Display/../../libs/PoliTeKDSP/libs/libDaisy/src/dev/oled_ssd130x.h ****         {
  85:Display/../../libs/PoliTeKDSP/libs/libDaisy/src/dev/oled_ssd130x.h ****             // SPI peripheral config
  86:Display/../../libs/PoliTeKDSP/libs/libDaisy/src/dev/oled_ssd130x.h ****             spi_config.periph = SpiHandle::Config::Peripheral::SPI_1;
  87:Display/../../libs/PoliTeKDSP/libs/libDaisy/src/dev/oled_ssd130x.h ****             spi_config.mode   = SpiHandle::Config::Mode::MASTER;
  88:Display/../../libs/PoliTeKDSP/libs/libDaisy/src/dev/oled_ssd130x.h ****             spi_config.direction
  89:Display/../../libs/PoliTeKDSP/libs/libDaisy/src/dev/oled_ssd130x.h ****                 = SpiHandle::Config::Direction::TWO_LINES_TX_ONLY;
  90:Display/../../libs/PoliTeKDSP/libs/libDaisy/src/dev/oled_ssd130x.h ****             spi_config.datasize       = 8;
  91:Display/../../libs/PoliTeKDSP/libs/libDaisy/src/dev/oled_ssd130x.h ****             spi_config.clock_polarity = SpiHandle::Config::ClockPolarity::LOW;
  92:Display/../../libs/PoliTeKDSP/libs/libDaisy/src/dev/oled_ssd130x.h ****             spi_config.clock_phase    = SpiHandle::Config::ClockPhase::ONE_EDGE;
  93:Display/../../libs/PoliTeKDSP/libs/libDaisy/src/dev/oled_ssd130x.h ****             spi_config.nss            = SpiHandle::Config::NSS::HARD_OUTPUT;
  94:Display/../../libs/PoliTeKDSP/libs/libDaisy/src/dev/oled_ssd130x.h ****             spi_config.baud_prescaler = SpiHandle::Config::BaudPrescaler::PS_8;
  95:Display/../../libs/PoliTeKDSP/libs/libDaisy/src/dev/oled_ssd130x.h ****             // SPI pin config
  96:Display/../../libs/PoliTeKDSP/libs/libDaisy/src/dev/oled_ssd130x.h ****             spi_config.pin_config.sclk = Pin(PORTG, 11);
  97:Display/../../libs/PoliTeKDSP/libs/libDaisy/src/dev/oled_ssd130x.h ****             spi_config.pin_config.miso = Pin(PORTX, 0);
  98:Display/../../libs/PoliTeKDSP/libs/libDaisy/src/dev/oled_ssd130x.h ****             spi_config.pin_config.mosi = Pin(PORTB, 5);
  99:Display/../../libs/PoliTeKDSP/libs/libDaisy/src/dev/oled_ssd130x.h ****             spi_config.pin_config.nss  = Pin(PORTG, 10);
 100:Display/../../libs/PoliTeKDSP/libs/libDaisy/src/dev/oled_ssd130x.h ****             // SSD130x control pin config
 101:Display/../../libs/PoliTeKDSP/libs/libDaisy/src/dev/oled_ssd130x.h ****             pin_config.dc    = Pin(PORTB, 4);
 102:Display/../../libs/PoliTeKDSP/libs/libDaisy/src/dev/oled_ssd130x.h ****             pin_config.reset = Pin(PORTB, 15);
 103:Display/../../libs/PoliTeKDSP/libs/libDaisy/src/dev/oled_ssd130x.h ****             // Using DMA off by default
 104:Display/../../libs/PoliTeKDSP/libs/libDaisy/src/dev/oled_ssd130x.h ****             useDma = false;
 105:Display/../../libs/PoliTeKDSP/libs/libDaisy/src/dev/oled_ssd130x.h ****         }
 106:Display/../../libs/PoliTeKDSP/libs/libDaisy/src/dev/oled_ssd130x.h ****     };
 107:Display/../../libs/PoliTeKDSP/libs/libDaisy/src/dev/oled_ssd130x.h ****     void Init(const Config& config)
 108:Display/../../libs/PoliTeKDSP/libs/libDaisy/src/dev/oled_ssd130x.h ****     {
 109:Display/../../libs/PoliTeKDSP/libs/libDaisy/src/dev/oled_ssd130x.h ****         // Initialize both GPIO
 110:Display/../../libs/PoliTeKDSP/libs/libDaisy/src/dev/oled_ssd130x.h ****         pin_dc_.Init(config.pin_config.dc, GPIO::Mode::OUTPUT);
 111:Display/../../libs/PoliTeKDSP/libs/libDaisy/src/dev/oled_ssd130x.h ****         pin_reset_.Init(config.pin_config.reset, GPIO::Mode::OUTPUT);
 112:Display/../../libs/PoliTeKDSP/libs/libDaisy/src/dev/oled_ssd130x.h **** 
 113:Display/../../libs/PoliTeKDSP/libs/libDaisy/src/dev/oled_ssd130x.h ****         // Initialize SPI
 114:Display/../../libs/PoliTeKDSP/libs/libDaisy/src/dev/oled_ssd130x.h ****         spi_.Init(config.spi_config);
 115:Display/../../libs/PoliTeKDSP/libs/libDaisy/src/dev/oled_ssd130x.h **** 
 116:Display/../../libs/PoliTeKDSP/libs/libDaisy/src/dev/oled_ssd130x.h ****         // Reset and Configure OLED.
 117:Display/../../libs/PoliTeKDSP/libs/libDaisy/src/dev/oled_ssd130x.h ****         pin_reset_.Write(0);
 118:Display/../../libs/PoliTeKDSP/libs/libDaisy/src/dev/oled_ssd130x.h ****         System::Delay(10);
 119:Display/../../libs/PoliTeKDSP/libs/libDaisy/src/dev/oled_ssd130x.h ****         pin_reset_.Write(1);
 120:Display/../../libs/PoliTeKDSP/libs/libDaisy/src/dev/oled_ssd130x.h ****         System::Delay(10);
 121:Display/../../libs/PoliTeKDSP/libs/libDaisy/src/dev/oled_ssd130x.h ****     };
 122:Display/../../libs/PoliTeKDSP/libs/libDaisy/src/dev/oled_ssd130x.h **** 
 123:Display/../../libs/PoliTeKDSP/libs/libDaisy/src/dev/oled_ssd130x.h ****     void SendCommand(uint8_t cmd)
 124:Display/../../libs/PoliTeKDSP/libs/libDaisy/src/dev/oled_ssd130x.h ****     {
 125:Display/../../libs/PoliTeKDSP/libs/libDaisy/src/dev/oled_ssd130x.h ****         pin_dc_.Write(0);
 126:Display/../../libs/PoliTeKDSP/libs/libDaisy/src/dev/oled_ssd130x.h ****         spi_.BlockingTransmit(&cmd, 1);
 127:Display/../../libs/PoliTeKDSP/libs/libDaisy/src/dev/oled_ssd130x.h ****     };
 128:Display/../../libs/PoliTeKDSP/libs/libDaisy/src/dev/oled_ssd130x.h **** 
 129:Display/../../libs/PoliTeKDSP/libs/libDaisy/src/dev/oled_ssd130x.h ****     void SendCommands(uint8_t* buff, size_t size)
 130:Display/../../libs/PoliTeKDSP/libs/libDaisy/src/dev/oled_ssd130x.h ****     {
 131:Display/../../libs/PoliTeKDSP/libs/libDaisy/src/dev/oled_ssd130x.h ****         pin_dc_.Write(0);
 132:Display/../../libs/PoliTeKDSP/libs/libDaisy/src/dev/oled_ssd130x.h ****         spi_.BlockingTransmit(buff, size);
 133:Display/../../libs/PoliTeKDSP/libs/libDaisy/src/dev/oled_ssd130x.h ****     };
 134:Display/../../libs/PoliTeKDSP/libs/libDaisy/src/dev/oled_ssd130x.h **** 
 135:Display/../../libs/PoliTeKDSP/libs/libDaisy/src/dev/oled_ssd130x.h ****     void SendData(uint8_t* buff, size_t size)
ARM GAS  C:\Users\skipi\AppData\Local\Temp\ccpgF6Mp.s 			page 19


 136:Display/../../libs/PoliTeKDSP/libs/libDaisy/src/dev/oled_ssd130x.h ****     {
 137:Display/../../libs/PoliTeKDSP/libs/libDaisy/src/dev/oled_ssd130x.h ****         pin_dc_.Write(1);
 138:Display/../../libs/PoliTeKDSP/libs/libDaisy/src/dev/oled_ssd130x.h ****         spi_.BlockingTransmit(buff, size);
 139:Display/../../libs/PoliTeKDSP/libs/libDaisy/src/dev/oled_ssd130x.h ****     };
 140:Display/../../libs/PoliTeKDSP/libs/libDaisy/src/dev/oled_ssd130x.h **** 
 141:Display/../../libs/PoliTeKDSP/libs/libDaisy/src/dev/oled_ssd130x.h ****     void SendDataDma(uint8_t*                          buff,
 142:Display/../../libs/PoliTeKDSP/libs/libDaisy/src/dev/oled_ssd130x.h ****                      size_t                            size,
 143:Display/../../libs/PoliTeKDSP/libs/libDaisy/src/dev/oled_ssd130x.h ****                      SpiHandle::EndCallbackFunctionPtr end_callback,
 144:Display/../../libs/PoliTeKDSP/libs/libDaisy/src/dev/oled_ssd130x.h ****                      void*                             context)
 145:Display/../../libs/PoliTeKDSP/libs/libDaisy/src/dev/oled_ssd130x.h ****     {
 146:Display/../../libs/PoliTeKDSP/libs/libDaisy/src/dev/oled_ssd130x.h ****         SCB_CleanInvalidateDCache_by_Addr(buff, size);
 147:Display/../../libs/PoliTeKDSP/libs/libDaisy/src/dev/oled_ssd130x.h ****         pin_dc_.Write(1);
 148:Display/../../libs/PoliTeKDSP/libs/libDaisy/src/dev/oled_ssd130x.h ****         spi_.DmaTransmit(buff, size, NULL, end_callback, context);
 149:Display/../../libs/PoliTeKDSP/libs/libDaisy/src/dev/oled_ssd130x.h ****     };
 150:Display/../../libs/PoliTeKDSP/libs/libDaisy/src/dev/oled_ssd130x.h **** 
 151:Display/../../libs/PoliTeKDSP/libs/libDaisy/src/dev/oled_ssd130x.h ****   private:
 152:Display/../../libs/PoliTeKDSP/libs/libDaisy/src/dev/oled_ssd130x.h ****     SpiHandle spi_;
 153:Display/../../libs/PoliTeKDSP/libs/libDaisy/src/dev/oled_ssd130x.h ****     GPIO      pin_reset_;
 154:Display/../../libs/PoliTeKDSP/libs/libDaisy/src/dev/oled_ssd130x.h ****     GPIO      pin_dc_;
 155:Display/../../libs/PoliTeKDSP/libs/libDaisy/src/dev/oled_ssd130x.h **** };
 156:Display/../../libs/PoliTeKDSP/libs/libDaisy/src/dev/oled_ssd130x.h **** 
 157:Display/../../libs/PoliTeKDSP/libs/libDaisy/src/dev/oled_ssd130x.h **** /**
 158:Display/../../libs/PoliTeKDSP/libs/libDaisy/src/dev/oled_ssd130x.h ****  * Soft SPI Transport for SSD1306 / SSD1309 OLED display devices
 159:Display/../../libs/PoliTeKDSP/libs/libDaisy/src/dev/oled_ssd130x.h ****  */
 160:Display/../../libs/PoliTeKDSP/libs/libDaisy/src/dev/oled_ssd130x.h **** class SSD130x4WireSoftSpiTransport
 161:Display/../../libs/PoliTeKDSP/libs/libDaisy/src/dev/oled_ssd130x.h **** {
 162:Display/../../libs/PoliTeKDSP/libs/libDaisy/src/dev/oled_ssd130x.h ****   public:
 163:Display/../../libs/PoliTeKDSP/libs/libDaisy/src/dev/oled_ssd130x.h ****     struct Config
 164:Display/../../libs/PoliTeKDSP/libs/libDaisy/src/dev/oled_ssd130x.h ****     {
 165:Display/../../libs/PoliTeKDSP/libs/libDaisy/src/dev/oled_ssd130x.h ****         Config()
 166:Display/../../libs/PoliTeKDSP/libs/libDaisy/src/dev/oled_ssd130x.h ****         {
 167:Display/../../libs/PoliTeKDSP/libs/libDaisy/src/dev/oled_ssd130x.h ****             // Initialize using defaults
 168:Display/../../libs/PoliTeKDSP/libs/libDaisy/src/dev/oled_ssd130x.h ****             Defaults();
 169:Display/../../libs/PoliTeKDSP/libs/libDaisy/src/dev/oled_ssd130x.h ****         }
 170:Display/../../libs/PoliTeKDSP/libs/libDaisy/src/dev/oled_ssd130x.h ****         struct
 171:Display/../../libs/PoliTeKDSP/libs/libDaisy/src/dev/oled_ssd130x.h ****         {
 172:Display/../../libs/PoliTeKDSP/libs/libDaisy/src/dev/oled_ssd130x.h ****             uint32_t sclk_delay;
 173:Display/../../libs/PoliTeKDSP/libs/libDaisy/src/dev/oled_ssd130x.h ****             Pin      sclk;
 174:Display/../../libs/PoliTeKDSP/libs/libDaisy/src/dev/oled_ssd130x.h ****             Pin      mosi;
 175:Display/../../libs/PoliTeKDSP/libs/libDaisy/src/dev/oled_ssd130x.h ****             Pin      dc;
 176:Display/../../libs/PoliTeKDSP/libs/libDaisy/src/dev/oled_ssd130x.h ****             Pin      reset;
 177:Display/../../libs/PoliTeKDSP/libs/libDaisy/src/dev/oled_ssd130x.h ****         } pin_config;
 178:Display/../../libs/PoliTeKDSP/libs/libDaisy/src/dev/oled_ssd130x.h ****         void Defaults()
 179:Display/../../libs/PoliTeKDSP/libs/libDaisy/src/dev/oled_ssd130x.h ****         {
 180:Display/../../libs/PoliTeKDSP/libs/libDaisy/src/dev/oled_ssd130x.h ****             pin_config.sclk_delay = 0; // fast as possible?!
 181:Display/../../libs/PoliTeKDSP/libs/libDaisy/src/dev/oled_ssd130x.h ****             // SPI peripheral config
 182:Display/../../libs/PoliTeKDSP/libs/libDaisy/src/dev/oled_ssd130x.h ****             pin_config.sclk = Pin(PORTD, 3); /**< D10 - SPI2 SCK  */
 183:Display/../../libs/PoliTeKDSP/libs/libDaisy/src/dev/oled_ssd130x.h ****             pin_config.mosi = Pin(PORTC, 3); /**< D9  - SPI2 MOSI */
 184:Display/../../libs/PoliTeKDSP/libs/libDaisy/src/dev/oled_ssd130x.h ****             // SSD130x control pin config
 185:Display/../../libs/PoliTeKDSP/libs/libDaisy/src/dev/oled_ssd130x.h ****             pin_config.dc    = Pin(PORTC, 11); //D2
 186:Display/../../libs/PoliTeKDSP/libs/libDaisy/src/dev/oled_ssd130x.h ****             pin_config.reset = Pin(PORTC, 10); //D3
 187:Display/../../libs/PoliTeKDSP/libs/libDaisy/src/dev/oled_ssd130x.h ****         }
 188:Display/../../libs/PoliTeKDSP/libs/libDaisy/src/dev/oled_ssd130x.h ****     };
 189:Display/../../libs/PoliTeKDSP/libs/libDaisy/src/dev/oled_ssd130x.h ****     void Init(const Config& config)
 190:Display/../../libs/PoliTeKDSP/libs/libDaisy/src/dev/oled_ssd130x.h ****     {
 191:Display/../../libs/PoliTeKDSP/libs/libDaisy/src/dev/oled_ssd130x.h ****         // Initialize both GPIO
 192:Display/../../libs/PoliTeKDSP/libs/libDaisy/src/dev/oled_ssd130x.h ****         pin_sclk_.Init(config.pin_config.sclk, GPIO::Mode::OUTPUT);
ARM GAS  C:\Users\skipi\AppData\Local\Temp\ccpgF6Mp.s 			page 20


 193:Display/../../libs/PoliTeKDSP/libs/libDaisy/src/dev/oled_ssd130x.h ****         pin_sclk_.Write(1); //ClockPolarity::LOW
 194:Display/../../libs/PoliTeKDSP/libs/libDaisy/src/dev/oled_ssd130x.h ****         clk_delay = config.pin_config.sclk_delay;
 195:Display/../../libs/PoliTeKDSP/libs/libDaisy/src/dev/oled_ssd130x.h ****         pin_mosi_.Init(config.pin_config.mosi, GPIO::Mode::OUTPUT);
 196:Display/../../libs/PoliTeKDSP/libs/libDaisy/src/dev/oled_ssd130x.h ****         pin_mosi_.Write(0);
 197:Display/../../libs/PoliTeKDSP/libs/libDaisy/src/dev/oled_ssd130x.h **** 
 198:Display/../../libs/PoliTeKDSP/libs/libDaisy/src/dev/oled_ssd130x.h ****         pin_dc_.Init(config.pin_config.dc, GPIO::Mode::OUTPUT);
 199:Display/../../libs/PoliTeKDSP/libs/libDaisy/src/dev/oled_ssd130x.h ****         pin_reset_.Init(config.pin_config.reset, GPIO::Mode::OUTPUT);
 200:Display/../../libs/PoliTeKDSP/libs/libDaisy/src/dev/oled_ssd130x.h **** 
 201:Display/../../libs/PoliTeKDSP/libs/libDaisy/src/dev/oled_ssd130x.h ****         // Reset and Configure OLED.
 202:Display/../../libs/PoliTeKDSP/libs/libDaisy/src/dev/oled_ssd130x.h ****         pin_reset_.Write(0);
 203:Display/../../libs/PoliTeKDSP/libs/libDaisy/src/dev/oled_ssd130x.h ****         System::Delay(10);
 204:Display/../../libs/PoliTeKDSP/libs/libDaisy/src/dev/oled_ssd130x.h ****         pin_reset_.Write(1);
 205:Display/../../libs/PoliTeKDSP/libs/libDaisy/src/dev/oled_ssd130x.h ****         System::Delay(10);
 206:Display/../../libs/PoliTeKDSP/libs/libDaisy/src/dev/oled_ssd130x.h ****     };
 207:Display/../../libs/PoliTeKDSP/libs/libDaisy/src/dev/oled_ssd130x.h ****     void SendCommand(uint8_t cmd)
 208:Display/../../libs/PoliTeKDSP/libs/libDaisy/src/dev/oled_ssd130x.h ****     {
 209:Display/../../libs/PoliTeKDSP/libs/libDaisy/src/dev/oled_ssd130x.h ****         pin_dc_.Write(0);
 210:Display/../../libs/PoliTeKDSP/libs/libDaisy/src/dev/oled_ssd130x.h ****         SoftSpiTransmit(cmd);
 211:Display/../../libs/PoliTeKDSP/libs/libDaisy/src/dev/oled_ssd130x.h ****     };
 212:Display/../../libs/PoliTeKDSP/libs/libDaisy/src/dev/oled_ssd130x.h **** 
 213:Display/../../libs/PoliTeKDSP/libs/libDaisy/src/dev/oled_ssd130x.h ****     void SendData(uint8_t* buff, size_t size)
 214:Display/../../libs/PoliTeKDSP/libs/libDaisy/src/dev/oled_ssd130x.h ****     {
 215:Display/../../libs/PoliTeKDSP/libs/libDaisy/src/dev/oled_ssd130x.h ****         pin_dc_.Write(1);
 216:Display/../../libs/PoliTeKDSP/libs/libDaisy/src/dev/oled_ssd130x.h ****         for(size_t i = 0; i < size; i++)
 217:Display/../../libs/PoliTeKDSP/libs/libDaisy/src/dev/oled_ssd130x.h ****             SoftSpiTransmit(buff[i]);
 218:Display/../../libs/PoliTeKDSP/libs/libDaisy/src/dev/oled_ssd130x.h ****     };
 219:Display/../../libs/PoliTeKDSP/libs/libDaisy/src/dev/oled_ssd130x.h **** 
 220:Display/../../libs/PoliTeKDSP/libs/libDaisy/src/dev/oled_ssd130x.h ****   private:
 221:Display/../../libs/PoliTeKDSP/libs/libDaisy/src/dev/oled_ssd130x.h ****     void SoftSpiTransmit(uint8_t val)
 222:Display/../../libs/PoliTeKDSP/libs/libDaisy/src/dev/oled_ssd130x.h ****     {
 223:Display/../../libs/PoliTeKDSP/libs/libDaisy/src/dev/oled_ssd130x.h ****         // bit flip
 224:Display/../../libs/PoliTeKDSP/libs/libDaisy/src/dev/oled_ssd130x.h ****         val = ((val & 0x01) << 7) | ((val & 0x02) << 5) | ((val & 0x04) << 3)
 225:Display/../../libs/PoliTeKDSP/libs/libDaisy/src/dev/oled_ssd130x.h ****               | ((val & 0x08) << 1) | ((val & 0x10) >> 1) | ((val & 0x20) >> 3)
 226:Display/../../libs/PoliTeKDSP/libs/libDaisy/src/dev/oled_ssd130x.h ****               | ((val & 0x40) >> 5) | ((val & 0x80) >> 7);
 227:Display/../../libs/PoliTeKDSP/libs/libDaisy/src/dev/oled_ssd130x.h **** 
 228:Display/../../libs/PoliTeKDSP/libs/libDaisy/src/dev/oled_ssd130x.h ****         for(uint8_t bit = 0u; bit < 8u; bit++)
 229:Display/../../libs/PoliTeKDSP/libs/libDaisy/src/dev/oled_ssd130x.h ****         {
 230:Display/../../libs/PoliTeKDSP/libs/libDaisy/src/dev/oled_ssd130x.h ****             pin_mosi_.Write((val & (1 << bit)) ? 1 : 0);
 231:Display/../../libs/PoliTeKDSP/libs/libDaisy/src/dev/oled_ssd130x.h **** 
 232:Display/../../libs/PoliTeKDSP/libs/libDaisy/src/dev/oled_ssd130x.h ****             System::DelayTicks(clk_delay);
 233:Display/../../libs/PoliTeKDSP/libs/libDaisy/src/dev/oled_ssd130x.h **** 
 234:Display/../../libs/PoliTeKDSP/libs/libDaisy/src/dev/oled_ssd130x.h ****             pin_sclk_.Toggle();
 235:Display/../../libs/PoliTeKDSP/libs/libDaisy/src/dev/oled_ssd130x.h **** 
 236:Display/../../libs/PoliTeKDSP/libs/libDaisy/src/dev/oled_ssd130x.h ****             System::DelayTicks(clk_delay);
 237:Display/../../libs/PoliTeKDSP/libs/libDaisy/src/dev/oled_ssd130x.h **** 
 238:Display/../../libs/PoliTeKDSP/libs/libDaisy/src/dev/oled_ssd130x.h ****             pin_sclk_.Toggle();
 239:Display/../../libs/PoliTeKDSP/libs/libDaisy/src/dev/oled_ssd130x.h ****         }
 240:Display/../../libs/PoliTeKDSP/libs/libDaisy/src/dev/oled_ssd130x.h ****     }
 241:Display/../../libs/PoliTeKDSP/libs/libDaisy/src/dev/oled_ssd130x.h **** 
 242:Display/../../libs/PoliTeKDSP/libs/libDaisy/src/dev/oled_ssd130x.h ****     uint32_t clk_delay;
 243:Display/../../libs/PoliTeKDSP/libs/libDaisy/src/dev/oled_ssd130x.h ****     GPIO     pin_sclk_;
 244:Display/../../libs/PoliTeKDSP/libs/libDaisy/src/dev/oled_ssd130x.h ****     GPIO     pin_mosi_;
 245:Display/../../libs/PoliTeKDSP/libs/libDaisy/src/dev/oled_ssd130x.h ****     GPIO     pin_reset_;
 246:Display/../../libs/PoliTeKDSP/libs/libDaisy/src/dev/oled_ssd130x.h ****     GPIO     pin_dc_;
 247:Display/../../libs/PoliTeKDSP/libs/libDaisy/src/dev/oled_ssd130x.h **** };
 248:Display/../../libs/PoliTeKDSP/libs/libDaisy/src/dev/oled_ssd130x.h **** 
 249:Display/../../libs/PoliTeKDSP/libs/libDaisy/src/dev/oled_ssd130x.h **** 
ARM GAS  C:\Users\skipi\AppData\Local\Temp\ccpgF6Mp.s 			page 21


 250:Display/../../libs/PoliTeKDSP/libs/libDaisy/src/dev/oled_ssd130x.h **** /**
 251:Display/../../libs/PoliTeKDSP/libs/libDaisy/src/dev/oled_ssd130x.h ****  * A driver implementation for the SSD1306/SSD1309
 252:Display/../../libs/PoliTeKDSP/libs/libDaisy/src/dev/oled_ssd130x.h ****  */
 253:Display/../../libs/PoliTeKDSP/libs/libDaisy/src/dev/oled_ssd130x.h **** template <size_t width, size_t height, typename Transport>
 254:Display/../../libs/PoliTeKDSP/libs/libDaisy/src/dev/oled_ssd130x.h **** class SSD130xDriver
 255:Display/../../libs/PoliTeKDSP/libs/libDaisy/src/dev/oled_ssd130x.h **** {
 256:Display/../../libs/PoliTeKDSP/libs/libDaisy/src/dev/oled_ssd130x.h ****   public:
 257:Display/../../libs/PoliTeKDSP/libs/libDaisy/src/dev/oled_ssd130x.h ****     struct Config
 258:Display/../../libs/PoliTeKDSP/libs/libDaisy/src/dev/oled_ssd130x.h ****     {
 259:Display/../../libs/PoliTeKDSP/libs/libDaisy/src/dev/oled_ssd130x.h ****         typename Transport::Config transport_config;
 260:Display/../../libs/PoliTeKDSP/libs/libDaisy/src/dev/oled_ssd130x.h ****     };
 261:Display/../../libs/PoliTeKDSP/libs/libDaisy/src/dev/oled_ssd130x.h **** 
 262:Display/../../libs/PoliTeKDSP/libs/libDaisy/src/dev/oled_ssd130x.h ****     void Init(Config config)
 263:Display/../../libs/PoliTeKDSP/libs/libDaisy/src/dev/oled_ssd130x.h ****     {
 264:Display/../../libs/PoliTeKDSP/libs/libDaisy/src/dev/oled_ssd130x.h ****         transport_.Init(config.transport_config);
 265:Display/../../libs/PoliTeKDSP/libs/libDaisy/src/dev/oled_ssd130x.h **** 
 266:Display/../../libs/PoliTeKDSP/libs/libDaisy/src/dev/oled_ssd130x.h ****         // Init routine...
 267:Display/../../libs/PoliTeKDSP/libs/libDaisy/src/dev/oled_ssd130x.h **** 
 268:Display/../../libs/PoliTeKDSP/libs/libDaisy/src/dev/oled_ssd130x.h ****         // Display Off
 269:Display/../../libs/PoliTeKDSP/libs/libDaisy/src/dev/oled_ssd130x.h ****         transport_.SendCommand(0xaE);
 270:Display/../../libs/PoliTeKDSP/libs/libDaisy/src/dev/oled_ssd130x.h ****         // Dimension dependent commands...
 271:Display/../../libs/PoliTeKDSP/libs/libDaisy/src/dev/oled_ssd130x.h ****         switch(height)
 272:Display/../../libs/PoliTeKDSP/libs/libDaisy/src/dev/oled_ssd130x.h ****         {
 273:Display/../../libs/PoliTeKDSP/libs/libDaisy/src/dev/oled_ssd130x.h ****             case 16:
 274:Display/../../libs/PoliTeKDSP/libs/libDaisy/src/dev/oled_ssd130x.h ****                 // Display Clock Divide Ratio
 275:Display/../../libs/PoliTeKDSP/libs/libDaisy/src/dev/oled_ssd130x.h ****                 transport_.SendCommand(0xD5);
 276:Display/../../libs/PoliTeKDSP/libs/libDaisy/src/dev/oled_ssd130x.h ****                 transport_.SendCommand(0x60);
 277:Display/../../libs/PoliTeKDSP/libs/libDaisy/src/dev/oled_ssd130x.h ****                 // Multiplex Ratio
 278:Display/../../libs/PoliTeKDSP/libs/libDaisy/src/dev/oled_ssd130x.h ****                 transport_.SendCommand(0xA8);
 279:Display/../../libs/PoliTeKDSP/libs/libDaisy/src/dev/oled_ssd130x.h ****                 transport_.SendCommand(0x0F);
 280:Display/../../libs/PoliTeKDSP/libs/libDaisy/src/dev/oled_ssd130x.h ****                 // COM Pins
 281:Display/../../libs/PoliTeKDSP/libs/libDaisy/src/dev/oled_ssd130x.h ****                 transport_.SendCommand(0xDA);
 282:Display/../../libs/PoliTeKDSP/libs/libDaisy/src/dev/oled_ssd130x.h ****                 transport_.SendCommand(0x02);
 283:Display/../../libs/PoliTeKDSP/libs/libDaisy/src/dev/oled_ssd130x.h ****                 break;
 284:Display/../../libs/PoliTeKDSP/libs/libDaisy/src/dev/oled_ssd130x.h ****             case 32:
 285:Display/../../libs/PoliTeKDSP/libs/libDaisy/src/dev/oled_ssd130x.h ****                 // Display Clock Divide Ratio
 286:Display/../../libs/PoliTeKDSP/libs/libDaisy/src/dev/oled_ssd130x.h ****                 transport_.SendCommand(0xD5);
 287:Display/../../libs/PoliTeKDSP/libs/libDaisy/src/dev/oled_ssd130x.h ****                 transport_.SendCommand(0x80);
 288:Display/../../libs/PoliTeKDSP/libs/libDaisy/src/dev/oled_ssd130x.h ****                 // Multiplex Ratio
 289:Display/../../libs/PoliTeKDSP/libs/libDaisy/src/dev/oled_ssd130x.h ****                 transport_.SendCommand(0xA8);
 290:Display/../../libs/PoliTeKDSP/libs/libDaisy/src/dev/oled_ssd130x.h ****                 transport_.SendCommand(0x1F);
 291:Display/../../libs/PoliTeKDSP/libs/libDaisy/src/dev/oled_ssd130x.h ****                 // COM Pins
 292:Display/../../libs/PoliTeKDSP/libs/libDaisy/src/dev/oled_ssd130x.h ****                 transport_.SendCommand(0xDA);
 293:Display/../../libs/PoliTeKDSP/libs/libDaisy/src/dev/oled_ssd130x.h ****                 if(width == 64)
 294:Display/../../libs/PoliTeKDSP/libs/libDaisy/src/dev/oled_ssd130x.h ****                 {
 295:Display/../../libs/PoliTeKDSP/libs/libDaisy/src/dev/oled_ssd130x.h ****                     transport_.SendCommand(0x12);
 296:Display/../../libs/PoliTeKDSP/libs/libDaisy/src/dev/oled_ssd130x.h ****                 }
 297:Display/../../libs/PoliTeKDSP/libs/libDaisy/src/dev/oled_ssd130x.h ****                 else
 298:Display/../../libs/PoliTeKDSP/libs/libDaisy/src/dev/oled_ssd130x.h ****                 {
 299:Display/../../libs/PoliTeKDSP/libs/libDaisy/src/dev/oled_ssd130x.h ****                     transport_.SendCommand(0x02);
 300:Display/../../libs/PoliTeKDSP/libs/libDaisy/src/dev/oled_ssd130x.h ****                 }
 301:Display/../../libs/PoliTeKDSP/libs/libDaisy/src/dev/oled_ssd130x.h **** 
 302:Display/../../libs/PoliTeKDSP/libs/libDaisy/src/dev/oled_ssd130x.h ****                 break;
 303:Display/../../libs/PoliTeKDSP/libs/libDaisy/src/dev/oled_ssd130x.h ****             case 48:
 304:Display/../../libs/PoliTeKDSP/libs/libDaisy/src/dev/oled_ssd130x.h ****                 // Display Clock Divide Ratio
 305:Display/../../libs/PoliTeKDSP/libs/libDaisy/src/dev/oled_ssd130x.h ****                 transport_.SendCommand(0xD5);
 306:Display/../../libs/PoliTeKDSP/libs/libDaisy/src/dev/oled_ssd130x.h ****                 transport_.SendCommand(0x80);
ARM GAS  C:\Users\skipi\AppData\Local\Temp\ccpgF6Mp.s 			page 22


 307:Display/../../libs/PoliTeKDSP/libs/libDaisy/src/dev/oled_ssd130x.h ****                 // Multiplex Ratio
 308:Display/../../libs/PoliTeKDSP/libs/libDaisy/src/dev/oled_ssd130x.h ****                 transport_.SendCommand(0xA8);
 309:Display/../../libs/PoliTeKDSP/libs/libDaisy/src/dev/oled_ssd130x.h ****                 transport_.SendCommand(0x2F);
 310:Display/../../libs/PoliTeKDSP/libs/libDaisy/src/dev/oled_ssd130x.h ****                 // COM Pins
 311:Display/../../libs/PoliTeKDSP/libs/libDaisy/src/dev/oled_ssd130x.h ****                 transport_.SendCommand(0xDA);
 312:Display/../../libs/PoliTeKDSP/libs/libDaisy/src/dev/oled_ssd130x.h ****                 transport_.SendCommand(0x12);
 313:Display/../../libs/PoliTeKDSP/libs/libDaisy/src/dev/oled_ssd130x.h ****                 break;
 314:Display/../../libs/PoliTeKDSP/libs/libDaisy/src/dev/oled_ssd130x.h ****             default: // 128
 315:Display/../../libs/PoliTeKDSP/libs/libDaisy/src/dev/oled_ssd130x.h ****                 // Display Clock Divide Ratio
 316:Display/../../libs/PoliTeKDSP/libs/libDaisy/src/dev/oled_ssd130x.h ****                 transport_.SendCommand(0xD5);
 317:Display/../../libs/PoliTeKDSP/libs/libDaisy/src/dev/oled_ssd130x.h ****                 transport_.SendCommand(0x80);
 318:Display/../../libs/PoliTeKDSP/libs/libDaisy/src/dev/oled_ssd130x.h ****                 // Multiplex Ratio
 319:Display/../../libs/PoliTeKDSP/libs/libDaisy/src/dev/oled_ssd130x.h ****                 transport_.SendCommand(0xA8);
 320:Display/../../libs/PoliTeKDSP/libs/libDaisy/src/dev/oled_ssd130x.h ****                 transport_.SendCommand(0x3F);
 321:Display/../../libs/PoliTeKDSP/libs/libDaisy/src/dev/oled_ssd130x.h ****                 // COM Pins
 322:Display/../../libs/PoliTeKDSP/libs/libDaisy/src/dev/oled_ssd130x.h ****                 transport_.SendCommand(0xDA);
 323:Display/../../libs/PoliTeKDSP/libs/libDaisy/src/dev/oled_ssd130x.h ****                 transport_.SendCommand(0x12);
 324:Display/../../libs/PoliTeKDSP/libs/libDaisy/src/dev/oled_ssd130x.h ****                 break;
 325:Display/../../libs/PoliTeKDSP/libs/libDaisy/src/dev/oled_ssd130x.h ****         }
 326:Display/../../libs/PoliTeKDSP/libs/libDaisy/src/dev/oled_ssd130x.h **** 
 327:Display/../../libs/PoliTeKDSP/libs/libDaisy/src/dev/oled_ssd130x.h ****         // Display Offset
 328:Display/../../libs/PoliTeKDSP/libs/libDaisy/src/dev/oled_ssd130x.h ****         transport_.SendCommand(0xD3);
 329:Display/../../libs/PoliTeKDSP/libs/libDaisy/src/dev/oled_ssd130x.h ****         transport_.SendCommand(0x00);
 330:Display/../../libs/PoliTeKDSP/libs/libDaisy/src/dev/oled_ssd130x.h ****         // Start Line Address
 331:Display/../../libs/PoliTeKDSP/libs/libDaisy/src/dev/oled_ssd130x.h ****         transport_.SendCommand(0x40);
 332:Display/../../libs/PoliTeKDSP/libs/libDaisy/src/dev/oled_ssd130x.h ****         // Normal Display
 333:Display/../../libs/PoliTeKDSP/libs/libDaisy/src/dev/oled_ssd130x.h ****         transport_.SendCommand(0xA6);
 334:Display/../../libs/PoliTeKDSP/libs/libDaisy/src/dev/oled_ssd130x.h ****         // All On Resume
 335:Display/../../libs/PoliTeKDSP/libs/libDaisy/src/dev/oled_ssd130x.h ****         transport_.SendCommand(0xA4);
 336:Display/../../libs/PoliTeKDSP/libs/libDaisy/src/dev/oled_ssd130x.h ****         // Charge Pump
 337:Display/../../libs/PoliTeKDSP/libs/libDaisy/src/dev/oled_ssd130x.h ****         transport_.SendCommand(0x8D);
 338:Display/../../libs/PoliTeKDSP/libs/libDaisy/src/dev/oled_ssd130x.h ****         transport_.SendCommand(0x14);
 339:Display/../../libs/PoliTeKDSP/libs/libDaisy/src/dev/oled_ssd130x.h ****         // Set Segment Remap
 340:Display/../../libs/PoliTeKDSP/libs/libDaisy/src/dev/oled_ssd130x.h ****         transport_.SendCommand(0xA1);
 341:Display/../../libs/PoliTeKDSP/libs/libDaisy/src/dev/oled_ssd130x.h ****         // COM Output Scan Direction
 342:Display/../../libs/PoliTeKDSP/libs/libDaisy/src/dev/oled_ssd130x.h ****         transport_.SendCommand(0xC8);
 343:Display/../../libs/PoliTeKDSP/libs/libDaisy/src/dev/oled_ssd130x.h ****         // Contrast Control
 344:Display/../../libs/PoliTeKDSP/libs/libDaisy/src/dev/oled_ssd130x.h ****         transport_.SendCommand(0x81);
 345:Display/../../libs/PoliTeKDSP/libs/libDaisy/src/dev/oled_ssd130x.h ****         transport_.SendCommand(0x8F);
 346:Display/../../libs/PoliTeKDSP/libs/libDaisy/src/dev/oled_ssd130x.h ****         // Pre Charge
 347:Display/../../libs/PoliTeKDSP/libs/libDaisy/src/dev/oled_ssd130x.h ****         transport_.SendCommand(0xD9);
 348:Display/../../libs/PoliTeKDSP/libs/libDaisy/src/dev/oled_ssd130x.h ****         transport_.SendCommand(0x25);
 349:Display/../../libs/PoliTeKDSP/libs/libDaisy/src/dev/oled_ssd130x.h ****         // VCOM Detect
 350:Display/../../libs/PoliTeKDSP/libs/libDaisy/src/dev/oled_ssd130x.h ****         transport_.SendCommand(0xDB);
 351:Display/../../libs/PoliTeKDSP/libs/libDaisy/src/dev/oled_ssd130x.h ****         transport_.SendCommand(0x34);
 352:Display/../../libs/PoliTeKDSP/libs/libDaisy/src/dev/oled_ssd130x.h **** 
 353:Display/../../libs/PoliTeKDSP/libs/libDaisy/src/dev/oled_ssd130x.h **** 
 354:Display/../../libs/PoliTeKDSP/libs/libDaisy/src/dev/oled_ssd130x.h ****         // Display On
 355:Display/../../libs/PoliTeKDSP/libs/libDaisy/src/dev/oled_ssd130x.h ****         transport_.SendCommand(0xAF); //--turn on oled panel
 356:Display/../../libs/PoliTeKDSP/libs/libDaisy/src/dev/oled_ssd130x.h ****     };
 357:Display/../../libs/PoliTeKDSP/libs/libDaisy/src/dev/oled_ssd130x.h **** 
 358:Display/../../libs/PoliTeKDSP/libs/libDaisy/src/dev/oled_ssd130x.h ****     size_t Width() const { return width; };
 359:Display/../../libs/PoliTeKDSP/libs/libDaisy/src/dev/oled_ssd130x.h ****     size_t Height() const { return height; };
 360:Display/../../libs/PoliTeKDSP/libs/libDaisy/src/dev/oled_ssd130x.h **** 
 361:Display/../../libs/PoliTeKDSP/libs/libDaisy/src/dev/oled_ssd130x.h ****     void DrawPixel(uint_fast8_t x, uint_fast8_t y, bool on)
 362:Display/../../libs/PoliTeKDSP/libs/libDaisy/src/dev/oled_ssd130x.h ****     {
 363:Display/../../libs/PoliTeKDSP/libs/libDaisy/src/dev/oled_ssd130x.h ****         if(x >= width || y >= height)
ARM GAS  C:\Users\skipi\AppData\Local\Temp\ccpgF6Mp.s 			page 23


 364:Display/../../libs/PoliTeKDSP/libs/libDaisy/src/dev/oled_ssd130x.h ****             return;
 365:Display/../../libs/PoliTeKDSP/libs/libDaisy/src/dev/oled_ssd130x.h ****         if(on)
 366:Display/../../libs/PoliTeKDSP/libs/libDaisy/src/dev/oled_ssd130x.h ****             buffer_[x + (y / 8) * width] |= (1 << (y % 8));
 367:Display/../../libs/PoliTeKDSP/libs/libDaisy/src/dev/oled_ssd130x.h ****         else
 368:Display/../../libs/PoliTeKDSP/libs/libDaisy/src/dev/oled_ssd130x.h ****             buffer_[x + (y / 8) * width] &= ~(1 << (y % 8));
 369:Display/../../libs/PoliTeKDSP/libs/libDaisy/src/dev/oled_ssd130x.h ****     }
 370:Display/../../libs/PoliTeKDSP/libs/libDaisy/src/dev/oled_ssd130x.h **** 
 371:Display/../../libs/PoliTeKDSP/libs/libDaisy/src/dev/oled_ssd130x.h ****     void Fill(bool on)
 208              		.loc 11 371 10 view .LVU28
 209              	.LBB577:
 372:Display/../../libs/PoliTeKDSP/libs/libDaisy/src/dev/oled_ssd130x.h ****     {
 373:Display/../../libs/PoliTeKDSP/libs/libDaisy/src/dev/oled_ssd130x.h ****         for(size_t i = 0; i < sizeof(buffer_); i++)
 210              		.loc 11 373 29 view .LVU29
 374:Display/../../libs/PoliTeKDSP/libs/libDaisy/src/dev/oled_ssd130x.h ****         {
 375:Display/../../libs/PoliTeKDSP/libs/libDaisy/src/dev/oled_ssd130x.h ****             buffer_[i] = on ? 0xff : 0x00;
 211              		.loc 11 375 24 is_stmt 0 view .LVU30
 212 0000 4942     		rsbs	r1, r1, #0
 213              	.LVL8:
 214              		.loc 11 375 24 view .LVU31
 215 0002 4FF48062 		mov	r2, #1024
 216 0006 1030     		adds	r0, r0, #16
 217              	.LVL9:
 218              		.loc 11 375 24 view .LVU32
 219 0008 C9B2     		uxtb	r1, r1
 220 000a FFF7FEBF 		b	memset
 221              	.LVL10:
 222              		.loc 11 375 24 view .LVU33
 223              	.LBE577:
 224              	.LBE576:
 225              		.cfi_endproc
 226              	.LFE5717:
 228 000e 00BF     		.section	.text._ZN5daisy11OledDisplayINS_13SSD130xDriverILj128ELj64ENS_19SSD130xI2CTransportEEEE14
 229              		.align	1
 230              		.p2align 2,,3
 231              		.weak	_ZN5daisy11OledDisplayINS_13SSD130xDriverILj128ELj64ENS_19SSD130xI2CTransportEEEE14UpdateFin
 232              		.syntax unified
 233              		.thumb
 234              		.thumb_func
 235              		.fpu fpv5-d16
 237              	_ZN5daisy11OledDisplayINS_13SSD130xDriverILj128ELj64ENS_19SSD130xI2CTransportEEEE14UpdateFinishedEv
 238              	.LVL11:
 239              	.LFB5726:
  35:../libs/PoliTeKDSP/libs/libDaisy/src/hid/disp/oled_display.h **** 
  36:../libs/PoliTeKDSP/libs/libDaisy/src/hid/disp/oled_display.h ****     /**
  37:../libs/PoliTeKDSP/libs/libDaisy/src/hid/disp/oled_display.h ****     Sets the pixel at the specified coordinate to be on/off.
  38:../libs/PoliTeKDSP/libs/libDaisy/src/hid/disp/oled_display.h ****     \param x   x Coordinate
  39:../libs/PoliTeKDSP/libs/libDaisy/src/hid/disp/oled_display.h ****     \param y   y coordinate
  40:../libs/PoliTeKDSP/libs/libDaisy/src/hid/disp/oled_display.h ****     \param on  on or off
  41:../libs/PoliTeKDSP/libs/libDaisy/src/hid/disp/oled_display.h ****     */
  42:../libs/PoliTeKDSP/libs/libDaisy/src/hid/disp/oled_display.h ****     void DrawPixel(uint_fast8_t x, uint_fast8_t y, bool on) override
  43:../libs/PoliTeKDSP/libs/libDaisy/src/hid/disp/oled_display.h ****     {
  44:../libs/PoliTeKDSP/libs/libDaisy/src/hid/disp/oled_display.h ****         driver_.DrawPixel(x, y, on);
  45:../libs/PoliTeKDSP/libs/libDaisy/src/hid/disp/oled_display.h ****     }
  46:../libs/PoliTeKDSP/libs/libDaisy/src/hid/disp/oled_display.h **** 
  47:../libs/PoliTeKDSP/libs/libDaisy/src/hid/disp/oled_display.h ****     /** 
  48:../libs/PoliTeKDSP/libs/libDaisy/src/hid/disp/oled_display.h ****     Writes the current display buffer to the OLED device using SPI or I2C depending on 
  49:../libs/PoliTeKDSP/libs/libDaisy/src/hid/disp/oled_display.h ****     how the object was initialized.
ARM GAS  C:\Users\skipi\AppData\Local\Temp\ccpgF6Mp.s 			page 24


  50:../libs/PoliTeKDSP/libs/libDaisy/src/hid/disp/oled_display.h ****     */
  51:../libs/PoliTeKDSP/libs/libDaisy/src/hid/disp/oled_display.h ****     void Update() override { driver_.Update(); }
  52:../libs/PoliTeKDSP/libs/libDaisy/src/hid/disp/oled_display.h **** 
  53:../libs/PoliTeKDSP/libs/libDaisy/src/hid/disp/oled_display.h ****     bool UpdateFinished() override { return driver_.UpdateFinished(); }
 240              		.loc 9 53 10 is_stmt 1 view -0
 241              		.cfi_startproc
 242              		@ args = 0, pretend = 0, frame = 0
 243              		@ frame_needed = 0, uses_anonymous_args = 0
 244              		@ link register save eliminated.
 245              		.loc 9 53 71 is_stmt 0 view .LVU35
 246 0000 0120     		movs	r0, #1
 247              	.LVL12:
 248              		.loc 9 53 71 view .LVU36
 249 0002 7047     		bx	lr
 250              		.cfi_endproc
 251              	.LFE5726:
 253              		.section	.text._Z13AudioCallbackPKPKfPPfj,"ax",%progbits
 254              		.align	1
 255              		.p2align 2,,3
 256              		.global	_Z13AudioCallbackPKPKfPPfj
 257              		.syntax unified
 258              		.thumb
 259              		.thumb_func
 260              		.fpu fpv5-d16
 262              	_Z13AudioCallbackPKPKfPPfj:
 263              	.LVL13:
 264              	.LFB5119:
 265              		.file 12 "main.cpp"
   1:main.cpp      **** #include "../libs/PoliTeKDSP/libs/libDaisy/src/daisy_seed.h"
   2:main.cpp      **** #include "../libs/PoliTeKDSP/libs/DaisySP/Source/daisysp.h"
   3:main.cpp      **** #include "../libs/PoliTeKDSP/libs/libDaisy/src/hid/encoder.h"
   4:main.cpp      **** #include "Display/displayHandler.h"
   5:main.cpp      **** #include "PSP/PlantConditioner.h"
   6:main.cpp      **** #include "PSP/AudioEngine.h"
   7:main.cpp      **** #include "Display/MenuManager.h"
   8:main.cpp      **** 
   9:main.cpp      **** using namespace daisy;
  10:main.cpp      **** 
  11:main.cpp      **** DaisySeed      hw;
  12:main.cpp      **** Encoder        enc;
  13:main.cpp      **** MenuManager    menu;
  14:main.cpp      **** MyOledDisplay  disp;
  15:main.cpp      **** DisplayHandler disp_handle(&disp);
  16:main.cpp      **** 
  17:main.cpp      **** PlantConditioner pc;
  18:main.cpp      **** AudioEngine      synth;
  19:main.cpp      **** 
  20:main.cpp      **** ControlsStruct audio_controls = {440.0f, false};
  21:main.cpp      **** 
  22:main.cpp      **** void AudioCallback(AudioHandle::InputBuffer in, AudioHandle::OutputBuffer out, size_t size) {
 266              		.loc 12 22 93 is_stmt 1 view -0
 267              		.cfi_startproc
 268              		@ args = 0, pretend = 0, frame = 0
 269              		@ frame_needed = 0, uses_anonymous_args = 0
  23:main.cpp      ****     // 1. Aggiorna il synth con i parametri calcolati nel main
  24:main.cpp      ****     synth.Update(audio_controls);
 270              		.loc 12 24 5 view .LVU38
ARM GAS  C:\Users\skipi\AppData\Local\Temp\ccpgF6Mp.s 			page 25


 271              		.loc 12 24 17 is_stmt 0 view .LVU39
 272 0000 124B     		ldr	r3, .L17
 273 0002 1348     		ldr	r0, .L17+4
 274              	.LVL14:
  22:main.cpp      ****     // 1. Aggiorna il synth con i parametri calcolati nel main
 275              		.loc 12 22 93 view .LVU40
 276 0004 70B5     		push	{r4, r5, r6, lr}
 277              		.cfi_def_cfa_offset 16
 278              		.cfi_offset 4, -16
 279              		.cfi_offset 5, -12
 280              		.cfi_offset 6, -8
 281              		.cfi_offset 14, -4
 282 0006 1646     		mov	r6, r2
 283 0008 0D46     		mov	r5, r1
 284 000a 2DED028B 		vpush.64	{d8}
 285              		.cfi_def_cfa_offset 24
 286              		.cfi_offset 80, -24
 287              		.cfi_offset 81, -20
 288              		.loc 12 24 17 view .LVU41
 289 000e 93E80600 		ldm	r3, {r1, r2}
 290              	.LVL15:
 291              		.loc 12 24 17 view .LVU42
 292 0012 FFF7FEFF 		bl	_ZN11AudioEngine6UpdateE14ControlsStruct
 293              	.LVL16:
  25:main.cpp      **** 
  26:main.cpp      ****     for (size_t i = 0; i < size; i++) {
 294              		.loc 12 26 5 is_stmt 1 view .LVU43
 295              	.LBB578:
 296              		.loc 12 26 26 view .LVU44
 297 0016 AEB1     		cbz	r6, .L9
 298              		.loc 12 26 17 is_stmt 0 view .LVU45
 299 0018 0024     		movs	r4, #0
 300              	.LVL17:
 301              	.L11:
 302              	.LBB579:
  27:main.cpp      ****         float sig = synth.Process();
 303              		.loc 12 27 9 is_stmt 1 discriminator 2 view .LVU46
 304              		.loc 12 27 34 is_stmt 0 discriminator 2 view .LVU47
 305 001a 0D48     		ldr	r0, .L17+4
 306 001c FFF7FEFF 		bl	_ZN11AudioEngine7ProcessEv
 307              	.LVL18:
  28:main.cpp      ****         
  29:main.cpp      ****         // Passa il campione per la visualizzazione dell'onda
  30:main.cpp      ****         disp_handle.pushAudioSample(sig);
 308              		.loc 12 30 36 discriminator 2 view .LVU48
 309 0020 0C48     		ldr	r0, .L17+8
  27:main.cpp      ****         float sig = synth.Process();
 310              		.loc 12 27 34 discriminator 2 view .LVU49
 311 0022 B0EE408A 		vmov.f32	s16, s0
 312              	.LVL19:
 313              		.loc 12 30 9 is_stmt 1 discriminator 2 view .LVU50
 314              		.loc 12 30 36 is_stmt 0 discriminator 2 view .LVU51
 315 0026 FFF7FEFF 		bl	_ZN14DisplayHandler15pushAudioSampleEf
 316              	.LVL20:
  31:main.cpp      **** 
  32:main.cpp      ****         out[0][i] = out[1][i] = sig;
 317              		.loc 12 32 9 is_stmt 1 discriminator 2 view .LVU52
ARM GAS  C:\Users\skipi\AppData\Local\Temp\ccpgF6Mp.s 			page 26


 318              		.loc 12 32 19 is_stmt 0 discriminator 2 view .LVU53
 319 002a D5E90030 		ldrd	r3, r0, [r5]
 320              		.loc 12 32 31 discriminator 2 view .LVU54
 321 002e 00EB8400 		add	r0, r0, r4, lsl #2
 322              		.loc 12 32 19 discriminator 2 view .LVU55
 323 0032 03EB8403 		add	r3, r3, r4, lsl #2
 324              	.LBE579:
  26:main.cpp      ****         float sig = synth.Process();
 325              		.loc 12 26 5 discriminator 2 view .LVU56
 326 0036 0134     		adds	r4, r4, #1
 327              	.LVL21:
 328              	.LBB580:
 329              		.loc 12 32 31 discriminator 2 view .LVU57
 330 0038 80ED008A 		vstr.32	s16, [r0]
 331              	.LBE580:
  26:main.cpp      ****         float sig = synth.Process();
 332              		.loc 12 26 26 discriminator 2 view .LVU58
 333 003c A642     		cmp	r6, r4
 334              	.LBB581:
 335              		.loc 12 32 19 discriminator 2 view .LVU59
 336 003e 83ED008A 		vstr.32	s16, [r3]
 337              	.LBE581:
  26:main.cpp      ****         float sig = synth.Process();
 338              		.loc 12 26 5 is_stmt 1 discriminator 2 view .LVU60
 339              	.LVL22:
  26:main.cpp      ****         float sig = synth.Process();
 340              		.loc 12 26 26 discriminator 2 view .LVU61
 341 0042 EAD1     		bne	.L11
 342              	.LVL23:
 343              	.L9:
  26:main.cpp      ****         float sig = synth.Process();
 344              		.loc 12 26 26 is_stmt 0 discriminator 2 view .LVU62
 345              	.LBE578:
  33:main.cpp      ****     }
  34:main.cpp      **** }
 346              		.loc 12 34 1 view .LVU63
 347 0044 BDEC028B 		vldm	sp!, {d8}
 348              		.cfi_restore 80
 349              		.cfi_restore 81
 350              		.cfi_def_cfa_offset 16
 351 0048 70BD     		pop	{r4, r5, r6, pc}
 352              	.LVL24:
 353              	.L18:
 354              		.loc 12 34 1 view .LVU64
 355 004a 00BF     		.align	2
 356              	.L17:
 357 004c 00000000 		.word	.LANCHOR0
 358 0050 00000000 		.word	synth
 359 0054 00000000 		.word	.LANCHOR1
 360              		.cfi_endproc
 361              	.LFE5119:
 363              		.section	.text._ZN5daisy11OledDisplayINS_13SSD130xDriverILj128ELj64ENS_19SSD130xI2CTransportEEEED0
 364              		.align	1
 365              		.p2align 2,,3
 366              		.weak	_ZN5daisy11OledDisplayINS_13SSD130xDriverILj128ELj64ENS_19SSD130xI2CTransportEEEED0Ev
 367              		.syntax unified
 368              		.thumb
ARM GAS  C:\Users\skipi\AppData\Local\Temp\ccpgF6Mp.s 			page 27


 369              		.thumb_func
 370              		.fpu fpv5-d16
 372              	_ZN5daisy11OledDisplayINS_13SSD130xDriverILj128ELj64ENS_19SSD130xI2CTransportEEEED0Ev:
 373              	.LVL25:
 374              	.LFB5714:
  18:../libs/PoliTeKDSP/libs/libDaisy/src/hid/disp/oled_display.h **** 
 375              		.loc 9 18 13 is_stmt 1 view -0
 376              		.cfi_startproc
 377              		@ args = 0, pretend = 0, frame = 0
 378              		@ frame_needed = 0, uses_anonymous_args = 0
  18:../libs/PoliTeKDSP/libs/libDaisy/src/hid/disp/oled_display.h **** 
 379              		.loc 9 18 13 is_stmt 0 view .LVU66
 380 0000 10B5     		push	{r4, lr}
 381              		.cfi_def_cfa_offset 8
 382              		.cfi_offset 4, -8
 383              		.cfi_offset 14, -4
  18:../libs/PoliTeKDSP/libs/libDaisy/src/hid/disp/oled_display.h **** 
 384              		.loc 9 18 13 view .LVU67
 385 0002 0446     		mov	r4, r0
 386              	.LVL26:
 387              	.LBB582:
 388              	.LBI582:
  18:../libs/PoliTeKDSP/libs/libDaisy/src/hid/disp/oled_display.h **** 
 389              		.loc 9 18 13 is_stmt 1 view .LVU68
 390              	.LBB583:
 391              	.LBI583:
 392              		.loc 10 224 13 view .LVU69
 393              	.LBB584:
 394              	.LBI584:
  23:../libs/PoliTeKDSP/libs/libDaisy/src/hid/disp/display.h **** 
 395              		.loc 10 23 13 view .LVU70
  23:../libs/PoliTeKDSP/libs/libDaisy/src/hid/disp/display.h **** 
 396              		.loc 10 23 13 is_stmt 0 view .LVU71
 397              	.LBE584:
 398              	.LBE583:
 399              	.LBE582:
  18:../libs/PoliTeKDSP/libs/libDaisy/src/hid/disp/oled_display.h **** 
 400              		.loc 9 18 29 view .LVU72
 401 0004 4FF48261 		mov	r1, #1040
 402 0008 FFF7FEFF 		bl	_ZdlPvj
 403              	.LVL27:
  18:../libs/PoliTeKDSP/libs/libDaisy/src/hid/disp/oled_display.h **** 
 404              		.loc 9 18 29 view .LVU73
 405 000c 2046     		mov	r0, r4
 406 000e 10BD     		pop	{r4, pc}
  18:../libs/PoliTeKDSP/libs/libDaisy/src/hid/disp/oled_display.h **** 
 407              		.loc 9 18 29 view .LVU74
 408              		.cfi_endproc
 409              	.LFE5714:
 411              		.section	.text._ZN5daisy11OledDisplayINS_13SSD130xDriverILj128ELj64ENS_19SSD130xI2CTransportEEEE6U
 412              		.align	1
 413              		.p2align 2,,3
 414              		.weak	_ZN5daisy11OledDisplayINS_13SSD130xDriverILj128ELj64ENS_19SSD130xI2CTransportEEEE6UpdateEv
 415              		.syntax unified
 416              		.thumb
 417              		.thumb_func
 418              		.fpu fpv5-d16
ARM GAS  C:\Users\skipi\AppData\Local\Temp\ccpgF6Mp.s 			page 28


 420              	_ZN5daisy11OledDisplayINS_13SSD130xDriverILj128ELj64ENS_19SSD130xI2CTransportEEEE6UpdateEv:
 421              	.LVL28:
 422              	.LFB5725:
  51:../libs/PoliTeKDSP/libs/libDaisy/src/hid/disp/oled_display.h **** 
 423              		.loc 9 51 10 is_stmt 1 view -0
 424              		.cfi_startproc
 425              		@ args = 0, pretend = 0, frame = 8
 426              		@ frame_needed = 0, uses_anonymous_args = 0
  51:../libs/PoliTeKDSP/libs/libDaisy/src/hid/disp/oled_display.h **** 
 427              		.loc 9 51 10 is_stmt 0 view .LVU76
 428 0000 2DE9F04F 		push	{r4, r5, r6, r7, r8, r9, r10, fp, lr}
 429              		.cfi_def_cfa_offset 36
 430              		.cfi_offset 4, -36
 431              		.cfi_offset 5, -32
 432              		.cfi_offset 6, -28
 433              		.cfi_offset 7, -24
 434              		.cfi_offset 8, -20
 435              		.cfi_offset 9, -16
 436              		.cfi_offset 10, -12
 437              		.cfi_offset 11, -8
 438              		.cfi_offset 14, -4
 439              	.LBB597:
 440              	.LBB598:
 441              	.LBB599:
 442              	.LBB600:
  46:Display/../../libs/PoliTeKDSP/libs/libDaisy/src/dev/oled_ssd130x.h ****     };
 443              		.loc 11 46 30 view .LVU77
 444 0004 4FF0B008 		mov	r8, #176
 445              	.LBE600:
 446              	.LBE599:
 447              	.LBE598:
 448              	.LBE597:
  51:../libs/PoliTeKDSP/libs/libDaisy/src/hid/disp/oled_display.h **** 
 449              		.loc 9 51 10 view .LVU78
 450 0008 85B0     		sub	sp, sp, #20
 451              		.cfi_def_cfa_offset 56
  51:../libs/PoliTeKDSP/libs/libDaisy/src/hid/disp/oled_display.h **** 
 452              		.loc 9 51 10 view .LVU79
 453 000a 0546     		mov	r5, r0
 454              	.LVL29:
 455              	.LBB612:
 456              	.LBI597:
 376:Display/../../libs/PoliTeKDSP/libs/libDaisy/src/dev/oled_ssd130x.h ****         }
 377:Display/../../libs/PoliTeKDSP/libs/libDaisy/src/dev/oled_ssd130x.h ****     };
 378:Display/../../libs/PoliTeKDSP/libs/libDaisy/src/dev/oled_ssd130x.h **** 
 379:Display/../../libs/PoliTeKDSP/libs/libDaisy/src/dev/oled_ssd130x.h ****     /**
 380:Display/../../libs/PoliTeKDSP/libs/libDaisy/src/dev/oled_ssd130x.h ****      * Update the display
 381:Display/../../libs/PoliTeKDSP/libs/libDaisy/src/dev/oled_ssd130x.h ****     */
 382:Display/../../libs/PoliTeKDSP/libs/libDaisy/src/dev/oled_ssd130x.h ****     void Update()
 457              		.loc 11 382 10 is_stmt 1 view .LVU80
 458              	.LBB611:
 383:Display/../../libs/PoliTeKDSP/libs/libDaisy/src/dev/oled_ssd130x.h ****     {
 384:Display/../../libs/PoliTeKDSP/libs/libDaisy/src/dev/oled_ssd130x.h ****         uint8_t i;
 385:Display/../../libs/PoliTeKDSP/libs/libDaisy/src/dev/oled_ssd130x.h ****         uint8_t high_column_addr;
 386:Display/../../libs/PoliTeKDSP/libs/libDaisy/src/dev/oled_ssd130x.h ****         switch(height)
 387:Display/../../libs/PoliTeKDSP/libs/libDaisy/src/dev/oled_ssd130x.h ****         {
 388:Display/../../libs/PoliTeKDSP/libs/libDaisy/src/dev/oled_ssd130x.h ****             case 32: high_column_addr = 0x12; break;
ARM GAS  C:\Users\skipi\AppData\Local\Temp\ccpgF6Mp.s 			page 29


 389:Display/../../libs/PoliTeKDSP/libs/libDaisy/src/dev/oled_ssd130x.h **** 
 390:Display/../../libs/PoliTeKDSP/libs/libDaisy/src/dev/oled_ssd130x.h ****             default: high_column_addr = 0x10; break;
 391:Display/../../libs/PoliTeKDSP/libs/libDaisy/src/dev/oled_ssd130x.h ****         }
 392:Display/../../libs/PoliTeKDSP/libs/libDaisy/src/dev/oled_ssd130x.h ****         for(i = 0; i < (height / 8); i++)
 459              		.loc 11 392 22 view .LVU81
 460              	.LBB603:
 461              	.LBB601:
  46:Display/../../libs/PoliTeKDSP/libs/libDaisy/src/dev/oled_ssd130x.h ****     };
 462              		.loc 11 46 30 is_stmt 0 view .LVU82
 463 000c 00F10807 		add	r7, r0, #8
 464              	.LVL30:
  46:Display/../../libs/PoliTeKDSP/libs/libDaisy/src/dev/oled_ssd130x.h ****     };
 465              		.loc 11 46 30 view .LVU83
 466 0010 00F18F06 		add	r6, r0, #143
 467 0014 00F28F49 		addw	r9, r0, #1167
 468              	.LVL31:
 469              	.L23:
  46:Display/../../libs/PoliTeKDSP/libs/libDaisy/src/dev/oled_ssd130x.h ****     };
 470              		.loc 11 46 30 view .LVU84
 471              	.LBE601:
 472              	.LBI599:
  43:Display/../../libs/PoliTeKDSP/libs/libDaisy/src/dev/oled_ssd130x.h ****     {
 473              		.loc 11 43 10 is_stmt 1 view .LVU85
 474              	.LBB602:
  45:Display/../../libs/PoliTeKDSP/libs/libDaisy/src/dev/oled_ssd130x.h ****         i2c_.TransmitBlocking(i2c_address_, buf, 2, 1000);
 475              		.loc 11 45 9 view .LVU86
  46:Display/../../libs/PoliTeKDSP/libs/libDaisy/src/dev/oled_ssd130x.h ****     };
 476              		.loc 11 46 30 is_stmt 0 view .LVU87
 477 0018 4FF47A7B 		mov	fp, #1000
  45:Display/../../libs/PoliTeKDSP/libs/libDaisy/src/dev/oled_ssd130x.h ****         i2c_.TransmitBlocking(i2c_address_, buf, 2, 1000);
 478              		.loc 11 45 17 view .LVU88
 479 001c 4FF0000A 		mov	r10, #0
  46:Display/../../libs/PoliTeKDSP/libs/libDaisy/src/dev/oled_ssd130x.h ****     };
 480              		.loc 11 46 30 view .LVU89
 481 0020 297B     		ldrb	r1, [r5, #12]	@ zero_extendqisi2
 482 0022 0223     		movs	r3, #2
 483 0024 03AA     		add	r2, sp, #12
 484 0026 3846     		mov	r0, r7
 485 0028 CDF800B0 		str	fp, [sp]
 486 002c A6F18004 		sub	r4, r6, #128
  45:Display/../../libs/PoliTeKDSP/libs/libDaisy/src/dev/oled_ssd130x.h ****         i2c_.TransmitBlocking(i2c_address_, buf, 2, 1000);
 487              		.loc 11 45 17 view .LVU90
 488 0030 8DF80CA0 		strb	r10, [sp, #12]
  45:Display/../../libs/PoliTeKDSP/libs/libDaisy/src/dev/oled_ssd130x.h ****         i2c_.TransmitBlocking(i2c_address_, buf, 2, 1000);
 489              		.loc 11 45 36 view .LVU91
 490 0034 8DF80D80 		strb	r8, [sp, #13]
  46:Display/../../libs/PoliTeKDSP/libs/libDaisy/src/dev/oled_ssd130x.h ****     };
 491              		.loc 11 46 9 is_stmt 1 view .LVU92
  46:Display/../../libs/PoliTeKDSP/libs/libDaisy/src/dev/oled_ssd130x.h ****     };
 492              		.loc 11 46 30 is_stmt 0 view .LVU93
 493 0038 FFF7FEFF 		bl	_ZN5daisy9I2CHandle16TransmitBlockingEtPhtm
 494              	.LVL32:
  46:Display/../../libs/PoliTeKDSP/libs/libDaisy/src/dev/oled_ssd130x.h ****     };
 495              		.loc 11 46 30 view .LVU94
 496              	.LBE602:
 497              	.LBE603:
 498              	.LBB604:
ARM GAS  C:\Users\skipi\AppData\Local\Temp\ccpgF6Mp.s 			page 30


 499              	.LBI604:
  43:Display/../../libs/PoliTeKDSP/libs/libDaisy/src/dev/oled_ssd130x.h ****     {
 500              		.loc 11 43 10 is_stmt 1 view .LVU95
 501              	.LBB605:
  45:Display/../../libs/PoliTeKDSP/libs/libDaisy/src/dev/oled_ssd130x.h ****         i2c_.TransmitBlocking(i2c_address_, buf, 2, 1000);
 502              		.loc 11 45 9 view .LVU96
  46:Display/../../libs/PoliTeKDSP/libs/libDaisy/src/dev/oled_ssd130x.h ****     };
 503              		.loc 11 46 30 is_stmt 0 view .LVU97
 504 003c 297B     		ldrb	r1, [r5, #12]	@ zero_extendqisi2
 505 003e 0223     		movs	r3, #2
 506 0040 03AA     		add	r2, sp, #12
 507 0042 3846     		mov	r0, r7
 508 0044 CDF800B0 		str	fp, [sp]
  45:Display/../../libs/PoliTeKDSP/libs/libDaisy/src/dev/oled_ssd130x.h ****         i2c_.TransmitBlocking(i2c_address_, buf, 2, 1000);
 509              		.loc 11 45 17 view .LVU98
 510 0048 8DF80CA0 		strb	r10, [sp, #12]
  45:Display/../../libs/PoliTeKDSP/libs/libDaisy/src/dev/oled_ssd130x.h ****         i2c_.TransmitBlocking(i2c_address_, buf, 2, 1000);
 511              		.loc 11 45 36 view .LVU99
 512 004c 8DF80DA0 		strb	r10, [sp, #13]
  46:Display/../../libs/PoliTeKDSP/libs/libDaisy/src/dev/oled_ssd130x.h ****     };
 513              		.loc 11 46 9 is_stmt 1 view .LVU100
  46:Display/../../libs/PoliTeKDSP/libs/libDaisy/src/dev/oled_ssd130x.h ****     };
 514              		.loc 11 46 30 is_stmt 0 view .LVU101
 515 0050 FFF7FEFF 		bl	_ZN5daisy9I2CHandle16TransmitBlockingEtPhtm
 516              	.LVL33:
  46:Display/../../libs/PoliTeKDSP/libs/libDaisy/src/dev/oled_ssd130x.h ****     };
 517              		.loc 11 46 30 view .LVU102
 518              	.LBE605:
 519              	.LBE604:
 520              	.LBB606:
 521              	.LBI606:
  43:Display/../../libs/PoliTeKDSP/libs/libDaisy/src/dev/oled_ssd130x.h ****     {
 522              		.loc 11 43 10 is_stmt 1 view .LVU103
 523              	.LBB607:
  45:Display/../../libs/PoliTeKDSP/libs/libDaisy/src/dev/oled_ssd130x.h ****         i2c_.TransmitBlocking(i2c_address_, buf, 2, 1000);
 524              		.loc 11 45 9 view .LVU104
  45:Display/../../libs/PoliTeKDSP/libs/libDaisy/src/dev/oled_ssd130x.h ****         i2c_.TransmitBlocking(i2c_address_, buf, 2, 1000);
 525              		.loc 11 45 36 is_stmt 0 view .LVU105
 526 0054 4FF0100C 		mov	ip, #16
  46:Display/../../libs/PoliTeKDSP/libs/libDaisy/src/dev/oled_ssd130x.h ****     };
 527              		.loc 11 46 30 view .LVU106
 528 0058 297B     		ldrb	r1, [r5, #12]	@ zero_extendqisi2
 529 005a 0223     		movs	r3, #2
 530 005c 03AA     		add	r2, sp, #12
 531 005e 3846     		mov	r0, r7
 532 0060 CDF800B0 		str	fp, [sp]
  45:Display/../../libs/PoliTeKDSP/libs/libDaisy/src/dev/oled_ssd130x.h ****         i2c_.TransmitBlocking(i2c_address_, buf, 2, 1000);
 533              		.loc 11 45 17 view .LVU107
 534 0064 8DF80CA0 		strb	r10, [sp, #12]
  45:Display/../../libs/PoliTeKDSP/libs/libDaisy/src/dev/oled_ssd130x.h ****         i2c_.TransmitBlocking(i2c_address_, buf, 2, 1000);
 535              		.loc 11 45 36 view .LVU108
 536 0068 8DF80DC0 		strb	ip, [sp, #13]
  46:Display/../../libs/PoliTeKDSP/libs/libDaisy/src/dev/oled_ssd130x.h ****     };
 537              		.loc 11 46 9 is_stmt 1 view .LVU109
  46:Display/../../libs/PoliTeKDSP/libs/libDaisy/src/dev/oled_ssd130x.h ****     };
 538              		.loc 11 46 30 is_stmt 0 view .LVU110
 539 006c FFF7FEFF 		bl	_ZN5daisy9I2CHandle16TransmitBlockingEtPhtm
ARM GAS  C:\Users\skipi\AppData\Local\Temp\ccpgF6Mp.s 			page 31


 540              	.LVL34:
  46:Display/../../libs/PoliTeKDSP/libs/libDaisy/src/dev/oled_ssd130x.h ****     };
 541              		.loc 11 46 30 view .LVU111
 542              	.LBE607:
 543              	.LBE606:
 544              	.LBB608:
 545              	.LBI608:
  49:Display/../../libs/PoliTeKDSP/libs/libDaisy/src/dev/oled_ssd130x.h ****     {
 546              		.loc 11 49 10 is_stmt 1 view .LVU112
 547              	.LBB609:
  51:Display/../../libs/PoliTeKDSP/libs/libDaisy/src/dev/oled_ssd130x.h ****         {
 548              		.loc 11 51 29 view .LVU113
 549              	.L22:
 550              	.LBB610:
  53:Display/../../libs/PoliTeKDSP/libs/libDaisy/src/dev/oled_ssd130x.h ****             i2c_.TransmitBlocking(i2c_address_, buf, 2, 1000);
 551              		.loc 11 53 13 view .LVU114
  54:Display/../../libs/PoliTeKDSP/libs/libDaisy/src/dev/oled_ssd130x.h ****         }
 552              		.loc 11 54 34 is_stmt 0 view .LVU115
 553 0070 4FF47A70 		mov	r0, #1000
  53:Display/../../libs/PoliTeKDSP/libs/libDaisy/src/dev/oled_ssd130x.h ****             i2c_.TransmitBlocking(i2c_address_, buf, 2, 1000);
 554              		.loc 11 53 44 view .LVU116
 555 0074 14F801CF 		ldrb	ip, [r4, #1]!	@ zero_extendqisi2
 556              	.LVL35:
  53:Display/../../libs/PoliTeKDSP/libs/libDaisy/src/dev/oled_ssd130x.h ****             i2c_.TransmitBlocking(i2c_address_, buf, 2, 1000);
 557              		.loc 11 53 21 view .LVU117
 558 0078 4FF0400E 		mov	lr, #64
  54:Display/../../libs/PoliTeKDSP/libs/libDaisy/src/dev/oled_ssd130x.h ****         }
 559              		.loc 11 54 34 view .LVU118
 560 007c 297B     		ldrb	r1, [r5, #12]	@ zero_extendqisi2
 561 007e 0223     		movs	r3, #2
 562 0080 0090     		str	r0, [sp]
 563 0082 03AA     		add	r2, sp, #12
 564 0084 3846     		mov	r0, r7
  53:Display/../../libs/PoliTeKDSP/libs/libDaisy/src/dev/oled_ssd130x.h ****             i2c_.TransmitBlocking(i2c_address_, buf, 2, 1000);
 565              		.loc 11 53 21 view .LVU119
 566 0086 8DF80CE0 		strb	lr, [sp, #12]
  53:Display/../../libs/PoliTeKDSP/libs/libDaisy/src/dev/oled_ssd130x.h ****             i2c_.TransmitBlocking(i2c_address_, buf, 2, 1000);
 567              		.loc 11 53 44 view .LVU120
 568 008a 8DF80DC0 		strb	ip, [sp, #13]
  54:Display/../../libs/PoliTeKDSP/libs/libDaisy/src/dev/oled_ssd130x.h ****         }
 569              		.loc 11 54 13 is_stmt 1 view .LVU121
  54:Display/../../libs/PoliTeKDSP/libs/libDaisy/src/dev/oled_ssd130x.h ****         }
 570              		.loc 11 54 34 is_stmt 0 view .LVU122
 571 008e FFF7FEFF 		bl	_ZN5daisy9I2CHandle16TransmitBlockingEtPhtm
 572              	.LVL36:
 573              	.LBE610:
  51:Display/../../libs/PoliTeKDSP/libs/libDaisy/src/dev/oled_ssd130x.h ****         {
 574              		.loc 11 51 9 is_stmt 1 view .LVU123
  51:Display/../../libs/PoliTeKDSP/libs/libDaisy/src/dev/oled_ssd130x.h ****         {
 575              		.loc 11 51 29 view .LVU124
 576 0092 B442     		cmp	r4, r6
 577 0094 ECD1     		bne	.L22
 578              	.LVL37:
  51:Display/../../libs/PoliTeKDSP/libs/libDaisy/src/dev/oled_ssd130x.h ****         {
 579              		.loc 11 51 29 is_stmt 0 view .LVU125
 580              	.LBE609:
 581              	.LBE608:
ARM GAS  C:\Users\skipi\AppData\Local\Temp\ccpgF6Mp.s 			page 32


 582              		.loc 11 392 9 is_stmt 1 view .LVU126
 583              		.loc 11 392 22 view .LVU127
 584 0096 04F18006 		add	r6, r4, #128
 585 009a 08F10108 		add	r8, r8, #1
 586              	.LVL38:
 587              		.loc 11 392 22 is_stmt 0 view .LVU128
 588 009e 4E45     		cmp	r6, r9
 589 00a0 5FFA88F8 		uxtb	r8, r8
 590 00a4 B8D1     		bne	.L23
 591              	.LBE611:
 592              	.LBE612:
  51:../libs/PoliTeKDSP/libs/libDaisy/src/hid/disp/oled_display.h **** 
 593              		.loc 9 51 48 view .LVU129
 594 00a6 05B0     		add	sp, sp, #20
 595              		.cfi_def_cfa_offset 36
 596              		@ sp needed
 597 00a8 BDE8F08F 		pop	{r4, r5, r6, r7, r8, r9, r10, fp, pc}
  51:../libs/PoliTeKDSP/libs/libDaisy/src/hid/disp/oled_display.h **** 
 598              		.loc 9 51 48 view .LVU130
 599              		.cfi_endproc
 600              	.LFE5725:
 602              		.section	.text._ZN5daisy25OneBitGraphicsDisplayImplINS_11OledDisplayINS_13SSD130xDriverILj128ELj64
 603              		.align	1
 604              		.p2align 2,,3
 605              		.weak	_ZN5daisy25OneBitGraphicsDisplayImplINS_11OledDisplayINS_13SSD130xDriverILj128ELj64ENS_19SSD
 606              		.syntax unified
 607              		.thumb
 608              		.thumb_func
 609              		.fpu fpv5-d16
 611              	_ZN5daisy25OneBitGraphicsDisplayImplINS_11OledDisplayINS_13SSD130xDriverILj128ELj64ENS_19SSD130xI2C
 612              	.LVL39:
 613              	.LFB5723:
 225:../libs/PoliTeKDSP/libs/libDaisy/src/hid/disp/display.h **** 
 226:../libs/PoliTeKDSP/libs/libDaisy/src/hid/disp/display.h ****     void DrawLine(uint_fast8_t x1,
 227:../libs/PoliTeKDSP/libs/libDaisy/src/hid/disp/display.h ****                   uint_fast8_t y1,
 228:../libs/PoliTeKDSP/libs/libDaisy/src/hid/disp/display.h ****                   uint_fast8_t x2,
 229:../libs/PoliTeKDSP/libs/libDaisy/src/hid/disp/display.h ****                   uint_fast8_t y2,
 230:../libs/PoliTeKDSP/libs/libDaisy/src/hid/disp/display.h ****                   bool         on) override
 231:../libs/PoliTeKDSP/libs/libDaisy/src/hid/disp/display.h ****     {
 232:../libs/PoliTeKDSP/libs/libDaisy/src/hid/disp/display.h ****         int_fast16_t deltaX = abs((int_fast16_t)x2 - (int_fast16_t)x1);
 233:../libs/PoliTeKDSP/libs/libDaisy/src/hid/disp/display.h ****         int_fast16_t deltaY = abs((int_fast16_t)y2 - (int_fast16_t)y1);
 234:../libs/PoliTeKDSP/libs/libDaisy/src/hid/disp/display.h ****         int_fast16_t signX  = ((x1 < x2) ? 1 : -1);
 235:../libs/PoliTeKDSP/libs/libDaisy/src/hid/disp/display.h ****         int_fast16_t signY  = ((y1 < y2) ? 1 : -1);
 236:../libs/PoliTeKDSP/libs/libDaisy/src/hid/disp/display.h ****         int_fast16_t error  = deltaX - deltaY;
 237:../libs/PoliTeKDSP/libs/libDaisy/src/hid/disp/display.h ****         int_fast16_t error2;
 238:../libs/PoliTeKDSP/libs/libDaisy/src/hid/disp/display.h **** 
 239:../libs/PoliTeKDSP/libs/libDaisy/src/hid/disp/display.h ****         // If we write "ChildType::DrawPixel(x2, y2, on);", we end up with
 240:../libs/PoliTeKDSP/libs/libDaisy/src/hid/disp/display.h ****         // all sorts of weird compiler errors when the Child class is a template
 241:../libs/PoliTeKDSP/libs/libDaisy/src/hid/disp/display.h ****         // class. The only way around this is to use this very verbose syntax:
 242:../libs/PoliTeKDSP/libs/libDaisy/src/hid/disp/display.h ****         ((ChildType*)(this))->ChildType::DrawPixel(x2, y2, on);
 243:../libs/PoliTeKDSP/libs/libDaisy/src/hid/disp/display.h **** 
 244:../libs/PoliTeKDSP/libs/libDaisy/src/hid/disp/display.h ****         while((x1 != x2) || (y1 != y2))
 245:../libs/PoliTeKDSP/libs/libDaisy/src/hid/disp/display.h ****         {
 246:../libs/PoliTeKDSP/libs/libDaisy/src/hid/disp/display.h ****             ((ChildType*)(this))->ChildType::DrawPixel(x1, y1, on);
 247:../libs/PoliTeKDSP/libs/libDaisy/src/hid/disp/display.h ****             error2 = error * 2;
 248:../libs/PoliTeKDSP/libs/libDaisy/src/hid/disp/display.h ****             if(error2 > -deltaY)
 249:../libs/PoliTeKDSP/libs/libDaisy/src/hid/disp/display.h ****             {
ARM GAS  C:\Users\skipi\AppData\Local\Temp\ccpgF6Mp.s 			page 33


 250:../libs/PoliTeKDSP/libs/libDaisy/src/hid/disp/display.h ****                 error -= deltaY;
 251:../libs/PoliTeKDSP/libs/libDaisy/src/hid/disp/display.h ****                 x1 += signX;
 252:../libs/PoliTeKDSP/libs/libDaisy/src/hid/disp/display.h ****             }
 253:../libs/PoliTeKDSP/libs/libDaisy/src/hid/disp/display.h **** 
 254:../libs/PoliTeKDSP/libs/libDaisy/src/hid/disp/display.h ****             if(error2 < deltaX)
 255:../libs/PoliTeKDSP/libs/libDaisy/src/hid/disp/display.h ****             {
 256:../libs/PoliTeKDSP/libs/libDaisy/src/hid/disp/display.h ****                 error += deltaX;
 257:../libs/PoliTeKDSP/libs/libDaisy/src/hid/disp/display.h ****                 y1 += signY;
 258:../libs/PoliTeKDSP/libs/libDaisy/src/hid/disp/display.h ****             }
 259:../libs/PoliTeKDSP/libs/libDaisy/src/hid/disp/display.h ****         }
 260:../libs/PoliTeKDSP/libs/libDaisy/src/hid/disp/display.h ****     }
 261:../libs/PoliTeKDSP/libs/libDaisy/src/hid/disp/display.h **** 
 262:../libs/PoliTeKDSP/libs/libDaisy/src/hid/disp/display.h ****     void DrawRect(uint_fast8_t x1,
 263:../libs/PoliTeKDSP/libs/libDaisy/src/hid/disp/display.h ****                   uint_fast8_t y1,
 264:../libs/PoliTeKDSP/libs/libDaisy/src/hid/disp/display.h ****                   uint_fast8_t x2,
 265:../libs/PoliTeKDSP/libs/libDaisy/src/hid/disp/display.h ****                   uint_fast8_t y2,
 266:../libs/PoliTeKDSP/libs/libDaisy/src/hid/disp/display.h ****                   bool         on,
 267:../libs/PoliTeKDSP/libs/libDaisy/src/hid/disp/display.h ****                   bool         fill = false) override
 268:../libs/PoliTeKDSP/libs/libDaisy/src/hid/disp/display.h ****     {
 269:../libs/PoliTeKDSP/libs/libDaisy/src/hid/disp/display.h ****         if(fill)
 270:../libs/PoliTeKDSP/libs/libDaisy/src/hid/disp/display.h ****         {
 271:../libs/PoliTeKDSP/libs/libDaisy/src/hid/disp/display.h ****             for(uint_fast8_t x = x1; x <= x2; x++)
 272:../libs/PoliTeKDSP/libs/libDaisy/src/hid/disp/display.h ****             {
 273:../libs/PoliTeKDSP/libs/libDaisy/src/hid/disp/display.h ****                 for(uint_fast8_t y = y1; y <= y2; y++)
 274:../libs/PoliTeKDSP/libs/libDaisy/src/hid/disp/display.h ****                 {
 275:../libs/PoliTeKDSP/libs/libDaisy/src/hid/disp/display.h ****                     ((ChildType*)(this))->ChildType::DrawPixel(x, y, on);
 276:../libs/PoliTeKDSP/libs/libDaisy/src/hid/disp/display.h ****                 }
 277:../libs/PoliTeKDSP/libs/libDaisy/src/hid/disp/display.h ****             }
 278:../libs/PoliTeKDSP/libs/libDaisy/src/hid/disp/display.h ****         }
 279:../libs/PoliTeKDSP/libs/libDaisy/src/hid/disp/display.h ****         else
 280:../libs/PoliTeKDSP/libs/libDaisy/src/hid/disp/display.h ****         {
 281:../libs/PoliTeKDSP/libs/libDaisy/src/hid/disp/display.h ****             ((ChildType*)(this))->ChildType::DrawLine(x1, y1, x2, y1, on);
 282:../libs/PoliTeKDSP/libs/libDaisy/src/hid/disp/display.h ****             ((ChildType*)(this))->ChildType::DrawLine(x2, y1, x2, y2, on);
 283:../libs/PoliTeKDSP/libs/libDaisy/src/hid/disp/display.h ****             ((ChildType*)(this))->ChildType::DrawLine(x2, y2, x1, y2, on);
 284:../libs/PoliTeKDSP/libs/libDaisy/src/hid/disp/display.h ****             ((ChildType*)(this))->ChildType::DrawLine(x1, y2, x1, y1, on);
 285:../libs/PoliTeKDSP/libs/libDaisy/src/hid/disp/display.h ****         }
 286:../libs/PoliTeKDSP/libs/libDaisy/src/hid/disp/display.h ****     }
 287:../libs/PoliTeKDSP/libs/libDaisy/src/hid/disp/display.h **** 
 288:../libs/PoliTeKDSP/libs/libDaisy/src/hid/disp/display.h ****     void DrawArc(uint_fast8_t x,
 289:../libs/PoliTeKDSP/libs/libDaisy/src/hid/disp/display.h ****                  uint_fast8_t y,
 290:../libs/PoliTeKDSP/libs/libDaisy/src/hid/disp/display.h ****                  uint_fast8_t radius,
 291:../libs/PoliTeKDSP/libs/libDaisy/src/hid/disp/display.h ****                  int_fast16_t start_angle,
 292:../libs/PoliTeKDSP/libs/libDaisy/src/hid/disp/display.h ****                  int_fast16_t sweep,
 293:../libs/PoliTeKDSP/libs/libDaisy/src/hid/disp/display.h ****                  bool         on) override
 294:../libs/PoliTeKDSP/libs/libDaisy/src/hid/disp/display.h ****     {
 295:../libs/PoliTeKDSP/libs/libDaisy/src/hid/disp/display.h ****         // Values to calculate the circle
 296:../libs/PoliTeKDSP/libs/libDaisy/src/hid/disp/display.h ****         int_fast16_t t_x, t_y, err, e2;
 297:../libs/PoliTeKDSP/libs/libDaisy/src/hid/disp/display.h **** 
 298:../libs/PoliTeKDSP/libs/libDaisy/src/hid/disp/display.h ****         // Temporary values to speed up comparisons
 299:../libs/PoliTeKDSP/libs/libDaisy/src/hid/disp/display.h ****         float t_sxy, t_syx, t_sxny, t_synx;
 300:../libs/PoliTeKDSP/libs/libDaisy/src/hid/disp/display.h ****         float t_exy, t_eyx, t_exny, t_eynx;
 301:../libs/PoliTeKDSP/libs/libDaisy/src/hid/disp/display.h **** 
 302:../libs/PoliTeKDSP/libs/libDaisy/src/hid/disp/display.h ****         float start_angle_rad, end_angle_rad;
 303:../libs/PoliTeKDSP/libs/libDaisy/src/hid/disp/display.h ****         float start_x, start_y, end_x, end_y;
 304:../libs/PoliTeKDSP/libs/libDaisy/src/hid/disp/display.h **** 
 305:../libs/PoliTeKDSP/libs/libDaisy/src/hid/disp/display.h ****         bool d1, d2, d3, d4;
 306:../libs/PoliTeKDSP/libs/libDaisy/src/hid/disp/display.h **** 
ARM GAS  C:\Users\skipi\AppData\Local\Temp\ccpgF6Mp.s 			page 34


 307:../libs/PoliTeKDSP/libs/libDaisy/src/hid/disp/display.h ****         d1 = d2 = d3 = d4 = true;
 308:../libs/PoliTeKDSP/libs/libDaisy/src/hid/disp/display.h **** 
 309:../libs/PoliTeKDSP/libs/libDaisy/src/hid/disp/display.h ****         bool circle = false;
 310:../libs/PoliTeKDSP/libs/libDaisy/src/hid/disp/display.h **** 
 311:../libs/PoliTeKDSP/libs/libDaisy/src/hid/disp/display.h ****         if(sweep < 0)
 312:../libs/PoliTeKDSP/libs/libDaisy/src/hid/disp/display.h ****         {
 313:../libs/PoliTeKDSP/libs/libDaisy/src/hid/disp/display.h ****             start_angle += sweep;
 314:../libs/PoliTeKDSP/libs/libDaisy/src/hid/disp/display.h ****             sweep = -sweep;
 315:../libs/PoliTeKDSP/libs/libDaisy/src/hid/disp/display.h ****         }
 316:../libs/PoliTeKDSP/libs/libDaisy/src/hid/disp/display.h **** 
 317:../libs/PoliTeKDSP/libs/libDaisy/src/hid/disp/display.h ****         start_angle_rad = deg2rad(start_angle);
 318:../libs/PoliTeKDSP/libs/libDaisy/src/hid/disp/display.h ****         end_angle_rad   = deg2rad(start_angle + sweep);
 319:../libs/PoliTeKDSP/libs/libDaisy/src/hid/disp/display.h **** 
 320:../libs/PoliTeKDSP/libs/libDaisy/src/hid/disp/display.h ****         start_x = cos(start_angle_rad) * radius;
 321:../libs/PoliTeKDSP/libs/libDaisy/src/hid/disp/display.h ****         start_y = -sin(start_angle_rad) * radius;
 322:../libs/PoliTeKDSP/libs/libDaisy/src/hid/disp/display.h ****         end_x   = cos(end_angle_rad) * radius;
 323:../libs/PoliTeKDSP/libs/libDaisy/src/hid/disp/display.h ****         end_y   = -sin(end_angle_rad) * radius;
 324:../libs/PoliTeKDSP/libs/libDaisy/src/hid/disp/display.h **** 
 325:../libs/PoliTeKDSP/libs/libDaisy/src/hid/disp/display.h ****         // Check if start and endpoint are very near
 326:../libs/PoliTeKDSP/libs/libDaisy/src/hid/disp/display.h ****         if((end_x - start_x) * (end_x - start_x)
 327:../libs/PoliTeKDSP/libs/libDaisy/src/hid/disp/display.h ****                + (end_y - start_y) * (end_y - start_y)
 328:../libs/PoliTeKDSP/libs/libDaisy/src/hid/disp/display.h ****            < 2.0f)
 329:../libs/PoliTeKDSP/libs/libDaisy/src/hid/disp/display.h ****         {
 330:../libs/PoliTeKDSP/libs/libDaisy/src/hid/disp/display.h ****             if(sweep > 180)
 331:../libs/PoliTeKDSP/libs/libDaisy/src/hid/disp/display.h ****                 circle = true;
 332:../libs/PoliTeKDSP/libs/libDaisy/src/hid/disp/display.h ****             else
 333:../libs/PoliTeKDSP/libs/libDaisy/src/hid/disp/display.h ****                 // Nothing to draw
 334:../libs/PoliTeKDSP/libs/libDaisy/src/hid/disp/display.h ****                 return;
 335:../libs/PoliTeKDSP/libs/libDaisy/src/hid/disp/display.h ****         }
 336:../libs/PoliTeKDSP/libs/libDaisy/src/hid/disp/display.h **** 
 337:../libs/PoliTeKDSP/libs/libDaisy/src/hid/disp/display.h ****         t_x = -radius;
 338:../libs/PoliTeKDSP/libs/libDaisy/src/hid/disp/display.h ****         t_y = 0;
 339:../libs/PoliTeKDSP/libs/libDaisy/src/hid/disp/display.h ****         err = 2 - 2 * radius;
 340:../libs/PoliTeKDSP/libs/libDaisy/src/hid/disp/display.h **** 
 341:../libs/PoliTeKDSP/libs/libDaisy/src/hid/disp/display.h ****         do
 342:../libs/PoliTeKDSP/libs/libDaisy/src/hid/disp/display.h ****         {
 343:../libs/PoliTeKDSP/libs/libDaisy/src/hid/disp/display.h ****             if(!circle)
 344:../libs/PoliTeKDSP/libs/libDaisy/src/hid/disp/display.h ****             {
 345:../libs/PoliTeKDSP/libs/libDaisy/src/hid/disp/display.h ****                 t_sxy  = start_x * t_y;
 346:../libs/PoliTeKDSP/libs/libDaisy/src/hid/disp/display.h ****                 t_syx  = start_y * t_x;
 347:../libs/PoliTeKDSP/libs/libDaisy/src/hid/disp/display.h ****                 t_sxny = start_x * -t_y;
 348:../libs/PoliTeKDSP/libs/libDaisy/src/hid/disp/display.h ****                 t_synx = start_y * -t_x;
 349:../libs/PoliTeKDSP/libs/libDaisy/src/hid/disp/display.h ****                 t_exy  = end_x * t_y;
 350:../libs/PoliTeKDSP/libs/libDaisy/src/hid/disp/display.h ****                 t_eyx  = end_y * t_x;
 351:../libs/PoliTeKDSP/libs/libDaisy/src/hid/disp/display.h ****                 t_exny = end_x * -t_y;
 352:../libs/PoliTeKDSP/libs/libDaisy/src/hid/disp/display.h ****                 t_eynx = end_y * -t_x;
 353:../libs/PoliTeKDSP/libs/libDaisy/src/hid/disp/display.h **** 
 354:../libs/PoliTeKDSP/libs/libDaisy/src/hid/disp/display.h ****                 if(sweep > 180)
 355:../libs/PoliTeKDSP/libs/libDaisy/src/hid/disp/display.h ****                 {
 356:../libs/PoliTeKDSP/libs/libDaisy/src/hid/disp/display.h ****                     d1 = (t_sxy - t_synx < 0 || t_exy - t_eynx > 0);
 357:../libs/PoliTeKDSP/libs/libDaisy/src/hid/disp/display.h ****                     d2 = (t_sxy - t_syx < 0 || t_exy - t_eyx > 0);
 358:../libs/PoliTeKDSP/libs/libDaisy/src/hid/disp/display.h ****                     d3 = (t_sxny - t_syx < 0 || t_exny - t_eyx > 0);
 359:../libs/PoliTeKDSP/libs/libDaisy/src/hid/disp/display.h ****                     d4 = (t_sxny - t_synx < 0 || t_exny - t_eynx > 0);
 360:../libs/PoliTeKDSP/libs/libDaisy/src/hid/disp/display.h ****                 }
 361:../libs/PoliTeKDSP/libs/libDaisy/src/hid/disp/display.h ****                 else
 362:../libs/PoliTeKDSP/libs/libDaisy/src/hid/disp/display.h ****                 {
 363:../libs/PoliTeKDSP/libs/libDaisy/src/hid/disp/display.h ****                     d1 = (t_sxy - t_synx < 0 && t_exy - t_eynx > 0);
ARM GAS  C:\Users\skipi\AppData\Local\Temp\ccpgF6Mp.s 			page 35


 364:../libs/PoliTeKDSP/libs/libDaisy/src/hid/disp/display.h ****                     d2 = (t_sxy - t_syx < 0 && t_exy - t_eyx > 0);
 365:../libs/PoliTeKDSP/libs/libDaisy/src/hid/disp/display.h ****                     d3 = (t_sxny - t_syx < 0 && t_exny - t_eyx > 0);
 366:../libs/PoliTeKDSP/libs/libDaisy/src/hid/disp/display.h ****                     d4 = (t_sxny - t_synx < 0 && t_exny - t_eynx > 0);
 367:../libs/PoliTeKDSP/libs/libDaisy/src/hid/disp/display.h ****                 }
 368:../libs/PoliTeKDSP/libs/libDaisy/src/hid/disp/display.h ****             }
 369:../libs/PoliTeKDSP/libs/libDaisy/src/hid/disp/display.h **** 
 370:../libs/PoliTeKDSP/libs/libDaisy/src/hid/disp/display.h ****             if(d1)
 371:../libs/PoliTeKDSP/libs/libDaisy/src/hid/disp/display.h ****                 ((ChildType*)(this))
 372:../libs/PoliTeKDSP/libs/libDaisy/src/hid/disp/display.h ****                     ->ChildType::DrawPixel(x - t_x, y + t_y, on);
 373:../libs/PoliTeKDSP/libs/libDaisy/src/hid/disp/display.h ****             if(d2)
 374:../libs/PoliTeKDSP/libs/libDaisy/src/hid/disp/display.h ****                 ((ChildType*)(this))
 375:../libs/PoliTeKDSP/libs/libDaisy/src/hid/disp/display.h ****                     ->ChildType::DrawPixel(x + t_x, y + t_y, on);
 376:../libs/PoliTeKDSP/libs/libDaisy/src/hid/disp/display.h ****             if(d3)
 377:../libs/PoliTeKDSP/libs/libDaisy/src/hid/disp/display.h ****                 ((ChildType*)(this))
 378:../libs/PoliTeKDSP/libs/libDaisy/src/hid/disp/display.h ****                     ->ChildType::DrawPixel(x + t_x, y - t_y, on);
 379:../libs/PoliTeKDSP/libs/libDaisy/src/hid/disp/display.h ****             if(d4)
 380:../libs/PoliTeKDSP/libs/libDaisy/src/hid/disp/display.h ****                 ((ChildType*)(this))
 381:../libs/PoliTeKDSP/libs/libDaisy/src/hid/disp/display.h ****                     ->ChildType::DrawPixel(x - t_x, y - t_y, on);
 382:../libs/PoliTeKDSP/libs/libDaisy/src/hid/disp/display.h **** 
 383:../libs/PoliTeKDSP/libs/libDaisy/src/hid/disp/display.h ****             e2 = err;
 384:../libs/PoliTeKDSP/libs/libDaisy/src/hid/disp/display.h ****             if(e2 <= t_y)
 385:../libs/PoliTeKDSP/libs/libDaisy/src/hid/disp/display.h ****             {
 386:../libs/PoliTeKDSP/libs/libDaisy/src/hid/disp/display.h ****                 t_y++;
 387:../libs/PoliTeKDSP/libs/libDaisy/src/hid/disp/display.h ****                 err = err + (t_y * 2 + 1);
 388:../libs/PoliTeKDSP/libs/libDaisy/src/hid/disp/display.h ****                 if(-t_x == t_y && e2 <= t_x)
 389:../libs/PoliTeKDSP/libs/libDaisy/src/hid/disp/display.h ****                 {
 390:../libs/PoliTeKDSP/libs/libDaisy/src/hid/disp/display.h ****                     e2 = 0;
 391:../libs/PoliTeKDSP/libs/libDaisy/src/hid/disp/display.h ****                 }
 392:../libs/PoliTeKDSP/libs/libDaisy/src/hid/disp/display.h ****             }
 393:../libs/PoliTeKDSP/libs/libDaisy/src/hid/disp/display.h ****             if(e2 > t_x)
 394:../libs/PoliTeKDSP/libs/libDaisy/src/hid/disp/display.h ****             {
 395:../libs/PoliTeKDSP/libs/libDaisy/src/hid/disp/display.h ****                 t_x++;
 396:../libs/PoliTeKDSP/libs/libDaisy/src/hid/disp/display.h ****                 err = err + (t_x * 2 + 1);
 397:../libs/PoliTeKDSP/libs/libDaisy/src/hid/disp/display.h ****             }
 398:../libs/PoliTeKDSP/libs/libDaisy/src/hid/disp/display.h ****         } while(t_x <= 0);
 399:../libs/PoliTeKDSP/libs/libDaisy/src/hid/disp/display.h ****     }
 400:../libs/PoliTeKDSP/libs/libDaisy/src/hid/disp/display.h **** 
 401:../libs/PoliTeKDSP/libs/libDaisy/src/hid/disp/display.h ****     char WriteChar(char ch, FontDef font, bool on) override
 402:../libs/PoliTeKDSP/libs/libDaisy/src/hid/disp/display.h ****     {
 403:../libs/PoliTeKDSP/libs/libDaisy/src/hid/disp/display.h ****         uint32_t i, b, j;
 404:../libs/PoliTeKDSP/libs/libDaisy/src/hid/disp/display.h **** 
 405:../libs/PoliTeKDSP/libs/libDaisy/src/hid/disp/display.h ****         // Check if character is valid
 406:../libs/PoliTeKDSP/libs/libDaisy/src/hid/disp/display.h ****         if(ch < 32 || ch > 126)
 407:../libs/PoliTeKDSP/libs/libDaisy/src/hid/disp/display.h ****             return 0;
 408:../libs/PoliTeKDSP/libs/libDaisy/src/hid/disp/display.h **** 
 409:../libs/PoliTeKDSP/libs/libDaisy/src/hid/disp/display.h ****         // Check remaining space on current line
 410:../libs/PoliTeKDSP/libs/libDaisy/src/hid/disp/display.h ****         if(Width() < (currentX_ + font.FontWidth)
 411:../libs/PoliTeKDSP/libs/libDaisy/src/hid/disp/display.h ****            || Height() < (currentY_ + font.FontHeight))
 412:../libs/PoliTeKDSP/libs/libDaisy/src/hid/disp/display.h ****         {
 413:../libs/PoliTeKDSP/libs/libDaisy/src/hid/disp/display.h ****             // Not enough space on current line
 414:../libs/PoliTeKDSP/libs/libDaisy/src/hid/disp/display.h ****             return 0;
 415:../libs/PoliTeKDSP/libs/libDaisy/src/hid/disp/display.h ****         }
 416:../libs/PoliTeKDSP/libs/libDaisy/src/hid/disp/display.h **** 
 417:../libs/PoliTeKDSP/libs/libDaisy/src/hid/disp/display.h ****         // Use the font to write
 418:../libs/PoliTeKDSP/libs/libDaisy/src/hid/disp/display.h ****         for(i = 0; i < font.FontHeight; i++)
 419:../libs/PoliTeKDSP/libs/libDaisy/src/hid/disp/display.h ****         {
 420:../libs/PoliTeKDSP/libs/libDaisy/src/hid/disp/display.h ****             b = font.data[(ch - 32) * font.FontHeight + i];
ARM GAS  C:\Users\skipi\AppData\Local\Temp\ccpgF6Mp.s 			page 36


 421:../libs/PoliTeKDSP/libs/libDaisy/src/hid/disp/display.h ****             for(j = 0; j < font.FontWidth; j++)
 422:../libs/PoliTeKDSP/libs/libDaisy/src/hid/disp/display.h ****             {
 423:../libs/PoliTeKDSP/libs/libDaisy/src/hid/disp/display.h ****                 if((b << j) & 0x8000)
 424:../libs/PoliTeKDSP/libs/libDaisy/src/hid/disp/display.h ****                 {
 425:../libs/PoliTeKDSP/libs/libDaisy/src/hid/disp/display.h ****                     ((ChildType*)(this))
 426:../libs/PoliTeKDSP/libs/libDaisy/src/hid/disp/display.h ****                         ->ChildType::DrawPixel(
 427:../libs/PoliTeKDSP/libs/libDaisy/src/hid/disp/display.h ****                             currentX_ + j, (currentY_ + i), on);
 428:../libs/PoliTeKDSP/libs/libDaisy/src/hid/disp/display.h ****                 }
 429:../libs/PoliTeKDSP/libs/libDaisy/src/hid/disp/display.h ****                 else
 430:../libs/PoliTeKDSP/libs/libDaisy/src/hid/disp/display.h ****                 {
 431:../libs/PoliTeKDSP/libs/libDaisy/src/hid/disp/display.h ****                     ((ChildType*)(this))
 432:../libs/PoliTeKDSP/libs/libDaisy/src/hid/disp/display.h ****                         ->ChildType::DrawPixel(
 433:../libs/PoliTeKDSP/libs/libDaisy/src/hid/disp/display.h ****                             currentX_ + j, (currentY_ + i), !on);
 434:../libs/PoliTeKDSP/libs/libDaisy/src/hid/disp/display.h ****                 }
 435:../libs/PoliTeKDSP/libs/libDaisy/src/hid/disp/display.h ****             }
 436:../libs/PoliTeKDSP/libs/libDaisy/src/hid/disp/display.h ****         }
 437:../libs/PoliTeKDSP/libs/libDaisy/src/hid/disp/display.h **** 
 438:../libs/PoliTeKDSP/libs/libDaisy/src/hid/disp/display.h ****         // The current space is now taken
 439:../libs/PoliTeKDSP/libs/libDaisy/src/hid/disp/display.h ****         SetCursor(currentX_ + font.FontWidth, currentY_);
 440:../libs/PoliTeKDSP/libs/libDaisy/src/hid/disp/display.h **** 
 441:../libs/PoliTeKDSP/libs/libDaisy/src/hid/disp/display.h ****         // Return written char for validation
 442:../libs/PoliTeKDSP/libs/libDaisy/src/hid/disp/display.h ****         return ch;
 443:../libs/PoliTeKDSP/libs/libDaisy/src/hid/disp/display.h ****     }
 444:../libs/PoliTeKDSP/libs/libDaisy/src/hid/disp/display.h **** 
 445:../libs/PoliTeKDSP/libs/libDaisy/src/hid/disp/display.h ****     char WriteString(const char* str, FontDef font, bool on) override
 614              		.loc 10 445 10 is_stmt 1 view -0
 615              		.cfi_startproc
 616              		@ args = 4, pretend = 0, frame = 32
 617              		@ frame_needed = 0, uses_anonymous_args = 0
 618              		.loc 10 445 10 is_stmt 0 view .LVU132
 619 0000 2DE9F04F 		push	{r4, r5, r6, r7, r8, r9, r10, fp, lr}
 620              		.cfi_def_cfa_offset 36
 621              		.cfi_offset 4, -36
 622              		.cfi_offset 5, -32
 623              		.cfi_offset 6, -28
 624              		.cfi_offset 7, -24
 625              		.cfi_offset 8, -20
 626              		.cfi_offset 9, -16
 627              		.cfi_offset 10, -12
 628              		.cfi_offset 11, -8
 629              		.cfi_offset 14, -4
 630 0004 89B0     		sub	sp, sp, #36
 631              		.cfi_def_cfa_offset 72
 632              		.loc 10 445 10 view .LVU133
 633 0006 08AC     		add	r4, sp, #32
 634 0008 9DF84870 		ldrb	r7, [sp, #72]	@ zero_extendqisi2
 635 000c 0191     		str	r1, [sp, #4]
 636 000e 04E90C00 		stmdb	r4, {r2, r3}
 446:../libs/PoliTeKDSP/libs/libDaisy/src/hid/disp/display.h ****     {
 447:../libs/PoliTeKDSP/libs/libDaisy/src/hid/disp/display.h ****         // Write until null-byte
 448:../libs/PoliTeKDSP/libs/libDaisy/src/hid/disp/display.h ****         while(*str)
 637              		.loc 10 448 9 is_stmt 1 view .LVU134
 638 0012 0B78     		ldrb	r3, [r1]	@ zero_extendqisi2
 639 0014 002B     		cmp	r3, #0
 640 0016 00F0AB80 		beq	.L51
 641 001a 1A46     		mov	r2, r3
 642 001c 9DF81880 		ldrb	r8, [sp, #24]	@ zero_extendqisi2
ARM GAS  C:\Users\skipi\AppData\Local\Temp\ccpgF6Mp.s 			page 37


 643 0020 9DF81930 		ldrb	r3, [sp, #25]	@ zero_extendqisi2
 644 0024 0646     		mov	r6, r0
 645 0026 4546     		mov	r5, r8
 646 0028 9046     		mov	r8, r2
 647 002a 0393     		str	r3, [sp, #12]
 648 002c 079B     		ldr	r3, [sp, #28]
 649 002e 0593     		str	r3, [sp, #20]
 650              	.LVL40:
 651              	.L52:
 652              	.LBB641:
 653              	.LBI641:
 401:../libs/PoliTeKDSP/libs/libDaisy/src/hid/disp/display.h ****     {
 654              		.loc 10 401 10 view .LVU135
 655              	.LBB642:
 406:../libs/PoliTeKDSP/libs/libDaisy/src/hid/disp/display.h ****             return 0;
 656              		.loc 10 406 20 is_stmt 0 view .LVU136
 657 0030 A8F12004 		sub	r4, r8, #32
 406:../libs/PoliTeKDSP/libs/libDaisy/src/hid/disp/display.h ****             return 0;
 658              		.loc 10 406 9 view .LVU137
 659 0034 E3B2     		uxtb	r3, r4
 660 0036 5E2B     		cmp	r3, #94
 661 0038 00F29E80 		bhi	.L33
 410:../libs/PoliTeKDSP/libs/libDaisy/src/hid/disp/display.h ****            || Height() < (currentY_ + font.FontHeight))
 662              		.loc 10 410 17 view .LVU138
 663 003c 3368     		ldr	r3, [r6]
 664 003e 5E4A     		ldr	r2, .L73
 665 0040 DB68     		ldr	r3, [r3, #12]
 666 0042 9342     		cmp	r3, r2
 667 0044 40F09B80 		bne	.L66
 668 0048 8020     		movs	r0, #128
 669              	.L32:
 410:../libs/PoliTeKDSP/libs/libDaisy/src/hid/disp/display.h ****            || Height() < (currentY_ + font.FontHeight))
 670              		.loc 10 410 23 view .LVU139
 671 004a B388     		ldrh	r3, [r6, #4]
 410:../libs/PoliTeKDSP/libs/libDaisy/src/hid/disp/display.h ****            || Height() < (currentY_ + font.FontHeight))
 672              		.loc 10 410 33 view .LVU140
 673 004c 2B44     		add	r3, r3, r5
 411:../libs/PoliTeKDSP/libs/libDaisy/src/hid/disp/display.h ****         {
 674              		.loc 10 411 12 view .LVU141
 675 004e 8342     		cmp	r3, r0
 676 0050 00F39280 		bgt	.L33
 411:../libs/PoliTeKDSP/libs/libDaisy/src/hid/disp/display.h ****         {
 677              		.loc 10 411 21 view .LVU142
 678 0054 3368     		ldr	r3, [r6]
 679 0056 594A     		ldr	r2, .L73+4
 680 0058 9B68     		ldr	r3, [r3, #8]
 681 005a 9342     		cmp	r3, r2
 682 005c 40F09280 		bne	.L67
 683 0060 4020     		movs	r0, #64
 684              	.L34:
 411:../libs/PoliTeKDSP/libs/libDaisy/src/hid/disp/display.h ****         {
 685              		.loc 10 411 27 view .LVU143
 686 0062 F188     		ldrh	r1, [r6, #6]
 411:../libs/PoliTeKDSP/libs/libDaisy/src/hid/disp/display.h ****         {
 687              		.loc 10 411 37 view .LVU144
 688 0064 039A     		ldr	r2, [sp, #12]
 411:../libs/PoliTeKDSP/libs/libDaisy/src/hid/disp/display.h ****         {
ARM GAS  C:\Users\skipi\AppData\Local\Temp\ccpgF6Mp.s 			page 38


 689              		.loc 10 411 27 view .LVU145
 690 0066 0291     		str	r1, [sp, #8]
 411:../libs/PoliTeKDSP/libs/libDaisy/src/hid/disp/display.h ****         {
 691              		.loc 10 411 37 view .LVU146
 692 0068 8B18     		adds	r3, r1, r2
 411:../libs/PoliTeKDSP/libs/libDaisy/src/hid/disp/display.h ****         {
 693              		.loc 10 411 12 view .LVU147
 694 006a 8342     		cmp	r3, r0
 695 006c 00F38480 		bgt	.L33
 696              	.LVL41:
 418:../libs/PoliTeKDSP/libs/libDaisy/src/hid/disp/display.h ****         {
 697              		.loc 10 418 22 is_stmt 1 view .LVU148
 698 0070 002A     		cmp	r2, #0
 699 0072 00F09180 		beq	.L35
 420:../libs/PoliTeKDSP/libs/libDaisy/src/hid/disp/display.h ****             for(j = 0; j < font.FontWidth; j++)
 700              		.loc 10 420 37 is_stmt 0 view .LVU149
 701 0076 02FB04F4 		mul	r4, r2, r4
 702 007a 6FF00049 		mvn	r9, #-2147483648
 703 007e 059B     		ldr	r3, [sp, #20]
 704 0080 A144     		add	r9, r9, r4
 705 0082 1444     		add	r4, r4, r2
 439:../libs/PoliTeKDSP/libs/libDaisy/src/hid/disp/display.h **** 
 706              		.loc 10 439 19 view .LVU150
 707 0084 B6F804B0 		ldrh	fp, [r6, #4]
 708 0088 03EB4909 		add	r9, r3, r9, lsl #1
 709 008c 023B     		subs	r3, r3, #2
 710 008e CDF81080 		str	r8, [sp, #16]
 711 0092 03EB4403 		add	r3, r3, r4, lsl #1
 712 0096 0C46     		mov	r4, r1
 713 0098 9A46     		mov	r10, r3
 714              	.LVL42:
 715              	.L38:
 420:../libs/PoliTeKDSP/libs/libDaisy/src/hid/disp/display.h ****             for(j = 0; j < font.FontWidth; j++)
 716              		.loc 10 420 15 view .LVU151
 717 009a 39F802CF 		ldrh	ip, [r9, #2]!
 718              	.LVL43:
 421:../libs/PoliTeKDSP/libs/libDaisy/src/hid/disp/display.h ****             {
 719              		.loc 10 421 26 is_stmt 1 view .LVU152
 720 009e A5B3     		cbz	r5, .L43
 721              	.LBB643:
 722              	.LBB644:
 723              	.LBB645:
 724              	.LBB646:
 725              	.LBB647:
 368:Display/../../libs/PoliTeKDSP/libs/libDaisy/src/dev/oled_ssd130x.h ****     }
 726              		.loc 11 368 55 is_stmt 0 view .LVU153
 727 00a0 04F00703 		and	r3, r4, #7
 368:Display/../../libs/PoliTeKDSP/libs/libDaisy/src/dev/oled_ssd130x.h ****     }
 728              		.loc 11 368 49 view .LVU154
 729 00a4 4FF0010E 		mov	lr, #1
 368:Display/../../libs/PoliTeKDSP/libs/libDaisy/src/dev/oled_ssd130x.h ****     }
 730              		.loc 11 368 28 view .LVU155
 731 00a8 E208     		lsrs	r2, r4, #3
 732 00aa 5946     		mov	r1, fp
 368:Display/../../libs/PoliTeKDSP/libs/libDaisy/src/dev/oled_ssd130x.h ****     }
 733              		.loc 11 368 49 view .LVU156
 734 00ac 0EFA03FE 		lsl	lr, lr, r3
ARM GAS  C:\Users\skipi\AppData\Local\Temp\ccpgF6Mp.s 			page 39


 735 00b0 0BF11003 		add	r3, fp, #16
 368:Display/../../libs/PoliTeKDSP/libs/libDaisy/src/dev/oled_ssd130x.h ****     }
 736              		.loc 11 368 42 view .LVU157
 737 00b4 4FFA8EFE 		sxtb	lr, lr
 738 00b8 03EBC212 		add	r2, r3, r2, lsl #7
 739              	.LBE647:
 740              	.LBE646:
 741              	.LBE645:
 742              	.LBE644:
 743              	.LBE643:
 421:../libs/PoliTeKDSP/libs/libDaisy/src/hid/disp/display.h ****             {
 744              		.loc 10 421 19 view .LVU158
 745 00bc 0023     		movs	r3, #0
 746              	.LBB665:
 747              	.LBB660:
 748              	.LBB655:
 749              	.LBB651:
 750              	.LBB648:
 368:Display/../../libs/PoliTeKDSP/libs/libDaisy/src/dev/oled_ssd130x.h ****     }
 751              		.loc 11 368 42 view .LVU159
 752 00be 6FEA0E08 		mvn	r8, lr
 753 00c2 3244     		add	r2, r2, r6
 754 00c4 0DE0     		b	.L44
 755              	.LVL44:
 756              	.L68:
 368:Display/../../libs/PoliTeKDSP/libs/libDaisy/src/dev/oled_ssd130x.h ****     }
 757              		.loc 11 368 42 view .LVU160
 758              	.LBE648:
 759              	.LBE651:
 760              	.LBE655:
 761              	.LBE660:
 762              	.LBE665:
 763              	.LBB666:
 764              	.LBI666:
  42:../libs/PoliTeKDSP/libs/libDaisy/src/hid/disp/oled_display.h ****     {
 765              		.loc 9 42 10 is_stmt 1 view .LVU161
 766              	.LBB667:
 767              	.LBI667:
 361:Display/../../libs/PoliTeKDSP/libs/libDaisy/src/dev/oled_ssd130x.h ****     {
 768              		.loc 11 361 10 view .LVU162
 769              	.LBB668:
 363:Display/../../libs/PoliTeKDSP/libs/libDaisy/src/dev/oled_ssd130x.h ****             return;
 770              		.loc 11 363 9 is_stmt 0 view .LVU163
 771 00c6 7F29     		cmp	r1, #127
 772 00c8 06D8     		bhi	.L40
 773 00ca 3F2C     		cmp	r4, #63
 774 00cc 04D8     		bhi	.L40
 366:Display/../../libs/PoliTeKDSP/libs/libDaisy/src/dev/oled_ssd130x.h ****         else
 775              		.loc 11 366 42 view .LVU164
 776 00ce 1078     		ldrb	r0, [r2]	@ zero_extendqisi2
 365:Display/../../libs/PoliTeKDSP/libs/libDaisy/src/dev/oled_ssd130x.h ****             buffer_[x + (y / 8) * width] |= (1 << (y % 8));
 777              		.loc 11 365 9 view .LVU165
 778 00d0 97B1     		cbz	r7, .L42
 779              	.L65:
 365:Display/../../libs/PoliTeKDSP/libs/libDaisy/src/dev/oled_ssd130x.h ****             buffer_[x + (y / 8) * width] |= (1 << (y % 8));
 780              		.loc 11 365 9 view .LVU166
 781              	.LBE668:
ARM GAS  C:\Users\skipi\AppData\Local\Temp\ccpgF6Mp.s 			page 40


 782              	.LBE667:
 783              	.LBE666:
 784              	.LBB669:
 785              	.LBB661:
 786              	.LBB656:
 366:Display/../../libs/PoliTeKDSP/libs/libDaisy/src/dev/oled_ssd130x.h ****         else
 787              		.loc 11 366 42 view .LVU167
 788 00d2 4EEA0000 		orr	r0, lr, r0
 789 00d6 1070     		strb	r0, [r2]
 790              	.L40:
 791              	.LBE656:
 792              	.LBE661:
 793              	.LBE669:
 421:../libs/PoliTeKDSP/libs/libDaisy/src/hid/disp/display.h ****             {
 794              		.loc 10 421 13 is_stmt 1 view .LVU168
 795 00d8 0133     		adds	r3, r3, #1
 796              	.LVL45:
 421:../libs/PoliTeKDSP/libs/libDaisy/src/hid/disp/display.h ****             {
 797              		.loc 10 421 26 view .LVU169
 798 00da 0132     		adds	r2, r2, #1
 799 00dc 0131     		adds	r1, r1, #1
 800 00de AB42     		cmp	r3, r5
 801 00e0 13D0     		beq	.L43
 802              	.LVL46:
 803              	.L44:
 423:../libs/PoliTeKDSP/libs/libDaisy/src/hid/disp/display.h ****                 {
 804              		.loc 10 423 23 is_stmt 0 view .LVU170
 805 00e2 0CFA03F0 		lsl	r0, ip, r3
 423:../libs/PoliTeKDSP/libs/libDaisy/src/hid/disp/display.h ****                 {
 806              		.loc 10 423 17 view .LVU171
 807 00e6 0004     		lsls	r0, r0, #16
 808 00e8 EDD4     		bmi	.L68
 809              	.LVL47:
 810              	.LBB670:
 811              	.LBI643:
  42:../libs/PoliTeKDSP/libs/libDaisy/src/hid/disp/oled_display.h ****     {
 812              		.loc 9 42 10 is_stmt 1 view .LVU172
 813              	.LBB662:
 814              	.LBI644:
 361:Display/../../libs/PoliTeKDSP/libs/libDaisy/src/dev/oled_ssd130x.h ****     {
 815              		.loc 11 361 10 view .LVU173
 816              	.LBB657:
 363:Display/../../libs/PoliTeKDSP/libs/libDaisy/src/dev/oled_ssd130x.h ****             return;
 817              		.loc 11 363 9 is_stmt 0 view .LVU174
 818 00ea 7F29     		cmp	r1, #127
 819 00ec F4D8     		bhi	.L40
 820 00ee 3F2C     		cmp	r4, #63
 821 00f0 F2D8     		bhi	.L40
 366:Display/../../libs/PoliTeKDSP/libs/libDaisy/src/dev/oled_ssd130x.h ****         else
 822              		.loc 11 366 42 view .LVU175
 823 00f2 1078     		ldrb	r0, [r2]	@ zero_extendqisi2
 365:Display/../../libs/PoliTeKDSP/libs/libDaisy/src/dev/oled_ssd130x.h ****             buffer_[x + (y / 8) * width] |= (1 << (y % 8));
 824              		.loc 11 365 9 view .LVU176
 825 00f4 002F     		cmp	r7, #0
 826 00f6 ECD0     		beq	.L65
 827              	.L42:
 828              	.LVL48:
ARM GAS  C:\Users\skipi\AppData\Local\Temp\ccpgF6Mp.s 			page 41


 829              	.LBB652:
 830              	.LBI646:
 361:Display/../../libs/PoliTeKDSP/libs/libDaisy/src/dev/oled_ssd130x.h ****     {
 831              		.loc 11 361 10 is_stmt 1 view .LVU177
 361:Display/../../libs/PoliTeKDSP/libs/libDaisy/src/dev/oled_ssd130x.h ****     {
 832              		.loc 11 361 10 is_stmt 0 view .LVU178
 833              	.LBE652:
 834              	.LBE657:
 835              	.LBE662:
 836              	.LBE670:
 421:../libs/PoliTeKDSP/libs/libDaisy/src/hid/disp/display.h ****             {
 837              		.loc 10 421 13 view .LVU179
 838 00f8 0133     		adds	r3, r3, #1
 839              	.LVL49:
 840              	.LBB671:
 841              	.LBB663:
 842              	.LBB658:
 843              	.LBB653:
 844              	.LBB649:
 368:Display/../../libs/PoliTeKDSP/libs/libDaisy/src/dev/oled_ssd130x.h ****     }
 845              		.loc 11 368 42 view .LVU180
 846 00fa 08EA0000 		and	r0, r8, r0
 847              	.LBE649:
 848              	.LBE653:
 849              	.LBE658:
 850              	.LBE663:
 851              	.LBE671:
 421:../libs/PoliTeKDSP/libs/libDaisy/src/hid/disp/display.h ****             {
 852              		.loc 10 421 26 view .LVU181
 853 00fe 0132     		adds	r2, r2, #1
 854 0100 0131     		adds	r1, r1, #1
 855 0102 AB42     		cmp	r3, r5
 856              	.LBB672:
 857              	.LBB664:
 858              	.LBB659:
 859              	.LBB654:
 860              	.LBB650:
 368:Display/../../libs/PoliTeKDSP/libs/libDaisy/src/dev/oled_ssd130x.h ****     }
 861              		.loc 11 368 42 view .LVU182
 862 0104 02F8010C 		strb	r0, [r2, #-1]
 368:Display/../../libs/PoliTeKDSP/libs/libDaisy/src/dev/oled_ssd130x.h ****     }
 863              		.loc 11 368 42 view .LVU183
 864              	.LBE650:
 865              	.LBE654:
 866              	.LBE659:
 867              	.LBE664:
 868              	.LBE672:
 421:../libs/PoliTeKDSP/libs/libDaisy/src/hid/disp/display.h ****             {
 869              		.loc 10 421 13 is_stmt 1 view .LVU184
 870              	.LVL50:
 421:../libs/PoliTeKDSP/libs/libDaisy/src/hid/disp/display.h ****             {
 871              		.loc 10 421 26 view .LVU185
 872 0108 EBD1     		bne	.L44
 873              	.LVL51:
 874              	.L43:
 418:../libs/PoliTeKDSP/libs/libDaisy/src/hid/disp/display.h ****         {
 875              		.loc 10 418 9 view .LVU186
ARM GAS  C:\Users\skipi\AppData\Local\Temp\ccpgF6Mp.s 			page 42


 418:../libs/PoliTeKDSP/libs/libDaisy/src/hid/disp/display.h ****         {
 876              		.loc 10 418 22 view .LVU187
 877 010a D145     		cmp	r9, r10
 878 010c 04F10104 		add	r4, r4, #1
 879 0110 C3D1     		bne	.L38
 880 0112 DDF81080 		ldr	r8, [sp, #16]
 881              	.LVL52:
 882              	.L37:
 883              	.LBB673:
 884              	.LBB674:
 173:../libs/PoliTeKDSP/libs/libDaisy/src/hid/disp/display.h ****         currentY_ = (y >= Height()) ? Height() - 1 : y;
 885              		.loc 10 173 33 is_stmt 0 view .LVU188
 886 0116 3268     		ldr	r2, [r6]
 887              	.LBE674:
 888              	.LBE673:
 439:../libs/PoliTeKDSP/libs/libDaisy/src/hid/disp/display.h **** 
 889              		.loc 10 439 18 view .LVU189
 890 0118 0BEB0504 		add	r4, fp, r5
 891 011c 2649     		ldr	r1, .L73
 892              	.LBB679:
 893              	.LBB675:
 173:../libs/PoliTeKDSP/libs/libDaisy/src/hid/disp/display.h ****         currentY_ = (y >= Height()) ? Height() - 1 : y;
 894              		.loc 10 173 33 view .LVU190
 895 011e D368     		ldr	r3, [r2, #12]
 896              	.LBE675:
 897              	.LBE679:
 439:../libs/PoliTeKDSP/libs/libDaisy/src/hid/disp/display.h **** 
 898              		.loc 10 439 18 view .LVU191
 899 0120 A4B2     		uxth	r4, r4
 900              	.LVL53:
 901              	.LBB680:
 902              	.LBI673:
 171:../libs/PoliTeKDSP/libs/libDaisy/src/hid/disp/display.h ****     {
 903              		.loc 10 171 10 is_stmt 1 view .LVU192
 904              	.LBB676:
 173:../libs/PoliTeKDSP/libs/libDaisy/src/hid/disp/display.h ****         currentY_ = (y >= Height()) ? Height() - 1 : y;
 905              		.loc 10 173 9 view .LVU193
 906 0122 8B42     		cmp	r3, r1
 907 0124 34D1     		bne	.L69
 173:../libs/PoliTeKDSP/libs/libDaisy/src/hid/disp/display.h ****         currentY_ = (y >= Height()) ? Height() - 1 : y;
 908              		.loc 10 173 33 is_stmt 0 view .LVU194
 909 0126 8020     		movs	r0, #128
 910              	.L45:
 173:../libs/PoliTeKDSP/libs/libDaisy/src/hid/disp/display.h ****         currentY_ = (y >= Height()) ? Height() - 1 : y;
 911              		.loc 10 173 19 view .LVU195
 912 0128 8442     		cmp	r4, r0
 913 012a 04D3     		bcc	.L46
 173:../libs/PoliTeKDSP/libs/libDaisy/src/hid/disp/display.h ****         currentY_ = (y >= Height()) ? Height() - 1 : y;
 914              		.loc 10 173 44 view .LVU196
 915 012c D368     		ldr	r3, [r2, #12]
 916 012e 2249     		ldr	r1, .L73
 917 0130 8B42     		cmp	r3, r1
 918 0132 3AD1     		bne	.L70
 919 0134 7F24     		movs	r4, #127
 920              	.LVL54:
 921              	.L46:
 174:../libs/PoliTeKDSP/libs/libDaisy/src/hid/disp/display.h ****     }
ARM GAS  C:\Users\skipi\AppData\Local\Temp\ccpgF6Mp.s 			page 43


 922              		.loc 10 174 34 view .LVU197
 923 0136 9368     		ldr	r3, [r2, #8]
 924 0138 204A     		ldr	r2, .L73+4
 173:../libs/PoliTeKDSP/libs/libDaisy/src/hid/disp/display.h ****         currentY_ = (y >= Height()) ? Height() - 1 : y;
 925              		.loc 10 173 19 view .LVU198
 926 013a B480     		strh	r4, [r6, #4]	@ movhi
 174:../libs/PoliTeKDSP/libs/libDaisy/src/hid/disp/display.h ****     }
 927              		.loc 10 174 9 is_stmt 1 view .LVU199
 928 013c 9342     		cmp	r3, r2
 929 013e 24D1     		bne	.L71
 174:../libs/PoliTeKDSP/libs/libDaisy/src/hid/disp/display.h ****     }
 930              		.loc 10 174 34 is_stmt 0 view .LVU200
 931 0140 4020     		movs	r0, #64
 932              	.L48:
 174:../libs/PoliTeKDSP/libs/libDaisy/src/hid/disp/display.h ****     }
 933              		.loc 10 174 19 view .LVU201
 934 0142 029B     		ldr	r3, [sp, #8]
 935 0144 8342     		cmp	r3, r0
 936 0146 06D3     		bcc	.L49
 174:../libs/PoliTeKDSP/libs/libDaisy/src/hid/disp/display.h ****     }
 937              		.loc 10 174 46 view .LVU202
 938 0148 3368     		ldr	r3, [r6]
 939 014a 1C4A     		ldr	r2, .L73+4
 940 014c 9B68     		ldr	r3, [r3, #8]
 941 014e 9342     		cmp	r3, r2
 942 0150 25D1     		bne	.L72
 943 0152 3F23     		movs	r3, #63
 944 0154 0293     		str	r3, [sp, #8]
 945              	.LVL55:
 946              	.L49:
 174:../libs/PoliTeKDSP/libs/libDaisy/src/hid/disp/display.h ****     }
 947              		.loc 10 174 19 view .LVU203
 948 0156 029B     		ldr	r3, [sp, #8]
 949 0158 F380     		strh	r3, [r6, #6]	@ movhi
 950              	.LVL56:
 951              	.L31:
 174:../libs/PoliTeKDSP/libs/libDaisy/src/hid/disp/display.h ****     }
 952              		.loc 10 174 19 view .LVU204
 953              	.LBE676:
 954              	.LBE680:
 955              	.LBE642:
 956              	.LBE641:
 449:../libs/PoliTeKDSP/libs/libDaisy/src/hid/disp/display.h ****         {
 450:../libs/PoliTeKDSP/libs/libDaisy/src/hid/disp/display.h ****             if(((ChildType*)(this))->ChildType::WriteChar(*str, font, on)
 451:../libs/PoliTeKDSP/libs/libDaisy/src/hid/disp/display.h ****                != *str)
 957              		.loc 10 451 16 view .LVU205
 958 015a 019B     		ldr	r3, [sp, #4]
 959 015c 1878     		ldrb	r0, [r3]	@ zero_extendqisi2
 450:../libs/PoliTeKDSP/libs/libDaisy/src/hid/disp/display.h ****                != *str)
 960              		.loc 10 450 13 view .LVU206
 961 015e 4045     		cmp	r0, r8
 962 0160 07D1     		bne	.L29
 963              	.LVL57:
 448:../libs/PoliTeKDSP/libs/libDaisy/src/hid/disp/display.h ****         {
 964              		.loc 10 448 9 is_stmt 1 view .LVU207
 965 0162 13F8018F 		ldrb	r8, [r3, #1]!	@ zero_extendqisi2
 966              	.LVL58:
ARM GAS  C:\Users\skipi\AppData\Local\Temp\ccpgF6Mp.s 			page 44


 448:../libs/PoliTeKDSP/libs/libDaisy/src/hid/disp/display.h ****         {
 967              		.loc 10 448 9 is_stmt 0 view .LVU208
 968 0166 0193     		str	r3, [sp, #4]
 969 0168 B8F1000F 		cmp	r8, #0
 970 016c 7FF460AF 		bne	.L52
 971              	.LVL59:
 972              	.L51:
 973              	.LBB685:
 974              	.LBB683:
 407:../libs/PoliTeKDSP/libs/libDaisy/src/hid/disp/display.h **** 
 975              		.loc 10 407 20 view .LVU209
 976 0170 0020     		movs	r0, #0
 977              	.L29:
 978              	.LBE683:
 979              	.LBE685:
 452:../libs/PoliTeKDSP/libs/libDaisy/src/hid/disp/display.h ****             {
 453:../libs/PoliTeKDSP/libs/libDaisy/src/hid/disp/display.h ****                 // Char could not be written
 454:../libs/PoliTeKDSP/libs/libDaisy/src/hid/disp/display.h ****                 return *str;
 455:../libs/PoliTeKDSP/libs/libDaisy/src/hid/disp/display.h ****             }
 456:../libs/PoliTeKDSP/libs/libDaisy/src/hid/disp/display.h **** 
 457:../libs/PoliTeKDSP/libs/libDaisy/src/hid/disp/display.h ****             // Next char
 458:../libs/PoliTeKDSP/libs/libDaisy/src/hid/disp/display.h ****             str++;
 459:../libs/PoliTeKDSP/libs/libDaisy/src/hid/disp/display.h ****         }
 460:../libs/PoliTeKDSP/libs/libDaisy/src/hid/disp/display.h **** 
 461:../libs/PoliTeKDSP/libs/libDaisy/src/hid/disp/display.h ****         // Everything ok
 462:../libs/PoliTeKDSP/libs/libDaisy/src/hid/disp/display.h ****         return *str;
 463:../libs/PoliTeKDSP/libs/libDaisy/src/hid/disp/display.h ****     }
 980              		.loc 10 463 5 view .LVU210
 981 0172 09B0     		add	sp, sp, #36
 982              		.cfi_remember_state
 983              		.cfi_def_cfa_offset 36
 984              		@ sp needed
 985 0174 BDE8F08F 		pop	{r4, r5, r6, r7, r8, r9, r10, fp, pc}
 986              	.LVL60:
 987              	.L33:
 988              		.cfi_restore_state
 989              	.LBB686:
 990              	.LBB684:
 407:../libs/PoliTeKDSP/libs/libDaisy/src/hid/disp/display.h **** 
 991              		.loc 10 407 20 view .LVU211
 992 0178 4FF00008 		mov	r8, #0
 993              	.LVL61:
 407:../libs/PoliTeKDSP/libs/libDaisy/src/hid/disp/display.h **** 
 994              		.loc 10 407 20 view .LVU212
 995 017c EDE7     		b	.L31
 996              	.LVL62:
 997              	.L66:
 410:../libs/PoliTeKDSP/libs/libDaisy/src/hid/disp/display.h ****            || Height() < (currentY_ + font.FontHeight))
 998              		.loc 10 410 17 view .LVU213
 999 017e 3046     		mov	r0, r6
 1000 0180 9847     		blx	r3
 1001              	.LVL63:
 1002 0182 62E7     		b	.L32
 1003              	.L67:
 411:../libs/PoliTeKDSP/libs/libDaisy/src/hid/disp/display.h ****         {
 1004              		.loc 10 411 21 view .LVU214
 1005 0184 3046     		mov	r0, r6
ARM GAS  C:\Users\skipi\AppData\Local\Temp\ccpgF6Mp.s 			page 45


 1006 0186 9847     		blx	r3
 1007              	.LVL64:
 1008 0188 6BE7     		b	.L34
 1009              	.LVL65:
 1010              	.L71:
 1011              	.LBB681:
 1012              	.LBB677:
 174:../libs/PoliTeKDSP/libs/libDaisy/src/hid/disp/display.h ****     }
 1013              		.loc 10 174 33 view .LVU215
 1014 018a 3046     		mov	r0, r6
 1015 018c 9847     		blx	r3
 1016              	.LVL66:
 1017 018e D8E7     		b	.L48
 1018              	.LVL67:
 1019              	.L69:
 173:../libs/PoliTeKDSP/libs/libDaisy/src/hid/disp/display.h ****         currentY_ = (y >= Height()) ? Height() - 1 : y;
 1020              		.loc 10 173 32 view .LVU216
 1021 0190 3046     		mov	r0, r6
 1022 0192 9847     		blx	r3
 1023              	.LVL68:
 173:../libs/PoliTeKDSP/libs/libDaisy/src/hid/disp/display.h ****         currentY_ = (y >= Height()) ? Height() - 1 : y;
 1024              		.loc 10 173 44 view .LVU217
 1025 0194 3268     		ldr	r2, [r6]
 1026 0196 C7E7     		b	.L45
 1027              	.LVL69:
 1028              	.L35:
 173:../libs/PoliTeKDSP/libs/libDaisy/src/hid/disp/display.h ****         currentY_ = (y >= Height()) ? Height() - 1 : y;
 1029              		.loc 10 173 44 view .LVU218
 1030              	.LBE677:
 1031              	.LBE681:
 439:../libs/PoliTeKDSP/libs/libDaisy/src/hid/disp/display.h **** 
 1032              		.loc 10 439 19 view .LVU219
 1033 0198 B6F804B0 		ldrh	fp, [r6, #4]
 1034 019c BBE7     		b	.L37
 1035              	.LVL70:
 1036              	.L72:
 1037              	.LBB682:
 1038              	.LBB678:
 174:../libs/PoliTeKDSP/libs/libDaisy/src/hid/disp/display.h ****     }
 1039              		.loc 10 174 45 view .LVU220
 1040 019e 3046     		mov	r0, r6
 1041 01a0 9847     		blx	r3
 1042              	.LVL71:
 174:../libs/PoliTeKDSP/libs/libDaisy/src/hid/disp/display.h ****     }
 1043              		.loc 10 174 19 view .LVU221
 1044 01a2 0138     		subs	r0, r0, #1
 1045 01a4 83B2     		uxth	r3, r0
 1046 01a6 0293     		str	r3, [sp, #8]
 1047              	.LVL72:
 174:../libs/PoliTeKDSP/libs/libDaisy/src/hid/disp/display.h ****     }
 1048              		.loc 10 174 19 view .LVU222
 1049 01a8 D5E7     		b	.L49
 1050              	.LVL73:
 1051              	.L70:
 173:../libs/PoliTeKDSP/libs/libDaisy/src/hid/disp/display.h ****         currentY_ = (y >= Height()) ? Height() - 1 : y;
 1052              		.loc 10 173 43 view .LVU223
 1053 01aa 3046     		mov	r0, r6
ARM GAS  C:\Users\skipi\AppData\Local\Temp\ccpgF6Mp.s 			page 46


 1054 01ac 9847     		blx	r3
 1055              	.LVL74:
 173:../libs/PoliTeKDSP/libs/libDaisy/src/hid/disp/display.h ****         currentY_ = (y >= Height()) ? Height() - 1 : y;
 1056              		.loc 10 173 19 view .LVU224
 1057 01ae 0138     		subs	r0, r0, #1
 174:../libs/PoliTeKDSP/libs/libDaisy/src/hid/disp/display.h ****     }
 1058              		.loc 10 174 34 view .LVU225
 1059 01b0 3268     		ldr	r2, [r6]
 173:../libs/PoliTeKDSP/libs/libDaisy/src/hid/disp/display.h ****         currentY_ = (y >= Height()) ? Height() - 1 : y;
 1060              		.loc 10 173 19 view .LVU226
 1061 01b2 84B2     		uxth	r4, r0
 1062              	.LVL75:
 173:../libs/PoliTeKDSP/libs/libDaisy/src/hid/disp/display.h ****         currentY_ = (y >= Height()) ? Height() - 1 : y;
 1063              		.loc 10 173 19 view .LVU227
 1064 01b4 BFE7     		b	.L46
 1065              	.L74:
 1066 01b6 00BF     		.align	2
 1067              	.L73:
 1068 01b8 00000000 		.word	_ZNK5daisy11OledDisplayINS_13SSD130xDriverILj128ELj64ENS_19SSD130xI2CTransportEEEE5WidthEv
 1069 01bc 00000000 		.word	_ZNK5daisy11OledDisplayINS_13SSD130xDriverILj128ELj64ENS_19SSD130xI2CTransportEEEE6HeightEv
 1070              	.LBE678:
 1071              	.LBE682:
 1072              	.LBE684:
 1073              	.LBE686:
 1074              		.cfi_endproc
 1075              	.LFE5723:
 1077              		.section	.text._ZN5daisy25OneBitGraphicsDisplayImplINS_11OledDisplayINS_13SSD130xDriverILj128ELj64
 1078              		.align	1
 1079              		.p2align 2,,3
 1080              		.weak	_ZN5daisy25OneBitGraphicsDisplayImplINS_11OledDisplayINS_13SSD130xDriverILj128ELj64ENS_19SSD
 1081              		.syntax unified
 1082              		.thumb
 1083              		.thumb_func
 1084              		.fpu fpv5-d16
 1086              	_ZN5daisy25OneBitGraphicsDisplayImplINS_11OledDisplayINS_13SSD130xDriverILj128ELj64ENS_19SSD130xI2C
 1087              	.LVL76:
 1088              	.LFB5722:
 401:../libs/PoliTeKDSP/libs/libDaisy/src/hid/disp/display.h ****     {
 1089              		.loc 10 401 10 is_stmt 1 view -0
 1090              		.cfi_startproc
 1091              		@ args = 4, pretend = 0, frame = 16
 1092              		@ frame_needed = 0, uses_anonymous_args = 0
 401:../libs/PoliTeKDSP/libs/libDaisy/src/hid/disp/display.h ****     {
 1093              		.loc 10 401 10 is_stmt 0 view .LVU229
 1094 0000 2DE9F04F 		push	{r4, r5, r6, r7, r8, r9, r10, fp, lr}
 1095              		.cfi_def_cfa_offset 36
 1096              		.cfi_offset 4, -36
 1097              		.cfi_offset 5, -32
 1098              		.cfi_offset 6, -28
 1099              		.cfi_offset 7, -24
 1100              		.cfi_offset 8, -20
 1101              		.cfi_offset 9, -16
 1102              		.cfi_offset 10, -12
 1103              		.cfi_offset 11, -8
 1104              		.cfi_offset 14, -4
 1105 0004 85B0     		sub	sp, sp, #20
 1106              		.cfi_def_cfa_offset 56
ARM GAS  C:\Users\skipi\AppData\Local\Temp\ccpgF6Mp.s 			page 47


 1107              	.LVL77:
 406:../libs/PoliTeKDSP/libs/libDaisy/src/hid/disp/display.h ****             return 0;
 1108              		.loc 10 406 20 view .LVU230
 1109 0006 A1F12005 		sub	r5, r1, #32
 401:../libs/PoliTeKDSP/libs/libDaisy/src/hid/disp/display.h ****     {
 1110              		.loc 10 401 10 view .LVU231
 1111 000a 04AC     		add	r4, sp, #16
 1112 000c 9DF83870 		ldrb	r7, [sp, #56]	@ zero_extendqisi2
 1113 0010 0091     		str	r1, [sp]
 1114 0012 04E90C00 		stmdb	r4, {r2, r3}
 1115              	.LVL78:
 406:../libs/PoliTeKDSP/libs/libDaisy/src/hid/disp/display.h ****             return 0;
 1116              		.loc 10 406 9 view .LVU232
 1117 0016 EBB2     		uxtb	r3, r5
 1118 0018 5E2B     		cmp	r3, #94
 1119 001a 00F29580 		bhi	.L79
 410:../libs/PoliTeKDSP/libs/libDaisy/src/hid/disp/display.h ****            || Height() < (currentY_ + font.FontHeight))
 1120              		.loc 10 410 17 view .LVU233
 1121 001e 0368     		ldr	r3, [r0]
 1122 0020 8046     		mov	r8, r0
 1123 0022 5D4A     		ldr	r2, .L114
 1124 0024 DB68     		ldr	r3, [r3, #12]
 1125 0026 9DF80840 		ldrb	r4, [sp, #8]	@ zero_extendqisi2
 1126 002a 9342     		cmp	r3, r2
 1127 002c 9DF80960 		ldrb	r6, [sp, #9]	@ zero_extendqisi2
 1128 0030 40F09480 		bne	.L106
 1129 0034 8020     		movs	r0, #128
 1130              	.LVL79:
 1131              	.L78:
 410:../libs/PoliTeKDSP/libs/libDaisy/src/hid/disp/display.h ****            || Height() < (currentY_ + font.FontHeight))
 1132              		.loc 10 410 23 view .LVU234
 1133 0036 B8F80430 		ldrh	r3, [r8, #4]
 410:../libs/PoliTeKDSP/libs/libDaisy/src/hid/disp/display.h ****            || Height() < (currentY_ + font.FontHeight))
 1134              		.loc 10 410 33 view .LVU235
 1135 003a 2344     		add	r3, r3, r4
 411:../libs/PoliTeKDSP/libs/libDaisy/src/hid/disp/display.h ****         {
 1136              		.loc 10 411 12 view .LVU236
 1137 003c 8342     		cmp	r3, r0
 1138 003e 00F38380 		bgt	.L79
 411:../libs/PoliTeKDSP/libs/libDaisy/src/hid/disp/display.h ****         {
 1139              		.loc 10 411 21 discriminator 2 view .LVU237
 1140 0042 D8F80030 		ldr	r3, [r8]
 1141 0046 554A     		ldr	r2, .L114+4
 1142 0048 9B68     		ldr	r3, [r3, #8]
 1143 004a 9342     		cmp	r3, r2
 1144 004c 40F08880 		bne	.L107
 411:../libs/PoliTeKDSP/libs/libDaisy/src/hid/disp/display.h ****         {
 1145              		.loc 10 411 21 view .LVU238
 1146 0050 4020     		movs	r0, #64
 1147              	.L80:
 411:../libs/PoliTeKDSP/libs/libDaisy/src/hid/disp/display.h ****         {
 1148              		.loc 10 411 27 discriminator 2 view .LVU239
 1149 0052 B8F80620 		ldrh	r2, [r8, #6]
 411:../libs/PoliTeKDSP/libs/libDaisy/src/hid/disp/display.h ****         {
 1150              		.loc 10 411 37 discriminator 2 view .LVU240
 1151 0056 9319     		adds	r3, r2, r6
 411:../libs/PoliTeKDSP/libs/libDaisy/src/hid/disp/display.h ****         {
ARM GAS  C:\Users\skipi\AppData\Local\Temp\ccpgF6Mp.s 			page 48


 1152              		.loc 10 411 27 discriminator 2 view .LVU241
 1153 0058 0192     		str	r2, [sp, #4]
 411:../libs/PoliTeKDSP/libs/libDaisy/src/hid/disp/display.h ****         {
 1154              		.loc 10 411 12 discriminator 2 view .LVU242
 1155 005a 8342     		cmp	r3, r0
 1156 005c 74DC     		bgt	.L79
 1157              	.LVL80:
 418:../libs/PoliTeKDSP/libs/libDaisy/src/hid/disp/display.h ****         {
 1158              		.loc 10 418 22 is_stmt 1 view .LVU243
 1159 005e 002E     		cmp	r6, #0
 1160 0060 00F08980 		beq	.L81
 420:../libs/PoliTeKDSP/libs/libDaisy/src/hid/disp/display.h ****             for(j = 0; j < font.FontWidth; j++)
 1161              		.loc 10 420 37 is_stmt 0 view .LVU244
 1162 0064 06FB05F5 		mul	r5, r6, r5
 1163 0068 6FF00040 		mvn	r0, #-2147483648
 420:../libs/PoliTeKDSP/libs/libDaisy/src/hid/disp/display.h ****             for(j = 0; j < font.FontWidth; j++)
 1164              		.loc 10 420 22 view .LVU245
 1165 006c 039B     		ldr	r3, [sp, #12]
 1166 006e 9646     		mov	lr, r2
 1167 0070 2844     		add	r0, r0, r5
 1168 0072 2E44     		add	r6, r6, r5
 439:../libs/PoliTeKDSP/libs/libDaisy/src/hid/disp/display.h **** 
 1169              		.loc 10 439 19 view .LVU246
 1170 0074 B8F804A0 		ldrh	r10, [r8, #4]
 1171 0078 03EB4000 		add	r0, r3, r0, lsl #1
 1172 007c 023B     		subs	r3, r3, #2
 1173 007e 03EB460B 		add	fp, r3, r6, lsl #1
 1174              	.LVL81:
 1175              	.L84:
 420:../libs/PoliTeKDSP/libs/libDaisy/src/hid/disp/display.h ****             for(j = 0; j < font.FontWidth; j++)
 1176              		.loc 10 420 15 view .LVU247
 1177 0082 30F8026F 		ldrh	r6, [r0, #2]!
 1178              	.LVL82:
 421:../libs/PoliTeKDSP/libs/libDaisy/src/hid/disp/display.h ****             {
 1179              		.loc 10 421 26 is_stmt 1 view .LVU248
 1180 0086 BCB3     		cbz	r4, .L89
 1181              	.LBB717:
 1182              	.LBB718:
 1183              	.LBB719:
 1184              	.LBB720:
 1185              	.LBB721:
 368:Display/../../libs/PoliTeKDSP/libs/libDaisy/src/dev/oled_ssd130x.h ****     }
 1186              		.loc 11 368 55 is_stmt 0 view .LVU249
 1187 0088 0EF00703 		and	r3, lr, #7
 368:Display/../../libs/PoliTeKDSP/libs/libDaisy/src/dev/oled_ssd130x.h ****     }
 1188              		.loc 11 368 49 view .LVU250
 1189 008c 4FF0010C 		mov	ip, #1
 368:Display/../../libs/PoliTeKDSP/libs/libDaisy/src/dev/oled_ssd130x.h ****     }
 1190              		.loc 11 368 28 view .LVU251
 1191 0090 4FEADE02 		lsr	r2, lr, #3
 1192 0094 5146     		mov	r1, r10
 368:Display/../../libs/PoliTeKDSP/libs/libDaisy/src/dev/oled_ssd130x.h ****     }
 1193              		.loc 11 368 49 view .LVU252
 1194 0096 0CFA03FC 		lsl	ip, ip, r3
 1195 009a 0AF11003 		add	r3, r10, #16
 368:Display/../../libs/PoliTeKDSP/libs/libDaisy/src/dev/oled_ssd130x.h ****     }
 1196              		.loc 11 368 42 view .LVU253
ARM GAS  C:\Users\skipi\AppData\Local\Temp\ccpgF6Mp.s 			page 49


 1197 009e 4FFA8CFC 		sxtb	ip, ip
 1198 00a2 03EBC212 		add	r2, r3, r2, lsl #7
 1199              	.LBE721:
 1200              	.LBE720:
 1201              	.LBE719:
 1202              	.LBE718:
 1203              	.LBE717:
 421:../libs/PoliTeKDSP/libs/libDaisy/src/hid/disp/display.h ****             {
 1204              		.loc 10 421 19 view .LVU254
 1205 00a6 0023     		movs	r3, #0
 1206              	.LBB739:
 1207              	.LBB734:
 1208              	.LBB729:
 1209              	.LBB725:
 1210              	.LBB722:
 368:Display/../../libs/PoliTeKDSP/libs/libDaisy/src/dev/oled_ssd130x.h ****     }
 1211              		.loc 11 368 42 view .LVU255
 1212 00a8 6FEA0C09 		mvn	r9, ip
 1213 00ac 4244     		add	r2, r2, r8
 1214 00ae 0EE0     		b	.L90
 1215              	.LVL83:
 1216              	.L108:
 368:Display/../../libs/PoliTeKDSP/libs/libDaisy/src/dev/oled_ssd130x.h ****     }
 1217              		.loc 11 368 42 view .LVU256
 1218              	.LBE722:
 1219              	.LBE725:
 1220              	.LBE729:
 1221              	.LBE734:
 1222              	.LBE739:
 1223              	.LBB740:
 1224              	.LBI740:
  42:../libs/PoliTeKDSP/libs/libDaisy/src/hid/disp/oled_display.h ****     {
 1225              		.loc 9 42 10 is_stmt 1 view .LVU257
 1226              	.LBB741:
 1227              	.LBI741:
 361:Display/../../libs/PoliTeKDSP/libs/libDaisy/src/dev/oled_ssd130x.h ****     {
 1228              		.loc 11 361 10 view .LVU258
 1229              	.LBB742:
 363:Display/../../libs/PoliTeKDSP/libs/libDaisy/src/dev/oled_ssd130x.h ****             return;
 1230              		.loc 11 363 9 is_stmt 0 view .LVU259
 1231 00b0 7F29     		cmp	r1, #127
 1232 00b2 07D8     		bhi	.L86
 1233 00b4 BEF13F0F 		cmp	lr, #63
 1234 00b8 04D8     		bhi	.L86
 366:Display/../../libs/PoliTeKDSP/libs/libDaisy/src/dev/oled_ssd130x.h ****         else
 1235              		.loc 11 366 42 view .LVU260
 1236 00ba 1578     		ldrb	r5, [r2]	@ zero_extendqisi2
 365:Display/../../libs/PoliTeKDSP/libs/libDaisy/src/dev/oled_ssd130x.h ****             buffer_[x + (y / 8) * width] |= (1 << (y % 8));
 1237              		.loc 11 365 9 view .LVU261
 1238 00bc 9FB1     		cbz	r7, .L88
 1239              	.L105:
 365:Display/../../libs/PoliTeKDSP/libs/libDaisy/src/dev/oled_ssd130x.h ****             buffer_[x + (y / 8) * width] |= (1 << (y % 8));
 1240              		.loc 11 365 9 view .LVU262
 1241              	.LBE742:
 1242              	.LBE741:
 1243              	.LBE740:
 1244              	.LBB743:
ARM GAS  C:\Users\skipi\AppData\Local\Temp\ccpgF6Mp.s 			page 50


 1245              	.LBB735:
 1246              	.LBB730:
 366:Display/../../libs/PoliTeKDSP/libs/libDaisy/src/dev/oled_ssd130x.h ****         else
 1247              		.loc 11 366 42 view .LVU263
 1248 00be 4CEA0505 		orr	r5, ip, r5
 1249 00c2 1570     		strb	r5, [r2]
 1250              	.L86:
 1251              	.LBE730:
 1252              	.LBE735:
 1253              	.LBE743:
 421:../libs/PoliTeKDSP/libs/libDaisy/src/hid/disp/display.h ****             {
 1254              		.loc 10 421 13 is_stmt 1 discriminator 2 view .LVU264
 1255 00c4 0133     		adds	r3, r3, #1
 1256              	.LVL84:
 421:../libs/PoliTeKDSP/libs/libDaisy/src/hid/disp/display.h ****             {
 1257              		.loc 10 421 26 discriminator 2 view .LVU265
 1258 00c6 0132     		adds	r2, r2, #1
 1259 00c8 0131     		adds	r1, r1, #1
 1260 00ca 9C42     		cmp	r4, r3
 1261 00cc 14D0     		beq	.L89
 1262              	.LVL85:
 1263              	.L90:
 423:../libs/PoliTeKDSP/libs/libDaisy/src/hid/disp/display.h ****                 {
 1264              		.loc 10 423 23 is_stmt 0 view .LVU266
 1265 00ce 06FA03F5 		lsl	r5, r6, r3
 423:../libs/PoliTeKDSP/libs/libDaisy/src/hid/disp/display.h ****                 {
 1266              		.loc 10 423 17 view .LVU267
 1267 00d2 2D04     		lsls	r5, r5, #16
 1268 00d4 ECD4     		bmi	.L108
 1269              	.LVL86:
 1270              	.LBB744:
 1271              	.LBI717:
  42:../libs/PoliTeKDSP/libs/libDaisy/src/hid/disp/oled_display.h ****     {
 1272              		.loc 9 42 10 is_stmt 1 view .LVU268
 1273              	.LBB736:
 1274              	.LBI718:
 361:Display/../../libs/PoliTeKDSP/libs/libDaisy/src/dev/oled_ssd130x.h ****     {
 1275              		.loc 11 361 10 view .LVU269
 1276              	.LBB731:
 363:Display/../../libs/PoliTeKDSP/libs/libDaisy/src/dev/oled_ssd130x.h ****             return;
 1277              		.loc 11 363 9 is_stmt 0 view .LVU270
 1278 00d6 7F29     		cmp	r1, #127
 1279 00d8 F4D8     		bhi	.L86
 1280 00da BEF13F0F 		cmp	lr, #63
 1281 00de F1D8     		bhi	.L86
 366:Display/../../libs/PoliTeKDSP/libs/libDaisy/src/dev/oled_ssd130x.h ****         else
 1282              		.loc 11 366 42 view .LVU271
 1283 00e0 1578     		ldrb	r5, [r2]	@ zero_extendqisi2
 365:Display/../../libs/PoliTeKDSP/libs/libDaisy/src/dev/oled_ssd130x.h ****             buffer_[x + (y / 8) * width] |= (1 << (y % 8));
 1284              		.loc 11 365 9 view .LVU272
 1285 00e2 002F     		cmp	r7, #0
 1286 00e4 EBD0     		beq	.L105
 1287              	.L88:
 1288              	.LVL87:
 1289              	.LBB726:
 1290              	.LBI720:
 361:Display/../../libs/PoliTeKDSP/libs/libDaisy/src/dev/oled_ssd130x.h ****     {
ARM GAS  C:\Users\skipi\AppData\Local\Temp\ccpgF6Mp.s 			page 51


 1291              		.loc 11 361 10 is_stmt 1 view .LVU273
 361:Display/../../libs/PoliTeKDSP/libs/libDaisy/src/dev/oled_ssd130x.h ****     {
 1292              		.loc 11 361 10 is_stmt 0 view .LVU274
 1293              	.LBE726:
 1294              	.LBE731:
 1295              	.LBE736:
 1296              	.LBE744:
 421:../libs/PoliTeKDSP/libs/libDaisy/src/hid/disp/display.h ****             {
 1297              		.loc 10 421 13 view .LVU275
 1298 00e6 0133     		adds	r3, r3, #1
 1299              	.LVL88:
 1300              	.LBB745:
 1301              	.LBB737:
 1302              	.LBB732:
 1303              	.LBB727:
 1304              	.LBB723:
 368:Display/../../libs/PoliTeKDSP/libs/libDaisy/src/dev/oled_ssd130x.h ****     }
 1305              		.loc 11 368 42 view .LVU276
 1306 00e8 09EA0505 		and	r5, r9, r5
 1307              	.LBE723:
 1308              	.LBE727:
 1309              	.LBE732:
 1310              	.LBE737:
 1311              	.LBE745:
 421:../libs/PoliTeKDSP/libs/libDaisy/src/hid/disp/display.h ****             {
 1312              		.loc 10 421 26 view .LVU277
 1313 00ec 0132     		adds	r2, r2, #1
 1314 00ee 0131     		adds	r1, r1, #1
 1315 00f0 9C42     		cmp	r4, r3
 1316              	.LBB746:
 1317              	.LBB738:
 1318              	.LBB733:
 1319              	.LBB728:
 1320              	.LBB724:
 368:Display/../../libs/PoliTeKDSP/libs/libDaisy/src/dev/oled_ssd130x.h ****     }
 1321              		.loc 11 368 42 view .LVU278
 1322 00f2 02F8015C 		strb	r5, [r2, #-1]
 368:Display/../../libs/PoliTeKDSP/libs/libDaisy/src/dev/oled_ssd130x.h ****     }
 1323              		.loc 11 368 42 view .LVU279
 1324              	.LBE724:
 1325              	.LBE728:
 1326              	.LBE733:
 1327              	.LBE738:
 1328              	.LBE746:
 421:../libs/PoliTeKDSP/libs/libDaisy/src/hid/disp/display.h ****             {
 1329              		.loc 10 421 13 is_stmt 1 view .LVU280
 1330              	.LVL89:
 421:../libs/PoliTeKDSP/libs/libDaisy/src/hid/disp/display.h ****             {
 1331              		.loc 10 421 26 view .LVU281
 1332 00f6 EAD1     		bne	.L90
 1333              	.LVL90:
 1334              	.L89:
 418:../libs/PoliTeKDSP/libs/libDaisy/src/hid/disp/display.h ****         {
 1335              		.loc 10 418 9 view .LVU282
 418:../libs/PoliTeKDSP/libs/libDaisy/src/hid/disp/display.h ****         {
 1336              		.loc 10 418 22 view .LVU283
 1337 00f8 5845     		cmp	r0, fp
ARM GAS  C:\Users\skipi\AppData\Local\Temp\ccpgF6Mp.s 			page 52


 1338 00fa 0EF1010E 		add	lr, lr, #1
 1339 00fe C0D1     		bne	.L84
 1340              	.LVL91:
 1341              	.L83:
 1342              	.LBB747:
 1343              	.LBB748:
 173:../libs/PoliTeKDSP/libs/libDaisy/src/hid/disp/display.h ****         currentY_ = (y >= Height()) ? Height() - 1 : y;
 1344              		.loc 10 173 33 is_stmt 0 view .LVU284
 1345 0100 D8F80030 		ldr	r3, [r8]
 1346              	.LBE748:
 1347              	.LBE747:
 439:../libs/PoliTeKDSP/libs/libDaisy/src/hid/disp/display.h **** 
 1348              		.loc 10 439 18 view .LVU285
 1349 0104 5444     		add	r4, r4, r10
 1350 0106 2449     		ldr	r1, .L114
 1351              	.LBB754:
 1352              	.LBB749:
 173:../libs/PoliTeKDSP/libs/libDaisy/src/hid/disp/display.h ****         currentY_ = (y >= Height()) ? Height() - 1 : y;
 1353              		.loc 10 173 33 view .LVU286
 1354 0108 DA68     		ldr	r2, [r3, #12]
 1355              	.LBE749:
 1356              	.LBE754:
 439:../libs/PoliTeKDSP/libs/libDaisy/src/hid/disp/display.h **** 
 1357              		.loc 10 439 18 view .LVU287
 1358 010a A4B2     		uxth	r4, r4
 1359              	.LVL92:
 1360              	.LBB755:
 1361              	.LBI747:
 171:../libs/PoliTeKDSP/libs/libDaisy/src/hid/disp/display.h ****     {
 1362              		.loc 10 171 10 is_stmt 1 view .LVU288
 1363              	.LBB750:
 173:../libs/PoliTeKDSP/libs/libDaisy/src/hid/disp/display.h ****         currentY_ = (y >= Height()) ? Height() - 1 : y;
 1364              		.loc 10 173 9 view .LVU289
 1365 010c 8A42     		cmp	r2, r1
 1366 010e 2DD1     		bne	.L109
 173:../libs/PoliTeKDSP/libs/libDaisy/src/hid/disp/display.h ****         currentY_ = (y >= Height()) ? Height() - 1 : y;
 1367              		.loc 10 173 33 is_stmt 0 view .LVU290
 1368 0110 8020     		movs	r0, #128
 1369              	.L91:
 173:../libs/PoliTeKDSP/libs/libDaisy/src/hid/disp/display.h ****         currentY_ = (y >= Height()) ? Height() - 1 : y;
 1370              		.loc 10 173 19 view .LVU291
 1371 0112 8442     		cmp	r4, r0
 1372 0114 1CD2     		bcs	.L110
 1373              	.LVL93:
 1374              	.L92:
 174:../libs/PoliTeKDSP/libs/libDaisy/src/hid/disp/display.h ****     }
 1375              		.loc 10 174 34 view .LVU292
 1376 0116 9B68     		ldr	r3, [r3, #8]
 1377 0118 204A     		ldr	r2, .L114+4
 173:../libs/PoliTeKDSP/libs/libDaisy/src/hid/disp/display.h ****         currentY_ = (y >= Height()) ? Height() - 1 : y;
 1378              		.loc 10 173 19 view .LVU293
 1379 011a A8F80440 		strh	r4, [r8, #4]	@ movhi
 174:../libs/PoliTeKDSP/libs/libDaisy/src/hid/disp/display.h ****     }
 1380              		.loc 10 174 9 is_stmt 1 view .LVU294
 1381 011e 9342     		cmp	r3, r2
 1382 0120 21D1     		bne	.L111
 174:../libs/PoliTeKDSP/libs/libDaisy/src/hid/disp/display.h ****     }
ARM GAS  C:\Users\skipi\AppData\Local\Temp\ccpgF6Mp.s 			page 53


 1383              		.loc 10 174 34 is_stmt 0 view .LVU295
 1384 0122 4020     		movs	r0, #64
 1385              	.L94:
 174:../libs/PoliTeKDSP/libs/libDaisy/src/hid/disp/display.h ****     }
 1386              		.loc 10 174 19 view .LVU296
 1387 0124 019B     		ldr	r3, [sp, #4]
 1388 0126 8342     		cmp	r3, r0
 1389 0128 07D3     		bcc	.L95
 174:../libs/PoliTeKDSP/libs/libDaisy/src/hid/disp/display.h ****     }
 1390              		.loc 10 174 46 view .LVU297
 1391 012a D8F80030 		ldr	r3, [r8]
 1392 012e 1B4A     		ldr	r2, .L114+4
 1393 0130 9B68     		ldr	r3, [r3, #8]
 1394 0132 9342     		cmp	r3, r2
 1395 0134 29D1     		bne	.L112
 1396 0136 3F23     		movs	r3, #63
 1397 0138 0193     		str	r3, [sp, #4]
 1398              	.LVL94:
 1399              	.L95:
 174:../libs/PoliTeKDSP/libs/libDaisy/src/hid/disp/display.h ****     }
 1400              		.loc 10 174 19 view .LVU298
 1401 013a DDE90003 		ldrd	r0, r3, [sp]
 1402 013e A8F80630 		strh	r3, [r8, #6]	@ movhi
 1403              	.LVL95:
 174:../libs/PoliTeKDSP/libs/libDaisy/src/hid/disp/display.h ****     }
 1404              		.loc 10 174 19 view .LVU299
 1405              	.LBE750:
 1406              	.LBE755:
 443:../libs/PoliTeKDSP/libs/libDaisy/src/hid/disp/display.h **** 
 1407              		.loc 10 443 5 view .LVU300
 1408 0142 05B0     		add	sp, sp, #20
 1409              		.cfi_remember_state
 1410              		.cfi_def_cfa_offset 36
 1411              		@ sp needed
 1412 0144 BDE8F08F 		pop	{r4, r5, r6, r7, r8, r9, r10, fp, pc}
 1413              	.LVL96:
 1414              	.L79:
 1415              		.cfi_restore_state
 407:../libs/PoliTeKDSP/libs/libDaisy/src/hid/disp/display.h **** 
 1416              		.loc 10 407 20 view .LVU301
 1417 0148 0020     		movs	r0, #0
 443:../libs/PoliTeKDSP/libs/libDaisy/src/hid/disp/display.h **** 
 1418              		.loc 10 443 5 view .LVU302
 1419 014a 05B0     		add	sp, sp, #20
 1420              		.cfi_remember_state
 1421              		.cfi_def_cfa_offset 36
 1422              		@ sp needed
 1423 014c BDE8F08F 		pop	{r4, r5, r6, r7, r8, r9, r10, fp, pc}
 1424              	.LVL97:
 1425              	.L110:
 1426              		.cfi_restore_state
 1427              	.LBB756:
 1428              	.LBB751:
 173:../libs/PoliTeKDSP/libs/libDaisy/src/hid/disp/display.h ****         currentY_ = (y >= Height()) ? Height() - 1 : y;
 1429              		.loc 10 173 44 view .LVU303
 1430 0150 DA68     		ldr	r2, [r3, #12]
 1431 0152 1149     		ldr	r1, .L114
ARM GAS  C:\Users\skipi\AppData\Local\Temp\ccpgF6Mp.s 			page 54


 1432 0154 8A42     		cmp	r2, r1
 1433 0156 11D1     		bne	.L113
 1434 0158 7F24     		movs	r4, #127
 1435              	.LVL98:
 173:../libs/PoliTeKDSP/libs/libDaisy/src/hid/disp/display.h ****         currentY_ = (y >= Height()) ? Height() - 1 : y;
 1436              		.loc 10 173 44 view .LVU304
 1437 015a DCE7     		b	.L92
 1438              	.LVL99:
 1439              	.L106:
 173:../libs/PoliTeKDSP/libs/libDaisy/src/hid/disp/display.h ****         currentY_ = (y >= Height()) ? Height() - 1 : y;
 1440              		.loc 10 173 44 view .LVU305
 1441              	.LBE751:
 1442              	.LBE756:
 410:../libs/PoliTeKDSP/libs/libDaisy/src/hid/disp/display.h ****            || Height() < (currentY_ + font.FontHeight))
 1443              		.loc 10 410 17 view .LVU306
 1444 015c 9847     		blx	r3
 1445              	.LVL100:
 410:../libs/PoliTeKDSP/libs/libDaisy/src/hid/disp/display.h ****            || Height() < (currentY_ + font.FontHeight))
 1446              		.loc 10 410 17 view .LVU307
 1447 015e 6AE7     		b	.L78
 1448              	.L107:
 411:../libs/PoliTeKDSP/libs/libDaisy/src/hid/disp/display.h ****         {
 1449              		.loc 10 411 21 discriminator 2 view .LVU308
 1450 0160 4046     		mov	r0, r8
 1451 0162 9847     		blx	r3
 1452              	.LVL101:
 1453 0164 75E7     		b	.L80
 1454              	.LVL102:
 1455              	.L111:
 1456              	.LBB757:
 1457              	.LBB752:
 174:../libs/PoliTeKDSP/libs/libDaisy/src/hid/disp/display.h ****     }
 1458              		.loc 10 174 33 view .LVU309
 1459 0166 4046     		mov	r0, r8
 1460 0168 9847     		blx	r3
 1461              	.LVL103:
 1462 016a DBE7     		b	.L94
 1463              	.LVL104:
 1464              	.L109:
 173:../libs/PoliTeKDSP/libs/libDaisy/src/hid/disp/display.h ****         currentY_ = (y >= Height()) ? Height() - 1 : y;
 1465              		.loc 10 173 32 view .LVU310
 1466 016c 4046     		mov	r0, r8
 1467 016e 9047     		blx	r2
 1468              	.LVL105:
 173:../libs/PoliTeKDSP/libs/libDaisy/src/hid/disp/display.h ****         currentY_ = (y >= Height()) ? Height() - 1 : y;
 1469              		.loc 10 173 44 view .LVU311
 1470 0170 D8F80030 		ldr	r3, [r8]
 1471 0174 CDE7     		b	.L91
 1472              	.LVL106:
 1473              	.L81:
 173:../libs/PoliTeKDSP/libs/libDaisy/src/hid/disp/display.h ****         currentY_ = (y >= Height()) ? Height() - 1 : y;
 1474              		.loc 10 173 44 view .LVU312
 1475              	.LBE752:
 1476              	.LBE757:
 439:../libs/PoliTeKDSP/libs/libDaisy/src/hid/disp/display.h **** 
 1477              		.loc 10 439 19 view .LVU313
 1478 0176 B8F804A0 		ldrh	r10, [r8, #4]
ARM GAS  C:\Users\skipi\AppData\Local\Temp\ccpgF6Mp.s 			page 55


 1479 017a C1E7     		b	.L83
 1480              	.LVL107:
 1481              	.L113:
 1482              	.LBB758:
 1483              	.LBB753:
 173:../libs/PoliTeKDSP/libs/libDaisy/src/hid/disp/display.h ****         currentY_ = (y >= Height()) ? Height() - 1 : y;
 1484              		.loc 10 173 43 view .LVU314
 1485 017c 4046     		mov	r0, r8
 1486 017e 9047     		blx	r2
 1487              	.LVL108:
 173:../libs/PoliTeKDSP/libs/libDaisy/src/hid/disp/display.h ****         currentY_ = (y >= Height()) ? Height() - 1 : y;
 1488              		.loc 10 173 19 view .LVU315
 1489 0180 0138     		subs	r0, r0, #1
 174:../libs/PoliTeKDSP/libs/libDaisy/src/hid/disp/display.h ****     }
 1490              		.loc 10 174 34 view .LVU316
 1491 0182 D8F80030 		ldr	r3, [r8]
 173:../libs/PoliTeKDSP/libs/libDaisy/src/hid/disp/display.h ****         currentY_ = (y >= Height()) ? Height() - 1 : y;
 1492              		.loc 10 173 19 view .LVU317
 1493 0186 84B2     		uxth	r4, r0
 1494              	.LVL109:
 173:../libs/PoliTeKDSP/libs/libDaisy/src/hid/disp/display.h ****         currentY_ = (y >= Height()) ? Height() - 1 : y;
 1495              		.loc 10 173 19 view .LVU318
 1496 0188 C5E7     		b	.L92
 1497              	.L112:
 174:../libs/PoliTeKDSP/libs/libDaisy/src/hid/disp/display.h ****     }
 1498              		.loc 10 174 45 view .LVU319
 1499 018a 4046     		mov	r0, r8
 1500 018c 9847     		blx	r3
 1501              	.LVL110:
 174:../libs/PoliTeKDSP/libs/libDaisy/src/hid/disp/display.h ****     }
 1502              		.loc 10 174 19 view .LVU320
 1503 018e 0138     		subs	r0, r0, #1
 1504 0190 83B2     		uxth	r3, r0
 1505 0192 0193     		str	r3, [sp, #4]
 1506              	.LVL111:
 174:../libs/PoliTeKDSP/libs/libDaisy/src/hid/disp/display.h ****     }
 1507              		.loc 10 174 19 view .LVU321
 1508 0194 D1E7     		b	.L95
 1509              	.L115:
 1510 0196 00BF     		.align	2
 1511              	.L114:
 1512 0198 00000000 		.word	_ZNK5daisy11OledDisplayINS_13SSD130xDriverILj128ELj64ENS_19SSD130xI2CTransportEEEE5WidthEv
 1513 019c 00000000 		.word	_ZNK5daisy11OledDisplayINS_13SSD130xDriverILj128ELj64ENS_19SSD130xI2CTransportEEEE6HeightEv
 1514              	.LBE753:
 1515              	.LBE758:
 1516              		.cfi_endproc
 1517              	.LFE5722:
 1519              		.section	.text._ZN5daisy25OneBitGraphicsDisplayImplINS_11OledDisplayINS_13SSD130xDriverILj128ELj64
 1520              		.align	1
 1521              		.p2align 2,,3
 1522              		.weak	_ZN5daisy25OneBitGraphicsDisplayImplINS_11OledDisplayINS_13SSD130xDriverILj128ELj64ENS_19SSD
 1523              		.syntax unified
 1524              		.thumb
 1525              		.thumb_func
 1526              		.fpu fpv5-d16
 1528              	_ZN5daisy25OneBitGraphicsDisplayImplINS_11OledDisplayINS_13SSD130xDriverILj128ELj64ENS_19SSD130xI2C
 1529              	.LVL112:
ARM GAS  C:\Users\skipi\AppData\Local\Temp\ccpgF6Mp.s 			page 56


 1530              	.LFB5724:
 464:../libs/PoliTeKDSP/libs/libDaisy/src/hid/disp/display.h **** 
 465:../libs/PoliTeKDSP/libs/libDaisy/src/hid/disp/display.h ****     Rectangle WriteStringAligned(const char*    str,
 1531              		.loc 10 465 15 is_stmt 1 view -0
 1532              		.cfi_startproc
 1533              		@ args = 12, pretend = 0, frame = 32
 1534              		@ frame_needed = 0, uses_anonymous_args = 0
 1535              		.loc 10 465 15 is_stmt 0 view .LVU323
 1536 0000 2DE9F04F 		push	{r4, r5, r6, r7, r8, r9, r10, fp, lr}
 1537              		.cfi_def_cfa_offset 36
 1538              		.cfi_offset 4, -36
 1539              		.cfi_offset 5, -32
 1540              		.cfi_offset 6, -28
 1541              		.cfi_offset 7, -24
 1542              		.cfi_offset 8, -20
 1543              		.cfi_offset 9, -16
 1544              		.cfi_offset 10, -12
 1545              		.cfi_offset 11, -8
 1546              		.cfi_offset 14, -4
 1547 0004 89B0     		sub	sp, sp, #36
 1548              		.cfi_def_cfa_offset 72
 1549              		.loc 10 465 15 view .LVU324
 1550 0006 1D46     		mov	r5, r3
 1551 0008 8846     		mov	r8, r1
 1552              	.LVL113:
 1553              	.LBB897:
 1554              	.LBI897:
 466:../libs/PoliTeKDSP/libs/libDaisy/src/hid/disp/display.h ****                                  const FontDef& font,
 467:../libs/PoliTeKDSP/libs/libDaisy/src/hid/disp/display.h ****                                  Rectangle      boundingBox,
 468:../libs/PoliTeKDSP/libs/libDaisy/src/hid/disp/display.h ****                                  Alignment      alignment,
 469:../libs/PoliTeKDSP/libs/libDaisy/src/hid/disp/display.h ****                                  bool           on) override
 470:../libs/PoliTeKDSP/libs/libDaisy/src/hid/disp/display.h ****     {
 471:../libs/PoliTeKDSP/libs/libDaisy/src/hid/disp/display.h ****         const auto alignedRect
 472:../libs/PoliTeKDSP/libs/libDaisy/src/hid/disp/display.h ****             = GetTextRect(str, font).AlignedWithin(boundingBox, alignment);
 473:../libs/PoliTeKDSP/libs/libDaisy/src/hid/disp/display.h ****         SetCursor(alignedRect.GetX(), alignedRect.GetY());
 474:../libs/PoliTeKDSP/libs/libDaisy/src/hid/disp/display.h ****         ((ChildType*)(this))->ChildType::WriteString(str, font, on);
 475:../libs/PoliTeKDSP/libs/libDaisy/src/hid/disp/display.h ****         return alignedRect;
 476:../libs/PoliTeKDSP/libs/libDaisy/src/hid/disp/display.h ****     }
 477:../libs/PoliTeKDSP/libs/libDaisy/src/hid/disp/display.h **** 
 478:../libs/PoliTeKDSP/libs/libDaisy/src/hid/disp/display.h ****   private:
 479:../libs/PoliTeKDSP/libs/libDaisy/src/hid/disp/display.h ****     uint32_t strlen(const char* string)
 480:../libs/PoliTeKDSP/libs/libDaisy/src/hid/disp/display.h ****     {
 481:../libs/PoliTeKDSP/libs/libDaisy/src/hid/disp/display.h ****         uint32_t result = 0;
 482:../libs/PoliTeKDSP/libs/libDaisy/src/hid/disp/display.h ****         while(*string++ != '\0')
 483:../libs/PoliTeKDSP/libs/libDaisy/src/hid/disp/display.h ****             result++;
 484:../libs/PoliTeKDSP/libs/libDaisy/src/hid/disp/display.h ****         return result;
 485:../libs/PoliTeKDSP/libs/libDaisy/src/hid/disp/display.h ****     }
 486:../libs/PoliTeKDSP/libs/libDaisy/src/hid/disp/display.h **** 
 487:../libs/PoliTeKDSP/libs/libDaisy/src/hid/disp/display.h ****     Rectangle GetTextRect(const char* text, const FontDef& font)
 1555              		.loc 10 487 15 is_stmt 1 view .LVU325
 1556              	.LBB898:
 1557              	.LBB899:
 1558              	.LBI899:
 479:../libs/PoliTeKDSP/libs/libDaisy/src/hid/disp/display.h ****     {
 1559              		.loc 10 479 14 view .LVU326
 1560              	.LBB900:
 482:../libs/PoliTeKDSP/libs/libDaisy/src/hid/disp/display.h ****             result++;
ARM GAS  C:\Users\skipi\AppData\Local\Temp\ccpgF6Mp.s 			page 57


 1561              		.loc 10 482 25 view .LVU327
 1562              	.LBE900:
 1563              	.LBE899:
 1564              	.LBE898:
 1565              	.LBE897:
 465:../libs/PoliTeKDSP/libs/libDaisy/src/hid/disp/display.h ****                                  const FontDef& font,
 1566              		.loc 10 465 15 is_stmt 0 view .LVU328
 1567 000a 0690     		str	r0, [sp, #24]
 1568              	.LBB915:
 1569              	.LBB911:
 1570              	.LBB904:
 1571              	.LBB901:
 482:../libs/PoliTeKDSP/libs/libDaisy/src/hid/disp/display.h ****             result++;
 1572              		.loc 10 482 25 view .LVU329
 1573 000c 1046     		mov	r0, r2
 1574              	.LVL114:
 482:../libs/PoliTeKDSP/libs/libDaisy/src/hid/disp/display.h ****             result++;
 1575              		.loc 10 482 25 view .LVU330
 1576              	.LBE901:
 1577              	.LBE904:
 1578              	.LBE911:
 1579              	.LBE915:
 465:../libs/PoliTeKDSP/libs/libDaisy/src/hid/disp/display.h ****                                  const FontDef& font,
 1580              		.loc 10 465 15 view .LVU331
 1581 000e 129C     		ldr	r4, [sp, #72]
 1582              	.LBB916:
 1583              	.LBB912:
 1584              	.LBB905:
 1585              	.LBB902:
 482:../libs/PoliTeKDSP/libs/libDaisy/src/hid/disp/display.h ****             result++;
 1586              		.loc 10 482 25 view .LVU332
 1587 0010 10F8013B 		ldrb	r3, [r0], #1	@ zero_extendqisi2
 1588              	.LVL115:
 482:../libs/PoliTeKDSP/libs/libDaisy/src/hid/disp/display.h ****             result++;
 1589              		.loc 10 482 25 view .LVU333
 1590              	.LBE902:
 1591              	.LBE905:
 1592              	.LBE912:
 1593              	.LBE916:
 465:../libs/PoliTeKDSP/libs/libDaisy/src/hid/disp/display.h ****                                  const FontDef& font,
 1594              		.loc 10 465 15 view .LVU334
 1595 0014 1399     		ldr	r1, [sp, #76]
 1596              	.LVL116:
 465:../libs/PoliTeKDSP/libs/libDaisy/src/hid/disp/display.h ****                                  const FontDef& font,
 1597              		.loc 10 465 15 view .LVU335
 1598 0016 9DF85060 		ldrb	r6, [sp, #80]	@ zero_extendqisi2
 1599 001a 0092     		str	r2, [sp]
 1600              	.LBB917:
 1601              	.LBB913:
 1602              	.LBB906:
 1603              	.LBB903:
 482:../libs/PoliTeKDSP/libs/libDaisy/src/hid/disp/display.h ****             result++;
 1604              		.loc 10 482 25 view .LVU336
 1605 001c 33B1     		cbz	r3, .L117
 481:../libs/PoliTeKDSP/libs/libDaisy/src/hid/disp/display.h ****         while(*string++ != '\0')
 1606              		.loc 10 481 18 view .LVU337
 1607 001e 0022     		movs	r2, #0
ARM GAS  C:\Users\skipi\AppData\Local\Temp\ccpgF6Mp.s 			page 58


 1608              	.LVL117:
 1609              	.L118:
 482:../libs/PoliTeKDSP/libs/libDaisy/src/hid/disp/display.h ****             result++;
 1610              		.loc 10 482 25 view .LVU338
 1611 0020 10F8013B 		ldrb	r3, [r0], #1	@ zero_extendqisi2
 1612              	.LVL118:
 483:../libs/PoliTeKDSP/libs/libDaisy/src/hid/disp/display.h ****         return result;
 1613              		.loc 10 483 13 view .LVU339
 1614 0024 0132     		adds	r2, r2, #1
 1615              	.LVL119:
 482:../libs/PoliTeKDSP/libs/libDaisy/src/hid/disp/display.h ****             result++;
 1616              		.loc 10 482 25 is_stmt 1 view .LVU340
 1617 0026 002B     		cmp	r3, #0
 1618 0028 FAD1     		bne	.L118
 1619              	.LBE903:
 1620              	.LBE906:
 488:../libs/PoliTeKDSP/libs/libDaisy/src/hid/disp/display.h ****     {
 489:../libs/PoliTeKDSP/libs/libDaisy/src/hid/disp/display.h ****         const auto numChars = strlen(text);
 490:../libs/PoliTeKDSP/libs/libDaisy/src/hid/disp/display.h ****         return {int16_t(numChars * font.FontWidth), font.FontHeight};
 1621              		.loc 10 490 68 is_stmt 0 view .LVU341
 1622 002a 93B2     		uxth	r3, r2
 1623              	.LVL120:
 1624              	.L117:
 1625              		.loc 10 490 68 view .LVU342
 1626 002c 2A78     		ldrb	r2, [r5]	@ zero_extendqisi2
 1627              		.loc 10 490 58 view .LVU343
 1628 002e 6878     		ldrb	r0, [r5, #1]	@ zero_extendqisi2
 1629              		.loc 10 490 68 view .LVU344
 1630 0030 12FB03F3 		smulbb	r3, r2, r3
 1631 0034 02B2     		sxth	r2, r0
 1632              	.LVL121:
 1633              	.LBB907:
 1634              	.LBI907:
 1635              		.file 13 "../libs/PoliTeKDSP/libs/libDaisy/src/hid/disp/graphics_common.h"
   1:../libs/PoliTeKDSP/libs/libDaisy/src/hid/disp/graphics_common.h **** #pragma once
   2:../libs/PoliTeKDSP/libs/libDaisy/src/hid/disp/graphics_common.h **** 
   3:../libs/PoliTeKDSP/libs/libDaisy/src/hid/disp/graphics_common.h **** #include <cstdint>
   4:../libs/PoliTeKDSP/libs/libDaisy/src/hid/disp/graphics_common.h **** 
   5:../libs/PoliTeKDSP/libs/libDaisy/src/hid/disp/graphics_common.h **** namespace daisy
   6:../libs/PoliTeKDSP/libs/libDaisy/src/hid/disp/graphics_common.h **** {
   7:../libs/PoliTeKDSP/libs/libDaisy/src/hid/disp/graphics_common.h **** /** Justifications */
   8:../libs/PoliTeKDSP/libs/libDaisy/src/hid/disp/graphics_common.h **** enum class Alignment
   9:../libs/PoliTeKDSP/libs/libDaisy/src/hid/disp/graphics_common.h **** {
  10:../libs/PoliTeKDSP/libs/libDaisy/src/hid/disp/graphics_common.h ****     centered,
  11:../libs/PoliTeKDSP/libs/libDaisy/src/hid/disp/graphics_common.h ****     topLeft,
  12:../libs/PoliTeKDSP/libs/libDaisy/src/hid/disp/graphics_common.h ****     topCentered,
  13:../libs/PoliTeKDSP/libs/libDaisy/src/hid/disp/graphics_common.h ****     topRight,
  14:../libs/PoliTeKDSP/libs/libDaisy/src/hid/disp/graphics_common.h ****     bottomLeft,
  15:../libs/PoliTeKDSP/libs/libDaisy/src/hid/disp/graphics_common.h ****     bottomCentered,
  16:../libs/PoliTeKDSP/libs/libDaisy/src/hid/disp/graphics_common.h ****     bottomRight,
  17:../libs/PoliTeKDSP/libs/libDaisy/src/hid/disp/graphics_common.h ****     centeredLeft,
  18:../libs/PoliTeKDSP/libs/libDaisy/src/hid/disp/graphics_common.h ****     centeredRight
  19:../libs/PoliTeKDSP/libs/libDaisy/src/hid/disp/graphics_common.h **** };
  20:../libs/PoliTeKDSP/libs/libDaisy/src/hid/disp/graphics_common.h **** 
  21:../libs/PoliTeKDSP/libs/libDaisy/src/hid/disp/graphics_common.h **** class Rectangle
  22:../libs/PoliTeKDSP/libs/libDaisy/src/hid/disp/graphics_common.h **** {
  23:../libs/PoliTeKDSP/libs/libDaisy/src/hid/disp/graphics_common.h ****   public:
ARM GAS  C:\Users\skipi\AppData\Local\Temp\ccpgF6Mp.s 			page 59


  24:../libs/PoliTeKDSP/libs/libDaisy/src/hid/disp/graphics_common.h ****     Rectangle() : x_(0), y_(0), width_(0), height_(0) {}
  25:../libs/PoliTeKDSP/libs/libDaisy/src/hid/disp/graphics_common.h **** 
  26:../libs/PoliTeKDSP/libs/libDaisy/src/hid/disp/graphics_common.h ****     Rectangle(int16_t width, int16_t height)
 1636              		.loc 13 26 5 is_stmt 1 view .LVU345
 1637              	.LBB908:
 1638              	.LBI908:
  27:../libs/PoliTeKDSP/libs/libDaisy/src/hid/disp/graphics_common.h ****     : x_(0), y_(0), width_(max(0, width)), height_(max(0, height))
  28:../libs/PoliTeKDSP/libs/libDaisy/src/hid/disp/graphics_common.h ****     {
  29:../libs/PoliTeKDSP/libs/libDaisy/src/hid/disp/graphics_common.h ****     }
  30:../libs/PoliTeKDSP/libs/libDaisy/src/hid/disp/graphics_common.h **** 
  31:../libs/PoliTeKDSP/libs/libDaisy/src/hid/disp/graphics_common.h ****     Rectangle(int16_t x, int16_t y, int16_t width, int16_t height)
  32:../libs/PoliTeKDSP/libs/libDaisy/src/hid/disp/graphics_common.h ****     : x_(x), y_(y), width_(max(0, width)), height_(max(0, height))
  33:../libs/PoliTeKDSP/libs/libDaisy/src/hid/disp/graphics_common.h ****     {
  34:../libs/PoliTeKDSP/libs/libDaisy/src/hid/disp/graphics_common.h ****     }
  35:../libs/PoliTeKDSP/libs/libDaisy/src/hid/disp/graphics_common.h **** 
  36:../libs/PoliTeKDSP/libs/libDaisy/src/hid/disp/graphics_common.h ****     Rectangle(const Rectangle& other) { *this = other; }
  37:../libs/PoliTeKDSP/libs/libDaisy/src/hid/disp/graphics_common.h **** 
  38:../libs/PoliTeKDSP/libs/libDaisy/src/hid/disp/graphics_common.h ****     Rectangle& operator=(const Rectangle& other)
  39:../libs/PoliTeKDSP/libs/libDaisy/src/hid/disp/graphics_common.h ****     {
  40:../libs/PoliTeKDSP/libs/libDaisy/src/hid/disp/graphics_common.h ****         x_      = other.x_;
  41:../libs/PoliTeKDSP/libs/libDaisy/src/hid/disp/graphics_common.h ****         y_      = other.y_;
  42:../libs/PoliTeKDSP/libs/libDaisy/src/hid/disp/graphics_common.h ****         width_  = other.width_;
  43:../libs/PoliTeKDSP/libs/libDaisy/src/hid/disp/graphics_common.h ****         height_ = other.height_;
  44:../libs/PoliTeKDSP/libs/libDaisy/src/hid/disp/graphics_common.h ****         return *this;
  45:../libs/PoliTeKDSP/libs/libDaisy/src/hid/disp/graphics_common.h ****     }
  46:../libs/PoliTeKDSP/libs/libDaisy/src/hid/disp/graphics_common.h **** 
  47:../libs/PoliTeKDSP/libs/libDaisy/src/hid/disp/graphics_common.h ****     bool operator==(const Rectangle& other) const
  48:../libs/PoliTeKDSP/libs/libDaisy/src/hid/disp/graphics_common.h ****     {
  49:../libs/PoliTeKDSP/libs/libDaisy/src/hid/disp/graphics_common.h ****         return (x_ == other.x_) && (y_ == other.y_) && (width_ == other.width_)
  50:../libs/PoliTeKDSP/libs/libDaisy/src/hid/disp/graphics_common.h ****                && (height_ == other.height_);
  51:../libs/PoliTeKDSP/libs/libDaisy/src/hid/disp/graphics_common.h ****     }
  52:../libs/PoliTeKDSP/libs/libDaisy/src/hid/disp/graphics_common.h ****     bool operator!=(const Rectangle& other) const { return !(*this == other); }
  53:../libs/PoliTeKDSP/libs/libDaisy/src/hid/disp/graphics_common.h **** 
  54:../libs/PoliTeKDSP/libs/libDaisy/src/hid/disp/graphics_common.h ****     bool IsEmpty() const { return (width_ <= 0) || (height_ <= 0); }
  55:../libs/PoliTeKDSP/libs/libDaisy/src/hid/disp/graphics_common.h **** 
  56:../libs/PoliTeKDSP/libs/libDaisy/src/hid/disp/graphics_common.h ****     int16_t GetX() const { return x_; }
  57:../libs/PoliTeKDSP/libs/libDaisy/src/hid/disp/graphics_common.h ****     int16_t GetY() const { return y_; }
  58:../libs/PoliTeKDSP/libs/libDaisy/src/hid/disp/graphics_common.h ****     int16_t GetWidth() const { return width_; }
  59:../libs/PoliTeKDSP/libs/libDaisy/src/hid/disp/graphics_common.h ****     int16_t GetHeight() const { return height_; }
  60:../libs/PoliTeKDSP/libs/libDaisy/src/hid/disp/graphics_common.h ****     int16_t GetRight() const { return x_ + width_; }
  61:../libs/PoliTeKDSP/libs/libDaisy/src/hid/disp/graphics_common.h ****     int16_t GetBottom() const { return y_ + height_; }
  62:../libs/PoliTeKDSP/libs/libDaisy/src/hid/disp/graphics_common.h ****     int16_t GetCenterX() const { return x_ + width_ / 2; }
  63:../libs/PoliTeKDSP/libs/libDaisy/src/hid/disp/graphics_common.h ****     int16_t GetCenterY() const { return y_ + height_ / 2; }
  64:../libs/PoliTeKDSP/libs/libDaisy/src/hid/disp/graphics_common.h **** 
  65:../libs/PoliTeKDSP/libs/libDaisy/src/hid/disp/graphics_common.h ****     Rectangle WithX(int16_t x) const { return {x, y_, width_, height_}; }
  66:../libs/PoliTeKDSP/libs/libDaisy/src/hid/disp/graphics_common.h ****     Rectangle WithY(int16_t y) const { return {x_, y, width_, height_}; }
  67:../libs/PoliTeKDSP/libs/libDaisy/src/hid/disp/graphics_common.h ****     Rectangle WithWidth(int16_t width) const
  68:../libs/PoliTeKDSP/libs/libDaisy/src/hid/disp/graphics_common.h ****     {
  69:../libs/PoliTeKDSP/libs/libDaisy/src/hid/disp/graphics_common.h ****         return {x_, y_, width, height_};
  70:../libs/PoliTeKDSP/libs/libDaisy/src/hid/disp/graphics_common.h ****     }
  71:../libs/PoliTeKDSP/libs/libDaisy/src/hid/disp/graphics_common.h ****     Rectangle WithHeight(int16_t height) const
  72:../libs/PoliTeKDSP/libs/libDaisy/src/hid/disp/graphics_common.h ****     {
  73:../libs/PoliTeKDSP/libs/libDaisy/src/hid/disp/graphics_common.h ****         return {x_, y_, width_, height};
  74:../libs/PoliTeKDSP/libs/libDaisy/src/hid/disp/graphics_common.h ****     }
  75:../libs/PoliTeKDSP/libs/libDaisy/src/hid/disp/graphics_common.h ****     Rectangle WithSize(int16_t width, int16_t height) const
  76:../libs/PoliTeKDSP/libs/libDaisy/src/hid/disp/graphics_common.h ****     {
  77:../libs/PoliTeKDSP/libs/libDaisy/src/hid/disp/graphics_common.h ****         return {x_, y_, width, height};
ARM GAS  C:\Users\skipi\AppData\Local\Temp\ccpgF6Mp.s 			page 60


  78:../libs/PoliTeKDSP/libs/libDaisy/src/hid/disp/graphics_common.h ****     }
  79:../libs/PoliTeKDSP/libs/libDaisy/src/hid/disp/graphics_common.h ****     Rectangle WithWidthKeepingCenter(int16_t width) const
  80:../libs/PoliTeKDSP/libs/libDaisy/src/hid/disp/graphics_common.h ****     {
  81:../libs/PoliTeKDSP/libs/libDaisy/src/hid/disp/graphics_common.h ****         return Rectangle(x_, y_, width, height_)
  82:../libs/PoliTeKDSP/libs/libDaisy/src/hid/disp/graphics_common.h ****             .WithCenter(GetCenterX(), GetCenterY());
  83:../libs/PoliTeKDSP/libs/libDaisy/src/hid/disp/graphics_common.h ****     }
  84:../libs/PoliTeKDSP/libs/libDaisy/src/hid/disp/graphics_common.h ****     Rectangle WithHeightKeepingCenter(int16_t height) const
  85:../libs/PoliTeKDSP/libs/libDaisy/src/hid/disp/graphics_common.h ****     {
  86:../libs/PoliTeKDSP/libs/libDaisy/src/hid/disp/graphics_common.h ****         return Rectangle(x_, y_, width_, height)
  87:../libs/PoliTeKDSP/libs/libDaisy/src/hid/disp/graphics_common.h ****             .WithCenter(GetCenterX(), GetCenterY());
  88:../libs/PoliTeKDSP/libs/libDaisy/src/hid/disp/graphics_common.h ****     }
  89:../libs/PoliTeKDSP/libs/libDaisy/src/hid/disp/graphics_common.h ****     Rectangle WithSizeKeepingCenter(int16_t width, int16_t height) const
  90:../libs/PoliTeKDSP/libs/libDaisy/src/hid/disp/graphics_common.h ****     {
  91:../libs/PoliTeKDSP/libs/libDaisy/src/hid/disp/graphics_common.h ****         return Rectangle(x_, y_, width, height)
  92:../libs/PoliTeKDSP/libs/libDaisy/src/hid/disp/graphics_common.h ****             .WithCenter(GetCenterX(), GetCenterY());
  93:../libs/PoliTeKDSP/libs/libDaisy/src/hid/disp/graphics_common.h ****     }
  94:../libs/PoliTeKDSP/libs/libDaisy/src/hid/disp/graphics_common.h **** 
  95:../libs/PoliTeKDSP/libs/libDaisy/src/hid/disp/graphics_common.h ****     Rectangle Reduced(int16_t sizeToReduce) const
  96:../libs/PoliTeKDSP/libs/libDaisy/src/hid/disp/graphics_common.h ****     {
  97:../libs/PoliTeKDSP/libs/libDaisy/src/hid/disp/graphics_common.h ****         return {int16_t(x_ + sizeToReduce),
  98:../libs/PoliTeKDSP/libs/libDaisy/src/hid/disp/graphics_common.h ****                 int16_t(y_ + sizeToReduce),
  99:../libs/PoliTeKDSP/libs/libDaisy/src/hid/disp/graphics_common.h ****                 int16_t(width_ - 2 * sizeToReduce),
 100:../libs/PoliTeKDSP/libs/libDaisy/src/hid/disp/graphics_common.h ****                 int16_t(height_ - 2 * sizeToReduce)};
 101:../libs/PoliTeKDSP/libs/libDaisy/src/hid/disp/graphics_common.h ****     }
 102:../libs/PoliTeKDSP/libs/libDaisy/src/hid/disp/graphics_common.h ****     Rectangle Reduced(int16_t xToReduce, int16_t yToReduce) const
 103:../libs/PoliTeKDSP/libs/libDaisy/src/hid/disp/graphics_common.h ****     {
 104:../libs/PoliTeKDSP/libs/libDaisy/src/hid/disp/graphics_common.h ****         return {int16_t(x_ + xToReduce),
 105:../libs/PoliTeKDSP/libs/libDaisy/src/hid/disp/graphics_common.h ****                 int16_t(y_ + yToReduce),
 106:../libs/PoliTeKDSP/libs/libDaisy/src/hid/disp/graphics_common.h ****                 int16_t(width_ - 2 * xToReduce),
 107:../libs/PoliTeKDSP/libs/libDaisy/src/hid/disp/graphics_common.h ****                 int16_t(height_ - 2 * yToReduce)};
 108:../libs/PoliTeKDSP/libs/libDaisy/src/hid/disp/graphics_common.h ****     }
 109:../libs/PoliTeKDSP/libs/libDaisy/src/hid/disp/graphics_common.h **** 
 110:../libs/PoliTeKDSP/libs/libDaisy/src/hid/disp/graphics_common.h ****     Rectangle Translated(int16_t x, int16_t y) const
 111:../libs/PoliTeKDSP/libs/libDaisy/src/hid/disp/graphics_common.h ****     {
 112:../libs/PoliTeKDSP/libs/libDaisy/src/hid/disp/graphics_common.h ****         return {int16_t(x_ + x), int16_t(y_ + y), width_, height_};
 113:../libs/PoliTeKDSP/libs/libDaisy/src/hid/disp/graphics_common.h ****     }
 114:../libs/PoliTeKDSP/libs/libDaisy/src/hid/disp/graphics_common.h **** 
 115:../libs/PoliTeKDSP/libs/libDaisy/src/hid/disp/graphics_common.h ****     Rectangle WithLeft(int16_t left) const
 116:../libs/PoliTeKDSP/libs/libDaisy/src/hid/disp/graphics_common.h ****     {
 117:../libs/PoliTeKDSP/libs/libDaisy/src/hid/disp/graphics_common.h ****         const auto newWidth = int16_t((x_ - left) + width_);
 118:../libs/PoliTeKDSP/libs/libDaisy/src/hid/disp/graphics_common.h ****         return {left, y_, newWidth, height_};
 119:../libs/PoliTeKDSP/libs/libDaisy/src/hid/disp/graphics_common.h ****     }
 120:../libs/PoliTeKDSP/libs/libDaisy/src/hid/disp/graphics_common.h **** 
 121:../libs/PoliTeKDSP/libs/libDaisy/src/hid/disp/graphics_common.h ****     Rectangle WithRight(int16_t right) const
 122:../libs/PoliTeKDSP/libs/libDaisy/src/hid/disp/graphics_common.h ****     {
 123:../libs/PoliTeKDSP/libs/libDaisy/src/hid/disp/graphics_common.h ****         const auto newWidth = int16_t(right - x_);
 124:../libs/PoliTeKDSP/libs/libDaisy/src/hid/disp/graphics_common.h ****         return {x_, y_, newWidth, height_};
 125:../libs/PoliTeKDSP/libs/libDaisy/src/hid/disp/graphics_common.h ****     }
 126:../libs/PoliTeKDSP/libs/libDaisy/src/hid/disp/graphics_common.h **** 
 127:../libs/PoliTeKDSP/libs/libDaisy/src/hid/disp/graphics_common.h ****     Rectangle WithTop(int16_t top) const
 128:../libs/PoliTeKDSP/libs/libDaisy/src/hid/disp/graphics_common.h ****     {
 129:../libs/PoliTeKDSP/libs/libDaisy/src/hid/disp/graphics_common.h ****         const auto newHeight = int16_t((y_ - top) + height_);
 130:../libs/PoliTeKDSP/libs/libDaisy/src/hid/disp/graphics_common.h ****         return {x_, top, width_, newHeight};
 131:../libs/PoliTeKDSP/libs/libDaisy/src/hid/disp/graphics_common.h ****     }
 132:../libs/PoliTeKDSP/libs/libDaisy/src/hid/disp/graphics_common.h **** 
 133:../libs/PoliTeKDSP/libs/libDaisy/src/hid/disp/graphics_common.h ****     Rectangle WithBottom(int16_t bottom) const
 134:../libs/PoliTeKDSP/libs/libDaisy/src/hid/disp/graphics_common.h ****     {
ARM GAS  C:\Users\skipi\AppData\Local\Temp\ccpgF6Mp.s 			page 61


 135:../libs/PoliTeKDSP/libs/libDaisy/src/hid/disp/graphics_common.h ****         const auto newHeight = int16_t(bottom - y_);
 136:../libs/PoliTeKDSP/libs/libDaisy/src/hid/disp/graphics_common.h ****         return {x_, y_, width_, newHeight};
 137:../libs/PoliTeKDSP/libs/libDaisy/src/hid/disp/graphics_common.h ****     }
 138:../libs/PoliTeKDSP/libs/libDaisy/src/hid/disp/graphics_common.h **** 
 139:../libs/PoliTeKDSP/libs/libDaisy/src/hid/disp/graphics_common.h ****     Rectangle WithTrimmedLeft(int16_t pxToTrim) const
 140:../libs/PoliTeKDSP/libs/libDaisy/src/hid/disp/graphics_common.h ****     {
 141:../libs/PoliTeKDSP/libs/libDaisy/src/hid/disp/graphics_common.h ****         return {
 142:../libs/PoliTeKDSP/libs/libDaisy/src/hid/disp/graphics_common.h ****             int16_t(x_ + pxToTrim), y_, int16_t(width_ - pxToTrim), height_};
 143:../libs/PoliTeKDSP/libs/libDaisy/src/hid/disp/graphics_common.h ****     }
 144:../libs/PoliTeKDSP/libs/libDaisy/src/hid/disp/graphics_common.h **** 
 145:../libs/PoliTeKDSP/libs/libDaisy/src/hid/disp/graphics_common.h ****     Rectangle WithTrimmedRight(int16_t pxToTrim) const
 146:../libs/PoliTeKDSP/libs/libDaisy/src/hid/disp/graphics_common.h ****     {
 147:../libs/PoliTeKDSP/libs/libDaisy/src/hid/disp/graphics_common.h ****         return {x_, y_, int16_t(width_ - pxToTrim), height_};
 148:../libs/PoliTeKDSP/libs/libDaisy/src/hid/disp/graphics_common.h ****     }
 149:../libs/PoliTeKDSP/libs/libDaisy/src/hid/disp/graphics_common.h **** 
 150:../libs/PoliTeKDSP/libs/libDaisy/src/hid/disp/graphics_common.h ****     Rectangle WithTrimmedTop(int16_t pxToTrim) const
 151:../libs/PoliTeKDSP/libs/libDaisy/src/hid/disp/graphics_common.h ****     {
 152:../libs/PoliTeKDSP/libs/libDaisy/src/hid/disp/graphics_common.h ****         return {
 153:../libs/PoliTeKDSP/libs/libDaisy/src/hid/disp/graphics_common.h ****             x_, int16_t(y_ + pxToTrim), width_, int16_t(height_ - pxToTrim)};
 154:../libs/PoliTeKDSP/libs/libDaisy/src/hid/disp/graphics_common.h ****     }
 155:../libs/PoliTeKDSP/libs/libDaisy/src/hid/disp/graphics_common.h **** 
 156:../libs/PoliTeKDSP/libs/libDaisy/src/hid/disp/graphics_common.h ****     Rectangle WithTrimmedBottom(int16_t pxToTrim) const
 157:../libs/PoliTeKDSP/libs/libDaisy/src/hid/disp/graphics_common.h ****     {
 158:../libs/PoliTeKDSP/libs/libDaisy/src/hid/disp/graphics_common.h ****         return {x_, y_, width_, int16_t(height_ - pxToTrim)};
 159:../libs/PoliTeKDSP/libs/libDaisy/src/hid/disp/graphics_common.h ****     }
 160:../libs/PoliTeKDSP/libs/libDaisy/src/hid/disp/graphics_common.h **** 
 161:../libs/PoliTeKDSP/libs/libDaisy/src/hid/disp/graphics_common.h ****     Rectangle WithCenterX(int16_t centerX) const
 162:../libs/PoliTeKDSP/libs/libDaisy/src/hid/disp/graphics_common.h ****     {
 163:../libs/PoliTeKDSP/libs/libDaisy/src/hid/disp/graphics_common.h ****         return {int16_t(x_ + centerX - GetCenterX()), y_, width_, height_};
 164:../libs/PoliTeKDSP/libs/libDaisy/src/hid/disp/graphics_common.h ****     }
 165:../libs/PoliTeKDSP/libs/libDaisy/src/hid/disp/graphics_common.h **** 
 166:../libs/PoliTeKDSP/libs/libDaisy/src/hid/disp/graphics_common.h ****     Rectangle WithCenterY(int16_t centerY) const
 167:../libs/PoliTeKDSP/libs/libDaisy/src/hid/disp/graphics_common.h ****     {
 168:../libs/PoliTeKDSP/libs/libDaisy/src/hid/disp/graphics_common.h ****         return {x_, int16_t(y_ + centerY - GetCenterY()), width_, height_};
 169:../libs/PoliTeKDSP/libs/libDaisy/src/hid/disp/graphics_common.h ****     }
 170:../libs/PoliTeKDSP/libs/libDaisy/src/hid/disp/graphics_common.h **** 
 171:../libs/PoliTeKDSP/libs/libDaisy/src/hid/disp/graphics_common.h ****     Rectangle WithCenter(int16_t centerX, int16_t centerY) const
 172:../libs/PoliTeKDSP/libs/libDaisy/src/hid/disp/graphics_common.h ****     {
 173:../libs/PoliTeKDSP/libs/libDaisy/src/hid/disp/graphics_common.h ****         return {int16_t(x_ + centerX - GetCenterX()),
 174:../libs/PoliTeKDSP/libs/libDaisy/src/hid/disp/graphics_common.h ****                 int16_t(y_ + centerY - GetCenterY()),
 175:../libs/PoliTeKDSP/libs/libDaisy/src/hid/disp/graphics_common.h ****                 width_,
 176:../libs/PoliTeKDSP/libs/libDaisy/src/hid/disp/graphics_common.h ****                 height_};
 177:../libs/PoliTeKDSP/libs/libDaisy/src/hid/disp/graphics_common.h ****     }
 178:../libs/PoliTeKDSP/libs/libDaisy/src/hid/disp/graphics_common.h **** 
 179:../libs/PoliTeKDSP/libs/libDaisy/src/hid/disp/graphics_common.h ****     Rectangle RemoveFromLeft(int16_t pxToRemove)
 180:../libs/PoliTeKDSP/libs/libDaisy/src/hid/disp/graphics_common.h ****     {
 181:../libs/PoliTeKDSP/libs/libDaisy/src/hid/disp/graphics_common.h ****         const auto result = this->WithWidth(min(pxToRemove, width_));
 182:../libs/PoliTeKDSP/libs/libDaisy/src/hid/disp/graphics_common.h ****         x_ += min(pxToRemove, width_);
 183:../libs/PoliTeKDSP/libs/libDaisy/src/hid/disp/graphics_common.h ****         width_ = max(int16_t(width_ - pxToRemove), 0);
 184:../libs/PoliTeKDSP/libs/libDaisy/src/hid/disp/graphics_common.h ****         return result;
 185:../libs/PoliTeKDSP/libs/libDaisy/src/hid/disp/graphics_common.h ****     }
 186:../libs/PoliTeKDSP/libs/libDaisy/src/hid/disp/graphics_common.h **** 
 187:../libs/PoliTeKDSP/libs/libDaisy/src/hid/disp/graphics_common.h ****     Rectangle RemoveFromRight(int16_t pxToRemove)
 188:../libs/PoliTeKDSP/libs/libDaisy/src/hid/disp/graphics_common.h ****     {
 189:../libs/PoliTeKDSP/libs/libDaisy/src/hid/disp/graphics_common.h ****         const auto canRemove = min(pxToRemove, width_);
 190:../libs/PoliTeKDSP/libs/libDaisy/src/hid/disp/graphics_common.h ****         width_ -= canRemove;
 191:../libs/PoliTeKDSP/libs/libDaisy/src/hid/disp/graphics_common.h ****         return {int16_t(x_ + width_), y_, canRemove, height_};
ARM GAS  C:\Users\skipi\AppData\Local\Temp\ccpgF6Mp.s 			page 62


 192:../libs/PoliTeKDSP/libs/libDaisy/src/hid/disp/graphics_common.h ****     }
 193:../libs/PoliTeKDSP/libs/libDaisy/src/hid/disp/graphics_common.h **** 
 194:../libs/PoliTeKDSP/libs/libDaisy/src/hid/disp/graphics_common.h ****     Rectangle RemoveFromTop(int16_t pxToRemove)
 195:../libs/PoliTeKDSP/libs/libDaisy/src/hid/disp/graphics_common.h ****     {
 196:../libs/PoliTeKDSP/libs/libDaisy/src/hid/disp/graphics_common.h ****         const auto result = this->WithHeight(min(pxToRemove, height_));
 197:../libs/PoliTeKDSP/libs/libDaisy/src/hid/disp/graphics_common.h ****         y_ += min(pxToRemove, height_);
 198:../libs/PoliTeKDSP/libs/libDaisy/src/hid/disp/graphics_common.h ****         height_ = max(height_ - pxToRemove, 0);
 199:../libs/PoliTeKDSP/libs/libDaisy/src/hid/disp/graphics_common.h ****         return result;
 200:../libs/PoliTeKDSP/libs/libDaisy/src/hid/disp/graphics_common.h ****     }
 201:../libs/PoliTeKDSP/libs/libDaisy/src/hid/disp/graphics_common.h **** 
 202:../libs/PoliTeKDSP/libs/libDaisy/src/hid/disp/graphics_common.h ****     Rectangle RemoveFromBottom(int16_t pxToRemove)
 203:../libs/PoliTeKDSP/libs/libDaisy/src/hid/disp/graphics_common.h ****     {
 204:../libs/PoliTeKDSP/libs/libDaisy/src/hid/disp/graphics_common.h ****         const auto canRemove = min(pxToRemove, height_);
 205:../libs/PoliTeKDSP/libs/libDaisy/src/hid/disp/graphics_common.h ****         height_ -= canRemove;
 206:../libs/PoliTeKDSP/libs/libDaisy/src/hid/disp/graphics_common.h ****         return {x_, int16_t(y_ + height_), width_, canRemove};
 207:../libs/PoliTeKDSP/libs/libDaisy/src/hid/disp/graphics_common.h ****     }
 208:../libs/PoliTeKDSP/libs/libDaisy/src/hid/disp/graphics_common.h **** 
 209:../libs/PoliTeKDSP/libs/libDaisy/src/hid/disp/graphics_common.h ****     Rectangle AlignedWithin(const Rectangle& other, Alignment alignment) const
 210:../libs/PoliTeKDSP/libs/libDaisy/src/hid/disp/graphics_common.h ****     {
 211:../libs/PoliTeKDSP/libs/libDaisy/src/hid/disp/graphics_common.h ****         switch(alignment)
 212:../libs/PoliTeKDSP/libs/libDaisy/src/hid/disp/graphics_common.h ****         {
 213:../libs/PoliTeKDSP/libs/libDaisy/src/hid/disp/graphics_common.h ****             case Alignment::topLeft:
 214:../libs/PoliTeKDSP/libs/libDaisy/src/hid/disp/graphics_common.h ****                 return {other.x_, other.y_, width_, height_};
 215:../libs/PoliTeKDSP/libs/libDaisy/src/hid/disp/graphics_common.h ****             case Alignment::topRight:
 216:../libs/PoliTeKDSP/libs/libDaisy/src/hid/disp/graphics_common.h ****                 return {int16_t(other.GetRight() - width_),
 217:../libs/PoliTeKDSP/libs/libDaisy/src/hid/disp/graphics_common.h ****                         other.y_,
 218:../libs/PoliTeKDSP/libs/libDaisy/src/hid/disp/graphics_common.h ****                         width_,
 219:../libs/PoliTeKDSP/libs/libDaisy/src/hid/disp/graphics_common.h ****                         height_};
 220:../libs/PoliTeKDSP/libs/libDaisy/src/hid/disp/graphics_common.h ****             case Alignment::topCentered:
 221:../libs/PoliTeKDSP/libs/libDaisy/src/hid/disp/graphics_common.h ****                 return {int16_t(x_ + (other.GetCenterX() - GetCenterX())),
 222:../libs/PoliTeKDSP/libs/libDaisy/src/hid/disp/graphics_common.h ****                         other.y_,
 223:../libs/PoliTeKDSP/libs/libDaisy/src/hid/disp/graphics_common.h ****                         width_,
 224:../libs/PoliTeKDSP/libs/libDaisy/src/hid/disp/graphics_common.h ****                         height_};
 225:../libs/PoliTeKDSP/libs/libDaisy/src/hid/disp/graphics_common.h ****             case Alignment::bottomLeft:
 226:../libs/PoliTeKDSP/libs/libDaisy/src/hid/disp/graphics_common.h ****                 return {other.x_,
 227:../libs/PoliTeKDSP/libs/libDaisy/src/hid/disp/graphics_common.h ****                         int16_t(other.GetBottom() - height_),
 228:../libs/PoliTeKDSP/libs/libDaisy/src/hid/disp/graphics_common.h ****                         width_,
 229:../libs/PoliTeKDSP/libs/libDaisy/src/hid/disp/graphics_common.h ****                         height_};
 230:../libs/PoliTeKDSP/libs/libDaisy/src/hid/disp/graphics_common.h ****             case Alignment::bottomRight:
 231:../libs/PoliTeKDSP/libs/libDaisy/src/hid/disp/graphics_common.h ****                 return {int16_t(other.GetRight() - width_),
 232:../libs/PoliTeKDSP/libs/libDaisy/src/hid/disp/graphics_common.h ****                         int16_t(other.GetBottom() - height_),
 233:../libs/PoliTeKDSP/libs/libDaisy/src/hid/disp/graphics_common.h ****                         width_,
 234:../libs/PoliTeKDSP/libs/libDaisy/src/hid/disp/graphics_common.h ****                         height_};
 235:../libs/PoliTeKDSP/libs/libDaisy/src/hid/disp/graphics_common.h ****             case Alignment::bottomCentered:
 236:../libs/PoliTeKDSP/libs/libDaisy/src/hid/disp/graphics_common.h ****                 return {int16_t(x_ + (other.GetCenterX() - GetCenterX())),
 237:../libs/PoliTeKDSP/libs/libDaisy/src/hid/disp/graphics_common.h ****                         int16_t(other.GetBottom() - height_),
 238:../libs/PoliTeKDSP/libs/libDaisy/src/hid/disp/graphics_common.h ****                         width_,
 239:../libs/PoliTeKDSP/libs/libDaisy/src/hid/disp/graphics_common.h ****                         height_};
 240:../libs/PoliTeKDSP/libs/libDaisy/src/hid/disp/graphics_common.h ****             case Alignment::centeredLeft:
 241:../libs/PoliTeKDSP/libs/libDaisy/src/hid/disp/graphics_common.h ****                 return {other.x_,
 242:../libs/PoliTeKDSP/libs/libDaisy/src/hid/disp/graphics_common.h ****                         int16_t(y_ + (other.GetCenterY() - GetCenterY())),
 243:../libs/PoliTeKDSP/libs/libDaisy/src/hid/disp/graphics_common.h ****                         width_,
 244:../libs/PoliTeKDSP/libs/libDaisy/src/hid/disp/graphics_common.h ****                         height_};
 245:../libs/PoliTeKDSP/libs/libDaisy/src/hid/disp/graphics_common.h ****             case Alignment::centeredRight:
 246:../libs/PoliTeKDSP/libs/libDaisy/src/hid/disp/graphics_common.h ****                 return {int16_t(other.GetRight() - width_),
 247:../libs/PoliTeKDSP/libs/libDaisy/src/hid/disp/graphics_common.h ****                         int16_t(y_ + (other.GetCenterY() - GetCenterY())),
 248:../libs/PoliTeKDSP/libs/libDaisy/src/hid/disp/graphics_common.h ****                         width_,
ARM GAS  C:\Users\skipi\AppData\Local\Temp\ccpgF6Mp.s 			page 63


 249:../libs/PoliTeKDSP/libs/libDaisy/src/hid/disp/graphics_common.h ****                         height_};
 250:../libs/PoliTeKDSP/libs/libDaisy/src/hid/disp/graphics_common.h ****             case Alignment::centered:
 251:../libs/PoliTeKDSP/libs/libDaisy/src/hid/disp/graphics_common.h ****                 return {int16_t(x_ + (other.GetCenterX() - GetCenterX())),
 252:../libs/PoliTeKDSP/libs/libDaisy/src/hid/disp/graphics_common.h ****                         int16_t(y_ + (other.GetCenterY() - GetCenterY())),
 253:../libs/PoliTeKDSP/libs/libDaisy/src/hid/disp/graphics_common.h ****                         width_,
 254:../libs/PoliTeKDSP/libs/libDaisy/src/hid/disp/graphics_common.h ****                         height_};
 255:../libs/PoliTeKDSP/libs/libDaisy/src/hid/disp/graphics_common.h ****             default: return {};
 256:../libs/PoliTeKDSP/libs/libDaisy/src/hid/disp/graphics_common.h ****         }
 257:../libs/PoliTeKDSP/libs/libDaisy/src/hid/disp/graphics_common.h ****     }
 258:../libs/PoliTeKDSP/libs/libDaisy/src/hid/disp/graphics_common.h **** 
 259:../libs/PoliTeKDSP/libs/libDaisy/src/hid/disp/graphics_common.h ****   private:
 260:../libs/PoliTeKDSP/libs/libDaisy/src/hid/disp/graphics_common.h ****     int16_t x_, y_, width_, height_;
 261:../libs/PoliTeKDSP/libs/libDaisy/src/hid/disp/graphics_common.h ****     int16_t max(int16_t a, int16_t b) { return (a > b) ? a : b; }
 1639              		.loc 13 261 13 view .LVU346
 1640              	.LBE908:
 1641              	.LBE907:
 1642              	.LBE913:
 1643              	.LBE917:
 1644              		.loc 13 261 41 view .LVU347
 1645              	.LBB918:
 1646              	.LBB914:
 1647              	.LBB910:
 1648              	.LBB909:
 1649              	.LBI909:
 1650              		.loc 13 261 13 view .LVU348
 1651              	.LBE909:
 1652              	.LBE910:
 1653              	.LBE914:
 1654              	.LBE918:
 1655              		.loc 13 261 41 view .LVU349
 1656              	.LBB919:
 1657              	.LBI919:
 209:../libs/PoliTeKDSP/libs/libDaisy/src/hid/disp/graphics_common.h ****     {
 1658              		.loc 13 209 15 view .LVU350
 1659              	.LBB920:
 211:../libs/PoliTeKDSP/libs/libDaisy/src/hid/disp/graphics_common.h ****         {
 1660              		.loc 13 211 9 view .LVU351
 1661 0036 1BB2     		sxth	r3, r3
 1662 0038 23EAE373 		bic	r3, r3, r3, asr #31
 1663 003c 0829     		cmp	r1, #8
 1664 003e 00F2A981 		bhi	.L119
 1665 0042 DFE811F0 		tbh	[pc, r1, lsl #1]
 1666              	.L121:
 1667 0046 0201     		.2byte	(.L129-.L121)/2
 1668 0048 1401     		.2byte	(.L128-.L121)/2
 1669 004a 2001     		.2byte	(.L127-.L121)/2
 1670 004c 3401     		.2byte	(.L126-.L121)/2
 1671 004e 4201     		.2byte	(.L125-.L121)/2
 1672 0050 5001     		.2byte	(.L124-.L121)/2
 1673 0052 6701     		.2byte	(.L123-.L121)/2
 1674 0054 7101     		.2byte	(.L122-.L121)/2
 1675 0056 0900     		.2byte	(.L120-.L121)/2
 1676              		.p2align 1
 1677              	.L120:
 245:../libs/PoliTeKDSP/libs/libDaisy/src/hid/disp/graphics_common.h ****                 return {int16_t(other.GetRight() - width_),
 1678              		.loc 13 245 13 view .LVU352
 246:../libs/PoliTeKDSP/libs/libDaisy/src/hid/disp/graphics_common.h ****                         int16_t(y_ + (other.GetCenterY() - GetCenterY())),
ARM GAS  C:\Users\skipi\AppData\Local\Temp\ccpgF6Mp.s 			page 64


 1679              		.loc 13 246 17 view .LVU353
 1680              	.LVL122:
 1681              	.LBB921:
 1682              	.LBI921:
  60:../libs/PoliTeKDSP/libs/libDaisy/src/hid/disp/graphics_common.h ****     int16_t GetBottom() const { return y_ + height_; }
 1683              		.loc 13 60 13 view .LVU354
 1684              	.LBB922:
  60:../libs/PoliTeKDSP/libs/libDaisy/src/hid/disp/graphics_common.h ****     int16_t GetBottom() const { return y_ + height_; }
 1685              		.loc 13 60 32 view .LVU355
  60:../libs/PoliTeKDSP/libs/libDaisy/src/hid/disp/graphics_common.h ****     int16_t GetBottom() const { return y_ + height_; }
 1686              		.loc 13 60 42 is_stmt 0 view .LVU356
 1687 0058 A188     		ldrh	r1, [r4, #4]
 1688              	.LVL123:
  60:../libs/PoliTeKDSP/libs/libDaisy/src/hid/disp/graphics_common.h ****     int16_t GetBottom() const { return y_ + height_; }
 1689              		.loc 13 60 42 view .LVU357
 1690 005a 2788     		ldrh	r7, [r4]
 1691 005c 0F44     		add	r7, r7, r1
 1692              	.LBE922:
 1693              	.LBE921:
 1694              	.LBB923:
 1695              	.LBB924:
  63:../libs/PoliTeKDSP/libs/libDaisy/src/hid/disp/graphics_common.h **** 
 1696              		.loc 13 63 54 view .LVU358
 1697 005e B4F90610 		ldrsh	r1, [r4, #6]
 1698              	.LBE924:
 1699              	.LBE923:
 246:../libs/PoliTeKDSP/libs/libDaisy/src/hid/disp/graphics_common.h ****                         int16_t(y_ + (other.GetCenterY() - GetCenterY())),
 1700              		.loc 13 246 50 view .LVU359
 1701 0062 FF1A     		subs	r7, r7, r3
 1702              	.LBB928:
 1703              	.LBB925:
  63:../libs/PoliTeKDSP/libs/libDaisy/src/hid/disp/graphics_common.h **** 
 1704              		.loc 13 63 54 view .LVU360
 1705 0064 0029     		cmp	r1, #0
 1706              	.LBE925:
 1707              	.LBE928:
 246:../libs/PoliTeKDSP/libs/libDaisy/src/hid/disp/graphics_common.h ****                         int16_t(y_ + (other.GetCenterY() - GetCenterY())),
 1708              		.loc 13 246 50 view .LVU361
 1709 0066 BFB2     		uxth	r7, r7
 1710              	.LVL124:
 1711              	.LBB929:
 1712              	.LBI923:
  63:../libs/PoliTeKDSP/libs/libDaisy/src/hid/disp/graphics_common.h **** 
 1713              		.loc 13 63 13 is_stmt 1 view .LVU362
 1714              	.LBB926:
  63:../libs/PoliTeKDSP/libs/libDaisy/src/hid/disp/graphics_common.h **** 
 1715              		.loc 13 63 34 view .LVU363
  63:../libs/PoliTeKDSP/libs/libDaisy/src/hid/disp/graphics_common.h **** 
 1716              		.loc 13 63 34 is_stmt 0 view .LVU364
 1717              	.LBE926:
 1718              	.LBE929:
 1719              	.LBB930:
 1720              	.LBI930:
  63:../libs/PoliTeKDSP/libs/libDaisy/src/hid/disp/graphics_common.h **** 
 1721              		.loc 13 63 13 is_stmt 1 view .LVU365
 1722              	.LBB931:
  63:../libs/PoliTeKDSP/libs/libDaisy/src/hid/disp/graphics_common.h **** 
ARM GAS  C:\Users\skipi\AppData\Local\Temp\ccpgF6Mp.s 			page 65


 1723              		.loc 13 63 34 view .LVU366
  63:../libs/PoliTeKDSP/libs/libDaisy/src/hid/disp/graphics_common.h **** 
 1724              		.loc 13 63 34 is_stmt 0 view .LVU367
 1725              	.LBE931:
 1726              	.LBE930:
 1727              	.LBB932:
 1728              	.LBB927:
  63:../libs/PoliTeKDSP/libs/libDaisy/src/hid/disp/graphics_common.h **** 
 1729              		.loc 13 63 54 view .LVU368
 1730 0068 C0F2FF80 		blt	.L192
 1731              	.L136:
  63:../libs/PoliTeKDSP/libs/libDaisy/src/hid/disp/graphics_common.h **** 
 1732              		.loc 13 63 54 view .LVU369
 1733              	.LBE927:
 1734              	.LBE932:
 1735              	.LBB933:
 1736              	.LBB934:
  63:../libs/PoliTeKDSP/libs/libDaisy/src/hid/disp/graphics_common.h **** 
 1737              		.loc 13 63 44 view .LVU370
 1738 006c B4F802C0 		ldrh	ip, [r4, #2]
 1739              	.LBE934:
 1740              	.LBE933:
 1741              	.LBB940:
 1742              	.LBB941:
 1743              	.LBB942:
  32:../libs/PoliTeKDSP/libs/libDaisy/src/hid/disp/graphics_common.h ****     {
 1744              		.loc 13 32 66 view .LVU371
 1745 0070 0698     		ldr	r0, [sp, #24]
 1746              	.LBE942:
 1747              	.LBE941:
 1748              	.LBE940:
 1749              	.LBB953:
 1750              	.LBB935:
  63:../libs/PoliTeKDSP/libs/libDaisy/src/hid/disp/graphics_common.h **** 
 1751              		.loc 13 63 44 view .LVU372
 1752 0072 0CEB6104 		add	r4, ip, r1, asr #1
 1753              	.LVL125:
  63:../libs/PoliTeKDSP/libs/libDaisy/src/hid/disp/graphics_common.h **** 
 1754              		.loc 13 63 44 view .LVU373
 1755              	.LBE935:
 1756              	.LBE953:
 1757              	.LBB954:
 1758              	.LBB949:
 1759              	.LBB945:
  32:../libs/PoliTeKDSP/libs/libDaisy/src/hid/disp/graphics_common.h ****     {
 1760              		.loc 13 32 66 view .LVU374
 1761 0076 C280     		strh	r2, [r0, #6]	@ movhi
 1762              	.LBE945:
 1763              	.LBE949:
 1764              	.LBE954:
 252:../libs/PoliTeKDSP/libs/libDaisy/src/hid/disp/graphics_common.h ****                         width_,
 1765              		.loc 13 252 58 view .LVU375
 1766 0078 A4EB5202 		sub	r2, r4, r2, lsr #1
 1767              	.LBB955:
 1768              	.LBB950:
 1769              	.LBB946:
  32:../libs/PoliTeKDSP/libs/libDaisy/src/hid/disp/graphics_common.h ****     {
ARM GAS  C:\Users\skipi\AppData\Local\Temp\ccpgF6Mp.s 			page 66


 1770              		.loc 13 32 66 view .LVU376
 1771 007c 8380     		strh	r3, [r0, #4]	@ movhi
 1772 007e 0780     		strh	r7, [r0]	@ movhi
 1773              	.LBE946:
 1774              	.LBE950:
 1775              	.LBE955:
 252:../libs/PoliTeKDSP/libs/libDaisy/src/hid/disp/graphics_common.h ****                         width_,
 1776              		.loc 13 252 58 view .LVU377
 1777 0080 94B2     		uxth	r4, r2
 1778              	.LVL126:
 1779              	.LBB956:
 1780              	.LBI940:
  31:../libs/PoliTeKDSP/libs/libDaisy/src/hid/disp/graphics_common.h ****     : x_(x), y_(y), width_(max(0, width)), height_(max(0, height))
 1781              		.loc 13 31 5 is_stmt 1 view .LVU378
 1782              	.LBB951:
 1783              	.LBB947:
  32:../libs/PoliTeKDSP/libs/libDaisy/src/hid/disp/graphics_common.h ****     {
 1784              		.loc 13 32 66 is_stmt 0 view .LVU379
 1785 0082 4480     		strh	r4, [r0, #2]	@ movhi
 1786              	.LVL127:
 1787              	.LBB943:
 1788              	.LBI943:
 1789              		.loc 13 261 13 is_stmt 1 view .LVU380
 1790              	.LBE943:
 1791              	.LBE947:
 1792              	.LBE951:
 1793              	.LBE956:
 1794              	.LBE920:
 1795              	.LBE919:
 1796              		.loc 13 261 41 view .LVU381
 1797              	.LBB1143:
 1798              	.LBB1121:
 1799              	.LBB957:
 1800              	.LBB952:
 1801              	.LBB948:
 1802              	.LBB944:
 1803              	.LBI944:
 1804              		.loc 13 261 13 view .LVU382
 1805              	.LBE944:
 1806              	.LBE948:
 1807              	.LBE952:
 1808              	.LBE957:
 1809              	.LBE1121:
 1810              	.LBE1143:
 1811              		.loc 13 261 41 view .LVU383
 1812              	.L130:
  56:../libs/PoliTeKDSP/libs/libDaisy/src/hid/disp/graphics_common.h ****     int16_t GetY() const { return y_; }
 1813              		.loc 13 56 28 view .LVU384
  57:../libs/PoliTeKDSP/libs/libDaisy/src/hid/disp/graphics_common.h ****     int16_t GetWidth() const { return width_; }
 1814              		.loc 13 57 28 view .LVU385
 1815              	.LBB1144:
 1816              	.LBI1144:
 171:../libs/PoliTeKDSP/libs/libDaisy/src/hid/disp/display.h ****     {
 1817              		.loc 10 171 10 view .LVU386
 1818              	.LBB1145:
 173:../libs/PoliTeKDSP/libs/libDaisy/src/hid/disp/display.h ****         currentY_ = (y >= Height()) ? Height() - 1 : y;
 1819              		.loc 10 173 9 view .LVU387
ARM GAS  C:\Users\skipi\AppData\Local\Temp\ccpgF6Mp.s 			page 67


 1820 0084 A64A     		ldr	r2, .L202
 173:../libs/PoliTeKDSP/libs/libDaisy/src/hid/disp/display.h ****         currentY_ = (y >= Height()) ? Height() - 1 : y;
 1821              		.loc 10 173 33 is_stmt 0 view .LVU388
 1822 0086 D8F80030 		ldr	r3, [r8]
 1823 008a 1146     		mov	r1, r2
 1824 008c 0192     		str	r2, [sp, #4]
 1825 008e DA68     		ldr	r2, [r3, #12]
 1826 0090 8A42     		cmp	r2, r1
 1827 0092 40F08D81 		bne	.L138
 1828 0096 8020     		movs	r0, #128
 1829              	.LVL128:
 1830              	.L139:
 173:../libs/PoliTeKDSP/libs/libDaisy/src/hid/disp/display.h ****         currentY_ = (y >= Height()) ? Height() - 1 : y;
 1831              		.loc 10 173 19 view .LVU389
 1832 0098 B842     		cmp	r0, r7
 1833 009a 05D8     		bhi	.L140
 173:../libs/PoliTeKDSP/libs/libDaisy/src/hid/disp/display.h ****         currentY_ = (y >= Height()) ? Height() - 1 : y;
 1834              		.loc 10 173 44 view .LVU390
 1835 009c DA68     		ldr	r2, [r3, #12]
 1836 009e 0199     		ldr	r1, [sp, #4]
 1837 00a0 8A42     		cmp	r2, r1
 1838 00a2 40F09A81 		bne	.L193
 1839 00a6 7F27     		movs	r7, #127
 1840              	.L140:
 1841 00a8 9E4A     		ldr	r2, .L202+4
 174:../libs/PoliTeKDSP/libs/libDaisy/src/hid/disp/display.h ****     }
 1842              		.loc 10 174 34 view .LVU391
 1843 00aa 9B68     		ldr	r3, [r3, #8]
 173:../libs/PoliTeKDSP/libs/libDaisy/src/hid/disp/display.h ****         currentY_ = (y >= Height()) ? Height() - 1 : y;
 1844              		.loc 10 173 19 view .LVU392
 1845 00ac A8F80470 		strh	r7, [r8, #4]	@ movhi
 174:../libs/PoliTeKDSP/libs/libDaisy/src/hid/disp/display.h ****     }
 1846              		.loc 10 174 9 is_stmt 1 view .LVU393
 1847 00b0 9342     		cmp	r3, r2
 1848 00b2 0392     		str	r2, [sp, #12]
 1849 00b4 40F08981 		bne	.L170
 174:../libs/PoliTeKDSP/libs/libDaisy/src/hid/disp/display.h ****     }
 1850              		.loc 10 174 34 is_stmt 0 view .LVU394
 1851 00b8 4020     		movs	r0, #64
 1852              	.L142:
 174:../libs/PoliTeKDSP/libs/libDaisy/src/hid/disp/display.h ****     }
 1853              		.loc 10 174 19 view .LVU395
 1854 00ba A042     		cmp	r0, r4
 1855 00bc 07D8     		bhi	.L144
 174:../libs/PoliTeKDSP/libs/libDaisy/src/hid/disp/display.h ****     }
 1856              		.loc 10 174 46 view .LVU396
 1857 00be D8F80030 		ldr	r3, [r8]
 1858 00c2 039A     		ldr	r2, [sp, #12]
 1859 00c4 9B68     		ldr	r3, [r3, #8]
 1860 00c6 9342     		cmp	r3, r2
 1861 00c8 40F08281 		bne	.L194
 1862 00cc 3F24     		movs	r4, #63
 1863              	.L144:
 174:../libs/PoliTeKDSP/libs/libDaisy/src/hid/disp/display.h ****     }
 1864              		.loc 10 174 46 view .LVU397
 1865              	.LBE1145:
 1866              	.LBE1144:
ARM GAS  C:\Users\skipi\AppData\Local\Temp\ccpgF6Mp.s 			page 68


 1867              	.LBB1149:
 1868              	.LBB1150:
 448:../libs/PoliTeKDSP/libs/libDaisy/src/hid/disp/display.h ****         {
 1869              		.loc 10 448 9 view .LVU398
 1870 00ce 009B     		ldr	r3, [sp]
 1871              	.LBE1150:
 1872              	.LBE1149:
 1873              	.LBB1198:
 1874              	.LBB1146:
 174:../libs/PoliTeKDSP/libs/libDaisy/src/hid/disp/display.h ****     }
 1875              		.loc 10 174 19 view .LVU399
 1876 00d0 A8F80640 		strh	r4, [r8, #6]	@ movhi
 1877              	.LVL129:
 174:../libs/PoliTeKDSP/libs/libDaisy/src/hid/disp/display.h ****     }
 1878              		.loc 10 174 19 view .LVU400
 1879              	.LBE1146:
 1880              	.LBE1198:
 1881              	.LBB1199:
 1882              	.LBB1195:
 448:../libs/PoliTeKDSP/libs/libDaisy/src/hid/disp/display.h ****         {
 1883              		.loc 10 448 9 view .LVU401
 1884 00d4 93F800B0 		ldrb	fp, [r3]	@ zero_extendqisi2
 1885 00d8 6B78     		ldrb	r3, [r5, #1]	@ zero_extendqisi2
 1886              	.LVL130:
 448:../libs/PoliTeKDSP/libs/libDaisy/src/hid/disp/display.h ****         {
 1887              		.loc 10 448 9 view .LVU402
 1888 00da 2C78     		ldrb	r4, [r5]	@ zero_extendqisi2
 1889              	.LVL131:
 448:../libs/PoliTeKDSP/libs/libDaisy/src/hid/disp/display.h ****         {
 1890              		.loc 10 448 9 view .LVU403
 1891 00dc 0493     		str	r3, [sp, #16]
 1892              	.LVL132:
 448:../libs/PoliTeKDSP/libs/libDaisy/src/hid/disp/display.h ****         {
 1893              		.loc 10 448 9 view .LVU404
 1894 00de 6B68     		ldr	r3, [r5, #4]
 1895 00e0 0793     		str	r3, [sp, #28]
 1896              	.LVL133:
 448:../libs/PoliTeKDSP/libs/libDaisy/src/hid/disp/display.h ****         {
 1897              		.loc 10 448 9 view .LVU405
 1898              	.LBE1195:
 1899              	.LBI1149:
 445:../libs/PoliTeKDSP/libs/libDaisy/src/hid/disp/display.h ****     {
 1900              		.loc 10 445 10 is_stmt 1 view .LVU406
 1901              	.LBB1196:
 448:../libs/PoliTeKDSP/libs/libDaisy/src/hid/disp/display.h ****         {
 1902              		.loc 10 448 9 view .LVU407
 1903 00e2 BBF1000F 		cmp	fp, #0
 1904 00e6 00F0AC80 		beq	.L116
 1905              	.LVL134:
 1906              	.L146:
 1907              	.LBB1151:
 1908              	.LBI1151:
 401:../libs/PoliTeKDSP/libs/libDaisy/src/hid/disp/display.h ****     {
 1909              		.loc 10 401 10 view .LVU408
 1910              	.LBB1152:
 406:../libs/PoliTeKDSP/libs/libDaisy/src/hid/disp/display.h ****             return 0;
 1911              		.loc 10 406 20 is_stmt 0 view .LVU409
ARM GAS  C:\Users\skipi\AppData\Local\Temp\ccpgF6Mp.s 			page 69


 1912 00ea ABF12005 		sub	r5, fp, #32
 406:../libs/PoliTeKDSP/libs/libDaisy/src/hid/disp/display.h ****             return 0;
 1913              		.loc 10 406 9 view .LVU410
 1914 00ee EBB2     		uxtb	r3, r5
 1915 00f0 5E2B     		cmp	r3, #94
 1916 00f2 00F22E81 		bhi	.L150
 410:../libs/PoliTeKDSP/libs/libDaisy/src/hid/disp/display.h ****            || Height() < (currentY_ + font.FontHeight))
 1917              		.loc 10 410 17 view .LVU411
 1918 00f6 D8F80030 		ldr	r3, [r8]
 1919 00fa 019A     		ldr	r2, [sp, #4]
 1920 00fc DB68     		ldr	r3, [r3, #12]
 1921 00fe 9342     		cmp	r3, r2
 1922 0100 40F02A81 		bne	.L195
 1923 0104 8020     		movs	r0, #128
 1924              	.L149:
 410:../libs/PoliTeKDSP/libs/libDaisy/src/hid/disp/display.h ****            || Height() < (currentY_ + font.FontHeight))
 1925              		.loc 10 410 23 view .LVU412
 1926 0106 B8F80430 		ldrh	r3, [r8, #4]
 410:../libs/PoliTeKDSP/libs/libDaisy/src/hid/disp/display.h ****            || Height() < (currentY_ + font.FontHeight))
 1927              		.loc 10 410 33 view .LVU413
 1928 010a 2344     		add	r3, r3, r4
 411:../libs/PoliTeKDSP/libs/libDaisy/src/hid/disp/display.h ****         {
 1929              		.loc 10 411 12 view .LVU414
 1930 010c 9842     		cmp	r0, r3
 1931 010e C0F22081 		blt	.L150
 411:../libs/PoliTeKDSP/libs/libDaisy/src/hid/disp/display.h ****         {
 1932              		.loc 10 411 21 view .LVU415
 1933 0112 D8F80030 		ldr	r3, [r8]
 1934 0116 039A     		ldr	r2, [sp, #12]
 1935 0118 9B68     		ldr	r3, [r3, #8]
 1936 011a 9342     		cmp	r3, r2
 1937 011c 40F01F81 		bne	.L196
 1938 0120 4020     		movs	r0, #64
 1939              	.L151:
 411:../libs/PoliTeKDSP/libs/libDaisy/src/hid/disp/display.h ****         {
 1940              		.loc 10 411 27 view .LVU416
 1941 0122 B8F80610 		ldrh	r1, [r8, #6]
 411:../libs/PoliTeKDSP/libs/libDaisy/src/hid/disp/display.h ****         {
 1942              		.loc 10 411 37 view .LVU417
 1943 0126 049A     		ldr	r2, [sp, #16]
 411:../libs/PoliTeKDSP/libs/libDaisy/src/hid/disp/display.h ****         {
 1944              		.loc 10 411 27 view .LVU418
 1945 0128 0291     		str	r1, [sp, #8]
 411:../libs/PoliTeKDSP/libs/libDaisy/src/hid/disp/display.h ****         {
 1946              		.loc 10 411 37 view .LVU419
 1947 012a 8B18     		adds	r3, r1, r2
 411:../libs/PoliTeKDSP/libs/libDaisy/src/hid/disp/display.h ****         {
 1948              		.loc 10 411 12 view .LVU420
 1949 012c 9842     		cmp	r0, r3
 1950 012e C0F21081 		blt	.L150
 1951              	.LVL135:
 418:../libs/PoliTeKDSP/libs/libDaisy/src/hid/disp/display.h ****         {
 1952              		.loc 10 418 22 is_stmt 1 view .LVU421
 1953 0132 002A     		cmp	r2, #0
 1954 0134 00F01E81 		beq	.L152
 420:../libs/PoliTeKDSP/libs/libDaisy/src/hid/disp/display.h ****             for(j = 0; j < font.FontWidth; j++)
 1955              		.loc 10 420 37 is_stmt 0 view .LVU422
ARM GAS  C:\Users\skipi\AppData\Local\Temp\ccpgF6Mp.s 			page 70


 1956 0138 02FB05F5 		mul	r5, r2, r5
 1957 013c 6FF0004E 		mvn	lr, #-2147483648
 1958 0140 079B     		ldr	r3, [sp, #28]
 1959 0142 AE44     		add	lr, lr, r5
 1960 0144 1544     		add	r5, r5, r2
 1961 0146 CDF814B0 		str	fp, [sp, #20]
 1962 014a 03EB4E0E 		add	lr, r3, lr, lsl #1
 1963 014e 023B     		subs	r3, r3, #2
 439:../libs/PoliTeKDSP/libs/libDaisy/src/hid/disp/display.h **** 
 1964              		.loc 10 439 19 view .LVU423
 1965 0150 B8F804A0 		ldrh	r10, [r8, #4]
 1966 0154 03EB4503 		add	r3, r3, r5, lsl #1
 1967 0158 0D46     		mov	r5, r1
 1968 015a 9B46     		mov	fp, r3
 1969              	.LVL136:
 1970              	.L155:
 420:../libs/PoliTeKDSP/libs/libDaisy/src/hid/disp/display.h ****             for(j = 0; j < font.FontWidth; j++)
 1971              		.loc 10 420 15 view .LVU424
 1972 015c 3EF8027F 		ldrh	r7, [lr, #2]!
 1973              	.LVL137:
 421:../libs/PoliTeKDSP/libs/libDaisy/src/hid/disp/display.h ****             {
 1974              		.loc 10 421 26 is_stmt 1 view .LVU425
 1975 0160 A4B3     		cbz	r4, .L160
 1976              	.LBB1153:
 1977              	.LBB1154:
 1978              	.LBB1155:
 1979              	.LBB1156:
 1980              	.LBB1157:
 368:Display/../../libs/PoliTeKDSP/libs/libDaisy/src/dev/oled_ssd130x.h ****     }
 1981              		.loc 11 368 55 is_stmt 0 view .LVU426
 1982 0162 05F00703 		and	r3, r5, #7
 368:Display/../../libs/PoliTeKDSP/libs/libDaisy/src/dev/oled_ssd130x.h ****     }
 1983              		.loc 11 368 49 view .LVU427
 1984 0166 4FF0010C 		mov	ip, #1
 368:Display/../../libs/PoliTeKDSP/libs/libDaisy/src/dev/oled_ssd130x.h ****     }
 1985              		.loc 11 368 28 view .LVU428
 1986 016a EA08     		lsrs	r2, r5, #3
 1987 016c 5146     		mov	r1, r10
 368:Display/../../libs/PoliTeKDSP/libs/libDaisy/src/dev/oled_ssd130x.h ****     }
 1988              		.loc 11 368 49 view .LVU429
 1989 016e 0CFA03FC 		lsl	ip, ip, r3
 1990 0172 0AF11003 		add	r3, r10, #16
 368:Display/../../libs/PoliTeKDSP/libs/libDaisy/src/dev/oled_ssd130x.h ****     }
 1991              		.loc 11 368 42 view .LVU430
 1992 0176 4FFA8CFC 		sxtb	ip, ip
 1993 017a 03EBC212 		add	r2, r3, r2, lsl #7
 1994              	.LBE1157:
 1995              	.LBE1156:
 1996              	.LBE1155:
 1997              	.LBE1154:
 1998              	.LBE1153:
 421:../libs/PoliTeKDSP/libs/libDaisy/src/hid/disp/display.h ****             {
 1999              		.loc 10 421 19 view .LVU431
 2000 017e 0023     		movs	r3, #0
 2001              	.LBB1175:
 2002              	.LBB1170:
 2003              	.LBB1165:
ARM GAS  C:\Users\skipi\AppData\Local\Temp\ccpgF6Mp.s 			page 71


 2004              	.LBB1161:
 2005              	.LBB1158:
 368:Display/../../libs/PoliTeKDSP/libs/libDaisy/src/dev/oled_ssd130x.h ****     }
 2006              		.loc 11 368 42 view .LVU432
 2007 0180 6FEA0C09 		mvn	r9, ip
 2008 0184 4244     		add	r2, r2, r8
 2009 0186 0DE0     		b	.L161
 2010              	.LVL138:
 2011              	.L197:
 368:Display/../../libs/PoliTeKDSP/libs/libDaisy/src/dev/oled_ssd130x.h ****     }
 2012              		.loc 11 368 42 view .LVU433
 2013              	.LBE1158:
 2014              	.LBE1161:
 2015              	.LBE1165:
 2016              	.LBE1170:
 2017              	.LBE1175:
 2018              	.LBB1176:
 2019              	.LBI1176:
  42:../libs/PoliTeKDSP/libs/libDaisy/src/hid/disp/oled_display.h ****     {
 2020              		.loc 9 42 10 is_stmt 1 view .LVU434
 2021              	.LBB1177:
 2022              	.LBI1177:
 361:Display/../../libs/PoliTeKDSP/libs/libDaisy/src/dev/oled_ssd130x.h ****     {
 2023              		.loc 11 361 10 view .LVU435
 2024              	.LBB1178:
 363:Display/../../libs/PoliTeKDSP/libs/libDaisy/src/dev/oled_ssd130x.h ****             return;
 2025              		.loc 11 363 9 is_stmt 0 view .LVU436
 2026 0188 7F29     		cmp	r1, #127
 2027 018a 06D8     		bhi	.L157
 2028 018c 3F2D     		cmp	r5, #63
 2029 018e 04D8     		bhi	.L157
 366:Display/../../libs/PoliTeKDSP/libs/libDaisy/src/dev/oled_ssd130x.h ****         else
 2030              		.loc 11 366 42 view .LVU437
 2031 0190 1078     		ldrb	r0, [r2]	@ zero_extendqisi2
 365:Display/../../libs/PoliTeKDSP/libs/libDaisy/src/dev/oled_ssd130x.h ****             buffer_[x + (y / 8) * width] |= (1 << (y % 8));
 2032              		.loc 11 365 9 view .LVU438
 2033 0192 96B1     		cbz	r6, .L159
 2034              	.L191:
 365:Display/../../libs/PoliTeKDSP/libs/libDaisy/src/dev/oled_ssd130x.h ****             buffer_[x + (y / 8) * width] |= (1 << (y % 8));
 2035              		.loc 11 365 9 view .LVU439
 2036              	.LBE1178:
 2037              	.LBE1177:
 2038              	.LBE1176:
 2039              	.LBB1179:
 2040              	.LBB1171:
 2041              	.LBB1166:
 366:Display/../../libs/PoliTeKDSP/libs/libDaisy/src/dev/oled_ssd130x.h ****         else
 2042              		.loc 11 366 42 view .LVU440
 2043 0194 4CEA0000 		orr	r0, ip, r0
 2044 0198 1070     		strb	r0, [r2]
 2045              	.L157:
 2046              	.LBE1166:
 2047              	.LBE1171:
 2048              	.LBE1179:
 421:../libs/PoliTeKDSP/libs/libDaisy/src/hid/disp/display.h ****             {
 2049              		.loc 10 421 13 is_stmt 1 view .LVU441
 2050 019a 0133     		adds	r3, r3, #1
ARM GAS  C:\Users\skipi\AppData\Local\Temp\ccpgF6Mp.s 			page 72


 2051              	.LVL139:
 421:../libs/PoliTeKDSP/libs/libDaisy/src/hid/disp/display.h ****             {
 2052              		.loc 10 421 26 view .LVU442
 2053 019c 0132     		adds	r2, r2, #1
 2054 019e 0131     		adds	r1, r1, #1
 2055 01a0 9C42     		cmp	r4, r3
 2056 01a2 13D0     		beq	.L160
 2057              	.LVL140:
 2058              	.L161:
 423:../libs/PoliTeKDSP/libs/libDaisy/src/hid/disp/display.h ****                 {
 2059              		.loc 10 423 23 is_stmt 0 view .LVU443
 2060 01a4 07FA03F0 		lsl	r0, r7, r3
 423:../libs/PoliTeKDSP/libs/libDaisy/src/hid/disp/display.h ****                 {
 2061              		.loc 10 423 17 view .LVU444
 2062 01a8 0004     		lsls	r0, r0, #16
 2063 01aa EDD4     		bmi	.L197
 2064              	.LVL141:
 2065              	.LBB1180:
 2066              	.LBI1153:
  42:../libs/PoliTeKDSP/libs/libDaisy/src/hid/disp/oled_display.h ****     {
 2067              		.loc 9 42 10 is_stmt 1 view .LVU445
 2068              	.LBB1172:
 2069              	.LBI1154:
 361:Display/../../libs/PoliTeKDSP/libs/libDaisy/src/dev/oled_ssd130x.h ****     {
 2070              		.loc 11 361 10 view .LVU446
 2071              	.LBB1167:
 363:Display/../../libs/PoliTeKDSP/libs/libDaisy/src/dev/oled_ssd130x.h ****             return;
 2072              		.loc 11 363 9 is_stmt 0 view .LVU447
 2073 01ac 7F29     		cmp	r1, #127
 2074 01ae F4D8     		bhi	.L157
 2075 01b0 3F2D     		cmp	r5, #63
 2076 01b2 F2D8     		bhi	.L157
 366:Display/../../libs/PoliTeKDSP/libs/libDaisy/src/dev/oled_ssd130x.h ****         else
 2077              		.loc 11 366 42 view .LVU448
 2078 01b4 1078     		ldrb	r0, [r2]	@ zero_extendqisi2
 365:Display/../../libs/PoliTeKDSP/libs/libDaisy/src/dev/oled_ssd130x.h ****             buffer_[x + (y / 8) * width] |= (1 << (y % 8));
 2079              		.loc 11 365 9 view .LVU449
 2080 01b6 002E     		cmp	r6, #0
 2081 01b8 ECD0     		beq	.L191
 2082              	.L159:
 2083              	.LVL142:
 2084              	.LBB1162:
 2085              	.LBI1156:
 361:Display/../../libs/PoliTeKDSP/libs/libDaisy/src/dev/oled_ssd130x.h ****     {
 2086              		.loc 11 361 10 is_stmt 1 view .LVU450
 361:Display/../../libs/PoliTeKDSP/libs/libDaisy/src/dev/oled_ssd130x.h ****     {
 2087              		.loc 11 361 10 is_stmt 0 view .LVU451
 2088              	.LBE1162:
 2089              	.LBE1167:
 2090              	.LBE1172:
 2091              	.LBE1180:
 421:../libs/PoliTeKDSP/libs/libDaisy/src/hid/disp/display.h ****             {
 2092              		.loc 10 421 13 view .LVU452
 2093 01ba 0133     		adds	r3, r3, #1
 2094              	.LVL143:
 2095              	.LBB1181:
 2096              	.LBB1173:
ARM GAS  C:\Users\skipi\AppData\Local\Temp\ccpgF6Mp.s 			page 73


 2097              	.LBB1168:
 2098              	.LBB1163:
 2099              	.LBB1159:
 368:Display/../../libs/PoliTeKDSP/libs/libDaisy/src/dev/oled_ssd130x.h ****     }
 2100              		.loc 11 368 42 view .LVU453
 2101 01bc 09EA0000 		and	r0, r9, r0
 2102              	.LBE1159:
 2103              	.LBE1163:
 2104              	.LBE1168:
 2105              	.LBE1173:
 2106              	.LBE1181:
 421:../libs/PoliTeKDSP/libs/libDaisy/src/hid/disp/display.h ****             {
 2107              		.loc 10 421 26 view .LVU454
 2108 01c0 0132     		adds	r2, r2, #1
 2109 01c2 0131     		adds	r1, r1, #1
 2110 01c4 9C42     		cmp	r4, r3
 2111              	.LBB1182:
 2112              	.LBB1174:
 2113              	.LBB1169:
 2114              	.LBB1164:
 2115              	.LBB1160:
 368:Display/../../libs/PoliTeKDSP/libs/libDaisy/src/dev/oled_ssd130x.h ****     }
 2116              		.loc 11 368 42 view .LVU455
 2117 01c6 02F8010C 		strb	r0, [r2, #-1]
 368:Display/../../libs/PoliTeKDSP/libs/libDaisy/src/dev/oled_ssd130x.h ****     }
 2118              		.loc 11 368 42 view .LVU456
 2119              	.LBE1160:
 2120              	.LBE1164:
 2121              	.LBE1169:
 2122              	.LBE1174:
 2123              	.LBE1182:
 421:../libs/PoliTeKDSP/libs/libDaisy/src/hid/disp/display.h ****             {
 2124              		.loc 10 421 13 is_stmt 1 view .LVU457
 2125              	.LVL144:
 421:../libs/PoliTeKDSP/libs/libDaisy/src/hid/disp/display.h ****             {
 2126              		.loc 10 421 26 view .LVU458
 2127 01ca EBD1     		bne	.L161
 2128              	.LVL145:
 2129              	.L160:
 418:../libs/PoliTeKDSP/libs/libDaisy/src/hid/disp/display.h ****         {
 2130              		.loc 10 418 9 view .LVU459
 418:../libs/PoliTeKDSP/libs/libDaisy/src/hid/disp/display.h ****         {
 2131              		.loc 10 418 22 view .LVU460
 2132 01cc F345     		cmp	fp, lr
 2133 01ce 05F10105 		add	r5, r5, #1
 2134 01d2 C3D1     		bne	.L155
 2135 01d4 DDF814B0 		ldr	fp, [sp, #20]
 2136              	.LVL146:
 2137              	.L154:
 2138              	.LBB1183:
 2139              	.LBB1184:
 173:../libs/PoliTeKDSP/libs/libDaisy/src/hid/disp/display.h ****         currentY_ = (y >= Height()) ? Height() - 1 : y;
 2140              		.loc 10 173 33 is_stmt 0 view .LVU461
 2141 01d8 D8F80020 		ldr	r2, [r8]
 2142              	.LBE1184:
 2143              	.LBE1183:
 439:../libs/PoliTeKDSP/libs/libDaisy/src/hid/disp/display.h **** 
ARM GAS  C:\Users\skipi\AppData\Local\Temp\ccpgF6Mp.s 			page 74


 2144              		.loc 10 439 18 view .LVU462
 2145 01dc 0AEB0405 		add	r5, r10, r4
 2146 01e0 0199     		ldr	r1, [sp, #4]
 2147              	.LBB1189:
 2148              	.LBB1185:
 173:../libs/PoliTeKDSP/libs/libDaisy/src/hid/disp/display.h ****         currentY_ = (y >= Height()) ? Height() - 1 : y;
 2149              		.loc 10 173 33 view .LVU463
 2150 01e2 D368     		ldr	r3, [r2, #12]
 2151              	.LBE1185:
 2152              	.LBE1189:
 439:../libs/PoliTeKDSP/libs/libDaisy/src/hid/disp/display.h **** 
 2153              		.loc 10 439 18 view .LVU464
 2154 01e4 ADB2     		uxth	r5, r5
 2155              	.LVL147:
 2156              	.LBB1190:
 2157              	.LBI1183:
 171:../libs/PoliTeKDSP/libs/libDaisy/src/hid/disp/display.h ****     {
 2158              		.loc 10 171 10 is_stmt 1 view .LVU465
 2159              	.LBB1186:
 173:../libs/PoliTeKDSP/libs/libDaisy/src/hid/disp/display.h ****         currentY_ = (y >= Height()) ? Height() - 1 : y;
 2160              		.loc 10 173 9 view .LVU466
 2161 01e6 8B42     		cmp	r3, r1
 2162 01e8 40F0BF80 		bne	.L198
 173:../libs/PoliTeKDSP/libs/libDaisy/src/hid/disp/display.h ****         currentY_ = (y >= Height()) ? Height() - 1 : y;
 2163              		.loc 10 173 33 is_stmt 0 view .LVU467
 2164 01ec 8020     		movs	r0, #128
 2165              	.L162:
 173:../libs/PoliTeKDSP/libs/libDaisy/src/hid/disp/display.h ****         currentY_ = (y >= Height()) ? Height() - 1 : y;
 2166              		.loc 10 173 19 view .LVU468
 2167 01ee 8542     		cmp	r5, r0
 2168 01f0 05D3     		bcc	.L163
 173:../libs/PoliTeKDSP/libs/libDaisy/src/hid/disp/display.h ****         currentY_ = (y >= Height()) ? Height() - 1 : y;
 2169              		.loc 10 173 44 view .LVU469
 2170 01f2 D368     		ldr	r3, [r2, #12]
 2171 01f4 0199     		ldr	r1, [sp, #4]
 2172 01f6 8B42     		cmp	r3, r1
 2173 01f8 40F0C580 		bne	.L199
 2174 01fc 7F25     		movs	r5, #127
 2175              	.LVL148:
 2176              	.L163:
 174:../libs/PoliTeKDSP/libs/libDaisy/src/hid/disp/display.h ****     }
 2177              		.loc 10 174 34 view .LVU470
 2178 01fe 9368     		ldr	r3, [r2, #8]
 2179 0200 039A     		ldr	r2, [sp, #12]
 173:../libs/PoliTeKDSP/libs/libDaisy/src/hid/disp/display.h ****         currentY_ = (y >= Height()) ? Height() - 1 : y;
 2180              		.loc 10 173 19 view .LVU471
 2181 0202 A8F80450 		strh	r5, [r8, #4]	@ movhi
 174:../libs/PoliTeKDSP/libs/libDaisy/src/hid/disp/display.h ****     }
 2182              		.loc 10 174 9 is_stmt 1 view .LVU472
 2183 0206 9342     		cmp	r3, r2
 2184 0208 40F0AC80 		bne	.L200
 174:../libs/PoliTeKDSP/libs/libDaisy/src/hid/disp/display.h ****     }
 2185              		.loc 10 174 34 is_stmt 0 view .LVU473
 2186 020c 4020     		movs	r0, #64
 2187              	.L165:
 174:../libs/PoliTeKDSP/libs/libDaisy/src/hid/disp/display.h ****     }
 2188              		.loc 10 174 19 view .LVU474
ARM GAS  C:\Users\skipi\AppData\Local\Temp\ccpgF6Mp.s 			page 75


 2189 020e 029B     		ldr	r3, [sp, #8]
 2190 0210 8342     		cmp	r3, r0
 2191 0212 08D3     		bcc	.L166
 174:../libs/PoliTeKDSP/libs/libDaisy/src/hid/disp/display.h ****     }
 2192              		.loc 10 174 46 view .LVU475
 2193 0214 D8F80030 		ldr	r3, [r8]
 2194 0218 039A     		ldr	r2, [sp, #12]
 2195 021a 9B68     		ldr	r3, [r3, #8]
 2196 021c 9342     		cmp	r3, r2
 2197 021e 40F0AC80 		bne	.L201
 2198 0222 3F23     		movs	r3, #63
 2199 0224 0293     		str	r3, [sp, #8]
 2200              	.LVL149:
 2201              	.L166:
 174:../libs/PoliTeKDSP/libs/libDaisy/src/hid/disp/display.h ****     }
 2202              		.loc 10 174 19 view .LVU476
 2203 0226 029B     		ldr	r3, [sp, #8]
 2204 0228 A8F80630 		strh	r3, [r8, #6]	@ movhi
 2205              	.LVL150:
 2206              	.L148:
 174:../libs/PoliTeKDSP/libs/libDaisy/src/hid/disp/display.h ****     }
 2207              		.loc 10 174 19 view .LVU477
 2208              	.LBE1186:
 2209              	.LBE1190:
 2210              	.LBE1152:
 2211              	.LBE1151:
 450:../libs/PoliTeKDSP/libs/libDaisy/src/hid/disp/display.h ****                != *str)
 2212              		.loc 10 450 13 view .LVU478
 2213 022c 009A     		ldr	r2, [sp]
 2214 022e 1378     		ldrb	r3, [r2]	@ zero_extendqisi2
 2215 0230 5B45     		cmp	r3, fp
 2216 0232 06D1     		bne	.L116
 2217              	.LVL151:
 448:../libs/PoliTeKDSP/libs/libDaisy/src/hid/disp/display.h ****         {
 2218              		.loc 10 448 9 is_stmt 1 view .LVU479
 2219 0234 12F801BF 		ldrb	fp, [r2, #1]!	@ zero_extendqisi2
 2220              	.LVL152:
 448:../libs/PoliTeKDSP/libs/libDaisy/src/hid/disp/display.h ****         {
 2221              		.loc 10 448 9 is_stmt 0 view .LVU480
 2222 0238 0092     		str	r2, [sp]
 2223 023a BBF1000F 		cmp	fp, #0
 2224 023e 7FF454AF 		bne	.L146
 2225              	.LVL153:
 2226              	.L116:
 448:../libs/PoliTeKDSP/libs/libDaisy/src/hid/disp/display.h ****         {
 2227              		.loc 10 448 9 view .LVU481
 2228              	.LBE1196:
 2229              	.LBE1199:
 476:../libs/PoliTeKDSP/libs/libDaisy/src/hid/disp/display.h **** 
 2230              		.loc 10 476 5 view .LVU482
 2231 0242 0698     		ldr	r0, [sp, #24]
 2232 0244 09B0     		add	sp, sp, #36
 2233              		.cfi_remember_state
 2234              		.cfi_def_cfa_offset 36
 2235              		@ sp needed
 2236 0246 BDE8F08F 		pop	{r4, r5, r6, r7, r8, r9, r10, fp, pc}
 2237              	.LVL154:
ARM GAS  C:\Users\skipi\AppData\Local\Temp\ccpgF6Mp.s 			page 76


 2238              	.L129:
 2239              		.cfi_restore_state
 2240              	.LBB1200:
 2241              	.LBB1122:
 250:../libs/PoliTeKDSP/libs/libDaisy/src/hid/disp/graphics_common.h ****                 return {int16_t(x_ + (other.GetCenterX() - GetCenterX())),
 2242              		.loc 13 250 13 is_stmt 1 view .LVU483
 251:../libs/PoliTeKDSP/libs/libDaisy/src/hid/disp/graphics_common.h ****                         int16_t(y_ + (other.GetCenterY() - GetCenterY())),
 2243              		.loc 13 251 17 view .LVU484
 2244              	.LBB958:
 2245              	.LBI958:
  62:../libs/PoliTeKDSP/libs/libDaisy/src/hid/disp/graphics_common.h ****     int16_t GetCenterY() const { return y_ + height_ / 2; }
 2246              		.loc 13 62 13 view .LVU485
 2247              	.LBB959:
  62:../libs/PoliTeKDSP/libs/libDaisy/src/hid/disp/graphics_common.h ****     int16_t GetCenterY() const { return y_ + height_ / 2; }
 2248              		.loc 13 62 34 view .LVU486
  62:../libs/PoliTeKDSP/libs/libDaisy/src/hid/disp/graphics_common.h ****     int16_t GetCenterY() const { return y_ + height_ / 2; }
 2249              		.loc 13 62 34 is_stmt 0 view .LVU487
 2250              	.LBE959:
 2251              	.LBE958:
 2252              	.LBB961:
 2253              	.LBI961:
  62:../libs/PoliTeKDSP/libs/libDaisy/src/hid/disp/graphics_common.h ****     int16_t GetCenterY() const { return y_ + height_ / 2; }
 2254              		.loc 13 62 13 is_stmt 1 view .LVU488
 2255              	.LBB962:
  62:../libs/PoliTeKDSP/libs/libDaisy/src/hid/disp/graphics_common.h ****     int16_t GetCenterY() const { return y_ + height_ / 2; }
 2256              		.loc 13 62 34 view .LVU489
  62:../libs/PoliTeKDSP/libs/libDaisy/src/hid/disp/graphics_common.h ****     int16_t GetCenterY() const { return y_ + height_ / 2; }
 2257              		.loc 13 62 34 is_stmt 0 view .LVU490
 2258              	.LBE962:
 2259              	.LBE961:
 2260              	.LBB963:
 2261              	.LBB960:
  62:../libs/PoliTeKDSP/libs/libDaisy/src/hid/disp/graphics_common.h ****     int16_t GetCenterY() const { return y_ + height_ / 2; }
 2262              		.loc 13 62 53 view .LVU491
 2263 024a B4F90410 		ldrsh	r1, [r4, #4]
 2264              	.LVL155:
  62:../libs/PoliTeKDSP/libs/libDaisy/src/hid/disp/graphics_common.h ****     int16_t GetCenterY() const { return y_ + height_ / 2; }
 2265              		.loc 13 62 44 view .LVU492
 2266 024e 2788     		ldrh	r7, [r4]
  62:../libs/PoliTeKDSP/libs/libDaisy/src/hid/disp/graphics_common.h ****     int16_t GetCenterY() const { return y_ + height_ / 2; }
 2267              		.loc 13 62 53 view .LVU493
 2268 0250 0029     		cmp	r1, #0
 2269 0252 B8BF     		it	lt
 2270 0254 0131     		addlt	r1, r1, #1
  62:../libs/PoliTeKDSP/libs/libDaisy/src/hid/disp/graphics_common.h ****     int16_t GetCenterY() const { return y_ + height_ / 2; }
 2271              		.loc 13 62 44 view .LVU494
 2272 0256 07EB6107 		add	r7, r7, r1, asr #1
 2273              	.LBE960:
 2274              	.LBE963:
 2275              	.LBB964:
 2276              	.LBB936:
  63:../libs/PoliTeKDSP/libs/libDaisy/src/hid/disp/graphics_common.h **** 
 2277              		.loc 13 63 54 view .LVU495
 2278 025a B4F90610 		ldrsh	r1, [r4, #6]
 2279              	.LBE936:
 2280              	.LBE964:
 251:../libs/PoliTeKDSP/libs/libDaisy/src/hid/disp/graphics_common.h ****                         int16_t(y_ + (other.GetCenterY() - GetCenterY())),
ARM GAS  C:\Users\skipi\AppData\Local\Temp\ccpgF6Mp.s 			page 77


 2281              		.loc 13 251 58 view .LVU496
 2282 025e A7EB6307 		sub	r7, r7, r3, asr #1
 2283              	.LBB965:
 2284              	.LBB937:
  63:../libs/PoliTeKDSP/libs/libDaisy/src/hid/disp/graphics_common.h **** 
 2285              		.loc 13 63 54 view .LVU497
 2286 0262 0029     		cmp	r1, #0
 2287              	.LBE937:
 2288              	.LBE965:
 251:../libs/PoliTeKDSP/libs/libDaisy/src/hid/disp/graphics_common.h ****                         int16_t(y_ + (other.GetCenterY() - GetCenterY())),
 2289              		.loc 13 251 58 view .LVU498
 2290 0264 BFB2     		uxth	r7, r7
 2291              	.LVL156:
 2292              	.LBB966:
 2293              	.LBI933:
  63:../libs/PoliTeKDSP/libs/libDaisy/src/hid/disp/graphics_common.h **** 
 2294              		.loc 13 63 13 is_stmt 1 view .LVU499
 2295              	.LBB938:
  63:../libs/PoliTeKDSP/libs/libDaisy/src/hid/disp/graphics_common.h **** 
 2296              		.loc 13 63 34 view .LVU500
  63:../libs/PoliTeKDSP/libs/libDaisy/src/hid/disp/graphics_common.h **** 
 2297              		.loc 13 63 34 is_stmt 0 view .LVU501
 2298              	.LBE938:
 2299              	.LBE966:
 2300              	.LBB967:
 2301              	.LBI967:
  63:../libs/PoliTeKDSP/libs/libDaisy/src/hid/disp/graphics_common.h **** 
 2302              		.loc 13 63 13 is_stmt 1 view .LVU502
 2303              	.LBB968:
  63:../libs/PoliTeKDSP/libs/libDaisy/src/hid/disp/graphics_common.h **** 
 2304              		.loc 13 63 34 view .LVU503
  63:../libs/PoliTeKDSP/libs/libDaisy/src/hid/disp/graphics_common.h **** 
 2305              		.loc 13 63 34 is_stmt 0 view .LVU504
 2306              	.LBE968:
 2307              	.LBE967:
 2308              	.LBB969:
 2309              	.LBB939:
  63:../libs/PoliTeKDSP/libs/libDaisy/src/hid/disp/graphics_common.h **** 
 2310              		.loc 13 63 54 view .LVU505
 2311 0266 BFF601AF 		bge	.L136
 2312              	.L192:
  63:../libs/PoliTeKDSP/libs/libDaisy/src/hid/disp/graphics_common.h **** 
 2313              		.loc 13 63 54 view .LVU506
 2314 026a 0131     		adds	r1, r1, #1
 2315 026c FEE6     		b	.L136
 2316              	.LVL157:
 2317              	.L128:
  63:../libs/PoliTeKDSP/libs/libDaisy/src/hid/disp/graphics_common.h **** 
 2318              		.loc 13 63 54 view .LVU507
 2319              	.LBE939:
 2320              	.LBE969:
 213:../libs/PoliTeKDSP/libs/libDaisy/src/hid/disp/graphics_common.h ****                 return {other.x_, other.y_, width_, height_};
 2321              		.loc 13 213 13 is_stmt 1 view .LVU508
 214:../libs/PoliTeKDSP/libs/libDaisy/src/hid/disp/graphics_common.h ****             case Alignment::topRight:
 2322              		.loc 13 214 17 view .LVU509
 214:../libs/PoliTeKDSP/libs/libDaisy/src/hid/disp/graphics_common.h ****             case Alignment::topRight:
 2323              		.loc 13 214 31 is_stmt 0 view .LVU510
ARM GAS  C:\Users\skipi\AppData\Local\Temp\ccpgF6Mp.s 			page 78


 2324 026e B4F90070 		ldrsh	r7, [r4]
 2325              	.LBB970:
 2326              	.LBB971:
 2327              	.LBB972:
  32:../libs/PoliTeKDSP/libs/libDaisy/src/hid/disp/graphics_common.h ****     {
 2328              		.loc 13 32 66 view .LVU511
 2329 0272 0699     		ldr	r1, [sp, #24]
 2330              	.LVL158:
  32:../libs/PoliTeKDSP/libs/libDaisy/src/hid/disp/graphics_common.h ****     {
 2331              		.loc 13 32 66 view .LVU512
 2332              	.LBE972:
 2333              	.LBE971:
 2334              	.LBE970:
 214:../libs/PoliTeKDSP/libs/libDaisy/src/hid/disp/graphics_common.h ****             case Alignment::topRight:
 2335              		.loc 13 214 41 view .LVU513
 2336 0274 B4F90240 		ldrsh	r4, [r4, #2]
 2337              	.LVL159:
 2338              	.LBB985:
 2339              	.LBI970:
  31:../libs/PoliTeKDSP/libs/libDaisy/src/hid/disp/graphics_common.h ****     : x_(x), y_(y), width_(max(0, width)), height_(max(0, height))
 2340              		.loc 13 31 5 is_stmt 1 view .LVU514
 2341              	.LBB980:
 2342              	.LBB975:
  32:../libs/PoliTeKDSP/libs/libDaisy/src/hid/disp/graphics_common.h ****     {
 2343              		.loc 13 32 66 is_stmt 0 view .LVU515
 2344 0278 0F80     		strh	r7, [r1]	@ movhi
 2345              	.LBE975:
 2346              	.LBE980:
 2347              	.LBE985:
 2348              	.LBE1122:
 2349              	.LBE1200:
 473:../libs/PoliTeKDSP/libs/libDaisy/src/hid/disp/display.h ****         ((ChildType*)(this))->ChildType::WriteString(str, font, on);
 2350              		.loc 10 473 18 view .LVU516
 2351 027a BFB2     		uxth	r7, r7
 2352              	.LVL160:
 2353              	.LBB1201:
 2354              	.LBB1123:
 2355              	.LBB986:
 2356              	.LBB981:
 2357              	.LBB976:
  32:../libs/PoliTeKDSP/libs/libDaisy/src/hid/disp/graphics_common.h ****     {
 2358              		.loc 13 32 66 view .LVU517
 2359 027c 4C80     		strh	r4, [r1, #2]	@ movhi
 2360              	.LBE976:
 2361              	.LBE981:
 2362              	.LBE986:
 2363              	.LBE1123:
 2364              	.LBE1201:
 473:../libs/PoliTeKDSP/libs/libDaisy/src/hid/disp/display.h ****         ((ChildType*)(this))->ChildType::WriteString(str, font, on);
 2365              		.loc 10 473 18 view .LVU518
 2366 027e A4B2     		uxth	r4, r4
 2367              	.LVL161:
 2368              	.LBB1202:
 2369              	.LBB1124:
 2370              	.LBB987:
 2371              	.LBB982:
 2372              	.LBB977:
ARM GAS  C:\Users\skipi\AppData\Local\Temp\ccpgF6Mp.s 			page 79


  32:../libs/PoliTeKDSP/libs/libDaisy/src/hid/disp/graphics_common.h ****     {
 2373              		.loc 13 32 66 view .LVU519
 2374 0280 8B80     		strh	r3, [r1, #4]	@ movhi
 2375              	.LVL162:
 2376              	.LBB973:
 2377              	.LBI973:
 2378              		.loc 13 261 13 is_stmt 1 view .LVU520
 2379              	.LBE973:
 2380              	.LBE977:
 2381              	.LBE982:
 2382              	.LBE987:
 2383              	.LBE1124:
 2384              	.LBE1202:
 2385              		.loc 13 261 41 view .LVU521
 2386              	.LBB1203:
 2387              	.LBB1125:
 2388              	.LBB988:
 2389              	.LBB983:
 2390              	.LBB978:
 2391              	.LBB974:
 2392              	.LBI974:
 2393              		.loc 13 261 13 view .LVU522
 2394              	.LBE974:
 2395              	.LBE978:
 2396              	.LBE983:
 2397              	.LBE988:
 2398              	.LBE1125:
 2399              	.LBE1203:
 2400              		.loc 13 261 41 view .LVU523
 2401              	.LBB1204:
 2402              	.LBB1126:
 2403              	.LBB989:
 2404              	.LBB984:
 2405              	.LBB979:
  32:../libs/PoliTeKDSP/libs/libDaisy/src/hid/disp/graphics_common.h ****     {
 2406              		.loc 13 32 66 is_stmt 0 view .LVU524
 2407 0282 CA80     		strh	r2, [r1, #6]	@ movhi
 2408              	.LBE979:
  34:../libs/PoliTeKDSP/libs/libDaisy/src/hid/disp/graphics_common.h **** 
 2409              		.loc 13 34 5 view .LVU525
 2410 0284 FEE6     		b	.L130
 2411              	.LVL163:
 2412              	.L127:
  34:../libs/PoliTeKDSP/libs/libDaisy/src/hid/disp/graphics_common.h **** 
 2413              		.loc 13 34 5 view .LVU526
 2414              	.LBE984:
 2415              	.LBE989:
 220:../libs/PoliTeKDSP/libs/libDaisy/src/hid/disp/graphics_common.h ****                 return {int16_t(x_ + (other.GetCenterX() - GetCenterX())),
 2416              		.loc 13 220 13 is_stmt 1 view .LVU527
 221:../libs/PoliTeKDSP/libs/libDaisy/src/hid/disp/graphics_common.h ****                         other.y_,
 2417              		.loc 13 221 17 view .LVU528
 2418              	.LBB990:
 2419              	.LBI990:
  62:../libs/PoliTeKDSP/libs/libDaisy/src/hid/disp/graphics_common.h ****     int16_t GetCenterY() const { return y_ + height_ / 2; }
 2420              		.loc 13 62 13 view .LVU529
 2421              	.LBB991:
  62:../libs/PoliTeKDSP/libs/libDaisy/src/hid/disp/graphics_common.h ****     int16_t GetCenterY() const { return y_ + height_ / 2; }
ARM GAS  C:\Users\skipi\AppData\Local\Temp\ccpgF6Mp.s 			page 80


 2422              		.loc 13 62 34 view .LVU530
  62:../libs/PoliTeKDSP/libs/libDaisy/src/hid/disp/graphics_common.h ****     int16_t GetCenterY() const { return y_ + height_ / 2; }
 2423              		.loc 13 62 34 is_stmt 0 view .LVU531
 2424              	.LBE991:
 2425              	.LBE990:
 2426              	.LBB994:
 2427              	.LBI994:
  62:../libs/PoliTeKDSP/libs/libDaisy/src/hid/disp/graphics_common.h ****     int16_t GetCenterY() const { return y_ + height_ / 2; }
 2428              		.loc 13 62 13 is_stmt 1 view .LVU532
 2429              	.LBB995:
  62:../libs/PoliTeKDSP/libs/libDaisy/src/hid/disp/graphics_common.h ****     int16_t GetCenterY() const { return y_ + height_ / 2; }
 2430              		.loc 13 62 34 view .LVU533
  62:../libs/PoliTeKDSP/libs/libDaisy/src/hid/disp/graphics_common.h ****     int16_t GetCenterY() const { return y_ + height_ / 2; }
 2431              		.loc 13 62 34 is_stmt 0 view .LVU534
 2432              	.LBE995:
 2433              	.LBE994:
 2434              	.LBB996:
 2435              	.LBB992:
  62:../libs/PoliTeKDSP/libs/libDaisy/src/hid/disp/graphics_common.h ****     int16_t GetCenterY() const { return y_ + height_ / 2; }
 2436              		.loc 13 62 53 view .LVU535
 2437 0286 B4F90410 		ldrsh	r1, [r4, #4]
 2438              	.LVL164:
  62:../libs/PoliTeKDSP/libs/libDaisy/src/hid/disp/graphics_common.h ****     int16_t GetCenterY() const { return y_ + height_ / 2; }
 2439              		.loc 13 62 44 view .LVU536
 2440 028a 2788     		ldrh	r7, [r4]
  62:../libs/PoliTeKDSP/libs/libDaisy/src/hid/disp/graphics_common.h ****     int16_t GetCenterY() const { return y_ + height_ / 2; }
 2441              		.loc 13 62 53 view .LVU537
 2442 028c 0029     		cmp	r1, #0
 2443              	.LBE992:
 2444              	.LBE996:
 222:../libs/PoliTeKDSP/libs/libDaisy/src/hid/disp/graphics_common.h ****                         width_,
 2445              		.loc 13 222 31 view .LVU538
 2446 028e B4F90240 		ldrsh	r4, [r4, #2]
 2447              	.LVL165:
 2448              	.LBB997:
 2449              	.LBB993:
  62:../libs/PoliTeKDSP/libs/libDaisy/src/hid/disp/graphics_common.h ****     int16_t GetCenterY() const { return y_ + height_ / 2; }
 2450              		.loc 13 62 53 view .LVU539
 2451 0292 B8BF     		it	lt
 2452 0294 0131     		addlt	r1, r1, #1
  62:../libs/PoliTeKDSP/libs/libDaisy/src/hid/disp/graphics_common.h ****     int16_t GetCenterY() const { return y_ + height_ / 2; }
 2453              		.loc 13 62 44 view .LVU540
 2454 0296 07EB6107 		add	r7, r7, r1, asr #1
 2455              	.LBE993:
 2456              	.LBE997:
 2457              	.LBB998:
 2458              	.LBB999:
 2459              	.LBB1000:
  32:../libs/PoliTeKDSP/libs/libDaisy/src/hid/disp/graphics_common.h ****     {
 2460              		.loc 13 32 66 view .LVU541
 2461 029a 0699     		ldr	r1, [sp, #24]
 2462 029c 8B80     		strh	r3, [r1, #4]	@ movhi
 2463              	.LBE1000:
 2464              	.LBE999:
 2465              	.LBE998:
 221:../libs/PoliTeKDSP/libs/libDaisy/src/hid/disp/graphics_common.h ****                         other.y_,
 2466              		.loc 13 221 58 view .LVU542
ARM GAS  C:\Users\skipi\AppData\Local\Temp\ccpgF6Mp.s 			page 81


 2467 029e A7EB6303 		sub	r3, r7, r3, asr #1
 2468              	.LBB1011:
 2469              	.LBB1007:
 2470              	.LBB1003:
  32:../libs/PoliTeKDSP/libs/libDaisy/src/hid/disp/graphics_common.h ****     {
 2471              		.loc 13 32 66 view .LVU543
 2472 02a2 4C80     		strh	r4, [r1, #2]	@ movhi
 2473              	.LBE1003:
 2474              	.LBE1007:
 2475              	.LBE1011:
 2476              	.LBE1126:
 2477              	.LBE1204:
 473:../libs/PoliTeKDSP/libs/libDaisy/src/hid/disp/display.h ****         ((ChildType*)(this))->ChildType::WriteString(str, font, on);
 2478              		.loc 10 473 18 view .LVU544
 2479 02a4 A4B2     		uxth	r4, r4
 2480              	.LBB1205:
 2481              	.LBB1127:
 221:../libs/PoliTeKDSP/libs/libDaisy/src/hid/disp/graphics_common.h ****                         other.y_,
 2482              		.loc 13 221 58 view .LVU545
 2483 02a6 9FB2     		uxth	r7, r3
 2484              	.LVL166:
 2485              	.LBB1012:
 2486              	.LBI998:
  31:../libs/PoliTeKDSP/libs/libDaisy/src/hid/disp/graphics_common.h ****     : x_(x), y_(y), width_(max(0, width)), height_(max(0, height))
 2487              		.loc 13 31 5 is_stmt 1 view .LVU546
 2488              	.LBB1008:
 2489              	.LBB1004:
 2490              	.LBB1001:
 2491              	.LBI1001:
 2492              		.loc 13 261 13 view .LVU547
 2493              	.LBE1001:
 2494              	.LBE1004:
 2495              	.LBE1008:
 2496              	.LBE1012:
 2497              	.LBE1127:
 2498              	.LBE1205:
 2499              		.loc 13 261 41 view .LVU548
 2500              	.LBB1206:
 2501              	.LBB1128:
 2502              	.LBB1013:
 2503              	.LBB1009:
 2504              	.LBB1005:
 2505              	.LBB1002:
 2506              	.LBI1002:
 2507              		.loc 13 261 13 view .LVU549
 2508              	.LBE1002:
 2509              	.LBE1005:
 2510              	.LBE1009:
 2511              	.LBE1013:
 2512              	.LBE1128:
 2513              	.LBE1206:
 2514              		.loc 13 261 41 view .LVU550
 2515              	.LBB1207:
 2516              	.LBB1129:
 2517              	.LBB1014:
 2518              	.LBB1010:
 2519              	.LBB1006:
ARM GAS  C:\Users\skipi\AppData\Local\Temp\ccpgF6Mp.s 			page 82


  32:../libs/PoliTeKDSP/libs/libDaisy/src/hid/disp/graphics_common.h ****     {
 2520              		.loc 13 32 66 is_stmt 0 view .LVU551
 2521 02a8 CA80     		strh	r2, [r1, #6]	@ movhi
 2522 02aa 0F80     		strh	r7, [r1]	@ movhi
 2523              	.LBE1006:
  34:../libs/PoliTeKDSP/libs/libDaisy/src/hid/disp/graphics_common.h **** 
 2524              		.loc 13 34 5 view .LVU552
 2525 02ac EAE6     		b	.L130
 2526              	.LVL167:
 2527              	.L126:
  34:../libs/PoliTeKDSP/libs/libDaisy/src/hid/disp/graphics_common.h **** 
 2528              		.loc 13 34 5 view .LVU553
 2529              	.LBE1010:
 2530              	.LBE1014:
 215:../libs/PoliTeKDSP/libs/libDaisy/src/hid/disp/graphics_common.h ****                 return {int16_t(other.GetRight() - width_),
 2531              		.loc 13 215 13 is_stmt 1 view .LVU554
 216:../libs/PoliTeKDSP/libs/libDaisy/src/hid/disp/graphics_common.h ****                         other.y_,
 2532              		.loc 13 216 17 view .LVU555
 2533              	.LBB1015:
 2534              	.LBI1015:
  60:../libs/PoliTeKDSP/libs/libDaisy/src/hid/disp/graphics_common.h ****     int16_t GetBottom() const { return y_ + height_; }
 2535              		.loc 13 60 13 view .LVU556
 2536              	.LBB1016:
  60:../libs/PoliTeKDSP/libs/libDaisy/src/hid/disp/graphics_common.h ****     int16_t GetBottom() const { return y_ + height_; }
 2537              		.loc 13 60 32 view .LVU557
  60:../libs/PoliTeKDSP/libs/libDaisy/src/hid/disp/graphics_common.h ****     int16_t GetBottom() const { return y_ + height_; }
 2538              		.loc 13 60 42 is_stmt 0 view .LVU558
 2539 02ae A188     		ldrh	r1, [r4, #4]
 2540              	.LVL168:
  60:../libs/PoliTeKDSP/libs/libDaisy/src/hid/disp/graphics_common.h ****     int16_t GetBottom() const { return y_ + height_; }
 2541              		.loc 13 60 42 view .LVU559
 2542 02b0 2788     		ldrh	r7, [r4]
 2543              	.LBE1016:
 2544              	.LBE1015:
 217:../libs/PoliTeKDSP/libs/libDaisy/src/hid/disp/graphics_common.h ****                         width_,
 2545              		.loc 13 217 31 view .LVU560
 2546 02b2 B4F90240 		ldrsh	r4, [r4, #2]
 2547              	.LVL169:
 2548              	.LBB1018:
 2549              	.LBB1017:
  60:../libs/PoliTeKDSP/libs/libDaisy/src/hid/disp/graphics_common.h ****     int16_t GetBottom() const { return y_ + height_; }
 2550              		.loc 13 60 42 view .LVU561
 2551 02b6 0F44     		add	r7, r7, r1
 2552              	.LBE1017:
 2553              	.LBE1018:
 2554              	.LBB1019:
 2555              	.LBB1020:
 2556              	.LBB1021:
  32:../libs/PoliTeKDSP/libs/libDaisy/src/hid/disp/graphics_common.h ****     {
 2557              		.loc 13 32 66 view .LVU562
 2558 02b8 0699     		ldr	r1, [sp, #24]
 2559 02ba 8B80     		strh	r3, [r1, #4]	@ movhi
 2560              	.LBE1021:
 2561              	.LBE1020:
 2562              	.LBE1019:
 216:../libs/PoliTeKDSP/libs/libDaisy/src/hid/disp/graphics_common.h ****                         other.y_,
 2563              		.loc 13 216 50 view .LVU563
ARM GAS  C:\Users\skipi\AppData\Local\Temp\ccpgF6Mp.s 			page 83


 2564 02bc FB1A     		subs	r3, r7, r3
 2565              	.LBB1032:
 2566              	.LBB1028:
 2567              	.LBB1024:
  32:../libs/PoliTeKDSP/libs/libDaisy/src/hid/disp/graphics_common.h ****     {
 2568              		.loc 13 32 66 view .LVU564
 2569 02be 4C80     		strh	r4, [r1, #2]	@ movhi
 2570              	.LBE1024:
 2571              	.LBE1028:
 2572              	.LBE1032:
 2573              	.LBE1129:
 2574              	.LBE1207:
 473:../libs/PoliTeKDSP/libs/libDaisy/src/hid/disp/display.h ****         ((ChildType*)(this))->ChildType::WriteString(str, font, on);
 2575              		.loc 10 473 18 view .LVU565
 2576 02c0 A4B2     		uxth	r4, r4
 2577              	.LBB1208:
 2578              	.LBB1130:
 216:../libs/PoliTeKDSP/libs/libDaisy/src/hid/disp/graphics_common.h ****                         other.y_,
 2579              		.loc 13 216 50 view .LVU566
 2580 02c2 9FB2     		uxth	r7, r3
 2581              	.LVL170:
 2582              	.LBB1033:
 2583              	.LBI1019:
  31:../libs/PoliTeKDSP/libs/libDaisy/src/hid/disp/graphics_common.h ****     : x_(x), y_(y), width_(max(0, width)), height_(max(0, height))
 2584              		.loc 13 31 5 is_stmt 1 view .LVU567
 2585              	.LBB1029:
 2586              	.LBB1025:
 2587              	.LBB1022:
 2588              	.LBI1022:
 2589              		.loc 13 261 13 view .LVU568
 2590              	.LBE1022:
 2591              	.LBE1025:
 2592              	.LBE1029:
 2593              	.LBE1033:
 2594              	.LBE1130:
 2595              	.LBE1208:
 2596              		.loc 13 261 41 view .LVU569
 2597              	.LBB1209:
 2598              	.LBB1131:
 2599              	.LBB1034:
 2600              	.LBB1030:
 2601              	.LBB1026:
 2602              	.LBB1023:
 2603              	.LBI1023:
 2604              		.loc 13 261 13 view .LVU570
 2605              	.LBE1023:
 2606              	.LBE1026:
 2607              	.LBE1030:
 2608              	.LBE1034:
 2609              	.LBE1131:
 2610              	.LBE1209:
 2611              		.loc 13 261 41 view .LVU571
 2612              	.LBB1210:
 2613              	.LBB1132:
 2614              	.LBB1035:
 2615              	.LBB1031:
 2616              	.LBB1027:
ARM GAS  C:\Users\skipi\AppData\Local\Temp\ccpgF6Mp.s 			page 84


  32:../libs/PoliTeKDSP/libs/libDaisy/src/hid/disp/graphics_common.h ****     {
 2617              		.loc 13 32 66 is_stmt 0 view .LVU572
 2618 02c4 CA80     		strh	r2, [r1, #6]	@ movhi
 2619 02c6 0F80     		strh	r7, [r1]	@ movhi
 2620              	.LBE1027:
  34:../libs/PoliTeKDSP/libs/libDaisy/src/hid/disp/graphics_common.h **** 
 2621              		.loc 13 34 5 view .LVU573
 2622 02c8 DCE6     		b	.L130
 2623              	.LVL171:
 2624              	.L125:
  34:../libs/PoliTeKDSP/libs/libDaisy/src/hid/disp/graphics_common.h **** 
 2625              		.loc 13 34 5 view .LVU574
 2626              	.LBE1031:
 2627              	.LBE1035:
 225:../libs/PoliTeKDSP/libs/libDaisy/src/hid/disp/graphics_common.h ****                 return {other.x_,
 2628              		.loc 13 225 13 is_stmt 1 view .LVU575
 226:../libs/PoliTeKDSP/libs/libDaisy/src/hid/disp/graphics_common.h ****                         int16_t(other.GetBottom() - height_),
 2629              		.loc 13 226 17 view .LVU576
 2630              	.LBB1036:
 2631              	.LBB1037:
  61:../libs/PoliTeKDSP/libs/libDaisy/src/hid/disp/graphics_common.h ****     int16_t GetCenterX() const { return x_ + width_ / 2; }
 2632              		.loc 13 61 43 is_stmt 0 view .LVU577
 2633 02ca E788     		ldrh	r7, [r4, #6]
 2634 02cc 6188     		ldrh	r1, [r4, #2]
 2635              	.LVL172:
  61:../libs/PoliTeKDSP/libs/libDaisy/src/hid/disp/graphics_common.h ****     int16_t GetCenterX() const { return x_ + width_ / 2; }
 2636              		.loc 13 61 43 view .LVU578
 2637 02ce 3944     		add	r1, r1, r7
 2638              	.LBE1037:
 2639              	.LBE1036:
 226:../libs/PoliTeKDSP/libs/libDaisy/src/hid/disp/graphics_common.h ****                         int16_t(other.GetBottom() - height_),
 2640              		.loc 13 226 31 view .LVU579
 2641 02d0 B4F90070 		ldrsh	r7, [r4]
 227:../libs/PoliTeKDSP/libs/libDaisy/src/hid/disp/graphics_common.h ****                         width_,
 2642              		.loc 13 227 51 view .LVU580
 2643 02d4 081A     		subs	r0, r1, r0
 2644              	.LVL173:
 2645              	.LBB1039:
 2646              	.LBI1036:
  61:../libs/PoliTeKDSP/libs/libDaisy/src/hid/disp/graphics_common.h ****     int16_t GetCenterX() const { return x_ + width_ / 2; }
 2647              		.loc 13 61 13 is_stmt 1 view .LVU581
 2648              	.LBB1038:
  61:../libs/PoliTeKDSP/libs/libDaisy/src/hid/disp/graphics_common.h ****     int16_t GetCenterX() const { return x_ + width_ / 2; }
 2649              		.loc 13 61 33 view .LVU582
  61:../libs/PoliTeKDSP/libs/libDaisy/src/hid/disp/graphics_common.h ****     int16_t GetCenterX() const { return x_ + width_ / 2; }
 2650              		.loc 13 61 33 is_stmt 0 view .LVU583
 2651              	.LBE1038:
 2652              	.LBE1039:
 2653              	.LBB1040:
 2654              	.LBB1041:
 2655              	.LBB1042:
  32:../libs/PoliTeKDSP/libs/libDaisy/src/hid/disp/graphics_common.h ****     {
 2656              		.loc 13 32 66 view .LVU584
 2657 02d6 0699     		ldr	r1, [sp, #24]
 2658              	.LBE1042:
 2659              	.LBE1041:
 2660              	.LBE1040:
ARM GAS  C:\Users\skipi\AppData\Local\Temp\ccpgF6Mp.s 			page 85


 227:../libs/PoliTeKDSP/libs/libDaisy/src/hid/disp/graphics_common.h ****                         width_,
 2661              		.loc 13 227 51 view .LVU585
 2662 02d8 84B2     		uxth	r4, r0
 2663              	.LVL174:
 2664              	.LBB1052:
 2665              	.LBB1048:
 2666              	.LBB1045:
  32:../libs/PoliTeKDSP/libs/libDaisy/src/hid/disp/graphics_common.h ****     {
 2667              		.loc 13 32 66 view .LVU586
 2668 02da 0F80     		strh	r7, [r1]	@ movhi
 2669 02dc 8B80     		strh	r3, [r1, #4]	@ movhi
 2670              	.LVL175:
  32:../libs/PoliTeKDSP/libs/libDaisy/src/hid/disp/graphics_common.h ****     {
 2671              		.loc 13 32 66 view .LVU587
 2672              	.LBE1045:
 2673              	.LBE1048:
 2674              	.LBI1040:
  31:../libs/PoliTeKDSP/libs/libDaisy/src/hid/disp/graphics_common.h ****     : x_(x), y_(y), width_(max(0, width)), height_(max(0, height))
 2675              		.loc 13 31 5 is_stmt 1 view .LVU588
 2676              	.LBE1052:
 2677              	.LBE1132:
 2678              	.LBE1210:
 473:../libs/PoliTeKDSP/libs/libDaisy/src/hid/disp/display.h ****         ((ChildType*)(this))->ChildType::WriteString(str, font, on);
 2679              		.loc 10 473 18 is_stmt 0 view .LVU589
 2680 02de BFB2     		uxth	r7, r7
 2681              	.LVL176:
 2682              	.LBB1211:
 2683              	.LBB1133:
 2684              	.LBB1053:
 2685              	.LBB1049:
 2686              	.LBB1046:
  32:../libs/PoliTeKDSP/libs/libDaisy/src/hid/disp/graphics_common.h ****     {
 2687              		.loc 13 32 66 view .LVU590
 2688 02e0 CA80     		strh	r2, [r1, #6]	@ movhi
 2689 02e2 4C80     		strh	r4, [r1, #2]	@ movhi
 2690              	.LVL177:
 2691              	.LBB1043:
 2692              	.LBI1043:
 2693              		.loc 13 261 13 is_stmt 1 view .LVU591
 2694              	.LBE1043:
 2695              	.LBE1046:
 2696              	.LBE1049:
 2697              	.LBE1053:
 2698              	.LBE1133:
 2699              	.LBE1211:
 2700              		.loc 13 261 41 view .LVU592
 2701              	.LBB1212:
 2702              	.LBB1134:
 2703              	.LBB1054:
 2704              	.LBB1050:
 2705              	.LBB1047:
 2706              	.LBB1044:
 2707              	.LBI1044:
 2708              		.loc 13 261 13 view .LVU593
 2709              	.LBE1044:
 2710              	.LBE1047:
 2711              	.LBE1050:
ARM GAS  C:\Users\skipi\AppData\Local\Temp\ccpgF6Mp.s 			page 86


 2712              	.LBE1054:
 2713              	.LBE1134:
 2714              	.LBE1212:
 2715              		.loc 13 261 41 view .LVU594
 2716              	.LBB1213:
 2717              	.LBB1135:
 2718              	.LBB1055:
 2719              	.LBB1051:
  34:../libs/PoliTeKDSP/libs/libDaisy/src/hid/disp/graphics_common.h **** 
 2720              		.loc 13 34 5 is_stmt 0 view .LVU595
 2721 02e4 CEE6     		b	.L130
 2722              	.LVL178:
 2723              	.L124:
  34:../libs/PoliTeKDSP/libs/libDaisy/src/hid/disp/graphics_common.h **** 
 2724              		.loc 13 34 5 view .LVU596
 2725              	.LBE1051:
 2726              	.LBE1055:
 235:../libs/PoliTeKDSP/libs/libDaisy/src/hid/disp/graphics_common.h ****                 return {int16_t(x_ + (other.GetCenterX() - GetCenterX())),
 2727              		.loc 13 235 13 is_stmt 1 view .LVU597
 236:../libs/PoliTeKDSP/libs/libDaisy/src/hid/disp/graphics_common.h ****                         int16_t(other.GetBottom() - height_),
 2728              		.loc 13 236 17 view .LVU598
 2729              	.LBB1056:
 2730              	.LBI1056:
  62:../libs/PoliTeKDSP/libs/libDaisy/src/hid/disp/graphics_common.h ****     int16_t GetCenterY() const { return y_ + height_ / 2; }
 2731              		.loc 13 62 13 view .LVU599
 2732              	.LBB1057:
  62:../libs/PoliTeKDSP/libs/libDaisy/src/hid/disp/graphics_common.h ****     int16_t GetCenterY() const { return y_ + height_ / 2; }
 2733              		.loc 13 62 34 view .LVU600
  62:../libs/PoliTeKDSP/libs/libDaisy/src/hid/disp/graphics_common.h ****     int16_t GetCenterY() const { return y_ + height_ / 2; }
 2734              		.loc 13 62 34 is_stmt 0 view .LVU601
 2735              	.LBE1057:
 2736              	.LBE1056:
 2737              	.LBB1059:
 2738              	.LBI1059:
  62:../libs/PoliTeKDSP/libs/libDaisy/src/hid/disp/graphics_common.h ****     int16_t GetCenterY() const { return y_ + height_ / 2; }
 2739              		.loc 13 62 13 is_stmt 1 view .LVU602
 2740              	.LBB1060:
  62:../libs/PoliTeKDSP/libs/libDaisy/src/hid/disp/graphics_common.h ****     int16_t GetCenterY() const { return y_ + height_ / 2; }
 2741              		.loc 13 62 34 view .LVU603
  62:../libs/PoliTeKDSP/libs/libDaisy/src/hid/disp/graphics_common.h ****     int16_t GetCenterY() const { return y_ + height_ / 2; }
 2742              		.loc 13 62 34 is_stmt 0 view .LVU604
 2743              	.LBE1060:
 2744              	.LBE1059:
 2745              	.LBB1061:
 2746              	.LBB1058:
  62:../libs/PoliTeKDSP/libs/libDaisy/src/hid/disp/graphics_common.h ****     int16_t GetCenterY() const { return y_ + height_ / 2; }
 2747              		.loc 13 62 53 view .LVU605
 2748 02e6 B4F90410 		ldrsh	r1, [r4, #4]
 2749              	.LVL179:
  62:../libs/PoliTeKDSP/libs/libDaisy/src/hid/disp/graphics_common.h ****     int16_t GetCenterY() const { return y_ + height_ / 2; }
 2750              		.loc 13 62 44 view .LVU606
 2751 02ea 2788     		ldrh	r7, [r4]
  62:../libs/PoliTeKDSP/libs/libDaisy/src/hid/disp/graphics_common.h ****     int16_t GetCenterY() const { return y_ + height_ / 2; }
 2752              		.loc 13 62 53 view .LVU607
 2753 02ec 0029     		cmp	r1, #0
 2754 02ee B8BF     		it	lt
 2755 02f0 0131     		addlt	r1, r1, #1
ARM GAS  C:\Users\skipi\AppData\Local\Temp\ccpgF6Mp.s 			page 87


  62:../libs/PoliTeKDSP/libs/libDaisy/src/hid/disp/graphics_common.h ****     int16_t GetCenterY() const { return y_ + height_ / 2; }
 2756              		.loc 13 62 44 view .LVU608
 2757 02f2 07EB6107 		add	r7, r7, r1, asr #1
 2758              	.LBE1058:
 2759              	.LBE1061:
 236:../libs/PoliTeKDSP/libs/libDaisy/src/hid/disp/graphics_common.h ****                         int16_t(other.GetBottom() - height_),
 2760              		.loc 13 236 58 view .LVU609
 2761 02f6 A7EB6307 		sub	r7, r7, r3, asr #1
 2762              	.L190:
 2763              	.LBB1062:
 2764              	.LBB1063:
  61:../libs/PoliTeKDSP/libs/libDaisy/src/hid/disp/graphics_common.h ****     int16_t GetCenterX() const { return x_ + width_ / 2; }
 2765              		.loc 13 61 43 view .LVU610
 2766 02fa B4F802C0 		ldrh	ip, [r4, #2]
 2767              	.LBE1063:
 2768              	.LBE1062:
 236:../libs/PoliTeKDSP/libs/libDaisy/src/hid/disp/graphics_common.h ****                         int16_t(other.GetBottom() - height_),
 2769              		.loc 13 236 58 view .LVU611
 2770 02fe BFB2     		uxth	r7, r7
 2771              	.LVL180:
 2772              	.LBB1066:
 2773              	.LBI1062:
  61:../libs/PoliTeKDSP/libs/libDaisy/src/hid/disp/graphics_common.h ****     int16_t GetCenterX() const { return x_ + width_ / 2; }
 2774              		.loc 13 61 13 is_stmt 1 view .LVU612
 2775              	.LBB1064:
  61:../libs/PoliTeKDSP/libs/libDaisy/src/hid/disp/graphics_common.h ****     int16_t GetCenterX() const { return x_ + width_ / 2; }
 2776              		.loc 13 61 33 view .LVU613
  61:../libs/PoliTeKDSP/libs/libDaisy/src/hid/disp/graphics_common.h ****     int16_t GetCenterX() const { return x_ + width_ / 2; }
 2777              		.loc 13 61 43 is_stmt 0 view .LVU614
 2778 0300 E488     		ldrh	r4, [r4, #6]
 2779              	.LVL181:
  61:../libs/PoliTeKDSP/libs/libDaisy/src/hid/disp/graphics_common.h ****     int16_t GetCenterX() const { return x_ + width_ / 2; }
 2780              		.loc 13 61 43 view .LVU615
 2781              	.LBE1064:
 2782              	.LBE1066:
 2783              	.LBB1067:
 2784              	.LBB1068:
 2785              	.LBB1069:
  32:../libs/PoliTeKDSP/libs/libDaisy/src/hid/disp/graphics_common.h ****     {
 2786              		.loc 13 32 66 view .LVU616
 2787 0302 0699     		ldr	r1, [sp, #24]
 2788              	.LBE1069:
 2789              	.LBE1068:
 2790              	.LBE1067:
 2791              	.LBB1081:
 2792              	.LBB1065:
  61:../libs/PoliTeKDSP/libs/libDaisy/src/hid/disp/graphics_common.h ****     int16_t GetCenterX() const { return x_ + width_ / 2; }
 2793              		.loc 13 61 43 view .LVU617
 2794 0304 6444     		add	r4, r4, ip
 2795              	.LBE1065:
 2796              	.LBE1081:
 2797              	.LBB1082:
 2798              	.LBB1076:
 2799              	.LBB1072:
  32:../libs/PoliTeKDSP/libs/libDaisy/src/hid/disp/graphics_common.h ****     {
 2800              		.loc 13 32 66 view .LVU618
 2801 0306 8B80     		strh	r3, [r1, #4]	@ movhi
ARM GAS  C:\Users\skipi\AppData\Local\Temp\ccpgF6Mp.s 			page 88


 2802              	.LBE1072:
 2803              	.LBE1076:
 2804              	.LBE1082:
 237:../libs/PoliTeKDSP/libs/libDaisy/src/hid/disp/graphics_common.h ****                         width_,
 2805              		.loc 13 237 51 view .LVU619
 2806 0308 201A     		subs	r0, r4, r0
 2807              	.LBB1083:
 2808              	.LBB1077:
 2809              	.LBB1073:
  32:../libs/PoliTeKDSP/libs/libDaisy/src/hid/disp/graphics_common.h ****     {
 2810              		.loc 13 32 66 view .LVU620
 2811 030a CA80     		strh	r2, [r1, #6]	@ movhi
 2812 030c 0F80     		strh	r7, [r1]	@ movhi
 2813              	.LBE1073:
 2814              	.LBE1077:
 2815              	.LBE1083:
 237:../libs/PoliTeKDSP/libs/libDaisy/src/hid/disp/graphics_common.h ****                         width_,
 2816              		.loc 13 237 51 view .LVU621
 2817 030e 84B2     		uxth	r4, r0
 2818              	.LVL182:
 2819              	.LBB1084:
 2820              	.LBI1067:
  31:../libs/PoliTeKDSP/libs/libDaisy/src/hid/disp/graphics_common.h ****     : x_(x), y_(y), width_(max(0, width)), height_(max(0, height))
 2821              		.loc 13 31 5 is_stmt 1 view .LVU622
 2822              	.LBB1078:
 2823              	.LBB1074:
  32:../libs/PoliTeKDSP/libs/libDaisy/src/hid/disp/graphics_common.h ****     {
 2824              		.loc 13 32 66 is_stmt 0 view .LVU623
 2825 0310 4C80     		strh	r4, [r1, #2]	@ movhi
 2826              	.LVL183:
 2827              	.LBB1070:
 2828              	.LBI1070:
 2829              		.loc 13 261 13 is_stmt 1 view .LVU624
 2830              	.LBE1070:
 2831              	.LBE1074:
 2832              	.LBE1078:
 2833              	.LBE1084:
 2834              	.LBE1135:
 2835              	.LBE1213:
 2836              		.loc 13 261 41 view .LVU625
 2837              	.LBB1214:
 2838              	.LBB1136:
 2839              	.LBB1085:
 2840              	.LBB1079:
 2841              	.LBB1075:
 2842              	.LBB1071:
 2843              	.LBI1071:
 2844              		.loc 13 261 13 view .LVU626
 2845              	.LBE1071:
 2846              	.LBE1075:
 2847              	.LBE1079:
 2848              	.LBE1085:
 2849              	.LBE1136:
 2850              	.LBE1214:
 2851              		.loc 13 261 41 view .LVU627
 2852              	.LBB1215:
 2853              	.LBB1137:
ARM GAS  C:\Users\skipi\AppData\Local\Temp\ccpgF6Mp.s 			page 89


 2854              	.LBB1086:
 2855              	.LBB1080:
  34:../libs/PoliTeKDSP/libs/libDaisy/src/hid/disp/graphics_common.h **** 
 2856              		.loc 13 34 5 is_stmt 0 view .LVU628
 2857 0312 B7E6     		b	.L130
 2858              	.LVL184:
 2859              	.L123:
  34:../libs/PoliTeKDSP/libs/libDaisy/src/hid/disp/graphics_common.h **** 
 2860              		.loc 13 34 5 view .LVU629
 2861              	.LBE1080:
 2862              	.LBE1086:
 230:../libs/PoliTeKDSP/libs/libDaisy/src/hid/disp/graphics_common.h ****                 return {int16_t(other.GetRight() - width_),
 2863              		.loc 13 230 13 is_stmt 1 view .LVU630
 231:../libs/PoliTeKDSP/libs/libDaisy/src/hid/disp/graphics_common.h ****                         int16_t(other.GetBottom() - height_),
 2864              		.loc 13 231 17 view .LVU631
 2865              	.LBB1087:
 2866              	.LBI1087:
  60:../libs/PoliTeKDSP/libs/libDaisy/src/hid/disp/graphics_common.h ****     int16_t GetBottom() const { return y_ + height_; }
 2867              		.loc 13 60 13 view .LVU632
 2868              	.LBB1088:
  60:../libs/PoliTeKDSP/libs/libDaisy/src/hid/disp/graphics_common.h ****     int16_t GetBottom() const { return y_ + height_; }
 2869              		.loc 13 60 32 view .LVU633
  60:../libs/PoliTeKDSP/libs/libDaisy/src/hid/disp/graphics_common.h ****     int16_t GetBottom() const { return y_ + height_; }
 2870              		.loc 13 60 42 is_stmt 0 view .LVU634
 2871 0314 2788     		ldrh	r7, [r4]
 2872 0316 A188     		ldrh	r1, [r4, #4]
 2873              	.LVL185:
  60:../libs/PoliTeKDSP/libs/libDaisy/src/hid/disp/graphics_common.h ****     int16_t GetBottom() const { return y_ + height_; }
 2874              		.loc 13 60 42 view .LVU635
 2875 0318 0F44     		add	r7, r7, r1
 2876              	.LBE1088:
 2877              	.LBE1087:
 231:../libs/PoliTeKDSP/libs/libDaisy/src/hid/disp/graphics_common.h ****                         int16_t(other.GetBottom() - height_),
 2878              		.loc 13 231 50 view .LVU636
 2879 031a FF1A     		subs	r7, r7, r3
 2880 031c EDE7     		b	.L190
 2881              	.L203:
 2882 031e 00BF     		.align	2
 2883              	.L202:
 2884 0320 00000000 		.word	_ZNK5daisy11OledDisplayINS_13SSD130xDriverILj128ELj64ENS_19SSD130xI2CTransportEEEE5WidthEv
 2885 0324 00000000 		.word	_ZNK5daisy11OledDisplayINS_13SSD130xDriverILj128ELj64ENS_19SSD130xI2CTransportEEEE6HeightEv
 2886              	.LVL186:
 2887              	.L122:
 240:../libs/PoliTeKDSP/libs/libDaisy/src/hid/disp/graphics_common.h ****                 return {other.x_,
 2888              		.loc 13 240 13 is_stmt 1 view .LVU637
 241:../libs/PoliTeKDSP/libs/libDaisy/src/hid/disp/graphics_common.h ****                         int16_t(y_ + (other.GetCenterY() - GetCenterY())),
 2889              		.loc 13 241 17 view .LVU638
 2890              	.LBB1089:
 2891              	.LBB1090:
  63:../libs/PoliTeKDSP/libs/libDaisy/src/hid/disp/graphics_common.h **** 
 2892              		.loc 13 63 54 is_stmt 0 view .LVU639
 2893 0328 B4F90610 		ldrsh	r1, [r4, #6]
 2894              	.LVL187:
  63:../libs/PoliTeKDSP/libs/libDaisy/src/hid/disp/graphics_common.h **** 
 2895              		.loc 13 63 44 view .LVU640
 2896 032c B4F802C0 		ldrh	ip, [r4, #2]
  63:../libs/PoliTeKDSP/libs/libDaisy/src/hid/disp/graphics_common.h **** 
ARM GAS  C:\Users\skipi\AppData\Local\Temp\ccpgF6Mp.s 			page 90


 2897              		.loc 13 63 54 view .LVU641
 2898 0330 0029     		cmp	r1, #0
 2899              	.LBE1090:
 2900              	.LBE1089:
 241:../libs/PoliTeKDSP/libs/libDaisy/src/hid/disp/graphics_common.h ****                         int16_t(y_ + (other.GetCenterY() - GetCenterY())),
 2901              		.loc 13 241 31 view .LVU642
 2902 0332 B4F90070 		ldrsh	r7, [r4]
 2903              	.LVL188:
 2904              	.LBB1094:
 2905              	.LBI1089:
  63:../libs/PoliTeKDSP/libs/libDaisy/src/hid/disp/graphics_common.h **** 
 2906              		.loc 13 63 13 is_stmt 1 view .LVU643
 2907              	.LBB1091:
  63:../libs/PoliTeKDSP/libs/libDaisy/src/hid/disp/graphics_common.h **** 
 2908              		.loc 13 63 34 view .LVU644
  63:../libs/PoliTeKDSP/libs/libDaisy/src/hid/disp/graphics_common.h **** 
 2909              		.loc 13 63 34 is_stmt 0 view .LVU645
 2910              	.LBE1091:
 2911              	.LBE1094:
 2912              	.LBB1095:
 2913              	.LBI1095:
  63:../libs/PoliTeKDSP/libs/libDaisy/src/hid/disp/graphics_common.h **** 
 2914              		.loc 13 63 13 is_stmt 1 view .LVU646
 2915              	.LBB1096:
  63:../libs/PoliTeKDSP/libs/libDaisy/src/hid/disp/graphics_common.h **** 
 2916              		.loc 13 63 34 view .LVU647
  63:../libs/PoliTeKDSP/libs/libDaisy/src/hid/disp/graphics_common.h **** 
 2917              		.loc 13 63 34 is_stmt 0 view .LVU648
 2918              	.LBE1096:
 2919              	.LBE1095:
 2920              	.LBB1097:
 2921              	.LBB1098:
 2922              	.LBB1099:
  32:../libs/PoliTeKDSP/libs/libDaisy/src/hid/disp/graphics_common.h ****     {
 2923              		.loc 13 32 66 view .LVU649
 2924 0336 0698     		ldr	r0, [sp, #24]
 2925              	.LBE1099:
 2926              	.LBE1098:
 2927              	.LBE1097:
 2928              	.LBB1111:
 2929              	.LBB1092:
  63:../libs/PoliTeKDSP/libs/libDaisy/src/hid/disp/graphics_common.h **** 
 2930              		.loc 13 63 54 view .LVU650
 2931 0338 B8BF     		it	lt
 2932 033a 0131     		addlt	r1, r1, #1
 2933              	.LBE1092:
 2934              	.LBE1111:
 2935              	.LBB1112:
 2936              	.LBB1106:
 2937              	.LBB1102:
  32:../libs/PoliTeKDSP/libs/libDaisy/src/hid/disp/graphics_common.h ****     {
 2938              		.loc 13 32 66 view .LVU651
 2939 033c C280     		strh	r2, [r0, #6]	@ movhi
 2940              	.LBE1102:
 2941              	.LBE1106:
 2942              	.LBE1112:
 2943              	.LBB1113:
ARM GAS  C:\Users\skipi\AppData\Local\Temp\ccpgF6Mp.s 			page 91


 2944              	.LBB1093:
  63:../libs/PoliTeKDSP/libs/libDaisy/src/hid/disp/graphics_common.h **** 
 2945              		.loc 13 63 44 view .LVU652
 2946 033e 0CEB6104 		add	r4, ip, r1, asr #1
 2947              	.LVL189:
  63:../libs/PoliTeKDSP/libs/libDaisy/src/hid/disp/graphics_common.h **** 
 2948              		.loc 13 63 44 view .LVU653
 2949              	.LBE1093:
 2950              	.LBE1113:
 2951              	.LBB1114:
 2952              	.LBB1107:
 2953              	.LBB1103:
  32:../libs/PoliTeKDSP/libs/libDaisy/src/hid/disp/graphics_common.h ****     {
 2954              		.loc 13 32 66 view .LVU654
 2955 0342 0780     		strh	r7, [r0]	@ movhi
 2956 0344 8380     		strh	r3, [r0, #4]	@ movhi
 2957              	.LBE1103:
 2958              	.LBE1107:
 2959              	.LBE1114:
 2960              	.LBE1137:
 2961              	.LBE1215:
 473:../libs/PoliTeKDSP/libs/libDaisy/src/hid/disp/display.h ****         ((ChildType*)(this))->ChildType::WriteString(str, font, on);
 2962              		.loc 10 473 18 view .LVU655
 2963 0346 BFB2     		uxth	r7, r7
 2964              	.LBB1216:
 2965              	.LBB1138:
 242:../libs/PoliTeKDSP/libs/libDaisy/src/hid/disp/graphics_common.h ****                         width_,
 2966              		.loc 13 242 58 view .LVU656
 2967 0348 A4EB5202 		sub	r2, r4, r2, lsr #1
 2968 034c 94B2     		uxth	r4, r2
 2969              	.LVL190:
 2970              	.LBB1115:
 2971              	.LBI1097:
  31:../libs/PoliTeKDSP/libs/libDaisy/src/hid/disp/graphics_common.h ****     : x_(x), y_(y), width_(max(0, width)), height_(max(0, height))
 2972              		.loc 13 31 5 is_stmt 1 view .LVU657
 2973              	.LBB1108:
 2974              	.LBB1104:
  32:../libs/PoliTeKDSP/libs/libDaisy/src/hid/disp/graphics_common.h ****     {
 2975              		.loc 13 32 66 is_stmt 0 view .LVU658
 2976 034e 4480     		strh	r4, [r0, #2]	@ movhi
 2977              	.LVL191:
 2978              	.LBB1100:
 2979              	.LBI1100:
 2980              		.loc 13 261 13 is_stmt 1 view .LVU659
 2981              	.LBE1100:
 2982              	.LBE1104:
 2983              	.LBE1108:
 2984              	.LBE1115:
 2985              	.LBE1138:
 2986              	.LBE1216:
 2987              		.loc 13 261 41 view .LVU660
 2988              	.LBB1217:
 2989              	.LBB1139:
 2990              	.LBB1116:
 2991              	.LBB1109:
 2992              	.LBB1105:
 2993              	.LBB1101:
ARM GAS  C:\Users\skipi\AppData\Local\Temp\ccpgF6Mp.s 			page 92


 2994              	.LBI1101:
 2995              		.loc 13 261 13 view .LVU661
 2996              	.LBE1101:
 2997              	.LBE1105:
 2998              	.LBE1109:
 2999              	.LBE1116:
 3000              	.LBE1139:
 3001              	.LBE1217:
 3002              		.loc 13 261 41 view .LVU662
 3003              	.LBB1218:
 3004              	.LBB1140:
 3005              	.LBB1117:
 3006              	.LBB1110:
  34:../libs/PoliTeKDSP/libs/libDaisy/src/hid/disp/graphics_common.h **** 
 3007              		.loc 13 34 5 is_stmt 0 view .LVU663
 3008 0350 98E6     		b	.L130
 3009              	.LVL192:
 3010              	.L150:
  34:../libs/PoliTeKDSP/libs/libDaisy/src/hid/disp/graphics_common.h **** 
 3011              		.loc 13 34 5 view .LVU664
 3012              	.LBE1110:
 3013              	.LBE1117:
 3014              	.LBE1140:
 3015              	.LBE1218:
 3016              	.LBB1219:
 3017              	.LBB1197:
 3018              	.LBB1194:
 3019              	.LBB1193:
 407:../libs/PoliTeKDSP/libs/libDaisy/src/hid/disp/display.h **** 
 3020              		.loc 10 407 20 view .LVU665
 3021 0352 4FF0000B 		mov	fp, #0
 3022              	.LVL193:
 407:../libs/PoliTeKDSP/libs/libDaisy/src/hid/disp/display.h **** 
 3023              		.loc 10 407 20 view .LVU666
 3024 0356 69E7     		b	.L148
 3025              	.LVL194:
 3026              	.L195:
 410:../libs/PoliTeKDSP/libs/libDaisy/src/hid/disp/display.h ****            || Height() < (currentY_ + font.FontHeight))
 3027              		.loc 10 410 17 view .LVU667
 3028 0358 4046     		mov	r0, r8
 3029 035a 9847     		blx	r3
 3030              	.LVL195:
 3031 035c D3E6     		b	.L149
 3032              	.L196:
 411:../libs/PoliTeKDSP/libs/libDaisy/src/hid/disp/display.h ****         {
 3033              		.loc 10 411 21 view .LVU668
 3034 035e 4046     		mov	r0, r8
 3035 0360 9847     		blx	r3
 3036              	.LVL196:
 3037 0362 DEE6     		b	.L151
 3038              	.LVL197:
 3039              	.L200:
 3040              	.LBB1191:
 3041              	.LBB1187:
 174:../libs/PoliTeKDSP/libs/libDaisy/src/hid/disp/display.h ****     }
 3042              		.loc 10 174 33 view .LVU669
 3043 0364 4046     		mov	r0, r8
ARM GAS  C:\Users\skipi\AppData\Local\Temp\ccpgF6Mp.s 			page 93


 3044 0366 9847     		blx	r3
 3045              	.LVL198:
 3046 0368 51E7     		b	.L165
 3047              	.LVL199:
 3048              	.L198:
 173:../libs/PoliTeKDSP/libs/libDaisy/src/hid/disp/display.h ****         currentY_ = (y >= Height()) ? Height() - 1 : y;
 3049              		.loc 10 173 32 view .LVU670
 3050 036a 4046     		mov	r0, r8
 3051 036c 9847     		blx	r3
 3052              	.LVL200:
 173:../libs/PoliTeKDSP/libs/libDaisy/src/hid/disp/display.h ****         currentY_ = (y >= Height()) ? Height() - 1 : y;
 3053              		.loc 10 173 44 view .LVU671
 3054 036e D8F80020 		ldr	r2, [r8]
 3055 0372 3CE7     		b	.L162
 3056              	.LVL201:
 3057              	.L152:
 173:../libs/PoliTeKDSP/libs/libDaisy/src/hid/disp/display.h ****         currentY_ = (y >= Height()) ? Height() - 1 : y;
 3058              		.loc 10 173 44 view .LVU672
 3059              	.LBE1187:
 3060              	.LBE1191:
 439:../libs/PoliTeKDSP/libs/libDaisy/src/hid/disp/display.h **** 
 3061              		.loc 10 439 19 view .LVU673
 3062 0374 B8F804A0 		ldrh	r10, [r8, #4]
 3063 0378 2EE7     		b	.L154
 3064              	.LVL202:
 3065              	.L201:
 3066              	.LBB1192:
 3067              	.LBB1188:
 174:../libs/PoliTeKDSP/libs/libDaisy/src/hid/disp/display.h ****     }
 3068              		.loc 10 174 45 view .LVU674
 3069 037a 4046     		mov	r0, r8
 3070 037c 9847     		blx	r3
 3071              	.LVL203:
 174:../libs/PoliTeKDSP/libs/libDaisy/src/hid/disp/display.h ****     }
 3072              		.loc 10 174 19 view .LVU675
 3073 037e 0138     		subs	r0, r0, #1
 3074 0380 83B2     		uxth	r3, r0
 3075 0382 0293     		str	r3, [sp, #8]
 3076              	.LVL204:
 174:../libs/PoliTeKDSP/libs/libDaisy/src/hid/disp/display.h ****     }
 3077              		.loc 10 174 19 view .LVU676
 3078 0384 4FE7     		b	.L166
 3079              	.LVL205:
 3080              	.L199:
 173:../libs/PoliTeKDSP/libs/libDaisy/src/hid/disp/display.h ****         currentY_ = (y >= Height()) ? Height() - 1 : y;
 3081              		.loc 10 173 43 view .LVU677
 3082 0386 4046     		mov	r0, r8
 3083 0388 9847     		blx	r3
 3084              	.LVL206:
 173:../libs/PoliTeKDSP/libs/libDaisy/src/hid/disp/display.h ****         currentY_ = (y >= Height()) ? Height() - 1 : y;
 3085              		.loc 10 173 19 view .LVU678
 3086 038a 0138     		subs	r0, r0, #1
 174:../libs/PoliTeKDSP/libs/libDaisy/src/hid/disp/display.h ****     }
 3087              		.loc 10 174 34 view .LVU679
 3088 038c D8F80020 		ldr	r2, [r8]
 173:../libs/PoliTeKDSP/libs/libDaisy/src/hid/disp/display.h ****         currentY_ = (y >= Height()) ? Height() - 1 : y;
 3089              		.loc 10 173 19 view .LVU680
ARM GAS  C:\Users\skipi\AppData\Local\Temp\ccpgF6Mp.s 			page 94


 3090 0390 85B2     		uxth	r5, r0
 3091              	.LVL207:
 173:../libs/PoliTeKDSP/libs/libDaisy/src/hid/disp/display.h ****         currentY_ = (y >= Height()) ? Height() - 1 : y;
 3092              		.loc 10 173 19 view .LVU681
 3093 0392 34E7     		b	.L163
 3094              	.LVL208:
 3095              	.L119:
 173:../libs/PoliTeKDSP/libs/libDaisy/src/hid/disp/display.h ****         currentY_ = (y >= Height()) ? Height() - 1 : y;
 3096              		.loc 10 173 19 view .LVU682
 3097              	.LBE1188:
 3098              	.LBE1192:
 3099              	.LBE1193:
 3100              	.LBE1194:
 3101              	.LBE1197:
 3102              	.LBE1219:
 3103              	.LBB1220:
 3104              	.LBB1141:
 255:../libs/PoliTeKDSP/libs/libDaisy/src/hid/disp/graphics_common.h ****         }
 3105              		.loc 13 255 13 is_stmt 1 view .LVU683
 255:../libs/PoliTeKDSP/libs/libDaisy/src/hid/disp/graphics_common.h ****         }
 3106              		.loc 13 255 22 view .LVU684
 3107              	.LBB1118:
 3108              	.LBI1118:
  24:../libs/PoliTeKDSP/libs/libDaisy/src/hid/disp/graphics_common.h **** 
 3109              		.loc 13 24 5 view .LVU685
 3110              	.LBE1118:
 3111              	.LBE1141:
 3112              	.LBE1220:
 3113              	.LBB1221:
 3114              	.LBB1147:
 173:../libs/PoliTeKDSP/libs/libDaisy/src/hid/disp/display.h ****         currentY_ = (y >= Height()) ? Height() - 1 : y;
 3115              		.loc 10 173 33 is_stmt 0 view .LVU686
 3116 0394 D8F80030 		ldr	r3, [r8]
 3117              	.LBE1147:
 3118              	.LBE1221:
 3119              	.LBB1222:
 3120              	.LBB1142:
 3121              	.LBB1120:
 3122              	.LBB1119:
  24:../libs/PoliTeKDSP/libs/libDaisy/src/hid/disp/graphics_common.h **** 
 3123              		.loc 13 24 53 view .LVU687
 3124 0398 0024     		movs	r4, #0
 3125              	.LVL209:
  24:../libs/PoliTeKDSP/libs/libDaisy/src/hid/disp/graphics_common.h **** 
 3126              		.loc 13 24 53 view .LVU688
 3127 039a 069A     		ldr	r2, [sp, #24]
 3128 039c 1249     		ldr	r1, .L204
 3129              	.LVL210:
  24:../libs/PoliTeKDSP/libs/libDaisy/src/hid/disp/graphics_common.h **** 
 3130              		.loc 13 24 53 view .LVU689
 3131 039e 1480     		strh	r4, [r2]	@ movhi
 3132 03a0 5480     		strh	r4, [r2, #2]	@ movhi
 3133 03a2 9480     		strh	r4, [r2, #4]	@ movhi
 3134 03a4 D480     		strh	r4, [r2, #6]	@ movhi
 3135              	.LVL211:
  24:../libs/PoliTeKDSP/libs/libDaisy/src/hid/disp/graphics_common.h **** 
 3136              		.loc 13 24 53 view .LVU690
ARM GAS  C:\Users\skipi\AppData\Local\Temp\ccpgF6Mp.s 			page 95


 3137              	.LBE1119:
 3138              	.LBE1120:
 3139              	.LBE1142:
 3140              	.LBE1222:
  56:../libs/PoliTeKDSP/libs/libDaisy/src/hid/disp/graphics_common.h ****     int16_t GetY() const { return y_; }
 3141              		.loc 13 56 28 is_stmt 1 view .LVU691
  57:../libs/PoliTeKDSP/libs/libDaisy/src/hid/disp/graphics_common.h ****     int16_t GetWidth() const { return width_; }
 3142              		.loc 13 57 28 view .LVU692
 3143              	.LBB1223:
 171:../libs/PoliTeKDSP/libs/libDaisy/src/hid/disp/display.h ****     {
 3144              		.loc 10 171 10 view .LVU693
 3145              	.LBB1148:
 173:../libs/PoliTeKDSP/libs/libDaisy/src/hid/disp/display.h ****         currentY_ = (y >= Height()) ? Height() - 1 : y;
 3146              		.loc 10 173 9 view .LVU694
 173:../libs/PoliTeKDSP/libs/libDaisy/src/hid/disp/display.h ****         currentY_ = (y >= Height()) ? Height() - 1 : y;
 3147              		.loc 10 173 33 is_stmt 0 view .LVU695
 3148 03a6 DA68     		ldr	r2, [r3, #12]
 3149 03a8 0191     		str	r1, [sp, #4]
 3150 03aa 8A42     		cmp	r2, r1
 3151 03ac 05D0     		beq	.L137
 3152 03ae 2746     		mov	r7, r4
 3153              	.LVL212:
 3154              	.L138:
 173:../libs/PoliTeKDSP/libs/libDaisy/src/hid/disp/display.h ****         currentY_ = (y >= Height()) ? Height() - 1 : y;
 3155              		.loc 10 173 32 view .LVU696
 3156 03b0 4046     		mov	r0, r8
 3157 03b2 9047     		blx	r2
 3158              	.LVL213:
 173:../libs/PoliTeKDSP/libs/libDaisy/src/hid/disp/display.h ****         currentY_ = (y >= Height()) ? Height() - 1 : y;
 3159              		.loc 10 173 44 view .LVU697
 3160 03b4 D8F80030 		ldr	r3, [r8]
 3161 03b8 6EE6     		b	.L139
 3162              	.LVL214:
 3163              	.L137:
 174:../libs/PoliTeKDSP/libs/libDaisy/src/hid/disp/display.h ****     }
 3164              		.loc 10 174 34 view .LVU698
 3165 03ba 9B68     		ldr	r3, [r3, #8]
 3166 03bc 0B4A     		ldr	r2, .L204+4
 173:../libs/PoliTeKDSP/libs/libDaisy/src/hid/disp/display.h ****         currentY_ = (y >= Height()) ? Height() - 1 : y;
 3167              		.loc 10 173 19 view .LVU699
 3168 03be A8F80440 		strh	r4, [r8, #4]	@ movhi
 174:../libs/PoliTeKDSP/libs/libDaisy/src/hid/disp/display.h ****     }
 3169              		.loc 10 174 9 is_stmt 1 view .LVU700
 3170 03c2 9342     		cmp	r3, r2
 3171 03c4 0392     		str	r2, [sp, #12]
 3172 03c6 3FF482AE 		beq	.L144
 3173              	.LVL215:
 3174              	.L170:
 174:../libs/PoliTeKDSP/libs/libDaisy/src/hid/disp/display.h ****     }
 3175              		.loc 10 174 33 is_stmt 0 view .LVU701
 3176 03ca 4046     		mov	r0, r8
 3177 03cc 9847     		blx	r3
 3178              	.LVL216:
 3179 03ce 74E6     		b	.L142
 3180              	.L194:
 174:../libs/PoliTeKDSP/libs/libDaisy/src/hid/disp/display.h ****     }
 3181              		.loc 10 174 45 view .LVU702
ARM GAS  C:\Users\skipi\AppData\Local\Temp\ccpgF6Mp.s 			page 96


 3182 03d0 4046     		mov	r0, r8
 3183 03d2 9847     		blx	r3
 3184              	.LVL217:
 174:../libs/PoliTeKDSP/libs/libDaisy/src/hid/disp/display.h ****     }
 3185              		.loc 10 174 19 view .LVU703
 3186 03d4 0138     		subs	r0, r0, #1
 3187 03d6 84B2     		uxth	r4, r0
 3188 03d8 79E6     		b	.L144
 3189              	.L193:
 173:../libs/PoliTeKDSP/libs/libDaisy/src/hid/disp/display.h ****         currentY_ = (y >= Height()) ? Height() - 1 : y;
 3190              		.loc 10 173 43 view .LVU704
 3191 03da 4046     		mov	r0, r8
 3192 03dc 9047     		blx	r2
 3193              	.LVL218:
 173:../libs/PoliTeKDSP/libs/libDaisy/src/hid/disp/display.h ****         currentY_ = (y >= Height()) ? Height() - 1 : y;
 3194              		.loc 10 173 19 view .LVU705
 3195 03de 0138     		subs	r0, r0, #1
 174:../libs/PoliTeKDSP/libs/libDaisy/src/hid/disp/display.h ****     }
 3196              		.loc 10 174 34 view .LVU706
 3197 03e0 D8F80030 		ldr	r3, [r8]
 173:../libs/PoliTeKDSP/libs/libDaisy/src/hid/disp/display.h ****         currentY_ = (y >= Height()) ? Height() - 1 : y;
 3198              		.loc 10 173 19 view .LVU707
 3199 03e4 87B2     		uxth	r7, r0
 3200 03e6 5FE6     		b	.L140
 3201              	.L205:
 3202              		.align	2
 3203              	.L204:
 3204 03e8 00000000 		.word	_ZNK5daisy11OledDisplayINS_13SSD130xDriverILj128ELj64ENS_19SSD130xI2CTransportEEEE5WidthEv
 3205 03ec 00000000 		.word	_ZNK5daisy11OledDisplayINS_13SSD130xDriverILj128ELj64ENS_19SSD130xI2CTransportEEEE6HeightEv
 3206              	.LBE1148:
 3207              	.LBE1223:
 3208              		.cfi_endproc
 3209              	.LFE5724:
 3211              		.section	.text._ZN5daisy11OledDisplayINS_13SSD130xDriverILj128ELj64ENS_19SSD130xI2CTransportEEEE9D
 3212              		.align	1
 3213              		.p2align 2,,3
 3214              		.weak	_ZN5daisy11OledDisplayINS_13SSD130xDriverILj128ELj64ENS_19SSD130xI2CTransportEEEE9DrawPixelE
 3215              		.syntax unified
 3216              		.thumb
 3217              		.thumb_func
 3218              		.fpu fpv5-d16
 3220              	_ZN5daisy11OledDisplayINS_13SSD130xDriverILj128ELj64ENS_19SSD130xI2CTransportEEEE9DrawPixelEjjb:
 3221              	.LVL219:
 3222              	.LFB5718:
  42:../libs/PoliTeKDSP/libs/libDaisy/src/hid/disp/oled_display.h ****     {
 3223              		.loc 9 42 10 is_stmt 1 view -0
 3224              		.cfi_startproc
 3225              		@ args = 0, pretend = 0, frame = 0
 3226              		@ frame_needed = 0, uses_anonymous_args = 0
 3227              		@ link register save eliminated.
 3228              	.LBB1228:
 3229              	.LBI1228:
 361:Display/../../libs/PoliTeKDSP/libs/libDaisy/src/dev/oled_ssd130x.h ****     {
 3230              		.loc 11 361 10 view .LVU709
 3231              	.LBB1229:
 363:Display/../../libs/PoliTeKDSP/libs/libDaisy/src/dev/oled_ssd130x.h ****             return;
 3232              		.loc 11 363 9 is_stmt 0 view .LVU710
ARM GAS  C:\Users\skipi\AppData\Local\Temp\ccpgF6Mp.s 			page 97


 3233 0000 7F29     		cmp	r1, #127
 3234 0002 1ED8     		bhi	.L206
 3235 0004 3F2A     		cmp	r2, #63
 3236 0006 1CD8     		bhi	.L206
 365:Display/../../libs/PoliTeKDSP/libs/libDaisy/src/dev/oled_ssd130x.h ****             buffer_[x + (y / 8) * width] |= (1 << (y % 8));
 3237              		.loc 11 365 9 view .LVU711
 3238 0008 6BB1     		cbz	r3, .L208
 366:Display/../../libs/PoliTeKDSP/libs/libDaisy/src/dev/oled_ssd130x.h ****         else
 3239              		.loc 11 366 28 view .LVU712
 3240 000a D308     		lsrs	r3, r2, #3
 3241              	.LVL220:
 366:Display/../../libs/PoliTeKDSP/libs/libDaisy/src/dev/oled_ssd130x.h ****         else
 3242              		.loc 11 366 48 view .LVU713
 3243 000c 4FF0010C 		mov	ip, #1
 366:Display/../../libs/PoliTeKDSP/libs/libDaisy/src/dev/oled_ssd130x.h ****         else
 3244              		.loc 11 366 54 view .LVU714
 3245 0010 02F00702 		and	r2, r2, #7
 3246              	.LVL221:
 366:Display/../../libs/PoliTeKDSP/libs/libDaisy/src/dev/oled_ssd130x.h ****         else
 3247              		.loc 11 366 42 view .LVU715
 3248 0014 01EBC313 		add	r3, r1, r3, lsl #7
 366:Display/../../libs/PoliTeKDSP/libs/libDaisy/src/dev/oled_ssd130x.h ****         else
 3249              		.loc 11 366 48 view .LVU716
 3250 0018 0CFA02F2 		lsl	r2, ip, r2
 366:Display/../../libs/PoliTeKDSP/libs/libDaisy/src/dev/oled_ssd130x.h ****         else
 3251              		.loc 11 366 42 view .LVU717
 3252 001c C118     		adds	r1, r0, r3
 3253              	.LVL222:
 366:Display/../../libs/PoliTeKDSP/libs/libDaisy/src/dev/oled_ssd130x.h ****         else
 3254              		.loc 11 366 42 view .LVU718
 3255 001e 0B7C     		ldrb	r3, [r1, #16]	@ zero_extendqisi2
 3256 0020 1A43     		orrs	r2, r2, r3
 3257 0022 0A74     		strb	r2, [r1, #16]
 3258 0024 7047     		bx	lr
 3259              	.LVL223:
 3260              	.L208:
 3261              	.LBB1230:
 3262              	.LBI1230:
 361:Display/../../libs/PoliTeKDSP/libs/libDaisy/src/dev/oled_ssd130x.h ****     {
 3263              		.loc 11 361 10 is_stmt 1 view .LVU719
 3264              	.LBB1231:
 368:Display/../../libs/PoliTeKDSP/libs/libDaisy/src/dev/oled_ssd130x.h ****     }
 3265              		.loc 11 368 28 is_stmt 0 view .LVU720
 3266 0026 D308     		lsrs	r3, r2, #3
 3267              	.LVL224:
 368:Display/../../libs/PoliTeKDSP/libs/libDaisy/src/dev/oled_ssd130x.h ****     }
 3268              		.loc 11 368 49 view .LVU721
 3269 0028 4FF0010C 		mov	ip, #1
 368:Display/../../libs/PoliTeKDSP/libs/libDaisy/src/dev/oled_ssd130x.h ****     }
 3270              		.loc 11 368 55 view .LVU722
 3271 002c 02F00702 		and	r2, r2, #7
 3272              	.LVL225:
 368:Display/../../libs/PoliTeKDSP/libs/libDaisy/src/dev/oled_ssd130x.h ****     }
 3273              		.loc 11 368 42 view .LVU723
 3274 0030 01EBC313 		add	r3, r1, r3, lsl #7
 368:Display/../../libs/PoliTeKDSP/libs/libDaisy/src/dev/oled_ssd130x.h ****     }
 3275              		.loc 11 368 49 view .LVU724
ARM GAS  C:\Users\skipi\AppData\Local\Temp\ccpgF6Mp.s 			page 98


 3276 0034 0CFA02FC 		lsl	ip, ip, r2
 368:Display/../../libs/PoliTeKDSP/libs/libDaisy/src/dev/oled_ssd130x.h ****     }
 3277              		.loc 11 368 42 view .LVU725
 3278 0038 C118     		adds	r1, r0, r3
 3279              	.LVL226:
 368:Display/../../libs/PoliTeKDSP/libs/libDaisy/src/dev/oled_ssd130x.h ****     }
 3280              		.loc 11 368 42 view .LVU726
 3281 003a 0A7C     		ldrb	r2, [r1, #16]	@ zero_extendqisi2
 3282 003c 22EA0C02 		bic	r2, r2, ip
 3283 0040 0A74     		strb	r2, [r1, #16]
 3284              	.LVL227:
 3285              	.L206:
 368:Display/../../libs/PoliTeKDSP/libs/libDaisy/src/dev/oled_ssd130x.h ****     }
 3286              		.loc 11 368 42 view .LVU727
 3287              	.LBE1231:
 3288              	.LBE1230:
 3289              	.LBE1229:
 3290              	.LBE1228:
  45:../libs/PoliTeKDSP/libs/libDaisy/src/hid/disp/oled_display.h **** 
 3291              		.loc 9 45 5 view .LVU728
 3292 0042 7047     		bx	lr
 3293              		.cfi_endproc
 3294              	.LFE5718:
 3296              		.section	.text._ZN5daisy25OneBitGraphicsDisplayImplINS_11OledDisplayINS_13SSD130xDriverILj128ELj64
 3297              		.align	1
 3298              		.p2align 2,,3
 3299              		.weak	_ZN5daisy25OneBitGraphicsDisplayImplINS_11OledDisplayINS_13SSD130xDriverILj128ELj64ENS_19SSD
 3300              		.syntax unified
 3301              		.thumb
 3302              		.thumb_func
 3303              		.fpu fpv5-d16
 3305              	_ZN5daisy25OneBitGraphicsDisplayImplINS_11OledDisplayINS_13SSD130xDriverILj128ELj64ENS_19SSD130xI2C
 3306              	.LVL228:
 3307              	.LFB5719:
 226:../libs/PoliTeKDSP/libs/libDaisy/src/hid/disp/display.h ****                   uint_fast8_t y1,
 3308              		.loc 10 226 10 is_stmt 1 view -0
 3309              		.cfi_startproc
 3310              		@ args = 8, pretend = 0, frame = 8
 3311              		@ frame_needed = 0, uses_anonymous_args = 0
 226:../libs/PoliTeKDSP/libs/libDaisy/src/hid/disp/display.h ****                   uint_fast8_t y1,
 3312              		.loc 10 226 10 is_stmt 0 view .LVU730
 3313 0000 2DE9F04F 		push	{r4, r5, r6, r7, r8, r9, r10, fp, lr}
 3314              		.cfi_def_cfa_offset 36
 3315              		.cfi_offset 4, -36
 3316              		.cfi_offset 5, -32
 3317              		.cfi_offset 6, -28
 3318              		.cfi_offset 7, -24
 3319              		.cfi_offset 8, -20
 3320              		.cfi_offset 9, -16
 3321              		.cfi_offset 10, -12
 3322              		.cfi_offset 11, -8
 3323              		.cfi_offset 14, -4
 3324 0004 83B0     		sub	sp, sp, #12
 3325              		.cfi_def_cfa_offset 48
 232:../libs/PoliTeKDSP/libs/libDaisy/src/hid/disp/display.h ****         int_fast16_t deltaY = abs((int_fast16_t)y2 - (int_fast16_t)y1);
 3326              		.loc 10 232 52 view .LVU731
 3327 0006 5C1A     		subs	r4, r3, r1
ARM GAS  C:\Users\skipi\AppData\Local\Temp\ccpgF6Mp.s 			page 99


 226:../libs/PoliTeKDSP/libs/libDaisy/src/hid/disp/display.h ****                   uint_fast8_t y1,
 3328              		.loc 10 226 10 view .LVU732
 3329 0008 0C9E     		ldr	r6, [sp, #48]
 232:../libs/PoliTeKDSP/libs/libDaisy/src/hid/disp/display.h ****         int_fast16_t deltaY = abs((int_fast16_t)y2 - (int_fast16_t)y1);
 3330              		.loc 10 232 22 view .LVU733
 3331 000a 002C     		cmp	r4, #0
 226:../libs/PoliTeKDSP/libs/libDaisy/src/hid/disp/display.h ****                   uint_fast8_t y1,
 3332              		.loc 10 226 10 view .LVU734
 3333 000c 9DF83490 		ldrb	r9, [sp, #52]	@ zero_extendqisi2
 233:../libs/PoliTeKDSP/libs/libDaisy/src/hid/disp/display.h ****         int_fast16_t signX  = ((x1 < x2) ? 1 : -1);
 3334              		.loc 10 233 52 view .LVU735
 3335 0010 A6EB0208 		sub	r8, r6, r2
 232:../libs/PoliTeKDSP/libs/libDaisy/src/hid/disp/display.h ****         int_fast16_t deltaY = abs((int_fast16_t)y2 - (int_fast16_t)y1);
 3336              		.loc 10 232 22 view .LVU736
 3337 0014 B8BF     		it	lt
 3338 0016 6442     		rsblt	r4, r4, #0
 3339              	.LVL229:
 233:../libs/PoliTeKDSP/libs/libDaisy/src/hid/disp/display.h ****         int_fast16_t signX  = ((x1 < x2) ? 1 : -1);
 3340              		.loc 10 233 22 view .LVU737
 3341 0018 B8F1000F 		cmp	r8, #0
 3342 001c B8BF     		it	lt
 3343 001e C8F10008 		rsblt	r8, r8, #0
 3344              	.LVL230:
 234:../libs/PoliTeKDSP/libs/libDaisy/src/hid/disp/display.h ****         int_fast16_t signY  = ((y1 < y2) ? 1 : -1);
 3345              		.loc 10 234 42 view .LVU738
 3346 0022 8B42     		cmp	r3, r1
 3347 0024 8CBF     		ite	hi
 3348 0026 4FF0010A 		movhi	r10, #1
 3349 002a 4FF0FF3A 		movls	r10, #-1
 3350              	.LVL231:
 235:../libs/PoliTeKDSP/libs/libDaisy/src/hid/disp/display.h ****         int_fast16_t error  = deltaX - deltaY;
 3351              		.loc 10 235 42 view .LVU739
 3352 002e 9642     		cmp	r6, r2
 236:../libs/PoliTeKDSP/libs/libDaisy/src/hid/disp/display.h ****         int_fast16_t error2;
 3353              		.loc 10 236 22 view .LVU740
 3354 0030 A4EB080C 		sub	ip, r4, r8
 235:../libs/PoliTeKDSP/libs/libDaisy/src/hid/disp/display.h ****         int_fast16_t error  = deltaX - deltaY;
 3355              		.loc 10 235 42 view .LVU741
 3356 0034 51D8     		bhi	.L211
 3357              	.LVL232:
 3358              	.LBB1248:
 3359              	.LBI1248:
  42:../libs/PoliTeKDSP/libs/libDaisy/src/hid/disp/oled_display.h ****     {
 3360              		.loc 9 42 10 is_stmt 1 discriminator 4 view .LVU742
 3361              	.LBB1249:
 3362              	.LBI1249:
 361:Display/../../libs/PoliTeKDSP/libs/libDaisy/src/dev/oled_ssd130x.h ****     {
 3363              		.loc 11 361 10 discriminator 4 view .LVU743
 3364              	.LBE1249:
 3365              	.LBE1248:
 235:../libs/PoliTeKDSP/libs/libDaisy/src/hid/disp/display.h ****         int_fast16_t error  = deltaX - deltaY;
 3366              		.loc 10 235 42 is_stmt 0 discriminator 4 view .LVU744
 3367 0036 4FF0FF35 		mov	r5, #-1
 3368              	.LBB1265:
 3369              	.LBB1259:
 3370              	.LBB1250:
 363:Display/../../libs/PoliTeKDSP/libs/libDaisy/src/dev/oled_ssd130x.h ****             return;
ARM GAS  C:\Users\skipi\AppData\Local\Temp\ccpgF6Mp.s 			page 100


 3371              		.loc 11 363 9 discriminator 4 view .LVU745
 3372 003a 7F2B     		cmp	r3, #127
 3373              	.LBE1250:
 3374              	.LBE1259:
 3375              	.LBE1265:
 235:../libs/PoliTeKDSP/libs/libDaisy/src/hid/disp/display.h ****         int_fast16_t error  = deltaX - deltaY;
 3376              		.loc 10 235 42 discriminator 4 view .LVU746
 3377 003c 0195     		str	r5, [sp, #4]
 3378              	.LBB1266:
 3379              	.LBB1260:
 3380              	.LBB1255:
 363:Display/../../libs/PoliTeKDSP/libs/libDaisy/src/dev/oled_ssd130x.h ****             return;
 3381              		.loc 11 363 9 discriminator 4 view .LVU747
 3382 003e 12D8     		bhi	.L212
 3383 0040 3F2E     		cmp	r6, #63
 3384 0042 10D8     		bhi	.L212
 3385              	.LVL233:
 3386              	.L223:
 366:Display/../../libs/PoliTeKDSP/libs/libDaisy/src/dev/oled_ssd130x.h ****         else
 3387              		.loc 11 366 28 view .LVU748
 3388 0044 F508     		lsrs	r5, r6, #3
 366:Display/../../libs/PoliTeKDSP/libs/libDaisy/src/dev/oled_ssd130x.h ****         else
 3389              		.loc 11 366 54 view .LVU749
 3390 0046 06F0070E 		and	lr, r6, #7
 366:Display/../../libs/PoliTeKDSP/libs/libDaisy/src/dev/oled_ssd130x.h ****         else
 3391              		.loc 11 366 48 view .LVU750
 3392 004a 0127     		movs	r7, #1
 366:Display/../../libs/PoliTeKDSP/libs/libDaisy/src/dev/oled_ssd130x.h ****         else
 3393              		.loc 11 366 42 view .LVU751
 3394 004c 03EBC515 		add	r5, r3, r5, lsl #7
 3395 0050 0544     		add	r5, r5, r0
 365:Display/../../libs/PoliTeKDSP/libs/libDaisy/src/dev/oled_ssd130x.h ****             buffer_[x + (y / 8) * width] |= (1 << (y % 8));
 3396              		.loc 11 365 9 view .LVU752
 3397 0052 B9F1000F 		cmp	r9, #0
 3398 0056 47D0     		beq	.L213
 366:Display/../../libs/PoliTeKDSP/libs/libDaisy/src/dev/oled_ssd130x.h ****         else
 3399              		.loc 11 366 48 view .LVU753
 3400 0058 07FA0EF7 		lsl	r7, r7, lr
 366:Display/../../libs/PoliTeKDSP/libs/libDaisy/src/dev/oled_ssd130x.h ****         else
 3401              		.loc 11 366 42 view .LVU754
 3402 005c 95F810E0 		ldrb	lr, [r5, #16]	@ zero_extendqisi2
 3403 0060 47EA0E07 		orr	r7, r7, lr
 3404 0064 2F74     		strb	r7, [r5, #16]
 3405              	.LVL234:
 3406              	.L212:
 366:Display/../../libs/PoliTeKDSP/libs/libDaisy/src/dev/oled_ssd130x.h ****         else
 3407              		.loc 11 366 42 view .LVU755
 3408              	.LBE1255:
 3409              	.LBE1260:
 3410              	.LBE1266:
 244:../libs/PoliTeKDSP/libs/libDaisy/src/hid/disp/display.h ****         {
 3411              		.loc 10 244 26 is_stmt 1 view .LVU756
 3412 0066 9642     		cmp	r6, r2
 3413 0068 01D1     		bne	.L216
 3414              	.L235:
 244:../libs/PoliTeKDSP/libs/libDaisy/src/hid/disp/display.h ****         {
 3415              		.loc 10 244 26 is_stmt 0 view .LVU757
ARM GAS  C:\Users\skipi\AppData\Local\Temp\ccpgF6Mp.s 			page 101


 3416 006a 8B42     		cmp	r3, r1
 3417 006c 29D0     		beq	.L209
 3418              	.L216:
 3419              	.LVL235:
 248:../libs/PoliTeKDSP/libs/libDaisy/src/hid/disp/display.h ****             {
 3420              		.loc 10 248 23 view .LVU758
 3421 006e C8F10007 		rsb	r7, r8, #0
 3422              	.L218:
 3423              	.LVL236:
 3424              	.LBB1267:
 3425              	.LBI1267:
  42:../libs/PoliTeKDSP/libs/libDaisy/src/hid/disp/oled_display.h ****     {
 3426              		.loc 9 42 10 is_stmt 1 view .LVU759
 3427              	.LBB1268:
 3428              	.LBI1268:
 361:Display/../../libs/PoliTeKDSP/libs/libDaisy/src/dev/oled_ssd130x.h ****     {
 3429              		.loc 11 361 10 view .LVU760
 3430              	.LBB1269:
 363:Display/../../libs/PoliTeKDSP/libs/libDaisy/src/dev/oled_ssd130x.h ****             return;
 3431              		.loc 11 363 9 is_stmt 0 view .LVU761
 3432 0072 7F29     		cmp	r1, #127
 3433 0074 14D8     		bhi	.L219
 3434 0076 3F2A     		cmp	r2, #63
 3435 0078 12D8     		bhi	.L219
 366:Display/../../libs/PoliTeKDSP/libs/libDaisy/src/dev/oled_ssd130x.h ****         else
 3436              		.loc 11 366 28 view .LVU762
 3437 007a D508     		lsrs	r5, r2, #3
 366:Display/../../libs/PoliTeKDSP/libs/libDaisy/src/dev/oled_ssd130x.h ****         else
 3438              		.loc 11 366 54 view .LVU763
 3439 007c 02F0070B 		and	fp, r2, #7
 366:Display/../../libs/PoliTeKDSP/libs/libDaisy/src/dev/oled_ssd130x.h ****         else
 3440              		.loc 11 366 48 view .LVU764
 3441 0080 4FF0010E 		mov	lr, #1
 366:Display/../../libs/PoliTeKDSP/libs/libDaisy/src/dev/oled_ssd130x.h ****         else
 3442              		.loc 11 366 42 view .LVU765
 3443 0084 01EBC515 		add	r5, r1, r5, lsl #7
 3444 0088 0544     		add	r5, r5, r0
 365:Display/../../libs/PoliTeKDSP/libs/libDaisy/src/dev/oled_ssd130x.h ****             buffer_[x + (y / 8) * width] |= (1 << (y % 8));
 3445              		.loc 11 365 9 view .LVU766
 3446 008a B9F1000F 		cmp	r9, #0
 3447 008e 1BD0     		beq	.L220
 366:Display/../../libs/PoliTeKDSP/libs/libDaisy/src/dev/oled_ssd130x.h ****         else
 3448              		.loc 11 366 48 view .LVU767
 3449 0090 0EFA0BFE 		lsl	lr, lr, fp
 366:Display/../../libs/PoliTeKDSP/libs/libDaisy/src/dev/oled_ssd130x.h ****         else
 3450              		.loc 11 366 42 view .LVU768
 3451 0094 95F810B0 		ldrb	fp, [r5, #16]	@ zero_extendqisi2
 3452 0098 4EEA0B0E 		orr	lr, lr, fp
 3453 009c 85F810E0 		strb	lr, [r5, #16]
 3454              	.L219:
 3455              	.LVL237:
 366:Display/../../libs/PoliTeKDSP/libs/libDaisy/src/dev/oled_ssd130x.h ****         else
 3456              		.loc 11 366 42 view .LVU769
 3457              	.LBE1269:
 3458              	.LBE1268:
 3459              	.LBE1267:
 248:../libs/PoliTeKDSP/libs/libDaisy/src/hid/disp/display.h ****             {
ARM GAS  C:\Users\skipi\AppData\Local\Temp\ccpgF6Mp.s 			page 102


 3460              		.loc 10 248 13 view .LVU770
 3461 00a0 B7EB4C0F 		cmp	r7, ip, lsl #1
 247:../libs/PoliTeKDSP/libs/libDaisy/src/hid/disp/display.h ****             if(error2 > -deltaY)
 3462              		.loc 10 247 20 view .LVU771
 3463 00a4 4FEA4C05 		lsl	r5, ip, #1
 3464              	.LVL238:
 248:../libs/PoliTeKDSP/libs/libDaisy/src/hid/disp/display.h ****             {
 3465              		.loc 10 248 13 view .LVU772
 3466 00a8 02DA     		bge	.L221
 250:../libs/PoliTeKDSP/libs/libDaisy/src/hid/disp/display.h ****                 x1 += signX;
 3467              		.loc 10 250 23 view .LVU773
 3468 00aa ACEB080C 		sub	ip, ip, r8
 3469              	.LVL239:
 251:../libs/PoliTeKDSP/libs/libDaisy/src/hid/disp/display.h ****             }
 3470              		.loc 10 251 20 view .LVU774
 3471 00ae 5144     		add	r1, r1, r10
 3472              	.LVL240:
 3473              	.L221:
 254:../libs/PoliTeKDSP/libs/libDaisy/src/hid/disp/display.h ****             {
 3474              		.loc 10 254 13 view .LVU775
 3475 00b0 AC42     		cmp	r4, r5
 3476 00b2 02DD     		ble	.L222
 257:../libs/PoliTeKDSP/libs/libDaisy/src/hid/disp/display.h ****             }
 3477              		.loc 10 257 20 view .LVU776
 3478 00b4 019D     		ldr	r5, [sp, #4]
 3479              	.LVL241:
 256:../libs/PoliTeKDSP/libs/libDaisy/src/hid/disp/display.h ****                 y1 += signY;
 3480              		.loc 10 256 23 view .LVU777
 3481 00b6 A444     		add	ip, ip, r4
 3482              	.LVL242:
 257:../libs/PoliTeKDSP/libs/libDaisy/src/hid/disp/display.h ****             }
 3483              		.loc 10 257 20 view .LVU778
 3484 00b8 2A44     		add	r2, r2, r5
 3485              	.LVL243:
 3486              	.L222:
 244:../libs/PoliTeKDSP/libs/libDaisy/src/hid/disp/display.h ****         {
 3487              		.loc 10 244 26 is_stmt 1 view .LVU779
 3488 00ba 9942     		cmp	r1, r3
 3489 00bc D9D1     		bne	.L218
 244:../libs/PoliTeKDSP/libs/libDaisy/src/hid/disp/display.h ****         {
 3490              		.loc 10 244 26 is_stmt 0 view .LVU780
 3491 00be 9642     		cmp	r6, r2
 3492 00c0 D7D1     		bne	.L218
 3493              	.L209:
 260:../libs/PoliTeKDSP/libs/libDaisy/src/hid/disp/display.h **** 
 3494              		.loc 10 260 5 view .LVU781
 3495 00c2 03B0     		add	sp, sp, #12
 3496              		.cfi_remember_state
 3497              		.cfi_def_cfa_offset 36
 3498              		@ sp needed
 3499 00c4 BDE8F08F 		pop	{r4, r5, r6, r7, r8, r9, r10, fp, pc}
 3500              	.LVL244:
 3501              	.L220:
 3502              		.cfi_restore_state
 3503              	.LBB1274:
 3504              	.LBB1273:
 3505              	.LBB1272:
ARM GAS  C:\Users\skipi\AppData\Local\Temp\ccpgF6Mp.s 			page 103


 3506              	.LBB1270:
 3507              	.LBI1270:
 361:Display/../../libs/PoliTeKDSP/libs/libDaisy/src/dev/oled_ssd130x.h ****     {
 3508              		.loc 11 361 10 is_stmt 1 view .LVU782
 3509              	.LBB1271:
 368:Display/../../libs/PoliTeKDSP/libs/libDaisy/src/dev/oled_ssd130x.h ****     }
 3510              		.loc 11 368 49 is_stmt 0 view .LVU783
 3511 00c8 0EFA0BFB 		lsl	fp, lr, fp
 368:Display/../../libs/PoliTeKDSP/libs/libDaisy/src/dev/oled_ssd130x.h ****     }
 3512              		.loc 11 368 42 view .LVU784
 3513 00cc 95F810E0 		ldrb	lr, [r5, #16]	@ zero_extendqisi2
 3514 00d0 2EEA0B0E 		bic	lr, lr, fp
 3515 00d4 85F810E0 		strb	lr, [r5, #16]
 3516 00d8 E2E7     		b	.L219
 3517              	.LVL245:
 3518              	.L211:
 368:Display/../../libs/PoliTeKDSP/libs/libDaisy/src/dev/oled_ssd130x.h ****     }
 3519              		.loc 11 368 42 view .LVU785
 3520              	.LBE1271:
 3521              	.LBE1270:
 3522              	.LBE1272:
 3523              	.LBE1273:
 3524              	.LBE1274:
 3525              	.LBB1275:
  42:../libs/PoliTeKDSP/libs/libDaisy/src/hid/disp/oled_display.h ****     {
 3526              		.loc 9 42 10 is_stmt 1 view .LVU786
 3527              	.LBB1261:
 361:Display/../../libs/PoliTeKDSP/libs/libDaisy/src/dev/oled_ssd130x.h ****     {
 3528              		.loc 11 361 10 view .LVU787
 3529              	.LBE1261:
 3530              	.LBE1275:
 235:../libs/PoliTeKDSP/libs/libDaisy/src/hid/disp/display.h ****         int_fast16_t error  = deltaX - deltaY;
 3531              		.loc 10 235 42 is_stmt 0 view .LVU788
 3532 00da 0125     		movs	r5, #1
 3533              	.LBB1276:
 3534              	.LBB1262:
 3535              	.LBB1256:
 363:Display/../../libs/PoliTeKDSP/libs/libDaisy/src/dev/oled_ssd130x.h ****             return;
 3536              		.loc 11 363 9 view .LVU789
 3537 00dc 7F2B     		cmp	r3, #127
 3538              	.LBE1256:
 3539              	.LBE1262:
 3540              	.LBE1276:
 235:../libs/PoliTeKDSP/libs/libDaisy/src/hid/disp/display.h ****         int_fast16_t error  = deltaX - deltaY;
 3541              		.loc 10 235 42 view .LVU790
 3542 00de 0195     		str	r5, [sp, #4]
 3543              	.LBB1277:
 3544              	.LBB1263:
 3545              	.LBB1257:
 363:Display/../../libs/PoliTeKDSP/libs/libDaisy/src/dev/oled_ssd130x.h ****             return;
 3546              		.loc 11 363 9 view .LVU791
 3547 00e0 C5D8     		bhi	.L216
 3548 00e2 3F2E     		cmp	r6, #63
 3549 00e4 AED9     		bls	.L223
 3550 00e6 C2E7     		b	.L216
 3551              	.LVL246:
 3552              	.L213:
ARM GAS  C:\Users\skipi\AppData\Local\Temp\ccpgF6Mp.s 			page 104


 3553              	.LBB1251:
 3554              	.LBI1251:
 361:Display/../../libs/PoliTeKDSP/libs/libDaisy/src/dev/oled_ssd130x.h ****     {
 3555              		.loc 11 361 10 is_stmt 1 view .LVU792
 3556              	.LBB1252:
 368:Display/../../libs/PoliTeKDSP/libs/libDaisy/src/dev/oled_ssd130x.h ****     }
 3557              		.loc 11 368 49 is_stmt 0 view .LVU793
 3558 00e8 07FA0EFE 		lsl	lr, r7, lr
 368:Display/../../libs/PoliTeKDSP/libs/libDaisy/src/dev/oled_ssd130x.h ****     }
 3559              		.loc 11 368 42 view .LVU794
 3560 00ec 2F7C     		ldrb	r7, [r5, #16]	@ zero_extendqisi2
 3561              	.LBE1252:
 3562              	.LBE1251:
 3563              	.LBE1257:
 3564              	.LBE1263:
 3565              	.LBE1277:
 244:../libs/PoliTeKDSP/libs/libDaisy/src/hid/disp/display.h ****         {
 3566              		.loc 10 244 26 view .LVU795
 3567 00ee 9642     		cmp	r6, r2
 3568              	.LBB1278:
 3569              	.LBB1264:
 3570              	.LBB1258:
 3571              	.LBB1254:
 3572              	.LBB1253:
 368:Display/../../libs/PoliTeKDSP/libs/libDaisy/src/dev/oled_ssd130x.h ****     }
 3573              		.loc 11 368 42 view .LVU796
 3574 00f0 27EA0E07 		bic	r7, r7, lr
 3575 00f4 2F74     		strb	r7, [r5, #16]
 3576              	.LVL247:
 368:Display/../../libs/PoliTeKDSP/libs/libDaisy/src/dev/oled_ssd130x.h ****     }
 3577              		.loc 11 368 42 view .LVU797
 3578              	.LBE1253:
 3579              	.LBE1254:
 3580              	.LBE1258:
 3581              	.LBE1264:
 3582              	.LBE1278:
 244:../libs/PoliTeKDSP/libs/libDaisy/src/hid/disp/display.h ****         {
 3583              		.loc 10 244 26 is_stmt 1 view .LVU798
 3584 00f6 B8D0     		beq	.L235
 3585 00f8 B9E7     		b	.L216
 3586              		.cfi_endproc
 3587              	.LFE5719:
 3589 00fa 00BF     		.section	.text._ZN5daisy25OneBitGraphicsDisplayImplINS_11OledDisplayINS_13SSD130xDriverILj128ELj64
 3590              		.align	1
 3591              		.p2align 2,,3
 3592              		.weak	_ZN5daisy25OneBitGraphicsDisplayImplINS_11OledDisplayINS_13SSD130xDriverILj128ELj64ENS_19SSD
 3593              		.syntax unified
 3594              		.thumb
 3595              		.thumb_func
 3596              		.fpu fpv5-d16
 3598              	_ZN5daisy25OneBitGraphicsDisplayImplINS_11OledDisplayINS_13SSD130xDriverILj128ELj64ENS_19SSD130xI2C
 3599              	.LVL248:
 3600              	.LFB5721:
 288:../libs/PoliTeKDSP/libs/libDaisy/src/hid/disp/display.h ****                  uint_fast8_t y,
 3601              		.loc 10 288 10 view -0
 3602              		.cfi_startproc
 3603              		@ args = 12, pretend = 0, frame = 8
ARM GAS  C:\Users\skipi\AppData\Local\Temp\ccpgF6Mp.s 			page 105


 3604              		@ frame_needed = 0, uses_anonymous_args = 0
 288:../libs/PoliTeKDSP/libs/libDaisy/src/hid/disp/display.h ****                  uint_fast8_t y,
 3605              		.loc 10 288 10 is_stmt 0 view .LVU800
 3606 0000 2DE9F04F 		push	{r4, r5, r6, r7, r8, r9, r10, fp, lr}
 3607              		.cfi_def_cfa_offset 36
 3608              		.cfi_offset 4, -36
 3609              		.cfi_offset 5, -32
 3610              		.cfi_offset 6, -28
 3611              		.cfi_offset 7, -24
 3612              		.cfi_offset 8, -20
 3613              		.cfi_offset 9, -16
 3614              		.cfi_offset 10, -12
 3615              		.cfi_offset 11, -8
 3616              		.cfi_offset 14, -4
 3617 0004 2DED068B 		vpush.64	{d8, d9, d10}
 3618              		.cfi_def_cfa_offset 60
 3619              		.cfi_offset 80, -60
 3620              		.cfi_offset 81, -56
 3621              		.cfi_offset 82, -52
 3622              		.cfi_offset 83, -48
 3623              		.cfi_offset 84, -44
 3624              		.cfi_offset 85, -40
 3625 0008 83B0     		sub	sp, sp, #12
 3626              		.cfi_def_cfa_offset 72
 288:../libs/PoliTeKDSP/libs/libDaisy/src/hid/disp/display.h ****                  uint_fast8_t y,
 3627              		.loc 10 288 10 view .LVU801
 3628 000a 1F46     		mov	r7, r3
 3629 000c 8046     		mov	r8, r0
 3630 000e 0D46     		mov	r5, r1
 3631 0010 9DF85030 		ldrb	r3, [sp, #80]	@ zero_extendqisi2
 3632              	.LVL249:
 288:../libs/PoliTeKDSP/libs/libDaisy/src/hid/disp/display.h ****                  uint_fast8_t y,
 3633              		.loc 10 288 10 view .LVU802
 3634 0014 1646     		mov	r6, r2
 3635 0016 0193     		str	r3, [sp, #4]
 311:../libs/PoliTeKDSP/libs/libDaisy/src/hid/disp/display.h ****         {
 3636              		.loc 10 311 9 view .LVU803
 3637 0018 139B     		ldr	r3, [sp, #76]
 3638 001a 002B     		cmp	r3, #0
 3639 001c C0F22182 		blt	.L237
 318:../libs/PoliTeKDSP/libs/libDaisy/src/hid/disp/display.h **** 
 3640              		.loc 10 318 27 view .LVU804
 3641 0020 129A     		ldr	r2, [sp, #72]
 3642              	.LVL250:
 318:../libs/PoliTeKDSP/libs/libDaisy/src/hid/disp/display.h **** 
 3643              		.loc 10 318 27 view .LVU805
 3644 0022 1344     		add	r3, r3, r2
 3645 0024 06EE103A 		vmov	s12, r3	@ int
 3646              	.LVL251:
 3647              	.L238:
 317:../libs/PoliTeKDSP/libs/libDaisy/src/hid/disp/display.h ****         end_angle_rad   = deg2rad(start_angle + sweep);
 3648              		.loc 10 317 27 view .LVU806
 3649 0028 DDED127A 		vldr.32	s15, [sp, #72]	@ int
 318:../libs/PoliTeKDSP/libs/libDaisy/src/hid/disp/display.h **** 
 3650              		.loc 10 318 27 view .LVU807
 3651 002c B8EEC66B 		vcvt.f64.s32	d6, s12
 317:../libs/PoliTeKDSP/libs/libDaisy/src/hid/disp/display.h ****         end_angle_rad   = deg2rad(start_angle + sweep);
ARM GAS  C:\Users\skipi\AppData\Local\Temp\ccpgF6Mp.s 			page 106


 3652              		.loc 10 317 27 view .LVU808
 3653 0030 9FEDCD4B 		vldr.64	d4, .L313
 3654 0034 B8EEE77B 		vcvt.f64.s32	d7, s15
 3655 0038 9FEDCD5B 		vldr.64	d5, .L313+8
 3656 003c 27EE047B 		vmul.f64	d7, d7, d4
 318:../libs/PoliTeKDSP/libs/libDaisy/src/hid/disp/display.h **** 
 3657              		.loc 10 318 27 view .LVU809
 3658 0040 26EE046B 		vmul.f64	d6, d6, d4
 317:../libs/PoliTeKDSP/libs/libDaisy/src/hid/disp/display.h ****         end_angle_rad   = deg2rad(start_angle + sweep);
 3659              		.loc 10 317 27 view .LVU810
 3660 0044 87EE050B 		vdiv.f64	d0, d7, d5
 318:../libs/PoliTeKDSP/libs/libDaisy/src/hid/disp/display.h **** 
 3661              		.loc 10 318 27 view .LVU811
 3662 0048 86EE05AB 		vdiv.f64	d10, d6, d5
 317:../libs/PoliTeKDSP/libs/libDaisy/src/hid/disp/display.h ****         end_angle_rad   = deg2rad(start_angle + sweep);
 3663              		.loc 10 317 25 view .LVU812
 3664 004c F7EEC08B 		vcvt.f32.f64	s17, d0
 3665              	.LVL252:
 3666              	.LBB1311:
 3667              	.LBB1312:
 3668              		.file 14 "c:\\program files\\daisytoolchain\\arm-none-eabi\\include\\c++\\10.2.1\\cmath"
   1:c:\program files\daisytoolchain\arm-none-eabi\include\c++\10.2.1\cmath **** // -*- C++ -*- C forwarding header.
   2:c:\program files\daisytoolchain\arm-none-eabi\include\c++\10.2.1\cmath **** 
   3:c:\program files\daisytoolchain\arm-none-eabi\include\c++\10.2.1\cmath **** // Copyright (C) 1997-2020 Free Software Foundation, Inc.
   4:c:\program files\daisytoolchain\arm-none-eabi\include\c++\10.2.1\cmath **** //
   5:c:\program files\daisytoolchain\arm-none-eabi\include\c++\10.2.1\cmath **** // This file is part of the GNU ISO C++ Library.  This library is free
   6:c:\program files\daisytoolchain\arm-none-eabi\include\c++\10.2.1\cmath **** // software; you can redistribute it and/or modify it under the
   7:c:\program files\daisytoolchain\arm-none-eabi\include\c++\10.2.1\cmath **** // terms of the GNU General Public License as published by the
   8:c:\program files\daisytoolchain\arm-none-eabi\include\c++\10.2.1\cmath **** // Free Software Foundation; either version 3, or (at your option)
   9:c:\program files\daisytoolchain\arm-none-eabi\include\c++\10.2.1\cmath **** // any later version.
  10:c:\program files\daisytoolchain\arm-none-eabi\include\c++\10.2.1\cmath **** 
  11:c:\program files\daisytoolchain\arm-none-eabi\include\c++\10.2.1\cmath **** // This library is distributed in the hope that it will be useful,
  12:c:\program files\daisytoolchain\arm-none-eabi\include\c++\10.2.1\cmath **** // but WITHOUT ANY WARRANTY; without even the implied warranty of
  13:c:\program files\daisytoolchain\arm-none-eabi\include\c++\10.2.1\cmath **** // MERCHANTABILITY or FITNESS FOR A PARTICULAR PURPOSE.  See the
  14:c:\program files\daisytoolchain\arm-none-eabi\include\c++\10.2.1\cmath **** // GNU General Public License for more details.
  15:c:\program files\daisytoolchain\arm-none-eabi\include\c++\10.2.1\cmath **** 
  16:c:\program files\daisytoolchain\arm-none-eabi\include\c++\10.2.1\cmath **** // Under Section 7 of GPL version 3, you are granted additional
  17:c:\program files\daisytoolchain\arm-none-eabi\include\c++\10.2.1\cmath **** // permissions described in the GCC Runtime Library Exception, version
  18:c:\program files\daisytoolchain\arm-none-eabi\include\c++\10.2.1\cmath **** // 3.1, as published by the Free Software Foundation.
  19:c:\program files\daisytoolchain\arm-none-eabi\include\c++\10.2.1\cmath **** 
  20:c:\program files\daisytoolchain\arm-none-eabi\include\c++\10.2.1\cmath **** // You should have received a copy of the GNU General Public License and
  21:c:\program files\daisytoolchain\arm-none-eabi\include\c++\10.2.1\cmath **** // a copy of the GCC Runtime Library Exception along with this program;
  22:c:\program files\daisytoolchain\arm-none-eabi\include\c++\10.2.1\cmath **** // see the files COPYING3 and COPYING.RUNTIME respectively.  If not, see
  23:c:\program files\daisytoolchain\arm-none-eabi\include\c++\10.2.1\cmath **** // <http://www.gnu.org/licenses/>.
  24:c:\program files\daisytoolchain\arm-none-eabi\include\c++\10.2.1\cmath **** 
  25:c:\program files\daisytoolchain\arm-none-eabi\include\c++\10.2.1\cmath **** /** @file include/cmath
  26:c:\program files\daisytoolchain\arm-none-eabi\include\c++\10.2.1\cmath ****  *  This is a Standard C++ Library file.  You should @c \#include this file
  27:c:\program files\daisytoolchain\arm-none-eabi\include\c++\10.2.1\cmath ****  *  in your programs, rather than any of the @a *.h implementation files.
  28:c:\program files\daisytoolchain\arm-none-eabi\include\c++\10.2.1\cmath ****  *
  29:c:\program files\daisytoolchain\arm-none-eabi\include\c++\10.2.1\cmath ****  *  This is the C++ version of the Standard C Library header @c math.h,
  30:c:\program files\daisytoolchain\arm-none-eabi\include\c++\10.2.1\cmath ****  *  and its contents are (mostly) the same as that header, but are all
  31:c:\program files\daisytoolchain\arm-none-eabi\include\c++\10.2.1\cmath ****  *  contained in the namespace @c std (except for names which are defined
  32:c:\program files\daisytoolchain\arm-none-eabi\include\c++\10.2.1\cmath ****  *  as macros in C).
  33:c:\program files\daisytoolchain\arm-none-eabi\include\c++\10.2.1\cmath ****  */
  34:c:\program files\daisytoolchain\arm-none-eabi\include\c++\10.2.1\cmath **** 
  35:c:\program files\daisytoolchain\arm-none-eabi\include\c++\10.2.1\cmath **** //
  36:c:\program files\daisytoolchain\arm-none-eabi\include\c++\10.2.1\cmath **** // ISO C++ 14882: 26.5  C library
ARM GAS  C:\Users\skipi\AppData\Local\Temp\ccpgF6Mp.s 			page 107


  37:c:\program files\daisytoolchain\arm-none-eabi\include\c++\10.2.1\cmath **** //
  38:c:\program files\daisytoolchain\arm-none-eabi\include\c++\10.2.1\cmath **** 
  39:c:\program files\daisytoolchain\arm-none-eabi\include\c++\10.2.1\cmath **** #pragma GCC system_header
  40:c:\program files\daisytoolchain\arm-none-eabi\include\c++\10.2.1\cmath **** 
  41:c:\program files\daisytoolchain\arm-none-eabi\include\c++\10.2.1\cmath **** #include <bits/c++config.h>
  42:c:\program files\daisytoolchain\arm-none-eabi\include\c++\10.2.1\cmath **** #include <bits/cpp_type_traits.h>
  43:c:\program files\daisytoolchain\arm-none-eabi\include\c++\10.2.1\cmath **** #include <ext/type_traits.h>
  44:c:\program files\daisytoolchain\arm-none-eabi\include\c++\10.2.1\cmath **** #define _GLIBCXX_INCLUDE_NEXT_C_HEADERS
  45:c:\program files\daisytoolchain\arm-none-eabi\include\c++\10.2.1\cmath **** #include_next <math.h>
  46:c:\program files\daisytoolchain\arm-none-eabi\include\c++\10.2.1\cmath **** #undef _GLIBCXX_INCLUDE_NEXT_C_HEADERS
  47:c:\program files\daisytoolchain\arm-none-eabi\include\c++\10.2.1\cmath **** #include <bits/std_abs.h>
  48:c:\program files\daisytoolchain\arm-none-eabi\include\c++\10.2.1\cmath **** 
  49:c:\program files\daisytoolchain\arm-none-eabi\include\c++\10.2.1\cmath **** #ifndef _GLIBCXX_CMATH
  50:c:\program files\daisytoolchain\arm-none-eabi\include\c++\10.2.1\cmath **** #define _GLIBCXX_CMATH 1
  51:c:\program files\daisytoolchain\arm-none-eabi\include\c++\10.2.1\cmath **** 
  52:c:\program files\daisytoolchain\arm-none-eabi\include\c++\10.2.1\cmath **** // Get rid of those macros defined in <math.h> in lieu of real functions.
  53:c:\program files\daisytoolchain\arm-none-eabi\include\c++\10.2.1\cmath **** #undef div
  54:c:\program files\daisytoolchain\arm-none-eabi\include\c++\10.2.1\cmath **** #undef acos
  55:c:\program files\daisytoolchain\arm-none-eabi\include\c++\10.2.1\cmath **** #undef asin
  56:c:\program files\daisytoolchain\arm-none-eabi\include\c++\10.2.1\cmath **** #undef atan
  57:c:\program files\daisytoolchain\arm-none-eabi\include\c++\10.2.1\cmath **** #undef atan2
  58:c:\program files\daisytoolchain\arm-none-eabi\include\c++\10.2.1\cmath **** #undef ceil
  59:c:\program files\daisytoolchain\arm-none-eabi\include\c++\10.2.1\cmath **** #undef cos
  60:c:\program files\daisytoolchain\arm-none-eabi\include\c++\10.2.1\cmath **** #undef cosh
  61:c:\program files\daisytoolchain\arm-none-eabi\include\c++\10.2.1\cmath **** #undef exp
  62:c:\program files\daisytoolchain\arm-none-eabi\include\c++\10.2.1\cmath **** #undef fabs
  63:c:\program files\daisytoolchain\arm-none-eabi\include\c++\10.2.1\cmath **** #undef floor
  64:c:\program files\daisytoolchain\arm-none-eabi\include\c++\10.2.1\cmath **** #undef fmod
  65:c:\program files\daisytoolchain\arm-none-eabi\include\c++\10.2.1\cmath **** #undef frexp
  66:c:\program files\daisytoolchain\arm-none-eabi\include\c++\10.2.1\cmath **** #undef ldexp
  67:c:\program files\daisytoolchain\arm-none-eabi\include\c++\10.2.1\cmath **** #undef log
  68:c:\program files\daisytoolchain\arm-none-eabi\include\c++\10.2.1\cmath **** #undef log10
  69:c:\program files\daisytoolchain\arm-none-eabi\include\c++\10.2.1\cmath **** #undef modf
  70:c:\program files\daisytoolchain\arm-none-eabi\include\c++\10.2.1\cmath **** #undef pow
  71:c:\program files\daisytoolchain\arm-none-eabi\include\c++\10.2.1\cmath **** #undef sin
  72:c:\program files\daisytoolchain\arm-none-eabi\include\c++\10.2.1\cmath **** #undef sinh
  73:c:\program files\daisytoolchain\arm-none-eabi\include\c++\10.2.1\cmath **** #undef sqrt
  74:c:\program files\daisytoolchain\arm-none-eabi\include\c++\10.2.1\cmath **** #undef tan
  75:c:\program files\daisytoolchain\arm-none-eabi\include\c++\10.2.1\cmath **** #undef tanh
  76:c:\program files\daisytoolchain\arm-none-eabi\include\c++\10.2.1\cmath **** 
  77:c:\program files\daisytoolchain\arm-none-eabi\include\c++\10.2.1\cmath **** extern "C++"
  78:c:\program files\daisytoolchain\arm-none-eabi\include\c++\10.2.1\cmath **** {
  79:c:\program files\daisytoolchain\arm-none-eabi\include\c++\10.2.1\cmath **** namespace std _GLIBCXX_VISIBILITY(default)
  80:c:\program files\daisytoolchain\arm-none-eabi\include\c++\10.2.1\cmath **** {
  81:c:\program files\daisytoolchain\arm-none-eabi\include\c++\10.2.1\cmath **** _GLIBCXX_BEGIN_NAMESPACE_VERSION
  82:c:\program files\daisytoolchain\arm-none-eabi\include\c++\10.2.1\cmath **** 
  83:c:\program files\daisytoolchain\arm-none-eabi\include\c++\10.2.1\cmath ****   using ::acos;
  84:c:\program files\daisytoolchain\arm-none-eabi\include\c++\10.2.1\cmath **** 
  85:c:\program files\daisytoolchain\arm-none-eabi\include\c++\10.2.1\cmath **** #ifndef __CORRECT_ISO_CPP_MATH_H_PROTO
  86:c:\program files\daisytoolchain\arm-none-eabi\include\c++\10.2.1\cmath ****   inline _GLIBCXX_CONSTEXPR float
  87:c:\program files\daisytoolchain\arm-none-eabi\include\c++\10.2.1\cmath ****   acos(float __x)
  88:c:\program files\daisytoolchain\arm-none-eabi\include\c++\10.2.1\cmath ****   { return __builtin_acosf(__x); }
  89:c:\program files\daisytoolchain\arm-none-eabi\include\c++\10.2.1\cmath **** 
  90:c:\program files\daisytoolchain\arm-none-eabi\include\c++\10.2.1\cmath ****   inline _GLIBCXX_CONSTEXPR long double
  91:c:\program files\daisytoolchain\arm-none-eabi\include\c++\10.2.1\cmath ****   acos(long double __x)
  92:c:\program files\daisytoolchain\arm-none-eabi\include\c++\10.2.1\cmath ****   { return __builtin_acosl(__x); }
  93:c:\program files\daisytoolchain\arm-none-eabi\include\c++\10.2.1\cmath **** #endif
ARM GAS  C:\Users\skipi\AppData\Local\Temp\ccpgF6Mp.s 			page 108


  94:c:\program files\daisytoolchain\arm-none-eabi\include\c++\10.2.1\cmath **** 
  95:c:\program files\daisytoolchain\arm-none-eabi\include\c++\10.2.1\cmath ****   template<typename _Tp>
  96:c:\program files\daisytoolchain\arm-none-eabi\include\c++\10.2.1\cmath ****     inline _GLIBCXX_CONSTEXPR
  97:c:\program files\daisytoolchain\arm-none-eabi\include\c++\10.2.1\cmath ****     typename __gnu_cxx::__enable_if<__is_integer<_Tp>::__value, 
  98:c:\program files\daisytoolchain\arm-none-eabi\include\c++\10.2.1\cmath ****                                     double>::__type
  99:c:\program files\daisytoolchain\arm-none-eabi\include\c++\10.2.1\cmath ****     acos(_Tp __x)
 100:c:\program files\daisytoolchain\arm-none-eabi\include\c++\10.2.1\cmath ****     { return __builtin_acos(__x); }
 101:c:\program files\daisytoolchain\arm-none-eabi\include\c++\10.2.1\cmath **** 
 102:c:\program files\daisytoolchain\arm-none-eabi\include\c++\10.2.1\cmath ****   using ::asin;
 103:c:\program files\daisytoolchain\arm-none-eabi\include\c++\10.2.1\cmath **** 
 104:c:\program files\daisytoolchain\arm-none-eabi\include\c++\10.2.1\cmath **** #ifndef __CORRECT_ISO_CPP_MATH_H_PROTO
 105:c:\program files\daisytoolchain\arm-none-eabi\include\c++\10.2.1\cmath ****   inline _GLIBCXX_CONSTEXPR float
 106:c:\program files\daisytoolchain\arm-none-eabi\include\c++\10.2.1\cmath ****   asin(float __x)
 107:c:\program files\daisytoolchain\arm-none-eabi\include\c++\10.2.1\cmath ****   { return __builtin_asinf(__x); }
 108:c:\program files\daisytoolchain\arm-none-eabi\include\c++\10.2.1\cmath **** 
 109:c:\program files\daisytoolchain\arm-none-eabi\include\c++\10.2.1\cmath ****   inline _GLIBCXX_CONSTEXPR long double
 110:c:\program files\daisytoolchain\arm-none-eabi\include\c++\10.2.1\cmath ****   asin(long double __x)
 111:c:\program files\daisytoolchain\arm-none-eabi\include\c++\10.2.1\cmath ****   { return __builtin_asinl(__x); }
 112:c:\program files\daisytoolchain\arm-none-eabi\include\c++\10.2.1\cmath **** #endif
 113:c:\program files\daisytoolchain\arm-none-eabi\include\c++\10.2.1\cmath **** 
 114:c:\program files\daisytoolchain\arm-none-eabi\include\c++\10.2.1\cmath ****   template<typename _Tp>
 115:c:\program files\daisytoolchain\arm-none-eabi\include\c++\10.2.1\cmath ****     inline _GLIBCXX_CONSTEXPR
 116:c:\program files\daisytoolchain\arm-none-eabi\include\c++\10.2.1\cmath ****     typename __gnu_cxx::__enable_if<__is_integer<_Tp>::__value,
 117:c:\program files\daisytoolchain\arm-none-eabi\include\c++\10.2.1\cmath ****                                     double>::__type
 118:c:\program files\daisytoolchain\arm-none-eabi\include\c++\10.2.1\cmath ****     asin(_Tp __x)
 119:c:\program files\daisytoolchain\arm-none-eabi\include\c++\10.2.1\cmath ****     { return __builtin_asin(__x); }
 120:c:\program files\daisytoolchain\arm-none-eabi\include\c++\10.2.1\cmath **** 
 121:c:\program files\daisytoolchain\arm-none-eabi\include\c++\10.2.1\cmath ****   using ::atan;
 122:c:\program files\daisytoolchain\arm-none-eabi\include\c++\10.2.1\cmath **** 
 123:c:\program files\daisytoolchain\arm-none-eabi\include\c++\10.2.1\cmath **** #ifndef __CORRECT_ISO_CPP_MATH_H_PROTO
 124:c:\program files\daisytoolchain\arm-none-eabi\include\c++\10.2.1\cmath ****   inline _GLIBCXX_CONSTEXPR float
 125:c:\program files\daisytoolchain\arm-none-eabi\include\c++\10.2.1\cmath ****   atan(float __x)
 126:c:\program files\daisytoolchain\arm-none-eabi\include\c++\10.2.1\cmath ****   { return __builtin_atanf(__x); }
 127:c:\program files\daisytoolchain\arm-none-eabi\include\c++\10.2.1\cmath **** 
 128:c:\program files\daisytoolchain\arm-none-eabi\include\c++\10.2.1\cmath ****   inline _GLIBCXX_CONSTEXPR long double
 129:c:\program files\daisytoolchain\arm-none-eabi\include\c++\10.2.1\cmath ****   atan(long double __x)
 130:c:\program files\daisytoolchain\arm-none-eabi\include\c++\10.2.1\cmath ****   { return __builtin_atanl(__x); }
 131:c:\program files\daisytoolchain\arm-none-eabi\include\c++\10.2.1\cmath **** #endif
 132:c:\program files\daisytoolchain\arm-none-eabi\include\c++\10.2.1\cmath **** 
 133:c:\program files\daisytoolchain\arm-none-eabi\include\c++\10.2.1\cmath ****   template<typename _Tp>
 134:c:\program files\daisytoolchain\arm-none-eabi\include\c++\10.2.1\cmath ****     inline _GLIBCXX_CONSTEXPR
 135:c:\program files\daisytoolchain\arm-none-eabi\include\c++\10.2.1\cmath ****     typename __gnu_cxx::__enable_if<__is_integer<_Tp>::__value,
 136:c:\program files\daisytoolchain\arm-none-eabi\include\c++\10.2.1\cmath ****                                     double>::__type
 137:c:\program files\daisytoolchain\arm-none-eabi\include\c++\10.2.1\cmath ****     atan(_Tp __x)
 138:c:\program files\daisytoolchain\arm-none-eabi\include\c++\10.2.1\cmath ****     { return __builtin_atan(__x); }
 139:c:\program files\daisytoolchain\arm-none-eabi\include\c++\10.2.1\cmath **** 
 140:c:\program files\daisytoolchain\arm-none-eabi\include\c++\10.2.1\cmath ****   using ::atan2;
 141:c:\program files\daisytoolchain\arm-none-eabi\include\c++\10.2.1\cmath **** 
 142:c:\program files\daisytoolchain\arm-none-eabi\include\c++\10.2.1\cmath **** #ifndef __CORRECT_ISO_CPP_MATH_H_PROTO
 143:c:\program files\daisytoolchain\arm-none-eabi\include\c++\10.2.1\cmath ****   inline _GLIBCXX_CONSTEXPR float
 144:c:\program files\daisytoolchain\arm-none-eabi\include\c++\10.2.1\cmath ****   atan2(float __y, float __x)
 145:c:\program files\daisytoolchain\arm-none-eabi\include\c++\10.2.1\cmath ****   { return __builtin_atan2f(__y, __x); }
 146:c:\program files\daisytoolchain\arm-none-eabi\include\c++\10.2.1\cmath **** 
 147:c:\program files\daisytoolchain\arm-none-eabi\include\c++\10.2.1\cmath ****   inline _GLIBCXX_CONSTEXPR long double
 148:c:\program files\daisytoolchain\arm-none-eabi\include\c++\10.2.1\cmath ****   atan2(long double __y, long double __x)
 149:c:\program files\daisytoolchain\arm-none-eabi\include\c++\10.2.1\cmath ****   { return __builtin_atan2l(__y, __x); }
 150:c:\program files\daisytoolchain\arm-none-eabi\include\c++\10.2.1\cmath **** #endif
ARM GAS  C:\Users\skipi\AppData\Local\Temp\ccpgF6Mp.s 			page 109


 151:c:\program files\daisytoolchain\arm-none-eabi\include\c++\10.2.1\cmath **** 
 152:c:\program files\daisytoolchain\arm-none-eabi\include\c++\10.2.1\cmath ****   template<typename _Tp, typename _Up>
 153:c:\program files\daisytoolchain\arm-none-eabi\include\c++\10.2.1\cmath ****     inline _GLIBCXX_CONSTEXPR
 154:c:\program files\daisytoolchain\arm-none-eabi\include\c++\10.2.1\cmath ****     typename __gnu_cxx::__promote_2<_Tp, _Up>::__type
 155:c:\program files\daisytoolchain\arm-none-eabi\include\c++\10.2.1\cmath ****     atan2(_Tp __y, _Up __x)
 156:c:\program files\daisytoolchain\arm-none-eabi\include\c++\10.2.1\cmath ****     {
 157:c:\program files\daisytoolchain\arm-none-eabi\include\c++\10.2.1\cmath ****       typedef typename __gnu_cxx::__promote_2<_Tp, _Up>::__type __type;
 158:c:\program files\daisytoolchain\arm-none-eabi\include\c++\10.2.1\cmath ****       return atan2(__type(__y), __type(__x));
 159:c:\program files\daisytoolchain\arm-none-eabi\include\c++\10.2.1\cmath ****     }
 160:c:\program files\daisytoolchain\arm-none-eabi\include\c++\10.2.1\cmath **** 
 161:c:\program files\daisytoolchain\arm-none-eabi\include\c++\10.2.1\cmath ****   using ::ceil;
 162:c:\program files\daisytoolchain\arm-none-eabi\include\c++\10.2.1\cmath **** 
 163:c:\program files\daisytoolchain\arm-none-eabi\include\c++\10.2.1\cmath **** #ifndef __CORRECT_ISO_CPP_MATH_H_PROTO
 164:c:\program files\daisytoolchain\arm-none-eabi\include\c++\10.2.1\cmath ****   inline _GLIBCXX_CONSTEXPR float
 165:c:\program files\daisytoolchain\arm-none-eabi\include\c++\10.2.1\cmath ****   ceil(float __x)
 166:c:\program files\daisytoolchain\arm-none-eabi\include\c++\10.2.1\cmath ****   { return __builtin_ceilf(__x); }
 167:c:\program files\daisytoolchain\arm-none-eabi\include\c++\10.2.1\cmath **** 
 168:c:\program files\daisytoolchain\arm-none-eabi\include\c++\10.2.1\cmath ****   inline _GLIBCXX_CONSTEXPR long double
 169:c:\program files\daisytoolchain\arm-none-eabi\include\c++\10.2.1\cmath ****   ceil(long double __x)
 170:c:\program files\daisytoolchain\arm-none-eabi\include\c++\10.2.1\cmath ****   { return __builtin_ceill(__x); }
 171:c:\program files\daisytoolchain\arm-none-eabi\include\c++\10.2.1\cmath **** #endif
 172:c:\program files\daisytoolchain\arm-none-eabi\include\c++\10.2.1\cmath **** 
 173:c:\program files\daisytoolchain\arm-none-eabi\include\c++\10.2.1\cmath ****   template<typename _Tp>
 174:c:\program files\daisytoolchain\arm-none-eabi\include\c++\10.2.1\cmath ****     inline _GLIBCXX_CONSTEXPR
 175:c:\program files\daisytoolchain\arm-none-eabi\include\c++\10.2.1\cmath ****     typename __gnu_cxx::__enable_if<__is_integer<_Tp>::__value, 
 176:c:\program files\daisytoolchain\arm-none-eabi\include\c++\10.2.1\cmath ****                                     double>::__type
 177:c:\program files\daisytoolchain\arm-none-eabi\include\c++\10.2.1\cmath ****     ceil(_Tp __x)
 178:c:\program files\daisytoolchain\arm-none-eabi\include\c++\10.2.1\cmath ****     { return __builtin_ceil(__x); }
 179:c:\program files\daisytoolchain\arm-none-eabi\include\c++\10.2.1\cmath **** 
 180:c:\program files\daisytoolchain\arm-none-eabi\include\c++\10.2.1\cmath ****   using ::cos;
 181:c:\program files\daisytoolchain\arm-none-eabi\include\c++\10.2.1\cmath **** 
 182:c:\program files\daisytoolchain\arm-none-eabi\include\c++\10.2.1\cmath **** #ifndef __CORRECT_ISO_CPP_MATH_H_PROTO
 183:c:\program files\daisytoolchain\arm-none-eabi\include\c++\10.2.1\cmath ****   inline _GLIBCXX_CONSTEXPR float
 184:c:\program files\daisytoolchain\arm-none-eabi\include\c++\10.2.1\cmath ****   cos(float __x)
 185:c:\program files\daisytoolchain\arm-none-eabi\include\c++\10.2.1\cmath ****   { return __builtin_cosf(__x); }
 3669              		.loc 14 185 26 view .LVU813
 3670 0050 B0EE680A 		vmov.f32	s0, s17
 3671 0054 FFF7FEFF 		bl	cosf
 3672              	.LVL253:
 3673              		.loc 14 185 26 view .LVU814
 3674              	.LBE1312:
 3675              	.LBE1311:
 320:../libs/PoliTeKDSP/libs/libDaisy/src/hid/disp/display.h ****         start_y = -sin(start_angle_rad) * radius;
 3676              		.loc 10 320 17 view .LVU815
 3677 0058 07EE907A 		vmov	s15, r7	@ int
 318:../libs/PoliTeKDSP/libs/libDaisy/src/hid/disp/display.h **** 
 3678              		.loc 10 318 25 view .LVU816
 3679 005c B7EECAAB 		vcvt.f32.f64	s20, d10
 3680              	.LVL254:
 3681              	.LBB1315:
 3682              	.LBI1311:
 184:c:\program files\daisytoolchain\arm-none-eabi\include\c++\10.2.1\cmath ****   { return __builtin_cosf(__x); }
 3683              		.loc 14 184 3 is_stmt 1 view .LVU817
 3684              	.LBB1313:
 3685              		.loc 14 185 5 view .LVU818
 3686              		.loc 14 185 5 is_stmt 0 view .LVU819
 3687              	.LBE1313:
ARM GAS  C:\Users\skipi\AppData\Local\Temp\ccpgF6Mp.s 			page 110


 3688              	.LBE1315:
 320:../libs/PoliTeKDSP/libs/libDaisy/src/hid/disp/display.h ****         start_y = -sin(start_angle_rad) * radius;
 3689              		.loc 10 320 17 view .LVU820
 3690 0060 F8EE679A 		vcvt.f32.u32	s19, s15
 3691              	.LBB1316:
 3692              	.LBB1314:
 3693              		.loc 14 185 26 view .LVU821
 3694 0064 B0EE408A 		vmov.f32	s16, s0
 3695              	.LBE1314:
 3696              	.LBE1316:
 3697              	.LBB1317:
 3698              	.LBB1318:
 186:c:\program files\daisytoolchain\arm-none-eabi\include\c++\10.2.1\cmath **** 
 187:c:\program files\daisytoolchain\arm-none-eabi\include\c++\10.2.1\cmath ****   inline _GLIBCXX_CONSTEXPR long double
 188:c:\program files\daisytoolchain\arm-none-eabi\include\c++\10.2.1\cmath ****   cos(long double __x)
 189:c:\program files\daisytoolchain\arm-none-eabi\include\c++\10.2.1\cmath ****   { return __builtin_cosl(__x); }
 190:c:\program files\daisytoolchain\arm-none-eabi\include\c++\10.2.1\cmath **** #endif
 191:c:\program files\daisytoolchain\arm-none-eabi\include\c++\10.2.1\cmath **** 
 192:c:\program files\daisytoolchain\arm-none-eabi\include\c++\10.2.1\cmath ****   template<typename _Tp>
 193:c:\program files\daisytoolchain\arm-none-eabi\include\c++\10.2.1\cmath ****     inline _GLIBCXX_CONSTEXPR
 194:c:\program files\daisytoolchain\arm-none-eabi\include\c++\10.2.1\cmath ****     typename __gnu_cxx::__enable_if<__is_integer<_Tp>::__value,
 195:c:\program files\daisytoolchain\arm-none-eabi\include\c++\10.2.1\cmath ****                                     double>::__type
 196:c:\program files\daisytoolchain\arm-none-eabi\include\c++\10.2.1\cmath ****     cos(_Tp __x)
 197:c:\program files\daisytoolchain\arm-none-eabi\include\c++\10.2.1\cmath ****     { return __builtin_cos(__x); }
 198:c:\program files\daisytoolchain\arm-none-eabi\include\c++\10.2.1\cmath **** 
 199:c:\program files\daisytoolchain\arm-none-eabi\include\c++\10.2.1\cmath ****   using ::cosh;
 200:c:\program files\daisytoolchain\arm-none-eabi\include\c++\10.2.1\cmath **** 
 201:c:\program files\daisytoolchain\arm-none-eabi\include\c++\10.2.1\cmath **** #ifndef __CORRECT_ISO_CPP_MATH_H_PROTO
 202:c:\program files\daisytoolchain\arm-none-eabi\include\c++\10.2.1\cmath ****   inline _GLIBCXX_CONSTEXPR float
 203:c:\program files\daisytoolchain\arm-none-eabi\include\c++\10.2.1\cmath ****   cosh(float __x)
 204:c:\program files\daisytoolchain\arm-none-eabi\include\c++\10.2.1\cmath ****   { return __builtin_coshf(__x); }
 205:c:\program files\daisytoolchain\arm-none-eabi\include\c++\10.2.1\cmath **** 
 206:c:\program files\daisytoolchain\arm-none-eabi\include\c++\10.2.1\cmath ****   inline _GLIBCXX_CONSTEXPR long double
 207:c:\program files\daisytoolchain\arm-none-eabi\include\c++\10.2.1\cmath ****   cosh(long double __x)
 208:c:\program files\daisytoolchain\arm-none-eabi\include\c++\10.2.1\cmath ****   { return __builtin_coshl(__x); }
 209:c:\program files\daisytoolchain\arm-none-eabi\include\c++\10.2.1\cmath **** #endif
 210:c:\program files\daisytoolchain\arm-none-eabi\include\c++\10.2.1\cmath **** 
 211:c:\program files\daisytoolchain\arm-none-eabi\include\c++\10.2.1\cmath ****   template<typename _Tp>
 212:c:\program files\daisytoolchain\arm-none-eabi\include\c++\10.2.1\cmath ****     inline _GLIBCXX_CONSTEXPR
 213:c:\program files\daisytoolchain\arm-none-eabi\include\c++\10.2.1\cmath ****     typename __gnu_cxx::__enable_if<__is_integer<_Tp>::__value,
 214:c:\program files\daisytoolchain\arm-none-eabi\include\c++\10.2.1\cmath ****                                     double>::__type
 215:c:\program files\daisytoolchain\arm-none-eabi\include\c++\10.2.1\cmath ****     cosh(_Tp __x)
 216:c:\program files\daisytoolchain\arm-none-eabi\include\c++\10.2.1\cmath ****     { return __builtin_cosh(__x); }
 217:c:\program files\daisytoolchain\arm-none-eabi\include\c++\10.2.1\cmath **** 
 218:c:\program files\daisytoolchain\arm-none-eabi\include\c++\10.2.1\cmath ****   using ::exp;
 219:c:\program files\daisytoolchain\arm-none-eabi\include\c++\10.2.1\cmath **** 
 220:c:\program files\daisytoolchain\arm-none-eabi\include\c++\10.2.1\cmath **** #ifndef __CORRECT_ISO_CPP_MATH_H_PROTO
 221:c:\program files\daisytoolchain\arm-none-eabi\include\c++\10.2.1\cmath ****   inline _GLIBCXX_CONSTEXPR float
 222:c:\program files\daisytoolchain\arm-none-eabi\include\c++\10.2.1\cmath ****   exp(float __x)
 223:c:\program files\daisytoolchain\arm-none-eabi\include\c++\10.2.1\cmath ****   { return __builtin_expf(__x); }
 224:c:\program files\daisytoolchain\arm-none-eabi\include\c++\10.2.1\cmath **** 
 225:c:\program files\daisytoolchain\arm-none-eabi\include\c++\10.2.1\cmath ****   inline _GLIBCXX_CONSTEXPR long double
 226:c:\program files\daisytoolchain\arm-none-eabi\include\c++\10.2.1\cmath ****   exp(long double __x)
 227:c:\program files\daisytoolchain\arm-none-eabi\include\c++\10.2.1\cmath ****   { return __builtin_expl(__x); }
 228:c:\program files\daisytoolchain\arm-none-eabi\include\c++\10.2.1\cmath **** #endif
 229:c:\program files\daisytoolchain\arm-none-eabi\include\c++\10.2.1\cmath **** 
 230:c:\program files\daisytoolchain\arm-none-eabi\include\c++\10.2.1\cmath ****   template<typename _Tp>
ARM GAS  C:\Users\skipi\AppData\Local\Temp\ccpgF6Mp.s 			page 111


 231:c:\program files\daisytoolchain\arm-none-eabi\include\c++\10.2.1\cmath ****     inline _GLIBCXX_CONSTEXPR
 232:c:\program files\daisytoolchain\arm-none-eabi\include\c++\10.2.1\cmath ****     typename __gnu_cxx::__enable_if<__is_integer<_Tp>::__value,
 233:c:\program files\daisytoolchain\arm-none-eabi\include\c++\10.2.1\cmath ****                                     double>::__type
 234:c:\program files\daisytoolchain\arm-none-eabi\include\c++\10.2.1\cmath ****     exp(_Tp __x)
 235:c:\program files\daisytoolchain\arm-none-eabi\include\c++\10.2.1\cmath ****     { return __builtin_exp(__x); }
 236:c:\program files\daisytoolchain\arm-none-eabi\include\c++\10.2.1\cmath **** 
 237:c:\program files\daisytoolchain\arm-none-eabi\include\c++\10.2.1\cmath ****   using ::fabs;
 238:c:\program files\daisytoolchain\arm-none-eabi\include\c++\10.2.1\cmath **** 
 239:c:\program files\daisytoolchain\arm-none-eabi\include\c++\10.2.1\cmath **** #ifndef __CORRECT_ISO_CPP_MATH_H_PROTO
 240:c:\program files\daisytoolchain\arm-none-eabi\include\c++\10.2.1\cmath ****   inline _GLIBCXX_CONSTEXPR float
 241:c:\program files\daisytoolchain\arm-none-eabi\include\c++\10.2.1\cmath ****   fabs(float __x)
 242:c:\program files\daisytoolchain\arm-none-eabi\include\c++\10.2.1\cmath ****   { return __builtin_fabsf(__x); }
 243:c:\program files\daisytoolchain\arm-none-eabi\include\c++\10.2.1\cmath **** 
 244:c:\program files\daisytoolchain\arm-none-eabi\include\c++\10.2.1\cmath ****   inline _GLIBCXX_CONSTEXPR long double
 245:c:\program files\daisytoolchain\arm-none-eabi\include\c++\10.2.1\cmath ****   fabs(long double __x)
 246:c:\program files\daisytoolchain\arm-none-eabi\include\c++\10.2.1\cmath ****   { return __builtin_fabsl(__x); }
 247:c:\program files\daisytoolchain\arm-none-eabi\include\c++\10.2.1\cmath **** #endif
 248:c:\program files\daisytoolchain\arm-none-eabi\include\c++\10.2.1\cmath **** 
 249:c:\program files\daisytoolchain\arm-none-eabi\include\c++\10.2.1\cmath ****   template<typename _Tp>
 250:c:\program files\daisytoolchain\arm-none-eabi\include\c++\10.2.1\cmath ****     inline _GLIBCXX_CONSTEXPR
 251:c:\program files\daisytoolchain\arm-none-eabi\include\c++\10.2.1\cmath ****     typename __gnu_cxx::__enable_if<__is_integer<_Tp>::__value,
 252:c:\program files\daisytoolchain\arm-none-eabi\include\c++\10.2.1\cmath ****                                     double>::__type
 253:c:\program files\daisytoolchain\arm-none-eabi\include\c++\10.2.1\cmath ****     fabs(_Tp __x)
 254:c:\program files\daisytoolchain\arm-none-eabi\include\c++\10.2.1\cmath ****     { return __builtin_fabs(__x); }
 255:c:\program files\daisytoolchain\arm-none-eabi\include\c++\10.2.1\cmath **** 
 256:c:\program files\daisytoolchain\arm-none-eabi\include\c++\10.2.1\cmath ****   using ::floor;
 257:c:\program files\daisytoolchain\arm-none-eabi\include\c++\10.2.1\cmath **** 
 258:c:\program files\daisytoolchain\arm-none-eabi\include\c++\10.2.1\cmath **** #ifndef __CORRECT_ISO_CPP_MATH_H_PROTO
 259:c:\program files\daisytoolchain\arm-none-eabi\include\c++\10.2.1\cmath ****   inline _GLIBCXX_CONSTEXPR float
 260:c:\program files\daisytoolchain\arm-none-eabi\include\c++\10.2.1\cmath ****   floor(float __x)
 261:c:\program files\daisytoolchain\arm-none-eabi\include\c++\10.2.1\cmath ****   { return __builtin_floorf(__x); }
 262:c:\program files\daisytoolchain\arm-none-eabi\include\c++\10.2.1\cmath **** 
 263:c:\program files\daisytoolchain\arm-none-eabi\include\c++\10.2.1\cmath ****   inline _GLIBCXX_CONSTEXPR long double
 264:c:\program files\daisytoolchain\arm-none-eabi\include\c++\10.2.1\cmath ****   floor(long double __x)
 265:c:\program files\daisytoolchain\arm-none-eabi\include\c++\10.2.1\cmath ****   { return __builtin_floorl(__x); }
 266:c:\program files\daisytoolchain\arm-none-eabi\include\c++\10.2.1\cmath **** #endif
 267:c:\program files\daisytoolchain\arm-none-eabi\include\c++\10.2.1\cmath **** 
 268:c:\program files\daisytoolchain\arm-none-eabi\include\c++\10.2.1\cmath ****   template<typename _Tp>
 269:c:\program files\daisytoolchain\arm-none-eabi\include\c++\10.2.1\cmath ****     inline _GLIBCXX_CONSTEXPR
 270:c:\program files\daisytoolchain\arm-none-eabi\include\c++\10.2.1\cmath ****     typename __gnu_cxx::__enable_if<__is_integer<_Tp>::__value,
 271:c:\program files\daisytoolchain\arm-none-eabi\include\c++\10.2.1\cmath ****                                     double>::__type
 272:c:\program files\daisytoolchain\arm-none-eabi\include\c++\10.2.1\cmath ****     floor(_Tp __x)
 273:c:\program files\daisytoolchain\arm-none-eabi\include\c++\10.2.1\cmath ****     { return __builtin_floor(__x); }
 274:c:\program files\daisytoolchain\arm-none-eabi\include\c++\10.2.1\cmath **** 
 275:c:\program files\daisytoolchain\arm-none-eabi\include\c++\10.2.1\cmath ****   using ::fmod;
 276:c:\program files\daisytoolchain\arm-none-eabi\include\c++\10.2.1\cmath **** 
 277:c:\program files\daisytoolchain\arm-none-eabi\include\c++\10.2.1\cmath **** #ifndef __CORRECT_ISO_CPP_MATH_H_PROTO
 278:c:\program files\daisytoolchain\arm-none-eabi\include\c++\10.2.1\cmath ****   inline _GLIBCXX_CONSTEXPR float
 279:c:\program files\daisytoolchain\arm-none-eabi\include\c++\10.2.1\cmath ****   fmod(float __x, float __y)
 280:c:\program files\daisytoolchain\arm-none-eabi\include\c++\10.2.1\cmath ****   { return __builtin_fmodf(__x, __y); }
 281:c:\program files\daisytoolchain\arm-none-eabi\include\c++\10.2.1\cmath **** 
 282:c:\program files\daisytoolchain\arm-none-eabi\include\c++\10.2.1\cmath ****   inline _GLIBCXX_CONSTEXPR long double
 283:c:\program files\daisytoolchain\arm-none-eabi\include\c++\10.2.1\cmath ****   fmod(long double __x, long double __y)
 284:c:\program files\daisytoolchain\arm-none-eabi\include\c++\10.2.1\cmath ****   { return __builtin_fmodl(__x, __y); }
 285:c:\program files\daisytoolchain\arm-none-eabi\include\c++\10.2.1\cmath **** #endif
 286:c:\program files\daisytoolchain\arm-none-eabi\include\c++\10.2.1\cmath **** 
 287:c:\program files\daisytoolchain\arm-none-eabi\include\c++\10.2.1\cmath ****   template<typename _Tp, typename _Up>
ARM GAS  C:\Users\skipi\AppData\Local\Temp\ccpgF6Mp.s 			page 112


 288:c:\program files\daisytoolchain\arm-none-eabi\include\c++\10.2.1\cmath ****     inline _GLIBCXX_CONSTEXPR
 289:c:\program files\daisytoolchain\arm-none-eabi\include\c++\10.2.1\cmath ****     typename __gnu_cxx::__promote_2<_Tp, _Up>::__type
 290:c:\program files\daisytoolchain\arm-none-eabi\include\c++\10.2.1\cmath ****     fmod(_Tp __x, _Up __y)
 291:c:\program files\daisytoolchain\arm-none-eabi\include\c++\10.2.1\cmath ****     {
 292:c:\program files\daisytoolchain\arm-none-eabi\include\c++\10.2.1\cmath ****       typedef typename __gnu_cxx::__promote_2<_Tp, _Up>::__type __type;
 293:c:\program files\daisytoolchain\arm-none-eabi\include\c++\10.2.1\cmath ****       return fmod(__type(__x), __type(__y));
 294:c:\program files\daisytoolchain\arm-none-eabi\include\c++\10.2.1\cmath ****     }
 295:c:\program files\daisytoolchain\arm-none-eabi\include\c++\10.2.1\cmath **** 
 296:c:\program files\daisytoolchain\arm-none-eabi\include\c++\10.2.1\cmath ****   using ::frexp;
 297:c:\program files\daisytoolchain\arm-none-eabi\include\c++\10.2.1\cmath **** 
 298:c:\program files\daisytoolchain\arm-none-eabi\include\c++\10.2.1\cmath **** #ifndef __CORRECT_ISO_CPP_MATH_H_PROTO
 299:c:\program files\daisytoolchain\arm-none-eabi\include\c++\10.2.1\cmath ****   inline float
 300:c:\program files\daisytoolchain\arm-none-eabi\include\c++\10.2.1\cmath ****   frexp(float __x, int* __exp)
 301:c:\program files\daisytoolchain\arm-none-eabi\include\c++\10.2.1\cmath ****   { return __builtin_frexpf(__x, __exp); }
 302:c:\program files\daisytoolchain\arm-none-eabi\include\c++\10.2.1\cmath **** 
 303:c:\program files\daisytoolchain\arm-none-eabi\include\c++\10.2.1\cmath ****   inline long double
 304:c:\program files\daisytoolchain\arm-none-eabi\include\c++\10.2.1\cmath ****   frexp(long double __x, int* __exp)
 305:c:\program files\daisytoolchain\arm-none-eabi\include\c++\10.2.1\cmath ****   { return __builtin_frexpl(__x, __exp); }
 306:c:\program files\daisytoolchain\arm-none-eabi\include\c++\10.2.1\cmath **** #endif
 307:c:\program files\daisytoolchain\arm-none-eabi\include\c++\10.2.1\cmath **** 
 308:c:\program files\daisytoolchain\arm-none-eabi\include\c++\10.2.1\cmath ****   template<typename _Tp>
 309:c:\program files\daisytoolchain\arm-none-eabi\include\c++\10.2.1\cmath ****     inline _GLIBCXX_CONSTEXPR
 310:c:\program files\daisytoolchain\arm-none-eabi\include\c++\10.2.1\cmath ****     typename __gnu_cxx::__enable_if<__is_integer<_Tp>::__value, 
 311:c:\program files\daisytoolchain\arm-none-eabi\include\c++\10.2.1\cmath ****                                     double>::__type
 312:c:\program files\daisytoolchain\arm-none-eabi\include\c++\10.2.1\cmath ****     frexp(_Tp __x, int* __exp)
 313:c:\program files\daisytoolchain\arm-none-eabi\include\c++\10.2.1\cmath ****     { return __builtin_frexp(__x, __exp); }
 314:c:\program files\daisytoolchain\arm-none-eabi\include\c++\10.2.1\cmath **** 
 315:c:\program files\daisytoolchain\arm-none-eabi\include\c++\10.2.1\cmath ****   using ::ldexp;
 316:c:\program files\daisytoolchain\arm-none-eabi\include\c++\10.2.1\cmath **** 
 317:c:\program files\daisytoolchain\arm-none-eabi\include\c++\10.2.1\cmath **** #ifndef __CORRECT_ISO_CPP_MATH_H_PROTO
 318:c:\program files\daisytoolchain\arm-none-eabi\include\c++\10.2.1\cmath ****   inline _GLIBCXX_CONSTEXPR float
 319:c:\program files\daisytoolchain\arm-none-eabi\include\c++\10.2.1\cmath ****   ldexp(float __x, int __exp)
 320:c:\program files\daisytoolchain\arm-none-eabi\include\c++\10.2.1\cmath ****   { return __builtin_ldexpf(__x, __exp); }
 321:c:\program files\daisytoolchain\arm-none-eabi\include\c++\10.2.1\cmath **** 
 322:c:\program files\daisytoolchain\arm-none-eabi\include\c++\10.2.1\cmath ****   inline _GLIBCXX_CONSTEXPR long double
 323:c:\program files\daisytoolchain\arm-none-eabi\include\c++\10.2.1\cmath ****   ldexp(long double __x, int __exp)
 324:c:\program files\daisytoolchain\arm-none-eabi\include\c++\10.2.1\cmath ****   { return __builtin_ldexpl(__x, __exp); }
 325:c:\program files\daisytoolchain\arm-none-eabi\include\c++\10.2.1\cmath **** #endif
 326:c:\program files\daisytoolchain\arm-none-eabi\include\c++\10.2.1\cmath **** 
 327:c:\program files\daisytoolchain\arm-none-eabi\include\c++\10.2.1\cmath ****   template<typename _Tp>
 328:c:\program files\daisytoolchain\arm-none-eabi\include\c++\10.2.1\cmath ****     inline _GLIBCXX_CONSTEXPR
 329:c:\program files\daisytoolchain\arm-none-eabi\include\c++\10.2.1\cmath ****     typename __gnu_cxx::__enable_if<__is_integer<_Tp>::__value, 
 330:c:\program files\daisytoolchain\arm-none-eabi\include\c++\10.2.1\cmath ****                                     double>::__type
 331:c:\program files\daisytoolchain\arm-none-eabi\include\c++\10.2.1\cmath ****     ldexp(_Tp __x, int __exp)
 332:c:\program files\daisytoolchain\arm-none-eabi\include\c++\10.2.1\cmath ****     { return __builtin_ldexp(__x, __exp); }
 333:c:\program files\daisytoolchain\arm-none-eabi\include\c++\10.2.1\cmath **** 
 334:c:\program files\daisytoolchain\arm-none-eabi\include\c++\10.2.1\cmath ****   using ::log;
 335:c:\program files\daisytoolchain\arm-none-eabi\include\c++\10.2.1\cmath **** 
 336:c:\program files\daisytoolchain\arm-none-eabi\include\c++\10.2.1\cmath **** #ifndef __CORRECT_ISO_CPP_MATH_H_PROTO
 337:c:\program files\daisytoolchain\arm-none-eabi\include\c++\10.2.1\cmath ****   inline _GLIBCXX_CONSTEXPR float
 338:c:\program files\daisytoolchain\arm-none-eabi\include\c++\10.2.1\cmath ****   log(float __x)
 339:c:\program files\daisytoolchain\arm-none-eabi\include\c++\10.2.1\cmath ****   { return __builtin_logf(__x); }
 340:c:\program files\daisytoolchain\arm-none-eabi\include\c++\10.2.1\cmath **** 
 341:c:\program files\daisytoolchain\arm-none-eabi\include\c++\10.2.1\cmath ****   inline _GLIBCXX_CONSTEXPR long double
 342:c:\program files\daisytoolchain\arm-none-eabi\include\c++\10.2.1\cmath ****   log(long double __x)
 343:c:\program files\daisytoolchain\arm-none-eabi\include\c++\10.2.1\cmath ****   { return __builtin_logl(__x); }
 344:c:\program files\daisytoolchain\arm-none-eabi\include\c++\10.2.1\cmath **** #endif
ARM GAS  C:\Users\skipi\AppData\Local\Temp\ccpgF6Mp.s 			page 113


 345:c:\program files\daisytoolchain\arm-none-eabi\include\c++\10.2.1\cmath **** 
 346:c:\program files\daisytoolchain\arm-none-eabi\include\c++\10.2.1\cmath ****   template<typename _Tp>
 347:c:\program files\daisytoolchain\arm-none-eabi\include\c++\10.2.1\cmath ****     inline _GLIBCXX_CONSTEXPR
 348:c:\program files\daisytoolchain\arm-none-eabi\include\c++\10.2.1\cmath ****     typename __gnu_cxx::__enable_if<__is_integer<_Tp>::__value, 
 349:c:\program files\daisytoolchain\arm-none-eabi\include\c++\10.2.1\cmath ****                                     double>::__type
 350:c:\program files\daisytoolchain\arm-none-eabi\include\c++\10.2.1\cmath ****     log(_Tp __x)
 351:c:\program files\daisytoolchain\arm-none-eabi\include\c++\10.2.1\cmath ****     { return __builtin_log(__x); }
 352:c:\program files\daisytoolchain\arm-none-eabi\include\c++\10.2.1\cmath **** 
 353:c:\program files\daisytoolchain\arm-none-eabi\include\c++\10.2.1\cmath ****   using ::log10;
 354:c:\program files\daisytoolchain\arm-none-eabi\include\c++\10.2.1\cmath **** 
 355:c:\program files\daisytoolchain\arm-none-eabi\include\c++\10.2.1\cmath **** #ifndef __CORRECT_ISO_CPP_MATH_H_PROTO
 356:c:\program files\daisytoolchain\arm-none-eabi\include\c++\10.2.1\cmath ****   inline _GLIBCXX_CONSTEXPR float
 357:c:\program files\daisytoolchain\arm-none-eabi\include\c++\10.2.1\cmath ****   log10(float __x)
 358:c:\program files\daisytoolchain\arm-none-eabi\include\c++\10.2.1\cmath ****   { return __builtin_log10f(__x); }
 359:c:\program files\daisytoolchain\arm-none-eabi\include\c++\10.2.1\cmath **** 
 360:c:\program files\daisytoolchain\arm-none-eabi\include\c++\10.2.1\cmath ****   inline _GLIBCXX_CONSTEXPR long double
 361:c:\program files\daisytoolchain\arm-none-eabi\include\c++\10.2.1\cmath ****   log10(long double __x)
 362:c:\program files\daisytoolchain\arm-none-eabi\include\c++\10.2.1\cmath ****   { return __builtin_log10l(__x); }
 363:c:\program files\daisytoolchain\arm-none-eabi\include\c++\10.2.1\cmath **** #endif
 364:c:\program files\daisytoolchain\arm-none-eabi\include\c++\10.2.1\cmath **** 
 365:c:\program files\daisytoolchain\arm-none-eabi\include\c++\10.2.1\cmath ****   template<typename _Tp>
 366:c:\program files\daisytoolchain\arm-none-eabi\include\c++\10.2.1\cmath ****     inline _GLIBCXX_CONSTEXPR
 367:c:\program files\daisytoolchain\arm-none-eabi\include\c++\10.2.1\cmath ****     typename __gnu_cxx::__enable_if<__is_integer<_Tp>::__value,
 368:c:\program files\daisytoolchain\arm-none-eabi\include\c++\10.2.1\cmath ****                                     double>::__type
 369:c:\program files\daisytoolchain\arm-none-eabi\include\c++\10.2.1\cmath ****     log10(_Tp __x)
 370:c:\program files\daisytoolchain\arm-none-eabi\include\c++\10.2.1\cmath ****     { return __builtin_log10(__x); }
 371:c:\program files\daisytoolchain\arm-none-eabi\include\c++\10.2.1\cmath **** 
 372:c:\program files\daisytoolchain\arm-none-eabi\include\c++\10.2.1\cmath ****   using ::modf;
 373:c:\program files\daisytoolchain\arm-none-eabi\include\c++\10.2.1\cmath **** 
 374:c:\program files\daisytoolchain\arm-none-eabi\include\c++\10.2.1\cmath **** #ifndef __CORRECT_ISO_CPP_MATH_H_PROTO
 375:c:\program files\daisytoolchain\arm-none-eabi\include\c++\10.2.1\cmath ****   inline float
 376:c:\program files\daisytoolchain\arm-none-eabi\include\c++\10.2.1\cmath ****   modf(float __x, float* __iptr)
 377:c:\program files\daisytoolchain\arm-none-eabi\include\c++\10.2.1\cmath ****   { return __builtin_modff(__x, __iptr); }
 378:c:\program files\daisytoolchain\arm-none-eabi\include\c++\10.2.1\cmath **** 
 379:c:\program files\daisytoolchain\arm-none-eabi\include\c++\10.2.1\cmath ****   inline long double
 380:c:\program files\daisytoolchain\arm-none-eabi\include\c++\10.2.1\cmath ****   modf(long double __x, long double* __iptr)
 381:c:\program files\daisytoolchain\arm-none-eabi\include\c++\10.2.1\cmath ****   { return __builtin_modfl(__x, __iptr); }
 382:c:\program files\daisytoolchain\arm-none-eabi\include\c++\10.2.1\cmath **** #endif
 383:c:\program files\daisytoolchain\arm-none-eabi\include\c++\10.2.1\cmath **** 
 384:c:\program files\daisytoolchain\arm-none-eabi\include\c++\10.2.1\cmath ****   using ::pow;
 385:c:\program files\daisytoolchain\arm-none-eabi\include\c++\10.2.1\cmath **** 
 386:c:\program files\daisytoolchain\arm-none-eabi\include\c++\10.2.1\cmath **** #ifndef __CORRECT_ISO_CPP_MATH_H_PROTO
 387:c:\program files\daisytoolchain\arm-none-eabi\include\c++\10.2.1\cmath ****   inline _GLIBCXX_CONSTEXPR float
 388:c:\program files\daisytoolchain\arm-none-eabi\include\c++\10.2.1\cmath ****   pow(float __x, float __y)
 389:c:\program files\daisytoolchain\arm-none-eabi\include\c++\10.2.1\cmath ****   { return __builtin_powf(__x, __y); }
 390:c:\program files\daisytoolchain\arm-none-eabi\include\c++\10.2.1\cmath **** 
 391:c:\program files\daisytoolchain\arm-none-eabi\include\c++\10.2.1\cmath ****   inline _GLIBCXX_CONSTEXPR long double
 392:c:\program files\daisytoolchain\arm-none-eabi\include\c++\10.2.1\cmath ****   pow(long double __x, long double __y)
 393:c:\program files\daisytoolchain\arm-none-eabi\include\c++\10.2.1\cmath ****   { return __builtin_powl(__x, __y); }
 394:c:\program files\daisytoolchain\arm-none-eabi\include\c++\10.2.1\cmath **** 
 395:c:\program files\daisytoolchain\arm-none-eabi\include\c++\10.2.1\cmath **** #if __cplusplus < 201103L
 396:c:\program files\daisytoolchain\arm-none-eabi\include\c++\10.2.1\cmath ****   // _GLIBCXX_RESOLVE_LIB_DEFECTS
 397:c:\program files\daisytoolchain\arm-none-eabi\include\c++\10.2.1\cmath ****   // DR 550. What should the return type of pow(float,int) be?
 398:c:\program files\daisytoolchain\arm-none-eabi\include\c++\10.2.1\cmath ****   inline double
 399:c:\program files\daisytoolchain\arm-none-eabi\include\c++\10.2.1\cmath ****   pow(double __x, int __i)
 400:c:\program files\daisytoolchain\arm-none-eabi\include\c++\10.2.1\cmath ****   { return __builtin_powi(__x, __i); }
 401:c:\program files\daisytoolchain\arm-none-eabi\include\c++\10.2.1\cmath **** 
ARM GAS  C:\Users\skipi\AppData\Local\Temp\ccpgF6Mp.s 			page 114


 402:c:\program files\daisytoolchain\arm-none-eabi\include\c++\10.2.1\cmath ****   inline float
 403:c:\program files\daisytoolchain\arm-none-eabi\include\c++\10.2.1\cmath ****   pow(float __x, int __n)
 404:c:\program files\daisytoolchain\arm-none-eabi\include\c++\10.2.1\cmath ****   { return __builtin_powif(__x, __n); }
 405:c:\program files\daisytoolchain\arm-none-eabi\include\c++\10.2.1\cmath **** 
 406:c:\program files\daisytoolchain\arm-none-eabi\include\c++\10.2.1\cmath ****   inline long double
 407:c:\program files\daisytoolchain\arm-none-eabi\include\c++\10.2.1\cmath ****   pow(long double __x, int __n)
 408:c:\program files\daisytoolchain\arm-none-eabi\include\c++\10.2.1\cmath ****   { return __builtin_powil(__x, __n); }
 409:c:\program files\daisytoolchain\arm-none-eabi\include\c++\10.2.1\cmath **** #endif
 410:c:\program files\daisytoolchain\arm-none-eabi\include\c++\10.2.1\cmath **** #endif
 411:c:\program files\daisytoolchain\arm-none-eabi\include\c++\10.2.1\cmath **** 
 412:c:\program files\daisytoolchain\arm-none-eabi\include\c++\10.2.1\cmath ****   template<typename _Tp, typename _Up>
 413:c:\program files\daisytoolchain\arm-none-eabi\include\c++\10.2.1\cmath ****     inline _GLIBCXX_CONSTEXPR
 414:c:\program files\daisytoolchain\arm-none-eabi\include\c++\10.2.1\cmath ****     typename __gnu_cxx::__promote_2<_Tp, _Up>::__type
 415:c:\program files\daisytoolchain\arm-none-eabi\include\c++\10.2.1\cmath ****     pow(_Tp __x, _Up __y)
 416:c:\program files\daisytoolchain\arm-none-eabi\include\c++\10.2.1\cmath ****     {
 417:c:\program files\daisytoolchain\arm-none-eabi\include\c++\10.2.1\cmath ****       typedef typename __gnu_cxx::__promote_2<_Tp, _Up>::__type __type;
 418:c:\program files\daisytoolchain\arm-none-eabi\include\c++\10.2.1\cmath ****       return pow(__type(__x), __type(__y));
 419:c:\program files\daisytoolchain\arm-none-eabi\include\c++\10.2.1\cmath ****     }
 420:c:\program files\daisytoolchain\arm-none-eabi\include\c++\10.2.1\cmath **** 
 421:c:\program files\daisytoolchain\arm-none-eabi\include\c++\10.2.1\cmath ****   using ::sin;
 422:c:\program files\daisytoolchain\arm-none-eabi\include\c++\10.2.1\cmath **** 
 423:c:\program files\daisytoolchain\arm-none-eabi\include\c++\10.2.1\cmath **** #ifndef __CORRECT_ISO_CPP_MATH_H_PROTO
 424:c:\program files\daisytoolchain\arm-none-eabi\include\c++\10.2.1\cmath ****   inline _GLIBCXX_CONSTEXPR float
 425:c:\program files\daisytoolchain\arm-none-eabi\include\c++\10.2.1\cmath ****   sin(float __x)
 426:c:\program files\daisytoolchain\arm-none-eabi\include\c++\10.2.1\cmath ****   { return __builtin_sinf(__x); }
 3699              		.loc 14 426 26 view .LVU822
 3700 0068 B0EE680A 		vmov.f32	s0, s17
 3701 006c FFF7FEFF 		bl	sinf
 3702              	.LVL255:
 3703              	.LBE1318:
 3704              	.LBE1317:
 321:../libs/PoliTeKDSP/libs/libDaisy/src/hid/disp/display.h ****         end_x   = cos(end_angle_rad) * radius;
 3705              		.loc 10 321 17 view .LVU823
 3706 0070 60EE698A 		vnmul.f32	s17, s0, s19
 3707              	.LVL256:
 3708              	.LBB1320:
 3709              	.LBB1321:
 185:c:\program files\daisytoolchain\arm-none-eabi\include\c++\10.2.1\cmath **** 
 3710              		.loc 14 185 26 view .LVU824
 3711 0074 B0EE4A0A 		vmov.f32	s0, s20
 3712 0078 FFF7FEFF 		bl	cosf
 3713              	.LVL257:
 3714 007c B0EE409A 		vmov.f32	s18, s0
 3715              	.LBE1321:
 3716              	.LBE1320:
 3717              	.LBB1323:
 3718              	.LBB1324:
 3719              		.loc 14 426 26 view .LVU825
 3720 0080 B0EE4A0A 		vmov.f32	s0, s20
 3721 0084 FFF7FEFF 		bl	sinf
 3722              	.LVL258:
 3723              	.LBE1324:
 3724              	.LBE1323:
 323:../libs/PoliTeKDSP/libs/libDaisy/src/hid/disp/display.h **** 
 3725              		.loc 10 323 17 view .LVU826
 3726 0088 20EE690A 		vnmul.f32	s0, s0, s19
 320:../libs/PoliTeKDSP/libs/libDaisy/src/hid/disp/display.h ****         start_y = -sin(start_angle_rad) * radius;
ARM GAS  C:\Users\skipi\AppData\Local\Temp\ccpgF6Mp.s 			page 115


 3727              		.loc 10 320 17 view .LVU827
 3728 008c 29EE888A 		vmul.f32	s16, s19, s16
 3729              	.LVL259:
 3730              	.LBB1326:
 3731              	.LBI1317:
 425:c:\program files\daisytoolchain\arm-none-eabi\include\c++\10.2.1\cmath ****   { return __builtin_sinf(__x); }
 3732              		.loc 14 425 3 is_stmt 1 view .LVU828
 3733              	.LBB1319:
 3734              		.loc 14 426 5 view .LVU829
 3735              		.loc 14 426 5 is_stmt 0 view .LVU830
 3736              	.LBE1319:
 3737              	.LBE1326:
 3738              	.LBB1327:
 3739              	.LBI1320:
 184:c:\program files\daisytoolchain\arm-none-eabi\include\c++\10.2.1\cmath ****   { return __builtin_cosf(__x); }
 3740              		.loc 14 184 3 is_stmt 1 view .LVU831
 3741              	.LBB1322:
 185:c:\program files\daisytoolchain\arm-none-eabi\include\c++\10.2.1\cmath **** 
 3742              		.loc 14 185 5 view .LVU832
 185:c:\program files\daisytoolchain\arm-none-eabi\include\c++\10.2.1\cmath **** 
 3743              		.loc 14 185 5 is_stmt 0 view .LVU833
 3744              	.LBE1322:
 3745              	.LBE1327:
 322:../libs/PoliTeKDSP/libs/libDaisy/src/hid/disp/display.h ****         end_y   = -sin(end_angle_rad) * radius;
 3746              		.loc 10 322 17 view .LVU834
 3747 0090 29EE899A 		vmul.f32	s18, s19, s18
 3748              	.LVL260:
 3749              	.LBB1328:
 3750              	.LBI1323:
 425:c:\program files\daisytoolchain\arm-none-eabi\include\c++\10.2.1\cmath ****   { return __builtin_sinf(__x); }
 3751              		.loc 14 425 3 is_stmt 1 view .LVU835
 3752              	.LBB1325:
 3753              		.loc 14 426 5 view .LVU836
 3754              		.loc 14 426 5 is_stmt 0 view .LVU837
 3755              	.LBE1325:
 3756              	.LBE1328:
 327:../libs/PoliTeKDSP/libs/libDaisy/src/hid/disp/display.h ****            < 2.0f)
 3757              		.loc 10 327 25 view .LVU838
 3758 0094 70EE687A 		vsub.f32	s15, s0, s17
 326:../libs/PoliTeKDSP/libs/libDaisy/src/hid/disp/display.h ****                + (end_y - start_y) * (end_y - start_y)
 3759              		.loc 10 326 9 view .LVU839
 3760 0098 F0EE006A 		vmov.f32	s13, #2.0e+0
 326:../libs/PoliTeKDSP/libs/libDaisy/src/hid/disp/display.h ****                + (end_y - start_y) * (end_y - start_y)
 3761              		.loc 10 326 19 view .LVU840
 3762 009c 39EE487A 		vsub.f32	s14, s18, s16
 327:../libs/PoliTeKDSP/libs/libDaisy/src/hid/disp/display.h ****            < 2.0f)
 3763              		.loc 10 327 36 view .LVU841
 3764 00a0 67EEA77A 		vmul.f32	s15, s15, s15
 327:../libs/PoliTeKDSP/libs/libDaisy/src/hid/disp/display.h ****            < 2.0f)
 3765              		.loc 10 327 16 view .LVU842
 3766 00a4 E7EE077A 		vfma.f32	s15, s14, s14
 326:../libs/PoliTeKDSP/libs/libDaisy/src/hid/disp/display.h ****                + (end_y - start_y) * (end_y - start_y)
 3767              		.loc 10 326 9 view .LVU843
 3768 00a8 F4EEE67A 		vcmpe.f32	s15, s13
 3769 00ac F1EE10FA 		vmrs	APSR_nzcv, FPSCR
 3770 00b0 06D5     		bpl	.L295
 330:../libs/PoliTeKDSP/libs/libDaisy/src/hid/disp/display.h ****                 circle = true;
ARM GAS  C:\Users\skipi\AppData\Local\Temp\ccpgF6Mp.s 			page 116


 3771              		.loc 10 330 13 view .LVU844
 3772 00b2 139B     		ldr	r3, [sp, #76]
 3773 00b4 B42B     		cmp	r3, #180
 3774 00b6 40F39680 		ble	.L236
 331:../libs/PoliTeKDSP/libs/libDaisy/src/hid/disp/display.h ****             else
 3775              		.loc 10 331 24 view .LVU845
 3776 00ba 4FF00109 		mov	r9, #1
 3777 00be 01E0     		b	.L239
 3778              	.L295:
 309:../libs/PoliTeKDSP/libs/libDaisy/src/hid/disp/display.h **** 
 3779              		.loc 10 309 14 view .LVU846
 3780 00c0 4FF00009 		mov	r9, #0
 3781              	.L239:
 3782              	.LVL261:
 307:../libs/PoliTeKDSP/libs/libDaisy/src/hid/disp/display.h **** 
 3783              		.loc 10 307 27 view .LVU847
 3784 00c4 0124     		movs	r4, #1
 337:../libs/PoliTeKDSP/libs/libDaisy/src/hid/disp/display.h ****         t_y = 0;
 3785              		.loc 10 337 13 view .LVU848
 3786 00c6 7842     		rsbs	r0, r7, #0
 3787              	.LVL262:
 338:../libs/PoliTeKDSP/libs/libDaisy/src/hid/disp/display.h ****         err = 2 - 2 * radius;
 3788              		.loc 10 338 13 view .LVU849
 3789 00c8 4FF0000C 		mov	ip, #0
 3790 00cc 0095     		str	r5, [sp]
 339:../libs/PoliTeKDSP/libs/libDaisy/src/hid/disp/display.h **** 
 3791              		.loc 10 339 17 view .LVU850
 3792 00ce E31B     		subs	r3, r4, r7
 307:../libs/PoliTeKDSP/libs/libDaisy/src/hid/disp/display.h **** 
 3793              		.loc 10 307 17 view .LVU851
 3794 00d0 2146     		mov	r1, r4
 307:../libs/PoliTeKDSP/libs/libDaisy/src/hid/disp/display.h **** 
 3795              		.loc 10 307 22 view .LVU852
 3796 00d2 2746     		mov	r7, r4
 3797              	.LVL263:
 307:../libs/PoliTeKDSP/libs/libDaisy/src/hid/disp/display.h **** 
 3798              		.loc 10 307 12 view .LVU853
 3799 00d4 2246     		mov	r2, r4
 339:../libs/PoliTeKDSP/libs/libDaisy/src/hid/disp/display.h **** 
 3800              		.loc 10 339 17 view .LVU854
 3801 00d6 A340     		lsls	r3, r3, r4
 3802              	.LVL264:
 3803              	.L265:
 343:../libs/PoliTeKDSP/libs/libDaisy/src/hid/disp/display.h ****             {
 3804              		.loc 10 343 13 view .LVU855
 3805 00d8 B9F1000F 		cmp	r9, #0
 3806 00dc 6AD1     		bne	.L241
 348:../libs/PoliTeKDSP/libs/libDaisy/src/hid/disp/display.h ****                 t_exy  = end_x * t_y;
 3807              		.loc 10 348 34 view .LVU856
 3808 00de 4242     		rsbs	r2, r0, #0
 3809              	.LVL265:
 345:../libs/PoliTeKDSP/libs/libDaisy/src/hid/disp/display.h ****                 t_syx  = start_y * t_x;
 3810              		.loc 10 345 24 view .LVU857
 3811 00e0 06EE90CA 		vmov	s13, ip	@ int
 347:../libs/PoliTeKDSP/libs/libDaisy/src/hid/disp/display.h ****                 t_synx = start_y * -t_x;
 3812              		.loc 10 347 34 view .LVU858
 3813 00e4 CCF10001 		rsb	r1, ip, #0
ARM GAS  C:\Users\skipi\AppData\Local\Temp\ccpgF6Mp.s 			page 117


 3814              	.LVL266:
 348:../libs/PoliTeKDSP/libs/libDaisy/src/hid/disp/display.h ****                 t_exy  = end_x * t_y;
 3815              		.loc 10 348 34 view .LVU859
 3816 00e8 07EE102A 		vmov	s14, r2	@ int
 345:../libs/PoliTeKDSP/libs/libDaisy/src/hid/disp/display.h ****                 t_syx  = start_y * t_x;
 3817              		.loc 10 345 24 view .LVU860
 3818 00ec B8EEE66A 		vcvt.f32.s32	s12, s13
 347:../libs/PoliTeKDSP/libs/libDaisy/src/hid/disp/display.h ****                 t_synx = start_y * -t_x;
 3819              		.loc 10 347 34 view .LVU861
 3820 00f0 07EE901A 		vmov	s15, r1	@ int
 346:../libs/PoliTeKDSP/libs/libDaisy/src/hid/disp/display.h ****                 t_sxny = start_x * -t_y;
 3821              		.loc 10 346 24 view .LVU862
 3822 00f4 06EE900A 		vmov	s13, r0	@ int
 348:../libs/PoliTeKDSP/libs/libDaisy/src/hid/disp/display.h ****                 t_exy  = end_x * t_y;
 3823              		.loc 10 348 34 view .LVU863
 3824 00f8 B8EEC77A 		vcvt.f32.s32	s14, s14
 354:../libs/PoliTeKDSP/libs/libDaisy/src/hid/disp/display.h ****                 {
 3825              		.loc 10 354 17 view .LVU864
 3826 00fc 139A     		ldr	r2, [sp, #76]
 345:../libs/PoliTeKDSP/libs/libDaisy/src/hid/disp/display.h ****                 t_syx  = start_y * t_x;
 3827              		.loc 10 345 24 view .LVU865
 3828 00fe 66EE084A 		vmul.f32	s9, s12, s16
 3829              	.LVL267:
 347:../libs/PoliTeKDSP/libs/libDaisy/src/hid/disp/display.h ****                 t_synx = start_y * -t_x;
 3830              		.loc 10 347 34 view .LVU866
 3831 0102 F8EEE77A 		vcvt.f32.s32	s15, s15
 354:../libs/PoliTeKDSP/libs/libDaisy/src/hid/disp/display.h ****                 {
 3832              		.loc 10 354 17 view .LVU867
 3833 0106 B42A     		cmp	r2, #180
 348:../libs/PoliTeKDSP/libs/libDaisy/src/hid/disp/display.h ****                 t_exy  = end_x * t_y;
 3834              		.loc 10 348 24 view .LVU868
 3835 0108 27EE284A 		vmul.f32	s8, s14, s17
 346:../libs/PoliTeKDSP/libs/libDaisy/src/hid/disp/display.h ****                 t_sxny = start_x * -t_y;
 3836              		.loc 10 346 24 view .LVU869
 3837 010c F8EEE66A 		vcvt.f32.s32	s13, s13
 347:../libs/PoliTeKDSP/libs/libDaisy/src/hid/disp/display.h ****                 t_synx = start_y * -t_x;
 3838              		.loc 10 347 24 view .LVU870
 3839 0110 67EE885A 		vmul.f32	s11, s15, s16
 356:../libs/PoliTeKDSP/libs/libDaisy/src/hid/disp/display.h ****                     d2 = (t_sxy - t_syx < 0 || t_exy - t_eyx > 0);
 3840              		.loc 10 356 33 view .LVU871
 3841 0114 74EEC43A 		vsub.f32	s7, s9, s8
 346:../libs/PoliTeKDSP/libs/libDaisy/src/hid/disp/display.h ****                 t_sxny = start_x * -t_y;
 3842              		.loc 10 346 24 view .LVU872
 3843 0118 26EEA85A 		vmul.f32	s10, s13, s17
 3844              	.LVL268:
 349:../libs/PoliTeKDSP/libs/libDaisy/src/hid/disp/display.h ****                 t_eyx  = end_y * t_x;
 3845              		.loc 10 349 24 view .LVU873
 3846 011c 26EE096A 		vmul.f32	s12, s12, s18
 3847              	.LVL269:
 350:../libs/PoliTeKDSP/libs/libDaisy/src/hid/disp/display.h ****                 t_exny = end_x * -t_y;
 3848              		.loc 10 350 24 view .LVU874
 3849 0120 66EE806A 		vmul.f32	s13, s13, s0
 3850              	.LVL270:
 351:../libs/PoliTeKDSP/libs/libDaisy/src/hid/disp/display.h ****                 t_eynx = end_y * -t_x;
 3851              		.loc 10 351 24 view .LVU875
 3852 0124 67EE897A 		vmul.f32	s15, s15, s18
 3853              	.LVL271:
ARM GAS  C:\Users\skipi\AppData\Local\Temp\ccpgF6Mp.s 			page 118


 352:../libs/PoliTeKDSP/libs/libDaisy/src/hid/disp/display.h **** 
 3854              		.loc 10 352 24 view .LVU876
 3855 0128 27EE007A 		vmul.f32	s14, s14, s0
 3856              	.LVL272:
 356:../libs/PoliTeKDSP/libs/libDaisy/src/hid/disp/display.h ****                     d2 = (t_sxy - t_syx < 0 || t_exy - t_eyx > 0);
 3857              		.loc 10 356 46 view .LVU877
 3858 012c F5EEC03A 		vcmpe.f32	s7, #0
 354:../libs/PoliTeKDSP/libs/libDaisy/src/hid/disp/display.h ****                 {
 3859              		.loc 10 354 17 view .LVU878
 3860 0130 40F3F280 		ble	.L242
 356:../libs/PoliTeKDSP/libs/libDaisy/src/hid/disp/display.h ****                     d2 = (t_sxy - t_syx < 0 || t_exy - t_eyx > 0);
 3861              		.loc 10 356 46 view .LVU879
 3862 0134 F1EE10FA 		vmrs	APSR_nzcv, FPSCR
 3863 0138 00F17F81 		bmi	.L268
 356:../libs/PoliTeKDSP/libs/libDaisy/src/hid/disp/display.h ****                     d2 = (t_sxy - t_syx < 0 || t_exy - t_eyx > 0);
 3864              		.loc 10 356 55 discriminator 2 view .LVU880
 3865 013c 76EE473A 		vsub.f32	s7, s12, s14
 357:../libs/PoliTeKDSP/libs/libDaisy/src/hid/disp/display.h ****                     d3 = (t_sxny - t_syx < 0 || t_exny - t_eyx > 0);
 3866              		.loc 10 357 33 discriminator 2 view .LVU881
 3867 0140 74EEC54A 		vsub.f32	s9, s9, s10
 3868              	.LVL273:
 356:../libs/PoliTeKDSP/libs/libDaisy/src/hid/disp/display.h ****                     d2 = (t_sxy - t_syx < 0 || t_exy - t_eyx > 0);
 3869              		.loc 10 356 46 discriminator 2 view .LVU882
 3870 0144 F5EEC03A 		vcmpe.f32	s7, #0
 3871 0148 F1EE10FA 		vmrs	APSR_nzcv, FPSCR
 357:../libs/PoliTeKDSP/libs/libDaisy/src/hid/disp/display.h ****                     d3 = (t_sxny - t_syx < 0 || t_exny - t_eyx > 0);
 3872              		.loc 10 357 45 discriminator 2 view .LVU883
 3873 014c F5EEC04A 		vcmpe.f32	s9, #0
 356:../libs/PoliTeKDSP/libs/libDaisy/src/hid/disp/display.h ****                     d2 = (t_sxy - t_syx < 0 || t_exy - t_eyx > 0);
 3874              		.loc 10 356 46 discriminator 2 view .LVU884
 3875 0150 CCBF     		ite	gt
 3876 0152 0122     		movgt	r2, #1
 3877 0154 0022     		movle	r2, #0
 3878              	.LVL274:
 357:../libs/PoliTeKDSP/libs/libDaisy/src/hid/disp/display.h ****                     d3 = (t_sxny - t_syx < 0 || t_exny - t_eyx > 0);
 3879              		.loc 10 357 45 discriminator 2 view .LVU885
 3880 0156 F1EE10FA 		vmrs	APSR_nzcv, FPSCR
 3881 015a 00F17781 		bmi	.L269
 3882              	.L311:
 357:../libs/PoliTeKDSP/libs/libDaisy/src/hid/disp/display.h ****                     d3 = (t_sxny - t_syx < 0 || t_exny - t_eyx > 0);
 3883              		.loc 10 357 54 discriminator 2 view .LVU886
 3884 015e 36EE666A 		vsub.f32	s12, s12, s13
 3885              	.LVL275:
 358:../libs/PoliTeKDSP/libs/libDaisy/src/hid/disp/display.h ****                     d4 = (t_sxny - t_synx < 0 || t_exny - t_eynx > 0);
 3886              		.loc 10 358 34 discriminator 2 view .LVU887
 3887 0162 35EEC55A 		vsub.f32	s10, s11, s10
 3888              	.LVL276:
 357:../libs/PoliTeKDSP/libs/libDaisy/src/hid/disp/display.h ****                     d3 = (t_sxny - t_syx < 0 || t_exny - t_eyx > 0);
 3889              		.loc 10 357 45 discriminator 2 view .LVU888
 3890 0166 B5EEC06A 		vcmpe.f32	s12, #0
 3891 016a F1EE10FA 		vmrs	APSR_nzcv, FPSCR
 358:../libs/PoliTeKDSP/libs/libDaisy/src/hid/disp/display.h ****                     d4 = (t_sxny - t_synx < 0 || t_exny - t_eynx > 0);
 3892              		.loc 10 358 46 discriminator 2 view .LVU889
 3893 016e B5EEC05A 		vcmpe.f32	s10, #0
 357:../libs/PoliTeKDSP/libs/libDaisy/src/hid/disp/display.h ****                     d3 = (t_sxny - t_syx < 0 || t_exny - t_eyx > 0);
 3894              		.loc 10 357 45 discriminator 2 view .LVU890
 3895 0172 CCBF     		ite	gt
ARM GAS  C:\Users\skipi\AppData\Local\Temp\ccpgF6Mp.s 			page 119


 3896 0174 0121     		movgt	r1, #1
 3897 0176 0021     		movle	r1, #0
 3898              	.LVL277:
 358:../libs/PoliTeKDSP/libs/libDaisy/src/hid/disp/display.h ****                     d4 = (t_sxny - t_synx < 0 || t_exny - t_eynx > 0);
 3899              		.loc 10 358 46 discriminator 2 view .LVU891
 3900 0178 F1EE10FA 		vmrs	APSR_nzcv, FPSCR
 3901 017c 00F16F81 		bmi	.L270
 3902              	.L312:
 358:../libs/PoliTeKDSP/libs/libDaisy/src/hid/disp/display.h ****                     d4 = (t_sxny - t_synx < 0 || t_exny - t_eynx > 0);
 3903              		.loc 10 358 56 discriminator 2 view .LVU892
 3904 0180 77EEE66A 		vsub.f32	s13, s15, s13
 3905              	.LVL278:
 358:../libs/PoliTeKDSP/libs/libDaisy/src/hid/disp/display.h ****                     d4 = (t_sxny - t_synx < 0 || t_exny - t_eynx > 0);
 3906              		.loc 10 358 46 discriminator 2 view .LVU893
 3907 0184 F5EEC06A 		vcmpe.f32	s13, #0
 3908 0188 F1EE10FA 		vmrs	APSR_nzcv, FPSCR
 3909 018c CCBF     		ite	gt
 3910 018e 0127     		movgt	r7, #1
 3911              	.LVL279:
 358:../libs/PoliTeKDSP/libs/libDaisy/src/hid/disp/display.h ****                     d4 = (t_sxny - t_synx < 0 || t_exny - t_eynx > 0);
 3912              		.loc 10 358 46 discriminator 2 view .LVU894
 3913 0190 0027     		movle	r7, #0
 3914              	.L245:
 3915              	.LVL280:
 359:../libs/PoliTeKDSP/libs/libDaisy/src/hid/disp/display.h ****                 }
 3916              		.loc 10 359 34 discriminator 6 view .LVU895
 3917 0192 75EEC45A 		vsub.f32	s11, s11, s8
 3918              	.LVL281:
 359:../libs/PoliTeKDSP/libs/libDaisy/src/hid/disp/display.h ****                 }
 3919              		.loc 10 359 47 discriminator 6 view .LVU896
 3920 0196 F5EEC05A 		vcmpe.f32	s11, #0
 3921 019a F1EE10FA 		vmrs	APSR_nzcv, FPSCR
 3922 019e 00F14781 		bmi	.L271
 3923              	.L301:
 366:../libs/PoliTeKDSP/libs/libDaisy/src/hid/disp/display.h ****                 }
 3924              		.loc 10 366 57 discriminator 1 view .LVU897
 3925 01a2 77EEC77A 		vsub.f32	s15, s15, s14
 3926              	.LVL282:
 366:../libs/PoliTeKDSP/libs/libDaisy/src/hid/disp/display.h ****                 }
 3927              		.loc 10 366 47 discriminator 1 view .LVU898
 3928 01a6 F5EEC07A 		vcmpe.f32	s15, #0
 3929 01aa F1EE10FA 		vmrs	APSR_nzcv, FPSCR
 3930 01ae CCBF     		ite	gt
 3931 01b0 0124     		movgt	r4, #1
 3932              	.LVL283:
 366:../libs/PoliTeKDSP/libs/libDaisy/src/hid/disp/display.h ****                 }
 3933              		.loc 10 366 47 discriminator 1 view .LVU899
 3934 01b2 0024     		movle	r4, #0
 3935              	.LVL284:
 3936              	.L241:
 370:../libs/PoliTeKDSP/libs/libDaisy/src/hid/disp/display.h ****                 ((ChildType*)(this))
 3937              		.loc 10 370 13 view .LVU900
 3938 01b4 002A     		cmp	r2, #0
 3939 01b6 40F08A80 		bne	.L302
 3940              	.L253:
 373:../libs/PoliTeKDSP/libs/libDaisy/src/hid/disp/display.h ****                 ((ChildType*)(this))
 3941              		.loc 10 373 13 view .LVU901
ARM GAS  C:\Users\skipi\AppData\Local\Temp\ccpgF6Mp.s 			page 120


 3942 01ba 0029     		cmp	r1, #0
 3943 01bc 64D1     		bne	.L303
 3944              	.L255:
 376:../libs/PoliTeKDSP/libs/libDaisy/src/hid/disp/display.h ****                 ((ChildType*)(this))
 3945              		.loc 10 376 13 view .LVU902
 3946 01be BFB9     		cbnz	r7, .L304
 3947              	.L257:
 379:../libs/PoliTeKDSP/libs/libDaisy/src/hid/disp/display.h ****                 ((ChildType*)(this))
 3948              		.loc 10 379 13 view .LVU903
 3949 01c0 C4BB     		cbnz	r4, .L305
 3950              	.L259:
 3951              	.LVL285:
 384:../libs/PoliTeKDSP/libs/libDaisy/src/hid/disp/display.h ****             {
 3952              		.loc 10 384 13 view .LVU904
 3953 01c2 9C45     		cmp	ip, r3
 3954 01c4 58DB     		blt	.L276
 3955              	.L307:
 386:../libs/PoliTeKDSP/libs/libDaisy/src/hid/disp/display.h ****                 err = err + (t_y * 2 + 1);
 3956              		.loc 10 386 17 view .LVU905
 3957 01c6 0CF1010C 		add	ip, ip, #1
 3958              	.LVL286:
 387:../libs/PoliTeKDSP/libs/libDaisy/src/hid/disp/display.h ****                 if(-t_x == t_y && e2 <= t_x)
 3959              		.loc 10 387 38 view .LVU906
 3960 01ca 03EB4C0E 		add	lr, r3, ip, lsl #1
 388:../libs/PoliTeKDSP/libs/libDaisy/src/hid/disp/display.h ****                 {
 3961              		.loc 10 388 17 view .LVU907
 3962 01ce 1CEB000F 		cmn	ip, r0
 387:../libs/PoliTeKDSP/libs/libDaisy/src/hid/disp/display.h ****                 if(-t_x == t_y && e2 <= t_x)
 3963              		.loc 10 387 21 view .LVU908
 3964 01d2 0EF1010E 		add	lr, lr, #1
 3965              	.LVL287:
 388:../libs/PoliTeKDSP/libs/libDaisy/src/hid/disp/display.h ****                 {
 3966              		.loc 10 388 17 view .LVU909
 3967 01d6 00F0C080 		beq	.L306
 3968              	.LVL288:
 3969              	.L261:
 393:../libs/PoliTeKDSP/libs/libDaisy/src/hid/disp/display.h ****             {
 3970              		.loc 10 393 13 view .LVU910
 3971 01da 9842     		cmp	r0, r3
 3972 01dc 4FDB     		blt	.L262
 3973              	.L277:
 393:../libs/PoliTeKDSP/libs/libDaisy/src/hid/disp/display.h ****             {
 3974              		.loc 10 393 13 view .LVU911
 3975 01de 7346     		mov	r3, lr
 3976              	.LVL289:
 3977              	.L263:
 398:../libs/PoliTeKDSP/libs/libDaisy/src/hid/disp/display.h ****     }
 3978              		.loc 10 398 21 is_stmt 1 view .LVU912
 3979 01e0 0028     		cmp	r0, #0
 3980 01e2 7FF779AF 		ble	.L265
 3981              	.LVL290:
 3982              	.L236:
 399:../libs/PoliTeKDSP/libs/libDaisy/src/hid/disp/display.h **** 
 3983              		.loc 10 399 5 is_stmt 0 view .LVU913
 3984 01e6 03B0     		add	sp, sp, #12
 3985              		.cfi_remember_state
 3986              		.cfi_def_cfa_offset 60
ARM GAS  C:\Users\skipi\AppData\Local\Temp\ccpgF6Mp.s 			page 121


 3987              		@ sp needed
 3988 01e8 BDEC068B 		vldm	sp!, {d8-d10}
 3989              		.cfi_restore 84
 3990              		.cfi_restore 85
 3991              		.cfi_restore 82
 3992              		.cfi_restore 83
 3993              		.cfi_restore 80
 3994              		.cfi_restore 81
 3995              		.cfi_def_cfa_offset 36
 3996              	.LVL291:
 399:../libs/PoliTeKDSP/libs/libDaisy/src/hid/disp/display.h **** 
 3997              		.loc 10 399 5 view .LVU914
 3998 01ec BDE8F08F 		pop	{r4, r5, r6, r7, r8, r9, r10, fp, pc}
 3999              	.LVL292:
 4000              	.L304:
 4001              		.cfi_restore_state
 378:../libs/PoliTeKDSP/libs/libDaisy/src/hid/disp/display.h ****             if(d4)
 4002              		.loc 10 378 43 view .LVU915
 4003 01f0 009D     		ldr	r5, [sp]
 4004 01f2 A6EB0C0E 		sub	lr, r6, ip
 4005 01f6 00EB050A 		add	r10, r0, r5
 4006              	.LVL293:
 4007              	.LBB1329:
 4008              	.LBI1329:
  42:../libs/PoliTeKDSP/libs/libDaisy/src/hid/disp/oled_display.h ****     {
 4009              		.loc 9 42 10 is_stmt 1 view .LVU916
 4010              	.LBB1330:
 4011              	.LBI1330:
 361:Display/../../libs/PoliTeKDSP/libs/libDaisy/src/dev/oled_ssd130x.h ****     {
 4012              		.loc 11 361 10 view .LVU917
 4013              	.LBB1331:
 363:Display/../../libs/PoliTeKDSP/libs/libDaisy/src/dev/oled_ssd130x.h ****             return;
 4014              		.loc 11 363 9 is_stmt 0 view .LVU918
 4015 01fa BAF17F0F 		cmp	r10, #127
 4016 01fe DFD8     		bhi	.L257
 4017 0200 BEF13F0F 		cmp	lr, #63
 4018 0204 DCD8     		bhi	.L257
 366:Display/../../libs/PoliTeKDSP/libs/libDaisy/src/dev/oled_ssd130x.h ****         else
 4019              		.loc 11 366 28 view .LVU919
 4020 0206 4FEADE0B 		lsr	fp, lr, #3
 365:Display/../../libs/PoliTeKDSP/libs/libDaisy/src/dev/oled_ssd130x.h ****             buffer_[x + (y / 8) * width] |= (1 << (y % 8));
 4021              		.loc 11 365 9 view .LVU920
 4022 020a 019D     		ldr	r5, [sp, #4]
 366:Display/../../libs/PoliTeKDSP/libs/libDaisy/src/dev/oled_ssd130x.h ****         else
 4023              		.loc 11 366 42 view .LVU921
 4024 020c 0AEBCB1A 		add	r10, r10, fp, lsl #7
 4025              	.LVL294:
 365:Display/../../libs/PoliTeKDSP/libs/libDaisy/src/dev/oled_ssd130x.h ****             buffer_[x + (y / 8) * width] |= (1 << (y % 8));
 4026              		.loc 11 365 9 view .LVU922
 4027 0210 002D     		cmp	r5, #0
 4028 0212 00F0B180 		beq	.L258
 366:Display/../../libs/PoliTeKDSP/libs/libDaisy/src/dev/oled_ssd130x.h ****         else
 4029              		.loc 11 366 54 view .LVU923
 4030 0216 0EF0070B 		and	fp, lr, #7
 366:Display/../../libs/PoliTeKDSP/libs/libDaisy/src/dev/oled_ssd130x.h ****         else
 4031              		.loc 11 366 42 view .LVU924
 4032 021a C244     		add	r10, r10, r8
ARM GAS  C:\Users\skipi\AppData\Local\Temp\ccpgF6Mp.s 			page 122


 366:Display/../../libs/PoliTeKDSP/libs/libDaisy/src/dev/oled_ssd130x.h ****         else
 4033              		.loc 11 366 48 view .LVU925
 4034 021c 4FF0010E 		mov	lr, #1
 4035              	.LVL295:
 366:Display/../../libs/PoliTeKDSP/libs/libDaisy/src/dev/oled_ssd130x.h ****         else
 4036              		.loc 11 366 48 view .LVU926
 4037 0220 0EFA0BFE 		lsl	lr, lr, fp
 366:Display/../../libs/PoliTeKDSP/libs/libDaisy/src/dev/oled_ssd130x.h ****         else
 4038              		.loc 11 366 42 view .LVU927
 4039 0224 9AF810B0 		ldrb	fp, [r10, #16]	@ zero_extendqisi2
 4040 0228 4EEA0B0E 		orr	lr, lr, fp
 4041 022c 8AF810E0 		strb	lr, [r10, #16]
 4042              	.LVL296:
 366:Display/../../libs/PoliTeKDSP/libs/libDaisy/src/dev/oled_ssd130x.h ****         else
 4043              		.loc 11 366 42 view .LVU928
 4044              	.LBE1331:
 4045              	.LBE1330:
 4046              	.LBE1329:
 379:../libs/PoliTeKDSP/libs/libDaisy/src/hid/disp/display.h ****                 ((ChildType*)(this))
 4047              		.loc 10 379 13 view .LVU929
 4048 0230 002C     		cmp	r4, #0
 4049 0232 C6D0     		beq	.L259
 4050              	.L305:
 381:../libs/PoliTeKDSP/libs/libDaisy/src/hid/disp/display.h **** 
 4051              		.loc 10 381 43 view .LVU930
 4052 0234 009D     		ldr	r5, [sp]
 4053 0236 A6EB0C0E 		sub	lr, r6, ip
 4054 023a A5EB000A 		sub	r10, r5, r0
 4055              	.LVL297:
 4056              	.LBB1336:
 4057              	.LBI1336:
  42:../libs/PoliTeKDSP/libs/libDaisy/src/hid/disp/oled_display.h ****     {
 4058              		.loc 9 42 10 is_stmt 1 view .LVU931
 4059              	.LBB1337:
 4060              	.LBI1337:
 361:Display/../../libs/PoliTeKDSP/libs/libDaisy/src/dev/oled_ssd130x.h ****     {
 4061              		.loc 11 361 10 view .LVU932
 4062              	.LBB1338:
 363:Display/../../libs/PoliTeKDSP/libs/libDaisy/src/dev/oled_ssd130x.h ****             return;
 4063              		.loc 11 363 9 is_stmt 0 view .LVU933
 4064 023e BAF17F0F 		cmp	r10, #127
 4065 0242 BED8     		bhi	.L259
 4066 0244 BEF13F0F 		cmp	lr, #63
 4067 0248 BBD8     		bhi	.L259
 366:Display/../../libs/PoliTeKDSP/libs/libDaisy/src/dev/oled_ssd130x.h ****         else
 4068              		.loc 11 366 28 view .LVU934
 4069 024a 4FEADE0B 		lsr	fp, lr, #3
 365:Display/../../libs/PoliTeKDSP/libs/libDaisy/src/dev/oled_ssd130x.h ****             buffer_[x + (y / 8) * width] |= (1 << (y % 8));
 4070              		.loc 11 365 9 view .LVU935
 4071 024e 019D     		ldr	r5, [sp, #4]
 366:Display/../../libs/PoliTeKDSP/libs/libDaisy/src/dev/oled_ssd130x.h ****         else
 4072              		.loc 11 366 42 view .LVU936
 4073 0250 0AEBCB1A 		add	r10, r10, fp, lsl #7
 4074              	.LVL298:
 365:Display/../../libs/PoliTeKDSP/libs/libDaisy/src/dev/oled_ssd130x.h ****             buffer_[x + (y / 8) * width] |= (1 << (y % 8));
 4075              		.loc 11 365 9 view .LVU937
 4076 0254 002D     		cmp	r5, #0
ARM GAS  C:\Users\skipi\AppData\Local\Temp\ccpgF6Mp.s 			page 123


 4077 0256 00F0AE80 		beq	.L260
 366:Display/../../libs/PoliTeKDSP/libs/libDaisy/src/dev/oled_ssd130x.h ****         else
 4078              		.loc 11 366 54 view .LVU938
 4079 025a 0EF0070B 		and	fp, lr, #7
 366:Display/../../libs/PoliTeKDSP/libs/libDaisy/src/dev/oled_ssd130x.h ****         else
 4080              		.loc 11 366 42 view .LVU939
 4081 025e C244     		add	r10, r10, r8
 366:Display/../../libs/PoliTeKDSP/libs/libDaisy/src/dev/oled_ssd130x.h ****         else
 4082              		.loc 11 366 48 view .LVU940
 4083 0260 4FF0010E 		mov	lr, #1
 4084              	.LVL299:
 366:Display/../../libs/PoliTeKDSP/libs/libDaisy/src/dev/oled_ssd130x.h ****         else
 4085              		.loc 11 366 48 view .LVU941
 4086              	.LBE1338:
 4087              	.LBE1337:
 4088              	.LBE1336:
 384:../libs/PoliTeKDSP/libs/libDaisy/src/hid/disp/display.h ****             {
 4089              		.loc 10 384 13 view .LVU942
 4090 0264 9C45     		cmp	ip, r3
 4091              	.LBB1345:
 4092              	.LBB1343:
 4093              	.LBB1341:
 366:Display/../../libs/PoliTeKDSP/libs/libDaisy/src/dev/oled_ssd130x.h ****         else
 4094              		.loc 11 366 48 view .LVU943
 4095 0266 0EFA0BFE 		lsl	lr, lr, fp
 366:Display/../../libs/PoliTeKDSP/libs/libDaisy/src/dev/oled_ssd130x.h ****         else
 4096              		.loc 11 366 42 view .LVU944
 4097 026a 9AF810B0 		ldrb	fp, [r10, #16]	@ zero_extendqisi2
 4098 026e 4EEA0B0E 		orr	lr, lr, fp
 4099 0272 8AF810E0 		strb	lr, [r10, #16]
 4100              	.LVL300:
 366:Display/../../libs/PoliTeKDSP/libs/libDaisy/src/dev/oled_ssd130x.h ****         else
 4101              		.loc 11 366 42 view .LVU945
 4102              	.LBE1341:
 4103              	.LBE1343:
 4104              	.LBE1345:
 384:../libs/PoliTeKDSP/libs/libDaisy/src/hid/disp/display.h ****             {
 4105              		.loc 10 384 13 view .LVU946
 4106 0276 A6DA     		bge	.L307
 4107              	.L276:
 393:../libs/PoliTeKDSP/libs/libDaisy/src/hid/disp/display.h ****             {
 4108              		.loc 10 393 13 view .LVU947
 4109 0278 9842     		cmp	r0, r3
 4110 027a 9E46     		mov	lr, r3
 4111              	.LVL301:
 393:../libs/PoliTeKDSP/libs/libDaisy/src/hid/disp/display.h ****             {
 4112              		.loc 10 393 13 view .LVU948
 4113 027c AFDA     		bge	.L277
 4114              	.LVL302:
 4115              	.L262:
 395:../libs/PoliTeKDSP/libs/libDaisy/src/hid/disp/display.h ****                 err = err + (t_x * 2 + 1);
 4116              		.loc 10 395 17 view .LVU949
 4117 027e 0130     		adds	r0, r0, #1
 4118              	.LVL303:
 396:../libs/PoliTeKDSP/libs/libDaisy/src/hid/disp/display.h ****             }
 4119              		.loc 10 396 38 view .LVU950
 4120 0280 0EEB4003 		add	r3, lr, r0, lsl #1
ARM GAS  C:\Users\skipi\AppData\Local\Temp\ccpgF6Mp.s 			page 124


 396:../libs/PoliTeKDSP/libs/libDaisy/src/hid/disp/display.h ****             }
 4121              		.loc 10 396 21 view .LVU951
 4122 0284 0133     		adds	r3, r3, #1
 4123              	.LVL304:
 396:../libs/PoliTeKDSP/libs/libDaisy/src/hid/disp/display.h ****             }
 4124              		.loc 10 396 21 view .LVU952
 4125 0286 ABE7     		b	.L263
 4126              	.L303:
 375:../libs/PoliTeKDSP/libs/libDaisy/src/hid/disp/display.h ****             if(d3)
 4127              		.loc 10 375 43 view .LVU953
 4128 0288 009D     		ldr	r5, [sp]
 4129 028a 0CEB060E 		add	lr, ip, r6
 4130 028e 00EB050A 		add	r10, r0, r5
 4131              	.LVL305:
 4132              	.LBB1346:
 4133              	.LBI1346:
  42:../libs/PoliTeKDSP/libs/libDaisy/src/hid/disp/oled_display.h ****     {
 4134              		.loc 9 42 10 is_stmt 1 view .LVU954
 4135              	.LBB1347:
 4136              	.LBI1347:
 361:Display/../../libs/PoliTeKDSP/libs/libDaisy/src/dev/oled_ssd130x.h ****     {
 4137              		.loc 11 361 10 view .LVU955
 4138              	.LBB1348:
 363:Display/../../libs/PoliTeKDSP/libs/libDaisy/src/dev/oled_ssd130x.h ****             return;
 4139              		.loc 11 363 9 is_stmt 0 view .LVU956
 4140 0292 BAF17F0F 		cmp	r10, #127
 4141 0296 92D8     		bhi	.L255
 4142 0298 BEF13F0F 		cmp	lr, #63
 4143 029c 8FD8     		bhi	.L255
 366:Display/../../libs/PoliTeKDSP/libs/libDaisy/src/dev/oled_ssd130x.h ****         else
 4144              		.loc 11 366 28 view .LVU957
 4145 029e 4FEADE0B 		lsr	fp, lr, #3
 365:Display/../../libs/PoliTeKDSP/libs/libDaisy/src/dev/oled_ssd130x.h ****             buffer_[x + (y / 8) * width] |= (1 << (y % 8));
 4146              		.loc 11 365 9 view .LVU958
 4147 02a2 019D     		ldr	r5, [sp, #4]
 366:Display/../../libs/PoliTeKDSP/libs/libDaisy/src/dev/oled_ssd130x.h ****         else
 4148              		.loc 11 366 42 view .LVU959
 4149 02a4 0AEBCB1A 		add	r10, r10, fp, lsl #7
 4150              	.LVL306:
 365:Display/../../libs/PoliTeKDSP/libs/libDaisy/src/dev/oled_ssd130x.h ****             buffer_[x + (y / 8) * width] |= (1 << (y % 8));
 4151              		.loc 11 365 9 view .LVU960
 4152 02a8 002D     		cmp	r5, #0
 4153 02aa 73D0     		beq	.L256
 366:Display/../../libs/PoliTeKDSP/libs/libDaisy/src/dev/oled_ssd130x.h ****         else
 4154              		.loc 11 366 54 view .LVU961
 4155 02ac 0EF0070B 		and	fp, lr, #7
 366:Display/../../libs/PoliTeKDSP/libs/libDaisy/src/dev/oled_ssd130x.h ****         else
 4156              		.loc 11 366 42 view .LVU962
 4157 02b0 C244     		add	r10, r10, r8
 366:Display/../../libs/PoliTeKDSP/libs/libDaisy/src/dev/oled_ssd130x.h ****         else
 4158              		.loc 11 366 48 view .LVU963
 4159 02b2 4FF0010E 		mov	lr, #1
 4160              	.LVL307:
 366:Display/../../libs/PoliTeKDSP/libs/libDaisy/src/dev/oled_ssd130x.h ****         else
 4161              		.loc 11 366 48 view .LVU964
 4162 02b6 0EFA0BFE 		lsl	lr, lr, fp
 366:Display/../../libs/PoliTeKDSP/libs/libDaisy/src/dev/oled_ssd130x.h ****         else
ARM GAS  C:\Users\skipi\AppData\Local\Temp\ccpgF6Mp.s 			page 125


 4163              		.loc 11 366 42 view .LVU965
 4164 02ba 9AF810B0 		ldrb	fp, [r10, #16]	@ zero_extendqisi2
 4165 02be 4EEA0B0E 		orr	lr, lr, fp
 4166 02c2 8AF810E0 		strb	lr, [r10, #16]
 4167              	.LVL308:
 366:Display/../../libs/PoliTeKDSP/libs/libDaisy/src/dev/oled_ssd130x.h ****         else
 4168              		.loc 11 366 42 view .LVU966
 4169              	.LBE1348:
 4170              	.LBE1347:
 4171              	.LBE1346:
 376:../libs/PoliTeKDSP/libs/libDaisy/src/hid/disp/display.h ****                 ((ChildType*)(this))
 4172              		.loc 10 376 13 view .LVU967
 4173 02c6 002F     		cmp	r7, #0
 4174 02c8 3FF47AAF 		beq	.L257
 4175 02cc 90E7     		b	.L304
 4176              	.L302:
 372:../libs/PoliTeKDSP/libs/libDaisy/src/hid/disp/display.h ****             if(d2)
 4177              		.loc 10 372 43 view .LVU968
 4178 02ce 009D     		ldr	r5, [sp]
 4179 02d0 0CEB060E 		add	lr, ip, r6
 4180 02d4 A5EB000A 		sub	r10, r5, r0
 4181              	.LVL309:
 4182              	.LBB1353:
 4183              	.LBI1353:
  42:../libs/PoliTeKDSP/libs/libDaisy/src/hid/disp/oled_display.h ****     {
 4184              		.loc 9 42 10 is_stmt 1 view .LVU969
 4185              	.LBB1354:
 4186              	.LBI1354:
 361:Display/../../libs/PoliTeKDSP/libs/libDaisy/src/dev/oled_ssd130x.h ****     {
 4187              		.loc 11 361 10 view .LVU970
 4188              	.LBB1355:
 363:Display/../../libs/PoliTeKDSP/libs/libDaisy/src/dev/oled_ssd130x.h ****             return;
 4189              		.loc 11 363 9 is_stmt 0 view .LVU971
 4190 02d8 BAF17F0F 		cmp	r10, #127
 4191 02dc 3FF66DAF 		bhi	.L253
 4192 02e0 BEF13F0F 		cmp	lr, #63
 4193 02e4 3FF669AF 		bhi	.L253
 366:Display/../../libs/PoliTeKDSP/libs/libDaisy/src/dev/oled_ssd130x.h ****         else
 4194              		.loc 11 366 28 view .LVU972
 4195 02e8 4FEADE0B 		lsr	fp, lr, #3
 365:Display/../../libs/PoliTeKDSP/libs/libDaisy/src/dev/oled_ssd130x.h ****             buffer_[x + (y / 8) * width] |= (1 << (y % 8));
 4196              		.loc 11 365 9 view .LVU973
 4197 02ec 019D     		ldr	r5, [sp, #4]
 366:Display/../../libs/PoliTeKDSP/libs/libDaisy/src/dev/oled_ssd130x.h ****         else
 4198              		.loc 11 366 42 view .LVU974
 4199 02ee 0AEBCB1A 		add	r10, r10, fp, lsl #7
 4200              	.LVL310:
 365:Display/../../libs/PoliTeKDSP/libs/libDaisy/src/dev/oled_ssd130x.h ****             buffer_[x + (y / 8) * width] |= (1 << (y % 8));
 4201              		.loc 11 365 9 view .LVU975
 4202 02f2 002D     		cmp	r5, #0
 4203 02f4 6DD0     		beq	.L254
 366:Display/../../libs/PoliTeKDSP/libs/libDaisy/src/dev/oled_ssd130x.h ****         else
 4204              		.loc 11 366 54 view .LVU976
 4205 02f6 0EF0070B 		and	fp, lr, #7
 366:Display/../../libs/PoliTeKDSP/libs/libDaisy/src/dev/oled_ssd130x.h ****         else
 4206              		.loc 11 366 42 view .LVU977
 4207 02fa C244     		add	r10, r10, r8
ARM GAS  C:\Users\skipi\AppData\Local\Temp\ccpgF6Mp.s 			page 126


 366:Display/../../libs/PoliTeKDSP/libs/libDaisy/src/dev/oled_ssd130x.h ****         else
 4208              		.loc 11 366 48 view .LVU978
 4209 02fc 4FF0010E 		mov	lr, #1
 4210              	.LVL311:
 366:Display/../../libs/PoliTeKDSP/libs/libDaisy/src/dev/oled_ssd130x.h ****         else
 4211              		.loc 11 366 48 view .LVU979
 4212 0300 0EFA0BFE 		lsl	lr, lr, fp
 366:Display/../../libs/PoliTeKDSP/libs/libDaisy/src/dev/oled_ssd130x.h ****         else
 4213              		.loc 11 366 42 view .LVU980
 4214 0304 9AF810B0 		ldrb	fp, [r10, #16]	@ zero_extendqisi2
 4215 0308 4EEA0B0E 		orr	lr, lr, fp
 4216 030c 8AF810E0 		strb	lr, [r10, #16]
 4217              	.LVL312:
 366:Display/../../libs/PoliTeKDSP/libs/libDaisy/src/dev/oled_ssd130x.h ****         else
 4218              		.loc 11 366 42 view .LVU981
 4219              	.LBE1355:
 4220              	.LBE1354:
 4221              	.LBE1353:
 373:../libs/PoliTeKDSP/libs/libDaisy/src/hid/disp/display.h ****                 ((ChildType*)(this))
 4222              		.loc 10 373 13 view .LVU982
 4223 0310 0029     		cmp	r1, #0
 4224 0312 3FF454AF 		beq	.L255
 4225 0316 B7E7     		b	.L303
 4226              	.LVL313:
 4227              	.L242:
 363:../libs/PoliTeKDSP/libs/libDaisy/src/hid/disp/display.h ****                     d2 = (t_sxy - t_syx < 0 && t_exy - t_eyx > 0);
 4228              		.loc 10 363 46 view .LVU983
 4229 0318 F1EE10FA 		vmrs	APSR_nzcv, FPSCR
 4230 031c 7ED4     		bmi	.L308
 4231 031e 4A46     		mov	r2, r9
 4232              	.L246:
 4233              	.LVL314:
 364:../libs/PoliTeKDSP/libs/libDaisy/src/hid/disp/display.h ****                     d3 = (t_sxny - t_syx < 0 && t_exny - t_eyx > 0);
 4234              		.loc 10 364 33 discriminator 6 view .LVU984
 4235 0320 74EEC54A 		vsub.f32	s9, s9, s10
 4236              	.LVL315:
 364:../libs/PoliTeKDSP/libs/libDaisy/src/hid/disp/display.h ****                     d3 = (t_sxny - t_syx < 0 && t_exny - t_eyx > 0);
 4237              		.loc 10 364 45 discriminator 6 view .LVU985
 4238 0324 F5EEC04A 		vcmpe.f32	s9, #0
 4239 0328 F1EE10FA 		vmrs	APSR_nzcv, FPSCR
 4240 032c 6CD4     		bmi	.L309
 364:../libs/PoliTeKDSP/libs/libDaisy/src/hid/disp/display.h ****                     d3 = (t_sxny - t_syx < 0 && t_exny - t_eyx > 0);
 4241              		.loc 10 364 45 view .LVU986
 4242 032e 0021     		movs	r1, #0
 4243              	.LVL316:
 4244              	.L248:
 365:../libs/PoliTeKDSP/libs/libDaisy/src/hid/disp/display.h ****                     d4 = (t_sxny - t_synx < 0 && t_exny - t_eynx > 0);
 4245              		.loc 10 365 34 discriminator 6 view .LVU987
 4246 0330 35EEC55A 		vsub.f32	s10, s11, s10
 4247              	.LVL317:
 365:../libs/PoliTeKDSP/libs/libDaisy/src/hid/disp/display.h ****                     d4 = (t_sxny - t_synx < 0 && t_exny - t_eynx > 0);
 4248              		.loc 10 365 46 discriminator 6 view .LVU988
 4249 0334 B5EEC05A 		vcmpe.f32	s10, #0
 4250 0338 F1EE10FA 		vmrs	APSR_nzcv, FPSCR
 4251 033c 5AD4     		bmi	.L310
 365:../libs/PoliTeKDSP/libs/libDaisy/src/hid/disp/display.h ****                     d4 = (t_sxny - t_synx < 0 && t_exny - t_eynx > 0);
 4252              		.loc 10 365 46 view .LVU989
ARM GAS  C:\Users\skipi\AppData\Local\Temp\ccpgF6Mp.s 			page 127


 4253 033e 0027     		movs	r7, #0
 4254              	.LVL318:
 4255              	.L250:
 366:../libs/PoliTeKDSP/libs/libDaisy/src/hid/disp/display.h ****                 }
 4256              		.loc 10 366 34 discriminator 6 view .LVU990
 4257 0340 75EEC45A 		vsub.f32	s11, s11, s8
 4258              	.LVL319:
 366:../libs/PoliTeKDSP/libs/libDaisy/src/hid/disp/display.h ****                 }
 4259              		.loc 10 366 47 discriminator 6 view .LVU991
 4260 0344 F5EEC05A 		vcmpe.f32	s11, #0
 4261 0348 F1EE10FA 		vmrs	APSR_nzcv, FPSCR
 4262 034c 3FF529AF 		bmi	.L301
 366:../libs/PoliTeKDSP/libs/libDaisy/src/hid/disp/display.h ****                 }
 4263              		.loc 10 366 47 view .LVU992
 4264 0350 0024     		movs	r4, #0
 4265              	.LVL320:
 370:../libs/PoliTeKDSP/libs/libDaisy/src/hid/disp/display.h ****                 ((ChildType*)(this))
 4266              		.loc 10 370 13 view .LVU993
 4267 0352 002A     		cmp	r2, #0
 4268 0354 3FF431AF 		beq	.L253
 4269 0358 B9E7     		b	.L302
 4270              	.LVL321:
 4271              	.L306:
 388:../libs/PoliTeKDSP/libs/libDaisy/src/hid/disp/display.h ****                 {
 4272              		.loc 10 388 32 discriminator 1 view .LVU994
 4273 035a 9842     		cmp	r0, r3
 4274 035c 8FDB     		blt	.L262
 390:../libs/PoliTeKDSP/libs/libDaisy/src/hid/disp/display.h ****                 }
 4275              		.loc 10 390 24 view .LVU995
 4276 035e 0023     		movs	r3, #0
 4277              	.LVL322:
 390:../libs/PoliTeKDSP/libs/libDaisy/src/hid/disp/display.h ****                 }
 4278              		.loc 10 390 24 view .LVU996
 4279 0360 3BE7     		b	.L261
 4280              	.L314:
 4281 0362 00BFAFF3 		.align	3
 4281      0080
 4282              	.L313:
 4283 0368 7A008BFC 		.word	-57999238
 4284 036c FA210940 		.word	1074340346
 4285 0370 00000000 		.word	0
 4286 0374 00806640 		.word	1080459264
 4287              	.LVL323:
 4288              	.L258:
 4289              	.LBB1360:
 4290              	.LBB1335:
 4291              	.LBB1334:
 4292              	.LBB1332:
 4293              	.LBI1332:
 361:Display/../../libs/PoliTeKDSP/libs/libDaisy/src/dev/oled_ssd130x.h ****     {
 4294              		.loc 11 361 10 is_stmt 1 view .LVU997
 4295              	.LBB1333:
 368:Display/../../libs/PoliTeKDSP/libs/libDaisy/src/dev/oled_ssd130x.h ****     }
 4296              		.loc 11 368 42 is_stmt 0 view .LVU998
 4297 0378 C244     		add	r10, r10, r8
 4298              	.LVL324:
 368:Display/../../libs/PoliTeKDSP/libs/libDaisy/src/dev/oled_ssd130x.h ****     }
ARM GAS  C:\Users\skipi\AppData\Local\Temp\ccpgF6Mp.s 			page 128


 4299              		.loc 11 368 49 view .LVU999
 4300 037a 4FF0010B 		mov	fp, #1
 4301              	.LVL325:
 368:Display/../../libs/PoliTeKDSP/libs/libDaisy/src/dev/oled_ssd130x.h ****     }
 4302              		.loc 11 368 55 view .LVU1000
 4303 037e 0EF0070E 		and	lr, lr, #7
 4304              	.LVL326:
 368:Display/../../libs/PoliTeKDSP/libs/libDaisy/src/dev/oled_ssd130x.h ****     }
 4305              		.loc 11 368 49 view .LVU1001
 4306 0382 0BFA0EFE 		lsl	lr, fp, lr
 368:Display/../../libs/PoliTeKDSP/libs/libDaisy/src/dev/oled_ssd130x.h ****     }
 4307              		.loc 11 368 42 view .LVU1002
 4308 0386 9AF810B0 		ldrb	fp, [r10, #16]	@ zero_extendqisi2
 4309 038a 2BEA0E0E 		bic	lr, fp, lr
 4310 038e 8AF810E0 		strb	lr, [r10, #16]
 4311              	.LVL327:
 368:Display/../../libs/PoliTeKDSP/libs/libDaisy/src/dev/oled_ssd130x.h ****     }
 4312              		.loc 11 368 42 view .LVU1003
 4313 0392 15E7     		b	.L257
 4314              	.LVL328:
 4315              	.L256:
 368:Display/../../libs/PoliTeKDSP/libs/libDaisy/src/dev/oled_ssd130x.h ****     }
 4316              		.loc 11 368 42 view .LVU1004
 4317              	.LBE1333:
 4318              	.LBE1332:
 4319              	.LBE1334:
 4320              	.LBE1335:
 4321              	.LBE1360:
 4322              	.LBB1361:
 4323              	.LBB1352:
 4324              	.LBB1351:
 4325              	.LBB1349:
 4326              	.LBI1349:
 361:Display/../../libs/PoliTeKDSP/libs/libDaisy/src/dev/oled_ssd130x.h ****     {
 4327              		.loc 11 361 10 is_stmt 1 view .LVU1005
 4328              	.LBB1350:
 368:Display/../../libs/PoliTeKDSP/libs/libDaisy/src/dev/oled_ssd130x.h ****     }
 4329              		.loc 11 368 42 is_stmt 0 view .LVU1006
 4330 0394 C244     		add	r10, r10, r8
 4331              	.LVL329:
 368:Display/../../libs/PoliTeKDSP/libs/libDaisy/src/dev/oled_ssd130x.h ****     }
 4332              		.loc 11 368 49 view .LVU1007
 4333 0396 4FF0010B 		mov	fp, #1
 4334              	.LVL330:
 368:Display/../../libs/PoliTeKDSP/libs/libDaisy/src/dev/oled_ssd130x.h ****     }
 4335              		.loc 11 368 55 view .LVU1008
 4336 039a 0EF0070E 		and	lr, lr, #7
 4337              	.LVL331:
 368:Display/../../libs/PoliTeKDSP/libs/libDaisy/src/dev/oled_ssd130x.h ****     }
 4338              		.loc 11 368 49 view .LVU1009
 4339 039e 0BFA0EFE 		lsl	lr, fp, lr
 368:Display/../../libs/PoliTeKDSP/libs/libDaisy/src/dev/oled_ssd130x.h ****     }
 4340              		.loc 11 368 42 view .LVU1010
 4341 03a2 9AF810B0 		ldrb	fp, [r10, #16]	@ zero_extendqisi2
 4342 03a6 2BEA0E0E 		bic	lr, fp, lr
 4343 03aa 8AF810E0 		strb	lr, [r10, #16]
 4344              	.LVL332:
ARM GAS  C:\Users\skipi\AppData\Local\Temp\ccpgF6Mp.s 			page 129


 368:Display/../../libs/PoliTeKDSP/libs/libDaisy/src/dev/oled_ssd130x.h ****     }
 4345              		.loc 11 368 42 view .LVU1011
 4346              	.LBE1350:
 4347              	.LBE1349:
 4348              	.LBE1351:
 4349              	.LBE1352:
 4350              	.LBE1361:
 376:../libs/PoliTeKDSP/libs/libDaisy/src/hid/disp/display.h ****                 ((ChildType*)(this))
 4351              		.loc 10 376 13 view .LVU1012
 4352 03ae 002F     		cmp	r7, #0
 4353 03b0 3FF406AF 		beq	.L257
 4354 03b4 1CE7     		b	.L304
 4355              	.LVL333:
 4356              	.L260:
 4357              	.LBB1362:
 4358              	.LBB1344:
 4359              	.LBB1342:
 4360              	.LBB1339:
 4361              	.LBI1339:
 361:Display/../../libs/PoliTeKDSP/libs/libDaisy/src/dev/oled_ssd130x.h ****     {
 4362              		.loc 11 361 10 is_stmt 1 view .LVU1013
 4363              	.LBB1340:
 368:Display/../../libs/PoliTeKDSP/libs/libDaisy/src/dev/oled_ssd130x.h ****     }
 4364              		.loc 11 368 42 is_stmt 0 view .LVU1014
 4365 03b6 C244     		add	r10, r10, r8
 4366              	.LVL334:
 368:Display/../../libs/PoliTeKDSP/libs/libDaisy/src/dev/oled_ssd130x.h ****     }
 4367              		.loc 11 368 49 view .LVU1015
 4368 03b8 4FF0010B 		mov	fp, #1
 4369              	.LVL335:
 368:Display/../../libs/PoliTeKDSP/libs/libDaisy/src/dev/oled_ssd130x.h ****     }
 4370              		.loc 11 368 55 view .LVU1016
 4371 03bc 0EF0070E 		and	lr, lr, #7
 4372              	.LVL336:
 368:Display/../../libs/PoliTeKDSP/libs/libDaisy/src/dev/oled_ssd130x.h ****     }
 4373              		.loc 11 368 49 view .LVU1017
 4374 03c0 0BFA0EFE 		lsl	lr, fp, lr
 368:Display/../../libs/PoliTeKDSP/libs/libDaisy/src/dev/oled_ssd130x.h ****     }
 4375              		.loc 11 368 42 view .LVU1018
 4376 03c4 9AF810B0 		ldrb	fp, [r10, #16]	@ zero_extendqisi2
 4377 03c8 2BEA0E0E 		bic	lr, fp, lr
 4378 03cc 8AF810E0 		strb	lr, [r10, #16]
 4379              	.LVL337:
 368:Display/../../libs/PoliTeKDSP/libs/libDaisy/src/dev/oled_ssd130x.h ****     }
 4380              		.loc 11 368 42 view .LVU1019
 4381 03d0 F7E6     		b	.L259
 4382              	.LVL338:
 4383              	.L254:
 368:Display/../../libs/PoliTeKDSP/libs/libDaisy/src/dev/oled_ssd130x.h ****     }
 4384              		.loc 11 368 42 view .LVU1020
 4385              	.LBE1340:
 4386              	.LBE1339:
 4387              	.LBE1342:
 4388              	.LBE1344:
 4389              	.LBE1362:
 4390              	.LBB1363:
 4391              	.LBB1359:
ARM GAS  C:\Users\skipi\AppData\Local\Temp\ccpgF6Mp.s 			page 130


 4392              	.LBB1358:
 4393              	.LBB1356:
 4394              	.LBI1356:
 361:Display/../../libs/PoliTeKDSP/libs/libDaisy/src/dev/oled_ssd130x.h ****     {
 4395              		.loc 11 361 10 is_stmt 1 view .LVU1021
 4396              	.LBB1357:
 368:Display/../../libs/PoliTeKDSP/libs/libDaisy/src/dev/oled_ssd130x.h ****     }
 4397              		.loc 11 368 42 is_stmt 0 view .LVU1022
 4398 03d2 C244     		add	r10, r10, r8
 4399              	.LVL339:
 368:Display/../../libs/PoliTeKDSP/libs/libDaisy/src/dev/oled_ssd130x.h ****     }
 4400              		.loc 11 368 49 view .LVU1023
 4401 03d4 4FF0010B 		mov	fp, #1
 4402              	.LVL340:
 368:Display/../../libs/PoliTeKDSP/libs/libDaisy/src/dev/oled_ssd130x.h ****     }
 4403              		.loc 11 368 55 view .LVU1024
 4404 03d8 0EF0070E 		and	lr, lr, #7
 4405              	.LVL341:
 368:Display/../../libs/PoliTeKDSP/libs/libDaisy/src/dev/oled_ssd130x.h ****     }
 4406              		.loc 11 368 49 view .LVU1025
 4407 03dc 0BFA0EFE 		lsl	lr, fp, lr
 368:Display/../../libs/PoliTeKDSP/libs/libDaisy/src/dev/oled_ssd130x.h ****     }
 4408              		.loc 11 368 42 view .LVU1026
 4409 03e0 9AF810B0 		ldrb	fp, [r10, #16]	@ zero_extendqisi2
 4410 03e4 2BEA0E0E 		bic	lr, fp, lr
 4411 03e8 8AF810E0 		strb	lr, [r10, #16]
 4412              	.LVL342:
 368:Display/../../libs/PoliTeKDSP/libs/libDaisy/src/dev/oled_ssd130x.h ****     }
 4413              		.loc 11 368 42 view .LVU1027
 4414              	.LBE1357:
 4415              	.LBE1356:
 4416              	.LBE1358:
 4417              	.LBE1359:
 4418              	.LBE1363:
 373:../libs/PoliTeKDSP/libs/libDaisy/src/hid/disp/display.h ****                 ((ChildType*)(this))
 4419              		.loc 10 373 13 view .LVU1028
 4420 03ec 0029     		cmp	r1, #0
 4421 03ee 3FF4E6AE 		beq	.L255
 4422 03f2 49E7     		b	.L303
 4423              	.LVL343:
 4424              	.L310:
 365:../libs/PoliTeKDSP/libs/libDaisy/src/hid/disp/display.h ****                     d4 = (t_sxny - t_synx < 0 && t_exny - t_eynx > 0);
 4425              		.loc 10 365 56 discriminator 1 view .LVU1029
 4426 03f4 77EEE66A 		vsub.f32	s13, s15, s13
 4427              	.LVL344:
 365:../libs/PoliTeKDSP/libs/libDaisy/src/hid/disp/display.h ****                     d4 = (t_sxny - t_synx < 0 && t_exny - t_eynx > 0);
 4428              		.loc 10 365 46 discriminator 1 view .LVU1030
 4429 03f8 F5EEC06A 		vcmpe.f32	s13, #0
 4430 03fc F1EE10FA 		vmrs	APSR_nzcv, FPSCR
 4431 0400 CCBF     		ite	gt
 4432 0402 0127     		movgt	r7, #1
 4433              	.LVL345:
 365:../libs/PoliTeKDSP/libs/libDaisy/src/hid/disp/display.h ****                     d4 = (t_sxny - t_synx < 0 && t_exny - t_eynx > 0);
 4434              		.loc 10 365 46 discriminator 1 view .LVU1031
 4435 0404 0027     		movle	r7, #0
 4436 0406 9BE7     		b	.L250
 4437              	.LVL346:
ARM GAS  C:\Users\skipi\AppData\Local\Temp\ccpgF6Mp.s 			page 131


 4438              	.L309:
 364:../libs/PoliTeKDSP/libs/libDaisy/src/hid/disp/display.h ****                     d3 = (t_sxny - t_syx < 0 && t_exny - t_eyx > 0);
 4439              		.loc 10 364 54 discriminator 1 view .LVU1032
 4440 0408 36EE666A 		vsub.f32	s12, s12, s13
 4441              	.LVL347:
 364:../libs/PoliTeKDSP/libs/libDaisy/src/hid/disp/display.h ****                     d3 = (t_sxny - t_syx < 0 && t_exny - t_eyx > 0);
 4442              		.loc 10 364 45 discriminator 1 view .LVU1033
 4443 040c B5EEC06A 		vcmpe.f32	s12, #0
 4444 0410 F1EE10FA 		vmrs	APSR_nzcv, FPSCR
 4445 0414 CCBF     		ite	gt
 4446 0416 0121     		movgt	r1, #1
 4447 0418 0021     		movle	r1, #0
 4448 041a 89E7     		b	.L248
 4449              	.LVL348:
 4450              	.L308:
 363:../libs/PoliTeKDSP/libs/libDaisy/src/hid/disp/display.h ****                     d2 = (t_sxy - t_syx < 0 && t_exy - t_eyx > 0);
 4451              		.loc 10 363 55 discriminator 1 view .LVU1034
 4452 041c 76EE473A 		vsub.f32	s7, s12, s14
 363:../libs/PoliTeKDSP/libs/libDaisy/src/hid/disp/display.h ****                     d2 = (t_sxy - t_syx < 0 && t_exy - t_eyx > 0);
 4453              		.loc 10 363 46 discriminator 1 view .LVU1035
 4454 0420 F5EEC03A 		vcmpe.f32	s7, #0
 4455 0424 F1EE10FA 		vmrs	APSR_nzcv, FPSCR
 4456 0428 CCBF     		ite	gt
 4457 042a 0122     		movgt	r2, #1
 4458 042c 0022     		movle	r2, #0
 4459 042e 77E7     		b	.L246
 4460              	.LVL349:
 4461              	.L271:
 359:../libs/PoliTeKDSP/libs/libDaisy/src/hid/disp/display.h ****                 }
 4462              		.loc 10 359 47 view .LVU1036
 4463 0430 0124     		movs	r4, #1
 4464              	.LVL350:
 370:../libs/PoliTeKDSP/libs/libDaisy/src/hid/disp/display.h ****                 ((ChildType*)(this))
 4465              		.loc 10 370 13 view .LVU1037
 4466 0432 002A     		cmp	r2, #0
 4467 0434 3FF4C1AE 		beq	.L253
 370:../libs/PoliTeKDSP/libs/libDaisy/src/hid/disp/display.h ****                 ((ChildType*)(this))
 4468              		.loc 10 370 13 view .LVU1038
 4469 0438 49E7     		b	.L302
 4470              	.LVL351:
 4471              	.L268:
 357:../libs/PoliTeKDSP/libs/libDaisy/src/hid/disp/display.h ****                     d3 = (t_sxny - t_syx < 0 || t_exny - t_eyx > 0);
 4472              		.loc 10 357 33 view .LVU1039
 4473 043a 74EEC54A 		vsub.f32	s9, s9, s10
 4474              	.LVL352:
 356:../libs/PoliTeKDSP/libs/libDaisy/src/hid/disp/display.h ****                     d2 = (t_sxy - t_syx < 0 || t_exy - t_eyx > 0);
 4475              		.loc 10 356 46 view .LVU1040
 4476 043e 0122     		movs	r2, #1
 4477              	.LVL353:
 357:../libs/PoliTeKDSP/libs/libDaisy/src/hid/disp/display.h ****                     d3 = (t_sxny - t_syx < 0 || t_exny - t_eyx > 0);
 4478              		.loc 10 357 45 view .LVU1041
 4479 0440 F5EEC04A 		vcmpe.f32	s9, #0
 4480 0444 F1EE10FA 		vmrs	APSR_nzcv, FPSCR
 4481 0448 7FF589AE 		bpl	.L311
 4482              	.L269:
 358:../libs/PoliTeKDSP/libs/libDaisy/src/hid/disp/display.h ****                     d4 = (t_sxny - t_synx < 0 || t_exny - t_eynx > 0);
 4483              		.loc 10 358 34 view .LVU1042
ARM GAS  C:\Users\skipi\AppData\Local\Temp\ccpgF6Mp.s 			page 132


 4484 044c 35EEC55A 		vsub.f32	s10, s11, s10
 4485              	.LVL354:
 357:../libs/PoliTeKDSP/libs/libDaisy/src/hid/disp/display.h ****                     d3 = (t_sxny - t_syx < 0 || t_exny - t_eyx > 0);
 4486              		.loc 10 357 45 view .LVU1043
 4487 0450 0121     		movs	r1, #1
 4488              	.LVL355:
 358:../libs/PoliTeKDSP/libs/libDaisy/src/hid/disp/display.h ****                     d4 = (t_sxny - t_synx < 0 || t_exny - t_eynx > 0);
 4489              		.loc 10 358 46 view .LVU1044
 4490 0452 B5EEC05A 		vcmpe.f32	s10, #0
 4491 0456 F1EE10FA 		vmrs	APSR_nzcv, FPSCR
 4492 045a 7FF591AE 		bpl	.L312
 4493              	.LVL356:
 4494              	.L270:
 358:../libs/PoliTeKDSP/libs/libDaisy/src/hid/disp/display.h ****                     d4 = (t_sxny - t_synx < 0 || t_exny - t_eynx > 0);
 4495              		.loc 10 358 46 view .LVU1045
 4496 045e 0127     		movs	r7, #1
 4497              	.LVL357:
 358:../libs/PoliTeKDSP/libs/libDaisy/src/hid/disp/display.h ****                     d4 = (t_sxny - t_synx < 0 || t_exny - t_eynx > 0);
 4498              		.loc 10 358 46 view .LVU1046
 4499 0460 97E6     		b	.L245
 4500              	.LVL358:
 4501              	.L237:
 313:../libs/PoliTeKDSP/libs/libDaisy/src/hid/disp/display.h ****             sweep = -sweep;
 4502              		.loc 10 313 25 view .LVU1047
 4503 0462 DDE91223 		ldrd	r2, r3, [sp, #72]
 4504              	.LVL359:
 313:../libs/PoliTeKDSP/libs/libDaisy/src/hid/disp/display.h ****             sweep = -sweep;
 4505              		.loc 10 313 25 view .LVU1048
 4506 0466 1344     		add	r3, r3, r2
 4507              	.LVL360:
 313:../libs/PoliTeKDSP/libs/libDaisy/src/hid/disp/display.h ****             sweep = -sweep;
 4508              		.loc 10 313 25 view .LVU1049
 4509 0468 06EE102A 		vmov	s12, r2	@ int
 4510 046c 1293     		str	r3, [sp, #72]
 4511 046e 139B     		ldr	r3, [sp, #76]
 4512              	.LVL361:
 313:../libs/PoliTeKDSP/libs/libDaisy/src/hid/disp/display.h ****             sweep = -sweep;
 4513              		.loc 10 313 25 view .LVU1050
 4514 0470 5B42     		rsbs	r3, r3, #0
 4515 0472 1393     		str	r3, [sp, #76]
 4516              	.LVL362:
 313:../libs/PoliTeKDSP/libs/libDaisy/src/hid/disp/display.h ****             sweep = -sweep;
 4517              		.loc 10 313 25 view .LVU1051
 4518 0474 D8E5     		b	.L238
 4519              		.cfi_endproc
 4520              	.LFE5721:
 4522 0476 00BF     		.section	.text._ZN5daisy25OneBitGraphicsDisplayImplINS_11OledDisplayINS_13SSD130xDriverILj128ELj64
 4523              		.align	1
 4524              		.p2align 2,,3
 4525              		.weak	_ZN5daisy25OneBitGraphicsDisplayImplINS_11OledDisplayINS_13SSD130xDriverILj128ELj64ENS_19SSD
 4526              		.syntax unified
 4527              		.thumb
 4528              		.thumb_func
 4529              		.fpu fpv5-d16
 4531              	_ZN5daisy25OneBitGraphicsDisplayImplINS_11OledDisplayINS_13SSD130xDriverILj128ELj64ENS_19SSD130xI2C
 4532              	.LVL363:
 4533              	.LFB5720:
ARM GAS  C:\Users\skipi\AppData\Local\Temp\ccpgF6Mp.s 			page 133


 262:../libs/PoliTeKDSP/libs/libDaisy/src/hid/disp/display.h ****                   uint_fast8_t y1,
 4534              		.loc 10 262 10 is_stmt 1 view -0
 4535              		.cfi_startproc
 4536              		@ args = 12, pretend = 0, frame = 24
 4537              		@ frame_needed = 0, uses_anonymous_args = 0
 262:../libs/PoliTeKDSP/libs/libDaisy/src/hid/disp/display.h ****                   uint_fast8_t y1,
 4538              		.loc 10 262 10 is_stmt 0 view .LVU1053
 4539 0000 2DE9F04F 		push	{r4, r5, r6, r7, r8, r9, r10, fp, lr}
 4540              		.cfi_def_cfa_offset 36
 4541              		.cfi_offset 4, -36
 4542              		.cfi_offset 5, -32
 4543              		.cfi_offset 6, -28
 4544              		.cfi_offset 7, -24
 4545              		.cfi_offset 8, -20
 4546              		.cfi_offset 9, -16
 4547              		.cfi_offset 10, -12
 4548              		.cfi_offset 11, -8
 4549              		.cfi_offset 14, -4
 4550 0004 87B0     		sub	sp, sp, #28
 4551              		.cfi_def_cfa_offset 64
 262:../libs/PoliTeKDSP/libs/libDaisy/src/hid/disp/display.h ****                   uint_fast8_t y1,
 4552              		.loc 10 262 10 view .LVU1054
 4553 0006 9DF84850 		ldrb	r5, [sp, #72]	@ zero_extendqisi2
 4554 000a 109C     		ldr	r4, [sp, #64]
 4555 000c 2E46     		mov	r6, r5
 4556 000e 0195     		str	r5, [sp, #4]
 4557 0010 9DF84450 		ldrb	r5, [sp, #68]	@ zero_extendqisi2
 4558              	.LBB1433:
 269:../libs/PoliTeKDSP/libs/libDaisy/src/hid/disp/display.h ****         {
 4559              		.loc 10 269 9 view .LVU1055
 4560 0014 9EB3     		cbz	r6, .L316
 4561              	.LVL364:
 269:../libs/PoliTeKDSP/libs/libDaisy/src/hid/disp/display.h ****         {
 4562              		.loc 10 269 9 view .LVU1056
 4563              	.LBE1433:
 4564              	.LBB1555:
 4565              	.LBB1556:
 271:../libs/PoliTeKDSP/libs/libDaisy/src/hid/disp/display.h ****             {
 4566              		.loc 10 271 40 is_stmt 1 view .LVU1057
 4567 0016 9942     		cmp	r1, r3
 4568 0018 2ED8     		bhi	.L315
 4569 001a 9946     		mov	r9, r3
 4570              	.LVL365:
 4571              	.L319:
 4572              	.LBB1557:
 273:../libs/PoliTeKDSP/libs/libDaisy/src/hid/disp/display.h ****                 {
 4573              		.loc 10 273 44 view .LVU1058
 4574 001c A242     		cmp	r2, r4
 4575 001e 28D8     		bhi	.L322
 4576              	.LBB1558:
 4577              	.LBB1559:
 4578              	.LBB1560:
 363:Display/../../libs/PoliTeKDSP/libs/libDaisy/src/dev/oled_ssd130x.h ****             return;
 4579              		.loc 11 363 14 is_stmt 0 view .LVU1059
 4580 0020 7F29     		cmp	r1, #127
 4581 0022 1646     		mov	r6, r2
 4582 0024 94BF     		ite	ls
ARM GAS  C:\Users\skipi\AppData\Local\Temp\ccpgF6Mp.s 			page 134


 4583 0026 0023     		movls	r3, #0
 4584 0028 0123     		movhi	r3, #1
 4585 002a 08E0     		b	.L323
 4586              	.LVL366:
 4587              	.L406:
 366:Display/../../libs/PoliTeKDSP/libs/libDaisy/src/dev/oled_ssd130x.h ****         else
 4588              		.loc 11 366 42 view .LVU1060
 4589 002c 9CF81080 		ldrb	r8, [ip, #16]	@ zero_extendqisi2
 4590 0030 4EEA080E 		orr	lr, lr, r8
 4591 0034 8CF810E0 		strb	lr, [ip, #16]
 4592              	.LVL367:
 4593              	.L320:
 366:Display/../../libs/PoliTeKDSP/libs/libDaisy/src/dev/oled_ssd130x.h ****         else
 4594              		.loc 11 366 42 view .LVU1061
 4595              	.LBE1560:
 4596              	.LBE1559:
 4597              	.LBE1558:
 273:../libs/PoliTeKDSP/libs/libDaisy/src/hid/disp/display.h ****                 {
 4598              		.loc 10 273 17 is_stmt 1 view .LVU1062
 4599 0038 0136     		adds	r6, r6, #1
 4600              	.LVL368:
 273:../libs/PoliTeKDSP/libs/libDaisy/src/hid/disp/display.h ****                 {
 4601              		.loc 10 273 44 view .LVU1063
 4602 003a B442     		cmp	r4, r6
 4603 003c 19D3     		bcc	.L322
 4604              	.L323:
 4605              	.LVL369:
 4606              	.LBB1574:
 4607              	.LBI1558:
  42:../libs/PoliTeKDSP/libs/libDaisy/src/hid/disp/oled_display.h ****     {
 4608              		.loc 9 42 10 view .LVU1064
 4609              	.LBB1571:
 4610              	.LBI1559:
 361:Display/../../libs/PoliTeKDSP/libs/libDaisy/src/dev/oled_ssd130x.h ****     {
 4611              		.loc 11 361 10 view .LVU1065
 4612              	.LBB1568:
 363:Display/../../libs/PoliTeKDSP/libs/libDaisy/src/dev/oled_ssd130x.h ****             return;
 4613              		.loc 11 363 9 is_stmt 0 view .LVU1066
 4614 003e 3F2E     		cmp	r6, #63
 4615 0040 FAD8     		bhi	.L320
 363:Display/../../libs/PoliTeKDSP/libs/libDaisy/src/dev/oled_ssd130x.h ****             return;
 4616              		.loc 11 363 9 view .LVU1067
 4617 0042 002B     		cmp	r3, #0
 4618 0044 F8D1     		bne	.L320
 4619              	.LVL370:
 4620              	.LBB1561:
 4621              	.LBI1561:
 361:Display/../../libs/PoliTeKDSP/libs/libDaisy/src/dev/oled_ssd130x.h ****     {
 4622              		.loc 11 361 10 is_stmt 1 view .LVU1068
 361:Display/../../libs/PoliTeKDSP/libs/libDaisy/src/dev/oled_ssd130x.h ****     {
 4623              		.loc 11 361 10 is_stmt 0 view .LVU1069
 4624              	.LBE1561:
 366:Display/../../libs/PoliTeKDSP/libs/libDaisy/src/dev/oled_ssd130x.h ****         else
 4625              		.loc 11 366 28 view .LVU1070
 4626 0046 4FEAD60C 		lsr	ip, r6, #3
 366:Display/../../libs/PoliTeKDSP/libs/libDaisy/src/dev/oled_ssd130x.h ****         else
 4627              		.loc 11 366 54 view .LVU1071
ARM GAS  C:\Users\skipi\AppData\Local\Temp\ccpgF6Mp.s 			page 135


 4628 004a 06F0070E 		and	lr, r6, #7
 366:Display/../../libs/PoliTeKDSP/libs/libDaisy/src/dev/oled_ssd130x.h ****         else
 4629              		.loc 11 366 48 view .LVU1072
 4630 004e 4FF00108 		mov	r8, #1
 366:Display/../../libs/PoliTeKDSP/libs/libDaisy/src/dev/oled_ssd130x.h ****         else
 4631              		.loc 11 366 42 view .LVU1073
 4632 0052 01EBCC1C 		add	ip, r1, ip, lsl #7
 366:Display/../../libs/PoliTeKDSP/libs/libDaisy/src/dev/oled_ssd130x.h ****         else
 4633              		.loc 11 366 48 view .LVU1074
 4634 0056 08FA0EFE 		lsl	lr, r8, lr
 366:Display/../../libs/PoliTeKDSP/libs/libDaisy/src/dev/oled_ssd130x.h ****         else
 4635              		.loc 11 366 42 view .LVU1075
 4636 005a 8444     		add	ip, ip, r0
 365:Display/../../libs/PoliTeKDSP/libs/libDaisy/src/dev/oled_ssd130x.h ****             buffer_[x + (y / 8) * width] |= (1 << (y % 8));
 4637              		.loc 11 365 9 view .LVU1076
 4638 005c 002D     		cmp	r5, #0
 4639 005e E5D1     		bne	.L406
 4640              	.LBB1565:
 4641              	.LBB1562:
 368:Display/../../libs/PoliTeKDSP/libs/libDaisy/src/dev/oled_ssd130x.h ****     }
 4642              		.loc 11 368 42 view .LVU1077
 4643 0060 9CF810B0 		ldrb	fp, [ip, #16]	@ zero_extendqisi2
 4644              	.LBE1562:
 4645              	.LBE1565:
 4646              	.LBE1568:
 4647              	.LBE1571:
 4648              	.LBE1574:
 273:../libs/PoliTeKDSP/libs/libDaisy/src/hid/disp/display.h ****                 {
 4649              		.loc 10 273 17 view .LVU1078
 4650 0064 0136     		adds	r6, r6, #1
 4651              	.LVL371:
 4652              	.LBB1575:
 4653              	.LBB1572:
 4654              	.LBB1569:
 4655              	.LBB1566:
 4656              	.LBB1563:
 368:Display/../../libs/PoliTeKDSP/libs/libDaisy/src/dev/oled_ssd130x.h ****     }
 4657              		.loc 11 368 42 view .LVU1079
 4658 0066 2BEA0E0A 		bic	r10, fp, lr
 4659              	.LBE1563:
 4660              	.LBE1566:
 4661              	.LBE1569:
 4662              	.LBE1572:
 4663              	.LBE1575:
 273:../libs/PoliTeKDSP/libs/libDaisy/src/hid/disp/display.h ****                 {
 4664              		.loc 10 273 44 view .LVU1080
 4665 006a B442     		cmp	r4, r6
 4666              	.LBB1576:
 4667              	.LBB1573:
 4668              	.LBB1570:
 4669              	.LBB1567:
 4670              	.LBB1564:
 368:Display/../../libs/PoliTeKDSP/libs/libDaisy/src/dev/oled_ssd130x.h ****     }
 4671              		.loc 11 368 42 view .LVU1081
 4672 006c 8CF810A0 		strb	r10, [ip, #16]
 4673              	.LVL372:
 368:Display/../../libs/PoliTeKDSP/libs/libDaisy/src/dev/oled_ssd130x.h ****     }
ARM GAS  C:\Users\skipi\AppData\Local\Temp\ccpgF6Mp.s 			page 136


 4674              		.loc 11 368 42 view .LVU1082
 4675              	.LBE1564:
 4676              	.LBE1567:
 4677              	.LBE1570:
 4678              	.LBE1573:
 4679              	.LBE1576:
 273:../libs/PoliTeKDSP/libs/libDaisy/src/hid/disp/display.h ****                 {
 4680              		.loc 10 273 17 is_stmt 1 view .LVU1083
 273:../libs/PoliTeKDSP/libs/libDaisy/src/hid/disp/display.h ****                 {
 4681              		.loc 10 273 44 view .LVU1084
 4682 0070 E5D2     		bcs	.L323
 4683              	.LVL373:
 4684              	.L322:
 273:../libs/PoliTeKDSP/libs/libDaisy/src/hid/disp/display.h ****                 {
 4685              		.loc 10 273 44 is_stmt 0 view .LVU1085
 4686              	.LBE1557:
 271:../libs/PoliTeKDSP/libs/libDaisy/src/hid/disp/display.h ****             {
 4687              		.loc 10 271 13 is_stmt 1 view .LVU1086
 4688 0072 0131     		adds	r1, r1, #1
 4689              	.LVL374:
 271:../libs/PoliTeKDSP/libs/libDaisy/src/hid/disp/display.h ****             {
 4690              		.loc 10 271 40 view .LVU1087
 4691 0074 8945     		cmp	r9, r1
 4692 0076 D1D2     		bcs	.L319
 4693              	.LVL375:
 4694              	.L315:
 271:../libs/PoliTeKDSP/libs/libDaisy/src/hid/disp/display.h ****             {
 4695              		.loc 10 271 40 is_stmt 0 view .LVU1088
 4696              	.LBE1556:
 4697              	.LBE1555:
 286:../libs/PoliTeKDSP/libs/libDaisy/src/hid/disp/display.h **** 
 4698              		.loc 10 286 5 view .LVU1089
 4699 0078 07B0     		add	sp, sp, #28
 4700              		.cfi_remember_state
 4701              		.cfi_def_cfa_offset 36
 4702              		@ sp needed
 4703 007a BDE8F08F 		pop	{r4, r5, r6, r7, r8, r9, r10, fp, pc}
 4704              	.LVL376:
 4705              	.L316:
 4706              		.cfi_restore_state
 4707              	.LBB1577:
 4708              	.LBB1434:
 4709              	.LBI1434:
 226:../libs/PoliTeKDSP/libs/libDaisy/src/hid/disp/display.h ****                   uint_fast8_t y1,
 4710              		.loc 10 226 10 is_stmt 1 view .LVU1090
 4711              	.LBB1435:
 232:../libs/PoliTeKDSP/libs/libDaisy/src/hid/disp/display.h ****         int_fast16_t deltaY = abs((int_fast16_t)y2 - (int_fast16_t)y1);
 4712              		.loc 10 232 52 is_stmt 0 view .LVU1091
 4713 007e A3EB0108 		sub	r8, r3, r1
 232:../libs/PoliTeKDSP/libs/libDaisy/src/hid/disp/display.h ****         int_fast16_t deltaY = abs((int_fast16_t)y2 - (int_fast16_t)y1);
 4714              		.loc 10 232 22 view .LVU1092
 4715 0082 B8F1000F 		cmp	r8, #0
 4716 0086 B8BF     		it	lt
 4717 0088 C8F10008 		rsblt	r8, r8, #0
 4718              	.LVL377:
 234:../libs/PoliTeKDSP/libs/libDaisy/src/hid/disp/display.h ****         int_fast16_t signY  = ((y1 < y2) ? 1 : -1);
 4719              		.loc 10 234 42 view .LVU1093
ARM GAS  C:\Users\skipi\AppData\Local\Temp\ccpgF6Mp.s 			page 137


 4720 008c 9942     		cmp	r1, r3
 4721 008e C0F04E81 		bcc	.L324
 4722              	.LVL378:
 4723              	.LBB1436:
 4724              	.LBI1436:
  42:../libs/PoliTeKDSP/libs/libDaisy/src/hid/disp/oled_display.h ****     {
 4725              		.loc 9 42 10 is_stmt 1 view .LVU1094
 4726              	.LBB1437:
 4727              	.LBI1437:
 361:Display/../../libs/PoliTeKDSP/libs/libDaisy/src/dev/oled_ssd130x.h ****     {
 4728              		.loc 11 361 10 view .LVU1095
 4729              	.LBB1438:
 363:Display/../../libs/PoliTeKDSP/libs/libDaisy/src/dev/oled_ssd130x.h ****             return;
 4730              		.loc 11 363 14 is_stmt 0 view .LVU1096
 4731 0092 7F2B     		cmp	r3, #127
 4732              	.LBE1438:
 4733              	.LBE1437:
 4734              	.LBE1436:
 234:../libs/PoliTeKDSP/libs/libDaisy/src/hid/disp/display.h ****         int_fast16_t signY  = ((y1 < y2) ? 1 : -1);
 4735              		.loc 10 234 42 view .LVU1097
 4736 0094 4FF0FF3A 		mov	r10, #-1
 4737              	.LBB1449:
 4738              	.LBB1445:
 4739              	.LBB1441:
 363:Display/../../libs/PoliTeKDSP/libs/libDaisy/src/dev/oled_ssd130x.h ****             return;
 4740              		.loc 11 363 14 view .LVU1098
 4741 0098 94BF     		ite	ls
 4742 009a 0026     		movls	r6, #0
 4743 009c 0126     		movhi	r6, #1
 363:Display/../../libs/PoliTeKDSP/libs/libDaisy/src/dev/oled_ssd130x.h ****             return;
 4744              		.loc 11 363 28 view .LVU1099
 4745 009e 3F2A     		cmp	r2, #63
 363:Display/../../libs/PoliTeKDSP/libs/libDaisy/src/dev/oled_ssd130x.h ****             return;
 4746              		.loc 11 363 14 view .LVU1100
 4747 00a0 0096     		str	r6, [sp]
 363:Display/../../libs/PoliTeKDSP/libs/libDaisy/src/dev/oled_ssd130x.h ****             return;
 4748              		.loc 11 363 28 view .LVU1101
 4749 00a2 94BF     		ite	ls
 4750 00a4 0027     		movls	r7, #0
 4751 00a6 0127     		movhi	r7, #1
 4752 00a8 0297     		str	r7, [sp, #8]
 363:Display/../../libs/PoliTeKDSP/libs/libDaisy/src/dev/oled_ssd130x.h ****             return;
 4753              		.loc 11 363 9 view .LVU1102
 4754 00aa A6B9     		cbnz	r6, .L325
 4755 00ac 9FB9     		cbnz	r7, .L325
 4756              	.LVL379:
 4757              	.L366:
 366:Display/../../libs/PoliTeKDSP/libs/libDaisy/src/dev/oled_ssd130x.h ****         else
 4758              		.loc 11 366 28 view .LVU1103
 4759 00ae D608     		lsrs	r6, r2, #3
 366:Display/../../libs/PoliTeKDSP/libs/libDaisy/src/dev/oled_ssd130x.h ****         else
 4760              		.loc 11 366 54 view .LVU1104
 4761 00b0 02F0070C 		and	ip, r2, #7
 366:Display/../../libs/PoliTeKDSP/libs/libDaisy/src/dev/oled_ssd130x.h ****         else
 4762              		.loc 11 366 48 view .LVU1105
 4763 00b4 0127     		movs	r7, #1
 366:Display/../../libs/PoliTeKDSP/libs/libDaisy/src/dev/oled_ssd130x.h ****         else
ARM GAS  C:\Users\skipi\AppData\Local\Temp\ccpgF6Mp.s 			page 138


 4764              		.loc 11 366 42 view .LVU1106
 4765 00b6 03EBC616 		add	r6, r3, r6, lsl #7
 4766 00ba 0644     		add	r6, r6, r0
 365:Display/../../libs/PoliTeKDSP/libs/libDaisy/src/dev/oled_ssd130x.h ****             buffer_[x + (y / 8) * width] |= (1 << (y % 8));
 4767              		.loc 11 365 9 view .LVU1107
 4768 00bc 002D     		cmp	r5, #0
 4769 00be 00F09481 		beq	.L326
 366:Display/../../libs/PoliTeKDSP/libs/libDaisy/src/dev/oled_ssd130x.h ****         else
 4770              		.loc 11 366 48 view .LVU1108
 4771 00c2 07FA0CF7 		lsl	r7, r7, ip
 366:Display/../../libs/PoliTeKDSP/libs/libDaisy/src/dev/oled_ssd130x.h ****         else
 4772              		.loc 11 366 42 view .LVU1109
 4773 00c6 96F810C0 		ldrb	ip, [r6, #16]	@ zero_extendqisi2
 4774 00ca 47EA0C07 		orr	r7, r7, ip
 4775 00ce 3774     		strb	r7, [r6, #16]
 4776 00d0 0026     		movs	r6, #0
 4777 00d2 0296     		str	r6, [sp, #8]
 4778 00d4 0096     		str	r6, [sp]
 4779              	.L325:
 4780              	.LVL380:
 366:Display/../../libs/PoliTeKDSP/libs/libDaisy/src/dev/oled_ssd130x.h ****         else
 4781              		.loc 11 366 42 view .LVU1110
 4782              	.LBE1441:
 4783              	.LBE1445:
 4784              	.LBE1449:
 244:../libs/PoliTeKDSP/libs/libDaisy/src/hid/disp/display.h ****         {
 4785              		.loc 10 244 26 is_stmt 1 view .LVU1111
 4786 00d6 9942     		cmp	r1, r3
 4787 00d8 00F09781 		beq	.L407
 4788              	.L328:
 4789              	.LVL381:
 232:../libs/PoliTeKDSP/libs/libDaisy/src/hid/disp/display.h ****         int_fast16_t deltaY = abs((int_fast16_t)y2 - (int_fast16_t)y1);
 4790              		.loc 10 232 22 is_stmt 0 view .LVU1112
 4791 00dc 4646     		mov	r6, r8
 4792 00de 9446     		mov	ip, r2
 4793 00e0 8E46     		mov	lr, r1
 4794              	.LVL382:
 4795              	.L330:
 4796              	.LBB1450:
 4797              	.LBI1450:
  42:../libs/PoliTeKDSP/libs/libDaisy/src/hid/disp/oled_display.h ****     {
 4798              		.loc 9 42 10 is_stmt 1 view .LVU1113
 4799              	.LBB1451:
 4800              	.LBI1451:
 361:Display/../../libs/PoliTeKDSP/libs/libDaisy/src/dev/oled_ssd130x.h ****     {
 4801              		.loc 11 361 10 view .LVU1114
 4802              	.LBB1452:
 363:Display/../../libs/PoliTeKDSP/libs/libDaisy/src/dev/oled_ssd130x.h ****             return;
 4803              		.loc 11 363 9 is_stmt 0 view .LVU1115
 4804 00e2 BEF17F0F 		cmp	lr, #127
 4805 00e6 16D8     		bhi	.L331
 4806 00e8 BCF13F0F 		cmp	ip, #63
 4807 00ec 13D8     		bhi	.L331
 366:Display/../../libs/PoliTeKDSP/libs/libDaisy/src/dev/oled_ssd130x.h ****         else
 4808              		.loc 11 366 28 view .LVU1116
 4809 00ee 4FEADC07 		lsr	r7, ip, #3
 366:Display/../../libs/PoliTeKDSP/libs/libDaisy/src/dev/oled_ssd130x.h ****         else
ARM GAS  C:\Users\skipi\AppData\Local\Temp\ccpgF6Mp.s 			page 139


 4810              		.loc 11 366 54 view .LVU1117
 4811 00f2 0CF0070B 		and	fp, ip, #7
 366:Display/../../libs/PoliTeKDSP/libs/libDaisy/src/dev/oled_ssd130x.h ****         else
 4812              		.loc 11 366 48 view .LVU1118
 4813 00f6 4FF00109 		mov	r9, #1
 366:Display/../../libs/PoliTeKDSP/libs/libDaisy/src/dev/oled_ssd130x.h ****         else
 4814              		.loc 11 366 42 view .LVU1119
 4815 00fa 0EEBC717 		add	r7, lr, r7, lsl #7
 4816 00fe 0744     		add	r7, r7, r0
 365:Display/../../libs/PoliTeKDSP/libs/libDaisy/src/dev/oled_ssd130x.h ****             buffer_[x + (y / 8) * width] |= (1 << (y % 8));
 4817              		.loc 11 365 9 view .LVU1120
 4818 0100 002D     		cmp	r5, #0
 4819 0102 00F03981 		beq	.L332
 366:Display/../../libs/PoliTeKDSP/libs/libDaisy/src/dev/oled_ssd130x.h ****         else
 4820              		.loc 11 366 48 view .LVU1121
 4821 0106 09FA0BF9 		lsl	r9, r9, fp
 366:Display/../../libs/PoliTeKDSP/libs/libDaisy/src/dev/oled_ssd130x.h ****         else
 4822              		.loc 11 366 42 view .LVU1122
 4823 010a 97F810B0 		ldrb	fp, [r7, #16]	@ zero_extendqisi2
 4824 010e 49EA0B09 		orr	r9, r9, fp
 4825 0112 87F81090 		strb	r9, [r7, #16]
 4826              	.L331:
 4827              	.LVL383:
 366:Display/../../libs/PoliTeKDSP/libs/libDaisy/src/dev/oled_ssd130x.h ****         else
 4828              		.loc 11 366 42 view .LVU1123
 4829              	.LBE1452:
 4830              	.LBE1451:
 4831              	.LBE1450:
 248:../libs/PoliTeKDSP/libs/libDaisy/src/hid/disp/display.h ****             {
 4832              		.loc 10 248 13 view .LVU1124
 4833 0116 7700     		lsls	r7, r6, #1
 4834              	.LVL384:
 251:../libs/PoliTeKDSP/libs/libDaisy/src/hid/disp/display.h ****             }
 4835              		.loc 10 251 20 view .LVU1125
 4836 0118 18BF     		it	ne
 4837 011a D644     		addne	lr, lr, r10
 4838              	.LVL385:
 254:../libs/PoliTeKDSP/libs/libDaisy/src/hid/disp/display.h ****             {
 4839              		.loc 10 254 13 view .LVU1126
 4840 011c B845     		cmp	r8, r7
 4841 011e 02DD     		ble	.L334
 256:../libs/PoliTeKDSP/libs/libDaisy/src/hid/disp/display.h ****                 y1 += signY;
 4842              		.loc 10 256 23 view .LVU1127
 4843 0120 4644     		add	r6, r6, r8
 4844              	.LVL386:
 257:../libs/PoliTeKDSP/libs/libDaisy/src/hid/disp/display.h ****             }
 4845              		.loc 10 257 20 view .LVU1128
 4846 0122 0CF1FF3C 		add	ip, ip, #-1
 4847              	.LVL387:
 4848              	.L334:
 244:../libs/PoliTeKDSP/libs/libDaisy/src/hid/disp/display.h ****         {
 4849              		.loc 10 244 26 is_stmt 1 view .LVU1129
 4850 0126 7345     		cmp	r3, lr
 4851 0128 DBD1     		bne	.L330
 244:../libs/PoliTeKDSP/libs/libDaisy/src/hid/disp/display.h ****         {
 4852              		.loc 10 244 26 is_stmt 0 view .LVU1130
 4853 012a 6245     		cmp	r2, ip
ARM GAS  C:\Users\skipi\AppData\Local\Temp\ccpgF6Mp.s 			page 140


 4854 012c D9D1     		bne	.L330
 4855 012e 0026     		movs	r6, #0
 4856              	.LVL388:
 244:../libs/PoliTeKDSP/libs/libDaisy/src/hid/disp/display.h ****         {
 4857              		.loc 10 244 26 view .LVU1131
 4858 0130 0496     		str	r6, [sp, #16]
 4859              	.LVL389:
 4860              	.L327:
 244:../libs/PoliTeKDSP/libs/libDaisy/src/hid/disp/display.h ****         {
 4861              		.loc 10 244 26 view .LVU1132
 4862              	.LBE1435:
 4863              	.LBE1434:
 4864              	.LBB1465:
 4865              	.LBI1465:
 226:../libs/PoliTeKDSP/libs/libDaisy/src/hid/disp/display.h ****                   uint_fast8_t y1,
 4866              		.loc 10 226 10 is_stmt 1 view .LVU1133
 4867              	.LBB1466:
 233:../libs/PoliTeKDSP/libs/libDaisy/src/hid/disp/display.h ****         int_fast16_t signX  = ((x1 < x2) ? 1 : -1);
 4868              		.loc 10 233 52 is_stmt 0 view .LVU1134
 4869 0132 A4EB0209 		sub	r9, r4, r2
 4870              	.LBB1467:
 4871              	.LBB1468:
 4872              	.LBB1469:
 363:Display/../../libs/PoliTeKDSP/libs/libDaisy/src/dev/oled_ssd130x.h ****             return;
 4873              		.loc 11 363 9 view .LVU1135
 4874 0136 009F     		ldr	r7, [sp]
 4875              	.LBE1469:
 4876              	.LBE1468:
 4877              	.LBE1467:
 233:../libs/PoliTeKDSP/libs/libDaisy/src/hid/disp/display.h ****         int_fast16_t signX  = ((x1 < x2) ? 1 : -1);
 4878              		.loc 10 233 22 view .LVU1136
 4879 0138 B9F1000F 		cmp	r9, #0
 4880 013c B8BF     		it	lt
 4881 013e C9F10009 		rsblt	r9, r9, #0
 4882              	.LVL390:
 4883              	.LBB1484:
 4884              	.LBB1478:
 4885              	.LBB1472:
 363:Display/../../libs/PoliTeKDSP/libs/libDaisy/src/dev/oled_ssd130x.h ****             return;
 4886              		.loc 11 363 28 view .LVU1137
 4887 0142 3F2C     		cmp	r4, #63
 4888 0144 94BF     		ite	ls
 4889 0146 0026     		movls	r6, #0
 4890 0148 0126     		movhi	r6, #1
 4891              	.LBE1472:
 4892              	.LBE1478:
 4893              	.LBE1484:
 235:../libs/PoliTeKDSP/libs/libDaisy/src/hid/disp/display.h ****         int_fast16_t error  = deltaX - deltaY;
 4894              		.loc 10 235 42 view .LVU1138
 4895 014a A242     		cmp	r2, r4
 236:../libs/PoliTeKDSP/libs/libDaisy/src/hid/disp/display.h ****         int_fast16_t error2;
 4896              		.loc 10 236 22 view .LVU1139
 4897 014c C9F10008 		rsb	r8, r9, #0
 4898              	.LVL391:
 4899              	.LBB1485:
 4900              	.LBI1467:
  42:../libs/PoliTeKDSP/libs/libDaisy/src/hid/disp/oled_display.h ****     {
ARM GAS  C:\Users\skipi\AppData\Local\Temp\ccpgF6Mp.s 			page 141


 4901              		.loc 9 42 10 is_stmt 1 view .LVU1140
 4902              	.LBB1479:
 4903              	.LBI1468:
 361:Display/../../libs/PoliTeKDSP/libs/libDaisy/src/dev/oled_ssd130x.h ****     {
 4904              		.loc 11 361 10 view .LVU1141
 4905              	.LBB1473:
 363:Display/../../libs/PoliTeKDSP/libs/libDaisy/src/dev/oled_ssd130x.h ****             return;
 4906              		.loc 11 363 28 is_stmt 0 view .LVU1142
 4907 0150 0396     		str	r6, [sp, #12]
 4908              	.LBE1473:
 4909              	.LBE1479:
 4910              	.LBE1485:
 235:../libs/PoliTeKDSP/libs/libDaisy/src/hid/disp/display.h ****         int_fast16_t error  = deltaX - deltaY;
 4911              		.loc 10 235 42 view .LVU1143
 4912 0152 C0F02381 		bcc	.L335
 4913              	.LVL392:
 4914              	.LBB1486:
 4915              	.LBB1480:
 4916              	.LBB1474:
 363:Display/../../libs/PoliTeKDSP/libs/libDaisy/src/dev/oled_ssd130x.h ****             return;
 4917              		.loc 11 363 9 view .LVU1144
 4918 0156 002F     		cmp	r7, #0
 4919 0158 40F05081 		bne	.L370
 4920 015c 002E     		cmp	r6, #0
 4921 015e 40F04D81 		bne	.L370
 4922              	.LBE1474:
 4923              	.LBE1480:
 4924              	.LBE1486:
 235:../libs/PoliTeKDSP/libs/libDaisy/src/hid/disp/display.h ****         int_fast16_t error  = deltaX - deltaY;
 4925              		.loc 10 235 42 view .LVU1145
 4926 0162 4FF0FF36 		mov	r6, #-1
 4927 0166 0096     		str	r6, [sp]
 4928              	.LBB1487:
 4929              	.LBB1481:
 4930              	.LBB1475:
 366:Display/../../libs/PoliTeKDSP/libs/libDaisy/src/dev/oled_ssd130x.h ****         else
 4931              		.loc 11 366 28 view .LVU1146
 4932 0168 E608     		lsrs	r6, r4, #3
 366:Display/../../libs/PoliTeKDSP/libs/libDaisy/src/dev/oled_ssd130x.h ****         else
 4933              		.loc 11 366 42 view .LVU1147
 4934 016a 03EBC616 		add	r6, r3, r6, lsl #7
 4935 016e 0644     		add	r6, r6, r0
 365:Display/../../libs/PoliTeKDSP/libs/libDaisy/src/dev/oled_ssd130x.h ****             buffer_[x + (y / 8) * width] |= (1 << (y % 8));
 4936              		.loc 11 365 9 view .LVU1148
 4937 0170 002D     		cmp	r5, #0
 4938 0172 00F01E81 		beq	.L337
 4939              	.LVL393:
 4940              	.L409:
 366:Display/../../libs/PoliTeKDSP/libs/libDaisy/src/dev/oled_ssd130x.h ****         else
 4941              		.loc 11 366 48 view .LVU1149
 4942 0176 4FF0010C 		mov	ip, #1
 366:Display/../../libs/PoliTeKDSP/libs/libDaisy/src/dev/oled_ssd130x.h ****         else
 4943              		.loc 11 366 54 view .LVU1150
 4944 017a 04F00707 		and	r7, r4, #7
 366:Display/../../libs/PoliTeKDSP/libs/libDaisy/src/dev/oled_ssd130x.h ****         else
 4945              		.loc 11 366 48 view .LVU1151
 4946 017e 0CFA07F7 		lsl	r7, ip, r7
ARM GAS  C:\Users\skipi\AppData\Local\Temp\ccpgF6Mp.s 			page 142


 366:Display/../../libs/PoliTeKDSP/libs/libDaisy/src/dev/oled_ssd130x.h ****         else
 4947              		.loc 11 366 42 view .LVU1152
 4948 0182 96F810C0 		ldrb	ip, [r6, #16]	@ zero_extendqisi2
 4949 0186 47EA0C07 		orr	r7, r7, ip
 4950 018a 3774     		strb	r7, [r6, #16]
 4951 018c 0026     		movs	r6, #0
 4952 018e 0396     		str	r6, [sp, #12]
 4953              	.L336:
 4954              	.LVL394:
 366:Display/../../libs/PoliTeKDSP/libs/libDaisy/src/dev/oled_ssd130x.h ****         else
 4955              		.loc 11 366 42 view .LVU1153
 4956              	.LBE1475:
 4957              	.LBE1481:
 4958              	.LBE1487:
 244:../libs/PoliTeKDSP/libs/libDaisy/src/hid/disp/display.h ****         {
 4959              		.loc 10 244 26 is_stmt 1 view .LVU1154
 4960 0190 A242     		cmp	r2, r4
 4961 0192 00F03D81 		beq	.L408
 4962              	.L339:
 4963              	.LVL395:
 235:../libs/PoliTeKDSP/libs/libDaisy/src/hid/disp/display.h ****         int_fast16_t error  = deltaX - deltaY;
 4964              		.loc 10 235 42 is_stmt 0 view .LVU1155
 4965 0196 C446     		mov	ip, r8
 4966 0198 1646     		mov	r6, r2
 4967 019a 1F46     		mov	r7, r3
 4968 019c 0592     		str	r2, [sp, #20]
 4969              	.LVL396:
 4970              	.L341:
 4971              	.LBB1488:
 4972              	.LBI1488:
  42:../libs/PoliTeKDSP/libs/libDaisy/src/hid/disp/oled_display.h ****     {
 4973              		.loc 9 42 10 is_stmt 1 view .LVU1156
 4974              	.LBB1489:
 4975              	.LBI1489:
 361:Display/../../libs/PoliTeKDSP/libs/libDaisy/src/dev/oled_ssd130x.h ****     {
 4976              		.loc 11 361 10 view .LVU1157
 4977              	.LBB1490:
 363:Display/../../libs/PoliTeKDSP/libs/libDaisy/src/dev/oled_ssd130x.h ****             return;
 4978              		.loc 11 363 9 is_stmt 0 view .LVU1158
 4979 019e 7F2F     		cmp	r7, #127
 4980 01a0 15D8     		bhi	.L342
 4981 01a2 3F2E     		cmp	r6, #63
 4982 01a4 13D8     		bhi	.L342
 366:Display/../../libs/PoliTeKDSP/libs/libDaisy/src/dev/oled_ssd130x.h ****         else
 4983              		.loc 11 366 28 view .LVU1159
 4984 01a6 4FEAD60E 		lsr	lr, r6, #3
 366:Display/../../libs/PoliTeKDSP/libs/libDaisy/src/dev/oled_ssd130x.h ****         else
 4985              		.loc 11 366 54 view .LVU1160
 4986 01aa 06F0070B 		and	fp, r6, #7
 366:Display/../../libs/PoliTeKDSP/libs/libDaisy/src/dev/oled_ssd130x.h ****         else
 4987              		.loc 11 366 48 view .LVU1161
 4988 01ae 4FF0010A 		mov	r10, #1
 366:Display/../../libs/PoliTeKDSP/libs/libDaisy/src/dev/oled_ssd130x.h ****         else
 4989              		.loc 11 366 42 view .LVU1162
 4990 01b2 07EBCE1E 		add	lr, r7, lr, lsl #7
 4991 01b6 8644     		add	lr, lr, r0
 365:Display/../../libs/PoliTeKDSP/libs/libDaisy/src/dev/oled_ssd130x.h ****             buffer_[x + (y / 8) * width] |= (1 << (y % 8));
ARM GAS  C:\Users\skipi\AppData\Local\Temp\ccpgF6Mp.s 			page 143


 4992              		.loc 11 365 9 view .LVU1163
 4993 01b8 002D     		cmp	r5, #0
 4994 01ba 00F0E680 		beq	.L343
 366:Display/../../libs/PoliTeKDSP/libs/libDaisy/src/dev/oled_ssd130x.h ****         else
 4995              		.loc 11 366 48 view .LVU1164
 4996 01be 0AFA0BFA 		lsl	r10, r10, fp
 366:Display/../../libs/PoliTeKDSP/libs/libDaisy/src/dev/oled_ssd130x.h ****         else
 4997              		.loc 11 366 42 view .LVU1165
 4998 01c2 9EF810B0 		ldrb	fp, [lr, #16]	@ zero_extendqisi2
 4999 01c6 4AEA0B0A 		orr	r10, r10, fp
 5000 01ca 8EF810A0 		strb	r10, [lr, #16]
 5001              	.L342:
 5002              	.LVL397:
 366:Display/../../libs/PoliTeKDSP/libs/libDaisy/src/dev/oled_ssd130x.h ****         else
 5003              		.loc 11 366 42 view .LVU1166
 5004              	.LBE1490:
 5005              	.LBE1489:
 5006              	.LBE1488:
 248:../libs/PoliTeKDSP/libs/libDaisy/src/hid/disp/display.h ****             {
 5007              		.loc 10 248 13 view .LVU1167
 5008 01ce B8EB4C0F 		cmp	r8, ip, lsl #1
 247:../libs/PoliTeKDSP/libs/libDaisy/src/hid/disp/display.h ****             if(error2 > -deltaY)
 5009              		.loc 10 247 20 view .LVU1168
 5010 01d2 4FEA4C0E 		lsl	lr, ip, #1
 5011              	.LVL398:
 248:../libs/PoliTeKDSP/libs/libDaisy/src/hid/disp/display.h ****             {
 5012              		.loc 10 248 13 view .LVU1169
 5013 01d6 02DA     		bge	.L344
 250:../libs/PoliTeKDSP/libs/libDaisy/src/hid/disp/display.h ****                 x1 += signX;
 5014              		.loc 10 250 23 view .LVU1170
 5015 01d8 ACEB090C 		sub	ip, ip, r9
 5016              	.LVL399:
 251:../libs/PoliTeKDSP/libs/libDaisy/src/hid/disp/display.h ****             }
 5017              		.loc 10 251 20 view .LVU1171
 5018 01dc 013F     		subs	r7, r7, #1
 5019              	.LVL400:
 5020              	.L344:
 254:../libs/PoliTeKDSP/libs/libDaisy/src/hid/disp/display.h ****             {
 5021              		.loc 10 254 13 view .LVU1172
 5022 01de BEF1000F 		cmp	lr, #0
 5023 01e2 01D0     		beq	.L345
 257:../libs/PoliTeKDSP/libs/libDaisy/src/hid/disp/display.h ****             }
 5024              		.loc 10 257 20 view .LVU1173
 5025 01e4 009A     		ldr	r2, [sp]
 5026 01e6 1644     		add	r6, r6, r2
 5027              	.LVL401:
 5028              	.L345:
 244:../libs/PoliTeKDSP/libs/libDaisy/src/hid/disp/display.h ****         {
 5029              		.loc 10 244 26 is_stmt 1 view .LVU1174
 5030 01e8 BB42     		cmp	r3, r7
 5031 01ea D8D1     		bne	.L341
 244:../libs/PoliTeKDSP/libs/libDaisy/src/hid/disp/display.h ****         {
 5032              		.loc 10 244 26 is_stmt 0 view .LVU1175
 5033 01ec B442     		cmp	r4, r6
 5034 01ee D6D1     		bne	.L341
 5035 01f0 059A     		ldr	r2, [sp, #20]
 5036              	.LVL402:
ARM GAS  C:\Users\skipi\AppData\Local\Temp\ccpgF6Mp.s 			page 144


 5037              	.L338:
 244:../libs/PoliTeKDSP/libs/libDaisy/src/hid/disp/display.h ****         {
 5038              		.loc 10 244 26 view .LVU1176
 5039              	.LBE1466:
 5040              	.LBE1465:
 5041              	.LBB1501:
 5042              	.LBI1501:
 226:../libs/PoliTeKDSP/libs/libDaisy/src/hid/disp/display.h ****                   uint_fast8_t y1,
 5043              		.loc 10 226 10 is_stmt 1 view .LVU1177
 5044              	.LBB1502:
 232:../libs/PoliTeKDSP/libs/libDaisy/src/hid/disp/display.h ****         int_fast16_t deltaY = abs((int_fast16_t)y2 - (int_fast16_t)y1);
 5045              		.loc 10 232 52 is_stmt 0 view .LVU1178
 5046 01f2 A1EB030E 		sub	lr, r1, r3
 232:../libs/PoliTeKDSP/libs/libDaisy/src/hid/disp/display.h ****         int_fast16_t deltaY = abs((int_fast16_t)y2 - (int_fast16_t)y1);
 5047              		.loc 10 232 22 view .LVU1179
 5048 01f6 BEF1000F 		cmp	lr, #0
 5049 01fa B8BF     		it	lt
 5050 01fc CEF1000E 		rsblt	lr, lr, #0
 5051              	.LVL403:
 5052              	.LBB1503:
 5053              	.LBB1504:
 5054              	.LBB1505:
 363:Display/../../libs/PoliTeKDSP/libs/libDaisy/src/dev/oled_ssd130x.h ****             return;
 5055              		.loc 11 363 14 view .LVU1180
 5056 0200 7F29     		cmp	r1, #127
 5057 0202 94BF     		ite	ls
 5058 0204 4FF0000A 		movls	r10, #0
 5059 0208 4FF0010A 		movhi	r10, #1
 5060              	.LBE1505:
 5061              	.LBE1504:
 5062              	.LBE1503:
 234:../libs/PoliTeKDSP/libs/libDaisy/src/hid/disp/display.h ****         int_fast16_t signY  = ((y1 < y2) ? 1 : -1);
 5063              		.loc 10 234 42 view .LVU1181
 5064 020c 9942     		cmp	r1, r3
 5065 020e 8CBF     		ite	hi
 5066 0210 4FF00109 		movhi	r9, #1
 5067 0214 4FF0FF39 		movls	r9, #-1
 5068              	.LVL404:
 5069              	.LBB1512:
 5070              	.LBI1503:
  42:../libs/PoliTeKDSP/libs/libDaisy/src/hid/disp/oled_display.h ****     {
 5071              		.loc 9 42 10 is_stmt 1 view .LVU1182
 5072              	.LBB1510:
 5073              	.LBI1504:
 361:Display/../../libs/PoliTeKDSP/libs/libDaisy/src/dev/oled_ssd130x.h ****     {
 5074              		.loc 11 361 10 view .LVU1183
 5075              	.LBB1508:
 363:Display/../../libs/PoliTeKDSP/libs/libDaisy/src/dev/oled_ssd130x.h ****             return;
 5076              		.loc 11 363 9 is_stmt 0 view .LVU1184
 5077 0218 BAF1000F 		cmp	r10, #0
 5078 021c 13D1     		bne	.L347
 5079 021e 039E     		ldr	r6, [sp, #12]
 5080 0220 8EB9     		cbnz	r6, .L347
 366:Display/../../libs/PoliTeKDSP/libs/libDaisy/src/dev/oled_ssd130x.h ****         else
 5081              		.loc 11 366 28 view .LVU1185
 5082 0222 E608     		lsrs	r6, r4, #3
 366:Display/../../libs/PoliTeKDSP/libs/libDaisy/src/dev/oled_ssd130x.h ****         else
ARM GAS  C:\Users\skipi\AppData\Local\Temp\ccpgF6Mp.s 			page 145


 5083              		.loc 11 366 42 view .LVU1186
 5084 0224 01EBC616 		add	r6, r1, r6, lsl #7
 5085 0228 0644     		add	r6, r6, r0
 365:Display/../../libs/PoliTeKDSP/libs/libDaisy/src/dev/oled_ssd130x.h ****             buffer_[x + (y / 8) * width] |= (1 << (y % 8));
 5086              		.loc 11 365 9 view .LVU1187
 5087 022a 002D     		cmp	r5, #0
 5088 022c 00F0D380 		beq	.L348
 366:Display/../../libs/PoliTeKDSP/libs/libDaisy/src/dev/oled_ssd130x.h ****         else
 5089              		.loc 11 366 48 view .LVU1188
 5090 0230 4FF0010C 		mov	ip, #1
 366:Display/../../libs/PoliTeKDSP/libs/libDaisy/src/dev/oled_ssd130x.h ****         else
 5091              		.loc 11 366 54 view .LVU1189
 5092 0234 04F00707 		and	r7, r4, #7
 366:Display/../../libs/PoliTeKDSP/libs/libDaisy/src/dev/oled_ssd130x.h ****         else
 5093              		.loc 11 366 48 view .LVU1190
 5094 0238 0CFA07F7 		lsl	r7, ip, r7
 366:Display/../../libs/PoliTeKDSP/libs/libDaisy/src/dev/oled_ssd130x.h ****         else
 5095              		.loc 11 366 42 view .LVU1191
 5096 023c 96F810C0 		ldrb	ip, [r6, #16]	@ zero_extendqisi2
 5097 0240 47EA0C07 		orr	r7, r7, ip
 5098 0244 3774     		strb	r7, [r6, #16]
 5099              	.L347:
 5100              	.LVL405:
 366:Display/../../libs/PoliTeKDSP/libs/libDaisy/src/dev/oled_ssd130x.h ****         else
 5101              		.loc 11 366 42 view .LVU1192
 5102              	.LBE1508:
 5103              	.LBE1510:
 5104              	.LBE1512:
 244:../libs/PoliTeKDSP/libs/libDaisy/src/hid/disp/display.h ****         {
 5105              		.loc 10 244 26 is_stmt 1 view .LVU1193
 5106 0246 049E     		ldr	r6, [sp, #16]
 5107 0248 26BB     		cbnz	r6, .L349
 232:../libs/PoliTeKDSP/libs/libDaisy/src/hid/disp/display.h ****         int_fast16_t deltaY = abs((int_fast16_t)y2 - (int_fast16_t)y1);
 5108              		.loc 10 232 22 is_stmt 0 view .LVU1194
 5109 024a 7746     		mov	r7, lr
 244:../libs/PoliTeKDSP/libs/libDaisy/src/hid/disp/display.h ****         {
 5110              		.loc 10 244 26 view .LVU1195
 5111 024c 2646     		mov	r6, r4
 5112              	.LVL406:
 5113              	.L350:
 5114              	.LBB1513:
 5115              	.LBI1513:
  42:../libs/PoliTeKDSP/libs/libDaisy/src/hid/disp/oled_display.h ****     {
 5116              		.loc 9 42 10 is_stmt 1 view .LVU1196
 5117              	.LBB1514:
 5118              	.LBI1514:
 361:Display/../../libs/PoliTeKDSP/libs/libDaisy/src/dev/oled_ssd130x.h ****     {
 5119              		.loc 11 361 10 view .LVU1197
 5120              	.LBB1515:
 363:Display/../../libs/PoliTeKDSP/libs/libDaisy/src/dev/oled_ssd130x.h ****             return;
 5121              		.loc 11 363 9 is_stmt 0 view .LVU1198
 5122 024e 7F2B     		cmp	r3, #127
 5123 0250 14D8     		bhi	.L352
 363:Display/../../libs/PoliTeKDSP/libs/libDaisy/src/dev/oled_ssd130x.h ****             return;
 5124              		.loc 11 363 9 view .LVU1199
 5125 0252 3F2E     		cmp	r6, #63
 5126 0254 12D8     		bhi	.L352
ARM GAS  C:\Users\skipi\AppData\Local\Temp\ccpgF6Mp.s 			page 146


 366:Display/../../libs/PoliTeKDSP/libs/libDaisy/src/dev/oled_ssd130x.h ****         else
 5127              		.loc 11 366 28 view .LVU1200
 5128 0256 4FEAD60C 		lsr	ip, r6, #3
 366:Display/../../libs/PoliTeKDSP/libs/libDaisy/src/dev/oled_ssd130x.h ****         else
 5129              		.loc 11 366 54 view .LVU1201
 5130 025a 06F0070B 		and	fp, r6, #7
 366:Display/../../libs/PoliTeKDSP/libs/libDaisy/src/dev/oled_ssd130x.h ****         else
 5131              		.loc 11 366 48 view .LVU1202
 5132 025e 4FF00108 		mov	r8, #1
 366:Display/../../libs/PoliTeKDSP/libs/libDaisy/src/dev/oled_ssd130x.h ****         else
 5133              		.loc 11 366 42 view .LVU1203
 5134 0262 03EBCC1C 		add	ip, r3, ip, lsl #7
 5135 0266 8444     		add	ip, ip, r0
 365:Display/../../libs/PoliTeKDSP/libs/libDaisy/src/dev/oled_ssd130x.h ****             buffer_[x + (y / 8) * width] |= (1 << (y % 8));
 5136              		.loc 11 365 9 view .LVU1204
 5137 0268 002D     		cmp	r5, #0
 5138 026a 73D0     		beq	.L353
 366:Display/../../libs/PoliTeKDSP/libs/libDaisy/src/dev/oled_ssd130x.h ****         else
 5139              		.loc 11 366 48 view .LVU1205
 5140 026c 08FA0BF8 		lsl	r8, r8, fp
 366:Display/../../libs/PoliTeKDSP/libs/libDaisy/src/dev/oled_ssd130x.h ****         else
 5141              		.loc 11 366 42 view .LVU1206
 5142 0270 9CF810B0 		ldrb	fp, [ip, #16]	@ zero_extendqisi2
 5143 0274 48EA0B08 		orr	r8, r8, fp
 5144 0278 8CF81080 		strb	r8, [ip, #16]
 5145              	.L352:
 5146              	.LVL407:
 366:Display/../../libs/PoliTeKDSP/libs/libDaisy/src/dev/oled_ssd130x.h ****         else
 5147              		.loc 11 366 42 view .LVU1207
 5148              	.LBE1515:
 5149              	.LBE1514:
 5150              	.LBE1513:
 248:../libs/PoliTeKDSP/libs/libDaisy/src/hid/disp/display.h ****             {
 5151              		.loc 10 248 13 view .LVU1208
 5152 027c 5FEA470C 		lsls	ip, r7, #1
 5153              	.LVL408:
 251:../libs/PoliTeKDSP/libs/libDaisy/src/hid/disp/display.h ****             }
 5154              		.loc 10 251 20 view .LVU1209
 5155 0280 18BF     		it	ne
 5156 0282 4B44     		addne	r3, r3, r9
 5157              	.LVL409:
 254:../libs/PoliTeKDSP/libs/libDaisy/src/hid/disp/display.h ****             {
 5158              		.loc 10 254 13 view .LVU1210
 5159 0284 E645     		cmp	lr, ip
 5160 0286 01DD     		ble	.L355
 256:../libs/PoliTeKDSP/libs/libDaisy/src/hid/disp/display.h ****                 y1 += signY;
 5161              		.loc 10 256 23 view .LVU1211
 5162 0288 7744     		add	r7, r7, lr
 5163              	.LVL410:
 257:../libs/PoliTeKDSP/libs/libDaisy/src/hid/disp/display.h ****             }
 5164              		.loc 10 257 20 view .LVU1212
 5165 028a 013E     		subs	r6, r6, #1
 5166              	.LVL411:
 5167              	.L355:
 244:../libs/PoliTeKDSP/libs/libDaisy/src/hid/disp/display.h ****         {
 5168              		.loc 10 244 26 is_stmt 1 view .LVU1213
 5169 028c 9942     		cmp	r1, r3
ARM GAS  C:\Users\skipi\AppData\Local\Temp\ccpgF6Mp.s 			page 147


 5170 028e DED1     		bne	.L350
 244:../libs/PoliTeKDSP/libs/libDaisy/src/hid/disp/display.h ****         {
 5171              		.loc 10 244 26 is_stmt 0 view .LVU1214
 5172 0290 B442     		cmp	r4, r6
 5173 0292 DCD1     		bne	.L350
 5174              	.LVL412:
 5175              	.L349:
 244:../libs/PoliTeKDSP/libs/libDaisy/src/hid/disp/display.h ****         {
 5176              		.loc 10 244 26 view .LVU1215
 5177              	.LBE1502:
 5178              	.LBE1501:
 5179              	.LBB1524:
 5180              	.LBI1524:
 226:../libs/PoliTeKDSP/libs/libDaisy/src/hid/disp/display.h ****                   uint_fast8_t y1,
 5181              		.loc 10 226 10 is_stmt 1 view .LVU1216
 5182              	.LBB1525:
 233:../libs/PoliTeKDSP/libs/libDaisy/src/hid/disp/display.h ****         int_fast16_t signX  = ((x1 < x2) ? 1 : -1);
 5183              		.loc 10 233 52 is_stmt 0 view .LVU1217
 5184 0294 A2EB040E 		sub	lr, r2, r4
 233:../libs/PoliTeKDSP/libs/libDaisy/src/hid/disp/display.h ****         int_fast16_t signX  = ((x1 < x2) ? 1 : -1);
 5185              		.loc 10 233 22 view .LVU1218
 5186 0298 BEF1000F 		cmp	lr, #0
 5187 029c B8BF     		it	lt
 5188 029e CEF1000E 		rsblt	lr, lr, #0
 5189              	.LVL413:
 235:../libs/PoliTeKDSP/libs/libDaisy/src/hid/disp/display.h ****         int_fast16_t error  = deltaX - deltaY;
 5190              		.loc 10 235 42 view .LVU1219
 5191 02a2 A242     		cmp	r2, r4
 5192 02a4 8CBF     		ite	hi
 5193 02a6 4FF00108 		movhi	r8, #1
 5194 02aa 4FF0FF38 		movls	r8, #-1
 5195              	.LVL414:
 236:../libs/PoliTeKDSP/libs/libDaisy/src/hid/disp/display.h ****         int_fast16_t error2;
 5196              		.loc 10 236 22 view .LVU1220
 5197 02ae CEF1000C 		rsb	ip, lr, #0
 5198              	.LVL415:
 5199              	.LBB1526:
 5200              	.LBI1526:
  42:../libs/PoliTeKDSP/libs/libDaisy/src/hid/disp/oled_display.h ****     {
 5201              		.loc 9 42 10 is_stmt 1 view .LVU1221
 5202              	.LBB1527:
 5203              	.LBI1527:
 361:Display/../../libs/PoliTeKDSP/libs/libDaisy/src/dev/oled_ssd130x.h ****     {
 5204              		.loc 11 361 10 view .LVU1222
 5205              	.LBB1528:
 363:Display/../../libs/PoliTeKDSP/libs/libDaisy/src/dev/oled_ssd130x.h ****             return;
 5206              		.loc 11 363 9 is_stmt 0 view .LVU1223
 5207 02b2 BAF1000F 		cmp	r10, #0
 5208 02b6 0ED1     		bne	.L357
 5209 02b8 029B     		ldr	r3, [sp, #8]
 5210 02ba 63B9     		cbnz	r3, .L357
 366:Display/../../libs/PoliTeKDSP/libs/libDaisy/src/dev/oled_ssd130x.h ****         else
 5211              		.loc 11 366 28 view .LVU1224
 5212 02bc D308     		lsrs	r3, r2, #3
 366:Display/../../libs/PoliTeKDSP/libs/libDaisy/src/dev/oled_ssd130x.h ****         else
 5213              		.loc 11 366 54 view .LVU1225
 5214 02be 02F00707 		and	r7, r2, #7
ARM GAS  C:\Users\skipi\AppData\Local\Temp\ccpgF6Mp.s 			page 148


 366:Display/../../libs/PoliTeKDSP/libs/libDaisy/src/dev/oled_ssd130x.h ****         else
 5215              		.loc 11 366 48 view .LVU1226
 5216 02c2 0126     		movs	r6, #1
 366:Display/../../libs/PoliTeKDSP/libs/libDaisy/src/dev/oled_ssd130x.h ****         else
 5217              		.loc 11 366 42 view .LVU1227
 5218 02c4 01EBC313 		add	r3, r1, r3, lsl #7
 5219 02c8 0344     		add	r3, r3, r0
 365:Display/../../libs/PoliTeKDSP/libs/libDaisy/src/dev/oled_ssd130x.h ****             buffer_[x + (y / 8) * width] |= (1 << (y % 8));
 5220              		.loc 11 365 9 view .LVU1228
 5221 02ca 002D     		cmp	r5, #0
 5222 02cc 7CD0     		beq	.L358
 366:Display/../../libs/PoliTeKDSP/libs/libDaisy/src/dev/oled_ssd130x.h ****         else
 5223              		.loc 11 366 48 view .LVU1229
 5224 02ce BE40     		lsls	r6, r6, r7
 366:Display/../../libs/PoliTeKDSP/libs/libDaisy/src/dev/oled_ssd130x.h ****         else
 5225              		.loc 11 366 42 view .LVU1230
 5226 02d0 1F7C     		ldrb	r7, [r3, #16]	@ zero_extendqisi2
 5227 02d2 3E43     		orrs	r6, r6, r7
 5228 02d4 1E74     		strb	r6, [r3, #16]
 5229              	.L357:
 5230              	.LVL416:
 366:Display/../../libs/PoliTeKDSP/libs/libDaisy/src/dev/oled_ssd130x.h ****         else
 5231              		.loc 11 366 42 view .LVU1231
 5232              	.LBE1528:
 5233              	.LBE1527:
 5234              	.LBE1526:
 244:../libs/PoliTeKDSP/libs/libDaisy/src/hid/disp/display.h ****         {
 5235              		.loc 10 244 26 is_stmt 1 view .LVU1232
 5236 02d6 019B     		ldr	r3, [sp, #4]
 5237 02d8 002B     		cmp	r3, #0
 5238 02da 7FF4CDAE 		bne	.L315
 5239 02de 6646     		mov	r6, ip
 5240 02e0 0B46     		mov	r3, r1
 5241              	.LVL417:
 5242              	.L359:
 5243              	.LBB1533:
 5244              	.LBI1533:
  42:../libs/PoliTeKDSP/libs/libDaisy/src/hid/disp/oled_display.h ****     {
 5245              		.loc 9 42 10 view .LVU1233
 5246              	.LBB1534:
 5247              	.LBI1534:
 361:Display/../../libs/PoliTeKDSP/libs/libDaisy/src/dev/oled_ssd130x.h ****     {
 5248              		.loc 11 361 10 view .LVU1234
 5249              	.LBB1535:
 363:Display/../../libs/PoliTeKDSP/libs/libDaisy/src/dev/oled_ssd130x.h ****             return;
 5250              		.loc 11 363 9 is_stmt 0 view .LVU1235
 5251 02e2 7F2B     		cmp	r3, #127
 5252 02e4 12D8     		bhi	.L361
 363:Display/../../libs/PoliTeKDSP/libs/libDaisy/src/dev/oled_ssd130x.h ****             return;
 5253              		.loc 11 363 9 view .LVU1236
 5254 02e6 3F2C     		cmp	r4, #63
 5255 02e8 10D8     		bhi	.L361
 366:Display/../../libs/PoliTeKDSP/libs/libDaisy/src/dev/oled_ssd130x.h ****         else
 5256              		.loc 11 366 28 view .LVU1237
 5257 02ea E708     		lsrs	r7, r4, #3
 366:Display/../../libs/PoliTeKDSP/libs/libDaisy/src/dev/oled_ssd130x.h ****         else
 5258              		.loc 11 366 54 view .LVU1238
ARM GAS  C:\Users\skipi\AppData\Local\Temp\ccpgF6Mp.s 			page 149


 5259 02ec 04F0070A 		and	r10, r4, #7
 366:Display/../../libs/PoliTeKDSP/libs/libDaisy/src/dev/oled_ssd130x.h ****         else
 5260              		.loc 11 366 48 view .LVU1239
 5261 02f0 4FF00109 		mov	r9, #1
 366:Display/../../libs/PoliTeKDSP/libs/libDaisy/src/dev/oled_ssd130x.h ****         else
 5262              		.loc 11 366 42 view .LVU1240
 5263 02f4 03EBC717 		add	r7, r3, r7, lsl #7
 5264 02f8 0744     		add	r7, r7, r0
 365:Display/../../libs/PoliTeKDSP/libs/libDaisy/src/dev/oled_ssd130x.h ****             buffer_[x + (y / 8) * width] |= (1 << (y % 8));
 5265              		.loc 11 365 9 view .LVU1241
 5266 02fa A5B3     		cbz	r5, .L362
 366:Display/../../libs/PoliTeKDSP/libs/libDaisy/src/dev/oled_ssd130x.h ****         else
 5267              		.loc 11 366 48 view .LVU1242
 5268 02fc 09FA0AF9 		lsl	r9, r9, r10
 366:Display/../../libs/PoliTeKDSP/libs/libDaisy/src/dev/oled_ssd130x.h ****         else
 5269              		.loc 11 366 42 view .LVU1243
 5270 0300 97F810A0 		ldrb	r10, [r7, #16]	@ zero_extendqisi2
 5271 0304 49EA0A09 		orr	r9, r9, r10
 5272 0308 87F81090 		strb	r9, [r7, #16]
 5273              	.L361:
 5274              	.LVL418:
 366:Display/../../libs/PoliTeKDSP/libs/libDaisy/src/dev/oled_ssd130x.h ****         else
 5275              		.loc 11 366 42 view .LVU1244
 5276              	.LBE1535:
 5277              	.LBE1534:
 5278              	.LBE1533:
 248:../libs/PoliTeKDSP/libs/libDaisy/src/hid/disp/display.h ****             {
 5279              		.loc 10 248 13 view .LVU1245
 5280 030c BCEB460F 		cmp	ip, r6, lsl #1
 247:../libs/PoliTeKDSP/libs/libDaisy/src/hid/disp/display.h ****             if(error2 > -deltaY)
 5281              		.loc 10 247 20 view .LVU1246
 5282 0310 4FEA4607 		lsl	r7, r6, #1
 5283              	.LVL419:
 248:../libs/PoliTeKDSP/libs/libDaisy/src/hid/disp/display.h ****             {
 5284              		.loc 10 248 13 view .LVU1247
 5285 0314 02DA     		bge	.L363
 250:../libs/PoliTeKDSP/libs/libDaisy/src/hid/disp/display.h ****                 x1 += signX;
 5286              		.loc 10 250 23 view .LVU1248
 5287 0316 A6EB0E06 		sub	r6, r6, lr
 5288              	.LVL420:
 251:../libs/PoliTeKDSP/libs/libDaisy/src/hid/disp/display.h ****             }
 5289              		.loc 10 251 20 view .LVU1249
 5290 031a 013B     		subs	r3, r3, #1
 5291              	.LVL421:
 5292              	.L363:
 254:../libs/PoliTeKDSP/libs/libDaisy/src/hid/disp/display.h ****             {
 5293              		.loc 10 254 13 view .LVU1250
 5294 031c 07B1     		cbz	r7, .L364
 257:../libs/PoliTeKDSP/libs/libDaisy/src/hid/disp/display.h ****             }
 5295              		.loc 10 257 20 view .LVU1251
 5296 031e 4444     		add	r4, r4, r8
 5297              	.LVL422:
 5298              	.L364:
 244:../libs/PoliTeKDSP/libs/libDaisy/src/hid/disp/display.h ****         {
 5299              		.loc 10 244 26 is_stmt 1 view .LVU1252
 5300 0320 9942     		cmp	r1, r3
 5301 0322 DED1     		bne	.L359
ARM GAS  C:\Users\skipi\AppData\Local\Temp\ccpgF6Mp.s 			page 150


 244:../libs/PoliTeKDSP/libs/libDaisy/src/hid/disp/display.h ****         {
 5302              		.loc 10 244 26 is_stmt 0 view .LVU1253
 5303 0324 A242     		cmp	r2, r4
 5304 0326 DCD1     		bne	.L359
 5305              	.LBE1525:
 5306              	.LBE1524:
 5307              	.LBE1577:
 286:../libs/PoliTeKDSP/libs/libDaisy/src/hid/disp/display.h **** 
 5308              		.loc 10 286 5 view .LVU1254
 5309 0328 07B0     		add	sp, sp, #28
 5310              		.cfi_remember_state
 5311              		.cfi_def_cfa_offset 36
 5312              		@ sp needed
 5313 032a BDE8F08F 		pop	{r4, r5, r6, r7, r8, r9, r10, fp, pc}
 5314              	.LVL423:
 5315              	.L324:
 5316              		.cfi_restore_state
 5317              	.LBB1578:
 5318              	.LBB1544:
 5319              	.LBB1461:
 5320              	.LBB1457:
  42:../libs/PoliTeKDSP/libs/libDaisy/src/hid/disp/oled_display.h ****     {
 5321              		.loc 9 42 10 is_stmt 1 view .LVU1255
 5322              	.LBB1446:
 361:Display/../../libs/PoliTeKDSP/libs/libDaisy/src/dev/oled_ssd130x.h ****     {
 5323              		.loc 11 361 10 view .LVU1256
 5324              	.LBB1442:
 363:Display/../../libs/PoliTeKDSP/libs/libDaisy/src/dev/oled_ssd130x.h ****             return;
 5325              		.loc 11 363 28 is_stmt 0 view .LVU1257
 5326 032e 3F2A     		cmp	r2, #63
 5327              	.LBE1442:
 5328              	.LBE1446:
 5329              	.LBE1457:
 234:../libs/PoliTeKDSP/libs/libDaisy/src/hid/disp/display.h ****         int_fast16_t signY  = ((y1 < y2) ? 1 : -1);
 5330              		.loc 10 234 42 view .LVU1258
 5331 0330 4FF0010A 		mov	r10, #1
 5332              	.LBB1458:
 5333              	.LBB1447:
 5334              	.LBB1443:
 363:Display/../../libs/PoliTeKDSP/libs/libDaisy/src/dev/oled_ssd130x.h ****             return;
 5335              		.loc 11 363 28 view .LVU1259
 5336 0334 94BF     		ite	ls
 5337 0336 0026     		movls	r6, #0
 5338 0338 0126     		movhi	r6, #1
 363:Display/../../libs/PoliTeKDSP/libs/libDaisy/src/dev/oled_ssd130x.h ****             return;
 5339              		.loc 11 363 14 view .LVU1260
 5340 033a 7F2B     		cmp	r3, #127
 363:Display/../../libs/PoliTeKDSP/libs/libDaisy/src/dev/oled_ssd130x.h ****             return;
 5341              		.loc 11 363 28 view .LVU1261
 5342 033c 0296     		str	r6, [sp, #8]
 363:Display/../../libs/PoliTeKDSP/libs/libDaisy/src/dev/oled_ssd130x.h ****             return;
 5343              		.loc 11 363 14 view .LVU1262
 5344 033e 94BF     		ite	ls
 5345 0340 0027     		movls	r7, #0
 5346 0342 0127     		movhi	r7, #1
 5347 0344 0097     		str	r7, [sp]
 363:Display/../../libs/PoliTeKDSP/libs/libDaisy/src/dev/oled_ssd130x.h ****             return;
ARM GAS  C:\Users\skipi\AppData\Local\Temp\ccpgF6Mp.s 			page 151


 5348              		.loc 11 363 9 view .LVU1263
 5349 0346 002E     		cmp	r6, #0
 5350 0348 7FF4C8AE 		bne	.L328
 5351 034c 002F     		cmp	r7, #0
 5352 034e 3FF4AEAE 		beq	.L366
 5353 0352 C3E6     		b	.L328
 5354              	.LVL424:
 5355              	.L353:
 363:Display/../../libs/PoliTeKDSP/libs/libDaisy/src/dev/oled_ssd130x.h ****             return;
 5356              		.loc 11 363 9 view .LVU1264
 5357              	.LBE1443:
 5358              	.LBE1447:
 5359              	.LBE1458:
 5360              	.LBE1461:
 5361              	.LBE1544:
 5362              	.LBB1545:
 5363              	.LBB1522:
 5364              	.LBB1520:
 5365              	.LBB1519:
 5366              	.LBB1518:
 5367              	.LBB1516:
 5368              	.LBI1516:
 361:Display/../../libs/PoliTeKDSP/libs/libDaisy/src/dev/oled_ssd130x.h ****     {
 5369              		.loc 11 361 10 is_stmt 1 view .LVU1265
 5370              	.LBB1517:
 368:Display/../../libs/PoliTeKDSP/libs/libDaisy/src/dev/oled_ssd130x.h ****     }
 5371              		.loc 11 368 49 is_stmt 0 view .LVU1266
 5372 0354 08FA0BFB 		lsl	fp, r8, fp
 368:Display/../../libs/PoliTeKDSP/libs/libDaisy/src/dev/oled_ssd130x.h ****     }
 5373              		.loc 11 368 42 view .LVU1267
 5374 0358 9CF81080 		ldrb	r8, [ip, #16]	@ zero_extendqisi2
 5375 035c 28EA0B08 		bic	r8, r8, fp
 5376 0360 8CF81080 		strb	r8, [ip, #16]
 5377 0364 8AE7     		b	.L352
 5378              	.LVL425:
 5379              	.L362:
 368:Display/../../libs/PoliTeKDSP/libs/libDaisy/src/dev/oled_ssd130x.h ****     }
 5380              		.loc 11 368 42 view .LVU1268
 5381              	.LBE1517:
 5382              	.LBE1516:
 5383              	.LBE1518:
 5384              	.LBE1519:
 5385              	.LBE1520:
 5386              	.LBE1522:
 5387              	.LBE1545:
 5388              	.LBB1546:
 5389              	.LBB1542:
 5390              	.LBB1540:
 5391              	.LBB1539:
 5392              	.LBB1538:
 5393              	.LBB1536:
 5394              	.LBI1536:
 361:Display/../../libs/PoliTeKDSP/libs/libDaisy/src/dev/oled_ssd130x.h ****     {
 5395              		.loc 11 361 10 is_stmt 1 view .LVU1269
 5396              	.LBB1537:
 368:Display/../../libs/PoliTeKDSP/libs/libDaisy/src/dev/oled_ssd130x.h ****     }
 5397              		.loc 11 368 49 is_stmt 0 view .LVU1270
ARM GAS  C:\Users\skipi\AppData\Local\Temp\ccpgF6Mp.s 			page 152


 5398 0366 09FA0AFA 		lsl	r10, r9, r10
 368:Display/../../libs/PoliTeKDSP/libs/libDaisy/src/dev/oled_ssd130x.h ****     }
 5399              		.loc 11 368 42 view .LVU1271
 5400 036a 97F81090 		ldrb	r9, [r7, #16]	@ zero_extendqisi2
 5401 036e 29EA0A09 		bic	r9, r9, r10
 5402 0372 87F81090 		strb	r9, [r7, #16]
 5403 0376 C9E7     		b	.L361
 5404              	.LVL426:
 5405              	.L332:
 368:Display/../../libs/PoliTeKDSP/libs/libDaisy/src/dev/oled_ssd130x.h ****     }
 5406              		.loc 11 368 42 view .LVU1272
 5407              	.LBE1537:
 5408              	.LBE1536:
 5409              	.LBE1538:
 5410              	.LBE1539:
 5411              	.LBE1540:
 5412              	.LBE1542:
 5413              	.LBE1546:
 5414              	.LBB1547:
 5415              	.LBB1462:
 5416              	.LBB1459:
 5417              	.LBB1456:
 5418              	.LBB1455:
 5419              	.LBB1453:
 5420              	.LBI1453:
 361:Display/../../libs/PoliTeKDSP/libs/libDaisy/src/dev/oled_ssd130x.h ****     {
 5421              		.loc 11 361 10 is_stmt 1 view .LVU1273
 5422              	.LBB1454:
 368:Display/../../libs/PoliTeKDSP/libs/libDaisy/src/dev/oled_ssd130x.h ****     }
 5423              		.loc 11 368 49 is_stmt 0 view .LVU1274
 5424 0378 09FA0BFB 		lsl	fp, r9, fp
 368:Display/../../libs/PoliTeKDSP/libs/libDaisy/src/dev/oled_ssd130x.h ****     }
 5425              		.loc 11 368 42 view .LVU1275
 5426 037c 97F81090 		ldrb	r9, [r7, #16]	@ zero_extendqisi2
 5427 0380 29EA0B09 		bic	r9, r9, fp
 5428 0384 87F81090 		strb	r9, [r7, #16]
 5429 0388 C5E6     		b	.L331
 5430              	.LVL427:
 5431              	.L343:
 368:Display/../../libs/PoliTeKDSP/libs/libDaisy/src/dev/oled_ssd130x.h ****     }
 5432              		.loc 11 368 42 view .LVU1276
 5433              	.LBE1454:
 5434              	.LBE1453:
 5435              	.LBE1455:
 5436              	.LBE1456:
 5437              	.LBE1459:
 5438              	.LBE1462:
 5439              	.LBE1547:
 5440              	.LBB1548:
 5441              	.LBB1498:
 5442              	.LBB1495:
 5443              	.LBB1494:
 5444              	.LBB1493:
 5445              	.LBB1491:
 5446              	.LBI1491:
 361:Display/../../libs/PoliTeKDSP/libs/libDaisy/src/dev/oled_ssd130x.h ****     {
 5447              		.loc 11 361 10 is_stmt 1 view .LVU1277
ARM GAS  C:\Users\skipi\AppData\Local\Temp\ccpgF6Mp.s 			page 153


 5448              	.LBB1492:
 368:Display/../../libs/PoliTeKDSP/libs/libDaisy/src/dev/oled_ssd130x.h ****     }
 5449              		.loc 11 368 49 is_stmt 0 view .LVU1278
 5450 038a 0AFA0BFB 		lsl	fp, r10, fp
 368:Display/../../libs/PoliTeKDSP/libs/libDaisy/src/dev/oled_ssd130x.h ****     }
 5451              		.loc 11 368 42 view .LVU1279
 5452 038e 9EF810A0 		ldrb	r10, [lr, #16]	@ zero_extendqisi2
 5453 0392 2AEA0B0A 		bic	r10, r10, fp
 5454 0396 8EF810A0 		strb	r10, [lr, #16]
 5455 039a 18E7     		b	.L342
 5456              	.LVL428:
 5457              	.L335:
 368:Display/../../libs/PoliTeKDSP/libs/libDaisy/src/dev/oled_ssd130x.h ****     }
 5458              		.loc 11 368 42 view .LVU1280
 5459              	.LBE1492:
 5460              	.LBE1491:
 5461              	.LBE1493:
 5462              	.LBE1494:
 5463              	.LBE1495:
 5464              	.LBB1496:
 5465              	.LBB1482:
 5466              	.LBB1476:
 363:Display/../../libs/PoliTeKDSP/libs/libDaisy/src/dev/oled_ssd130x.h ****             return;
 5467              		.loc 11 363 9 view .LVU1281
 5468 039c 97BB     		cbnz	r7, .L374
 5469 039e 8EBB     		cbnz	r6, .L374
 5470              	.LBE1476:
 5471              	.LBE1482:
 5472              	.LBE1496:
 235:../libs/PoliTeKDSP/libs/libDaisy/src/hid/disp/display.h ****         int_fast16_t error  = deltaX - deltaY;
 5473              		.loc 10 235 42 view .LVU1282
 5474 03a0 0126     		movs	r6, #1
 5475 03a2 0096     		str	r6, [sp]
 5476              	.LBB1497:
 5477              	.LBB1483:
 5478              	.LBB1477:
 366:Display/../../libs/PoliTeKDSP/libs/libDaisy/src/dev/oled_ssd130x.h ****         else
 5479              		.loc 11 366 28 view .LVU1283
 5480 03a4 E608     		lsrs	r6, r4, #3
 366:Display/../../libs/PoliTeKDSP/libs/libDaisy/src/dev/oled_ssd130x.h ****         else
 5481              		.loc 11 366 42 view .LVU1284
 5482 03a6 03EBC616 		add	r6, r3, r6, lsl #7
 5483 03aa 0644     		add	r6, r6, r0
 365:Display/../../libs/PoliTeKDSP/libs/libDaisy/src/dev/oled_ssd130x.h ****             buffer_[x + (y / 8) * width] |= (1 << (y % 8));
 5484              		.loc 11 365 9 view .LVU1285
 5485 03ac 002D     		cmp	r5, #0
 5486 03ae 7FF4E2AE 		bne	.L409
 5487              	.LVL429:
 5488              	.L337:
 5489              	.LBB1470:
 5490              	.LBI1470:
 361:Display/../../libs/PoliTeKDSP/libs/libDaisy/src/dev/oled_ssd130x.h ****     {
 5491              		.loc 11 361 10 is_stmt 1 view .LVU1286
 5492              	.LBB1471:
 368:Display/../../libs/PoliTeKDSP/libs/libDaisy/src/dev/oled_ssd130x.h ****     }
 5493              		.loc 11 368 49 is_stmt 0 view .LVU1287
 5494 03b2 0127     		movs	r7, #1
ARM GAS  C:\Users\skipi\AppData\Local\Temp\ccpgF6Mp.s 			page 154


 368:Display/../../libs/PoliTeKDSP/libs/libDaisy/src/dev/oled_ssd130x.h ****     }
 5495              		.loc 11 368 55 view .LVU1288
 5496 03b4 04F0070C 		and	ip, r4, #7
 368:Display/../../libs/PoliTeKDSP/libs/libDaisy/src/dev/oled_ssd130x.h ****     }
 5497              		.loc 11 368 42 view .LVU1289
 5498 03b8 0395     		str	r5, [sp, #12]
 368:Display/../../libs/PoliTeKDSP/libs/libDaisy/src/dev/oled_ssd130x.h ****     }
 5499              		.loc 11 368 49 view .LVU1290
 5500 03ba 07FA0CFC 		lsl	ip, r7, ip
 368:Display/../../libs/PoliTeKDSP/libs/libDaisy/src/dev/oled_ssd130x.h ****     }
 5501              		.loc 11 368 42 view .LVU1291
 5502 03be 377C     		ldrb	r7, [r6, #16]	@ zero_extendqisi2
 5503 03c0 27EA0C07 		bic	r7, r7, ip
 5504 03c4 3774     		strb	r7, [r6, #16]
 5505 03c6 E3E6     		b	.L336
 5506              	.LVL430:
 5507              	.L358:
 368:Display/../../libs/PoliTeKDSP/libs/libDaisy/src/dev/oled_ssd130x.h ****     }
 5508              		.loc 11 368 42 view .LVU1292
 5509              	.LBE1471:
 5510              	.LBE1470:
 5511              	.LBE1477:
 5512              	.LBE1483:
 5513              	.LBE1497:
 5514              	.LBE1498:
 5515              	.LBE1548:
 5516              	.LBB1549:
 5517              	.LBB1543:
 5518              	.LBB1541:
 5519              	.LBB1532:
 5520              	.LBB1531:
 5521              	.LBB1529:
 5522              	.LBI1529:
 361:Display/../../libs/PoliTeKDSP/libs/libDaisy/src/dev/oled_ssd130x.h ****     {
 5523              		.loc 11 361 10 is_stmt 1 view .LVU1293
 5524              	.LBB1530:
 368:Display/../../libs/PoliTeKDSP/libs/libDaisy/src/dev/oled_ssd130x.h ****     }
 5525              		.loc 11 368 49 is_stmt 0 view .LVU1294
 5526 03c8 06FA07F7 		lsl	r7, r6, r7
 368:Display/../../libs/PoliTeKDSP/libs/libDaisy/src/dev/oled_ssd130x.h ****     }
 5527              		.loc 11 368 42 view .LVU1295
 5528 03cc 1E7C     		ldrb	r6, [r3, #16]	@ zero_extendqisi2
 5529 03ce 26EA0706 		bic	r6, r6, r7
 5530 03d2 1E74     		strb	r6, [r3, #16]
 5531 03d4 7FE7     		b	.L357
 5532              	.LVL431:
 5533              	.L348:
 368:Display/../../libs/PoliTeKDSP/libs/libDaisy/src/dev/oled_ssd130x.h ****     }
 5534              		.loc 11 368 42 view .LVU1296
 5535              	.LBE1530:
 5536              	.LBE1529:
 5537              	.LBE1531:
 5538              	.LBE1532:
 5539              	.LBE1541:
 5540              	.LBE1543:
 5541              	.LBE1549:
 5542              	.LBB1550:
ARM GAS  C:\Users\skipi\AppData\Local\Temp\ccpgF6Mp.s 			page 155


 5543              	.LBB1523:
 5544              	.LBB1521:
 5545              	.LBB1511:
 5546              	.LBB1509:
 5547              	.LBB1506:
 5548              	.LBI1506:
 361:Display/../../libs/PoliTeKDSP/libs/libDaisy/src/dev/oled_ssd130x.h ****     {
 5549              		.loc 11 361 10 is_stmt 1 view .LVU1297
 5550              	.LBB1507:
 368:Display/../../libs/PoliTeKDSP/libs/libDaisy/src/dev/oled_ssd130x.h ****     }
 5551              		.loc 11 368 49 is_stmt 0 view .LVU1298
 5552 03d6 0127     		movs	r7, #1
 368:Display/../../libs/PoliTeKDSP/libs/libDaisy/src/dev/oled_ssd130x.h ****     }
 5553              		.loc 11 368 55 view .LVU1299
 5554 03d8 04F0070C 		and	ip, r4, #7
 368:Display/../../libs/PoliTeKDSP/libs/libDaisy/src/dev/oled_ssd130x.h ****     }
 5555              		.loc 11 368 49 view .LVU1300
 5556 03dc 07FA0CFC 		lsl	ip, r7, ip
 368:Display/../../libs/PoliTeKDSP/libs/libDaisy/src/dev/oled_ssd130x.h ****     }
 5557              		.loc 11 368 42 view .LVU1301
 5558 03e0 377C     		ldrb	r7, [r6, #16]	@ zero_extendqisi2
 5559 03e2 27EA0C07 		bic	r7, r7, ip
 5560 03e6 3774     		strb	r7, [r6, #16]
 5561 03e8 2DE7     		b	.L347
 5562              	.LVL432:
 5563              	.L326:
 368:Display/../../libs/PoliTeKDSP/libs/libDaisy/src/dev/oled_ssd130x.h ****     }
 5564              		.loc 11 368 42 view .LVU1302
 5565              	.LBE1507:
 5566              	.LBE1506:
 5567              	.LBE1509:
 5568              	.LBE1511:
 5569              	.LBE1521:
 5570              	.LBE1523:
 5571              	.LBE1550:
 5572              	.LBB1551:
 5573              	.LBB1463:
 5574              	.LBB1460:
 5575              	.LBB1448:
 5576              	.LBB1444:
 5577              	.LBB1439:
 5578              	.LBI1439:
 361:Display/../../libs/PoliTeKDSP/libs/libDaisy/src/dev/oled_ssd130x.h ****     {
 5579              		.loc 11 361 10 is_stmt 1 view .LVU1303
 5580              	.LBB1440:
 368:Display/../../libs/PoliTeKDSP/libs/libDaisy/src/dev/oled_ssd130x.h ****     }
 5581              		.loc 11 368 49 is_stmt 0 view .LVU1304
 5582 03ea 07FA0CFC 		lsl	ip, r7, ip
 368:Display/../../libs/PoliTeKDSP/libs/libDaisy/src/dev/oled_ssd130x.h ****     }
 5583              		.loc 11 368 42 view .LVU1305
 5584 03ee 377C     		ldrb	r7, [r6, #16]	@ zero_extendqisi2
 5585 03f0 0295     		str	r5, [sp, #8]
 5586 03f2 27EA0C07 		bic	r7, r7, ip
 5587 03f6 0095     		str	r5, [sp]
 5588 03f8 3774     		strb	r7, [r6, #16]
 5589 03fa 6CE6     		b	.L325
 5590              	.LVL433:
ARM GAS  C:\Users\skipi\AppData\Local\Temp\ccpgF6Mp.s 			page 156


 5591              	.L370:
 368:Display/../../libs/PoliTeKDSP/libs/libDaisy/src/dev/oled_ssd130x.h ****     }
 5592              		.loc 11 368 42 view .LVU1306
 5593              	.LBE1440:
 5594              	.LBE1439:
 5595              	.LBE1444:
 5596              	.LBE1448:
 5597              	.LBE1460:
 5598              	.LBE1463:
 5599              	.LBE1551:
 5600              	.LBB1552:
 5601              	.LBB1499:
 235:../libs/PoliTeKDSP/libs/libDaisy/src/hid/disp/display.h ****         int_fast16_t error  = deltaX - deltaY;
 5602              		.loc 10 235 42 view .LVU1307
 5603 03fc 4FF0FF36 		mov	r6, #-1
 5604 0400 0096     		str	r6, [sp]
 5605 0402 C5E6     		b	.L336
 5606              	.LVL434:
 5607              	.L374:
 235:../libs/PoliTeKDSP/libs/libDaisy/src/hid/disp/display.h ****         int_fast16_t error  = deltaX - deltaY;
 5608              		.loc 10 235 42 view .LVU1308
 5609 0404 0126     		movs	r6, #1
 5610 0406 0096     		str	r6, [sp]
 5611 0408 C5E6     		b	.L339
 5612              	.LVL435:
 5613              	.L407:
 235:../libs/PoliTeKDSP/libs/libDaisy/src/hid/disp/display.h ****         int_fast16_t error  = deltaX - deltaY;
 5614              		.loc 10 235 42 view .LVU1309
 5615              	.LBE1499:
 5616              	.LBE1552:
 5617              	.LBB1553:
 5618              	.LBB1464:
 244:../libs/PoliTeKDSP/libs/libDaisy/src/hid/disp/display.h ****         {
 5619              		.loc 10 244 19 view .LVU1310
 5620 040a 0126     		movs	r6, #1
 5621 040c 0496     		str	r6, [sp, #16]
 5622 040e 90E6     		b	.L327
 5623              	.LVL436:
 5624              	.L408:
 244:../libs/PoliTeKDSP/libs/libDaisy/src/hid/disp/display.h ****         {
 5625              		.loc 10 244 19 view .LVU1311
 5626              	.LBE1464:
 5627              	.LBE1553:
 5628              	.LBB1554:
 5629              	.LBB1500:
 244:../libs/PoliTeKDSP/libs/libDaisy/src/hid/disp/display.h ****         {
 5630              		.loc 10 244 33 view .LVU1312
 5631 0410 0126     		movs	r6, #1
 5632 0412 0196     		str	r6, [sp, #4]
 5633 0414 EDE6     		b	.L338
 5634              	.LBE1500:
 5635              	.LBE1554:
 5636              	.LBE1578:
 5637              		.cfi_endproc
 5638              	.LFE5720:
 5640 0416 00BF     		.section	.text._ZN5daisy13SSD130xDriverILj128ELj64ENS_19SSD130xI2CTransportEE4InitENS2_6ConfigE,"a
 5641              		.align	1
ARM GAS  C:\Users\skipi\AppData\Local\Temp\ccpgF6Mp.s 			page 157


 5642              		.p2align 2,,3
 5643              		.weak	_ZN5daisy13SSD130xDriverILj128ELj64ENS_19SSD130xI2CTransportEE4InitENS2_6ConfigE
 5644              		.syntax unified
 5645              		.thumb
 5646              		.thumb_func
 5647              		.fpu fpv5-d16
 5649              	_ZN5daisy13SSD130xDriverILj128ELj64ENS_19SSD130xI2CTransportEE4InitENS2_6ConfigE:
 5650              	.LVL437:
 5651              	.LFB5566:
 262:Display/../../libs/PoliTeKDSP/libs/libDaisy/src/dev/oled_ssd130x.h ****     {
 5652              		.loc 11 262 10 is_stmt 1 view -0
 5653              		.cfi_startproc
 5654              		@ args = 28, pretend = 16, frame = 8
 5655              		@ frame_needed = 0, uses_anonymous_args = 0
 262:Display/../../libs/PoliTeKDSP/libs/libDaisy/src/dev/oled_ssd130x.h ****     {
 5656              		.loc 11 262 10 is_stmt 0 view .LVU1314
 5657 0000 84B0     		sub	sp, sp, #16
 5658              		.cfi_def_cfa_offset 16
 5659 0002 70B5     		push	{r4, r5, r6, lr}
 5660              		.cfi_def_cfa_offset 32
 5661              		.cfi_offset 4, -32
 5662              		.cfi_offset 5, -28
 5663              		.cfi_offset 6, -24
 5664              		.cfi_offset 14, -20
 5665 0004 84B0     		sub	sp, sp, #16
 5666              		.cfi_def_cfa_offset 48
 262:Display/../../libs/PoliTeKDSP/libs/libDaisy/src/dev/oled_ssd130x.h ****     {
 5667              		.loc 11 262 10 view .LVU1315
 5668 0006 0446     		mov	r4, r0
 5669              	.LVL438:
 5670              	.LBB1627:
 5671              	.LBI1627:
  38:Display/../../libs/PoliTeKDSP/libs/libDaisy/src/dev/oled_ssd130x.h ****     {
 5672              		.loc 11 38 10 is_stmt 1 view .LVU1316
 5673              	.LBB1628:
  40:Display/../../libs/PoliTeKDSP/libs/libDaisy/src/dev/oled_ssd130x.h ****         i2c_.Init(config.i2c_config);
 5674              		.loc 11 40 9 view .LVU1317
 5675              	.LBE1628:
 5676              	.LBE1627:
 5677              	.LBB1631:
 5678              	.LBB1632:
  46:Display/../../libs/PoliTeKDSP/libs/libDaisy/src/dev/oled_ssd130x.h ****     };
 5679              		.loc 11 46 30 is_stmt 0 view .LVU1318
 5680 0008 4FF47A76 		mov	r6, #1000
 5681              	.LBE1632:
 5682              	.LBE1631:
 262:Display/../../libs/PoliTeKDSP/libs/libDaisy/src/dev/oled_ssd130x.h ****     {
 5683              		.loc 11 262 10 view .LVU1319
 5684 000c 09AD     		add	r5, sp, #36
 5685 000e 85E80E00 		stm	r5, {r1, r2, r3}
 5686              	.LBB1635:
 5687              	.LBB1629:
  40:Display/../../libs/PoliTeKDSP/libs/libDaisy/src/dev/oled_ssd130x.h ****         i2c_.Init(config.i2c_config);
 5688              		.loc 11 40 22 view .LVU1320
 5689 0012 9DF83830 		ldrb	r3, [sp, #56]	@ zero_extendqisi2
  41:Display/../../libs/PoliTeKDSP/libs/libDaisy/src/dev/oled_ssd130x.h ****     };
 5690              		.loc 11 41 18 view .LVU1321
ARM GAS  C:\Users\skipi\AppData\Local\Temp\ccpgF6Mp.s 			page 158


 5691 0016 2946     		mov	r1, r5
 5692              	.LBE1629:
 5693              	.LBE1635:
 5694              	.LBB1636:
 5695              	.LBB1633:
  45:Display/../../libs/PoliTeKDSP/libs/libDaisy/src/dev/oled_ssd130x.h ****         i2c_.TransmitBlocking(i2c_address_, buf, 2, 1000);
 5696              		.loc 11 45 17 view .LVU1322
 5697 0018 0025     		movs	r5, #0
 5698              	.LBE1633:
 5699              	.LBE1636:
 5700              	.LBB1637:
 5701              	.LBB1630:
  40:Display/../../libs/PoliTeKDSP/libs/libDaisy/src/dev/oled_ssd130x.h ****         i2c_.Init(config.i2c_config);
 5702              		.loc 11 40 22 view .LVU1323
 5703 001a 0371     		strb	r3, [r0, #4]
  41:Display/../../libs/PoliTeKDSP/libs/libDaisy/src/dev/oled_ssd130x.h ****     };
 5704              		.loc 11 41 9 is_stmt 1 view .LVU1324
  41:Display/../../libs/PoliTeKDSP/libs/libDaisy/src/dev/oled_ssd130x.h ****     };
 5705              		.loc 11 41 18 is_stmt 0 view .LVU1325
 5706 001c FFF7FEFF 		bl	_ZN5daisy9I2CHandle4InitERKNS0_6ConfigE
 5707              	.LVL439:
  41:Display/../../libs/PoliTeKDSP/libs/libDaisy/src/dev/oled_ssd130x.h ****     };
 5708              		.loc 11 41 18 view .LVU1326
 5709              	.LBE1630:
 5710              	.LBE1637:
 5711              	.LBB1638:
 5712              	.LBI1631:
  43:Display/../../libs/PoliTeKDSP/libs/libDaisy/src/dev/oled_ssd130x.h ****     {
 5713              		.loc 11 43 10 is_stmt 1 view .LVU1327
 5714              	.LBB1634:
  45:Display/../../libs/PoliTeKDSP/libs/libDaisy/src/dev/oled_ssd130x.h ****         i2c_.TransmitBlocking(i2c_address_, buf, 2, 1000);
 5715              		.loc 11 45 9 view .LVU1328
  45:Display/../../libs/PoliTeKDSP/libs/libDaisy/src/dev/oled_ssd130x.h ****         i2c_.TransmitBlocking(i2c_address_, buf, 2, 1000);
 5716              		.loc 11 45 36 is_stmt 0 view .LVU1329
 5717 0020 AE23     		movs	r3, #174
  46:Display/../../libs/PoliTeKDSP/libs/libDaisy/src/dev/oled_ssd130x.h ****     };
 5718              		.loc 11 46 30 view .LVU1330
 5719 0022 03AA     		add	r2, sp, #12
 5720 0024 0096     		str	r6, [sp]
  45:Display/../../libs/PoliTeKDSP/libs/libDaisy/src/dev/oled_ssd130x.h ****         i2c_.TransmitBlocking(i2c_address_, buf, 2, 1000);
 5721              		.loc 11 45 36 view .LVU1331
 5722 0026 8DF80D30 		strb	r3, [sp, #13]
  46:Display/../../libs/PoliTeKDSP/libs/libDaisy/src/dev/oled_ssd130x.h ****     };
 5723              		.loc 11 46 9 is_stmt 1 view .LVU1332
  46:Display/../../libs/PoliTeKDSP/libs/libDaisy/src/dev/oled_ssd130x.h ****     };
 5724              		.loc 11 46 30 is_stmt 0 view .LVU1333
 5725 002a 2046     		mov	r0, r4
 5726 002c 2179     		ldrb	r1, [r4, #4]	@ zero_extendqisi2
 5727 002e 0223     		movs	r3, #2
  45:Display/../../libs/PoliTeKDSP/libs/libDaisy/src/dev/oled_ssd130x.h ****         i2c_.TransmitBlocking(i2c_address_, buf, 2, 1000);
 5728              		.loc 11 45 17 view .LVU1334
 5729 0030 8DF80C50 		strb	r5, [sp, #12]
  46:Display/../../libs/PoliTeKDSP/libs/libDaisy/src/dev/oled_ssd130x.h ****     };
 5730              		.loc 11 46 30 view .LVU1335
 5731 0034 FFF7FEFF 		bl	_ZN5daisy9I2CHandle16TransmitBlockingEtPhtm
 5732              	.LVL440:
  46:Display/../../libs/PoliTeKDSP/libs/libDaisy/src/dev/oled_ssd130x.h ****     };
ARM GAS  C:\Users\skipi\AppData\Local\Temp\ccpgF6Mp.s 			page 159


 5733              		.loc 11 46 30 view .LVU1336
 5734              	.LBE1634:
 5735              	.LBE1638:
 5736              	.LBB1639:
 5737              	.LBI1639:
  43:Display/../../libs/PoliTeKDSP/libs/libDaisy/src/dev/oled_ssd130x.h ****     {
 5738              		.loc 11 43 10 is_stmt 1 view .LVU1337
 5739              	.LBB1640:
  45:Display/../../libs/PoliTeKDSP/libs/libDaisy/src/dev/oled_ssd130x.h ****         i2c_.TransmitBlocking(i2c_address_, buf, 2, 1000);
 5740              		.loc 11 45 9 view .LVU1338
  45:Display/../../libs/PoliTeKDSP/libs/libDaisy/src/dev/oled_ssd130x.h ****         i2c_.TransmitBlocking(i2c_address_, buf, 2, 1000);
 5741              		.loc 11 45 36 is_stmt 0 view .LVU1339
 5742 0038 D523     		movs	r3, #213
  46:Display/../../libs/PoliTeKDSP/libs/libDaisy/src/dev/oled_ssd130x.h ****     };
 5743              		.loc 11 46 30 view .LVU1340
 5744 003a 03AA     		add	r2, sp, #12
 5745 003c 0096     		str	r6, [sp]
 5746 003e 2046     		mov	r0, r4
 5747 0040 2179     		ldrb	r1, [r4, #4]	@ zero_extendqisi2
  45:Display/../../libs/PoliTeKDSP/libs/libDaisy/src/dev/oled_ssd130x.h ****         i2c_.TransmitBlocking(i2c_address_, buf, 2, 1000);
 5748              		.loc 11 45 36 view .LVU1341
 5749 0042 8DF80D30 		strb	r3, [sp, #13]
  46:Display/../../libs/PoliTeKDSP/libs/libDaisy/src/dev/oled_ssd130x.h ****     };
 5750              		.loc 11 46 9 is_stmt 1 view .LVU1342
  46:Display/../../libs/PoliTeKDSP/libs/libDaisy/src/dev/oled_ssd130x.h ****     };
 5751              		.loc 11 46 30 is_stmt 0 view .LVU1343
 5752 0046 0223     		movs	r3, #2
  45:Display/../../libs/PoliTeKDSP/libs/libDaisy/src/dev/oled_ssd130x.h ****         i2c_.TransmitBlocking(i2c_address_, buf, 2, 1000);
 5753              		.loc 11 45 17 view .LVU1344
 5754 0048 8DF80C50 		strb	r5, [sp, #12]
  46:Display/../../libs/PoliTeKDSP/libs/libDaisy/src/dev/oled_ssd130x.h ****     };
 5755              		.loc 11 46 30 view .LVU1345
 5756 004c FFF7FEFF 		bl	_ZN5daisy9I2CHandle16TransmitBlockingEtPhtm
 5757              	.LVL441:
  46:Display/../../libs/PoliTeKDSP/libs/libDaisy/src/dev/oled_ssd130x.h ****     };
 5758              		.loc 11 46 30 view .LVU1346
 5759              	.LBE1640:
 5760              	.LBE1639:
 5761              	.LBB1641:
 5762              	.LBI1641:
  43:Display/../../libs/PoliTeKDSP/libs/libDaisy/src/dev/oled_ssd130x.h ****     {
 5763              		.loc 11 43 10 is_stmt 1 view .LVU1347
 5764              	.LBB1642:
  45:Display/../../libs/PoliTeKDSP/libs/libDaisy/src/dev/oled_ssd130x.h ****         i2c_.TransmitBlocking(i2c_address_, buf, 2, 1000);
 5765              		.loc 11 45 9 view .LVU1348
  45:Display/../../libs/PoliTeKDSP/libs/libDaisy/src/dev/oled_ssd130x.h ****         i2c_.TransmitBlocking(i2c_address_, buf, 2, 1000);
 5766              		.loc 11 45 36 is_stmt 0 view .LVU1349
 5767 0050 8023     		movs	r3, #128
  46:Display/../../libs/PoliTeKDSP/libs/libDaisy/src/dev/oled_ssd130x.h ****     };
 5768              		.loc 11 46 30 view .LVU1350
 5769 0052 03AA     		add	r2, sp, #12
 5770 0054 0096     		str	r6, [sp]
 5771 0056 2046     		mov	r0, r4
 5772 0058 2179     		ldrb	r1, [r4, #4]	@ zero_extendqisi2
  45:Display/../../libs/PoliTeKDSP/libs/libDaisy/src/dev/oled_ssd130x.h ****         i2c_.TransmitBlocking(i2c_address_, buf, 2, 1000);
 5773              		.loc 11 45 36 view .LVU1351
 5774 005a 8DF80D30 		strb	r3, [sp, #13]
ARM GAS  C:\Users\skipi\AppData\Local\Temp\ccpgF6Mp.s 			page 160


  46:Display/../../libs/PoliTeKDSP/libs/libDaisy/src/dev/oled_ssd130x.h ****     };
 5775              		.loc 11 46 9 is_stmt 1 view .LVU1352
  46:Display/../../libs/PoliTeKDSP/libs/libDaisy/src/dev/oled_ssd130x.h ****     };
 5776              		.loc 11 46 30 is_stmt 0 view .LVU1353
 5777 005e 0223     		movs	r3, #2
  45:Display/../../libs/PoliTeKDSP/libs/libDaisy/src/dev/oled_ssd130x.h ****         i2c_.TransmitBlocking(i2c_address_, buf, 2, 1000);
 5778              		.loc 11 45 17 view .LVU1354
 5779 0060 8DF80C50 		strb	r5, [sp, #12]
  46:Display/../../libs/PoliTeKDSP/libs/libDaisy/src/dev/oled_ssd130x.h ****     };
 5780              		.loc 11 46 30 view .LVU1355
 5781 0064 FFF7FEFF 		bl	_ZN5daisy9I2CHandle16TransmitBlockingEtPhtm
 5782              	.LVL442:
  46:Display/../../libs/PoliTeKDSP/libs/libDaisy/src/dev/oled_ssd130x.h ****     };
 5783              		.loc 11 46 30 view .LVU1356
 5784              	.LBE1642:
 5785              	.LBE1641:
 5786              	.LBB1643:
 5787              	.LBI1643:
  43:Display/../../libs/PoliTeKDSP/libs/libDaisy/src/dev/oled_ssd130x.h ****     {
 5788              		.loc 11 43 10 is_stmt 1 view .LVU1357
 5789              	.LBB1644:
  45:Display/../../libs/PoliTeKDSP/libs/libDaisy/src/dev/oled_ssd130x.h ****         i2c_.TransmitBlocking(i2c_address_, buf, 2, 1000);
 5790              		.loc 11 45 9 view .LVU1358
  45:Display/../../libs/PoliTeKDSP/libs/libDaisy/src/dev/oled_ssd130x.h ****         i2c_.TransmitBlocking(i2c_address_, buf, 2, 1000);
 5791              		.loc 11 45 36 is_stmt 0 view .LVU1359
 5792 0068 A823     		movs	r3, #168
  46:Display/../../libs/PoliTeKDSP/libs/libDaisy/src/dev/oled_ssd130x.h ****     };
 5793              		.loc 11 46 30 view .LVU1360
 5794 006a 03AA     		add	r2, sp, #12
 5795 006c 0096     		str	r6, [sp]
 5796 006e 2046     		mov	r0, r4
 5797 0070 2179     		ldrb	r1, [r4, #4]	@ zero_extendqisi2
  45:Display/../../libs/PoliTeKDSP/libs/libDaisy/src/dev/oled_ssd130x.h ****         i2c_.TransmitBlocking(i2c_address_, buf, 2, 1000);
 5798              		.loc 11 45 36 view .LVU1361
 5799 0072 8DF80D30 		strb	r3, [sp, #13]
  46:Display/../../libs/PoliTeKDSP/libs/libDaisy/src/dev/oled_ssd130x.h ****     };
 5800              		.loc 11 46 9 is_stmt 1 view .LVU1362
  46:Display/../../libs/PoliTeKDSP/libs/libDaisy/src/dev/oled_ssd130x.h ****     };
 5801              		.loc 11 46 30 is_stmt 0 view .LVU1363
 5802 0076 0223     		movs	r3, #2
  45:Display/../../libs/PoliTeKDSP/libs/libDaisy/src/dev/oled_ssd130x.h ****         i2c_.TransmitBlocking(i2c_address_, buf, 2, 1000);
 5803              		.loc 11 45 17 view .LVU1364
 5804 0078 8DF80C50 		strb	r5, [sp, #12]
  46:Display/../../libs/PoliTeKDSP/libs/libDaisy/src/dev/oled_ssd130x.h ****     };
 5805              		.loc 11 46 30 view .LVU1365
 5806 007c FFF7FEFF 		bl	_ZN5daisy9I2CHandle16TransmitBlockingEtPhtm
 5807              	.LVL443:
  46:Display/../../libs/PoliTeKDSP/libs/libDaisy/src/dev/oled_ssd130x.h ****     };
 5808              		.loc 11 46 30 view .LVU1366
 5809              	.LBE1644:
 5810              	.LBE1643:
 5811              	.LBB1645:
 5812              	.LBI1645:
  43:Display/../../libs/PoliTeKDSP/libs/libDaisy/src/dev/oled_ssd130x.h ****     {
 5813              		.loc 11 43 10 is_stmt 1 view .LVU1367
 5814              	.LBB1646:
  45:Display/../../libs/PoliTeKDSP/libs/libDaisy/src/dev/oled_ssd130x.h ****         i2c_.TransmitBlocking(i2c_address_, buf, 2, 1000);
ARM GAS  C:\Users\skipi\AppData\Local\Temp\ccpgF6Mp.s 			page 161


 5815              		.loc 11 45 9 view .LVU1368
  45:Display/../../libs/PoliTeKDSP/libs/libDaisy/src/dev/oled_ssd130x.h ****         i2c_.TransmitBlocking(i2c_address_, buf, 2, 1000);
 5816              		.loc 11 45 36 is_stmt 0 view .LVU1369
 5817 0080 3F23     		movs	r3, #63
  46:Display/../../libs/PoliTeKDSP/libs/libDaisy/src/dev/oled_ssd130x.h ****     };
 5818              		.loc 11 46 30 view .LVU1370
 5819 0082 03AA     		add	r2, sp, #12
 5820 0084 0096     		str	r6, [sp]
 5821 0086 2046     		mov	r0, r4
 5822 0088 2179     		ldrb	r1, [r4, #4]	@ zero_extendqisi2
  45:Display/../../libs/PoliTeKDSP/libs/libDaisy/src/dev/oled_ssd130x.h ****         i2c_.TransmitBlocking(i2c_address_, buf, 2, 1000);
 5823              		.loc 11 45 36 view .LVU1371
 5824 008a 8DF80D30 		strb	r3, [sp, #13]
  46:Display/../../libs/PoliTeKDSP/libs/libDaisy/src/dev/oled_ssd130x.h ****     };
 5825              		.loc 11 46 9 is_stmt 1 view .LVU1372
  46:Display/../../libs/PoliTeKDSP/libs/libDaisy/src/dev/oled_ssd130x.h ****     };
 5826              		.loc 11 46 30 is_stmt 0 view .LVU1373
 5827 008e 0223     		movs	r3, #2
  45:Display/../../libs/PoliTeKDSP/libs/libDaisy/src/dev/oled_ssd130x.h ****         i2c_.TransmitBlocking(i2c_address_, buf, 2, 1000);
 5828              		.loc 11 45 17 view .LVU1374
 5829 0090 8DF80C50 		strb	r5, [sp, #12]
  46:Display/../../libs/PoliTeKDSP/libs/libDaisy/src/dev/oled_ssd130x.h ****     };
 5830              		.loc 11 46 30 view .LVU1375
 5831 0094 FFF7FEFF 		bl	_ZN5daisy9I2CHandle16TransmitBlockingEtPhtm
 5832              	.LVL444:
  46:Display/../../libs/PoliTeKDSP/libs/libDaisy/src/dev/oled_ssd130x.h ****     };
 5833              		.loc 11 46 30 view .LVU1376
 5834              	.LBE1646:
 5835              	.LBE1645:
 5836              	.LBB1647:
 5837              	.LBI1647:
  43:Display/../../libs/PoliTeKDSP/libs/libDaisy/src/dev/oled_ssd130x.h ****     {
 5838              		.loc 11 43 10 is_stmt 1 view .LVU1377
 5839              	.LBB1648:
  45:Display/../../libs/PoliTeKDSP/libs/libDaisy/src/dev/oled_ssd130x.h ****         i2c_.TransmitBlocking(i2c_address_, buf, 2, 1000);
 5840              		.loc 11 45 9 view .LVU1378
  45:Display/../../libs/PoliTeKDSP/libs/libDaisy/src/dev/oled_ssd130x.h ****         i2c_.TransmitBlocking(i2c_address_, buf, 2, 1000);
 5841              		.loc 11 45 36 is_stmt 0 view .LVU1379
 5842 0098 DA23     		movs	r3, #218
  46:Display/../../libs/PoliTeKDSP/libs/libDaisy/src/dev/oled_ssd130x.h ****     };
 5843              		.loc 11 46 30 view .LVU1380
 5844 009a 03AA     		add	r2, sp, #12
 5845 009c 0096     		str	r6, [sp]
 5846 009e 2046     		mov	r0, r4
 5847 00a0 2179     		ldrb	r1, [r4, #4]	@ zero_extendqisi2
  45:Display/../../libs/PoliTeKDSP/libs/libDaisy/src/dev/oled_ssd130x.h ****         i2c_.TransmitBlocking(i2c_address_, buf, 2, 1000);
 5848              		.loc 11 45 36 view .LVU1381
 5849 00a2 8DF80D30 		strb	r3, [sp, #13]
  46:Display/../../libs/PoliTeKDSP/libs/libDaisy/src/dev/oled_ssd130x.h ****     };
 5850              		.loc 11 46 9 is_stmt 1 view .LVU1382
  46:Display/../../libs/PoliTeKDSP/libs/libDaisy/src/dev/oled_ssd130x.h ****     };
 5851              		.loc 11 46 30 is_stmt 0 view .LVU1383
 5852 00a6 0223     		movs	r3, #2
  45:Display/../../libs/PoliTeKDSP/libs/libDaisy/src/dev/oled_ssd130x.h ****         i2c_.TransmitBlocking(i2c_address_, buf, 2, 1000);
 5853              		.loc 11 45 17 view .LVU1384
 5854 00a8 8DF80C50 		strb	r5, [sp, #12]
  46:Display/../../libs/PoliTeKDSP/libs/libDaisy/src/dev/oled_ssd130x.h ****     };
ARM GAS  C:\Users\skipi\AppData\Local\Temp\ccpgF6Mp.s 			page 162


 5855              		.loc 11 46 30 view .LVU1385
 5856 00ac FFF7FEFF 		bl	_ZN5daisy9I2CHandle16TransmitBlockingEtPhtm
 5857              	.LVL445:
  46:Display/../../libs/PoliTeKDSP/libs/libDaisy/src/dev/oled_ssd130x.h ****     };
 5858              		.loc 11 46 30 view .LVU1386
 5859              	.LBE1648:
 5860              	.LBE1647:
 5861              	.LBB1649:
 5862              	.LBI1649:
  43:Display/../../libs/PoliTeKDSP/libs/libDaisy/src/dev/oled_ssd130x.h ****     {
 5863              		.loc 11 43 10 is_stmt 1 view .LVU1387
 5864              	.LBB1650:
  45:Display/../../libs/PoliTeKDSP/libs/libDaisy/src/dev/oled_ssd130x.h ****         i2c_.TransmitBlocking(i2c_address_, buf, 2, 1000);
 5865              		.loc 11 45 9 view .LVU1388
  45:Display/../../libs/PoliTeKDSP/libs/libDaisy/src/dev/oled_ssd130x.h ****         i2c_.TransmitBlocking(i2c_address_, buf, 2, 1000);
 5866              		.loc 11 45 36 is_stmt 0 view .LVU1389
 5867 00b0 1223     		movs	r3, #18
  46:Display/../../libs/PoliTeKDSP/libs/libDaisy/src/dev/oled_ssd130x.h ****     };
 5868              		.loc 11 46 30 view .LVU1390
 5869 00b2 03AA     		add	r2, sp, #12
 5870 00b4 0096     		str	r6, [sp]
 5871 00b6 2046     		mov	r0, r4
 5872 00b8 2179     		ldrb	r1, [r4, #4]	@ zero_extendqisi2
  45:Display/../../libs/PoliTeKDSP/libs/libDaisy/src/dev/oled_ssd130x.h ****         i2c_.TransmitBlocking(i2c_address_, buf, 2, 1000);
 5873              		.loc 11 45 36 view .LVU1391
 5874 00ba 8DF80D30 		strb	r3, [sp, #13]
  46:Display/../../libs/PoliTeKDSP/libs/libDaisy/src/dev/oled_ssd130x.h ****     };
 5875              		.loc 11 46 9 is_stmt 1 view .LVU1392
  46:Display/../../libs/PoliTeKDSP/libs/libDaisy/src/dev/oled_ssd130x.h ****     };
 5876              		.loc 11 46 30 is_stmt 0 view .LVU1393
 5877 00be 0223     		movs	r3, #2
  45:Display/../../libs/PoliTeKDSP/libs/libDaisy/src/dev/oled_ssd130x.h ****         i2c_.TransmitBlocking(i2c_address_, buf, 2, 1000);
 5878              		.loc 11 45 17 view .LVU1394
 5879 00c0 8DF80C50 		strb	r5, [sp, #12]
  46:Display/../../libs/PoliTeKDSP/libs/libDaisy/src/dev/oled_ssd130x.h ****     };
 5880              		.loc 11 46 30 view .LVU1395
 5881 00c4 FFF7FEFF 		bl	_ZN5daisy9I2CHandle16TransmitBlockingEtPhtm
 5882              	.LVL446:
  46:Display/../../libs/PoliTeKDSP/libs/libDaisy/src/dev/oled_ssd130x.h ****     };
 5883              		.loc 11 46 30 view .LVU1396
 5884              	.LBE1650:
 5885              	.LBE1649:
 5886              	.LBB1651:
 5887              	.LBI1651:
  43:Display/../../libs/PoliTeKDSP/libs/libDaisy/src/dev/oled_ssd130x.h ****     {
 5888              		.loc 11 43 10 is_stmt 1 view .LVU1397
 5889              	.LBB1652:
  45:Display/../../libs/PoliTeKDSP/libs/libDaisy/src/dev/oled_ssd130x.h ****         i2c_.TransmitBlocking(i2c_address_, buf, 2, 1000);
 5890              		.loc 11 45 9 view .LVU1398
  45:Display/../../libs/PoliTeKDSP/libs/libDaisy/src/dev/oled_ssd130x.h ****         i2c_.TransmitBlocking(i2c_address_, buf, 2, 1000);
 5891              		.loc 11 45 36 is_stmt 0 view .LVU1399
 5892 00c8 D323     		movs	r3, #211
  46:Display/../../libs/PoliTeKDSP/libs/libDaisy/src/dev/oled_ssd130x.h ****     };
 5893              		.loc 11 46 30 view .LVU1400
 5894 00ca 03AA     		add	r2, sp, #12
 5895 00cc 0096     		str	r6, [sp]
 5896 00ce 2046     		mov	r0, r4
ARM GAS  C:\Users\skipi\AppData\Local\Temp\ccpgF6Mp.s 			page 163


 5897 00d0 2179     		ldrb	r1, [r4, #4]	@ zero_extendqisi2
  45:Display/../../libs/PoliTeKDSP/libs/libDaisy/src/dev/oled_ssd130x.h ****         i2c_.TransmitBlocking(i2c_address_, buf, 2, 1000);
 5898              		.loc 11 45 36 view .LVU1401
 5899 00d2 8DF80D30 		strb	r3, [sp, #13]
  46:Display/../../libs/PoliTeKDSP/libs/libDaisy/src/dev/oled_ssd130x.h ****     };
 5900              		.loc 11 46 9 is_stmt 1 view .LVU1402
  46:Display/../../libs/PoliTeKDSP/libs/libDaisy/src/dev/oled_ssd130x.h ****     };
 5901              		.loc 11 46 30 is_stmt 0 view .LVU1403
 5902 00d6 0223     		movs	r3, #2
  45:Display/../../libs/PoliTeKDSP/libs/libDaisy/src/dev/oled_ssd130x.h ****         i2c_.TransmitBlocking(i2c_address_, buf, 2, 1000);
 5903              		.loc 11 45 17 view .LVU1404
 5904 00d8 8DF80C50 		strb	r5, [sp, #12]
  46:Display/../../libs/PoliTeKDSP/libs/libDaisy/src/dev/oled_ssd130x.h ****     };
 5905              		.loc 11 46 30 view .LVU1405
 5906 00dc FFF7FEFF 		bl	_ZN5daisy9I2CHandle16TransmitBlockingEtPhtm
 5907              	.LVL447:
  46:Display/../../libs/PoliTeKDSP/libs/libDaisy/src/dev/oled_ssd130x.h ****     };
 5908              		.loc 11 46 30 view .LVU1406
 5909              	.LBE1652:
 5910              	.LBE1651:
 5911              	.LBB1653:
 5912              	.LBI1653:
  43:Display/../../libs/PoliTeKDSP/libs/libDaisy/src/dev/oled_ssd130x.h ****     {
 5913              		.loc 11 43 10 is_stmt 1 view .LVU1407
 5914              	.LBB1654:
  45:Display/../../libs/PoliTeKDSP/libs/libDaisy/src/dev/oled_ssd130x.h ****         i2c_.TransmitBlocking(i2c_address_, buf, 2, 1000);
 5915              		.loc 11 45 9 view .LVU1408
  46:Display/../../libs/PoliTeKDSP/libs/libDaisy/src/dev/oled_ssd130x.h ****     };
 5916              		.loc 11 46 30 is_stmt 0 view .LVU1409
 5917 00e0 03AA     		add	r2, sp, #12
 5918 00e2 0096     		str	r6, [sp]
 5919 00e4 0223     		movs	r3, #2
 5920 00e6 2179     		ldrb	r1, [r4, #4]	@ zero_extendqisi2
 5921 00e8 2046     		mov	r0, r4
  45:Display/../../libs/PoliTeKDSP/libs/libDaisy/src/dev/oled_ssd130x.h ****         i2c_.TransmitBlocking(i2c_address_, buf, 2, 1000);
 5922              		.loc 11 45 17 view .LVU1410
 5923 00ea 8DF80C50 		strb	r5, [sp, #12]
  45:Display/../../libs/PoliTeKDSP/libs/libDaisy/src/dev/oled_ssd130x.h ****         i2c_.TransmitBlocking(i2c_address_, buf, 2, 1000);
 5924              		.loc 11 45 36 view .LVU1411
 5925 00ee 8DF80D50 		strb	r5, [sp, #13]
  46:Display/../../libs/PoliTeKDSP/libs/libDaisy/src/dev/oled_ssd130x.h ****     };
 5926              		.loc 11 46 9 is_stmt 1 view .LVU1412
  46:Display/../../libs/PoliTeKDSP/libs/libDaisy/src/dev/oled_ssd130x.h ****     };
 5927              		.loc 11 46 30 is_stmt 0 view .LVU1413
 5928 00f2 FFF7FEFF 		bl	_ZN5daisy9I2CHandle16TransmitBlockingEtPhtm
 5929              	.LVL448:
  46:Display/../../libs/PoliTeKDSP/libs/libDaisy/src/dev/oled_ssd130x.h ****     };
 5930              		.loc 11 46 30 view .LVU1414
 5931              	.LBE1654:
 5932              	.LBE1653:
 5933              	.LBB1655:
 5934              	.LBI1655:
  43:Display/../../libs/PoliTeKDSP/libs/libDaisy/src/dev/oled_ssd130x.h ****     {
 5935              		.loc 11 43 10 is_stmt 1 view .LVU1415
 5936              	.LBB1656:
  45:Display/../../libs/PoliTeKDSP/libs/libDaisy/src/dev/oled_ssd130x.h ****         i2c_.TransmitBlocking(i2c_address_, buf, 2, 1000);
 5937              		.loc 11 45 9 view .LVU1416
ARM GAS  C:\Users\skipi\AppData\Local\Temp\ccpgF6Mp.s 			page 164


  45:Display/../../libs/PoliTeKDSP/libs/libDaisy/src/dev/oled_ssd130x.h ****         i2c_.TransmitBlocking(i2c_address_, buf, 2, 1000);
 5938              		.loc 11 45 36 is_stmt 0 view .LVU1417
 5939 00f6 4023     		movs	r3, #64
  46:Display/../../libs/PoliTeKDSP/libs/libDaisy/src/dev/oled_ssd130x.h ****     };
 5940              		.loc 11 46 30 view .LVU1418
 5941 00f8 03AA     		add	r2, sp, #12
 5942 00fa 0096     		str	r6, [sp]
 5943 00fc 2046     		mov	r0, r4
 5944 00fe 2179     		ldrb	r1, [r4, #4]	@ zero_extendqisi2
  45:Display/../../libs/PoliTeKDSP/libs/libDaisy/src/dev/oled_ssd130x.h ****         i2c_.TransmitBlocking(i2c_address_, buf, 2, 1000);
 5945              		.loc 11 45 36 view .LVU1419
 5946 0100 8DF80D30 		strb	r3, [sp, #13]
  46:Display/../../libs/PoliTeKDSP/libs/libDaisy/src/dev/oled_ssd130x.h ****     };
 5947              		.loc 11 46 9 is_stmt 1 view .LVU1420
  46:Display/../../libs/PoliTeKDSP/libs/libDaisy/src/dev/oled_ssd130x.h ****     };
 5948              		.loc 11 46 30 is_stmt 0 view .LVU1421
 5949 0104 0223     		movs	r3, #2
  45:Display/../../libs/PoliTeKDSP/libs/libDaisy/src/dev/oled_ssd130x.h ****         i2c_.TransmitBlocking(i2c_address_, buf, 2, 1000);
 5950              		.loc 11 45 17 view .LVU1422
 5951 0106 8DF80C50 		strb	r5, [sp, #12]
  46:Display/../../libs/PoliTeKDSP/libs/libDaisy/src/dev/oled_ssd130x.h ****     };
 5952              		.loc 11 46 30 view .LVU1423
 5953 010a FFF7FEFF 		bl	_ZN5daisy9I2CHandle16TransmitBlockingEtPhtm
 5954              	.LVL449:
  46:Display/../../libs/PoliTeKDSP/libs/libDaisy/src/dev/oled_ssd130x.h ****     };
 5955              		.loc 11 46 30 view .LVU1424
 5956              	.LBE1656:
 5957              	.LBE1655:
 5958              	.LBB1657:
 5959              	.LBI1657:
  43:Display/../../libs/PoliTeKDSP/libs/libDaisy/src/dev/oled_ssd130x.h ****     {
 5960              		.loc 11 43 10 is_stmt 1 view .LVU1425
 5961              	.LBB1658:
  45:Display/../../libs/PoliTeKDSP/libs/libDaisy/src/dev/oled_ssd130x.h ****         i2c_.TransmitBlocking(i2c_address_, buf, 2, 1000);
 5962              		.loc 11 45 9 view .LVU1426
  45:Display/../../libs/PoliTeKDSP/libs/libDaisy/src/dev/oled_ssd130x.h ****         i2c_.TransmitBlocking(i2c_address_, buf, 2, 1000);
 5963              		.loc 11 45 36 is_stmt 0 view .LVU1427
 5964 010e A623     		movs	r3, #166
  46:Display/../../libs/PoliTeKDSP/libs/libDaisy/src/dev/oled_ssd130x.h ****     };
 5965              		.loc 11 46 30 view .LVU1428
 5966 0110 03AA     		add	r2, sp, #12
 5967 0112 0096     		str	r6, [sp]
 5968 0114 2046     		mov	r0, r4
 5969 0116 2179     		ldrb	r1, [r4, #4]	@ zero_extendqisi2
  45:Display/../../libs/PoliTeKDSP/libs/libDaisy/src/dev/oled_ssd130x.h ****         i2c_.TransmitBlocking(i2c_address_, buf, 2, 1000);
 5970              		.loc 11 45 36 view .LVU1429
 5971 0118 8DF80D30 		strb	r3, [sp, #13]
  46:Display/../../libs/PoliTeKDSP/libs/libDaisy/src/dev/oled_ssd130x.h ****     };
 5972              		.loc 11 46 9 is_stmt 1 view .LVU1430
  46:Display/../../libs/PoliTeKDSP/libs/libDaisy/src/dev/oled_ssd130x.h ****     };
 5973              		.loc 11 46 30 is_stmt 0 view .LVU1431
 5974 011c 0223     		movs	r3, #2
  45:Display/../../libs/PoliTeKDSP/libs/libDaisy/src/dev/oled_ssd130x.h ****         i2c_.TransmitBlocking(i2c_address_, buf, 2, 1000);
 5975              		.loc 11 45 17 view .LVU1432
 5976 011e 8DF80C50 		strb	r5, [sp, #12]
  46:Display/../../libs/PoliTeKDSP/libs/libDaisy/src/dev/oled_ssd130x.h ****     };
 5977              		.loc 11 46 30 view .LVU1433
ARM GAS  C:\Users\skipi\AppData\Local\Temp\ccpgF6Mp.s 			page 165


 5978 0122 FFF7FEFF 		bl	_ZN5daisy9I2CHandle16TransmitBlockingEtPhtm
 5979              	.LVL450:
  46:Display/../../libs/PoliTeKDSP/libs/libDaisy/src/dev/oled_ssd130x.h ****     };
 5980              		.loc 11 46 30 view .LVU1434
 5981              	.LBE1658:
 5982              	.LBE1657:
 5983              	.LBB1659:
 5984              	.LBI1659:
  43:Display/../../libs/PoliTeKDSP/libs/libDaisy/src/dev/oled_ssd130x.h ****     {
 5985              		.loc 11 43 10 is_stmt 1 view .LVU1435
 5986              	.LBB1660:
  45:Display/../../libs/PoliTeKDSP/libs/libDaisy/src/dev/oled_ssd130x.h ****         i2c_.TransmitBlocking(i2c_address_, buf, 2, 1000);
 5987              		.loc 11 45 9 view .LVU1436
  45:Display/../../libs/PoliTeKDSP/libs/libDaisy/src/dev/oled_ssd130x.h ****         i2c_.TransmitBlocking(i2c_address_, buf, 2, 1000);
 5988              		.loc 11 45 36 is_stmt 0 view .LVU1437
 5989 0126 A423     		movs	r3, #164
  46:Display/../../libs/PoliTeKDSP/libs/libDaisy/src/dev/oled_ssd130x.h ****     };
 5990              		.loc 11 46 30 view .LVU1438
 5991 0128 03AA     		add	r2, sp, #12
 5992 012a 0096     		str	r6, [sp]
 5993 012c 2046     		mov	r0, r4
 5994 012e 2179     		ldrb	r1, [r4, #4]	@ zero_extendqisi2
  45:Display/../../libs/PoliTeKDSP/libs/libDaisy/src/dev/oled_ssd130x.h ****         i2c_.TransmitBlocking(i2c_address_, buf, 2, 1000);
 5995              		.loc 11 45 36 view .LVU1439
 5996 0130 8DF80D30 		strb	r3, [sp, #13]
  46:Display/../../libs/PoliTeKDSP/libs/libDaisy/src/dev/oled_ssd130x.h ****     };
 5997              		.loc 11 46 9 is_stmt 1 view .LVU1440
  46:Display/../../libs/PoliTeKDSP/libs/libDaisy/src/dev/oled_ssd130x.h ****     };
 5998              		.loc 11 46 30 is_stmt 0 view .LVU1441
 5999 0134 0223     		movs	r3, #2
  45:Display/../../libs/PoliTeKDSP/libs/libDaisy/src/dev/oled_ssd130x.h ****         i2c_.TransmitBlocking(i2c_address_, buf, 2, 1000);
 6000              		.loc 11 45 17 view .LVU1442
 6001 0136 8DF80C50 		strb	r5, [sp, #12]
  46:Display/../../libs/PoliTeKDSP/libs/libDaisy/src/dev/oled_ssd130x.h ****     };
 6002              		.loc 11 46 30 view .LVU1443
 6003 013a FFF7FEFF 		bl	_ZN5daisy9I2CHandle16TransmitBlockingEtPhtm
 6004              	.LVL451:
  46:Display/../../libs/PoliTeKDSP/libs/libDaisy/src/dev/oled_ssd130x.h ****     };
 6005              		.loc 11 46 30 view .LVU1444
 6006              	.LBE1660:
 6007              	.LBE1659:
 6008              	.LBB1661:
 6009              	.LBI1661:
  43:Display/../../libs/PoliTeKDSP/libs/libDaisy/src/dev/oled_ssd130x.h ****     {
 6010              		.loc 11 43 10 is_stmt 1 view .LVU1445
 6011              	.LBB1662:
  45:Display/../../libs/PoliTeKDSP/libs/libDaisy/src/dev/oled_ssd130x.h ****         i2c_.TransmitBlocking(i2c_address_, buf, 2, 1000);
 6012              		.loc 11 45 9 view .LVU1446
  45:Display/../../libs/PoliTeKDSP/libs/libDaisy/src/dev/oled_ssd130x.h ****         i2c_.TransmitBlocking(i2c_address_, buf, 2, 1000);
 6013              		.loc 11 45 36 is_stmt 0 view .LVU1447
 6014 013e 8D23     		movs	r3, #141
  46:Display/../../libs/PoliTeKDSP/libs/libDaisy/src/dev/oled_ssd130x.h ****     };
 6015              		.loc 11 46 30 view .LVU1448
 6016 0140 03AA     		add	r2, sp, #12
 6017 0142 0096     		str	r6, [sp]
 6018 0144 2046     		mov	r0, r4
 6019 0146 2179     		ldrb	r1, [r4, #4]	@ zero_extendqisi2
ARM GAS  C:\Users\skipi\AppData\Local\Temp\ccpgF6Mp.s 			page 166


  45:Display/../../libs/PoliTeKDSP/libs/libDaisy/src/dev/oled_ssd130x.h ****         i2c_.TransmitBlocking(i2c_address_, buf, 2, 1000);
 6020              		.loc 11 45 36 view .LVU1449
 6021 0148 8DF80D30 		strb	r3, [sp, #13]
  46:Display/../../libs/PoliTeKDSP/libs/libDaisy/src/dev/oled_ssd130x.h ****     };
 6022              		.loc 11 46 9 is_stmt 1 view .LVU1450
  46:Display/../../libs/PoliTeKDSP/libs/libDaisy/src/dev/oled_ssd130x.h ****     };
 6023              		.loc 11 46 30 is_stmt 0 view .LVU1451
 6024 014c 0223     		movs	r3, #2
  45:Display/../../libs/PoliTeKDSP/libs/libDaisy/src/dev/oled_ssd130x.h ****         i2c_.TransmitBlocking(i2c_address_, buf, 2, 1000);
 6025              		.loc 11 45 17 view .LVU1452
 6026 014e 8DF80C50 		strb	r5, [sp, #12]
  46:Display/../../libs/PoliTeKDSP/libs/libDaisy/src/dev/oled_ssd130x.h ****     };
 6027              		.loc 11 46 30 view .LVU1453
 6028 0152 FFF7FEFF 		bl	_ZN5daisy9I2CHandle16TransmitBlockingEtPhtm
 6029              	.LVL452:
  46:Display/../../libs/PoliTeKDSP/libs/libDaisy/src/dev/oled_ssd130x.h ****     };
 6030              		.loc 11 46 30 view .LVU1454
 6031              	.LBE1662:
 6032              	.LBE1661:
 6033              	.LBB1663:
 6034              	.LBI1663:
  43:Display/../../libs/PoliTeKDSP/libs/libDaisy/src/dev/oled_ssd130x.h ****     {
 6035              		.loc 11 43 10 is_stmt 1 view .LVU1455
 6036              	.LBB1664:
  45:Display/../../libs/PoliTeKDSP/libs/libDaisy/src/dev/oled_ssd130x.h ****         i2c_.TransmitBlocking(i2c_address_, buf, 2, 1000);
 6037              		.loc 11 45 9 view .LVU1456
  45:Display/../../libs/PoliTeKDSP/libs/libDaisy/src/dev/oled_ssd130x.h ****         i2c_.TransmitBlocking(i2c_address_, buf, 2, 1000);
 6038              		.loc 11 45 36 is_stmt 0 view .LVU1457
 6039 0156 1423     		movs	r3, #20
  46:Display/../../libs/PoliTeKDSP/libs/libDaisy/src/dev/oled_ssd130x.h ****     };
 6040              		.loc 11 46 30 view .LVU1458
 6041 0158 03AA     		add	r2, sp, #12
 6042 015a 0096     		str	r6, [sp]
 6043 015c 2046     		mov	r0, r4
 6044 015e 2179     		ldrb	r1, [r4, #4]	@ zero_extendqisi2
  45:Display/../../libs/PoliTeKDSP/libs/libDaisy/src/dev/oled_ssd130x.h ****         i2c_.TransmitBlocking(i2c_address_, buf, 2, 1000);
 6045              		.loc 11 45 36 view .LVU1459
 6046 0160 8DF80D30 		strb	r3, [sp, #13]
  46:Display/../../libs/PoliTeKDSP/libs/libDaisy/src/dev/oled_ssd130x.h ****     };
 6047              		.loc 11 46 9 is_stmt 1 view .LVU1460
  46:Display/../../libs/PoliTeKDSP/libs/libDaisy/src/dev/oled_ssd130x.h ****     };
 6048              		.loc 11 46 30 is_stmt 0 view .LVU1461
 6049 0164 0223     		movs	r3, #2
  45:Display/../../libs/PoliTeKDSP/libs/libDaisy/src/dev/oled_ssd130x.h ****         i2c_.TransmitBlocking(i2c_address_, buf, 2, 1000);
 6050              		.loc 11 45 17 view .LVU1462
 6051 0166 8DF80C50 		strb	r5, [sp, #12]
  46:Display/../../libs/PoliTeKDSP/libs/libDaisy/src/dev/oled_ssd130x.h ****     };
 6052              		.loc 11 46 30 view .LVU1463
 6053 016a FFF7FEFF 		bl	_ZN5daisy9I2CHandle16TransmitBlockingEtPhtm
 6054              	.LVL453:
  46:Display/../../libs/PoliTeKDSP/libs/libDaisy/src/dev/oled_ssd130x.h ****     };
 6055              		.loc 11 46 30 view .LVU1464
 6056              	.LBE1664:
 6057              	.LBE1663:
 6058              	.LBB1665:
 6059              	.LBI1665:
  43:Display/../../libs/PoliTeKDSP/libs/libDaisy/src/dev/oled_ssd130x.h ****     {
ARM GAS  C:\Users\skipi\AppData\Local\Temp\ccpgF6Mp.s 			page 167


 6060              		.loc 11 43 10 is_stmt 1 view .LVU1465
 6061              	.LBB1666:
  45:Display/../../libs/PoliTeKDSP/libs/libDaisy/src/dev/oled_ssd130x.h ****         i2c_.TransmitBlocking(i2c_address_, buf, 2, 1000);
 6062              		.loc 11 45 9 view .LVU1466
  45:Display/../../libs/PoliTeKDSP/libs/libDaisy/src/dev/oled_ssd130x.h ****         i2c_.TransmitBlocking(i2c_address_, buf, 2, 1000);
 6063              		.loc 11 45 36 is_stmt 0 view .LVU1467
 6064 016e A123     		movs	r3, #161
  46:Display/../../libs/PoliTeKDSP/libs/libDaisy/src/dev/oled_ssd130x.h ****     };
 6065              		.loc 11 46 30 view .LVU1468
 6066 0170 03AA     		add	r2, sp, #12
 6067 0172 0096     		str	r6, [sp]
 6068 0174 2046     		mov	r0, r4
 6069 0176 2179     		ldrb	r1, [r4, #4]	@ zero_extendqisi2
  45:Display/../../libs/PoliTeKDSP/libs/libDaisy/src/dev/oled_ssd130x.h ****         i2c_.TransmitBlocking(i2c_address_, buf, 2, 1000);
 6070              		.loc 11 45 36 view .LVU1469
 6071 0178 8DF80D30 		strb	r3, [sp, #13]
  46:Display/../../libs/PoliTeKDSP/libs/libDaisy/src/dev/oled_ssd130x.h ****     };
 6072              		.loc 11 46 9 is_stmt 1 view .LVU1470
  46:Display/../../libs/PoliTeKDSP/libs/libDaisy/src/dev/oled_ssd130x.h ****     };
 6073              		.loc 11 46 30 is_stmt 0 view .LVU1471
 6074 017c 0223     		movs	r3, #2
  45:Display/../../libs/PoliTeKDSP/libs/libDaisy/src/dev/oled_ssd130x.h ****         i2c_.TransmitBlocking(i2c_address_, buf, 2, 1000);
 6075              		.loc 11 45 17 view .LVU1472
 6076 017e 8DF80C50 		strb	r5, [sp, #12]
  46:Display/../../libs/PoliTeKDSP/libs/libDaisy/src/dev/oled_ssd130x.h ****     };
 6077              		.loc 11 46 30 view .LVU1473
 6078 0182 FFF7FEFF 		bl	_ZN5daisy9I2CHandle16TransmitBlockingEtPhtm
 6079              	.LVL454:
  46:Display/../../libs/PoliTeKDSP/libs/libDaisy/src/dev/oled_ssd130x.h ****     };
 6080              		.loc 11 46 30 view .LVU1474
 6081              	.LBE1666:
 6082              	.LBE1665:
 6083              	.LBB1667:
 6084              	.LBI1667:
  43:Display/../../libs/PoliTeKDSP/libs/libDaisy/src/dev/oled_ssd130x.h ****     {
 6085              		.loc 11 43 10 is_stmt 1 view .LVU1475
 6086              	.LBB1668:
  45:Display/../../libs/PoliTeKDSP/libs/libDaisy/src/dev/oled_ssd130x.h ****         i2c_.TransmitBlocking(i2c_address_, buf, 2, 1000);
 6087              		.loc 11 45 9 view .LVU1476
  45:Display/../../libs/PoliTeKDSP/libs/libDaisy/src/dev/oled_ssd130x.h ****         i2c_.TransmitBlocking(i2c_address_, buf, 2, 1000);
 6088              		.loc 11 45 36 is_stmt 0 view .LVU1477
 6089 0186 C823     		movs	r3, #200
  46:Display/../../libs/PoliTeKDSP/libs/libDaisy/src/dev/oled_ssd130x.h ****     };
 6090              		.loc 11 46 30 view .LVU1478
 6091 0188 03AA     		add	r2, sp, #12
 6092 018a 0096     		str	r6, [sp]
 6093 018c 2046     		mov	r0, r4
 6094 018e 2179     		ldrb	r1, [r4, #4]	@ zero_extendqisi2
  45:Display/../../libs/PoliTeKDSP/libs/libDaisy/src/dev/oled_ssd130x.h ****         i2c_.TransmitBlocking(i2c_address_, buf, 2, 1000);
 6095              		.loc 11 45 36 view .LVU1479
 6096 0190 8DF80D30 		strb	r3, [sp, #13]
  46:Display/../../libs/PoliTeKDSP/libs/libDaisy/src/dev/oled_ssd130x.h ****     };
 6097              		.loc 11 46 9 is_stmt 1 view .LVU1480
  46:Display/../../libs/PoliTeKDSP/libs/libDaisy/src/dev/oled_ssd130x.h ****     };
 6098              		.loc 11 46 30 is_stmt 0 view .LVU1481
 6099 0194 0223     		movs	r3, #2
  45:Display/../../libs/PoliTeKDSP/libs/libDaisy/src/dev/oled_ssd130x.h ****         i2c_.TransmitBlocking(i2c_address_, buf, 2, 1000);
ARM GAS  C:\Users\skipi\AppData\Local\Temp\ccpgF6Mp.s 			page 168


 6100              		.loc 11 45 17 view .LVU1482
 6101 0196 8DF80C50 		strb	r5, [sp, #12]
  46:Display/../../libs/PoliTeKDSP/libs/libDaisy/src/dev/oled_ssd130x.h ****     };
 6102              		.loc 11 46 30 view .LVU1483
 6103 019a FFF7FEFF 		bl	_ZN5daisy9I2CHandle16TransmitBlockingEtPhtm
 6104              	.LVL455:
  46:Display/../../libs/PoliTeKDSP/libs/libDaisy/src/dev/oled_ssd130x.h ****     };
 6105              		.loc 11 46 30 view .LVU1484
 6106              	.LBE1668:
 6107              	.LBE1667:
 6108              	.LBB1669:
 6109              	.LBI1669:
  43:Display/../../libs/PoliTeKDSP/libs/libDaisy/src/dev/oled_ssd130x.h ****     {
 6110              		.loc 11 43 10 is_stmt 1 view .LVU1485
 6111              	.LBB1670:
  45:Display/../../libs/PoliTeKDSP/libs/libDaisy/src/dev/oled_ssd130x.h ****         i2c_.TransmitBlocking(i2c_address_, buf, 2, 1000);
 6112              		.loc 11 45 9 view .LVU1486
  45:Display/../../libs/PoliTeKDSP/libs/libDaisy/src/dev/oled_ssd130x.h ****         i2c_.TransmitBlocking(i2c_address_, buf, 2, 1000);
 6113              		.loc 11 45 36 is_stmt 0 view .LVU1487
 6114 019e 8123     		movs	r3, #129
  46:Display/../../libs/PoliTeKDSP/libs/libDaisy/src/dev/oled_ssd130x.h ****     };
 6115              		.loc 11 46 30 view .LVU1488
 6116 01a0 03AA     		add	r2, sp, #12
 6117 01a2 0096     		str	r6, [sp]
 6118 01a4 2046     		mov	r0, r4
 6119 01a6 2179     		ldrb	r1, [r4, #4]	@ zero_extendqisi2
  45:Display/../../libs/PoliTeKDSP/libs/libDaisy/src/dev/oled_ssd130x.h ****         i2c_.TransmitBlocking(i2c_address_, buf, 2, 1000);
 6120              		.loc 11 45 36 view .LVU1489
 6121 01a8 8DF80D30 		strb	r3, [sp, #13]
  46:Display/../../libs/PoliTeKDSP/libs/libDaisy/src/dev/oled_ssd130x.h ****     };
 6122              		.loc 11 46 9 is_stmt 1 view .LVU1490
  46:Display/../../libs/PoliTeKDSP/libs/libDaisy/src/dev/oled_ssd130x.h ****     };
 6123              		.loc 11 46 30 is_stmt 0 view .LVU1491
 6124 01ac 0223     		movs	r3, #2
  45:Display/../../libs/PoliTeKDSP/libs/libDaisy/src/dev/oled_ssd130x.h ****         i2c_.TransmitBlocking(i2c_address_, buf, 2, 1000);
 6125              		.loc 11 45 17 view .LVU1492
 6126 01ae 8DF80C50 		strb	r5, [sp, #12]
  46:Display/../../libs/PoliTeKDSP/libs/libDaisy/src/dev/oled_ssd130x.h ****     };
 6127              		.loc 11 46 30 view .LVU1493
 6128 01b2 FFF7FEFF 		bl	_ZN5daisy9I2CHandle16TransmitBlockingEtPhtm
 6129              	.LVL456:
  46:Display/../../libs/PoliTeKDSP/libs/libDaisy/src/dev/oled_ssd130x.h ****     };
 6130              		.loc 11 46 30 view .LVU1494
 6131              	.LBE1670:
 6132              	.LBE1669:
 6133              	.LBB1671:
 6134              	.LBI1671:
  43:Display/../../libs/PoliTeKDSP/libs/libDaisy/src/dev/oled_ssd130x.h ****     {
 6135              		.loc 11 43 10 is_stmt 1 view .LVU1495
 6136              	.LBB1672:
  45:Display/../../libs/PoliTeKDSP/libs/libDaisy/src/dev/oled_ssd130x.h ****         i2c_.TransmitBlocking(i2c_address_, buf, 2, 1000);
 6137              		.loc 11 45 9 view .LVU1496
  45:Display/../../libs/PoliTeKDSP/libs/libDaisy/src/dev/oled_ssd130x.h ****         i2c_.TransmitBlocking(i2c_address_, buf, 2, 1000);
 6138              		.loc 11 45 36 is_stmt 0 view .LVU1497
 6139 01b6 8F23     		movs	r3, #143
  46:Display/../../libs/PoliTeKDSP/libs/libDaisy/src/dev/oled_ssd130x.h ****     };
 6140              		.loc 11 46 30 view .LVU1498
ARM GAS  C:\Users\skipi\AppData\Local\Temp\ccpgF6Mp.s 			page 169


 6141 01b8 03AA     		add	r2, sp, #12
 6142 01ba 0096     		str	r6, [sp]
 6143 01bc 2046     		mov	r0, r4
 6144 01be 2179     		ldrb	r1, [r4, #4]	@ zero_extendqisi2
  45:Display/../../libs/PoliTeKDSP/libs/libDaisy/src/dev/oled_ssd130x.h ****         i2c_.TransmitBlocking(i2c_address_, buf, 2, 1000);
 6145              		.loc 11 45 36 view .LVU1499
 6146 01c0 8DF80D30 		strb	r3, [sp, #13]
  46:Display/../../libs/PoliTeKDSP/libs/libDaisy/src/dev/oled_ssd130x.h ****     };
 6147              		.loc 11 46 9 is_stmt 1 view .LVU1500
  46:Display/../../libs/PoliTeKDSP/libs/libDaisy/src/dev/oled_ssd130x.h ****     };
 6148              		.loc 11 46 30 is_stmt 0 view .LVU1501
 6149 01c4 0223     		movs	r3, #2
  45:Display/../../libs/PoliTeKDSP/libs/libDaisy/src/dev/oled_ssd130x.h ****         i2c_.TransmitBlocking(i2c_address_, buf, 2, 1000);
 6150              		.loc 11 45 17 view .LVU1502
 6151 01c6 8DF80C50 		strb	r5, [sp, #12]
  46:Display/../../libs/PoliTeKDSP/libs/libDaisy/src/dev/oled_ssd130x.h ****     };
 6152              		.loc 11 46 30 view .LVU1503
 6153 01ca FFF7FEFF 		bl	_ZN5daisy9I2CHandle16TransmitBlockingEtPhtm
 6154              	.LVL457:
  46:Display/../../libs/PoliTeKDSP/libs/libDaisy/src/dev/oled_ssd130x.h ****     };
 6155              		.loc 11 46 30 view .LVU1504
 6156              	.LBE1672:
 6157              	.LBE1671:
 6158              	.LBB1673:
 6159              	.LBI1673:
  43:Display/../../libs/PoliTeKDSP/libs/libDaisy/src/dev/oled_ssd130x.h ****     {
 6160              		.loc 11 43 10 is_stmt 1 view .LVU1505
 6161              	.LBB1674:
  45:Display/../../libs/PoliTeKDSP/libs/libDaisy/src/dev/oled_ssd130x.h ****         i2c_.TransmitBlocking(i2c_address_, buf, 2, 1000);
 6162              		.loc 11 45 9 view .LVU1506
  45:Display/../../libs/PoliTeKDSP/libs/libDaisy/src/dev/oled_ssd130x.h ****         i2c_.TransmitBlocking(i2c_address_, buf, 2, 1000);
 6163              		.loc 11 45 36 is_stmt 0 view .LVU1507
 6164 01ce D923     		movs	r3, #217
  46:Display/../../libs/PoliTeKDSP/libs/libDaisy/src/dev/oled_ssd130x.h ****     };
 6165              		.loc 11 46 30 view .LVU1508
 6166 01d0 03AA     		add	r2, sp, #12
 6167 01d2 0096     		str	r6, [sp]
 6168 01d4 2046     		mov	r0, r4
 6169 01d6 2179     		ldrb	r1, [r4, #4]	@ zero_extendqisi2
  45:Display/../../libs/PoliTeKDSP/libs/libDaisy/src/dev/oled_ssd130x.h ****         i2c_.TransmitBlocking(i2c_address_, buf, 2, 1000);
 6170              		.loc 11 45 36 view .LVU1509
 6171 01d8 8DF80D30 		strb	r3, [sp, #13]
  46:Display/../../libs/PoliTeKDSP/libs/libDaisy/src/dev/oled_ssd130x.h ****     };
 6172              		.loc 11 46 9 is_stmt 1 view .LVU1510
  46:Display/../../libs/PoliTeKDSP/libs/libDaisy/src/dev/oled_ssd130x.h ****     };
 6173              		.loc 11 46 30 is_stmt 0 view .LVU1511
 6174 01dc 0223     		movs	r3, #2
  45:Display/../../libs/PoliTeKDSP/libs/libDaisy/src/dev/oled_ssd130x.h ****         i2c_.TransmitBlocking(i2c_address_, buf, 2, 1000);
 6175              		.loc 11 45 17 view .LVU1512
 6176 01de 8DF80C50 		strb	r5, [sp, #12]
  46:Display/../../libs/PoliTeKDSP/libs/libDaisy/src/dev/oled_ssd130x.h ****     };
 6177              		.loc 11 46 30 view .LVU1513
 6178 01e2 FFF7FEFF 		bl	_ZN5daisy9I2CHandle16TransmitBlockingEtPhtm
 6179              	.LVL458:
  46:Display/../../libs/PoliTeKDSP/libs/libDaisy/src/dev/oled_ssd130x.h ****     };
 6180              		.loc 11 46 30 view .LVU1514
 6181              	.LBE1674:
ARM GAS  C:\Users\skipi\AppData\Local\Temp\ccpgF6Mp.s 			page 170


 6182              	.LBE1673:
 6183              	.LBB1675:
 6184              	.LBI1675:
  43:Display/../../libs/PoliTeKDSP/libs/libDaisy/src/dev/oled_ssd130x.h ****     {
 6185              		.loc 11 43 10 is_stmt 1 view .LVU1515
 6186              	.LBB1676:
  45:Display/../../libs/PoliTeKDSP/libs/libDaisy/src/dev/oled_ssd130x.h ****         i2c_.TransmitBlocking(i2c_address_, buf, 2, 1000);
 6187              		.loc 11 45 9 view .LVU1516
  45:Display/../../libs/PoliTeKDSP/libs/libDaisy/src/dev/oled_ssd130x.h ****         i2c_.TransmitBlocking(i2c_address_, buf, 2, 1000);
 6188              		.loc 11 45 36 is_stmt 0 view .LVU1517
 6189 01e6 2523     		movs	r3, #37
  46:Display/../../libs/PoliTeKDSP/libs/libDaisy/src/dev/oled_ssd130x.h ****     };
 6190              		.loc 11 46 30 view .LVU1518
 6191 01e8 03AA     		add	r2, sp, #12
 6192 01ea 0096     		str	r6, [sp]
 6193 01ec 2046     		mov	r0, r4
 6194 01ee 2179     		ldrb	r1, [r4, #4]	@ zero_extendqisi2
  45:Display/../../libs/PoliTeKDSP/libs/libDaisy/src/dev/oled_ssd130x.h ****         i2c_.TransmitBlocking(i2c_address_, buf, 2, 1000);
 6195              		.loc 11 45 36 view .LVU1519
 6196 01f0 8DF80D30 		strb	r3, [sp, #13]
  46:Display/../../libs/PoliTeKDSP/libs/libDaisy/src/dev/oled_ssd130x.h ****     };
 6197              		.loc 11 46 9 is_stmt 1 view .LVU1520
  46:Display/../../libs/PoliTeKDSP/libs/libDaisy/src/dev/oled_ssd130x.h ****     };
 6198              		.loc 11 46 30 is_stmt 0 view .LVU1521
 6199 01f4 0223     		movs	r3, #2
  45:Display/../../libs/PoliTeKDSP/libs/libDaisy/src/dev/oled_ssd130x.h ****         i2c_.TransmitBlocking(i2c_address_, buf, 2, 1000);
 6200              		.loc 11 45 17 view .LVU1522
 6201 01f6 8DF80C50 		strb	r5, [sp, #12]
  46:Display/../../libs/PoliTeKDSP/libs/libDaisy/src/dev/oled_ssd130x.h ****     };
 6202              		.loc 11 46 30 view .LVU1523
 6203 01fa FFF7FEFF 		bl	_ZN5daisy9I2CHandle16TransmitBlockingEtPhtm
 6204              	.LVL459:
  46:Display/../../libs/PoliTeKDSP/libs/libDaisy/src/dev/oled_ssd130x.h ****     };
 6205              		.loc 11 46 30 view .LVU1524
 6206              	.LBE1676:
 6207              	.LBE1675:
 6208              	.LBB1677:
 6209              	.LBI1677:
  43:Display/../../libs/PoliTeKDSP/libs/libDaisy/src/dev/oled_ssd130x.h ****     {
 6210              		.loc 11 43 10 is_stmt 1 view .LVU1525
 6211              	.LBB1678:
  45:Display/../../libs/PoliTeKDSP/libs/libDaisy/src/dev/oled_ssd130x.h ****         i2c_.TransmitBlocking(i2c_address_, buf, 2, 1000);
 6212              		.loc 11 45 9 view .LVU1526
  45:Display/../../libs/PoliTeKDSP/libs/libDaisy/src/dev/oled_ssd130x.h ****         i2c_.TransmitBlocking(i2c_address_, buf, 2, 1000);
 6213              		.loc 11 45 36 is_stmt 0 view .LVU1527
 6214 01fe DB23     		movs	r3, #219
  46:Display/../../libs/PoliTeKDSP/libs/libDaisy/src/dev/oled_ssd130x.h ****     };
 6215              		.loc 11 46 30 view .LVU1528
 6216 0200 03AA     		add	r2, sp, #12
 6217 0202 0096     		str	r6, [sp]
 6218 0204 2046     		mov	r0, r4
 6219 0206 2179     		ldrb	r1, [r4, #4]	@ zero_extendqisi2
  45:Display/../../libs/PoliTeKDSP/libs/libDaisy/src/dev/oled_ssd130x.h ****         i2c_.TransmitBlocking(i2c_address_, buf, 2, 1000);
 6220              		.loc 11 45 36 view .LVU1529
 6221 0208 8DF80D30 		strb	r3, [sp, #13]
  46:Display/../../libs/PoliTeKDSP/libs/libDaisy/src/dev/oled_ssd130x.h ****     };
 6222              		.loc 11 46 9 is_stmt 1 view .LVU1530
ARM GAS  C:\Users\skipi\AppData\Local\Temp\ccpgF6Mp.s 			page 171


  46:Display/../../libs/PoliTeKDSP/libs/libDaisy/src/dev/oled_ssd130x.h ****     };
 6223              		.loc 11 46 30 is_stmt 0 view .LVU1531
 6224 020c 0223     		movs	r3, #2
  45:Display/../../libs/PoliTeKDSP/libs/libDaisy/src/dev/oled_ssd130x.h ****         i2c_.TransmitBlocking(i2c_address_, buf, 2, 1000);
 6225              		.loc 11 45 17 view .LVU1532
 6226 020e 8DF80C50 		strb	r5, [sp, #12]
  46:Display/../../libs/PoliTeKDSP/libs/libDaisy/src/dev/oled_ssd130x.h ****     };
 6227              		.loc 11 46 30 view .LVU1533
 6228 0212 FFF7FEFF 		bl	_ZN5daisy9I2CHandle16TransmitBlockingEtPhtm
 6229              	.LVL460:
  46:Display/../../libs/PoliTeKDSP/libs/libDaisy/src/dev/oled_ssd130x.h ****     };
 6230              		.loc 11 46 30 view .LVU1534
 6231              	.LBE1678:
 6232              	.LBE1677:
 6233              	.LBB1679:
 6234              	.LBI1679:
  43:Display/../../libs/PoliTeKDSP/libs/libDaisy/src/dev/oled_ssd130x.h ****     {
 6235              		.loc 11 43 10 is_stmt 1 view .LVU1535
 6236              	.LBB1680:
  45:Display/../../libs/PoliTeKDSP/libs/libDaisy/src/dev/oled_ssd130x.h ****         i2c_.TransmitBlocking(i2c_address_, buf, 2, 1000);
 6237              		.loc 11 45 9 view .LVU1536
  45:Display/../../libs/PoliTeKDSP/libs/libDaisy/src/dev/oled_ssd130x.h ****         i2c_.TransmitBlocking(i2c_address_, buf, 2, 1000);
 6238              		.loc 11 45 36 is_stmt 0 view .LVU1537
 6239 0216 3423     		movs	r3, #52
  46:Display/../../libs/PoliTeKDSP/libs/libDaisy/src/dev/oled_ssd130x.h ****     };
 6240              		.loc 11 46 30 view .LVU1538
 6241 0218 03AA     		add	r2, sp, #12
 6242 021a 0096     		str	r6, [sp]
 6243 021c 2046     		mov	r0, r4
 6244 021e 2179     		ldrb	r1, [r4, #4]	@ zero_extendqisi2
  45:Display/../../libs/PoliTeKDSP/libs/libDaisy/src/dev/oled_ssd130x.h ****         i2c_.TransmitBlocking(i2c_address_, buf, 2, 1000);
 6245              		.loc 11 45 36 view .LVU1539
 6246 0220 8DF80D30 		strb	r3, [sp, #13]
  46:Display/../../libs/PoliTeKDSP/libs/libDaisy/src/dev/oled_ssd130x.h ****     };
 6247              		.loc 11 46 9 is_stmt 1 view .LVU1540
  46:Display/../../libs/PoliTeKDSP/libs/libDaisy/src/dev/oled_ssd130x.h ****     };
 6248              		.loc 11 46 30 is_stmt 0 view .LVU1541
 6249 0224 0223     		movs	r3, #2
  45:Display/../../libs/PoliTeKDSP/libs/libDaisy/src/dev/oled_ssd130x.h ****         i2c_.TransmitBlocking(i2c_address_, buf, 2, 1000);
 6250              		.loc 11 45 17 view .LVU1542
 6251 0226 8DF80C50 		strb	r5, [sp, #12]
  46:Display/../../libs/PoliTeKDSP/libs/libDaisy/src/dev/oled_ssd130x.h ****     };
 6252              		.loc 11 46 30 view .LVU1543
 6253 022a FFF7FEFF 		bl	_ZN5daisy9I2CHandle16TransmitBlockingEtPhtm
 6254              	.LVL461:
  46:Display/../../libs/PoliTeKDSP/libs/libDaisy/src/dev/oled_ssd130x.h ****     };
 6255              		.loc 11 46 30 view .LVU1544
 6256              	.LBE1680:
 6257              	.LBE1679:
 6258              	.LBB1681:
 6259              	.LBI1681:
  43:Display/../../libs/PoliTeKDSP/libs/libDaisy/src/dev/oled_ssd130x.h ****     {
 6260              		.loc 11 43 10 is_stmt 1 view .LVU1545
 6261              	.LBB1682:
  45:Display/../../libs/PoliTeKDSP/libs/libDaisy/src/dev/oled_ssd130x.h ****         i2c_.TransmitBlocking(i2c_address_, buf, 2, 1000);
 6262              		.loc 11 45 9 view .LVU1546
  45:Display/../../libs/PoliTeKDSP/libs/libDaisy/src/dev/oled_ssd130x.h ****         i2c_.TransmitBlocking(i2c_address_, buf, 2, 1000);
ARM GAS  C:\Users\skipi\AppData\Local\Temp\ccpgF6Mp.s 			page 172


 6263              		.loc 11 45 36 is_stmt 0 view .LVU1547
 6264 022e AF21     		movs	r1, #175
  46:Display/../../libs/PoliTeKDSP/libs/libDaisy/src/dev/oled_ssd130x.h ****     };
 6265              		.loc 11 46 30 view .LVU1548
 6266 0230 0096     		str	r6, [sp]
 6267 0232 03AA     		add	r2, sp, #12
 6268 0234 0223     		movs	r3, #2
  45:Display/../../libs/PoliTeKDSP/libs/libDaisy/src/dev/oled_ssd130x.h ****         i2c_.TransmitBlocking(i2c_address_, buf, 2, 1000);
 6269              		.loc 11 45 36 view .LVU1549
 6270 0236 8DF80D10 		strb	r1, [sp, #13]
  46:Display/../../libs/PoliTeKDSP/libs/libDaisy/src/dev/oled_ssd130x.h ****     };
 6271              		.loc 11 46 9 is_stmt 1 view .LVU1550
  46:Display/../../libs/PoliTeKDSP/libs/libDaisy/src/dev/oled_ssd130x.h ****     };
 6272              		.loc 11 46 30 is_stmt 0 view .LVU1551
 6273 023a 2046     		mov	r0, r4
 6274 023c 2179     		ldrb	r1, [r4, #4]	@ zero_extendqisi2
  45:Display/../../libs/PoliTeKDSP/libs/libDaisy/src/dev/oled_ssd130x.h ****         i2c_.TransmitBlocking(i2c_address_, buf, 2, 1000);
 6275              		.loc 11 45 17 view .LVU1552
 6276 023e 8DF80C50 		strb	r5, [sp, #12]
  46:Display/../../libs/PoliTeKDSP/libs/libDaisy/src/dev/oled_ssd130x.h ****     };
 6277              		.loc 11 46 30 view .LVU1553
 6278 0242 FFF7FEFF 		bl	_ZN5daisy9I2CHandle16TransmitBlockingEtPhtm
 6279              	.LVL462:
  46:Display/../../libs/PoliTeKDSP/libs/libDaisy/src/dev/oled_ssd130x.h ****     };
 6280              		.loc 11 46 30 view .LVU1554
 6281              	.LBE1682:
 6282              	.LBE1681:
 356:Display/../../libs/PoliTeKDSP/libs/libDaisy/src/dev/oled_ssd130x.h **** 
 6283              		.loc 11 356 5 view .LVU1555
 6284 0246 04B0     		add	sp, sp, #16
 6285              		.cfi_def_cfa_offset 32
 6286              		@ sp needed
 6287 0248 BDE87040 		pop	{r4, r5, r6, lr}
 6288              		.cfi_restore 14
 6289              		.cfi_restore 6
 6290              		.cfi_restore 5
 6291              		.cfi_restore 4
 6292              		.cfi_def_cfa_offset 16
 6293              	.LVL463:
 356:Display/../../libs/PoliTeKDSP/libs/libDaisy/src/dev/oled_ssd130x.h **** 
 6294              		.loc 11 356 5 view .LVU1556
 6295 024c 04B0     		add	sp, sp, #16
 6296              		.cfi_def_cfa_offset 0
 6297 024e 7047     		bx	lr
 6298              		.cfi_endproc
 6299              	.LFE5566:
 6301              		.section	.rodata.main.str1.4,"aMS",%progbits,1
 6302              		.align	2
 6303              	.LC0:
 6304 0000 44454C54 		.ascii	"DELTA\000"
 6304      4100
 6305 0006 0000     		.align	2
 6306              	.LC1:
 6307 0008 43555256 		.ascii	"CURVE\000"
 6307      4500
 6308 000e 0000     		.align	2
 6309              	.LC2:
ARM GAS  C:\Users\skipi\AppData\Local\Temp\ccpgF6Mp.s 			page 173


 6310 0010 524F4F54 		.ascii	"ROOT\000"
 6310      00
 6311 0015 000000   		.align	2
 6312              	.LC3:
 6313 0018 5343414C 		.ascii	"SCALE\000"
 6313      4500
 6314 001e 0000     		.align	2
 6315              	.LC4:
 6316 0020 4F435441 		.ascii	"OCTAVE\000"
 6316      564500
 6317 0027 00       		.align	2
 6318              	.LC5:
 6319 0028 50524553 		.ascii	"PRESET\000"
 6319      455400
 6320              		.section	.text.startup.main,"ax",%progbits
 6321              		.align	1
 6322              		.p2align 2,,3
 6323              		.global	main
 6324              		.syntax unified
 6325              		.thumb
 6326              		.thumb_func
 6327              		.fpu fpv5-d16
 6329              	main:
 6330              	.LFB5120:
  35:main.cpp      **** 
  36:main.cpp      **** int main() {
 6331              		.loc 12 36 12 is_stmt 1 view -0
 6332              		.cfi_startproc
 6333              		@ args = 0, pretend = 0, frame = 48
 6334              		@ frame_needed = 0, uses_anonymous_args = 0
  37:main.cpp      ****     hw.Init();
 6335              		.loc 12 37 5 view .LVU1558
  36:main.cpp      ****     hw.Init();
 6336              		.loc 12 36 12 is_stmt 0 view .LVU1559
 6337 0000 2DE9F04F 		push	{r4, r5, r6, r7, r8, r9, r10, fp, lr}
 6338              		.cfi_def_cfa_offset 36
 6339              		.cfi_offset 4, -36
 6340              		.cfi_offset 5, -32
 6341              		.cfi_offset 6, -28
 6342              		.cfi_offset 7, -24
 6343              		.cfi_offset 8, -20
 6344              		.cfi_offset 9, -16
 6345              		.cfi_offset 10, -12
 6346              		.cfi_offset 11, -8
 6347              		.cfi_offset 14, -4
 6348              		.loc 12 37 12 view .LVU1560
 6349 0004 0021     		movs	r1, #0
 6350 0006 9A48     		ldr	r0, .L454
 6351 0008 0026     		movs	r6, #0
 6352 000a 0225     		movs	r5, #2
 6353 000c 994C     		ldr	r4, .L454+4
 6354 000e DFF8A0B2 		ldr	fp, .L454+64
  36:main.cpp      ****     hw.Init();
 6355              		.loc 12 36 12 view .LVU1561
 6356 0012 2DED028B 		vpush.64	{d8}
 6357              		.cfi_def_cfa_offset 44
 6358              		.cfi_offset 80, -44
ARM GAS  C:\Users\skipi\AppData\Local\Temp\ccpgF6Mp.s 			page 174


 6359              		.cfi_offset 81, -40
 6360 0016 91B0     		sub	sp, sp, #68
 6361              		.cfi_def_cfa_offset 112
 6362              		.loc 12 37 12 view .LVU1562
 6363 0018 FFF7FEFF 		bl	_ZN5daisy9DaisySeed4InitEb
 6364              	.LVL464:
  38:main.cpp      **** 
  39:main.cpp      ****     // Inizializzazione fisica encoder (Pin 13, 14, 10)
  40:main.cpp      ****     enc.Init(hw.GetPin(13), hw.GetPin(14), hw.GetPin(10));
 6365              		.loc 12 40 5 is_stmt 1 view .LVU1563
 6366              		.loc 12 40 13 is_stmt 0 view .LVU1564
 6367 001c 0D20     		movs	r0, #13
 6368 001e FFF7FEFF 		bl	_ZN5daisy9DaisySeed6GetPinEh
 6369              	.LVL465:
 6370 0022 0346     		mov	r3, r0	@ movhi
 6371 0024 0E20     		movs	r0, #14
 6372 0026 ADF81C30 		strh	r3, [sp, #28]	@ movhi
 6373 002a FFF7FEFF 		bl	_ZN5daisy9DaisySeed6GetPinEh
 6374              	.LVL466:
 6375 002e 0346     		mov	r3, r0	@ movhi
 6376 0030 0A20     		movs	r0, #10
 6377 0032 ADF82030 		strh	r3, [sp, #32]	@ movhi
 6378 0036 FFF7FEFF 		bl	_ZN5daisy9DaisySeed6GetPinEh
 6379              	.LVL467:
 6380 003a ADF82400 		strh	r0, [sp, #36]	@ movhi
 6381 003e 9FED8E0A 		vldr.32	s0, .L454+8
 6382 0042 099B     		ldr	r3, [sp, #36]
 6383 0044 8D48     		ldr	r0, .L454+12
 6384 0046 DDE90712 		ldrd	r1, r2, [sp, #28]
 6385 004a FFF7FEFF 		bl	_ZN5daisy7Encoder4InitENS_3PinES1_S1_f
 6386              	.LVL468:
  41:main.cpp      ****     menu.Init();
 6387              		.loc 12 41 5 is_stmt 1 view .LVU1565
 6388              		.loc 12 41 14 is_stmt 0 view .LVU1566
 6389 004e 8948     		ldr	r0, .L454+4
 6390 0050 FFF7FEFF 		bl	_ZN11MenuManager4InitEv
 6391              	.LVL469:
  42:main.cpp      **** 
  43:main.cpp      ****     // Inizializzazione Display
  44:main.cpp      ****     MyOledDisplay::Config disp_cfg;
 6392              		.loc 12 44 5 is_stmt 1 view .LVU1567
 6393              	.LBB1683:
 6394              	.LBI1683:
  20:../libs/PoliTeKDSP/libs/libDaisy/src/hid/disp/oled_display.h ****     {
 6395              		.loc 9 20 12 view .LVU1568
 6396              	.LBB1684:
 6397              	.LBI1684:
 257:Display/../../libs/PoliTeKDSP/libs/libDaisy/src/dev/oled_ssd130x.h ****     {
 6398              		.loc 11 257 12 view .LVU1569
 6399              	.LBB1685:
 6400              	.LBI1685:
  21:Display/../../libs/PoliTeKDSP/libs/libDaisy/src/dev/oled_ssd130x.h ****         {
 6401              		.loc 11 21 9 view .LVU1570
 6402              	.LBB1686:
 6403              	.LBI1686:
 6404              		.file 15 "../libs/PoliTeKDSP/libs/libDaisy/src/per/i2c.h"
   1:../libs/PoliTeKDSP/libs/libDaisy/src/per/i2c.h **** #pragma once
ARM GAS  C:\Users\skipi\AppData\Local\Temp\ccpgF6Mp.s 			page 175


   2:../libs/PoliTeKDSP/libs/libDaisy/src/per/i2c.h **** #include "util/hal_map.h"
   3:../libs/PoliTeKDSP/libs/libDaisy/src/per/i2c.h **** #include "daisy_core.h"
   4:../libs/PoliTeKDSP/libs/libDaisy/src/per/i2c.h **** 
   5:../libs/PoliTeKDSP/libs/libDaisy/src/per/i2c.h **** namespace daisy
   6:../libs/PoliTeKDSP/libs/libDaisy/src/per/i2c.h **** {
   7:../libs/PoliTeKDSP/libs/libDaisy/src/per/i2c.h **** /** A handle for interacting with an I2C peripheral. This is a dumb
   8:../libs/PoliTeKDSP/libs/libDaisy/src/per/i2c.h ****  *  gateway that internally points to one of the four I2C peripherals
   9:../libs/PoliTeKDSP/libs/libDaisy/src/per/i2c.h ****  *  after it was initialised. It can then be copied and passed around.
  10:../libs/PoliTeKDSP/libs/libDaisy/src/per/i2c.h ****  *  Use an I2CHandle like this:
  11:../libs/PoliTeKDSP/libs/libDaisy/src/per/i2c.h ****  *  
  12:../libs/PoliTeKDSP/libs/libDaisy/src/per/i2c.h ****  *      // setup the configuration
  13:../libs/PoliTeKDSP/libs/libDaisy/src/per/i2c.h ****  *      I2CHandle::Config i2c_conf;
  14:../libs/PoliTeKDSP/libs/libDaisy/src/per/i2c.h ****  *      i2c_conf.periph = I2CHandle::Config::Peripheral::I2C_1;
  15:../libs/PoliTeKDSP/libs/libDaisy/src/per/i2c.h ****  *      i2c_conf.speed  = I2CHandle::Config::Speed::I2C_400KHZ;
  16:../libs/PoliTeKDSP/libs/libDaisy/src/per/i2c.h ****  *      i2c_conf.mode   = I2CHandle::Config::Mode::Master;
  17:../libs/PoliTeKDSP/libs/libDaisy/src/per/i2c.h ****  *      i2c_conf.pin_config.scl  = {DSY_GPIOB, 8};
  18:../libs/PoliTeKDSP/libs/libDaisy/src/per/i2c.h ****  *      i2c_conf.pin_config.sda  = {DSY_GPIOB, 9};
  19:../libs/PoliTeKDSP/libs/libDaisy/src/per/i2c.h ****  *      // initialise the peripheral
  20:../libs/PoliTeKDSP/libs/libDaisy/src/per/i2c.h ****  *      I2CHandle i2c;
  21:../libs/PoliTeKDSP/libs/libDaisy/src/per/i2c.h ****  *      i2c.Init(i2c_conf);
  22:../libs/PoliTeKDSP/libs/libDaisy/src/per/i2c.h ****  *      // now i2c points to the corresponding peripheral and can be used.
  23:../libs/PoliTeKDSP/libs/libDaisy/src/per/i2c.h ****  *      i2c.TransmitBlocking( ... );
  24:../libs/PoliTeKDSP/libs/libDaisy/src/per/i2c.h ****  */
  25:../libs/PoliTeKDSP/libs/libDaisy/src/per/i2c.h **** class I2CHandle
  26:../libs/PoliTeKDSP/libs/libDaisy/src/per/i2c.h **** {
  27:../libs/PoliTeKDSP/libs/libDaisy/src/per/i2c.h ****   public:
  28:../libs/PoliTeKDSP/libs/libDaisy/src/per/i2c.h ****     /** Contains settings for initialising an I2C interface. */
  29:../libs/PoliTeKDSP/libs/libDaisy/src/per/i2c.h ****     struct Config
 6405              		.loc 15 29 12 view .LVU1571
 6406              	.LBB1687:
 6407              	.LBI1687:
  30:../libs/PoliTeKDSP/libs/libDaisy/src/per/i2c.h ****     {
  31:../libs/PoliTeKDSP/libs/libDaisy/src/per/i2c.h ****         /** Specifies whether the interface will operate in master or slave mode. */
  32:../libs/PoliTeKDSP/libs/libDaisy/src/per/i2c.h ****         enum class Mode
  33:../libs/PoliTeKDSP/libs/libDaisy/src/per/i2c.h ****         {
  34:../libs/PoliTeKDSP/libs/libDaisy/src/per/i2c.h ****             I2C_MASTER,
  35:../libs/PoliTeKDSP/libs/libDaisy/src/per/i2c.h ****             I2C_SLAVE,
  36:../libs/PoliTeKDSP/libs/libDaisy/src/per/i2c.h ****         };
  37:../libs/PoliTeKDSP/libs/libDaisy/src/per/i2c.h **** 
  38:../libs/PoliTeKDSP/libs/libDaisy/src/per/i2c.h ****         /** Specifices the internal peripheral to use (these are mapped to different pins on the ha
  39:../libs/PoliTeKDSP/libs/libDaisy/src/per/i2c.h ****         enum class Peripheral
  40:../libs/PoliTeKDSP/libs/libDaisy/src/per/i2c.h ****         {
  41:../libs/PoliTeKDSP/libs/libDaisy/src/per/i2c.h ****             I2C_1 = 0, /**< & */
  42:../libs/PoliTeKDSP/libs/libDaisy/src/per/i2c.h ****             I2C_2,     /**< & */
  43:../libs/PoliTeKDSP/libs/libDaisy/src/per/i2c.h ****             I2C_3,     /**< & */
  44:../libs/PoliTeKDSP/libs/libDaisy/src/per/i2c.h ****             I2C_4,     /**< & */
  45:../libs/PoliTeKDSP/libs/libDaisy/src/per/i2c.h ****         };
  46:../libs/PoliTeKDSP/libs/libDaisy/src/per/i2c.h **** 
  47:../libs/PoliTeKDSP/libs/libDaisy/src/per/i2c.h ****         /** Rate at which the clock/data will be sent/received. The device being used will have max
  48:../libs/PoliTeKDSP/libs/libDaisy/src/per/i2c.h ****          *  1MHZ Mode is currently 886kHz
  49:../libs/PoliTeKDSP/libs/libDaisy/src/per/i2c.h ****          */
  50:../libs/PoliTeKDSP/libs/libDaisy/src/per/i2c.h ****         enum class Speed
  51:../libs/PoliTeKDSP/libs/libDaisy/src/per/i2c.h ****         {
  52:../libs/PoliTeKDSP/libs/libDaisy/src/per/i2c.h ****             I2C_100KHZ, /**< & */
  53:../libs/PoliTeKDSP/libs/libDaisy/src/per/i2c.h ****             I2C_400KHZ, /**< & */
  54:../libs/PoliTeKDSP/libs/libDaisy/src/per/i2c.h ****             I2C_1MHZ,   /**< & */
  55:../libs/PoliTeKDSP/libs/libDaisy/src/per/i2c.h ****         };
ARM GAS  C:\Users\skipi\AppData\Local\Temp\ccpgF6Mp.s 			page 176


  56:../libs/PoliTeKDSP/libs/libDaisy/src/per/i2c.h **** 
  57:../libs/PoliTeKDSP/libs/libDaisy/src/per/i2c.h ****         Peripheral periph; /**< & */
  58:../libs/PoliTeKDSP/libs/libDaisy/src/per/i2c.h ****         struct
  59:../libs/PoliTeKDSP/libs/libDaisy/src/per/i2c.h ****         {
 6408              		.loc 15 59 9 view .LVU1572
 6409              	.LBB1688:
 6410              	.LBI1688:
 6411              		.file 16 "../libs/PoliTeKDSP/libs/libDaisy/src/daisy_core.h"
   1:../libs/PoliTeKDSP/libs/libDaisy/src/daisy_core.h **** #pragma once
   2:../libs/PoliTeKDSP/libs/libDaisy/src/daisy_core.h **** #ifndef DSY_CORE_HW_H
   3:../libs/PoliTeKDSP/libs/libDaisy/src/daisy_core.h **** #define DSY_CORE_HW_H /**< & */
   4:../libs/PoliTeKDSP/libs/libDaisy/src/daisy_core.h **** #include <stdint.h>
   5:../libs/PoliTeKDSP/libs/libDaisy/src/daisy_core.h **** #include <stdlib.h>
   6:../libs/PoliTeKDSP/libs/libDaisy/src/daisy_core.h **** 
   7:../libs/PoliTeKDSP/libs/libDaisy/src/daisy_core.h **** #if defined(_MSC_VER)
   8:../libs/PoliTeKDSP/libs/libDaisy/src/daisy_core.h **** #define FORCE_INLINE __forceinline /**< & */
   9:../libs/PoliTeKDSP/libs/libDaisy/src/daisy_core.h **** #elif defined(__clang__)
  10:../libs/PoliTeKDSP/libs/libDaisy/src/daisy_core.h **** #define FORCE_INLINE inline __attribute__((always_inline)) /**< & */
  11:../libs/PoliTeKDSP/libs/libDaisy/src/daisy_core.h **** #pragma clang diagnostic ignored "-Wduplicate-decl-specifier"
  12:../libs/PoliTeKDSP/libs/libDaisy/src/daisy_core.h **** #elif defined(__GNUC__)
  13:../libs/PoliTeKDSP/libs/libDaisy/src/daisy_core.h **** #define FORCE_INLINE inline __attribute__((always_inline)) /**< & */
  14:../libs/PoliTeKDSP/libs/libDaisy/src/daisy_core.h **** #else
  15:../libs/PoliTeKDSP/libs/libDaisy/src/daisy_core.h **** #error unknown compiler
  16:../libs/PoliTeKDSP/libs/libDaisy/src/daisy_core.h **** #endif
  17:../libs/PoliTeKDSP/libs/libDaisy/src/daisy_core.h **** 
  18:../libs/PoliTeKDSP/libs/libDaisy/src/daisy_core.h **** /** @addtogroup utility
  19:../libs/PoliTeKDSP/libs/libDaisy/src/daisy_core.h ****     @{
  20:../libs/PoliTeKDSP/libs/libDaisy/src/daisy_core.h **** */
  21:../libs/PoliTeKDSP/libs/libDaisy/src/daisy_core.h **** 
  22:../libs/PoliTeKDSP/libs/libDaisy/src/daisy_core.h **** /** Macro for area of memory that is configured as cacheless
  23:../libs/PoliTeKDSP/libs/libDaisy/src/daisy_core.h **** This should be used primarily for DMA buffers, and the like.
  24:../libs/PoliTeKDSP/libs/libDaisy/src/daisy_core.h **** */
  25:../libs/PoliTeKDSP/libs/libDaisy/src/daisy_core.h **** #define DMA_BUFFER_MEM_SECTION __attribute__((section(".sram1_bss")))
  26:../libs/PoliTeKDSP/libs/libDaisy/src/daisy_core.h **** /** 
  27:../libs/PoliTeKDSP/libs/libDaisy/src/daisy_core.h **** THE DTCM RAM section is also non-cached. However, is not suitable 
  28:../libs/PoliTeKDSP/libs/libDaisy/src/daisy_core.h **** for DMA transfers. Performance is on par with internal SRAM w/ 
  29:../libs/PoliTeKDSP/libs/libDaisy/src/daisy_core.h **** cache enabled.
  30:../libs/PoliTeKDSP/libs/libDaisy/src/daisy_core.h **** */
  31:../libs/PoliTeKDSP/libs/libDaisy/src/daisy_core.h **** #define DTCM_MEM_SECTION __attribute__((section(".dtcmram_bss")))
  32:../libs/PoliTeKDSP/libs/libDaisy/src/daisy_core.h **** 
  33:../libs/PoliTeKDSP/libs/libDaisy/src/daisy_core.h **** #define FBIPMAX 0.999985f             /**< close to 1.0f-LSB at 16 bit */
  34:../libs/PoliTeKDSP/libs/libDaisy/src/daisy_core.h **** #define FBIPMIN (-FBIPMAX)            /**< - (1 - LSB) */
  35:../libs/PoliTeKDSP/libs/libDaisy/src/daisy_core.h **** #define U82F_SCALE 0.0078740f         /**< 1 / 127 */
  36:../libs/PoliTeKDSP/libs/libDaisy/src/daisy_core.h **** #define F2U8_SCALE 127.0f             /**< 128 - 1 */
  37:../libs/PoliTeKDSP/libs/libDaisy/src/daisy_core.h **** #define S82F_SCALE 0.0078125f         /**< 1 / (2**7) */
  38:../libs/PoliTeKDSP/libs/libDaisy/src/daisy_core.h **** #define F2S8_SCALE 127.0f             /**< (2 ** 7) - 1 */
  39:../libs/PoliTeKDSP/libs/libDaisy/src/daisy_core.h **** #define S162F_SCALE 3.0517578125e-05f /**< 1 / (2** 15) */
  40:../libs/PoliTeKDSP/libs/libDaisy/src/daisy_core.h **** #define F2S16_SCALE 32767.0f          /**< (2 ** 15) - 1 */
  41:../libs/PoliTeKDSP/libs/libDaisy/src/daisy_core.h **** #define F2S24_SCALE 8388608.0f        /**< 2 ** 23 */
  42:../libs/PoliTeKDSP/libs/libDaisy/src/daisy_core.h **** #define S242F_SCALE 1.192092896e-07f  /**< 1 / (2 ** 23) */
  43:../libs/PoliTeKDSP/libs/libDaisy/src/daisy_core.h **** #define S24SIGN 0x800000              /**< 2 ** 23 */
  44:../libs/PoliTeKDSP/libs/libDaisy/src/daisy_core.h **** #define S322F_SCALE 4.6566129e-10f    /**< 1 / (2** 31) */
  45:../libs/PoliTeKDSP/libs/libDaisy/src/daisy_core.h **** #define F2S32_SCALE 2147483647.f      /**< (2 ** 31) - 1 */
  46:../libs/PoliTeKDSP/libs/libDaisy/src/daisy_core.h **** 
  47:../libs/PoliTeKDSP/libs/libDaisy/src/daisy_core.h **** 
  48:../libs/PoliTeKDSP/libs/libDaisy/src/daisy_core.h **** /** shorthand macro for simplifying the reading of the left 
  49:../libs/PoliTeKDSP/libs/libDaisy/src/daisy_core.h ****  *  channel of a non-interleaved output buffer named out */
ARM GAS  C:\Users\skipi\AppData\Local\Temp\ccpgF6Mp.s 			page 177


  50:../libs/PoliTeKDSP/libs/libDaisy/src/daisy_core.h **** #define OUT_L out[0]
  51:../libs/PoliTeKDSP/libs/libDaisy/src/daisy_core.h **** 
  52:../libs/PoliTeKDSP/libs/libDaisy/src/daisy_core.h **** /** shorthand macro for simplifying the reading of the right 
  53:../libs/PoliTeKDSP/libs/libDaisy/src/daisy_core.h ****  *  channel of a non-interleaved output buffer named out */
  54:../libs/PoliTeKDSP/libs/libDaisy/src/daisy_core.h **** #define OUT_R out[1]
  55:../libs/PoliTeKDSP/libs/libDaisy/src/daisy_core.h **** 
  56:../libs/PoliTeKDSP/libs/libDaisy/src/daisy_core.h **** /** shorthand macro for simplifying the reading of the left 
  57:../libs/PoliTeKDSP/libs/libDaisy/src/daisy_core.h ****  *  channel of a non-interleaved input buffer named in */
  58:../libs/PoliTeKDSP/libs/libDaisy/src/daisy_core.h **** #define IN_L in[0]
  59:../libs/PoliTeKDSP/libs/libDaisy/src/daisy_core.h **** 
  60:../libs/PoliTeKDSP/libs/libDaisy/src/daisy_core.h **** /** shorthand macro for simplifying the reading of the right 
  61:../libs/PoliTeKDSP/libs/libDaisy/src/daisy_core.h ****  *  channel of a non-interleaved input buffer named in */
  62:../libs/PoliTeKDSP/libs/libDaisy/src/daisy_core.h **** #define IN_R in[1]
  63:../libs/PoliTeKDSP/libs/libDaisy/src/daisy_core.h **** 
  64:../libs/PoliTeKDSP/libs/libDaisy/src/daisy_core.h **** /** 
  65:../libs/PoliTeKDSP/libs/libDaisy/src/daisy_core.h ****     Computes cube.
  66:../libs/PoliTeKDSP/libs/libDaisy/src/daisy_core.h ****     \param x Number to be cubed
  67:../libs/PoliTeKDSP/libs/libDaisy/src/daisy_core.h ****     \return x ^ 3
  68:../libs/PoliTeKDSP/libs/libDaisy/src/daisy_core.h **** */
  69:../libs/PoliTeKDSP/libs/libDaisy/src/daisy_core.h **** FORCE_INLINE float cube(float x)
  70:../libs/PoliTeKDSP/libs/libDaisy/src/daisy_core.h **** {
  71:../libs/PoliTeKDSP/libs/libDaisy/src/daisy_core.h ****     return (x * x) * x;
  72:../libs/PoliTeKDSP/libs/libDaisy/src/daisy_core.h **** }
  73:../libs/PoliTeKDSP/libs/libDaisy/src/daisy_core.h **** 
  74:../libs/PoliTeKDSP/libs/libDaisy/src/daisy_core.h **** /** 
  75:../libs/PoliTeKDSP/libs/libDaisy/src/daisy_core.h ****     Converts unsigned 8-bit to float
  76:../libs/PoliTeKDSP/libs/libDaisy/src/daisy_core.h ****     \param x Number to be scaled.
  77:../libs/PoliTeKDSP/libs/libDaisy/src/daisy_core.h ****     \return Scaled number.
  78:../libs/PoliTeKDSP/libs/libDaisy/src/daisy_core.h **** */
  79:../libs/PoliTeKDSP/libs/libDaisy/src/daisy_core.h **** FORCE_INLINE float u82f(uint8_t x)
  80:../libs/PoliTeKDSP/libs/libDaisy/src/daisy_core.h **** {
  81:../libs/PoliTeKDSP/libs/libDaisy/src/daisy_core.h ****     return ((float)x - 127.f) * U82F_SCALE;
  82:../libs/PoliTeKDSP/libs/libDaisy/src/daisy_core.h **** }
  83:../libs/PoliTeKDSP/libs/libDaisy/src/daisy_core.h **** 
  84:../libs/PoliTeKDSP/libs/libDaisy/src/daisy_core.h **** /**
  85:../libs/PoliTeKDSP/libs/libDaisy/src/daisy_core.h ****     Converts float to unsigned 8-bit
  86:../libs/PoliTeKDSP/libs/libDaisy/src/daisy_core.h **** */
  87:../libs/PoliTeKDSP/libs/libDaisy/src/daisy_core.h **** FORCE_INLINE uint8_t f2u8(float x)
  88:../libs/PoliTeKDSP/libs/libDaisy/src/daisy_core.h **** {
  89:../libs/PoliTeKDSP/libs/libDaisy/src/daisy_core.h ****     x = x <= FBIPMIN ? FBIPMIN : x;
  90:../libs/PoliTeKDSP/libs/libDaisy/src/daisy_core.h ****     x = x >= FBIPMAX ? FBIPMAX : x;
  91:../libs/PoliTeKDSP/libs/libDaisy/src/daisy_core.h ****     return (uint8_t)((x * F2U8_SCALE) + F2U8_SCALE);
  92:../libs/PoliTeKDSP/libs/libDaisy/src/daisy_core.h **** }
  93:../libs/PoliTeKDSP/libs/libDaisy/src/daisy_core.h **** 
  94:../libs/PoliTeKDSP/libs/libDaisy/src/daisy_core.h **** 
  95:../libs/PoliTeKDSP/libs/libDaisy/src/daisy_core.h **** /** 
  96:../libs/PoliTeKDSP/libs/libDaisy/src/daisy_core.h ****     Converts Signed 8-bit to float
  97:../libs/PoliTeKDSP/libs/libDaisy/src/daisy_core.h ****     \param x Number to be scaled.
  98:../libs/PoliTeKDSP/libs/libDaisy/src/daisy_core.h ****     \return Scaled number.
  99:../libs/PoliTeKDSP/libs/libDaisy/src/daisy_core.h **** */
 100:../libs/PoliTeKDSP/libs/libDaisy/src/daisy_core.h **** FORCE_INLINE float s82f(int8_t x)
 101:../libs/PoliTeKDSP/libs/libDaisy/src/daisy_core.h **** {
 102:../libs/PoliTeKDSP/libs/libDaisy/src/daisy_core.h ****     return (float)x * S82F_SCALE;
 103:../libs/PoliTeKDSP/libs/libDaisy/src/daisy_core.h **** }
 104:../libs/PoliTeKDSP/libs/libDaisy/src/daisy_core.h **** 
 105:../libs/PoliTeKDSP/libs/libDaisy/src/daisy_core.h **** /**
 106:../libs/PoliTeKDSP/libs/libDaisy/src/daisy_core.h ****     Converts float to Signed 8-bit
ARM GAS  C:\Users\skipi\AppData\Local\Temp\ccpgF6Mp.s 			page 178


 107:../libs/PoliTeKDSP/libs/libDaisy/src/daisy_core.h **** */
 108:../libs/PoliTeKDSP/libs/libDaisy/src/daisy_core.h **** FORCE_INLINE int8_t f2s8(float x)
 109:../libs/PoliTeKDSP/libs/libDaisy/src/daisy_core.h **** {
 110:../libs/PoliTeKDSP/libs/libDaisy/src/daisy_core.h ****     x = x <= FBIPMIN ? FBIPMIN : x;
 111:../libs/PoliTeKDSP/libs/libDaisy/src/daisy_core.h ****     x = x >= FBIPMAX ? FBIPMAX : x;
 112:../libs/PoliTeKDSP/libs/libDaisy/src/daisy_core.h ****     return (int32_t)(x * F2S8_SCALE);
 113:../libs/PoliTeKDSP/libs/libDaisy/src/daisy_core.h **** }
 114:../libs/PoliTeKDSP/libs/libDaisy/src/daisy_core.h **** 
 115:../libs/PoliTeKDSP/libs/libDaisy/src/daisy_core.h **** /** 
 116:../libs/PoliTeKDSP/libs/libDaisy/src/daisy_core.h ****     Converts Signed 16-bit to float
 117:../libs/PoliTeKDSP/libs/libDaisy/src/daisy_core.h ****     \param x Number to be scaled.
 118:../libs/PoliTeKDSP/libs/libDaisy/src/daisy_core.h ****     \return Scaled number.
 119:../libs/PoliTeKDSP/libs/libDaisy/src/daisy_core.h **** */
 120:../libs/PoliTeKDSP/libs/libDaisy/src/daisy_core.h **** FORCE_INLINE float s162f(int16_t x)
 121:../libs/PoliTeKDSP/libs/libDaisy/src/daisy_core.h **** {
 122:../libs/PoliTeKDSP/libs/libDaisy/src/daisy_core.h ****     return (float)x * S162F_SCALE;
 123:../libs/PoliTeKDSP/libs/libDaisy/src/daisy_core.h **** }
 124:../libs/PoliTeKDSP/libs/libDaisy/src/daisy_core.h **** 
 125:../libs/PoliTeKDSP/libs/libDaisy/src/daisy_core.h **** /**
 126:../libs/PoliTeKDSP/libs/libDaisy/src/daisy_core.h ****     Converts float to Signed 16-bit
 127:../libs/PoliTeKDSP/libs/libDaisy/src/daisy_core.h **** */
 128:../libs/PoliTeKDSP/libs/libDaisy/src/daisy_core.h **** FORCE_INLINE int16_t f2s16(float x)
 129:../libs/PoliTeKDSP/libs/libDaisy/src/daisy_core.h **** {
 130:../libs/PoliTeKDSP/libs/libDaisy/src/daisy_core.h ****     x = x <= FBIPMIN ? FBIPMIN : x;
 131:../libs/PoliTeKDSP/libs/libDaisy/src/daisy_core.h ****     x = x >= FBIPMAX ? FBIPMAX : x;
 132:../libs/PoliTeKDSP/libs/libDaisy/src/daisy_core.h ****     return (int32_t)(x * F2S16_SCALE);
 133:../libs/PoliTeKDSP/libs/libDaisy/src/daisy_core.h **** }
 134:../libs/PoliTeKDSP/libs/libDaisy/src/daisy_core.h **** 
 135:../libs/PoliTeKDSP/libs/libDaisy/src/daisy_core.h **** /**
 136:../libs/PoliTeKDSP/libs/libDaisy/src/daisy_core.h ****     Converts Signed 24-bit to float
 137:../libs/PoliTeKDSP/libs/libDaisy/src/daisy_core.h ****  */
 138:../libs/PoliTeKDSP/libs/libDaisy/src/daisy_core.h **** FORCE_INLINE float s242f(int32_t x)
 139:../libs/PoliTeKDSP/libs/libDaisy/src/daisy_core.h **** {
 140:../libs/PoliTeKDSP/libs/libDaisy/src/daisy_core.h ****     x = (x ^ S24SIGN) - S24SIGN; //sign extend aka ((x<<8)>>8)
 141:../libs/PoliTeKDSP/libs/libDaisy/src/daisy_core.h ****     return (float)x * S242F_SCALE;
 142:../libs/PoliTeKDSP/libs/libDaisy/src/daisy_core.h **** }
 143:../libs/PoliTeKDSP/libs/libDaisy/src/daisy_core.h **** /**
 144:../libs/PoliTeKDSP/libs/libDaisy/src/daisy_core.h ****     Converts float to Signed 24-bit
 145:../libs/PoliTeKDSP/libs/libDaisy/src/daisy_core.h ****  */
 146:../libs/PoliTeKDSP/libs/libDaisy/src/daisy_core.h **** FORCE_INLINE int32_t f2s24(float x)
 147:../libs/PoliTeKDSP/libs/libDaisy/src/daisy_core.h **** {
 148:../libs/PoliTeKDSP/libs/libDaisy/src/daisy_core.h ****     x = x <= FBIPMIN ? FBIPMIN : x;
 149:../libs/PoliTeKDSP/libs/libDaisy/src/daisy_core.h ****     x = x >= FBIPMAX ? FBIPMAX : x;
 150:../libs/PoliTeKDSP/libs/libDaisy/src/daisy_core.h ****     return (int32_t)(x * F2S24_SCALE);
 151:../libs/PoliTeKDSP/libs/libDaisy/src/daisy_core.h **** }
 152:../libs/PoliTeKDSP/libs/libDaisy/src/daisy_core.h **** 
 153:../libs/PoliTeKDSP/libs/libDaisy/src/daisy_core.h **** /**
 154:../libs/PoliTeKDSP/libs/libDaisy/src/daisy_core.h ****     Converts Signed 32-bit to float
 155:../libs/PoliTeKDSP/libs/libDaisy/src/daisy_core.h ****  */
 156:../libs/PoliTeKDSP/libs/libDaisy/src/daisy_core.h **** FORCE_INLINE float s322f(int32_t x)
 157:../libs/PoliTeKDSP/libs/libDaisy/src/daisy_core.h **** {
 158:../libs/PoliTeKDSP/libs/libDaisy/src/daisy_core.h ****     return (float)x * S322F_SCALE;
 159:../libs/PoliTeKDSP/libs/libDaisy/src/daisy_core.h **** }
 160:../libs/PoliTeKDSP/libs/libDaisy/src/daisy_core.h **** /**
 161:../libs/PoliTeKDSP/libs/libDaisy/src/daisy_core.h ****     Converts float to Signed 24-bit
 162:../libs/PoliTeKDSP/libs/libDaisy/src/daisy_core.h ****  */
 163:../libs/PoliTeKDSP/libs/libDaisy/src/daisy_core.h **** FORCE_INLINE int32_t f2s32(float x)
ARM GAS  C:\Users\skipi\AppData\Local\Temp\ccpgF6Mp.s 			page 179


 164:../libs/PoliTeKDSP/libs/libDaisy/src/daisy_core.h **** {
 165:../libs/PoliTeKDSP/libs/libDaisy/src/daisy_core.h ****     x = x <= FBIPMIN ? FBIPMIN : x;
 166:../libs/PoliTeKDSP/libs/libDaisy/src/daisy_core.h ****     x = x >= FBIPMAX ? FBIPMAX : x;
 167:../libs/PoliTeKDSP/libs/libDaisy/src/daisy_core.h ****     return (int32_t)(x * F2S32_SCALE);
 168:../libs/PoliTeKDSP/libs/libDaisy/src/daisy_core.h **** }
 169:../libs/PoliTeKDSP/libs/libDaisy/src/daisy_core.h **** 
 170:../libs/PoliTeKDSP/libs/libDaisy/src/daisy_core.h **** #ifdef __cplusplus
 171:../libs/PoliTeKDSP/libs/libDaisy/src/daisy_core.h **** 
 172:../libs/PoliTeKDSP/libs/libDaisy/src/daisy_core.h **** namespace daisy
 173:../libs/PoliTeKDSP/libs/libDaisy/src/daisy_core.h **** {
 174:../libs/PoliTeKDSP/libs/libDaisy/src/daisy_core.h **** /** @brief GPIO Port names */
 175:../libs/PoliTeKDSP/libs/libDaisy/src/daisy_core.h **** enum GPIOPort
 176:../libs/PoliTeKDSP/libs/libDaisy/src/daisy_core.h **** {
 177:../libs/PoliTeKDSP/libs/libDaisy/src/daisy_core.h ****     PORTA, /**< Port A */
 178:../libs/PoliTeKDSP/libs/libDaisy/src/daisy_core.h ****     PORTB, /**< Port B */
 179:../libs/PoliTeKDSP/libs/libDaisy/src/daisy_core.h ****     PORTC, /**< Port C */
 180:../libs/PoliTeKDSP/libs/libDaisy/src/daisy_core.h ****     PORTD, /**< Port D */
 181:../libs/PoliTeKDSP/libs/libDaisy/src/daisy_core.h ****     PORTE, /**< Port E */
 182:../libs/PoliTeKDSP/libs/libDaisy/src/daisy_core.h ****     PORTF, /**< Port F */
 183:../libs/PoliTeKDSP/libs/libDaisy/src/daisy_core.h ****     PORTG, /**< Port G */
 184:../libs/PoliTeKDSP/libs/libDaisy/src/daisy_core.h ****     PORTH, /**< Port H */
 185:../libs/PoliTeKDSP/libs/libDaisy/src/daisy_core.h ****     PORTI, /**< Port I */
 186:../libs/PoliTeKDSP/libs/libDaisy/src/daisy_core.h ****     PORTJ, /**< Port J */
 187:../libs/PoliTeKDSP/libs/libDaisy/src/daisy_core.h ****     PORTK, /**< Port K */
 188:../libs/PoliTeKDSP/libs/libDaisy/src/daisy_core.h ****     PORTX, /**< Used as a dummy port to signal an invalid pin. */
 189:../libs/PoliTeKDSP/libs/libDaisy/src/daisy_core.h **** };
 190:../libs/PoliTeKDSP/libs/libDaisy/src/daisy_core.h **** 
 191:../libs/PoliTeKDSP/libs/libDaisy/src/daisy_core.h **** /** @brief representation of hardware port/pin combination */
 192:../libs/PoliTeKDSP/libs/libDaisy/src/daisy_core.h **** struct Pin
 193:../libs/PoliTeKDSP/libs/libDaisy/src/daisy_core.h **** {
 194:../libs/PoliTeKDSP/libs/libDaisy/src/daisy_core.h ****     GPIOPort port;
 195:../libs/PoliTeKDSP/libs/libDaisy/src/daisy_core.h ****     uint8_t  pin;
 196:../libs/PoliTeKDSP/libs/libDaisy/src/daisy_core.h **** 
 197:../libs/PoliTeKDSP/libs/libDaisy/src/daisy_core.h ****     /** @brief Constructor creates a valid pin. 
 198:../libs/PoliTeKDSP/libs/libDaisy/src/daisy_core.h ****      *  @param pt GPIOPort between PA, and PK corresponding to STM32 Port.
 199:../libs/PoliTeKDSP/libs/libDaisy/src/daisy_core.h ****      *  @param pn pin number in range of 0-15
 200:../libs/PoliTeKDSP/libs/libDaisy/src/daisy_core.h ****     */
 201:../libs/PoliTeKDSP/libs/libDaisy/src/daisy_core.h ****     constexpr Pin(const GPIOPort pt, const uint8_t pn) : port(pt), pin(pn) {}
 202:../libs/PoliTeKDSP/libs/libDaisy/src/daisy_core.h **** 
 203:../libs/PoliTeKDSP/libs/libDaisy/src/daisy_core.h ****     /** @brief Basic Constructor creates an invalid Pin object */
 204:../libs/PoliTeKDSP/libs/libDaisy/src/daisy_core.h ****     constexpr Pin() : port(PORTX), pin(255) {}
 6412              		.loc 16 204 15 view .LVU1573
 6413              		.loc 16 204 15 is_stmt 0 view .LVU1574
 6414              	.LBE1688:
 6415              	.LBB1689:
 6416              	.LBI1689:
 6417              		.loc 16 204 15 is_stmt 1 view .LVU1575
 6418              		.loc 16 204 15 is_stmt 0 view .LVU1576
 6419              	.LBE1689:
 6420              	.LBE1687:
 6421              	.LBE1686:
 6422              	.LBE1685:
 6423              	.LBE1684:
 6424              	.LBE1683:
  24:Display/../../libs/PoliTeKDSP/libs/libDaisy/src/dev/oled_ssd130x.h ****         }
 6425              		.loc 11 24 13 is_stmt 1 view .LVU1577
 6426              	.LBB1701:
ARM GAS  C:\Users\skipi\AppData\Local\Temp\ccpgF6Mp.s 			page 180


 6427              	.LBB1698:
 6428              	.LBB1695:
 6429              	.LBB1690:
 6430              	.LBI1690:
  28:Display/../../libs/PoliTeKDSP/libs/libDaisy/src/dev/oled_ssd130x.h ****         {
 6431              		.loc 11 28 27 view .LVU1578
 6432              	.LBE1690:
 6433              	.LBE1695:
 6434              	.LBE1698:
 6435              	.LBE1701:
  30:Display/../../libs/PoliTeKDSP/libs/libDaisy/src/dev/oled_ssd130x.h ****             i2c_config.speed          = I2CHandle::Config::Speed::I2C_1MHZ;
 6436              		.loc 11 30 13 view .LVU1579
  31:Display/../../libs/PoliTeKDSP/libs/libDaisy/src/dev/oled_ssd130x.h ****             i2c_config.mode           = I2CHandle::Config::Mode::I2C_MASTER;
 6437              		.loc 11 31 13 view .LVU1580
  32:Display/../../libs/PoliTeKDSP/libs/libDaisy/src/dev/oled_ssd130x.h ****             i2c_config.pin_config.scl = Pin(PORTB, 8);
 6438              		.loc 11 32 13 view .LVU1581
  33:Display/../../libs/PoliTeKDSP/libs/libDaisy/src/dev/oled_ssd130x.h ****             i2c_config.pin_config.sda = Pin(PORTB, 9);
 6439              		.loc 11 33 13 view .LVU1582
 6440              	.LBB1702:
 6441              	.LBB1699:
 6442              	.LBB1696:
 6443              	.LBB1693:
 6444              	.LBB1691:
 6445              	.LBI1691:
 201:../libs/PoliTeKDSP/libs/libDaisy/src/daisy_core.h **** 
 6446              		.loc 16 201 15 view .LVU1583
 201:../libs/PoliTeKDSP/libs/libDaisy/src/daisy_core.h **** 
 6447              		.loc 16 201 15 is_stmt 0 view .LVU1584
 6448              	.LBE1691:
 6449              	.LBE1693:
 6450              	.LBE1696:
 6451              	.LBE1699:
 6452              	.LBE1702:
  34:Display/../../libs/PoliTeKDSP/libs/libDaisy/src/dev/oled_ssd130x.h ****             i2c_address               = 0x3C;
 6453              		.loc 11 34 13 is_stmt 1 view .LVU1585
 6454              	.LBB1703:
 6455              	.LBB1700:
 6456              	.LBB1697:
 6457              	.LBB1694:
 6458              	.LBB1692:
 6459              	.LBI1692:
 201:../libs/PoliTeKDSP/libs/libDaisy/src/daisy_core.h **** 
 6460              		.loc 16 201 15 view .LVU1586
 201:../libs/PoliTeKDSP/libs/libDaisy/src/daisy_core.h **** 
 6461              		.loc 16 201 15 is_stmt 0 view .LVU1587
 6462              	.LBE1692:
 6463              	.LBE1694:
 6464              	.LBE1697:
 6465              	.LBE1700:
 6466              	.LBE1703:
  35:Display/../../libs/PoliTeKDSP/libs/libDaisy/src/dev/oled_ssd130x.h ****         }
 6467              		.loc 11 35 13 is_stmt 1 view .LVU1588
  45:main.cpp      ****     disp.Init(disp_cfg);
 6468              		.loc 12 45 5 view .LVU1589
 6469              		.loc 12 45 5 is_stmt 0 view .LVU1590
 6470 0054 1022     		movs	r2, #16
 6471 0056 3C23     		movs	r3, #60
ARM GAS  C:\Users\skipi\AppData\Local\Temp\ccpgF6Mp.s 			page 181


 6472 0058 0D96     		str	r6, [sp, #52]
 6473 005a 8DF83820 		strb	r2, [sp, #56]
 6474              	.LBB1704:
 6475              	.LBB1705:
  25:../libs/PoliTeKDSP/libs/libDaisy/src/hid/disp/oled_display.h **** 
 6476              		.loc 9 25 44 view .LVU1591
 6477 005e 10AA     		add	r2, sp, #64
 6478 0060 8DF83C30 		strb	r3, [sp, #60]
 6479              	.LBE1705:
 6480              	.LBI1704:
  25:../libs/PoliTeKDSP/libs/libDaisy/src/hid/disp/oled_display.h **** 
 6481              		.loc 9 25 10 is_stmt 1 view .LVU1592
 6482 0064 864B     		ldr	r3, .L454+16
 6483              	.LBB1706:
  25:../libs/PoliTeKDSP/libs/libDaisy/src/hid/disp/oled_display.h **** 
 6484              		.loc 9 25 44 is_stmt 0 view .LVU1593
 6485 0066 12E90700 		ldmdb	r2, {r0, r1, r2}
 6486 006a CDE90A63 		strd	r6, r3, [sp, #40]
 6487 006e 0AAB     		add	r3, sp, #40
 6488 0070 0C95     		str	r5, [sp, #48]
 6489 0072 8DE80700 		stm	sp, {r0, r1, r2}
 6490 0076 8348     		ldr	r0, .L454+20
 6491 0078 0ECB     		ldm	r3, {r1, r2, r3}
 6492 007a FFF7FEFF 		bl	_ZN5daisy13SSD130xDriverILj128ELj64ENS_19SSD130xI2CTransportEE4InitENS2_6ConfigE
 6493              	.LVL470:
  25:../libs/PoliTeKDSP/libs/libDaisy/src/hid/disp/oled_display.h **** 
 6494              		.loc 9 25 44 view .LVU1594
 6495              	.LBE1706:
 6496              	.LBE1704:
  46:main.cpp      ****     disp_handle.SetState(DisplayState::WAVEFORM_VIEWER);
 6497              		.loc 12 46 5 is_stmt 1 view .LVU1595
 6498              		.loc 12 46 25 is_stmt 0 view .LVU1596
 6499 007e 0121     		movs	r1, #1
 6500 0080 8148     		ldr	r0, .L454+24
 6501 0082 FFF7FEFF 		bl	_ZN14DisplayHandler8SetStateE12DisplayState
 6502              	.LVL471:
  47:main.cpp      **** 
  48:main.cpp      ****     // Inizializzazione Moduli DSP
  49:main.cpp      ****     pc.Init(IIR::FilterType::Butterworth, &hw);
 6503              		.loc 12 49 5 is_stmt 1 view .LVU1597
 6504              		.loc 12 49 12 is_stmt 0 view .LVU1598
 6505 0086 7A4A     		ldr	r2, .L454
 6506 0088 0121     		movs	r1, #1
 6507 008a 8048     		ldr	r0, .L454+28
 6508 008c FFF7FEFF 		bl	_ZN16PlantConditioner4InitEN3IIR10FilterTypeEPN5daisy9DaisySeedE
 6509              	.LVL472:
  50:main.cpp      ****     synth.Init(hw.AudioSampleRate());
 6510              		.loc 12 50 5 is_stmt 1 view .LVU1599
 6511              		.loc 12 50 15 is_stmt 0 view .LVU1600
 6512 0090 7748     		ldr	r0, .L454
 6513 0092 FFF7FEFF 		bl	_ZN5daisy9DaisySeed15AudioSampleRateEv
 6514              	.LVL473:
 6515 0096 7E48     		ldr	r0, .L454+32
 6516 0098 FFF7FEFF 		bl	_ZN11AudioEngine4InitEf
 6517              	.LVL474:
  51:main.cpp      ****     synth.SetPreset(PRESET_LEAD);
 6518              		.loc 12 51 5 is_stmt 1 view .LVU1601
ARM GAS  C:\Users\skipi\AppData\Local\Temp\ccpgF6Mp.s 			page 182


 6519              		.loc 12 51 20 is_stmt 0 view .LVU1602
 6520 009c 2946     		mov	r1, r5
 6521 009e 7C48     		ldr	r0, .L454+32
 6522 00a0 FFF7FEFF 		bl	_ZN11AudioEngine9SetPresetE11SynthPreset
 6523              	.LVL475:
  52:main.cpp      **** 
  53:main.cpp      ****     hw.StartAudio(AudioCallback);
 6524              		.loc 12 53 5 is_stmt 1 view .LVU1603
 6525              		.loc 12 53 18 is_stmt 0 view .LVU1604
 6526 00a4 7B49     		ldr	r1, .L454+36
 6527 00a6 7248     		ldr	r0, .L454
 6528 00a8 FFF7FEFF 		bl	_ZN5daisy9DaisySeed10StartAudioEPFvPKPKfPPfjE
 6529              	.LVL476:
  54:main.cpp      **** 
  55:main.cpp      ****     uint32_t last_enc_poll = System::GetNow();
 6530              		.loc 12 55 5 is_stmt 1 view .LVU1605
 6531              		.loc 12 55 44 is_stmt 0 view .LVU1606
 6532 00ac FFF7FEFF 		bl	_ZN5daisy6System6GetNowEv
 6533              	.LVL477:
 6534 00b0 0490     		str	r0, [sp, #16]
 6535              	.LVL478:
  56:main.cpp      ****     uint32_t disp_cnt = 0;
 6536              		.loc 12 56 5 is_stmt 1 view .LVU1607
 6537              	.L435:
  57:main.cpp      **** 
  58:main.cpp      ****     while(1) {
 6538              		.loc 12 58 5 view .LVU1608
 6539              	.LBB1707:
  59:main.cpp      ****         uint32_t now = System::GetNow();
 6540              		.loc 12 59 9 view .LVU1609
 6541              		.loc 12 59 38 is_stmt 0 view .LVU1610
 6542 00b2 FFF7FEFF 		bl	_ZN5daisy6System6GetNowEv
 6543              	.LVL479:
 6544              	.LBB1708:
  60:main.cpp      **** 
  61:main.cpp      ****         // --- 1. CAMPIONAMENTO ENCODER ---
  62:main.cpp      ****         if(now >= last_enc_poll + 1) {
 6545              		.loc 12 62 33 view .LVU1611
 6546 00b6 049B     		ldr	r3, [sp, #16]
 6547              	.LBE1708:
  59:main.cpp      ****         uint32_t now = System::GetNow();
 6548              		.loc 12 59 38 view .LVU1612
 6549 00b8 0546     		mov	r5, r0
 6550              	.LVL480:
 6551              		.loc 12 62 9 is_stmt 1 view .LVU1613
 6552              	.LBB1733:
 6553              		.loc 12 62 33 is_stmt 0 view .LVU1614
 6554 00ba 0133     		adds	r3, r3, #1
 6555              		.loc 12 62 9 view .LVU1615
 6556 00bc 8342     		cmp	r3, r0
 6557 00be 3FD9     		bls	.L453
 6558              	.LVL481:
 6559              	.L413:
 6560              		.loc 12 62 9 view .LVU1616
 6561              	.LBE1733:
  63:main.cpp      ****             last_enc_poll = now; 
  64:main.cpp      ****             
ARM GAS  C:\Users\skipi\AppData\Local\Temp\ccpgF6Mp.s 			page 183


  65:main.cpp      ****             enc.Debounce();
  66:main.cpp      ****             int32_t inc = enc.Increment();
  67:main.cpp      ****             bool clicked = enc.RisingEdge();
  68:main.cpp      **** 
  69:main.cpp      ****             if(inc != 0 || clicked) {
  70:main.cpp      ****                 menu.StateTransition(clicked, inc, false);
  71:main.cpp      ****             }
  72:main.cpp      ****             
  73:main.cpp      ****             disp_cnt++;
  74:main.cpp      ****         }
  75:main.cpp      **** 
  76:main.cpp      ****         // --- 2. AGGIORNAMENTO LOGICA E PARAMETRI ---
  77:main.cpp      ****         MenuManager::MenuData ui_data = menu.GetData();
 6562              		.loc 12 77 9 is_stmt 1 view .LVU1617
 6563              	.LBB1734:
 6564              	.LBI1734:
 6565              		.file 17 "Display/MenuManager.h"
   1:Display/MenuManager.h **** #pragma once
   2:Display/MenuManager.h **** #include <stdint.h>
   3:Display/MenuManager.h **** 
   4:Display/MenuManager.h **** class MenuManager {
   5:Display/MenuManager.h **** public:
   6:Display/MenuManager.h ****     // Rinominato in MenuState per coerenza con il resto del codice
   7:Display/MenuManager.h ****     enum MenuState {
   8:Display/MenuManager.h ****         PLAYMODE,           // Visualizzazione Onda
   9:Display/MenuManager.h ****         MAIN_MENU,
  10:Display/MenuManager.h ****         // Nodi principali (Hub)
  11:Display/MenuManager.h ****         CALIBRATION_HUB,
  12:Display/MenuManager.h ****         SCALES_HUB,         // Rinominato per coerenza con PRESETS_HUB
  13:Display/MenuManager.h ****         PRESETS_HUB,
  14:Display/MenuManager.h **** 
  15:Display/MenuManager.h ****         // Foglie: Parametri Calibrazione
  16:Display/MenuManager.h ****         CURVE,
  17:Display/MenuManager.h ****         DELTA,
  18:Display/MenuManager.h **** 
  19:Display/MenuManager.h ****         // Foglie: Parametri Scale
  20:Display/MenuManager.h ****         ROOT,
  21:Display/MenuManager.h ****         SCALE,
  22:Display/MenuManager.h ****         OCTAVE,
  23:Display/MenuManager.h **** 
  24:Display/MenuManager.h ****         BACK,
  25:Display/MenuManager.h ****     };
  26:Display/MenuManager.h **** 
  27:Display/MenuManager.h ****     // Struttura espansa con i nuovi parametri
  28:Display/MenuManager.h ****     struct MenuData {
  29:Display/MenuManager.h ****         MenuState state;
  30:Display/MenuManager.h ****         MenuState cursor_state;
  31:Display/MenuManager.h ****         float delta;
  32:Display/MenuManager.h ****         float curve;
  33:Display/MenuManager.h ****         int root;       // Es: 0 = C, 1 = C#...
  34:Display/MenuManager.h ****         int scale;      // Es: 0 = Major, 1 = Minor...
  35:Display/MenuManager.h ****         int octave;          // Es: 1, 2, 3, 4
  36:Display/MenuManager.h ****         int preset;    // Indice per il synth
  37:Display/MenuManager.h ****         //bool state_just_changed; 
  38:Display/MenuManager.h ****     };
  39:Display/MenuManager.h **** 
  40:Display/MenuManager.h ****     void Init();
ARM GAS  C:\Users\skipi\AppData\Local\Temp\ccpgF6Mp.s 			page 184


  41:Display/MenuManager.h ****     
  42:Display/MenuManager.h ****     void StateTransition(bool click, int rotation, bool timeout);
  43:Display/MenuManager.h ****     
  44:Display/MenuManager.h ****     MenuData GetData(){return _outData;}
 6566              		.loc 17 44 14 view .LVU1618
 6567              	.LBB1735:
 6568              		.loc 17 44 24 view .LVU1619
 6569              		.loc 17 44 31 is_stmt 0 view .LVU1620
 6570 00c0 D4ED028A 		vldr.32	s17, [r4, #8]
 6571 00c4 6379     		ldrb	r3, [r4, #5]	@ zero_extendqisi2
 6572 00c6 94ED038A 		vldr.32	s16, [r4, #12]
 6573              	.LBE1735:
 6574              	.LBE1734:
  78:main.cpp      **** 
  79:main.cpp      ****         // Sincronizza i parametri dal Menu alle classi DSP
  80:main.cpp      ****         pc.setDelta(ui_data.delta);
 6575              		.loc 12 80 20 view .LVU1621
 6576 00ca B0EE680A 		vmov.f32	s0, s17
 6577              	.LBB1738:
 6578              	.LBB1736:
 6579              		.loc 17 44 31 view .LVU1622
 6580 00ce D4F81880 		ldr	r8, [r4, #24]
 6581              	.LBE1736:
 6582              	.LBE1738:
 6583              		.loc 12 80 20 view .LVU1623
 6584 00d2 6E48     		ldr	r0, .L454+28
 6585              	.LBB1739:
 6586              	.LBB1737:
 6587              		.loc 17 44 31 view .LVU1624
 6588 00d4 0593     		str	r3, [sp, #20]
 6589 00d6 E769     		ldr	r7, [r4, #28]
 6590 00d8 2579     		ldrb	r5, [r4, #4]	@ zero_extendqisi2
 6591              	.LVL482:
 6592              		.loc 17 44 31 view .LVU1625
 6593 00da D4E904A9 		ldrd	r10, r9, [r4, #16]
 6594              	.LVL483:
 6595              		.loc 17 44 31 view .LVU1626
 6596              	.LBE1737:
 6597              	.LBE1739:
 6598              		.loc 12 80 9 is_stmt 1 view .LVU1627
 6599              		.loc 12 80 20 is_stmt 0 view .LVU1628
 6600 00de FFF7FEFF 		bl	_ZN16PlantConditioner8setDeltaEf
 6601              	.LVL484:
  81:main.cpp      ****         pc.setCurve(ui_data.curve);
 6602              		.loc 12 81 9 is_stmt 1 view .LVU1629
 6603              		.loc 12 81 20 is_stmt 0 view .LVU1630
 6604 00e2 B0EE480A 		vmov.f32	s0, s16
 6605 00e6 6948     		ldr	r0, .L454+28
 6606 00e8 FFF7FEFF 		bl	_ZN16PlantConditioner8setCurveEf
 6607              	.LVL485:
  82:main.cpp      ****         pc.setOctave(ui_data.octave);
 6608              		.loc 12 82 9 is_stmt 1 view .LVU1631
 6609              		.loc 12 82 21 is_stmt 0 view .LVU1632
 6610 00ec 6748     		ldr	r0, .L454+28
 6611 00ee 5FFA88F1 		uxtb	r1, r8
 6612 00f2 FFF7FEFF 		bl	_ZN16PlantConditioner9setOctaveEh
 6613              	.LVL486:
ARM GAS  C:\Users\skipi\AppData\Local\Temp\ccpgF6Mp.s 			page 185


  83:main.cpp      ****         synth.SetPreset((SynthPreset) ui_data.preset);
 6614              		.loc 12 83 9 is_stmt 1 view .LVU1633
 6615              		.loc 12 83 24 is_stmt 0 view .LVU1634
 6616 00f6 6648     		ldr	r0, .L454+32
 6617 00f8 F9B2     		uxtb	r1, r7
 6618 00fa FFF7FEFF 		bl	_ZN11AudioEngine9SetPresetE11SynthPreset
 6619              	.LVL487:
  84:main.cpp      ****         pc.setScale((PlantConditioner::Notes)ui_data.root, (PlantConditioner::ScaleType)ui_data.sca
 6620              		.loc 12 84 9 is_stmt 1 view .LVU1635
 6621              		.loc 12 84 20 is_stmt 0 view .LVU1636
 6622 00fe 6348     		ldr	r0, .L454+28
 6623 0100 5FFA89F2 		uxtb	r2, r9
 6624 0104 5FFA8AF1 		uxtb	r1, r10
 6625 0108 FFF7FEFF 		bl	_ZN16PlantConditioner8setScaleENS_5NotesENS_9ScaleTypeE
 6626              	.LVL488:
  85:main.cpp      **** 
  86:main.cpp      ****         // Calcolo della frequenza dalla pianta
  87:main.cpp      ****         PlantConditioner::PlantState plant_data = pc.Process();
 6627              		.loc 12 87 9 is_stmt 1 view .LVU1637
 6628              		.loc 12 87 62 is_stmt 0 view .LVU1638
 6629 010c 5F49     		ldr	r1, .L454+28
 6630 010e 0AA8     		add	r0, sp, #40
 6631 0110 FFF7FEFF 		bl	_ZN16PlantConditioner7ProcessEv
 6632              	.LVL489:
  88:main.cpp      ****         audio_controls.freq = plant_data._freq;
 6633              		.loc 12 88 9 is_stmt 1 view .LVU1639
 6634              		.loc 12 88 29 is_stmt 0 view .LVU1640
 6635 0114 0A9B     		ldr	r3, [sp, #40]	@ float
 6636              	.LBB1740:
  89:main.cpp      ****         audio_controls.gate = plant_data._gate;
  90:main.cpp      **** 
  91:main.cpp      ****         // --- 3. AGGIORNAMENTO DISPLAY (Ogni 50 cicli = 50ms) ---
  92:main.cpp      ****         if (disp_cnt >= 60) {
 6637              		.loc 12 92 9 view .LVU1641
 6638 0116 3C2E     		cmp	r6, #60
 6639              	.LBE1740:
  88:main.cpp      ****         audio_controls.freq = plant_data._freq;
 6640              		.loc 12 88 29 view .LVU1642
 6641 0118 CBF80030 		str	r3, [fp]	@ float
  89:main.cpp      ****         audio_controls.gate = plant_data._gate;
 6642              		.loc 12 89 9 is_stmt 1 view .LVU1643
  89:main.cpp      ****         audio_controls.gate = plant_data._gate;
 6643              		.loc 12 89 29 is_stmt 0 view .LVU1644
 6644 011c 9DF82C30 		ldrb	r3, [sp, #44]	@ zero_extendqisi2
 6645 0120 8BF80430 		strb	r3, [fp, #4]
 6646              		.loc 12 92 9 is_stmt 1 view .LVU1645
 6647              	.LBB1749:
 6648 0124 C5D1     		bne	.L435
 6649              	.LBB1741:
  93:main.cpp      ****             disp_cnt = 0;
 6650              		.loc 12 93 13 view .LVU1646
 6651              	.LVL490:
  94:main.cpp      **** 
  95:main.cpp      ****             if (ui_data.state == MenuManager::PLAYMODE) {
 6652              		.loc 12 95 13 view .LVU1647
 6653              	.LBB1742:
 6654 0126 DDB9     		cbnz	r5, .L420
ARM GAS  C:\Users\skipi\AppData\Local\Temp\ccpgF6Mp.s 			page 186


  96:main.cpp      ****                 disp_handle.SetState(DisplayState::WAVEFORM_VIEWER);
 6655              		.loc 12 96 17 view .LVU1648
 6656              		.loc 12 96 37 is_stmt 0 view .LVU1649
 6657 0128 0121     		movs	r1, #1
 6658 012a 5748     		ldr	r0, .L454+24
 6659 012c FFF7FEFF 		bl	_ZN14DisplayHandler8SetStateE12DisplayState
 6660              	.LVL491:
 6661              	.L421:
 6662              		.loc 12 96 37 view .LVU1650
 6663              	.LBE1742:
  97:main.cpp      ****             } 
  98:main.cpp      ****             else {
  99:main.cpp      ****                 disp_handle.SetState(DisplayState::MENU_MODE);
 100:main.cpp      ****                 int cursor_idx = 0;
 101:main.cpp      ****                 
 102:main.cpp      ****                 switch (ui_data.state) {
 103:main.cpp      ****                     case MenuManager::MAIN_MENU:
 104:main.cpp      ****                         if (ui_data.cursor_state == MenuManager::CALIBRATION_HUB) cursor_idx = 0;
 105:main.cpp      ****                         else if (ui_data.cursor_state == MenuManager::SCALES_HUB) cursor_idx = 1;
 106:main.cpp      ****                         else if (ui_data.cursor_state == MenuManager::PRESETS_HUB) cursor_idx = 2;
 107:main.cpp      ****                         else if (ui_data.cursor_state == MenuManager::BACK) cursor_idx = 3;
 108:main.cpp      ****                         disp_handle.DrawMainMenu(cursor_idx);
 109:main.cpp      ****                         break;
 110:main.cpp      **** 
 111:main.cpp      ****                     case MenuManager::CALIBRATION_HUB:
 112:main.cpp      ****                         if (ui_data.cursor_state == MenuManager::DELTA) cursor_idx = 0;
 113:main.cpp      ****                         else if (ui_data.cursor_state == MenuManager::CURVE) cursor_idx = 1;
 114:main.cpp      ****                         else if (ui_data.cursor_state == MenuManager::BACK) cursor_idx = 2;
 115:main.cpp      ****                         disp_handle.DrawCalibrationHub(cursor_idx);
 116:main.cpp      ****                         break;
 117:main.cpp      **** 
 118:main.cpp      ****                     case MenuManager::SCALES_HUB:
 119:main.cpp      ****                         if (ui_data.cursor_state == MenuManager::ROOT) cursor_idx = 0;
 120:main.cpp      ****                         else if (ui_data.cursor_state == MenuManager::SCALE) cursor_idx = 1;
 121:main.cpp      ****                         else if (ui_data.cursor_state == MenuManager::OCTAVE) cursor_idx = 2;
 122:main.cpp      ****                         else if (ui_data.cursor_state == MenuManager::BACK) cursor_idx = 3;
 123:main.cpp      ****                         disp_handle.DrawScalesHub(cursor_idx);
 124:main.cpp      ****                         break;
 125:main.cpp      **** 
 126:main.cpp      ****                     case MenuManager::DELTA:
 127:main.cpp      ****                         disp_handle.DrawFloatParameter("DELTA", ui_data.delta);
 128:main.cpp      ****                         break;
 129:main.cpp      ****                     
 130:main.cpp      ****                     case MenuManager::CURVE:
 131:main.cpp      ****                         disp_handle.DrawFloatParameter("CURVE", ui_data.curve);
 132:main.cpp      ****                         break;
 133:main.cpp      **** 
 134:main.cpp      ****                     case MenuManager::ROOT:
 135:main.cpp      ****                         disp_handle.DrawIntParameter("ROOT", ui_data.root);
 136:main.cpp      ****                         break;
 137:main.cpp      **** 
 138:main.cpp      ****                     case MenuManager::SCALE:
 139:main.cpp      ****                         disp_handle.DrawIntParameter("SCALE", ui_data.scale);
 140:main.cpp      ****                         break;
 141:main.cpp      **** 
 142:main.cpp      ****                     case MenuManager::OCTAVE:
 143:main.cpp      ****                         disp_handle.DrawIntParameter("OCTAVE", ui_data.octave);
ARM GAS  C:\Users\skipi\AppData\Local\Temp\ccpgF6Mp.s 			page 187


 144:main.cpp      ****                         break;
 145:main.cpp      ****                     case MenuManager::PRESETS_HUB:
 146:main.cpp      ****                     disp_handle.DrawIntParameter("PRESET", ui_data.preset);
 147:main.cpp      ****                         break;
 148:main.cpp      **** 
 149:main.cpp      ****                     default:
 150:main.cpp      ****                         break;
 151:main.cpp      ****                 }
 152:main.cpp      ****             } 
 153:main.cpp      ****             
 154:main.cpp      ****             // Operazione bloccante I2C
 155:main.cpp      ****             disp_handle.Update(); 
 6664              		.loc 12 155 13 is_stmt 1 view .LVU1651
 6665              		.loc 12 155 31 is_stmt 0 view .LVU1652
 6666 0130 5548     		ldr	r0, .L454+24
  93:main.cpp      **** 
 6667              		.loc 12 93 22 view .LVU1653
 6668 0132 0026     		movs	r6, #0
 6669              		.loc 12 155 31 view .LVU1654
 6670 0134 FFF7FEFF 		bl	_ZN14DisplayHandler6UpdateEv
 6671              	.LVL492:
 156:main.cpp      ****             
 157:main.cpp      ****             // Reset fondamentale del tempo per evitare "salti" dell'encoder dopo l'update
 158:main.cpp      ****             last_enc_poll = System::GetNow();
 6672              		.loc 12 158 13 is_stmt 1 view .LVU1655
 6673              		.loc 12 158 43 is_stmt 0 view .LVU1656
 6674 0138 FFF7FEFF 		bl	_ZN5daisy6System6GetNowEv
 6675              	.LVL493:
 6676 013c 0490     		str	r0, [sp, #16]
 6677              	.LVL494:
 6678              		.loc 12 158 43 view .LVU1657
 6679              	.LBE1741:
 6680              	.LBE1749:
 6681              	.LBE1707:
  58:main.cpp      ****         uint32_t now = System::GetNow();
 6682              		.loc 12 58 5 is_stmt 1 view .LVU1658
 159:main.cpp      ****         }
 160:main.cpp      ****     }
 6683              		.loc 12 160 5 is_stmt 0 view .LVU1659
 6684 013e B8E7     		b	.L435
 6685              	.LVL495:
 6686              	.L453:
 6687              	.LBB1756:
 6688              	.LBB1750:
 6689              	.LBB1709:
  63:main.cpp      ****             
 6690              		.loc 12 63 13 is_stmt 1 view .LVU1660
  65:main.cpp      ****             int32_t inc = enc.Increment();
 6691              		.loc 12 65 13 view .LVU1661
  65:main.cpp      ****             int32_t inc = enc.Increment();
 6692              		.loc 12 65 25 is_stmt 0 view .LVU1662
 6693 0140 4E48     		ldr	r0, .L454+12
 6694              	.LVL496:
  65:main.cpp      ****             int32_t inc = enc.Increment();
 6695              		.loc 12 65 25 view .LVU1663
 6696 0142 FFF7FEFF 		bl	_ZN5daisy7Encoder8DebounceEv
 6697              	.LVL497:
ARM GAS  C:\Users\skipi\AppData\Local\Temp\ccpgF6Mp.s 			page 188


  66:main.cpp      ****             bool clicked = enc.RisingEdge();
 6698              		.loc 12 66 13 is_stmt 1 view .LVU1664
 6699              	.LBB1710:
 6700              	.LBI1710:
  22:../libs/PoliTeKDSP/libs/libDaisy/src/hid/encoder.h **** 
  23:../libs/PoliTeKDSP/libs/libDaisy/src/hid/encoder.h ****     /** Initializes the encoder with the specified hardware pins.
  24:../libs/PoliTeKDSP/libs/libDaisy/src/hid/encoder.h ****      * Update rate is to be deprecated in a future release
  25:../libs/PoliTeKDSP/libs/libDaisy/src/hid/encoder.h ****      */
  26:../libs/PoliTeKDSP/libs/libDaisy/src/hid/encoder.h ****     void Init(Pin a, Pin b, Pin click, float update_rate = 0.f);
  27:../libs/PoliTeKDSP/libs/libDaisy/src/hid/encoder.h ****     /** Called at update_rate to debounce and handle timing for the switch.
  28:../libs/PoliTeKDSP/libs/libDaisy/src/hid/encoder.h ****      * In order for events not to be missed, its important that the Edge/Pressed checks be made at 
  29:../libs/PoliTeKDSP/libs/libDaisy/src/hid/encoder.h ****      */
  30:../libs/PoliTeKDSP/libs/libDaisy/src/hid/encoder.h ****     void Debounce();
  31:../libs/PoliTeKDSP/libs/libDaisy/src/hid/encoder.h **** 
  32:../libs/PoliTeKDSP/libs/libDaisy/src/hid/encoder.h ****     /** Returns +1 if the encoder was turned clockwise, -1 if it was turned counter-clockwise, or 0
  33:../libs/PoliTeKDSP/libs/libDaisy/src/hid/encoder.h ****     inline int32_t Increment() const { return updated_ ? inc_ : 0; }
 6701              		.loc 1 33 20 view .LVU1665
 6702              	.LBB1711:
 6703              		.loc 1 33 40 view .LVU1666
 6704              		.loc 1 33 47 is_stmt 0 view .LVU1667
 6705 0146 4D4A     		ldr	r2, .L454+12
 6706 0148 1379     		ldrb	r3, [r2, #4]	@ zero_extendqisi2
 6707              		.loc 1 33 56 view .LVU1668
 6708 014a 002B     		cmp	r3, #0
 6709 014c 67D0     		beq	.L414
 6710              	.LBE1711:
 6711              	.LBE1710:
 6712              	.LBB1714:
 6713              	.LBB1715:
 6714              	.LBB1716:
  35:../libs/PoliTeKDSP/libs/libDaisy/src/hid/switch.h **** 
  36:../libs/PoliTeKDSP/libs/libDaisy/src/hid/switch.h ****     /** 
  37:../libs/PoliTeKDSP/libs/libDaisy/src/hid/switch.h ****     Initializes the switch object with a given port/pin combo.
  38:../libs/PoliTeKDSP/libs/libDaisy/src/hid/switch.h ****     \param pin port/pin object to tell the switch which hardware pin to use.
  39:../libs/PoliTeKDSP/libs/libDaisy/src/hid/switch.h ****     \param update_rate Does nothing. Backwards compatibility until next breaking update.
  40:../libs/PoliTeKDSP/libs/libDaisy/src/hid/switch.h ****     \param t switch type -- Default: TYPE_MOMENTARY
  41:../libs/PoliTeKDSP/libs/libDaisy/src/hid/switch.h ****     \param pol switch polarity -- Default: POLARITY_INVERTED
  42:../libs/PoliTeKDSP/libs/libDaisy/src/hid/switch.h ****     \param pu switch pull up/down -- Default: PULL_UP
  43:../libs/PoliTeKDSP/libs/libDaisy/src/hid/switch.h ****     */
  44:../libs/PoliTeKDSP/libs/libDaisy/src/hid/switch.h ****     void Init(Pin        pin,
  45:../libs/PoliTeKDSP/libs/libDaisy/src/hid/switch.h ****               float      update_rate,
  46:../libs/PoliTeKDSP/libs/libDaisy/src/hid/switch.h ****               Type       t,
  47:../libs/PoliTeKDSP/libs/libDaisy/src/hid/switch.h ****               Polarity   pol,
  48:../libs/PoliTeKDSP/libs/libDaisy/src/hid/switch.h ****               GPIO::Pull pu = GPIO::Pull::PULLUP);
  49:../libs/PoliTeKDSP/libs/libDaisy/src/hid/switch.h **** 
  50:../libs/PoliTeKDSP/libs/libDaisy/src/hid/switch.h ****     /**
  51:../libs/PoliTeKDSP/libs/libDaisy/src/hid/switch.h ****        Simplified Init.
  52:../libs/PoliTeKDSP/libs/libDaisy/src/hid/switch.h ****        \param pin port/pin object to tell the switch which hardware pin to use.
  53:../libs/PoliTeKDSP/libs/libDaisy/src/hid/switch.h ****        \param update_rate Left for backwards compatibility until next breaking change.
  54:../libs/PoliTeKDSP/libs/libDaisy/src/hid/switch.h ****     */
  55:../libs/PoliTeKDSP/libs/libDaisy/src/hid/switch.h ****     void Init(Pin pin, float update_rate = 0.f);
  56:../libs/PoliTeKDSP/libs/libDaisy/src/hid/switch.h **** 
  57:../libs/PoliTeKDSP/libs/libDaisy/src/hid/switch.h ****     /** 
  58:../libs/PoliTeKDSP/libs/libDaisy/src/hid/switch.h ****     Called at update_rate to debounce and handle timing for the switch.
  59:../libs/PoliTeKDSP/libs/libDaisy/src/hid/switch.h ****     In order for events not to be missed, its important that the Edge/Pressed checks
  60:../libs/PoliTeKDSP/libs/libDaisy/src/hid/switch.h ****     be made at the same rate as the debounce function is being called.
  61:../libs/PoliTeKDSP/libs/libDaisy/src/hid/switch.h ****     */
ARM GAS  C:\Users\skipi\AppData\Local\Temp\ccpgF6Mp.s 			page 189


  62:../libs/PoliTeKDSP/libs/libDaisy/src/hid/switch.h ****     void Debounce();
  63:../libs/PoliTeKDSP/libs/libDaisy/src/hid/switch.h **** 
  64:../libs/PoliTeKDSP/libs/libDaisy/src/hid/switch.h ****     /** \return true if a button was just pressed. */
  65:../libs/PoliTeKDSP/libs/libDaisy/src/hid/switch.h ****     inline bool RisingEdge() const { return updated_ ? state_ == 0x7f : false; }
 6715              		.loc 2 65 45 view .LVU1669
 6716 014e 117B     		ldrb	r1, [r2, #12]	@ zero_extendqisi2
 6717              	.LBE1716:
 6718              	.LBE1715:
 6719              	.LBE1714:
 6720              	.LBB1723:
 6721              	.LBB1712:
 6722              		.loc 1 33 56 view .LVU1670
 6723 0150 926D     		ldr	r2, [r2, #88]
 6724              	.LVL498:
 6725              		.loc 1 33 56 view .LVU1671
 6726              	.LBE1712:
 6727              	.LBE1723:
  67:main.cpp      **** 
 6728              		.loc 12 67 13 is_stmt 1 view .LVU1672
 6729              	.LBB1724:
 6730              	.LBI1714:
  34:../libs/PoliTeKDSP/libs/libDaisy/src/hid/encoder.h **** 
  35:../libs/PoliTeKDSP/libs/libDaisy/src/hid/encoder.h ****     /** Returns true if the encoder was just pressed. */
  36:../libs/PoliTeKDSP/libs/libDaisy/src/hid/encoder.h ****     inline bool RisingEdge() const { return sw_.RisingEdge(); }
 6731              		.loc 1 36 17 view .LVU1673
 6732              	.LBE1724:
 6733              	.LBE1709:
 6734              	.LBE1750:
 6735              	.LBE1756:
 6736              		.loc 1 36 38 view .LVU1674
 6737              	.LBB1757:
 6738              	.LBB1751:
 6739              	.LBB1730:
 6740              	.LBB1725:
 6741              	.LBB1720:
 6742              	.LBI1715:
 6743              		.loc 2 65 17 view .LVU1675
 6744              	.LBB1717:
 6745              		.loc 2 65 38 view .LVU1676
 6746              		.loc 2 65 54 is_stmt 0 view .LVU1677
 6747 0152 0029     		cmp	r1, #0
 6748 0154 78D1     		bne	.L415
 6749              	.LVL499:
 6750              		.loc 2 65 54 view .LVU1678
 6751              	.LBE1717:
 6752              	.LBE1720:
 6753              	.LBE1725:
  69:main.cpp      ****                 menu.StateTransition(clicked, inc, false);
 6754              		.loc 12 69 13 is_stmt 1 view .LVU1679
 6755 0156 002A     		cmp	r2, #0
 6756 0158 71D1     		bne	.L416
 6757              	.LVL500:
 6758              	.L417:
  73:main.cpp      ****         }
 6759              		.loc 12 73 13 view .LVU1680
  73:main.cpp      ****         }
 6760              		.loc 12 73 21 is_stmt 0 view .LVU1681
ARM GAS  C:\Users\skipi\AppData\Local\Temp\ccpgF6Mp.s 			page 190


 6761 015a 0136     		adds	r6, r6, #1
 6762              	.LVL501:
  73:main.cpp      ****         }
 6763              		.loc 12 73 21 view .LVU1682
 6764              	.LBE1730:
 6765 015c 0495     		str	r5, [sp, #16]
 6766 015e AFE7     		b	.L413
 6767              	.LVL502:
 6768              	.L420:
  73:main.cpp      ****         }
 6769              		.loc 12 73 21 view .LVU1683
 6770              	.LBE1751:
 6771              	.LBB1752:
 6772              	.LBB1747:
 6773              	.LBB1745:
 6774              	.LBB1743:
  99:main.cpp      ****                 int cursor_idx = 0;
 6775              		.loc 12 99 17 is_stmt 1 view .LVU1684
 6776 0160 013D     		subs	r5, r5, #1
 6777              	.LVL503:
  99:main.cpp      ****                 int cursor_idx = 0;
 6778              		.loc 12 99 37 is_stmt 0 view .LVU1685
 6779 0162 0221     		movs	r1, #2
 6780 0164 4848     		ldr	r0, .L454+24
 6781 0166 FFF7FEFF 		bl	_ZN14DisplayHandler8SetStateE12DisplayState
 6782              	.LVL504:
 100:main.cpp      ****                 
 6783              		.loc 12 100 17 is_stmt 1 view .LVU1686
 102:main.cpp      ****                     case MenuManager::MAIN_MENU:
 6784              		.loc 12 102 17 view .LVU1687
 6785 016a 082D     		cmp	r5, #8
 6786 016c E0D8     		bhi	.L421
 6787 016e DFE805F0 		tbb	[pc, r5]
 6788              	.L423:
 6789 0172 47       		.byte	(.L431-.L423)/2
 6790 0173 3A       		.byte	(.L430-.L423)/2
 6791 0174 2B       		.byte	(.L429-.L423)/2
 6792 0175 25       		.byte	(.L428-.L423)/2
 6793 0176 1E       		.byte	(.L427-.L423)/2
 6794 0177 17       		.byte	(.L426-.L423)/2
 6795 0178 11       		.byte	(.L425-.L423)/2
 6796 0179 0B       		.byte	(.L424-.L423)/2
 6797 017a 05       		.byte	(.L422-.L423)/2
 6798 017b 00       		.p2align 1
 6799              	.L422:
 142:main.cpp      ****                         disp_handle.DrawIntParameter("OCTAVE", ui_data.octave);
 6800              		.loc 12 142 21 view .LVU1688
 143:main.cpp      ****                         break;
 6801              		.loc 12 143 25 view .LVU1689
 143:main.cpp      ****                         break;
 6802              		.loc 12 143 53 is_stmt 0 view .LVU1690
 6803 017c 4246     		mov	r2, r8
 6804 017e 4649     		ldr	r1, .L454+40
 6805 0180 4148     		ldr	r0, .L454+24
 6806 0182 FFF7FEFF 		bl	_ZN14DisplayHandler16DrawIntParameterEPKci
 6807              	.LVL505:
 144:main.cpp      ****                     case MenuManager::PRESETS_HUB:
ARM GAS  C:\Users\skipi\AppData\Local\Temp\ccpgF6Mp.s 			page 191


 6808              		.loc 12 144 25 is_stmt 1 view .LVU1691
 6809 0186 D3E7     		b	.L421
 6810              	.L424:
 138:main.cpp      ****                         disp_handle.DrawIntParameter("SCALE", ui_data.scale);
 6811              		.loc 12 138 21 view .LVU1692
 139:main.cpp      ****                         break;
 6812              		.loc 12 139 25 view .LVU1693
 139:main.cpp      ****                         break;
 6813              		.loc 12 139 53 is_stmt 0 view .LVU1694
 6814 0188 4A46     		mov	r2, r9
 6815 018a 4449     		ldr	r1, .L454+44
 6816 018c 3E48     		ldr	r0, .L454+24
 6817 018e FFF7FEFF 		bl	_ZN14DisplayHandler16DrawIntParameterEPKci
 6818              	.LVL506:
 140:main.cpp      **** 
 6819              		.loc 12 140 25 is_stmt 1 view .LVU1695
 6820 0192 CDE7     		b	.L421
 6821              	.L425:
 134:main.cpp      ****                         disp_handle.DrawIntParameter("ROOT", ui_data.root);
 6822              		.loc 12 134 21 view .LVU1696
 135:main.cpp      ****                         break;
 6823              		.loc 12 135 25 view .LVU1697
 135:main.cpp      ****                         break;
 6824              		.loc 12 135 53 is_stmt 0 view .LVU1698
 6825 0194 5246     		mov	r2, r10
 6826 0196 4249     		ldr	r1, .L454+48
 6827 0198 3B48     		ldr	r0, .L454+24
 6828 019a FFF7FEFF 		bl	_ZN14DisplayHandler16DrawIntParameterEPKci
 6829              	.LVL507:
 136:main.cpp      **** 
 6830              		.loc 12 136 25 is_stmt 1 view .LVU1699
 6831 019e C7E7     		b	.L421
 6832              	.L426:
 126:main.cpp      ****                         disp_handle.DrawFloatParameter("DELTA", ui_data.delta);
 6833              		.loc 12 126 21 view .LVU1700
 127:main.cpp      ****                         break;
 6834              		.loc 12 127 25 view .LVU1701
 127:main.cpp      ****                         break;
 6835              		.loc 12 127 55 is_stmt 0 view .LVU1702
 6836 01a0 B0EE680A 		vmov.f32	s0, s17
 6837 01a4 3F49     		ldr	r1, .L454+52
 6838 01a6 3848     		ldr	r0, .L454+24
 6839 01a8 FFF7FEFF 		bl	_ZN14DisplayHandler18DrawFloatParameterEPKcf
 6840              	.LVL508:
 128:main.cpp      ****                     
 6841              		.loc 12 128 25 is_stmt 1 view .LVU1703
 6842 01ac C0E7     		b	.L421
 6843              	.L427:
 130:main.cpp      ****                         disp_handle.DrawFloatParameter("CURVE", ui_data.curve);
 6844              		.loc 12 130 21 view .LVU1704
 131:main.cpp      ****                         break;
 6845              		.loc 12 131 25 view .LVU1705
 131:main.cpp      ****                         break;
 6846              		.loc 12 131 55 is_stmt 0 view .LVU1706
 6847 01ae B0EE480A 		vmov.f32	s0, s16
 6848 01b2 3D49     		ldr	r1, .L454+56
 6849 01b4 3448     		ldr	r0, .L454+24
ARM GAS  C:\Users\skipi\AppData\Local\Temp\ccpgF6Mp.s 			page 192


 6850 01b6 FFF7FEFF 		bl	_ZN14DisplayHandler18DrawFloatParameterEPKcf
 6851              	.LVL509:
 132:main.cpp      **** 
 6852              		.loc 12 132 25 is_stmt 1 view .LVU1707
 6853 01ba B9E7     		b	.L421
 6854              	.L428:
 145:main.cpp      ****                     disp_handle.DrawIntParameter("PRESET", ui_data.preset);
 6855              		.loc 12 145 21 view .LVU1708
 146:main.cpp      ****                         break;
 6856              		.loc 12 146 21 view .LVU1709
 146:main.cpp      ****                         break;
 6857              		.loc 12 146 49 is_stmt 0 view .LVU1710
 6858 01bc 3A46     		mov	r2, r7
 6859 01be 3B49     		ldr	r1, .L454+60
 6860 01c0 3148     		ldr	r0, .L454+24
 6861 01c2 FFF7FEFF 		bl	_ZN14DisplayHandler16DrawIntParameterEPKci
 6862              	.LVL510:
 147:main.cpp      **** 
 6863              		.loc 12 147 25 is_stmt 1 view .LVU1711
 6864 01c6 B3E7     		b	.L421
 6865              	.L429:
 118:main.cpp      ****                         if (ui_data.cursor_state == MenuManager::ROOT) cursor_idx = 0;
 6866              		.loc 12 118 21 view .LVU1712
 119:main.cpp      ****                         else if (ui_data.cursor_state == MenuManager::SCALE) cursor_idx = 1;
 6867              		.loc 12 119 25 view .LVU1713
 6868 01c8 059B     		ldr	r3, [sp, #20]
 6869 01ca 072B     		cmp	r3, #7
 6870 01cc 40D0     		beq	.L444
 120:main.cpp      ****                         else if (ui_data.cursor_state == MenuManager::OCTAVE) cursor_idx = 2;
 6871              		.loc 12 120 30 view .LVU1714
 6872 01ce 082B     		cmp	r3, #8
 6873 01d0 46D0     		beq	.L445
 121:main.cpp      ****                         else if (ui_data.cursor_state == MenuManager::BACK) cursor_idx = 3;
 6874              		.loc 12 121 30 view .LVU1715
 6875 01d2 092B     		cmp	r3, #9
 6876 01d4 48D0     		beq	.L446
 122:main.cpp      ****                         disp_handle.DrawScalesHub(cursor_idx);
 6877              		.loc 12 122 30 view .LVU1716
 122:main.cpp      ****                         disp_handle.DrawScalesHub(cursor_idx);
 6878              		.loc 12 122 88 is_stmt 0 view .LVU1717
 6879 01d6 0A2B     		cmp	r3, #10
 6880 01d8 14BF     		ite	ne
 6881 01da 0021     		movne	r1, #0
 6882 01dc 0321     		moveq	r1, #3
 6883              	.L434:
 6884              	.LVL511:
 123:main.cpp      ****                         break;
 6885              		.loc 12 123 25 is_stmt 1 view .LVU1718
 123:main.cpp      ****                         break;
 6886              		.loc 12 123 50 is_stmt 0 view .LVU1719
 6887 01de 2A48     		ldr	r0, .L454+24
 6888 01e0 FFF7FEFF 		bl	_ZN14DisplayHandler13DrawScalesHubEi
 6889              	.LVL512:
 124:main.cpp      **** 
 6890              		.loc 12 124 25 is_stmt 1 view .LVU1720
 6891 01e4 A4E7     		b	.L421
 6892              	.LVL513:
ARM GAS  C:\Users\skipi\AppData\Local\Temp\ccpgF6Mp.s 			page 193


 6893              	.L430:
 111:main.cpp      ****                         if (ui_data.cursor_state == MenuManager::DELTA) cursor_idx = 0;
 6894              		.loc 12 111 21 view .LVU1721
 112:main.cpp      ****                         else if (ui_data.cursor_state == MenuManager::CURVE) cursor_idx = 1;
 6895              		.loc 12 112 25 view .LVU1722
 6896 01e6 059B     		ldr	r3, [sp, #20]
 6897 01e8 062B     		cmp	r3, #6
 6898 01ea 33D0     		beq	.L441
 113:main.cpp      ****                         else if (ui_data.cursor_state == MenuManager::BACK) cursor_idx = 2;
 6899              		.loc 12 113 30 view .LVU1723
 6900 01ec 052B     		cmp	r3, #5
 6901 01ee 39D0     		beq	.L442
 114:main.cpp      ****                         disp_handle.DrawCalibrationHub(cursor_idx);
 6902              		.loc 12 114 30 view .LVU1724
 114:main.cpp      ****                         disp_handle.DrawCalibrationHub(cursor_idx);
 6903              		.loc 12 114 88 is_stmt 0 view .LVU1725
 6904 01f0 0A2B     		cmp	r3, #10
 6905 01f2 14BF     		ite	ne
 6906 01f4 0021     		movne	r1, #0
 6907 01f6 0221     		moveq	r1, #2
 6908              	.L433:
 6909              	.LVL514:
 115:main.cpp      ****                         break;
 6910              		.loc 12 115 25 is_stmt 1 view .LVU1726
 115:main.cpp      ****                         break;
 6911              		.loc 12 115 55 is_stmt 0 view .LVU1727
 6912 01f8 2348     		ldr	r0, .L454+24
 6913 01fa FFF7FEFF 		bl	_ZN14DisplayHandler18DrawCalibrationHubEi
 6914              	.LVL515:
 116:main.cpp      **** 
 6915              		.loc 12 116 25 is_stmt 1 view .LVU1728
 6916 01fe 97E7     		b	.L421
 6917              	.LVL516:
 6918              	.L431:
 103:main.cpp      ****                         if (ui_data.cursor_state == MenuManager::CALIBRATION_HUB) cursor_idx = 0;
 6919              		.loc 12 103 21 view .LVU1729
 104:main.cpp      ****                         else if (ui_data.cursor_state == MenuManager::SCALES_HUB) cursor_idx = 1;
 6920              		.loc 12 104 25 view .LVU1730
 6921 0200 059B     		ldr	r3, [sp, #20]
 6922 0202 022B     		cmp	r3, #2
 6923 0204 28D0     		beq	.L437
 105:main.cpp      ****                         else if (ui_data.cursor_state == MenuManager::PRESETS_HUB) cursor_idx = 2;
 6924              		.loc 12 105 30 view .LVU1731
 6925 0206 032B     		cmp	r3, #3
 6926 0208 28D0     		beq	.L438
 106:main.cpp      ****                         else if (ui_data.cursor_state == MenuManager::BACK) cursor_idx = 3;
 6927              		.loc 12 106 30 view .LVU1732
 6928 020a 042B     		cmp	r3, #4
 6929 020c 2ED0     		beq	.L439
 107:main.cpp      ****                         disp_handle.DrawMainMenu(cursor_idx);
 6930              		.loc 12 107 30 view .LVU1733
 107:main.cpp      ****                         disp_handle.DrawMainMenu(cursor_idx);
 6931              		.loc 12 107 88 is_stmt 0 view .LVU1734
 6932 020e 0A2B     		cmp	r3, #10
 6933 0210 14BF     		ite	ne
 6934 0212 0021     		movne	r1, #0
 6935 0214 0321     		moveq	r1, #3
ARM GAS  C:\Users\skipi\AppData\Local\Temp\ccpgF6Mp.s 			page 194


 6936              	.L432:
 6937              	.LVL517:
 108:main.cpp      ****                         break;
 6938              		.loc 12 108 25 is_stmt 1 view .LVU1735
 108:main.cpp      ****                         break;
 6939              		.loc 12 108 49 is_stmt 0 view .LVU1736
 6940 0216 1C48     		ldr	r0, .L454+24
 6941 0218 FFF7FEFF 		bl	_ZN14DisplayHandler12DrawMainMenuEi
 6942              	.LVL518:
 109:main.cpp      **** 
 6943              		.loc 12 109 25 is_stmt 1 view .LVU1737
 6944 021c 88E7     		b	.L421
 6945              	.LVL519:
 6946              	.L414:
 109:main.cpp      **** 
 6947              		.loc 12 109 25 is_stmt 0 view .LVU1738
 6948              	.LBE1743:
 6949              	.LBE1745:
 6950              	.LBE1747:
 6951              	.LBE1752:
 6952              	.LBB1753:
 6953              	.LBB1731:
  67:main.cpp      **** 
 6954              		.loc 12 67 13 is_stmt 1 view .LVU1739
 6955              	.LBB1726:
 6956              		.loc 1 36 17 view .LVU1740
 6957              	.LBE1726:
 6958              	.LBE1731:
 6959              	.LBE1753:
 6960              	.LBE1757:
 6961              		.loc 1 36 38 view .LVU1741
 6962              	.LBB1758:
 6963              	.LBB1754:
 6964              	.LBB1732:
 6965              	.LBB1727:
 6966              	.LBB1721:
 6967              		.loc 2 65 17 view .LVU1742
 6968              	.LBB1718:
 6969              		.loc 2 65 38 view .LVU1743
 6970              		.loc 2 65 54 is_stmt 0 view .LVU1744
 6971 021e 174A     		ldr	r2, .L454+12
 6972 0220 127B     		ldrb	r2, [r2, #12]	@ zero_extendqisi2
 6973 0222 002A     		cmp	r2, #0
 6974 0224 99D0     		beq	.L417
 6975              	.LBE1718:
 6976              	.LBE1721:
 6977              	.LBE1727:
 6978              	.LBB1728:
 6979              	.LBB1713:
  33:../libs/PoliTeKDSP/libs/libDaisy/src/hid/encoder.h **** 
 6980              		.loc 1 33 56 view .LVU1745
 6981 0226 1A46     		mov	r2, r3
 6982              	.LVL520:
 6983              	.L436:
  33:../libs/PoliTeKDSP/libs/libDaisy/src/hid/encoder.h **** 
 6984              		.loc 1 33 56 view .LVU1746
 6985              	.LBE1713:
ARM GAS  C:\Users\skipi\AppData\Local\Temp\ccpgF6Mp.s 			page 195


 6986              	.LBE1728:
 6987              	.LBB1729:
 6988              	.LBB1722:
 6989              	.LBB1719:
 6990              		.loc 2 65 54 view .LVU1747
 6991 0228 1449     		ldr	r1, .L454+12
 6992 022a 91F82410 		ldrb	r1, [r1, #36]	@ zero_extendqisi2
 6993 022e A1F17F01 		sub	r1, #127
 6994 0232 B1FA81F1 		clz	r1, r1
 6995 0236 4909     		lsrs	r1, r1, #5
 6996              	.LVL521:
 6997              		.loc 2 65 54 view .LVU1748
 6998              	.LBE1719:
 6999              	.LBE1722:
 7000              	.LBE1729:
  69:main.cpp      ****                 menu.StateTransition(clicked, inc, false);
 7001              		.loc 12 69 13 is_stmt 1 view .LVU1749
 7002 0238 09B9     		cbnz	r1, .L416
 7003 023a 002B     		cmp	r3, #0
 7004 023c 8DD0     		beq	.L417
 7005              	.LVL522:
 7006              	.L416:
  70:main.cpp      ****             }
 7007              		.loc 12 70 17 view .LVU1750
  70:main.cpp      ****             }
 7008              		.loc 12 70 37 is_stmt 0 view .LVU1751
 7009 023e 0023     		movs	r3, #0
 7010 0240 0C48     		ldr	r0, .L454+4
 7011 0242 FFF7FEFF 		bl	_ZN11MenuManager15StateTransitionEbib
 7012              	.LVL523:
 7013 0246 88E7     		b	.L417
 7014              	.LVL524:
 7015              	.L415:
  69:main.cpp      ****                 menu.StateTransition(clicked, inc, false);
 7016              		.loc 12 69 20 view .LVU1752
 7017 0248 131E     		subs	r3, r2, #0
 7018 024a 18BF     		it	ne
 7019 024c 0123     		movne	r3, #1
 7020 024e EBE7     		b	.L436
 7021              	.LVL525:
 7022              	.L444:
  69:main.cpp      ****                 menu.StateTransition(clicked, inc, false);
 7023              		.loc 12 69 20 view .LVU1753
 7024              	.LBE1732:
 7025              	.LBE1754:
 7026              	.LBB1755:
 7027              	.LBB1748:
 7028              	.LBB1746:
 7029              	.LBB1744:
 100:main.cpp      ****                 
 7030              		.loc 12 100 21 view .LVU1754
 7031 0250 0021     		movs	r1, #0
 7032 0252 C4E7     		b	.L434
 7033              	.L441:
 7034 0254 0021     		movs	r1, #0
 7035 0256 CFE7     		b	.L433
 7036              	.L437:
ARM GAS  C:\Users\skipi\AppData\Local\Temp\ccpgF6Mp.s 			page 196


 7037 0258 0021     		movs	r1, #0
 7038 025a DCE7     		b	.L432
 7039              	.L438:
 105:main.cpp      ****                         else if (ui_data.cursor_state == MenuManager::PRESETS_HUB) cursor_idx = 2;
 7040              		.loc 12 105 94 view .LVU1755
 7041 025c 0121     		movs	r1, #1
 7042 025e DAE7     		b	.L432
 7043              	.L445:
 120:main.cpp      ****                         else if (ui_data.cursor_state == MenuManager::OCTAVE) cursor_idx = 2;
 7044              		.loc 12 120 89 view .LVU1756
 7045 0260 0121     		movs	r1, #1
 7046 0262 BCE7     		b	.L434
 7047              	.L442:
 113:main.cpp      ****                         else if (ui_data.cursor_state == MenuManager::BACK) cursor_idx = 2;
 7048              		.loc 12 113 89 view .LVU1757
 7049 0264 0121     		movs	r1, #1
 7050 0266 C7E7     		b	.L433
 7051              	.L446:
 121:main.cpp      ****                         else if (ui_data.cursor_state == MenuManager::BACK) cursor_idx = 3;
 7052              		.loc 12 121 90 view .LVU1758
 7053 0268 0221     		movs	r1, #2
 7054 026a B8E7     		b	.L434
 7055              	.L439:
 106:main.cpp      ****                         else if (ui_data.cursor_state == MenuManager::BACK) cursor_idx = 3;
 7056              		.loc 12 106 95 view .LVU1759
 7057 026c 0221     		movs	r1, #2
 7058 026e D2E7     		b	.L432
 7059              	.L455:
 7060              		.align	2
 7061              	.L454:
 7062 0270 00000000 		.word	.LANCHOR2
 7063 0274 00000000 		.word	.LANCHOR4
 7064 0278 00000000 		.word	0
 7065 027c 00000000 		.word	.LANCHOR3
 7066 0280 01080109 		.word	151062529
 7067 0284 08000000 		.word	.LANCHOR5+8
 7068 0288 00000000 		.word	.LANCHOR1
 7069 028c 00000000 		.word	.LANCHOR6
 7070 0290 00000000 		.word	synth
 7071 0294 00000000 		.word	_Z13AudioCallbackPKPKfPPfj
 7072 0298 20000000 		.word	.LC4
 7073 029c 18000000 		.word	.LC3
 7074 02a0 10000000 		.word	.LC2
 7075 02a4 00000000 		.word	.LC0
 7076 02a8 08000000 		.word	.LC1
 7077 02ac 28000000 		.word	.LC5
 7078 02b0 00000000 		.word	.LANCHOR0
 7079              	.LBE1744:
 7080              	.LBE1746:
 7081              	.LBE1748:
 7082              	.LBE1755:
 7083              	.LBE1758:
 7084              		.cfi_endproc
 7085              	.LFE5120:
 7087              		.section	.text.startup._GLOBAL__sub_I_hw,"ax",%progbits
 7088              		.align	1
 7089              		.p2align 2,,3
ARM GAS  C:\Users\skipi\AppData\Local\Temp\ccpgF6Mp.s 			page 197


 7090              		.syntax unified
 7091              		.thumb
 7092              		.thumb_func
 7093              		.fpu fpv5-d16
 7095              	_GLOBAL__sub_I_hw:
 7096              	.LFB5735:
 161:main.cpp      **** }...
 7097              		.loc 12 161 1 is_stmt 1 view -0
 7098              		.cfi_startproc
 7099              		@ args = 0, pretend = 0, frame = 0
 7100              		@ frame_needed = 0, uses_anonymous_args = 0
 7101              	.LBB1864:
 7102              	.LBI1864:
 7103              		.loc 12 161 1 view .LVU1761
 7104              	.LVL526:
 7105              	.LBB1865:
 7106              	.LBB1866:
 7107              	.LBI1866:
  21:../libs/PoliTeKDSP/libs/libDaisy/src/daisy_seed.h ****     ~DaisySeed() {}
 7108              		.loc 3 21 5 view .LVU1762
 7109              	.LBB1867:
 7110              	.LBB1868:
 7111              	.LBI1868:
 7112              		.file 18 "../libs/PoliTeKDSP/libs/libDaisy/src/per/qspi.h"
   1:../libs/PoliTeKDSP/libs/libDaisy/src/per/qspi.h **** #ifndef DSY_QSPI
   2:../libs/PoliTeKDSP/libs/libDaisy/src/per/qspi.h **** #define DSY_QSPI /**< Macro */
   3:../libs/PoliTeKDSP/libs/libDaisy/src/per/qspi.h **** 
   4:../libs/PoliTeKDSP/libs/libDaisy/src/per/qspi.h **** #ifndef UNIT_TEST // for unit tests, a dummy implementation
   5:../libs/PoliTeKDSP/libs/libDaisy/src/per/qspi.h **** 
   6:../libs/PoliTeKDSP/libs/libDaisy/src/per/qspi.h **** #include <cstdint>
   7:../libs/PoliTeKDSP/libs/libDaisy/src/per/qspi.h **** #include "daisy_core.h"
   8:../libs/PoliTeKDSP/libs/libDaisy/src/per/qspi.h **** #include "util/hal_map.h"
   9:../libs/PoliTeKDSP/libs/libDaisy/src/per/qspi.h **** 
  10:../libs/PoliTeKDSP/libs/libDaisy/src/per/qspi.h **** #define DSY_QSPI_TEXT       \
  11:../libs/PoliTeKDSP/libs/libDaisy/src/per/qspi.h ****     __attribute__((section( \
  12:../libs/PoliTeKDSP/libs/libDaisy/src/per/qspi.h ****         ".qspiflash_text"))) /**< used for reading memory in memory_mapped mode. */
  13:../libs/PoliTeKDSP/libs/libDaisy/src/per/qspi.h **** #define DSY_QSPI_DATA       \
  14:../libs/PoliTeKDSP/libs/libDaisy/src/per/qspi.h ****     __attribute__((section( \
  15:../libs/PoliTeKDSP/libs/libDaisy/src/per/qspi.h ****         ".qspiflash_data"))) /**< used for reading memory in memory_mapped mode. */
  16:../libs/PoliTeKDSP/libs/libDaisy/src/per/qspi.h **** #define DSY_QSPI_BSS        \
  17:../libs/PoliTeKDSP/libs/libDaisy/src/per/qspi.h ****     __attribute__((section( \
  18:../libs/PoliTeKDSP/libs/libDaisy/src/per/qspi.h ****         ".qspiflash_bss"))) /**< used for reading memory in memory_mapped mode. */
  19:../libs/PoliTeKDSP/libs/libDaisy/src/per/qspi.h **** 
  20:../libs/PoliTeKDSP/libs/libDaisy/src/per/qspi.h **** namespace daisy
  21:../libs/PoliTeKDSP/libs/libDaisy/src/per/qspi.h **** {
  22:../libs/PoliTeKDSP/libs/libDaisy/src/per/qspi.h **** /** @addtogroup serial
  23:../libs/PoliTeKDSP/libs/libDaisy/src/per/qspi.h **** @{
  24:../libs/PoliTeKDSP/libs/libDaisy/src/per/qspi.h **** */
  25:../libs/PoliTeKDSP/libs/libDaisy/src/per/qspi.h **** 
  26:../libs/PoliTeKDSP/libs/libDaisy/src/per/qspi.h **** /**
  27:../libs/PoliTeKDSP/libs/libDaisy/src/per/qspi.h ****  Driver for QSPI peripheral to interface with external flash memory. \n
  28:../libs/PoliTeKDSP/libs/libDaisy/src/per/qspi.h ****     Currently supported QSPI Devices: \n
  29:../libs/PoliTeKDSP/libs/libDaisy/src/per/qspi.h ****     * IS25LP080D
  30:../libs/PoliTeKDSP/libs/libDaisy/src/per/qspi.h **** */
  31:../libs/PoliTeKDSP/libs/libDaisy/src/per/qspi.h **** class QSPIHandle
  32:../libs/PoliTeKDSP/libs/libDaisy/src/per/qspi.h **** {
  33:../libs/PoliTeKDSP/libs/libDaisy/src/per/qspi.h ****   public:
ARM GAS  C:\Users\skipi\AppData\Local\Temp\ccpgF6Mp.s 			page 198


  34:../libs/PoliTeKDSP/libs/libDaisy/src/per/qspi.h ****     enum Result
  35:../libs/PoliTeKDSP/libs/libDaisy/src/per/qspi.h ****     {
  36:../libs/PoliTeKDSP/libs/libDaisy/src/per/qspi.h ****         OK = 0,
  37:../libs/PoliTeKDSP/libs/libDaisy/src/per/qspi.h ****         ERR
  38:../libs/PoliTeKDSP/libs/libDaisy/src/per/qspi.h ****     };
  39:../libs/PoliTeKDSP/libs/libDaisy/src/per/qspi.h **** 
  40:../libs/PoliTeKDSP/libs/libDaisy/src/per/qspi.h ****     /** Indicates the current status of the module.
  41:../libs/PoliTeKDSP/libs/libDaisy/src/per/qspi.h ****          *  Warnings are indicated by a leading W.
  42:../libs/PoliTeKDSP/libs/libDaisy/src/per/qspi.h ****          *  Errors are indicated by a leading E and cause an immediate exit.
  43:../libs/PoliTeKDSP/libs/libDaisy/src/per/qspi.h ****          *
  44:../libs/PoliTeKDSP/libs/libDaisy/src/per/qspi.h ****          *  \param GOOD - No errors have been reported.
  45:../libs/PoliTeKDSP/libs/libDaisy/src/per/qspi.h ****          *  \param E_HAL_ERROR - HAL code did not return HAL_OK.
  46:../libs/PoliTeKDSP/libs/libDaisy/src/per/qspi.h ****          *  \param E_SWITCHING_MODES - An error was encountered while switching QSPI peripheral mod
  47:../libs/PoliTeKDSP/libs/libDaisy/src/per/qspi.h ****          *  \param E_INVALID_MODE - QSPI should not be written to while the program is executing fr
  48:../libs/PoliTeKDSP/libs/libDaisy/src/per/qspi.h ****          */
  49:../libs/PoliTeKDSP/libs/libDaisy/src/per/qspi.h ****     enum Status
  50:../libs/PoliTeKDSP/libs/libDaisy/src/per/qspi.h ****     {
  51:../libs/PoliTeKDSP/libs/libDaisy/src/per/qspi.h ****         GOOD = 0,
  52:../libs/PoliTeKDSP/libs/libDaisy/src/per/qspi.h ****         E_HAL_ERROR,
  53:../libs/PoliTeKDSP/libs/libDaisy/src/per/qspi.h ****         E_SWITCHING_MODES,
  54:../libs/PoliTeKDSP/libs/libDaisy/src/per/qspi.h ****         E_INVALID_MODE,
  55:../libs/PoliTeKDSP/libs/libDaisy/src/per/qspi.h ****     };
  56:../libs/PoliTeKDSP/libs/libDaisy/src/per/qspi.h **** 
  57:../libs/PoliTeKDSP/libs/libDaisy/src/per/qspi.h ****     /** Configuration structure for interfacing with QSPI Driver */
  58:../libs/PoliTeKDSP/libs/libDaisy/src/per/qspi.h ****     struct Config
  59:../libs/PoliTeKDSP/libs/libDaisy/src/per/qspi.h ****     {
  60:../libs/PoliTeKDSP/libs/libDaisy/src/per/qspi.h ****         /** Flash Devices supported. (Both of these are more-or-less the same, just different sizes
  61:../libs/PoliTeKDSP/libs/libDaisy/src/per/qspi.h ****         enum Device
  62:../libs/PoliTeKDSP/libs/libDaisy/src/per/qspi.h ****         {
  63:../libs/PoliTeKDSP/libs/libDaisy/src/per/qspi.h ****             IS25LP080D,  /**< & */
  64:../libs/PoliTeKDSP/libs/libDaisy/src/per/qspi.h ****             IS25LP064A,  /**< & */
  65:../libs/PoliTeKDSP/libs/libDaisy/src/per/qspi.h ****             DEVICE_LAST, /**< & */
  66:../libs/PoliTeKDSP/libs/libDaisy/src/per/qspi.h ****         };
  67:../libs/PoliTeKDSP/libs/libDaisy/src/per/qspi.h **** 
  68:../libs/PoliTeKDSP/libs/libDaisy/src/per/qspi.h ****         /**
  69:../libs/PoliTeKDSP/libs/libDaisy/src/per/qspi.h ****         Modes of operation.
  70:../libs/PoliTeKDSP/libs/libDaisy/src/per/qspi.h ****         Memory Mapped mode: QSPI configured so that the QSPI can be
  71:../libs/PoliTeKDSP/libs/libDaisy/src/per/qspi.h ****         read from starting address 0x90000000. Writing is not
  72:../libs/PoliTeKDSP/libs/libDaisy/src/per/qspi.h ****         possible in this mode. \n
  73:../libs/PoliTeKDSP/libs/libDaisy/src/per/qspi.h ****         Indirect Polling mode: Device driver enabled.
  74:../libs/PoliTeKDSP/libs/libDaisy/src/per/qspi.h ****         */
  75:../libs/PoliTeKDSP/libs/libDaisy/src/per/qspi.h ****         enum Mode
  76:../libs/PoliTeKDSP/libs/libDaisy/src/per/qspi.h ****         {
  77:../libs/PoliTeKDSP/libs/libDaisy/src/per/qspi.h ****             MEMORY_MAPPED,    /**< & */
  78:../libs/PoliTeKDSP/libs/libDaisy/src/per/qspi.h ****             INDIRECT_POLLING, /**< & */
  79:../libs/PoliTeKDSP/libs/libDaisy/src/per/qspi.h ****             MODE_LAST,
  80:../libs/PoliTeKDSP/libs/libDaisy/src/per/qspi.h ****         };
  81:../libs/PoliTeKDSP/libs/libDaisy/src/per/qspi.h **** 
  82:../libs/PoliTeKDSP/libs/libDaisy/src/per/qspi.h ****         //SCK,  CE# (active low)
  83:../libs/PoliTeKDSP/libs/libDaisy/src/per/qspi.h ****         struct
  84:../libs/PoliTeKDSP/libs/libDaisy/src/per/qspi.h ****         {
  85:../libs/PoliTeKDSP/libs/libDaisy/src/per/qspi.h ****             Pin io0; /**< & */
  86:../libs/PoliTeKDSP/libs/libDaisy/src/per/qspi.h ****             Pin io1; /**< & */
  87:../libs/PoliTeKDSP/libs/libDaisy/src/per/qspi.h ****             Pin io2; /**< & */
  88:../libs/PoliTeKDSP/libs/libDaisy/src/per/qspi.h ****             Pin io3; /**< & */
  89:../libs/PoliTeKDSP/libs/libDaisy/src/per/qspi.h ****             Pin clk; /**< & */
  90:../libs/PoliTeKDSP/libs/libDaisy/src/per/qspi.h ****             Pin ncs; /**< & */
ARM GAS  C:\Users\skipi\AppData\Local\Temp\ccpgF6Mp.s 			page 199


  91:../libs/PoliTeKDSP/libs/libDaisy/src/per/qspi.h ****         } pin_config;
  92:../libs/PoliTeKDSP/libs/libDaisy/src/per/qspi.h **** 
  93:../libs/PoliTeKDSP/libs/libDaisy/src/per/qspi.h ****         Device device;
  94:../libs/PoliTeKDSP/libs/libDaisy/src/per/qspi.h ****         Mode   mode;
  95:../libs/PoliTeKDSP/libs/libDaisy/src/per/qspi.h ****     };
  96:../libs/PoliTeKDSP/libs/libDaisy/src/per/qspi.h **** 
  97:../libs/PoliTeKDSP/libs/libDaisy/src/per/qspi.h ****     /**
  98:../libs/PoliTeKDSP/libs/libDaisy/src/per/qspi.h ****         Initializes QSPI peripheral, and Resets, and prepares memory for access.
  99:../libs/PoliTeKDSP/libs/libDaisy/src/per/qspi.h ****         \param config should be populated with the mode, device and pin_config before calling this 
 100:../libs/PoliTeKDSP/libs/libDaisy/src/per/qspi.h ****         \return Result::OK or Result::ERR
 101:../libs/PoliTeKDSP/libs/libDaisy/src/per/qspi.h ****         */
 102:../libs/PoliTeKDSP/libs/libDaisy/src/per/qspi.h ****     Result Init(const Config& config);
 103:../libs/PoliTeKDSP/libs/libDaisy/src/per/qspi.h **** 
 104:../libs/PoliTeKDSP/libs/libDaisy/src/per/qspi.h ****     /** Returns the current config. */
 105:../libs/PoliTeKDSP/libs/libDaisy/src/per/qspi.h ****     const Config& GetConfig() const;
 106:../libs/PoliTeKDSP/libs/libDaisy/src/per/qspi.h **** 
 107:../libs/PoliTeKDSP/libs/libDaisy/src/per/qspi.h ****     // Couldn't this just be called before anything else in init? That
 108:../libs/PoliTeKDSP/libs/libDaisy/src/per/qspi.h ****     // would make manually calling it unnecessary.
 109:../libs/PoliTeKDSP/libs/libDaisy/src/per/qspi.h ****     /**
 110:../libs/PoliTeKDSP/libs/libDaisy/src/per/qspi.h ****         Deinitializes the peripheral
 111:../libs/PoliTeKDSP/libs/libDaisy/src/per/qspi.h ****         This should be called before reinitializing QSPI in a different mode.
 112:../libs/PoliTeKDSP/libs/libDaisy/src/per/qspi.h ****         \return Result::OK or Result::ERR
 113:../libs/PoliTeKDSP/libs/libDaisy/src/per/qspi.h ****         */
 114:../libs/PoliTeKDSP/libs/libDaisy/src/per/qspi.h ****     Result DeInit();
 115:../libs/PoliTeKDSP/libs/libDaisy/src/per/qspi.h **** 
 116:../libs/PoliTeKDSP/libs/libDaisy/src/per/qspi.h ****     /**
 117:../libs/PoliTeKDSP/libs/libDaisy/src/per/qspi.h ****         Writes a single page to to the specified address on the QSPI chip.
 118:../libs/PoliTeKDSP/libs/libDaisy/src/per/qspi.h ****         For IS25LP*, page size is 256 bytes.
 119:../libs/PoliTeKDSP/libs/libDaisy/src/per/qspi.h ****         \param address Address to write to
 120:../libs/PoliTeKDSP/libs/libDaisy/src/per/qspi.h ****         \param size Buffer size
 121:../libs/PoliTeKDSP/libs/libDaisy/src/per/qspi.h ****         \param buffer Buffer to write
 122:../libs/PoliTeKDSP/libs/libDaisy/src/per/qspi.h ****         \return Result::OK or Result::ERR
 123:../libs/PoliTeKDSP/libs/libDaisy/src/per/qspi.h ****         */
 124:../libs/PoliTeKDSP/libs/libDaisy/src/per/qspi.h ****     Result WritePage(uint32_t address, uint32_t size, uint8_t* buffer);
 125:../libs/PoliTeKDSP/libs/libDaisy/src/per/qspi.h **** 
 126:../libs/PoliTeKDSP/libs/libDaisy/src/per/qspi.h ****     /**
 127:../libs/PoliTeKDSP/libs/libDaisy/src/per/qspi.h ****         Writes data in buffer to to the QSPI. Starting at address to address+size
 128:../libs/PoliTeKDSP/libs/libDaisy/src/per/qspi.h ****         \param address Address to write to
 129:../libs/PoliTeKDSP/libs/libDaisy/src/per/qspi.h ****         \param size Buffer size
 130:../libs/PoliTeKDSP/libs/libDaisy/src/per/qspi.h ****         \param buffer Buffer to write
 131:../libs/PoliTeKDSP/libs/libDaisy/src/per/qspi.h ****         \return Result::OK or Result::ERR
 132:../libs/PoliTeKDSP/libs/libDaisy/src/per/qspi.h ****         */
 133:../libs/PoliTeKDSP/libs/libDaisy/src/per/qspi.h ****     Result Write(uint32_t address, uint32_t size, uint8_t* buffer);
 134:../libs/PoliTeKDSP/libs/libDaisy/src/per/qspi.h **** 
 135:../libs/PoliTeKDSP/libs/libDaisy/src/per/qspi.h ****     /**
 136:../libs/PoliTeKDSP/libs/libDaisy/src/per/qspi.h ****         Erases the area specified on the chip.
 137:../libs/PoliTeKDSP/libs/libDaisy/src/per/qspi.h ****         Erasures will happen by 4K, 32K or 64K increments.
 138:../libs/PoliTeKDSP/libs/libDaisy/src/per/qspi.h ****         Smallest erase possible is 4kB at a time. (on IS25LP*)
 139:../libs/PoliTeKDSP/libs/libDaisy/src/per/qspi.h ****         \param start_addr Address to begin erasing from
 140:../libs/PoliTeKDSP/libs/libDaisy/src/per/qspi.h ****         \param end_addr  Address to stop erasing at
 141:../libs/PoliTeKDSP/libs/libDaisy/src/per/qspi.h ****         \return Result::OK or Result::ERR
 142:../libs/PoliTeKDSP/libs/libDaisy/src/per/qspi.h ****         */
 143:../libs/PoliTeKDSP/libs/libDaisy/src/per/qspi.h ****     Result Erase(uint32_t start_addr, uint32_t end_addr);
 144:../libs/PoliTeKDSP/libs/libDaisy/src/per/qspi.h **** 
 145:../libs/PoliTeKDSP/libs/libDaisy/src/per/qspi.h ****     /**
 146:../libs/PoliTeKDSP/libs/libDaisy/src/per/qspi.h ****          Erases a single sector of the chip.
 147:../libs/PoliTeKDSP/libs/libDaisy/src/per/qspi.h ****         TODO: Document the size of this function.
ARM GAS  C:\Users\skipi\AppData\Local\Temp\ccpgF6Mp.s 			page 200


 148:../libs/PoliTeKDSP/libs/libDaisy/src/per/qspi.h ****         \param address Address of sector to erase
 149:../libs/PoliTeKDSP/libs/libDaisy/src/per/qspi.h ****         \return Result::OK or Result::ERR
 150:../libs/PoliTeKDSP/libs/libDaisy/src/per/qspi.h ****         */
 151:../libs/PoliTeKDSP/libs/libDaisy/src/per/qspi.h ****     Result EraseSector(uint32_t address);
 152:../libs/PoliTeKDSP/libs/libDaisy/src/per/qspi.h **** 
 153:../libs/PoliTeKDSP/libs/libDaisy/src/per/qspi.h ****     /** Returns the current class status. Useful for debugging.
 154:../libs/PoliTeKDSP/libs/libDaisy/src/per/qspi.h ****      *  \returns Status
 155:../libs/PoliTeKDSP/libs/libDaisy/src/per/qspi.h ****      */
 156:../libs/PoliTeKDSP/libs/libDaisy/src/per/qspi.h ****     Status GetStatus();
 157:../libs/PoliTeKDSP/libs/libDaisy/src/per/qspi.h **** 
 158:../libs/PoliTeKDSP/libs/libDaisy/src/per/qspi.h ****     /** Returns a pointer to the actual memory used
 159:../libs/PoliTeKDSP/libs/libDaisy/src/per/qspi.h ****      *  The memory at this address is read-only
 160:../libs/PoliTeKDSP/libs/libDaisy/src/per/qspi.h ****      *  to write to it use the Write function.
 161:../libs/PoliTeKDSP/libs/libDaisy/src/per/qspi.h ****      *
 162:../libs/PoliTeKDSP/libs/libDaisy/src/per/qspi.h ****      *  \param offset returns the pointer starting this
 163:../libs/PoliTeKDSP/libs/libDaisy/src/per/qspi.h ****      *                many bytes into the memory
 164:../libs/PoliTeKDSP/libs/libDaisy/src/per/qspi.h ****     */
 165:../libs/PoliTeKDSP/libs/libDaisy/src/per/qspi.h ****     void* GetData(uint32_t offset = 0);
 166:../libs/PoliTeKDSP/libs/libDaisy/src/per/qspi.h **** 
 167:../libs/PoliTeKDSP/libs/libDaisy/src/per/qspi.h ****     QSPIHandle() : pimpl_(nullptr) {}
 7113              		.loc 18 167 5 view .LVU1763
 7114              		.loc 18 167 5 is_stmt 0 view .LVU1764
 7115              	.LBE1868:
 7116              	.LBB1873:
 7117              	.LBI1873:
  58:../libs/PoliTeKDSP/libs/libDaisy/src/per/qspi.h ****     {
 7118              		.loc 18 58 12 is_stmt 1 view .LVU1765
 7119              	.LBB1874:
 7120              	.LBI1874:
  84:../libs/PoliTeKDSP/libs/libDaisy/src/per/qspi.h ****             Pin io0; /**< & */
 7121              		.loc 18 84 9 view .LVU1766
 7122              	.LBB1875:
 7123              	.LBI1875:
 7124              		.loc 16 204 15 view .LVU1767
 7125              		.loc 16 204 15 is_stmt 0 view .LVU1768
 7126              	.LBE1875:
 7127              	.LBB1876:
 7128              	.LBI1876:
 7129              		.loc 16 204 15 is_stmt 1 view .LVU1769
 7130              		.loc 16 204 15 is_stmt 0 view .LVU1770
 7131              	.LBE1876:
 7132              	.LBB1877:
 7133              	.LBI1877:
 7134              		.loc 16 204 15 is_stmt 1 view .LVU1771
 7135              		.loc 16 204 15 is_stmt 0 view .LVU1772
 7136              	.LBE1877:
 7137              	.LBB1878:
 7138              	.LBI1878:
 7139              		.loc 16 204 15 is_stmt 1 view .LVU1773
 7140              		.loc 16 204 15 is_stmt 0 view .LVU1774
 7141              	.LBE1878:
 7142              	.LBB1879:
 7143              	.LBI1879:
 7144              		.loc 16 204 15 is_stmt 1 view .LVU1775
 7145              		.loc 16 204 15 is_stmt 0 view .LVU1776
 7146              	.LBE1879:
 7147              	.LBB1880:
ARM GAS  C:\Users\skipi\AppData\Local\Temp\ccpgF6Mp.s 			page 201


 7148              	.LBI1880:
 7149              		.loc 16 204 15 is_stmt 1 view .LVU1777
 7150              		.loc 16 204 15 is_stmt 0 view .LVU1778
 7151              	.LBE1880:
 7152              	.LBE1874:
 7153              	.LBE1873:
 7154              	.LBB1881:
 7155              	.LBI1881:
  87:../libs/PoliTeKDSP/libs/libDaisy/src/hid/audio.h ****     ~AudioHandle() {}
 7156              		.loc 8 87 5 is_stmt 1 view .LVU1779
  87:../libs/PoliTeKDSP/libs/libDaisy/src/hid/audio.h ****     ~AudioHandle() {}
 7157              		.loc 8 87 5 is_stmt 0 view .LVU1780
 7158              	.LBE1881:
 7159              	.LBB1884:
 7160              	.LBI1884:
 109:../libs/PoliTeKDSP/libs/libDaisy/src/per/adc.h ****     ~AdcHandle() {}
 7161              		.loc 7 109 5 is_stmt 1 view .LVU1781
 109:../libs/PoliTeKDSP/libs/libDaisy/src/per/adc.h ****     ~AdcHandle() {}
 7162              		.loc 7 109 5 is_stmt 0 view .LVU1782
 7163              	.LBE1884:
 7164              	.LBB1885:
 7165              	.LBI1885:
 7166              		.file 19 "../libs/PoliTeKDSP/libs/libDaisy/src/per/dac.h"
   1:../libs/PoliTeKDSP/libs/libDaisy/src/per/dac.h **** #pragma once
   2:../libs/PoliTeKDSP/libs/libDaisy/src/per/dac.h **** #ifndef DSY_DAC_H
   3:../libs/PoliTeKDSP/libs/libDaisy/src/per/dac.h **** #define DSY_DAC_H
   4:../libs/PoliTeKDSP/libs/libDaisy/src/per/dac.h **** #include "stm32h7xx_hal.h"
   5:../libs/PoliTeKDSP/libs/libDaisy/src/per/dac.h **** #include "daisy_core.h"
   6:../libs/PoliTeKDSP/libs/libDaisy/src/per/dac.h **** 
   7:../libs/PoliTeKDSP/libs/libDaisy/src/per/dac.h **** namespace daisy
   8:../libs/PoliTeKDSP/libs/libDaisy/src/per/dac.h **** {
   9:../libs/PoliTeKDSP/libs/libDaisy/src/per/dac.h **** /** @brief DAC handle for Built-in DAC Peripheral 
  10:../libs/PoliTeKDSP/libs/libDaisy/src/per/dac.h ****  *  @ingroup per_analog
  11:../libs/PoliTeKDSP/libs/libDaisy/src/per/dac.h ****  ** 
  12:../libs/PoliTeKDSP/libs/libDaisy/src/per/dac.h ****  ** For now only Normal Mode is supported,
  13:../libs/PoliTeKDSP/libs/libDaisy/src/per/dac.h ****  ** Sample and hold mode provides reduced power consumption, but requires a bit more setup.
  14:../libs/PoliTeKDSP/libs/libDaisy/src/per/dac.h ****  **
  15:../libs/PoliTeKDSP/libs/libDaisy/src/per/dac.h ****  ** For now connecting the DAC through other internal peripherals is also not supported.
  16:../libs/PoliTeKDSP/libs/libDaisy/src/per/dac.h ****  **
  17:../libs/PoliTeKDSP/libs/libDaisy/src/per/dac.h ****  ** Since the DAC channels have dedicated pins we don't need to pass in a pin config like with
  18:../libs/PoliTeKDSP/libs/libDaisy/src/per/dac.h ****  ** other modules. However, it is still important to not try to use the DAC pins for anything else.
  19:../libs/PoliTeKDSP/libs/libDaisy/src/per/dac.h ****  ** DAC Channel 1 is on PA4, and DAC Channel 2 is on PA5
  20:../libs/PoliTeKDSP/libs/libDaisy/src/per/dac.h ****  ***/
  21:../libs/PoliTeKDSP/libs/libDaisy/src/per/dac.h **** class DacHandle
  22:../libs/PoliTeKDSP/libs/libDaisy/src/per/dac.h **** {
  23:../libs/PoliTeKDSP/libs/libDaisy/src/per/dac.h ****   public:
  24:../libs/PoliTeKDSP/libs/libDaisy/src/per/dac.h ****     /** Return Values for the DacHandle class */
  25:../libs/PoliTeKDSP/libs/libDaisy/src/per/dac.h ****     enum class Result
  26:../libs/PoliTeKDSP/libs/libDaisy/src/per/dac.h ****     {
  27:../libs/PoliTeKDSP/libs/libDaisy/src/per/dac.h ****         OK,
  28:../libs/PoliTeKDSP/libs/libDaisy/src/per/dac.h ****         ERR,
  29:../libs/PoliTeKDSP/libs/libDaisy/src/per/dac.h ****     };
  30:../libs/PoliTeKDSP/libs/libDaisy/src/per/dac.h **** 
  31:../libs/PoliTeKDSP/libs/libDaisy/src/per/dac.h ****     /** Selects which channel(s) will be configured for use. */
  32:../libs/PoliTeKDSP/libs/libDaisy/src/per/dac.h ****     enum class Channel
  33:../libs/PoliTeKDSP/libs/libDaisy/src/per/dac.h ****     {
  34:../libs/PoliTeKDSP/libs/libDaisy/src/per/dac.h ****         ONE,
ARM GAS  C:\Users\skipi\AppData\Local\Temp\ccpgF6Mp.s 			page 202


  35:../libs/PoliTeKDSP/libs/libDaisy/src/per/dac.h ****         TWO,
  36:../libs/PoliTeKDSP/libs/libDaisy/src/per/dac.h ****         BOTH,
  37:../libs/PoliTeKDSP/libs/libDaisy/src/per/dac.h ****     };
  38:../libs/PoliTeKDSP/libs/libDaisy/src/per/dac.h **** 
  39:../libs/PoliTeKDSP/libs/libDaisy/src/per/dac.h ****     /** Sets the Mode for the DAC channels.
  40:../libs/PoliTeKDSP/libs/libDaisy/src/per/dac.h ****      **
  41:../libs/PoliTeKDSP/libs/libDaisy/src/per/dac.h ****      ** Polling mode uses the blocking mode to transmit a single value at a time.
  42:../libs/PoliTeKDSP/libs/libDaisy/src/per/dac.h ****      **
  43:../libs/PoliTeKDSP/libs/libDaisy/src/per/dac.h ****      ** DMA mode uses a buffer, and periodically transmits it triggering a 
  44:../libs/PoliTeKDSP/libs/libDaisy/src/per/dac.h ****      ** callback to fill the buffer when it is ready for more samples.
  45:../libs/PoliTeKDSP/libs/libDaisy/src/per/dac.h ****      ***/
  46:../libs/PoliTeKDSP/libs/libDaisy/src/per/dac.h ****     enum class Mode
  47:../libs/PoliTeKDSP/libs/libDaisy/src/per/dac.h ****     {
  48:../libs/PoliTeKDSP/libs/libDaisy/src/per/dac.h ****         POLLING,
  49:../libs/PoliTeKDSP/libs/libDaisy/src/per/dac.h ****         DMA,
  50:../libs/PoliTeKDSP/libs/libDaisy/src/per/dac.h ****     };
  51:../libs/PoliTeKDSP/libs/libDaisy/src/per/dac.h **** 
  52:../libs/PoliTeKDSP/libs/libDaisy/src/per/dac.h ****     /** Sets the number of bits per sample transmitted out of the DAC.
  53:../libs/PoliTeKDSP/libs/libDaisy/src/per/dac.h ****      ** The output range will be: 0V - VDDA
  54:../libs/PoliTeKDSP/libs/libDaisy/src/per/dac.h ****      ** The resolution will be roughly: bitdepth / (VDDA - 0V) 
  55:../libs/PoliTeKDSP/libs/libDaisy/src/per/dac.h ****      ***/
  56:../libs/PoliTeKDSP/libs/libDaisy/src/per/dac.h ****     enum class BitDepth
  57:../libs/PoliTeKDSP/libs/libDaisy/src/per/dac.h ****     {
  58:../libs/PoliTeKDSP/libs/libDaisy/src/per/dac.h ****         BITS_8,
  59:../libs/PoliTeKDSP/libs/libDaisy/src/per/dac.h ****         BITS_12
  60:../libs/PoliTeKDSP/libs/libDaisy/src/per/dac.h ****     };
  61:../libs/PoliTeKDSP/libs/libDaisy/src/per/dac.h **** 
  62:../libs/PoliTeKDSP/libs/libDaisy/src/per/dac.h ****     /** Sets whether the DAC output is buffered for higher drive ability. */
  63:../libs/PoliTeKDSP/libs/libDaisy/src/per/dac.h ****     enum class BufferState
  64:../libs/PoliTeKDSP/libs/libDaisy/src/per/dac.h ****     {
  65:../libs/PoliTeKDSP/libs/libDaisy/src/per/dac.h ****         ENABLED,
  66:../libs/PoliTeKDSP/libs/libDaisy/src/per/dac.h ****         DISABLED,
  67:../libs/PoliTeKDSP/libs/libDaisy/src/per/dac.h ****     };
  68:../libs/PoliTeKDSP/libs/libDaisy/src/per/dac.h **** 
  69:../libs/PoliTeKDSP/libs/libDaisy/src/per/dac.h ****     /** Configuration structure for initializing the DAC structure. */
  70:../libs/PoliTeKDSP/libs/libDaisy/src/per/dac.h ****     struct Config
  71:../libs/PoliTeKDSP/libs/libDaisy/src/per/dac.h ****     {
  72:../libs/PoliTeKDSP/libs/libDaisy/src/per/dac.h ****         /** Target Samplerate in Hz used to configure the internal 
  73:../libs/PoliTeKDSP/libs/libDaisy/src/per/dac.h ****          ** timebase for DMA mode. Does nothing in POLLING mode.
  74:../libs/PoliTeKDSP/libs/libDaisy/src/per/dac.h ****          ** If the value is 0 at Init time this will default to 48000Hz 
  75:../libs/PoliTeKDSP/libs/libDaisy/src/per/dac.h ****          ** otherwise the driver will attempt meet the target.*/
  76:../libs/PoliTeKDSP/libs/libDaisy/src/per/dac.h ****         uint32_t target_samplerate;
  77:../libs/PoliTeKDSP/libs/libDaisy/src/per/dac.h **** 
  78:../libs/PoliTeKDSP/libs/libDaisy/src/per/dac.h ****         Channel     chn;
  79:../libs/PoliTeKDSP/libs/libDaisy/src/per/dac.h ****         Mode        mode;
  80:../libs/PoliTeKDSP/libs/libDaisy/src/per/dac.h ****         BitDepth    bitdepth;
  81:../libs/PoliTeKDSP/libs/libDaisy/src/per/dac.h ****         BufferState buff_state;
  82:../libs/PoliTeKDSP/libs/libDaisy/src/per/dac.h ****     };
  83:../libs/PoliTeKDSP/libs/libDaisy/src/per/dac.h **** 
  84:../libs/PoliTeKDSP/libs/libDaisy/src/per/dac.h ****     DacHandle() : pimpl_(nullptr) {}
 7167              		.loc 19 84 5 is_stmt 1 view .LVU1783
 7168              		.loc 19 84 5 is_stmt 0 view .LVU1784
 7169              	.LBE1885:
 7170              	.LBB1888:
 7171              	.LBI1888:
  40:../libs/PoliTeKDSP/libs/libDaisy/src/hid/usb.h **** 
 7172              		.loc 6 40 5 is_stmt 1 view .LVU1785
ARM GAS  C:\Users\skipi\AppData\Local\Temp\ccpgF6Mp.s 			page 203


  40:../libs/PoliTeKDSP/libs/libDaisy/src/hid/usb.h **** 
 7173              		.loc 6 40 5 is_stmt 0 view .LVU1786
 7174              	.LBE1888:
 7175              	.LBB1889:
 7176              	.LBI1889:
 7177              		.file 20 "../libs/PoliTeKDSP/libs/libDaisy/src/per/gpio.h"
   1:../libs/PoliTeKDSP/libs/libDaisy/src/per/gpio.h **** #pragma once
   2:../libs/PoliTeKDSP/libs/libDaisy/src/per/gpio.h **** #ifndef DSY_GPIO_H
   3:../libs/PoliTeKDSP/libs/libDaisy/src/per/gpio.h **** #define DSY_GPIO_H
   4:../libs/PoliTeKDSP/libs/libDaisy/src/per/gpio.h **** #include "daisy_core.h"
   5:../libs/PoliTeKDSP/libs/libDaisy/src/per/gpio.h **** 
   6:../libs/PoliTeKDSP/libs/libDaisy/src/per/gpio.h **** #ifdef __cplusplus
   7:../libs/PoliTeKDSP/libs/libDaisy/src/per/gpio.h **** 
   8:../libs/PoliTeKDSP/libs/libDaisy/src/per/gpio.h **** namespace daisy
   9:../libs/PoliTeKDSP/libs/libDaisy/src/per/gpio.h **** {
  10:../libs/PoliTeKDSP/libs/libDaisy/src/per/gpio.h **** /** @brief General Purpose I/O control 
  11:../libs/PoliTeKDSP/libs/libDaisy/src/per/gpio.h ****  *  @details peripheral control over a single GPIO
  12:../libs/PoliTeKDSP/libs/libDaisy/src/per/gpio.h ****  *  @ingroup peripheral
  13:../libs/PoliTeKDSP/libs/libDaisy/src/per/gpio.h ****  *   
  14:../libs/PoliTeKDSP/libs/libDaisy/src/per/gpio.h ****  *  Button Input (with internal Pullup resistor)
  15:../libs/PoliTeKDSP/libs/libDaisy/src/per/gpio.h ****  *  @include GPIO_Input.cpp 
  16:../libs/PoliTeKDSP/libs/libDaisy/src/per/gpio.h ****  * 
  17:../libs/PoliTeKDSP/libs/libDaisy/src/per/gpio.h ****  *  Output Example (perfect for blinking an LED)
  18:../libs/PoliTeKDSP/libs/libDaisy/src/per/gpio.h ****  *  @include GPIO_Output.cpp
  19:../libs/PoliTeKDSP/libs/libDaisy/src/per/gpio.h ****  * 
  20:../libs/PoliTeKDSP/libs/libDaisy/src/per/gpio.h **** */
  21:../libs/PoliTeKDSP/libs/libDaisy/src/per/gpio.h **** class GPIO
  22:../libs/PoliTeKDSP/libs/libDaisy/src/per/gpio.h **** {
  23:../libs/PoliTeKDSP/libs/libDaisy/src/per/gpio.h ****   public:
  24:../libs/PoliTeKDSP/libs/libDaisy/src/per/gpio.h ****     /** @brief Mode of operation for the specified GPIO */
  25:../libs/PoliTeKDSP/libs/libDaisy/src/per/gpio.h ****     enum class Mode
  26:../libs/PoliTeKDSP/libs/libDaisy/src/per/gpio.h ****     {
  27:../libs/PoliTeKDSP/libs/libDaisy/src/per/gpio.h ****         INPUT,      /**< Input for reading state of pin */
  28:../libs/PoliTeKDSP/libs/libDaisy/src/per/gpio.h ****         OUTPUT,     /**< Output w/ push-pull configuration */
  29:../libs/PoliTeKDSP/libs/libDaisy/src/per/gpio.h ****         OPEN_DRAIN, /**< Output w/ open-drain configuration */
  30:../libs/PoliTeKDSP/libs/libDaisy/src/per/gpio.h ****         ANALOG,     /**< Analog for connection to ADC or DAC peripheral */
  31:../libs/PoliTeKDSP/libs/libDaisy/src/per/gpio.h ****     };
  32:../libs/PoliTeKDSP/libs/libDaisy/src/per/gpio.h **** 
  33:../libs/PoliTeKDSP/libs/libDaisy/src/per/gpio.h ****     /** @brief Configures whether an internal Pull up or Pull down resistor is used. 
  34:../libs/PoliTeKDSP/libs/libDaisy/src/per/gpio.h ****      *  
  35:../libs/PoliTeKDSP/libs/libDaisy/src/per/gpio.h ****      * Internal Pull up/down resistors are typically 40k ohms, and will be between
  36:../libs/PoliTeKDSP/libs/libDaisy/src/per/gpio.h ****      * 30k and 50k
  37:../libs/PoliTeKDSP/libs/libDaisy/src/per/gpio.h ****      * 
  38:../libs/PoliTeKDSP/libs/libDaisy/src/per/gpio.h ****      * When the Pin is configured in Analog mode, the pull up/down resistors are
  39:../libs/PoliTeKDSP/libs/libDaisy/src/per/gpio.h ****      * disabled by hardware. 
  40:../libs/PoliTeKDSP/libs/libDaisy/src/per/gpio.h ****      */
  41:../libs/PoliTeKDSP/libs/libDaisy/src/per/gpio.h ****     enum class Pull
  42:../libs/PoliTeKDSP/libs/libDaisy/src/per/gpio.h ****     {
  43:../libs/PoliTeKDSP/libs/libDaisy/src/per/gpio.h ****         NOPULL,   /**< No pull up resistor */
  44:../libs/PoliTeKDSP/libs/libDaisy/src/per/gpio.h ****         PULLUP,   /**< Internal pull up enabled */
  45:../libs/PoliTeKDSP/libs/libDaisy/src/per/gpio.h ****         PULLDOWN, /**< Internal pull down enabled*/
  46:../libs/PoliTeKDSP/libs/libDaisy/src/per/gpio.h ****     };
  47:../libs/PoliTeKDSP/libs/libDaisy/src/per/gpio.h **** 
  48:../libs/PoliTeKDSP/libs/libDaisy/src/per/gpio.h ****     /** @brief Output speed controls the drive strength, and slew rate of the pin */
  49:../libs/PoliTeKDSP/libs/libDaisy/src/per/gpio.h ****     enum class Speed
  50:../libs/PoliTeKDSP/libs/libDaisy/src/per/gpio.h ****     {
  51:../libs/PoliTeKDSP/libs/libDaisy/src/per/gpio.h ****         LOW,
ARM GAS  C:\Users\skipi\AppData\Local\Temp\ccpgF6Mp.s 			page 204


  52:../libs/PoliTeKDSP/libs/libDaisy/src/per/gpio.h ****         MEDIUM,
  53:../libs/PoliTeKDSP/libs/libDaisy/src/per/gpio.h ****         HIGH,
  54:../libs/PoliTeKDSP/libs/libDaisy/src/per/gpio.h ****         VERY_HIGH,
  55:../libs/PoliTeKDSP/libs/libDaisy/src/per/gpio.h ****     };
  56:../libs/PoliTeKDSP/libs/libDaisy/src/per/gpio.h **** 
  57:../libs/PoliTeKDSP/libs/libDaisy/src/per/gpio.h ****     /** @brief Configuration for a given GPIO */
  58:../libs/PoliTeKDSP/libs/libDaisy/src/per/gpio.h ****     struct Config
  59:../libs/PoliTeKDSP/libs/libDaisy/src/per/gpio.h ****     {
  60:../libs/PoliTeKDSP/libs/libDaisy/src/per/gpio.h ****         Pin   pin;
  61:../libs/PoliTeKDSP/libs/libDaisy/src/per/gpio.h ****         Mode  mode;
  62:../libs/PoliTeKDSP/libs/libDaisy/src/per/gpio.h ****         Pull  pull;
  63:../libs/PoliTeKDSP/libs/libDaisy/src/per/gpio.h ****         Speed speed;
  64:../libs/PoliTeKDSP/libs/libDaisy/src/per/gpio.h **** 
  65:../libs/PoliTeKDSP/libs/libDaisy/src/per/gpio.h ****         /** Constructor with no arguments will prepare an invalid GPIO set as
  66:../libs/PoliTeKDSP/libs/libDaisy/src/per/gpio.h ****          *  an input, with no pullup. 
  67:../libs/PoliTeKDSP/libs/libDaisy/src/per/gpio.h ****          */
  68:../libs/PoliTeKDSP/libs/libDaisy/src/per/gpio.h ****         Config()
  69:../libs/PoliTeKDSP/libs/libDaisy/src/per/gpio.h ****         : pin(), mode(Mode::INPUT), pull(Pull::NOPULL), speed(Speed::LOW)
  70:../libs/PoliTeKDSP/libs/libDaisy/src/per/gpio.h ****         {
  71:../libs/PoliTeKDSP/libs/libDaisy/src/per/gpio.h ****         }
  72:../libs/PoliTeKDSP/libs/libDaisy/src/per/gpio.h ****     };
  73:../libs/PoliTeKDSP/libs/libDaisy/src/per/gpio.h **** 
  74:../libs/PoliTeKDSP/libs/libDaisy/src/per/gpio.h ****     GPIO() {}
 7178              		.loc 20 74 5 is_stmt 1 view .LVU1787
 7179              	.LBB1890:
 7180              	.LBB1891:
 7181              	.LBI1891:
  68:../libs/PoliTeKDSP/libs/libDaisy/src/per/gpio.h ****         : pin(), mode(Mode::INPUT), pull(Pull::NOPULL), speed(Speed::LOW)
 7182              		.loc 20 68 9 view .LVU1788
 7183              	.LBB1892:
 7184              	.LBB1893:
 7185              	.LBB1894:
 7186              	.LBI1894:
 7187              		.loc 16 204 15 view .LVU1789
 7188              		.loc 16 204 15 is_stmt 0 view .LVU1790
 7189              	.LBE1894:
 7190              	.LBE1893:
 7191              	.LBE1892:
 7192              	.LBE1891:
 7193              	.LBE1890:
 7194              	.LBE1889:
 7195              	.LBB1903:
 7196              	.LBI1903:
 7197              		.loc 20 74 5 is_stmt 1 view .LVU1791
 7198              	.LBB1904:
 7199              	.LBB1905:
 7200              	.LBI1905:
  68:../libs/PoliTeKDSP/libs/libDaisy/src/per/gpio.h ****         : pin(), mode(Mode::INPUT), pull(Pull::NOPULL), speed(Speed::LOW)
 7201              		.loc 20 68 9 view .LVU1792
 7202              	.LBB1906:
 7203              	.LBB1907:
 7204              	.LBB1908:
 7205              	.LBI1908:
 7206              		.loc 16 204 15 view .LVU1793
 7207              		.loc 16 204 15 is_stmt 0 view .LVU1794
 7208              	.LBE1908:
 7209              	.LBE1907:
ARM GAS  C:\Users\skipi\AppData\Local\Temp\ccpgF6Mp.s 			page 205


 7210              	.LBE1906:
 7211              	.LBE1905:
 7212              	.LBE1904:
 7213              	.LBE1903:
 7214              	.LBB1917:
 7215              	.LBI1917:
  96:../libs/PoliTeKDSP/libs/libDaisy/src/sys/system.h ****     ~System() {}
 7216              		.loc 5 96 5 is_stmt 1 view .LVU1795
  96:../libs/PoliTeKDSP/libs/libDaisy/src/sys/system.h ****     ~System() {}
 7217              		.loc 5 96 5 is_stmt 0 view .LVU1796
 7218              	.LBE1917:
 7219              	.LBB1918:
 7220              	.LBI1918:
  20:../libs/PoliTeKDSP/libs/libDaisy/src/dev/codec_ak4556.h ****     ~Ak4556() {}
 7221              		.loc 4 20 5 is_stmt 1 view .LVU1797
 7222              	.LBB1919:
 7223              	.LBI1919:
 7224              		.loc 20 74 5 view .LVU1798
 7225              	.LBB1920:
 7226              	.LBB1921:
 7227              	.LBI1921:
  68:../libs/PoliTeKDSP/libs/libDaisy/src/per/gpio.h ****         : pin(), mode(Mode::INPUT), pull(Pull::NOPULL), speed(Speed::LOW)
 7228              		.loc 20 68 9 view .LVU1799
 7229              	.LBB1922:
 7230              	.LBB1923:
 7231              	.LBB1924:
 7232              	.LBI1924:
 7233              		.loc 16 204 15 view .LVU1800
 7234              		.loc 16 204 15 is_stmt 0 view .LVU1801
 7235              	.LBE1924:
 7236              	.LBE1923:
 7237              	.LBE1922:
 7238              	.LBE1921:
 7239              	.LBE1920:
 7240              	.LBE1919:
 7241              	.LBE1918:
 7242              	.LBB1935:
 7243              	.LBI1935:
 7244              		.file 21 "../libs/PoliTeKDSP/libs/libDaisy/src/per/sai.h"
   1:../libs/PoliTeKDSP/libs/libDaisy/src/per/sai.h **** #pragma once
   2:../libs/PoliTeKDSP/libs/libDaisy/src/per/sai.h **** #ifndef DSY_SAI_H
   3:../libs/PoliTeKDSP/libs/libDaisy/src/per/sai.h **** #define DSY_SAI_H
   4:../libs/PoliTeKDSP/libs/libDaisy/src/per/sai.h **** 
   5:../libs/PoliTeKDSP/libs/libDaisy/src/per/sai.h **** #include "util/hal_map.h"
   6:../libs/PoliTeKDSP/libs/libDaisy/src/per/sai.h **** #include "daisy_core.h"
   7:../libs/PoliTeKDSP/libs/libDaisy/src/per/sai.h **** 
   8:../libs/PoliTeKDSP/libs/libDaisy/src/per/sai.h **** namespace daisy
   9:../libs/PoliTeKDSP/libs/libDaisy/src/per/sai.h **** {
  10:../libs/PoliTeKDSP/libs/libDaisy/src/per/sai.h **** /** 
  11:../libs/PoliTeKDSP/libs/libDaisy/src/per/sai.h ****  * Support for I2S Audio Protocol with different bit-depth, samplerate options
  12:../libs/PoliTeKDSP/libs/libDaisy/src/per/sai.h ****  * Allows for master or slave, as well as freedom of selecting direction, 
  13:../libs/PoliTeKDSP/libs/libDaisy/src/per/sai.h ****  * and other behavior for each peripheral, and block.
  14:../libs/PoliTeKDSP/libs/libDaisy/src/per/sai.h ****  * 
  15:../libs/PoliTeKDSP/libs/libDaisy/src/per/sai.h ****  * DMA Transfer commands must use buffers located within non-cached memory or use cache maintenance
  16:../libs/PoliTeKDSP/libs/libDaisy/src/per/sai.h ****  * To declare an unitialized global element in the DMA memory section:
  17:../libs/PoliTeKDSP/libs/libDaisy/src/per/sai.h ****  *    int32_t DSY_DMA_BUFFER_SECTOR my_buffer[96];
  18:../libs/PoliTeKDSP/libs/libDaisy/src/per/sai.h ****  *
ARM GAS  C:\Users\skipi\AppData\Local\Temp\ccpgF6Mp.s 			page 206


  19:../libs/PoliTeKDSP/libs/libDaisy/src/per/sai.h ****  * Callback functions will be called once per half of the buffer. In the above example, 
  20:../libs/PoliTeKDSP/libs/libDaisy/src/per/sai.h ****  * the callback function would be called once for every 48 samples.
  21:../libs/PoliTeKDSP/libs/libDaisy/src/per/sai.h ****  * 
  22:../libs/PoliTeKDSP/libs/libDaisy/src/per/sai.h ****  * Use SAI Handle like this:
  23:../libs/PoliTeKDSP/libs/libDaisy/src/per/sai.h ****  * 
  24:../libs/PoliTeKDSP/libs/libDaisy/src/per/sai.h ****  *  SaiHandle::Config sai_config;
  25:../libs/PoliTeKDSP/libs/libDaisy/src/per/sai.h ****  *  sai_config.periph          = SaiHandle::Config::Peripheral::SAI_1;
  26:../libs/PoliTeKDSP/libs/libDaisy/src/per/sai.h ****  *  sai_config.sr              = SaiHandle::Config::SampleRate::SAI_48KHZ;
  27:../libs/PoliTeKDSP/libs/libDaisy/src/per/sai.h ****  *  sai_config.bit_depth       = SaiHandle::Config::BitDepth::SAI_24BIT;
  28:../libs/PoliTeKDSP/libs/libDaisy/src/per/sai.h ****  *  sai_config.a_sync          = SaiHandle::Config::Sync::MASTER;
  29:../libs/PoliTeKDSP/libs/libDaisy/src/per/sai.h ****  *  sai_config.b_sync          = SaiHandle::Config::Sync::SLAVE;
  30:../libs/PoliTeKDSP/libs/libDaisy/src/per/sai.h ****  *  sai_config.a_dir           = SaiHandle::Config::Direction::RECEIVE;
  31:../libs/PoliTeKDSP/libs/libDaisy/src/per/sai.h ****  *  sai_config.b_dir           = SaiHandle::Config::Direction::TRANSMIT;
  32:../libs/PoliTeKDSP/libs/libDaisy/src/per/sai.h ****  *  sai_config.pin_config.fs   = {DSY_GPIOE, 4};
  33:../libs/PoliTeKDSP/libs/libDaisy/src/per/sai.h ****  *  sai_config.pin_config.mclk = {DSY_GPIOE, 2};
  34:../libs/PoliTeKDSP/libs/libDaisy/src/per/sai.h ****  *  sai_config.pin_config.sck  = {DSY_GPIOE, 5};
  35:../libs/PoliTeKDSP/libs/libDaisy/src/per/sai.h ****  *  sai_config.pin_config.sa   = {DSY_GPIOE, 6};
  36:../libs/PoliTeKDSP/libs/libDaisy/src/per/sai.h ****  *  sai_config.pin_config.sb   = {DSY_GPIOE, 3};
  37:../libs/PoliTeKDSP/libs/libDaisy/src/per/sai.h ****  *  // Then Initialize
  38:../libs/PoliTeKDSP/libs/libDaisy/src/per/sai.h ****  *  SaiHandle sai;
  39:../libs/PoliTeKDSP/libs/libDaisy/src/per/sai.h ****  *  sai.Init(sai_config);
  40:../libs/PoliTeKDSP/libs/libDaisy/src/per/sai.h ****  *  // Now you can use it:
  41:../libs/PoliTeKDSP/libs/libDaisy/src/per/sai.h ****  *  sai.StartDma(. . .);
  42:../libs/PoliTeKDSP/libs/libDaisy/src/per/sai.h ****  */
  43:../libs/PoliTeKDSP/libs/libDaisy/src/per/sai.h **** class SaiHandle
  44:../libs/PoliTeKDSP/libs/libDaisy/src/per/sai.h **** {
  45:../libs/PoliTeKDSP/libs/libDaisy/src/per/sai.h ****   public:
  46:../libs/PoliTeKDSP/libs/libDaisy/src/per/sai.h ****     /** Contains settings for initialising an SAI Interface */
  47:../libs/PoliTeKDSP/libs/libDaisy/src/per/sai.h ****     struct Config
  48:../libs/PoliTeKDSP/libs/libDaisy/src/per/sai.h ****     {
  49:../libs/PoliTeKDSP/libs/libDaisy/src/per/sai.h ****         /** Specifies the internal peripheral to use (mapped to different hardware pins) */
  50:../libs/PoliTeKDSP/libs/libDaisy/src/per/sai.h ****         enum class Peripheral
  51:../libs/PoliTeKDSP/libs/libDaisy/src/per/sai.h ****         {
  52:../libs/PoliTeKDSP/libs/libDaisy/src/per/sai.h ****             SAI_1,
  53:../libs/PoliTeKDSP/libs/libDaisy/src/per/sai.h ****             SAI_2,
  54:../libs/PoliTeKDSP/libs/libDaisy/src/per/sai.h ****         };
  55:../libs/PoliTeKDSP/libs/libDaisy/src/per/sai.h **** 
  56:../libs/PoliTeKDSP/libs/libDaisy/src/per/sai.h ****         /** Rate at which samples will be streaming to/from the device. */
  57:../libs/PoliTeKDSP/libs/libDaisy/src/per/sai.h ****         enum class SampleRate
  58:../libs/PoliTeKDSP/libs/libDaisy/src/per/sai.h ****         {
  59:../libs/PoliTeKDSP/libs/libDaisy/src/per/sai.h ****             SAI_8KHZ,
  60:../libs/PoliTeKDSP/libs/libDaisy/src/per/sai.h ****             SAI_16KHZ,
  61:../libs/PoliTeKDSP/libs/libDaisy/src/per/sai.h ****             SAI_32KHZ,
  62:../libs/PoliTeKDSP/libs/libDaisy/src/per/sai.h ****             SAI_48KHZ,
  63:../libs/PoliTeKDSP/libs/libDaisy/src/per/sai.h ****             SAI_96KHZ,
  64:../libs/PoliTeKDSP/libs/libDaisy/src/per/sai.h ****         };
  65:../libs/PoliTeKDSP/libs/libDaisy/src/per/sai.h **** 
  66:../libs/PoliTeKDSP/libs/libDaisy/src/per/sai.h ****         /** Bit Depth that the hardware expects to be transferred to/from the device. */
  67:../libs/PoliTeKDSP/libs/libDaisy/src/per/sai.h ****         enum class BitDepth
  68:../libs/PoliTeKDSP/libs/libDaisy/src/per/sai.h ****         {
  69:../libs/PoliTeKDSP/libs/libDaisy/src/per/sai.h ****             SAI_16BIT,
  70:../libs/PoliTeKDSP/libs/libDaisy/src/per/sai.h ****             SAI_24BIT,
  71:../libs/PoliTeKDSP/libs/libDaisy/src/per/sai.h ****             SAI_32BIT,
  72:../libs/PoliTeKDSP/libs/libDaisy/src/per/sai.h ****         };
  73:../libs/PoliTeKDSP/libs/libDaisy/src/per/sai.h **** 
  74:../libs/PoliTeKDSP/libs/libDaisy/src/per/sai.h ****         /** Specifies whether a particular block is the master or the slave 
  75:../libs/PoliTeKDSP/libs/libDaisy/src/per/sai.h ****          ** If both are set to slave, no MCLK signal will be used, and it is
ARM GAS  C:\Users\skipi\AppData\Local\Temp\ccpgF6Mp.s 			page 207


  76:../libs/PoliTeKDSP/libs/libDaisy/src/per/sai.h ****          ** expected that the codec will have its own xtal.
  77:../libs/PoliTeKDSP/libs/libDaisy/src/per/sai.h ****          */
  78:../libs/PoliTeKDSP/libs/libDaisy/src/per/sai.h ****         enum class Sync
  79:../libs/PoliTeKDSP/libs/libDaisy/src/per/sai.h ****         {
  80:../libs/PoliTeKDSP/libs/libDaisy/src/per/sai.h ****             MASTER,
  81:../libs/PoliTeKDSP/libs/libDaisy/src/per/sai.h ****             SLAVE,
  82:../libs/PoliTeKDSP/libs/libDaisy/src/per/sai.h ****         };
  83:../libs/PoliTeKDSP/libs/libDaisy/src/per/sai.h **** 
  84:../libs/PoliTeKDSP/libs/libDaisy/src/per/sai.h ****         /** Specifies the direction for each peripheral block. */
  85:../libs/PoliTeKDSP/libs/libDaisy/src/per/sai.h ****         enum class Direction
  86:../libs/PoliTeKDSP/libs/libDaisy/src/per/sai.h ****         {
  87:../libs/PoliTeKDSP/libs/libDaisy/src/per/sai.h ****             TRANSMIT,
  88:../libs/PoliTeKDSP/libs/libDaisy/src/per/sai.h ****             RECEIVE,
  89:../libs/PoliTeKDSP/libs/libDaisy/src/per/sai.h ****         };
  90:../libs/PoliTeKDSP/libs/libDaisy/src/per/sai.h **** 
  91:../libs/PoliTeKDSP/libs/libDaisy/src/per/sai.h ****         Peripheral periph;
  92:../libs/PoliTeKDSP/libs/libDaisy/src/per/sai.h ****         struct
  93:../libs/PoliTeKDSP/libs/libDaisy/src/per/sai.h ****         {
  94:../libs/PoliTeKDSP/libs/libDaisy/src/per/sai.h ****             Pin mclk, fs, sck, sa, sb;
  95:../libs/PoliTeKDSP/libs/libDaisy/src/per/sai.h ****         } pin_config;
  96:../libs/PoliTeKDSP/libs/libDaisy/src/per/sai.h ****         SampleRate sr;
  97:../libs/PoliTeKDSP/libs/libDaisy/src/per/sai.h ****         BitDepth   bit_depth;
  98:../libs/PoliTeKDSP/libs/libDaisy/src/per/sai.h ****         Sync       a_sync, b_sync;
  99:../libs/PoliTeKDSP/libs/libDaisy/src/per/sai.h ****         Direction  a_dir, b_dir;
 100:../libs/PoliTeKDSP/libs/libDaisy/src/per/sai.h ****     };
 101:../libs/PoliTeKDSP/libs/libDaisy/src/per/sai.h **** 
 102:../libs/PoliTeKDSP/libs/libDaisy/src/per/sai.h ****     /** Return values for SAI functions */
 103:../libs/PoliTeKDSP/libs/libDaisy/src/per/sai.h ****     enum class Result
 104:../libs/PoliTeKDSP/libs/libDaisy/src/per/sai.h ****     {
 105:../libs/PoliTeKDSP/libs/libDaisy/src/per/sai.h ****         OK,
 106:../libs/PoliTeKDSP/libs/libDaisy/src/per/sai.h ****         ERR,
 107:../libs/PoliTeKDSP/libs/libDaisy/src/per/sai.h ****     };
 108:../libs/PoliTeKDSP/libs/libDaisy/src/per/sai.h **** 
 109:../libs/PoliTeKDSP/libs/libDaisy/src/per/sai.h ****     SaiHandle() : pimpl_(nullptr) {}
 7245              		.loc 21 109 5 is_stmt 1 view .LVU1802
 7246              	.LBE1935:
 7247              	.LBE1867:
 7248              	.LBE1866:
 7249              	.LBE1865:
 7250              	.LBE1864:
 7251              		.loc 12 161 1 is_stmt 0 view .LVU1803
 7252 0000 70B5     		push	{r4, r5, r6, lr}
 7253              		.cfi_def_cfa_offset 16
 7254              		.cfi_offset 4, -16
 7255              		.cfi_offset 5, -12
 7256              		.cfi_offset 6, -8
 7257              		.cfi_offset 14, -4
 7258              	.LBB2034:
 7259              	.LBB2032:
 7260              	.LBB1952:
 7261              	.LBB1949:
 7262              	.LBB1938:
 7263              	.LBB1869:
 7264              	.LBB1870:
 7265              		.loc 18 167 34 view .LVU1804
 7266 0002 2848     		ldr	r0, .L458
 7267 0004 0024     		movs	r4, #0
ARM GAS  C:\Users\skipi\AppData\Local\Temp\ccpgF6Mp.s 			page 208


 7268              	.LBE1870:
 7269              	.LBE1869:
 7270              	.LBE1938:
  21:../libs/PoliTeKDSP/libs/libDaisy/src/daisy_seed.h ****     ~DaisySeed() {}
 7271              		.loc 3 21 17 view .LVU1805
 7272 0006 4FF60B75 		movw	r5, #65291
 7273              	.LBE1949:
 7274              	.LBE1952:
  11:main.cpp      **** DaisySeed      hw;
 7275              		.loc 12 11 16 view .LVU1806
 7276 000a 274E     		ldr	r6, .L458+4
 7277              	.LBB1953:
 7278              	.LBB1950:
  21:../libs/PoliTeKDSP/libs/libDaisy/src/daisy_seed.h ****     ~DaisySeed() {}
 7279              		.loc 3 21 17 view .LVU1807
 7280 000c 6FF0F413 		mvn	r3, #15991028
 7281              	.LBE1950:
 7282              	.LBE1953:
  11:main.cpp      **** DaisySeed      hw;
 7283              		.loc 12 11 16 view .LVU1808
 7284 0010 2649     		ldr	r1, .L458+8
 7285 0012 3246     		mov	r2, r6
 7286              	.LBB1954:
 7287              	.LBB1951:
 7288              	.LBB1939:
 7289              	.LBB1872:
 7290              	.LBB1871:
 7291              		.loc 18 167 34 view .LVU1809
 7292 0014 0460     		str	r4, [r0]
 7293              	.LBE1871:
 7294              	.LBE1872:
 7295              	.LBE1939:
  21:../libs/PoliTeKDSP/libs/libDaisy/src/daisy_seed.h ****     ~DaisySeed() {}
 7296              		.loc 3 21 17 view .LVU1810
 7297 0016 C360     		str	r3, [r0, #12]
 7298              	.LBB1940:
 7299              	.LBB1882:
 7300              	.LBB1883:
  87:../libs/PoliTeKDSP/libs/libDaisy/src/hid/audio.h ****     ~AudioHandle() {}
 7301              		.loc 8 87 35 view .LVU1811
 7302 0018 4461     		str	r4, [r0, #20]
 7303              	.LBE1883:
 7304              	.LBE1882:
 7305              	.LBE1940:
 7306              	.LBB1941:
 7307              	.LBB1886:
 7308              	.LBB1887:
 7309              		.loc 19 84 33 view .LVU1812
 7310 001a 0462     		str	r4, [r0, #32]
 7311              	.LBE1887:
 7312              	.LBE1886:
 7313              	.LBE1941:
 7314              	.LBB1942:
 7315              	.LBB1936:
 7316              	.LBB1937:
 7317              		.loc 21 109 33 view .LVU1813
 7318 001c 0467     		str	r4, [r0, #112]
ARM GAS  C:\Users\skipi\AppData\Local\Temp\ccpgF6Mp.s 			page 209


 7319              	.LVL527:
 7320              		.loc 21 109 33 view .LVU1814
 7321              	.LBE1937:
 7322              	.LBE1936:
 7323              	.LBE1942:
  21:../libs/PoliTeKDSP/libs/libDaisy/src/daisy_seed.h ****     ~DaisySeed() {}
 7324              		.loc 3 21 17 view .LVU1815
 7325 001e C0E90133 		strd	r3, r3, [r0, #4]
 7326              	.LBB1943:
 7327              	.LBB1901:
 7328              	.LBB1899:
 7329              	.LBB1897:
 7330              	.LBB1895:
  69:../libs/PoliTeKDSP/libs/libDaisy/src/per/gpio.h ****         {
 7331              		.loc 20 69 73 view .LVU1816
 7332 0022 C0E90A54 		strd	r5, r4, [r0, #40]
 7333              	.LBE1895:
 7334              	.LBE1897:
 7335              	.LBE1899:
 7336              	.LBE1901:
 7337              	.LBE1943:
 7338              	.LBB1944:
 7339              	.LBB1915:
 7340              	.LBB1913:
 7341              	.LBB1911:
 7342              	.LBB1909:
 7343 0026 C0E90F54 		strd	r5, r4, [r0, #60]
 7344              	.LBE1909:
 7345              	.LBE1911:
 7346              	.LBE1913:
 7347              	.LBE1915:
 7348              	.LBE1944:
 7349              	.LBB1945:
 7350              	.LBB1933:
 7351              	.LBB1931:
 7352              	.LBB1929:
 7353              	.LBB1927:
 7354              	.LBB1925:
 7355 002a C0E91654 		strd	r5, r4, [r0, #88]
 7356              	.LBE1925:
 7357              	.LBE1927:
 7358              	.LBE1929:
 7359              	.LBE1931:
 7360              	.LBE1933:
 7361              	.LBE1945:
 7362              	.LBB1946:
 7363              	.LBB1902:
 7364              	.LBB1900:
 7365              	.LBB1898:
 7366              	.LBB1896:
 7367 002e C0E90C44 		strd	r4, r4, [r0, #48]
 7368              	.LBE1896:
 7369              	.LBE1898:
 7370              	.LBE1900:
 7371              	.LBE1902:
 7372              	.LBE1946:
 7373              	.LBB1947:
ARM GAS  C:\Users\skipi\AppData\Local\Temp\ccpgF6Mp.s 			page 210


 7374              	.LBB1916:
 7375              	.LBB1914:
 7376              	.LBB1912:
 7377              	.LBB1910:
 7378 0032 C0E91144 		strd	r4, r4, [r0, #68]
 7379              	.LBE1910:
 7380              	.LBE1912:
 7381              	.LBE1914:
 7382              	.LBE1916:
 7383              	.LBE1947:
 7384              	.LBB1948:
 7385              	.LBB1934:
 7386              	.LBB1932:
 7387              	.LBB1930:
 7388              	.LBB1928:
 7389              	.LBB1926:
 7390 0036 C0E91844 		strd	r4, r4, [r0, #96]
 7391              	.LBE1926:
 7392              	.LBE1928:
 7393              	.LBE1930:
 7394              	.LBE1932:
 7395              	.LBE1934:
 7396              	.LBE1948:
 7397              	.LBE1951:
 7398              	.LBE1954:
  11:main.cpp      **** DaisySeed      hw;
 7399              		.loc 12 11 16 view .LVU1817
 7400 003a FFF7FEFF 		bl	__aeabi_atexit
 7401              	.LVL528:
 7402              	.LBB1955:
 7403              	.LBI1955:
  20:../libs/PoliTeKDSP/libs/libDaisy/src/hid/encoder.h ****     ~Encoder() {}
 7404              		.loc 1 20 5 is_stmt 1 view .LVU1818
 7405              	.LBB1956:
 7406              	.LBB1957:
 7407              	.LBI1957:
  33:../libs/PoliTeKDSP/libs/libDaisy/src/hid/switch.h ****     ~Switch() {}
 7408              		.loc 2 33 5 view .LVU1819
 7409              	.LBB1958:
 7410              	.LBB1959:
 7411              	.LBI1959:
 7412              		.loc 20 74 5 view .LVU1820
 7413              	.LBB1960:
 7414              	.LBB1961:
 7415              	.LBI1961:
  68:../libs/PoliTeKDSP/libs/libDaisy/src/per/gpio.h ****         : pin(), mode(Mode::INPUT), pull(Pull::NOPULL), speed(Speed::LOW)
 7416              		.loc 20 68 9 view .LVU1821
 7417              	.LBB1962:
 7418              	.LBB1963:
 7419              	.LBB1964:
 7420              	.LBI1964:
 7421              		.loc 16 204 15 view .LVU1822
 7422              		.loc 16 204 15 is_stmt 0 view .LVU1823
 7423              	.LBE1964:
 7424              	.LBE1963:
 7425              	.LBE1962:
 7426              	.LBE1961:
ARM GAS  C:\Users\skipi\AppData\Local\Temp\ccpgF6Mp.s 			page 211


 7427              	.LBE1960:
 7428              	.LBE1959:
 7429              	.LBE1958:
 7430              	.LBE1957:
 7431              	.LBB1977:
 7432              	.LBI1977:
 7433              		.loc 20 74 5 is_stmt 1 view .LVU1824
 7434              	.LBB1978:
 7435              	.LBB1979:
 7436              	.LBI1979:
  68:../libs/PoliTeKDSP/libs/libDaisy/src/per/gpio.h ****         : pin(), mode(Mode::INPUT), pull(Pull::NOPULL), speed(Speed::LOW)
 7437              		.loc 20 68 9 view .LVU1825
 7438              	.LBB1980:
 7439              	.LBB1981:
 7440              	.LBB1982:
 7441              	.LBI1982:
 7442              		.loc 16 204 15 view .LVU1826
 7443              		.loc 16 204 15 is_stmt 0 view .LVU1827
 7444              	.LBE1982:
 7445              	.LBE1981:
 7446              	.LBE1980:
 7447              	.LBE1979:
 7448              	.LBE1978:
 7449              	.LBE1977:
 7450              	.LBB1991:
 7451              	.LBI1991:
 7452              		.loc 20 74 5 is_stmt 1 view .LVU1828
 7453              	.LBB1992:
 7454              	.LBB1993:
 7455              	.LBI1993:
  68:../libs/PoliTeKDSP/libs/libDaisy/src/per/gpio.h ****         : pin(), mode(Mode::INPUT), pull(Pull::NOPULL), speed(Speed::LOW)
 7456              		.loc 20 68 9 view .LVU1829
 7457              	.LBB1994:
 7458              	.LBB1995:
 7459              	.LBB1996:
 7460              	.LBI1996:
 7461              		.loc 16 204 15 view .LVU1830
 7462              		.loc 16 204 15 is_stmt 0 view .LVU1831
 7463              	.LBE1996:
 7464              	.LBE1995:
 7465              	.LBE1994:
 7466              	.LBE1993:
 7467              	.LBE1992:
 7468              	.LBE1991:
  20:../libs/PoliTeKDSP/libs/libDaisy/src/hid/encoder.h ****     ~Encoder() {}
 7469              		.loc 1 20 15 view .LVU1832
 7470 003e 1C48     		ldr	r0, .L458+12
 7471              	.LBE1956:
 7472              	.LBE1955:
  12:main.cpp      **** Encoder        enc;
 7473              		.loc 12 12 16 view .LVU1833
 7474 0040 3246     		mov	r2, r6
 7475 0042 1C49     		ldr	r1, .L458+16
 7476              	.LBB2012:
 7477              	.LBB2011:
 7478              	.LBB2005:
 7479              	.LBB1975:
ARM GAS  C:\Users\skipi\AppData\Local\Temp\ccpgF6Mp.s 			page 212


 7480              	.LBB1973:
 7481              	.LBB1971:
 7482              	.LBB1969:
 7483              	.LBB1967:
 7484              	.LBB1965:
  69:../libs/PoliTeKDSP/libs/libDaisy/src/per/gpio.h ****         {
 7485              		.loc 20 69 73 view .LVU1834
 7486 0044 C0E90454 		strd	r5, r4, [r0, #16]
 7487              	.LBE1965:
 7488              	.LBE1967:
 7489              	.LBE1969:
 7490              	.LBE1971:
 7491              	.LBE1973:
 7492              	.LBE1975:
 7493              	.LBE2005:
 7494              	.LBB2006:
 7495              	.LBB1989:
 7496              	.LBB1987:
 7497              	.LBB1985:
 7498              	.LBB1983:
 7499 0048 C0E90B54 		strd	r5, r4, [r0, #44]
 7500              	.LBE1983:
 7501              	.LBE1985:
 7502              	.LBE1987:
 7503              	.LBE1989:
 7504              	.LBE2006:
 7505              	.LBB2007:
 7506              	.LBB2003:
 7507              	.LBB2001:
 7508              	.LBB1999:
 7509              	.LBB1997:
 7510 004c C0E91054 		strd	r5, r4, [r0, #64]
 7511              	.LBE1997:
 7512              	.LBE1999:
 7513              	.LBE2001:
 7514              	.LBE2003:
 7515              	.LBE2007:
 7516              	.LBB2008:
 7517              	.LBB1976:
 7518              	.LBB1974:
 7519              	.LBB1972:
 7520              	.LBB1970:
 7521              	.LBB1968:
 7522              	.LBB1966:
 7523 0050 C0E90644 		strd	r4, r4, [r0, #24]
 7524              	.LBE1966:
 7525              	.LBE1968:
 7526              	.LBE1970:
 7527              	.LBE1972:
 7528              	.LBE1974:
 7529              	.LBE1976:
 7530              	.LBE2008:
 7531              	.LBB2009:
 7532              	.LBB1990:
 7533              	.LBB1988:
 7534              	.LBB1986:
 7535              	.LBB1984:
ARM GAS  C:\Users\skipi\AppData\Local\Temp\ccpgF6Mp.s 			page 213


 7536 0054 C0E90D44 		strd	r4, r4, [r0, #52]
 7537              	.LBE1984:
 7538              	.LBE1986:
 7539              	.LBE1988:
 7540              	.LBE1990:
 7541              	.LBE2009:
 7542              	.LBB2010:
 7543              	.LBB2004:
 7544              	.LBB2002:
 7545              	.LBB2000:
 7546              	.LBB1998:
 7547 0058 C0E91244 		strd	r4, r4, [r0, #72]
 7548              	.LVL529:
  69:../libs/PoliTeKDSP/libs/libDaisy/src/per/gpio.h ****         {
 7549              		.loc 20 69 73 view .LVU1835
 7550              	.LBE1998:
 7551              	.LBE2000:
 7552              	.LBE2002:
 7553              	.LBE2004:
 7554              	.LBE2010:
 7555              	.LBE2011:
 7556              	.LBE2012:
  12:main.cpp      **** Encoder        enc;
 7557              		.loc 12 12 16 view .LVU1836
 7558 005c FFF7FEFF 		bl	__aeabi_atexit
 7559              	.LVL530:
 7560              	.LBB2013:
 7561              	.LBI2013:
  17:../libs/PoliTeKDSP/libs/libDaisy/src/hid/disp/oled_display.h ****     virtual ~OledDisplay() {}
 7562              		.loc 9 17 5 is_stmt 1 view .LVU1837
 7563              	.LBB2014:
 7564              	.LBB2015:
 7565              	.LBB2016:
 7566              	.LBI2016:
 223:../libs/PoliTeKDSP/libs/libDaisy/src/hid/disp/display.h ****     virtual ~OneBitGraphicsDisplayImpl() {}
 7567              		.loc 10 223 5 view .LVU1838
 7568              	.LBB2017:
 7569              	.LBI2017:
  22:../libs/PoliTeKDSP/libs/libDaisy/src/hid/disp/display.h ****     virtual ~OneBitGraphicsDisplay() {}
 7570              		.loc 10 22 5 view .LVU1839
  22:../libs/PoliTeKDSP/libs/libDaisy/src/hid/disp/display.h ****     virtual ~OneBitGraphicsDisplay() {}
 7571              		.loc 10 22 5 is_stmt 0 view .LVU1840
 7572              	.LBE2017:
 7573              	.LBE2016:
  17:../libs/PoliTeKDSP/libs/libDaisy/src/hid/disp/oled_display.h ****     virtual ~OledDisplay() {}
 7574              		.loc 9 17 19 view .LVU1841
 7575 0060 154D     		ldr	r5, .L458+20
 7576 0062 164B     		ldr	r3, .L458+24
 7577              	.LBE2015:
 7578              	.LBE2014:
 7579              	.LBE2013:
  14:main.cpp      **** MyOledDisplay  disp;
 7580              		.loc 12 14 16 view .LVU1842
 7581 0064 3246     		mov	r2, r6
 7582              	.LBB2030:
 7583              	.LBB2028:
 7584              	.LBB2026:
ARM GAS  C:\Users\skipi\AppData\Local\Temp\ccpgF6Mp.s 			page 214


 7585              	.LBB2018:
 7586              	.LBB2019:
 7587              	.LBB2020:
 7588              	.LBB2021:
 7589              	.LBB2022:
  60:../libs/PoliTeKDSP/libs/libDaisy/src/per/i2c.h ****             Pin scl;  /**< & */
  61:../libs/PoliTeKDSP/libs/libDaisy/src/per/i2c.h ****             Pin sda;  /**< & */
  62:../libs/PoliTeKDSP/libs/libDaisy/src/per/i2c.h ****         } pin_config; /**< & */
  63:../libs/PoliTeKDSP/libs/libDaisy/src/per/i2c.h **** 
  64:../libs/PoliTeKDSP/libs/libDaisy/src/per/i2c.h ****         Speed speed; /**< & */
  65:../libs/PoliTeKDSP/libs/libDaisy/src/per/i2c.h ****         Mode  mode;  /**< & */
  66:../libs/PoliTeKDSP/libs/libDaisy/src/per/i2c.h ****         // 0x10 is chosen as a default to avoid conflicts with reserved addresses
  67:../libs/PoliTeKDSP/libs/libDaisy/src/per/i2c.h ****         uint8_t address = 0x10; /**< & */
  68:../libs/PoliTeKDSP/libs/libDaisy/src/per/i2c.h ****     };
  69:../libs/PoliTeKDSP/libs/libDaisy/src/per/i2c.h **** 
  70:../libs/PoliTeKDSP/libs/libDaisy/src/per/i2c.h ****     /** Return values for I2C functions. */
  71:../libs/PoliTeKDSP/libs/libDaisy/src/per/i2c.h ****     enum class Result
  72:../libs/PoliTeKDSP/libs/libDaisy/src/per/i2c.h ****     {
  73:../libs/PoliTeKDSP/libs/libDaisy/src/per/i2c.h ****         OK, /**< & */
  74:../libs/PoliTeKDSP/libs/libDaisy/src/per/i2c.h ****         ERR /**< & */
  75:../libs/PoliTeKDSP/libs/libDaisy/src/per/i2c.h ****     };
  76:../libs/PoliTeKDSP/libs/libDaisy/src/per/i2c.h **** 
  77:../libs/PoliTeKDSP/libs/libDaisy/src/per/i2c.h ****     enum class Direction
  78:../libs/PoliTeKDSP/libs/libDaisy/src/per/i2c.h ****     {
  79:../libs/PoliTeKDSP/libs/libDaisy/src/per/i2c.h ****         TRANSMIT, /**< & */
  80:../libs/PoliTeKDSP/libs/libDaisy/src/per/i2c.h ****         RECEIVE,  /**< & */
  81:../libs/PoliTeKDSP/libs/libDaisy/src/per/i2c.h ****     };
  82:../libs/PoliTeKDSP/libs/libDaisy/src/per/i2c.h **** 
  83:../libs/PoliTeKDSP/libs/libDaisy/src/per/i2c.h ****     I2CHandle() : pimpl_(nullptr) {}
 7590              		.loc 15 83 33 view .LVU1843
 7591 0066 AC60     		str	r4, [r5, #8]
 7592              	.LBE2022:
 7593              	.LBE2021:
 7594              	.LBE2020:
 7595              	.LBE2019:
 7596              	.LBE2018:
 7597              	.LBE2026:
 7598              	.LBE2028:
 7599              	.LBE2030:
  14:main.cpp      **** MyOledDisplay  disp;
 7600              		.loc 12 14 16 view .LVU1844
 7601 0068 2846     		mov	r0, r5
 7602              	.LBB2031:
 7603              	.LBB2029:
 7604              	.LBB2027:
  17:../libs/PoliTeKDSP/libs/libDaisy/src/hid/disp/oled_display.h ****     virtual ~OledDisplay() {}
 7605              		.loc 9 17 19 view .LVU1845
 7606 006a 2B60     		str	r3, [r5]
 7607              	.LVL531:
 7608              	.LBB2025:
 7609              	.LBI2018:
 254:Display/../../libs/PoliTeKDSP/libs/libDaisy/src/dev/oled_ssd130x.h **** {
 7610              		.loc 11 254 7 is_stmt 1 view .LVU1846
 7611              	.LBB2024:
 7612              	.LBI2019:
  16:Display/../../libs/PoliTeKDSP/libs/libDaisy/src/dev/oled_ssd130x.h **** {
 7613              		.loc 11 16 7 view .LVU1847
ARM GAS  C:\Users\skipi\AppData\Local\Temp\ccpgF6Mp.s 			page 215


 7614              	.LBB2023:
 7615              	.LBI2020:
 7616              		.loc 15 83 5 view .LVU1848
 7617              		.loc 15 83 5 is_stmt 0 view .LVU1849
 7618              	.LBE2023:
 7619              	.LBE2024:
 7620              	.LBE2025:
 7621              	.LBE2027:
 7622              	.LBE2029:
 7623              	.LBE2031:
  17:main.cpp      **** PlantConditioner pc;
 7624              		.loc 12 17 18 view .LVU1850
 7625 006c 144C     		ldr	r4, .L458+28
  14:main.cpp      **** MyOledDisplay  disp;
 7626              		.loc 12 14 16 view .LVU1851
 7627 006e 1549     		ldr	r1, .L458+32
 7628 0070 FFF7FEFF 		bl	__aeabi_atexit
 7629              	.LVL532:
  15:main.cpp      **** DisplayHandler disp_handle(&disp);
 7630              		.loc 12 15 33 view .LVU1852
 7631 0074 2946     		mov	r1, r5
 7632 0076 0122     		movs	r2, #1
 7633 0078 1348     		ldr	r0, .L458+36
 7634 007a FFF7FEFF 		bl	_ZN14DisplayHandlerC1EPN5daisy11OledDisplayINS0_13SSD130xDriverILj128ELj64ENS0_19SSD130xI2CTran
 7635              	.LVL533:
  17:main.cpp      **** PlantConditioner pc;
 7636              		.loc 12 17 18 view .LVU1853
 7637 007e 2046     		mov	r0, r4
 7638 0080 FFF7FEFF 		bl	_ZN16PlantConditionerC1Ev
 7639              	.LVL534:
 7640 0084 2046     		mov	r0, r4
  18:main.cpp      **** AudioEngine      synth;
 7641              		.loc 12 18 18 view .LVU1854
 7642 0086 114C     		ldr	r4, .L458+40
  17:main.cpp      **** PlantConditioner pc;
 7643              		.loc 12 17 18 view .LVU1855
 7644 0088 3246     		mov	r2, r6
 7645 008a 1149     		ldr	r1, .L458+44
 7646 008c FFF7FEFF 		bl	__aeabi_atexit
 7647              	.LVL535:
  18:main.cpp      **** AudioEngine      synth;
 7648              		.loc 12 18 18 view .LVU1856
 7649 0090 2046     		mov	r0, r4
 7650 0092 FFF7FEFF 		bl	_ZN11AudioEngineC1Ev
 7651              	.LVL536:
 7652 0096 3246     		mov	r2, r6
 7653 0098 2046     		mov	r0, r4
 7654 009a 0E49     		ldr	r1, .L458+48
 7655              	.LBE2032:
 7656              	.LBE2034:
 7657              		.loc 12 161 1 view .LVU1857
 7658 009c BDE87040 		pop	{r4, r5, r6, lr}
 7659              		.cfi_restore 14
 7660              		.cfi_restore 6
 7661              		.cfi_restore 5
 7662              		.cfi_restore 4
 7663              		.cfi_def_cfa_offset 0
ARM GAS  C:\Users\skipi\AppData\Local\Temp\ccpgF6Mp.s 			page 216


 7664              	.LBB2035:
 7665              	.LBB2033:
  18:main.cpp      **** AudioEngine      synth;
 7666              		.loc 12 18 18 view .LVU1858
 7667 00a0 FFF7FEBF 		b	__aeabi_atexit
 7668              	.LVL537:
 7669              	.L459:
 7670              		.align	2
 7671              	.L458:
 7672 00a4 00000000 		.word	.LANCHOR2
 7673 00a8 00000000 		.word	__dso_handle
 7674 00ac 00000000 		.word	_ZN5daisy9DaisySeedD1Ev
 7675 00b0 00000000 		.word	.LANCHOR3
 7676 00b4 00000000 		.word	_ZN5daisy7EncoderD1Ev
 7677 00b8 00000000 		.word	.LANCHOR5
 7678 00bc 08000000 		.word	_ZTVN5daisy11OledDisplayINS_13SSD130xDriverILj128ELj64ENS_19SSD130xI2CTransportEEEEE+8
 7679 00c0 00000000 		.word	.LANCHOR6
 7680 00c4 00000000 		.word	_ZN5daisy11OledDisplayINS_13SSD130xDriverILj128ELj64ENS_19SSD130xI2CTransportEEEED1Ev
 7681 00c8 00000000 		.word	.LANCHOR1
 7682 00cc 00000000 		.word	synth
 7683 00d0 00000000 		.word	_ZN16PlantConditionerD1Ev
 7684 00d4 00000000 		.word	_ZN11AudioEngineD1Ev
 7685              	.LBE2033:
 7686              	.LBE2035:
 7687              		.cfi_endproc
 7688              	.LFE5735:
 7690              		.section	.init_array,"aw",%init_array
 7691              		.align	2
 7692 0000 00000000 		.word	_GLOBAL__sub_I_hw(target1)
 7693              		.weak	_ZTVN5daisy11OledDisplayINS_13SSD130xDriverILj128ELj64ENS_19SSD130xI2CTransportEEEEE
 7694              		.section	.rodata._ZTVN5daisy11OledDisplayINS_13SSD130xDriverILj128ELj64ENS_19SSD130xI2CTransportEE
 7695              		.align	2
 7698              	_ZTVN5daisy11OledDisplayINS_13SSD130xDriverILj128ELj64ENS_19SSD130xI2CTransportEEEEE:
 7699 0000 00000000 		.word	0
 7700 0004 00000000 		.word	0
 7701 0008 00000000 		.word	_ZN5daisy11OledDisplayINS_13SSD130xDriverILj128ELj64ENS_19SSD130xI2CTransportEEEED1Ev
 7702 000c 00000000 		.word	_ZN5daisy11OledDisplayINS_13SSD130xDriverILj128ELj64ENS_19SSD130xI2CTransportEEEED0Ev
 7703 0010 00000000 		.word	_ZNK5daisy11OledDisplayINS_13SSD130xDriverILj128ELj64ENS_19SSD130xI2CTransportEEEE6HeightEv
 7704 0014 00000000 		.word	_ZNK5daisy11OledDisplayINS_13SSD130xDriverILj128ELj64ENS_19SSD130xI2CTransportEEEE5WidthEv
 7705 0018 00000000 		.word	_ZN5daisy11OledDisplayINS_13SSD130xDriverILj128ELj64ENS_19SSD130xI2CTransportEEEE4FillEb
 7706 001c 00000000 		.word	_ZN5daisy11OledDisplayINS_13SSD130xDriverILj128ELj64ENS_19SSD130xI2CTransportEEEE9DrawPixelE
 7707 0020 00000000 		.word	_ZN5daisy25OneBitGraphicsDisplayImplINS_11OledDisplayINS_13SSD130xDriverILj128ELj64ENS_19SSD
 7708 0024 00000000 		.word	_ZN5daisy25OneBitGraphicsDisplayImplINS_11OledDisplayINS_13SSD130xDriverILj128ELj64ENS_19SSD
 7709 0028 00000000 		.word	_ZN5daisy25OneBitGraphicsDisplayImplINS_11OledDisplayINS_13SSD130xDriverILj128ELj64ENS_19SSD
 7710 002c 00000000 		.word	_ZN5daisy25OneBitGraphicsDisplayImplINS_11OledDisplayINS_13SSD130xDriverILj128ELj64ENS_19SSD
 7711 0030 00000000 		.word	_ZN5daisy25OneBitGraphicsDisplayImplINS_11OledDisplayINS_13SSD130xDriverILj128ELj64ENS_19SSD
 7712 0034 00000000 		.word	_ZN5daisy25OneBitGraphicsDisplayImplINS_11OledDisplayINS_13SSD130xDriverILj128ELj64ENS_19SSD
 7713 0038 00000000 		.word	_ZN5daisy11OledDisplayINS_13SSD130xDriverILj128ELj64ENS_19SSD130xI2CTransportEEEE6UpdateEv
 7714 003c 00000000 		.word	_ZN5daisy11OledDisplayINS_13SSD130xDriverILj128ELj64ENS_19SSD130xI2CTransportEEEE14UpdateFin
 7715              		.global	audio_controls
 7716              		.global	synth
 7717              		.global	pc
 7718              		.global	disp_handle
 7719              		.global	disp
 7720              		.global	menu
 7721              		.global	enc
 7722              		.global	hw
ARM GAS  C:\Users\skipi\AppData\Local\Temp\ccpgF6Mp.s 			page 217


 7723              		.section	.bss.disp,"aw",%nobits
 7724              		.align	2
 7725              		.set	.LANCHOR5,. + 0
 7728              	disp:
 7729 0000 00000000 		.space	1040
 7729      00000000 
 7729      00000000 
 7729      00000000 
 7729      00000000 
 7730              		.section	.bss.disp_handle,"aw",%nobits
 7731              		.align	2
 7732              		.set	.LANCHOR1,. + 0
 7735              	disp_handle:
 7736 0000 00000000 		.space	2072
 7736      00000000 
 7736      00000000 
 7736      00000000 
 7736      00000000 
 7737              		.section	.bss.enc,"aw",%nobits
 7738              		.align	2
 7739              		.set	.LANCHOR3,. + 0
 7742              	enc:
 7743 0000 00000000 		.space	92
 7743      00000000 
 7743      00000000 
 7743      00000000 
 7743      00000000 
 7744              		.section	.bss.hw,"aw",%nobits
 7745              		.align	2
 7746              		.set	.LANCHOR2,. + 0
 7749              	hw:
 7750 0000 00000000 		.space	116
 7750      00000000 
 7750      00000000 
 7750      00000000 
 7750      00000000 
 7751              		.section	.bss.menu,"aw",%nobits
 7752              		.align	2
 7753              		.set	.LANCHOR4,. + 0
 7756              	menu:
 7757 0000 00000000 		.space	56
 7757      00000000 
 7757      00000000 
 7757      00000000 
 7757      00000000 
 7758              		.section	.bss.pc,"aw",%nobits
 7759              		.align	2
 7760              		.set	.LANCHOR6,. + 0
 7763              	pc:
 7764 0000 00000000 		.space	528
 7764      00000000 
 7764      00000000 
 7764      00000000 
 7764      00000000 
 7765              		.section	.bss.synth,"aw",%nobits
 7766              		.align	2
 7769              	synth:
ARM GAS  C:\Users\skipi\AppData\Local\Temp\ccpgF6Mp.s 			page 218


 7770 0000 00000000 		.space	396584
 7770      00000000 
 7770      00000000 
 7770      00000000 
 7770      00000000 
 7771              		.section	.data.audio_controls,"aw"
 7772              		.align	2
 7773              		.set	.LANCHOR0,. + 0
 7776              	audio_controls:
 7777 0000 0000DC43 		.word	1138491392
 7778 0004 00       		.byte	0
 7779 0005 000000   		.space	3
 7780              		.text
 7781              	.Letext0:
 7782              		.file 22 "c:\\program files\\daisytoolchain\\arm-none-eabi\\include\\machine\\_default_types.h"
 7783              		.file 23 "c:\\program files\\daisytoolchain\\arm-none-eabi\\include\\sys\\_stdint.h"
 7784              		.file 24 "c:\\program files\\daisytoolchain\\arm-none-eabi\\include\\stdint.h"
 7785              		.file 25 "c:\\program files\\daisytoolchain\\lib\\gcc\\arm-none-eabi\\10.2.1\\include\\stddef.h"
 7786              		.file 26 "c:\\program files\\daisytoolchain\\arm-none-eabi\\include\\c++\\10.2.1\\bits\\std_abs.h"
 7787              		.file 27 "c:\\program files\\daisytoolchain\\arm-none-eabi\\include\\c++\\10.2.1\\cstdlib"
 7788              		.file 28 "c:\\program files\\daisytoolchain\\arm-none-eabi\\include\\c++\\10.2.1\\cstdint"
 7789              		.file 29 "c:\\program files\\daisytoolchain\\arm-none-eabi\\include\\c++\\10.2.1\\type_traits"
 7790              		.file 30 "c:\\program files\\daisytoolchain\\arm-none-eabi\\include\\c++\\10.2.1\\debug\\debug.h"
 7791              		.file 31 "c:\\program files\\daisytoolchain\\arm-none-eabi\\include\\c++\\10.2.1\\arm-none-eabi\\t
 7792              		.file 32 "c:\\program files\\daisytoolchain\\arm-none-eabi\\include\\c++\\10.2.1\\bits\\algorithmf
 7793              		.file 33 "c:\\program files\\daisytoolchain\\arm-none-eabi\\include\\c++\\10.2.1\\bits\\stl_pair.h
 7794              		.file 34 "c:\\program files\\daisytoolchain\\arm-none-eabi\\include\\c++\\10.2.1\\bits\\exception_
 7795              		.file 35 "c:\\program files\\daisytoolchain\\arm-none-eabi\\include\\c++\\10.2.1\\cstdarg"
 7796              		.file 36 "c:\\program files\\daisytoolchain\\arm-none-eabi\\include\\c++\\10.2.1\\cstdio"
 7797              		.file 37 "c:\\program files\\daisytoolchain\\arm-none-eabi\\include\\c++\\10.2.1\\cstring"
 7798              		.file 38 "c:\\program files\\daisytoolchain\\arm-none-eabi\\include\\c++\\10.2.1\\cstddef"
 7799              		.file 39 "c:\\program files\\daisytoolchain\\arm-none-eabi\\include\\c++\\10.2.1\\cwchar"
 7800              		.file 40 "c:\\program files\\daisytoolchain\\arm-none-eabi\\include\\c++\\10.2.1\\clocale"
 7801              		.file 41 "c:\\program files\\daisytoolchain\\arm-none-eabi\\include\\c++\\10.2.1\\bits\\basic_stri
 7802              		.file 42 "c:\\program files\\daisytoolchain\\arm-none-eabi\\include\\c++\\10.2.1\\bits\\stl_tempbu
 7803              		.file 43 "c:\\program files\\daisytoolchain\\arm-none-eabi\\include\\c++\\10.2.1\\bits\\predefined
 7804              		.file 44 "c:\\program files\\daisytoolchain\\arm-none-eabi\\include\\sys\\_types.h"
 7805              		.file 45 "c:\\program files\\daisytoolchain\\arm-none-eabi\\include\\sys\\reent.h"
 7806              		.file 46 "c:\\program files\\daisytoolchain\\arm-none-eabi\\include\\sys\\lock.h"
 7807              		.file 47 "c:\\program files\\daisytoolchain\\arm-none-eabi\\include\\math.h"
 7808              		.file 48 "c:\\program files\\daisytoolchain\\arm-none-eabi\\include\\stdlib.h"
 7809              		.file 49 "c:\\program files\\daisytoolchain\\arm-none-eabi\\include\\c++\\10.2.1\\math.h"
 7810              		.file 50 "c:\\program files\\daisytoolchain\\arm-none-eabi\\include\\c++\\10.2.1\\stdlib.h"
 7811              		.file 51 "../libs/PoliTeKDSP/libs/libDaisy/src/per/tim.h"
 7812              		.file 52 "../libs/PoliTeKDSP/libs/libDaisy/src/dev/mpr121.h"
 7813              		.file 53 "../libs/PoliTeKDSP/libs/libDaisy/src/dev/max11300.h"
 7814              		.file 54 "../libs/PoliTeKDSP/libs/libDaisy/src/dev/sr_595.h"
 7815              		.file 55 "../libs/PoliTeKDSP/libs/libDaisy/src/util/wav_format.h"
 7816              		.file 56 "../libs/PoliTeKDSP/libs/libDaisy/src/dev/sdram.h"
 7817              		.file 57 "c:\\program files\\daisytoolchain\\lib\\gcc\\arm-none-eabi\\10.2.1\\include\\stdarg.h"
 7818              		.file 58 "c:\\program files\\daisytoolchain\\arm-none-eabi\\include\\stdio.h"
 7819              		.file 59 "../libs/PoliTeKDSP/libs/libDaisy/src/util/oled_fonts.h"
 7820              		.file 60 "c:\\program files\\daisytoolchain\\arm-none-eabi\\include\\string.h"
 7821              		.file 61 "../libs/PoliTeKDSP/libs/libDaisy/Middlewares/Third_Party/FatFs/src/integer.h"
 7822              		.file 62 "../libs/PoliTeKDSP/libs/libDaisy/Middlewares/Third_Party/FatFs/src/ff.h"
 7823              		.file 63 "../libs/PoliTeKDSP/libs/DaisySP/Source/Control/adenv.h"
 7824              		.file 64 "../libs/PoliTeKDSP/libs/DaisySP/Source/Control/adsr.h"
ARM GAS  C:\Users\skipi\AppData\Local\Temp\ccpgF6Mp.s 			page 219


 7825              		.file 65 "../libs/PoliTeKDSP/libs/DaisySP/Source/Utility/dsp.h"
 7826              		.file 66 "../libs/PoliTeKDSP/libs/DaisySP/Source/Synthesis/oscillator.h"
 7827              		.file 67 "../libs/PoliTeKDSP/libs/DaisySP/Source/Filters/ladder.h"
 7828              		.file 68 "../libs/PoliTeKDSP/libs/DaisySP/DaisySP-LGPL/Source/Effects/reverbsc.h"
 7829              		.file 69 "c:\\program files\\daisytoolchain\\arm-none-eabi\\include\\wchar.h"
 7830              		.file 70 "c:\\program files\\daisytoolchain\\arm-none-eabi\\include\\locale.h"
 7831              		.file 71 "Display/displayHandler.h"
 7832              		.file 72 "PSP/../../libs/PoliTeKDSP/Utilities/DataFilter/IIR/iir.h"
 7833              		.file 73 "PSP/../../libs/PoliTeKDSP/Utilities/DataFilter/MF/MF.h"
 7834              		.file 74 "PSP/PlantConditioner.h"
 7835              		.file 75 "PSP/AudioEngine.h"
 7836              		.file 76 "<built-in>"
 7837              		.file 77 "c:\\program files\\daisytoolchain\\arm-none-eabi\\include\\c++\\10.2.1\\new"
ARM GAS  C:\Users\skipi\AppData\Local\Temp\ccpgF6Mp.s 			page 220


DEFINED SYMBOLS
                            *ABS*:00000000 main.cpp
C:\Users\skipi\AppData\Local\Temp\ccpgF6Mp.s:17     .text._ZN5daisy7EncoderD2Ev:00000000 $t
C:\Users\skipi\AppData\Local\Temp\ccpgF6Mp.s:26     .text._ZN5daisy7EncoderD2Ev:00000000 _ZN5daisy7EncoderD2Ev
C:\Users\skipi\AppData\Local\Temp\ccpgF6Mp.s:26     .text._ZN5daisy7EncoderD2Ev:00000000 _ZN5daisy7EncoderD1Ev
C:\Users\skipi\AppData\Local\Temp\ccpgF6Mp.s:49     .text._ZN5daisy9DaisySeedD2Ev:00000000 $t
C:\Users\skipi\AppData\Local\Temp\ccpgF6Mp.s:57     .text._ZN5daisy9DaisySeedD2Ev:00000000 _ZN5daisy9DaisySeedD2Ev
C:\Users\skipi\AppData\Local\Temp\ccpgF6Mp.s:57     .text._ZN5daisy9DaisySeedD2Ev:00000000 _ZN5daisy9DaisySeedD1Ev
C:\Users\skipi\AppData\Local\Temp\ccpgF6Mp.s:104    .text._ZN5daisy11OledDisplayINS_13SSD130xDriverILj128ELj64ENS_19SSD130xI2CTransportEEEED2Ev:00000000 $t
C:\Users\skipi\AppData\Local\Temp\ccpgF6Mp.s:112    .text._ZN5daisy11OledDisplayINS_13SSD130xDriverILj128ELj64ENS_19SSD130xI2CTransportEEEED2Ev:00000000 _ZN5daisy11OledDisplayINS_13SSD130xDriverILj128ELj64ENS_19SSD130xI2CTransportEEEED2Ev
C:\Users\skipi\AppData\Local\Temp\ccpgF6Mp.s:112    .text._ZN5daisy11OledDisplayINS_13SSD130xDriverILj128ELj64ENS_19SSD130xI2CTransportEEEED2Ev:00000000 _ZN5daisy11OledDisplayINS_13SSD130xDriverILj128ELj64ENS_19SSD130xI2CTransportEEEED1Ev
C:\Users\skipi\AppData\Local\Temp\ccpgF6Mp.s:139    .text._ZNK5daisy11OledDisplayINS_13SSD130xDriverILj128ELj64ENS_19SSD130xI2CTransportEEEE6HeightEv:00000000 $t
C:\Users\skipi\AppData\Local\Temp\ccpgF6Mp.s:147    .text._ZNK5daisy11OledDisplayINS_13SSD130xDriverILj128ELj64ENS_19SSD130xI2CTransportEEEE6HeightEv:00000000 _ZNK5daisy11OledDisplayINS_13SSD130xDriverILj128ELj64ENS_19SSD130xI2CTransportEEEE6HeightEv
C:\Users\skipi\AppData\Local\Temp\ccpgF6Mp.s:164    .text._ZNK5daisy11OledDisplayINS_13SSD130xDriverILj128ELj64ENS_19SSD130xI2CTransportEEEE5WidthEv:00000000 $t
C:\Users\skipi\AppData\Local\Temp\ccpgF6Mp.s:172    .text._ZNK5daisy11OledDisplayINS_13SSD130xDriverILj128ELj64ENS_19SSD130xI2CTransportEEEE5WidthEv:00000000 _ZNK5daisy11OledDisplayINS_13SSD130xDriverILj128ELj64ENS_19SSD130xI2CTransportEEEE5WidthEv
C:\Users\skipi\AppData\Local\Temp\ccpgF6Mp.s:189    .text._ZN5daisy11OledDisplayINS_13SSD130xDriverILj128ELj64ENS_19SSD130xI2CTransportEEEE4FillEb:00000000 $t
C:\Users\skipi\AppData\Local\Temp\ccpgF6Mp.s:197    .text._ZN5daisy11OledDisplayINS_13SSD130xDriverILj128ELj64ENS_19SSD130xI2CTransportEEEE4FillEb:00000000 _ZN5daisy11OledDisplayINS_13SSD130xDriverILj128ELj64ENS_19SSD130xI2CTransportEEEE4FillEb
C:\Users\skipi\AppData\Local\Temp\ccpgF6Mp.s:229    .text._ZN5daisy11OledDisplayINS_13SSD130xDriverILj128ELj64ENS_19SSD130xI2CTransportEEEE14UpdateFinishedEv:00000000 $t
C:\Users\skipi\AppData\Local\Temp\ccpgF6Mp.s:237    .text._ZN5daisy11OledDisplayINS_13SSD130xDriverILj128ELj64ENS_19SSD130xI2CTransportEEEE14UpdateFinishedEv:00000000 _ZN5daisy11OledDisplayINS_13SSD130xDriverILj128ELj64ENS_19SSD130xI2CTransportEEEE14UpdateFinishedEv
C:\Users\skipi\AppData\Local\Temp\ccpgF6Mp.s:254    .text._Z13AudioCallbackPKPKfPPfj:00000000 $t
C:\Users\skipi\AppData\Local\Temp\ccpgF6Mp.s:262    .text._Z13AudioCallbackPKPKfPPfj:00000000 _Z13AudioCallbackPKPKfPPfj
C:\Users\skipi\AppData\Local\Temp\ccpgF6Mp.s:357    .text._Z13AudioCallbackPKPKfPPfj:0000004c $d
C:\Users\skipi\AppData\Local\Temp\ccpgF6Mp.s:7769   .bss.synth:00000000 synth
C:\Users\skipi\AppData\Local\Temp\ccpgF6Mp.s:364    .text._ZN5daisy11OledDisplayINS_13SSD130xDriverILj128ELj64ENS_19SSD130xI2CTransportEEEED0Ev:00000000 $t
C:\Users\skipi\AppData\Local\Temp\ccpgF6Mp.s:372    .text._ZN5daisy11OledDisplayINS_13SSD130xDriverILj128ELj64ENS_19SSD130xI2CTransportEEEED0Ev:00000000 _ZN5daisy11OledDisplayINS_13SSD130xDriverILj128ELj64ENS_19SSD130xI2CTransportEEEED0Ev
C:\Users\skipi\AppData\Local\Temp\ccpgF6Mp.s:412    .text._ZN5daisy11OledDisplayINS_13SSD130xDriverILj128ELj64ENS_19SSD130xI2CTransportEEEE6UpdateEv:00000000 $t
C:\Users\skipi\AppData\Local\Temp\ccpgF6Mp.s:420    .text._ZN5daisy11OledDisplayINS_13SSD130xDriverILj128ELj64ENS_19SSD130xI2CTransportEEEE6UpdateEv:00000000 _ZN5daisy11OledDisplayINS_13SSD130xDriverILj128ELj64ENS_19SSD130xI2CTransportEEEE6UpdateEv
C:\Users\skipi\AppData\Local\Temp\ccpgF6Mp.s:603    .text._ZN5daisy25OneBitGraphicsDisplayImplINS_11OledDisplayINS_13SSD130xDriverILj128ELj64ENS_19SSD130xI2CTransportEEEEEE11WriteStringEPKc7FontDefb:00000000 $t
C:\Users\skipi\AppData\Local\Temp\ccpgF6Mp.s:611    .text._ZN5daisy25OneBitGraphicsDisplayImplINS_11OledDisplayINS_13SSD130xDriverILj128ELj64ENS_19SSD130xI2CTransportEEEEEE11WriteStringEPKc7FontDefb:00000000 _ZN5daisy25OneBitGraphicsDisplayImplINS_11OledDisplayINS_13SSD130xDriverILj128ELj64ENS_19SSD130xI2CTransportEEEEEE11WriteStringEPKc7FontDefb
C:\Users\skipi\AppData\Local\Temp\ccpgF6Mp.s:1068   .text._ZN5daisy25OneBitGraphicsDisplayImplINS_11OledDisplayINS_13SSD130xDriverILj128ELj64ENS_19SSD130xI2CTransportEEEEEE11WriteStringEPKc7FontDefb:000001b8 $d
C:\Users\skipi\AppData\Local\Temp\ccpgF6Mp.s:1078   .text._ZN5daisy25OneBitGraphicsDisplayImplINS_11OledDisplayINS_13SSD130xDriverILj128ELj64ENS_19SSD130xI2CTransportEEEEEE9WriteCharEc7FontDefb:00000000 $t
C:\Users\skipi\AppData\Local\Temp\ccpgF6Mp.s:1086   .text._ZN5daisy25OneBitGraphicsDisplayImplINS_11OledDisplayINS_13SSD130xDriverILj128ELj64ENS_19SSD130xI2CTransportEEEEEE9WriteCharEc7FontDefb:00000000 _ZN5daisy25OneBitGraphicsDisplayImplINS_11OledDisplayINS_13SSD130xDriverILj128ELj64ENS_19SSD130xI2CTransportEEEEEE9WriteCharEc7FontDefb
C:\Users\skipi\AppData\Local\Temp\ccpgF6Mp.s:1512   .text._ZN5daisy25OneBitGraphicsDisplayImplINS_11OledDisplayINS_13SSD130xDriverILj128ELj64ENS_19SSD130xI2CTransportEEEEEE9WriteCharEc7FontDefb:00000198 $d
C:\Users\skipi\AppData\Local\Temp\ccpgF6Mp.s:1520   .text._ZN5daisy25OneBitGraphicsDisplayImplINS_11OledDisplayINS_13SSD130xDriverILj128ELj64ENS_19SSD130xI2CTransportEEEEEE18WriteStringAlignedEPKcRK7FontDefNS_9RectangleENS_9AlignmentEb:00000000 $t
C:\Users\skipi\AppData\Local\Temp\ccpgF6Mp.s:1528   .text._ZN5daisy25OneBitGraphicsDisplayImplINS_11OledDisplayINS_13SSD130xDriverILj128ELj64ENS_19SSD130xI2CTransportEEEEEE18WriteStringAlignedEPKcRK7FontDefNS_9RectangleENS_9AlignmentEb:00000000 _ZN5daisy25OneBitGraphicsDisplayImplINS_11OledDisplayINS_13SSD130xDriverILj128ELj64ENS_19SSD130xI2CTransportEEEEEE18WriteStringAlignedEPKcRK7FontDefNS_9RectangleENS_9AlignmentEb
C:\Users\skipi\AppData\Local\Temp\ccpgF6Mp.s:1667   .text._ZN5daisy25OneBitGraphicsDisplayImplINS_11OledDisplayINS_13SSD130xDriverILj128ELj64ENS_19SSD130xI2CTransportEEEEEE18WriteStringAlignedEPKcRK7FontDefNS_9RectangleENS_9AlignmentEb:00000046 $d
C:\Users\skipi\AppData\Local\Temp\ccpgF6Mp.s:1676   .text._ZN5daisy25OneBitGraphicsDisplayImplINS_11OledDisplayINS_13SSD130xDriverILj128ELj64ENS_19SSD130xI2CTransportEEEEEE18WriteStringAlignedEPKcRK7FontDefNS_9RectangleENS_9AlignmentEb:00000058 $t
C:\Users\skipi\AppData\Local\Temp\ccpgF6Mp.s:2884   .text._ZN5daisy25OneBitGraphicsDisplayImplINS_11OledDisplayINS_13SSD130xDriverILj128ELj64ENS_19SSD130xI2CTransportEEEEEE18WriteStringAlignedEPKcRK7FontDefNS_9RectangleENS_9AlignmentEb:00000320 $d
C:\Users\skipi\AppData\Local\Temp\ccpgF6Mp.s:2893   .text._ZN5daisy25OneBitGraphicsDisplayImplINS_11OledDisplayINS_13SSD130xDriverILj128ELj64ENS_19SSD130xI2CTransportEEEEEE18WriteStringAlignedEPKcRK7FontDefNS_9RectangleENS_9AlignmentEb:00000328 $t
C:\Users\skipi\AppData\Local\Temp\ccpgF6Mp.s:3204   .text._ZN5daisy25OneBitGraphicsDisplayImplINS_11OledDisplayINS_13SSD130xDriverILj128ELj64ENS_19SSD130xI2CTransportEEEEEE18WriteStringAlignedEPKcRK7FontDefNS_9RectangleENS_9AlignmentEb:000003e8 $d
C:\Users\skipi\AppData\Local\Temp\ccpgF6Mp.s:3212   .text._ZN5daisy11OledDisplayINS_13SSD130xDriverILj128ELj64ENS_19SSD130xI2CTransportEEEE9DrawPixelEjjb:00000000 $t
C:\Users\skipi\AppData\Local\Temp\ccpgF6Mp.s:3220   .text._ZN5daisy11OledDisplayINS_13SSD130xDriverILj128ELj64ENS_19SSD130xI2CTransportEEEE9DrawPixelEjjb:00000000 _ZN5daisy11OledDisplayINS_13SSD130xDriverILj128ELj64ENS_19SSD130xI2CTransportEEEE9DrawPixelEjjb
C:\Users\skipi\AppData\Local\Temp\ccpgF6Mp.s:3297   .text._ZN5daisy25OneBitGraphicsDisplayImplINS_11OledDisplayINS_13SSD130xDriverILj128ELj64ENS_19SSD130xI2CTransportEEEEEE8DrawLineEjjjjb:00000000 $t
C:\Users\skipi\AppData\Local\Temp\ccpgF6Mp.s:3305   .text._ZN5daisy25OneBitGraphicsDisplayImplINS_11OledDisplayINS_13SSD130xDriverILj128ELj64ENS_19SSD130xI2CTransportEEEEEE8DrawLineEjjjjb:00000000 _ZN5daisy25OneBitGraphicsDisplayImplINS_11OledDisplayINS_13SSD130xDriverILj128ELj64ENS_19SSD130xI2CTransportEEEEEE8DrawLineEjjjjb
C:\Users\skipi\AppData\Local\Temp\ccpgF6Mp.s:3590   .text._ZN5daisy25OneBitGraphicsDisplayImplINS_11OledDisplayINS_13SSD130xDriverILj128ELj64ENS_19SSD130xI2CTransportEEEEEE7DrawArcEjjjiib:00000000 $t
C:\Users\skipi\AppData\Local\Temp\ccpgF6Mp.s:3598   .text._ZN5daisy25OneBitGraphicsDisplayImplINS_11OledDisplayINS_13SSD130xDriverILj128ELj64ENS_19SSD130xI2CTransportEEEEEE7DrawArcEjjjiib:00000000 _ZN5daisy25OneBitGraphicsDisplayImplINS_11OledDisplayINS_13SSD130xDriverILj128ELj64ENS_19SSD130xI2CTransportEEEEEE7DrawArcEjjjiib
C:\Users\skipi\AppData\Local\Temp\ccpgF6Mp.s:4283   .text._ZN5daisy25OneBitGraphicsDisplayImplINS_11OledDisplayINS_13SSD130xDriverILj128ELj64ENS_19SSD130xI2CTransportEEEEEE7DrawArcEjjjiib:00000368 $d
C:\Users\skipi\AppData\Local\Temp\ccpgF6Mp.s:4297   .text._ZN5daisy25OneBitGraphicsDisplayImplINS_11OledDisplayINS_13SSD130xDriverILj128ELj64ENS_19SSD130xI2CTransportEEEEEE7DrawArcEjjjiib:00000378 $t
C:\Users\skipi\AppData\Local\Temp\ccpgF6Mp.s:4523   .text._ZN5daisy25OneBitGraphicsDisplayImplINS_11OledDisplayINS_13SSD130xDriverILj128ELj64ENS_19SSD130xI2CTransportEEEEEE8DrawRectEjjjjbb:00000000 $t
C:\Users\skipi\AppData\Local\Temp\ccpgF6Mp.s:4531   .text._ZN5daisy25OneBitGraphicsDisplayImplINS_11OledDisplayINS_13SSD130xDriverILj128ELj64ENS_19SSD130xI2CTransportEEEEEE8DrawRectEjjjjbb:00000000 _ZN5daisy25OneBitGraphicsDisplayImplINS_11OledDisplayINS_13SSD130xDriverILj128ELj64ENS_19SSD130xI2CTransportEEEEEE8DrawRectEjjjjbb
C:\Users\skipi\AppData\Local\Temp\ccpgF6Mp.s:5641   .text._ZN5daisy13SSD130xDriverILj128ELj64ENS_19SSD130xI2CTransportEE4InitENS2_6ConfigE:00000000 $t
C:\Users\skipi\AppData\Local\Temp\ccpgF6Mp.s:5649   .text._ZN5daisy13SSD130xDriverILj128ELj64ENS_19SSD130xI2CTransportEE4InitENS2_6ConfigE:00000000 _ZN5daisy13SSD130xDriverILj128ELj64ENS_19SSD130xI2CTransportEE4InitENS2_6ConfigE
C:\Users\skipi\AppData\Local\Temp\ccpgF6Mp.s:6302   .rodata.main.str1.4:00000000 $d
C:\Users\skipi\AppData\Local\Temp\ccpgF6Mp.s:6321   .text.startup.main:00000000 $t
C:\Users\skipi\AppData\Local\Temp\ccpgF6Mp.s:6329   .text.startup.main:00000000 main
C:\Users\skipi\AppData\Local\Temp\ccpgF6Mp.s:6789   .text.startup.main:00000172 $d
C:\Users\skipi\AppData\Local\Temp\ccpgF6Mp.s:7062   .text.startup.main:00000270 $d
ARM GAS  C:\Users\skipi\AppData\Local\Temp\ccpgF6Mp.s 			page 221


C:\Users\skipi\AppData\Local\Temp\ccpgF6Mp.s:7088   .text.startup._GLOBAL__sub_I_hw:00000000 $t
C:\Users\skipi\AppData\Local\Temp\ccpgF6Mp.s:7095   .text.startup._GLOBAL__sub_I_hw:00000000 _GLOBAL__sub_I_hw
C:\Users\skipi\AppData\Local\Temp\ccpgF6Mp.s:7672   .text.startup._GLOBAL__sub_I_hw:000000a4 $d
C:\Users\skipi\AppData\Local\Temp\ccpgF6Mp.s:7698   .rodata._ZTVN5daisy11OledDisplayINS_13SSD130xDriverILj128ELj64ENS_19SSD130xI2CTransportEEEEE:00000000 _ZTVN5daisy11OledDisplayINS_13SSD130xDriverILj128ELj64ENS_19SSD130xI2CTransportEEEEE
C:\Users\skipi\AppData\Local\Temp\ccpgF6Mp.s:7691   .init_array:00000000 $d
C:\Users\skipi\AppData\Local\Temp\ccpgF6Mp.s:7695   .rodata._ZTVN5daisy11OledDisplayINS_13SSD130xDriverILj128ELj64ENS_19SSD130xI2CTransportEEEEE:00000000 $d
C:\Users\skipi\AppData\Local\Temp\ccpgF6Mp.s:7776   .data.audio_controls:00000000 audio_controls
C:\Users\skipi\AppData\Local\Temp\ccpgF6Mp.s:7763   .bss.pc:00000000 pc
C:\Users\skipi\AppData\Local\Temp\ccpgF6Mp.s:7735   .bss.disp_handle:00000000 disp_handle
C:\Users\skipi\AppData\Local\Temp\ccpgF6Mp.s:7728   .bss.disp:00000000 disp
C:\Users\skipi\AppData\Local\Temp\ccpgF6Mp.s:7756   .bss.menu:00000000 menu
C:\Users\skipi\AppData\Local\Temp\ccpgF6Mp.s:7742   .bss.enc:00000000 enc
C:\Users\skipi\AppData\Local\Temp\ccpgF6Mp.s:7749   .bss.hw:00000000 hw
C:\Users\skipi\AppData\Local\Temp\ccpgF6Mp.s:7724   .bss.disp:00000000 $d
C:\Users\skipi\AppData\Local\Temp\ccpgF6Mp.s:7731   .bss.disp_handle:00000000 $d
C:\Users\skipi\AppData\Local\Temp\ccpgF6Mp.s:7738   .bss.enc:00000000 $d
C:\Users\skipi\AppData\Local\Temp\ccpgF6Mp.s:7745   .bss.hw:00000000 $d
C:\Users\skipi\AppData\Local\Temp\ccpgF6Mp.s:7752   .bss.menu:00000000 $d
C:\Users\skipi\AppData\Local\Temp\ccpgF6Mp.s:7759   .bss.pc:00000000 $d
C:\Users\skipi\AppData\Local\Temp\ccpgF6Mp.s:7766   .bss.synth:00000000 $d
C:\Users\skipi\AppData\Local\Temp\ccpgF6Mp.s:7772   .data.audio_controls:00000000 $d
C:\Users\skipi\AppData\Local\Temp\ccpgF6Mp.s:6798   .text.startup.main:0000017b $d
C:\Users\skipi\AppData\Local\Temp\ccpgF6Mp.s:6798   .text.startup.main:0000017c $t
                           .group:00000000 _ZN5daisy7EncoderD5Ev
                           .group:00000000 _ZN5daisy9DaisySeedD5Ev
                           .group:00000000 _ZN5daisy11OledDisplayINS_13SSD130xDriverILj128ELj64ENS_19SSD130xI2CTransportEEEED5Ev

UNDEFINED SYMBOLS
memset
_ZN11AudioEngine6UpdateE14ControlsStruct
_ZN11AudioEngine7ProcessEv
_ZN14DisplayHandler15pushAudioSampleEf
_ZdlPvj
_ZN5daisy9I2CHandle16TransmitBlockingEtPhtm
cosf
sinf
_ZN5daisy9I2CHandle4InitERKNS0_6ConfigE
_ZN5daisy9DaisySeed4InitEb
_ZN5daisy9DaisySeed6GetPinEh
_ZN5daisy7Encoder4InitENS_3PinES1_S1_f
_ZN11MenuManager4InitEv
_ZN14DisplayHandler8SetStateE12DisplayState
_ZN16PlantConditioner4InitEN3IIR10FilterTypeEPN5daisy9DaisySeedE
_ZN5daisy9DaisySeed15AudioSampleRateEv
_ZN11AudioEngine4InitEf
_ZN11AudioEngine9SetPresetE11SynthPreset
_ZN5daisy9DaisySeed10StartAudioEPFvPKPKfPPfjE
_ZN5daisy6System6GetNowEv
_ZN16PlantConditioner8setDeltaEf
_ZN16PlantConditioner8setCurveEf
_ZN16PlantConditioner9setOctaveEh
_ZN16PlantConditioner8setScaleENS_5NotesENS_9ScaleTypeE
_ZN16PlantConditioner7ProcessEv
_ZN14DisplayHandler6UpdateEv
_ZN5daisy7Encoder8DebounceEv
_ZN14DisplayHandler16DrawIntParameterEPKci
_ZN14DisplayHandler18DrawFloatParameterEPKcf
ARM GAS  C:\Users\skipi\AppData\Local\Temp\ccpgF6Mp.s 			page 222


_ZN14DisplayHandler13DrawScalesHubEi
_ZN14DisplayHandler18DrawCalibrationHubEi
_ZN14DisplayHandler12DrawMainMenuEi
_ZN11MenuManager15StateTransitionEbib
__aeabi_atexit
_ZN14DisplayHandlerC1EPN5daisy11OledDisplayINS0_13SSD130xDriverILj128ELj64ENS0_19SSD130xI2CTransportEEEEEb
_ZN16PlantConditionerC1Ev
_ZN11AudioEngineC1Ev
__dso_handle
_ZN16PlantConditionerD1Ev
_ZN11AudioEngineD1Ev
