ARM GAS  C:\Users\skipi\AppData\Local\Temp\cc9eAo3V.s 			page 1


   1              		.cpu cortex-m7
   2              		.eabi_attribute 28, 1
   3              		.eabi_attribute 20, 1
   4              		.eabi_attribute 21, 1
   5              		.eabi_attribute 23, 3
   6              		.eabi_attribute 24, 1
   7              		.eabi_attribute 25, 1
   8              		.eabi_attribute 26, 1
   9              		.eabi_attribute 30, 2
  10              		.eabi_attribute 34, 1
  11              		.eabi_attribute 18, 4
  12              		.file	"main.cpp"
  13              		.text
  14              	.Ltext0:
  15              		.cfi_sections	.debug_frame
  16              		.section	.text._ZN5daisy11TimerHandleD2Ev,"axG",%progbits,_ZN5daisy11TimerHandleD5Ev,comdat
  17              		.align	1
  18              		.p2align 2,,3
  19              		.weak	_ZN5daisy11TimerHandleD2Ev
  20              		.arch armv7e-m
  21              		.syntax unified
  22              		.thumb
  23              		.thumb_func
  24              		.fpu fpv5-d16
  26              	_ZN5daisy11TimerHandleD2Ev:
  27              	.LVL0:
  28              	.LFB591:
  29              		.file 1 "../libs/PoliTeKDSP/libs/libDaisy/src/per/tim.h"
   1:../libs/PoliTeKDSP/libs/libDaisy/src/per/tim.h **** #pragma once
   2:../libs/PoliTeKDSP/libs/libDaisy/src/per/tim.h **** #ifndef DSY_TIM_H
   3:../libs/PoliTeKDSP/libs/libDaisy/src/per/tim.h **** #define DSY_TIM_H
   4:../libs/PoliTeKDSP/libs/libDaisy/src/per/tim.h **** 
   5:../libs/PoliTeKDSP/libs/libDaisy/src/per/tim.h **** #include <cstdint>
   6:../libs/PoliTeKDSP/libs/libDaisy/src/per/tim.h **** #include "stm32h7xx_hal.h"
   7:../libs/PoliTeKDSP/libs/libDaisy/src/per/tim.h **** 
   8:../libs/PoliTeKDSP/libs/libDaisy/src/per/tim.h **** namespace daisy
   9:../libs/PoliTeKDSP/libs/libDaisy/src/per/tim.h **** {
  10:../libs/PoliTeKDSP/libs/libDaisy/src/per/tim.h **** /** @brief Hardare timer peripheral support.
  11:../libs/PoliTeKDSP/libs/libDaisy/src/per/tim.h ****  ** 
  12:../libs/PoliTeKDSP/libs/libDaisy/src/per/tim.h ****  ** Supports general-function TIM peripherals:
  13:../libs/PoliTeKDSP/libs/libDaisy/src/per/tim.h ****  ** - TIM2, TIM3, TIM4, TIM5
  14:../libs/PoliTeKDSP/libs/libDaisy/src/per/tim.h ****  **
  15:../libs/PoliTeKDSP/libs/libDaisy/src/per/tim.h ****  ** DaisySeed, and many internal peripherals utilize TIM2 for timing/delay purposes.
  16:../libs/PoliTeKDSP/libs/libDaisy/src/per/tim.h ****  ** It is configured to be at the maximum frequency: typically 200MHz or 240MHz (boost) 
  17:../libs/PoliTeKDSP/libs/libDaisy/src/per/tim.h ****  ** for measuring/delaying for very short periods. 
  18:../libs/PoliTeKDSP/libs/libDaisy/src/per/tim.h ****  **
  19:../libs/PoliTeKDSP/libs/libDaisy/src/per/tim.h ****  ** The GetUs/GetMs functions are available for convenience (and backwards compatibility),
  20:../libs/PoliTeKDSP/libs/libDaisy/src/per/tim.h ****  ** but to avoid wrapping errors on math when doing time-delta calculations, using ticks is 
  21:../libs/PoliTeKDSP/libs/libDaisy/src/per/tim.h ****  ** recommended. The data can be converted to the final time-base after getting the difference in t
  22:../libs/PoliTeKDSP/libs/libDaisy/src/per/tim.h ****  ** (Using GetFreq() can be used for these time-base calculations).
  23:../libs/PoliTeKDSP/libs/libDaisy/src/per/tim.h ****  **
  24:../libs/PoliTeKDSP/libs/libDaisy/src/per/tim.h ****  ** User callbacks can be set, and changed at any point during operation. However,
  25:../libs/PoliTeKDSP/libs/libDaisy/src/per/tim.h ****  ** the Config::enable_irq must be set to true when initializing for the interrupts
  26:../libs/PoliTeKDSP/libs/libDaisy/src/per/tim.h ****  ** to turn on and function.
  27:../libs/PoliTeKDSP/libs/libDaisy/src/per/tim.h ****  **
  28:../libs/PoliTeKDSP/libs/libDaisy/src/per/tim.h ****  ** @todo Fix issues with realtime getters, and wrapping of the timer(s).
  29:../libs/PoliTeKDSP/libs/libDaisy/src/per/tim.h ****  **     - This very noticeable with default settings for the 16-bit counters.
ARM GAS  C:\Users\skipi\AppData\Local\Temp\cc9eAo3V.s 			page 2


  30:../libs/PoliTeKDSP/libs/libDaisy/src/per/tim.h ****  ** @todo Other General purpose timers
  31:../libs/PoliTeKDSP/libs/libDaisy/src/per/tim.h ****  ** @todo Non-internal clock sources
  32:../libs/PoliTeKDSP/libs/libDaisy/src/per/tim.h ****  ** @todo Use of the four-tim channels per tim
  33:../libs/PoliTeKDSP/libs/libDaisy/src/per/tim.h ****  **     - PWM, etc.
  34:../libs/PoliTeKDSP/libs/libDaisy/src/per/tim.h ****  **     - InputCapture/OutputCompare, etc.
  35:../libs/PoliTeKDSP/libs/libDaisy/src/per/tim.h ****  ** @todo HRTIM
  36:../libs/PoliTeKDSP/libs/libDaisy/src/per/tim.h ****  ** @todo Advanced timers (TIM1/TIM8)
  37:../libs/PoliTeKDSP/libs/libDaisy/src/per/tim.h ****  ** */
  38:../libs/PoliTeKDSP/libs/libDaisy/src/per/tim.h **** class TimerHandle
  39:../libs/PoliTeKDSP/libs/libDaisy/src/per/tim.h **** {
  40:../libs/PoliTeKDSP/libs/libDaisy/src/per/tim.h ****   public:
  41:../libs/PoliTeKDSP/libs/libDaisy/src/per/tim.h ****     /** @brief Configuration struct for the Peripheral
  42:../libs/PoliTeKDSP/libs/libDaisy/src/per/tim.h ****      *  @note These settings are used during initialization
  43:../libs/PoliTeKDSP/libs/libDaisy/src/per/tim.h ****      *   and changing them afterwards may not have the desired effect.
  44:../libs/PoliTeKDSP/libs/libDaisy/src/per/tim.h ****      */
  45:../libs/PoliTeKDSP/libs/libDaisy/src/per/tim.h ****     struct Config
  46:../libs/PoliTeKDSP/libs/libDaisy/src/per/tim.h ****     {
  47:../libs/PoliTeKDSP/libs/libDaisy/src/per/tim.h ****         /** @brief Hardware Timer to configure, and use. */
  48:../libs/PoliTeKDSP/libs/libDaisy/src/per/tim.h ****         enum class Peripheral
  49:../libs/PoliTeKDSP/libs/libDaisy/src/per/tim.h ****         {
  50:../libs/PoliTeKDSP/libs/libDaisy/src/per/tim.h ****             TIM_2 = 0, /**< 32-bit counter */
  51:../libs/PoliTeKDSP/libs/libDaisy/src/per/tim.h ****             TIM_3,     /**< 16-bit counter */
  52:../libs/PoliTeKDSP/libs/libDaisy/src/per/tim.h ****             TIM_4,     /**< 16-bit counter */
  53:../libs/PoliTeKDSP/libs/libDaisy/src/per/tim.h ****             TIM_5,     /**< 32-bit counter*/
  54:../libs/PoliTeKDSP/libs/libDaisy/src/per/tim.h ****         };
  55:../libs/PoliTeKDSP/libs/libDaisy/src/per/tim.h **** 
  56:../libs/PoliTeKDSP/libs/libDaisy/src/per/tim.h ****         /** @brief Direction of the auto-reload counter. 
  57:../libs/PoliTeKDSP/libs/libDaisy/src/per/tim.h ****          ** @todo Add support for the various  
  58:../libs/PoliTeKDSP/libs/libDaisy/src/per/tim.h ****          ** versions of Up/Down counters.
  59:../libs/PoliTeKDSP/libs/libDaisy/src/per/tim.h ****          ** */
  60:../libs/PoliTeKDSP/libs/libDaisy/src/per/tim.h ****         enum class CounterDir
  61:../libs/PoliTeKDSP/libs/libDaisy/src/per/tim.h ****         {
  62:../libs/PoliTeKDSP/libs/libDaisy/src/per/tim.h ****             UP = 0,
  63:../libs/PoliTeKDSP/libs/libDaisy/src/per/tim.h ****             DOWN,
  64:../libs/PoliTeKDSP/libs/libDaisy/src/per/tim.h ****         };
  65:../libs/PoliTeKDSP/libs/libDaisy/src/per/tim.h **** 
  66:../libs/PoliTeKDSP/libs/libDaisy/src/per/tim.h ****         Peripheral periph; /**< Hardware Peripheral */
  67:../libs/PoliTeKDSP/libs/libDaisy/src/per/tim.h ****         CounterDir dir;    /**< Counter direction */
  68:../libs/PoliTeKDSP/libs/libDaisy/src/per/tim.h **** 
  69:../libs/PoliTeKDSP/libs/libDaisy/src/per/tim.h ****         /** @brief period in ticks at TIM frequency that counter will reset based on dir
  70:../libs/PoliTeKDSP/libs/libDaisy/src/per/tim.h ****          *  @note TIM3 and TIM4 are both 16-bit timers. So the period maximum is 0xffff.
  71:../libs/PoliTeKDSP/libs/libDaisy/src/per/tim.h ****         */
  72:../libs/PoliTeKDSP/libs/libDaisy/src/per/tim.h ****         uint32_t period;
  73:../libs/PoliTeKDSP/libs/libDaisy/src/per/tim.h ****         bool     enable_irq; /**< Enable interrupt for user based callback */
  74:../libs/PoliTeKDSP/libs/libDaisy/src/per/tim.h **** 
  75:../libs/PoliTeKDSP/libs/libDaisy/src/per/tim.h ****         /* @brief Constructor for default states */
  76:../libs/PoliTeKDSP/libs/libDaisy/src/per/tim.h ****         Config()
  77:../libs/PoliTeKDSP/libs/libDaisy/src/per/tim.h ****         : periph(Peripheral::TIM_2),
  78:../libs/PoliTeKDSP/libs/libDaisy/src/per/tim.h ****           dir(CounterDir::UP),
  79:../libs/PoliTeKDSP/libs/libDaisy/src/per/tim.h ****           period(0xffffffff),
  80:../libs/PoliTeKDSP/libs/libDaisy/src/per/tim.h ****           enable_irq(false)
  81:../libs/PoliTeKDSP/libs/libDaisy/src/per/tim.h ****         {
  82:../libs/PoliTeKDSP/libs/libDaisy/src/per/tim.h ****         }
  83:../libs/PoliTeKDSP/libs/libDaisy/src/per/tim.h ****     };
  84:../libs/PoliTeKDSP/libs/libDaisy/src/per/tim.h **** 
  85:../libs/PoliTeKDSP/libs/libDaisy/src/per/tim.h ****     /** @brief Return values for TIM funcitons. */
  86:../libs/PoliTeKDSP/libs/libDaisy/src/per/tim.h ****     enum class Result
ARM GAS  C:\Users\skipi\AppData\Local\Temp\cc9eAo3V.s 			page 3


  87:../libs/PoliTeKDSP/libs/libDaisy/src/per/tim.h ****     {
  88:../libs/PoliTeKDSP/libs/libDaisy/src/per/tim.h ****         OK,
  89:../libs/PoliTeKDSP/libs/libDaisy/src/per/tim.h ****         ERR,
  90:../libs/PoliTeKDSP/libs/libDaisy/src/per/tim.h ****     };
  91:../libs/PoliTeKDSP/libs/libDaisy/src/per/tim.h **** 
  92:../libs/PoliTeKDSP/libs/libDaisy/src/per/tim.h ****     /** @brief User Callback type that will fire at the end of each timer 
  93:../libs/PoliTeKDSP/libs/libDaisy/src/per/tim.h ****      *   period. This requires that Config::enable_irq is true before Init
  94:../libs/PoliTeKDSP/libs/libDaisy/src/per/tim.h ****      *  @param data pointer to arbitrary user-provided data
  95:../libs/PoliTeKDSP/libs/libDaisy/src/per/tim.h ****     */
  96:../libs/PoliTeKDSP/libs/libDaisy/src/per/tim.h ****     typedef void (*PeriodElapsedCallback)(void* data);
  97:../libs/PoliTeKDSP/libs/libDaisy/src/per/tim.h **** 
  98:../libs/PoliTeKDSP/libs/libDaisy/src/per/tim.h ****     TimerHandle() : pimpl_(nullptr) {}
  99:../libs/PoliTeKDSP/libs/libDaisy/src/per/tim.h ****     TimerHandle(const TimerHandle& other) = default;
 100:../libs/PoliTeKDSP/libs/libDaisy/src/per/tim.h ****     TimerHandle& operator=(const TimerHandle& other) = default;
 101:../libs/PoliTeKDSP/libs/libDaisy/src/per/tim.h ****     ~TimerHandle() {}
  30              		.loc 1 101 5 view -0
  31              		.cfi_startproc
  32              		@ args = 0, pretend = 0, frame = 0
  33              		@ frame_needed = 0, uses_anonymous_args = 0
  34              		@ link register save eliminated.
  35              		.loc 1 101 21 is_stmt 0 view .LVU1
  36 0000 7047     		bx	lr
  37              		.cfi_endproc
  38              	.LFE591:
  40              		.weak	_ZN5daisy11TimerHandleD1Ev
  41              		.thumb_set _ZN5daisy11TimerHandleD1Ev,_ZN5daisy11TimerHandleD2Ev
  42 0002 00BF     		.section	.text._ZN5daisy9DaisySeedD2Ev,"axG",%progbits,_ZN5daisy9DaisySeedD5Ev,comdat
  43              		.align	1
  44              		.p2align 2,,3
  45              		.weak	_ZN5daisy9DaisySeedD2Ev
  46              		.syntax unified
  47              		.thumb
  48              		.thumb_func
  49              		.fpu fpv5-d16
  51              	_ZN5daisy9DaisySeedD2Ev:
  52              	.LVL1:
  53              	.LFB2729:
  54              		.file 2 "../libs/PoliTeKDSP/libs/libDaisy/src/daisy_seed.h"
   1:../libs/PoliTeKDSP/libs/libDaisy/src/daisy_seed.h **** #pragma once
   2:../libs/PoliTeKDSP/libs/libDaisy/src/daisy_seed.h **** #ifndef DSY_SEED_H
   3:../libs/PoliTeKDSP/libs/libDaisy/src/daisy_seed.h **** #define DSY_SEED_H
   4:../libs/PoliTeKDSP/libs/libDaisy/src/daisy_seed.h **** 
   5:../libs/PoliTeKDSP/libs/libDaisy/src/daisy_seed.h **** #include "daisy.h"
   6:../libs/PoliTeKDSP/libs/libDaisy/src/daisy_seed.h **** 
   7:../libs/PoliTeKDSP/libs/libDaisy/src/daisy_seed.h **** //Uncomment this out if you're still using the rev2 hardware
   8:../libs/PoliTeKDSP/libs/libDaisy/src/daisy_seed.h **** //#define SEED_REV2
   9:../libs/PoliTeKDSP/libs/libDaisy/src/daisy_seed.h **** 
  10:../libs/PoliTeKDSP/libs/libDaisy/src/daisy_seed.h **** namespace daisy
  11:../libs/PoliTeKDSP/libs/libDaisy/src/daisy_seed.h **** {
  12:../libs/PoliTeKDSP/libs/libDaisy/src/daisy_seed.h **** /**
  13:../libs/PoliTeKDSP/libs/libDaisy/src/daisy_seed.h ****    @brief This is the higher-level interface for the Daisy board. \n 
  14:../libs/PoliTeKDSP/libs/libDaisy/src/daisy_seed.h ****     All basic peripheral configuration/initialization is setup here. \n
  15:../libs/PoliTeKDSP/libs/libDaisy/src/daisy_seed.h **** 
  16:../libs/PoliTeKDSP/libs/libDaisy/src/daisy_seed.h ****    @ingroup boards
  17:../libs/PoliTeKDSP/libs/libDaisy/src/daisy_seed.h **** */
  18:../libs/PoliTeKDSP/libs/libDaisy/src/daisy_seed.h **** class DaisySeed
  19:../libs/PoliTeKDSP/libs/libDaisy/src/daisy_seed.h **** {
ARM GAS  C:\Users\skipi\AppData\Local\Temp\cc9eAo3V.s 			page 4


  20:../libs/PoliTeKDSP/libs/libDaisy/src/daisy_seed.h ****   public:
  21:../libs/PoliTeKDSP/libs/libDaisy/src/daisy_seed.h ****     DaisySeed() {}
  22:../libs/PoliTeKDSP/libs/libDaisy/src/daisy_seed.h ****     ~DaisySeed() {}
  55              		.loc 2 22 5 is_stmt 1 view -0
  56              		.cfi_startproc
  57              		@ args = 0, pretend = 0, frame = 0
  58              		@ frame_needed = 0, uses_anonymous_args = 0
  59              		@ link register save eliminated.
  60              	.LBB465:
  61              	.LBI465:
  62              		.file 3 "../libs/PoliTeKDSP/libs/libDaisy/src/dev/codec_ak4556.h"
   1:../libs/PoliTeKDSP/libs/libDaisy/src/dev/codec_ak4556.h **** #pragma once
   2:../libs/PoliTeKDSP/libs/libDaisy/src/dev/codec_ak4556.h **** #ifndef DSY_CODEC_AK4556_H
   3:../libs/PoliTeKDSP/libs/libDaisy/src/dev/codec_ak4556.h **** #define DSY_CODEC_AK4556_H
   4:../libs/PoliTeKDSP/libs/libDaisy/src/dev/codec_ak4556.h **** 
   5:../libs/PoliTeKDSP/libs/libDaisy/src/dev/codec_ak4556.h **** #include "daisy_core.h"
   6:../libs/PoliTeKDSP/libs/libDaisy/src/dev/codec_ak4556.h **** #include "per/gpio.h"
   7:../libs/PoliTeKDSP/libs/libDaisy/src/dev/codec_ak4556.h **** 
   8:../libs/PoliTeKDSP/libs/libDaisy/src/dev/codec_ak4556.h **** namespace daisy
   9:../libs/PoliTeKDSP/libs/libDaisy/src/dev/codec_ak4556.h **** {
  10:../libs/PoliTeKDSP/libs/libDaisy/src/dev/codec_ak4556.h **** /** @brief Ak4556 Codec support 
  11:../libs/PoliTeKDSP/libs/libDaisy/src/dev/codec_ak4556.h ****  ** @author shensley
  12:../libs/PoliTeKDSP/libs/libDaisy/src/dev/codec_ak4556.h ****  ** @addtogroup codec
  13:../libs/PoliTeKDSP/libs/libDaisy/src/dev/codec_ak4556.h ****  ** 
  14:../libs/PoliTeKDSP/libs/libDaisy/src/dev/codec_ak4556.h ****  ** I don't see any real reason to have this be more than a function, but in case we want
  15:../libs/PoliTeKDSP/libs/libDaisy/src/dev/codec_ak4556.h ****  ** to add other functions down the road I wrapped the function in a class.
  16:../libs/PoliTeKDSP/libs/libDaisy/src/dev/codec_ak4556.h ****  ***/
  17:../libs/PoliTeKDSP/libs/libDaisy/src/dev/codec_ak4556.h **** class Ak4556
  18:../libs/PoliTeKDSP/libs/libDaisy/src/dev/codec_ak4556.h **** {
  19:../libs/PoliTeKDSP/libs/libDaisy/src/dev/codec_ak4556.h ****   public:
  20:../libs/PoliTeKDSP/libs/libDaisy/src/dev/codec_ak4556.h ****     Ak4556() {}
  21:../libs/PoliTeKDSP/libs/libDaisy/src/dev/codec_ak4556.h ****     ~Ak4556() {}
  63              		.loc 3 21 5 view .LVU3
  64              		.loc 3 21 5 is_stmt 0 view .LVU4
  65              	.LBE465:
  66              	.LBB466:
  67              	.LBI466:
  68              		.file 4 "../libs/PoliTeKDSP/libs/libDaisy/src/sys/system.h"
   1:../libs/PoliTeKDSP/libs/libDaisy/src/sys/system.h **** #ifndef DSY_SYSTEM_H
   2:../libs/PoliTeKDSP/libs/libDaisy/src/sys/system.h **** #define DSY_SYSTEM_H
   3:../libs/PoliTeKDSP/libs/libDaisy/src/sys/system.h **** 
   4:../libs/PoliTeKDSP/libs/libDaisy/src/sys/system.h **** #ifndef UNIT_TEST // for unit tests, a dummy implementation is provided below
   5:../libs/PoliTeKDSP/libs/libDaisy/src/sys/system.h **** 
   6:../libs/PoliTeKDSP/libs/libDaisy/src/sys/system.h **** #include <cstdint>
   7:../libs/PoliTeKDSP/libs/libDaisy/src/sys/system.h **** #include "per/tim.h"
   8:../libs/PoliTeKDSP/libs/libDaisy/src/sys/system.h **** 
   9:../libs/PoliTeKDSP/libs/libDaisy/src/sys/system.h **** namespace daisy
  10:../libs/PoliTeKDSP/libs/libDaisy/src/sys/system.h **** {
  11:../libs/PoliTeKDSP/libs/libDaisy/src/sys/system.h **** /** A handle for interacting with the Core System.
  12:../libs/PoliTeKDSP/libs/libDaisy/src/sys/system.h ****  ** This includes the Clock tree, MPU, global DMA initialization,
  13:../libs/PoliTeKDSP/libs/libDaisy/src/sys/system.h ****  ** cache handling, and any other necessary global initiailzation
  14:../libs/PoliTeKDSP/libs/libDaisy/src/sys/system.h ****  **
  15:../libs/PoliTeKDSP/libs/libDaisy/src/sys/system.h ****  ** @author shensley
  16:../libs/PoliTeKDSP/libs/libDaisy/src/sys/system.h ****  ** @ingroup system
  17:../libs/PoliTeKDSP/libs/libDaisy/src/sys/system.h ****  */
  18:../libs/PoliTeKDSP/libs/libDaisy/src/sys/system.h **** class System
  19:../libs/PoliTeKDSP/libs/libDaisy/src/sys/system.h **** {
ARM GAS  C:\Users\skipi\AppData\Local\Temp\cc9eAo3V.s 			page 5


  20:../libs/PoliTeKDSP/libs/libDaisy/src/sys/system.h ****   public:
  21:../libs/PoliTeKDSP/libs/libDaisy/src/sys/system.h ****     /** Contains settings for initializing the System */
  22:../libs/PoliTeKDSP/libs/libDaisy/src/sys/system.h ****     struct Config
  23:../libs/PoliTeKDSP/libs/libDaisy/src/sys/system.h ****     {
  24:../libs/PoliTeKDSP/libs/libDaisy/src/sys/system.h ****         /** Specifies the system clock frequency that feeds APB/AHB clocks, etc. */
  25:../libs/PoliTeKDSP/libs/libDaisy/src/sys/system.h ****         enum class SysClkFreq
  26:../libs/PoliTeKDSP/libs/libDaisy/src/sys/system.h ****         {
  27:../libs/PoliTeKDSP/libs/libDaisy/src/sys/system.h ****             FREQ_400MHZ,
  28:../libs/PoliTeKDSP/libs/libDaisy/src/sys/system.h ****             FREQ_480MHZ,
  29:../libs/PoliTeKDSP/libs/libDaisy/src/sys/system.h ****         };
  30:../libs/PoliTeKDSP/libs/libDaisy/src/sys/system.h **** 
  31:../libs/PoliTeKDSP/libs/libDaisy/src/sys/system.h ****         /** Method to call on the struct to set to defaults
  32:../libs/PoliTeKDSP/libs/libDaisy/src/sys/system.h ****          ** CPU Freq set to 400MHz
  33:../libs/PoliTeKDSP/libs/libDaisy/src/sys/system.h ****          ** Cache Enabled
  34:../libs/PoliTeKDSP/libs/libDaisy/src/sys/system.h ****          ** */
  35:../libs/PoliTeKDSP/libs/libDaisy/src/sys/system.h ****         void Defaults()
  36:../libs/PoliTeKDSP/libs/libDaisy/src/sys/system.h ****         {
  37:../libs/PoliTeKDSP/libs/libDaisy/src/sys/system.h ****             cpu_freq    = SysClkFreq::FREQ_400MHZ;
  38:../libs/PoliTeKDSP/libs/libDaisy/src/sys/system.h ****             use_dcache  = true;
  39:../libs/PoliTeKDSP/libs/libDaisy/src/sys/system.h ****             use_icache  = true;
  40:../libs/PoliTeKDSP/libs/libDaisy/src/sys/system.h ****             skip_clocks = false;
  41:../libs/PoliTeKDSP/libs/libDaisy/src/sys/system.h ****         }
  42:../libs/PoliTeKDSP/libs/libDaisy/src/sys/system.h **** 
  43:../libs/PoliTeKDSP/libs/libDaisy/src/sys/system.h ****         /** Method to call on the struct to set to boost mode:
  44:../libs/PoliTeKDSP/libs/libDaisy/src/sys/system.h ****          ** CPU Freq set to 480MHz
  45:../libs/PoliTeKDSP/libs/libDaisy/src/sys/system.h ****          ** Cache Enabled
  46:../libs/PoliTeKDSP/libs/libDaisy/src/sys/system.h ****          ** */
  47:../libs/PoliTeKDSP/libs/libDaisy/src/sys/system.h ****         void Boost()
  48:../libs/PoliTeKDSP/libs/libDaisy/src/sys/system.h ****         {
  49:../libs/PoliTeKDSP/libs/libDaisy/src/sys/system.h ****             cpu_freq    = SysClkFreq::FREQ_480MHZ;
  50:../libs/PoliTeKDSP/libs/libDaisy/src/sys/system.h ****             use_dcache  = true;
  51:../libs/PoliTeKDSP/libs/libDaisy/src/sys/system.h ****             use_icache  = true;
  52:../libs/PoliTeKDSP/libs/libDaisy/src/sys/system.h ****             skip_clocks = false;
  53:../libs/PoliTeKDSP/libs/libDaisy/src/sys/system.h ****         }
  54:../libs/PoliTeKDSP/libs/libDaisy/src/sys/system.h **** 
  55:../libs/PoliTeKDSP/libs/libDaisy/src/sys/system.h ****         SysClkFreq cpu_freq;
  56:../libs/PoliTeKDSP/libs/libDaisy/src/sys/system.h ****         bool       use_dcache;
  57:../libs/PoliTeKDSP/libs/libDaisy/src/sys/system.h ****         bool       use_icache;
  58:../libs/PoliTeKDSP/libs/libDaisy/src/sys/system.h ****         bool       skip_clocks;
  59:../libs/PoliTeKDSP/libs/libDaisy/src/sys/system.h ****     };
  60:../libs/PoliTeKDSP/libs/libDaisy/src/sys/system.h **** 
  61:../libs/PoliTeKDSP/libs/libDaisy/src/sys/system.h ****     /** Describes the different regions of memory available to the Daisy */
  62:../libs/PoliTeKDSP/libs/libDaisy/src/sys/system.h ****     enum MemoryRegion
  63:../libs/PoliTeKDSP/libs/libDaisy/src/sys/system.h ****     {
  64:../libs/PoliTeKDSP/libs/libDaisy/src/sys/system.h ****         INTERNAL_FLASH = 0,
  65:../libs/PoliTeKDSP/libs/libDaisy/src/sys/system.h ****         ITCMRAM,
  66:../libs/PoliTeKDSP/libs/libDaisy/src/sys/system.h ****         DTCMRAM,
  67:../libs/PoliTeKDSP/libs/libDaisy/src/sys/system.h ****         SRAM_D1,
  68:../libs/PoliTeKDSP/libs/libDaisy/src/sys/system.h ****         SRAM_D2,
  69:../libs/PoliTeKDSP/libs/libDaisy/src/sys/system.h ****         SRAM_D3,
  70:../libs/PoliTeKDSP/libs/libDaisy/src/sys/system.h ****         SDRAM,
  71:../libs/PoliTeKDSP/libs/libDaisy/src/sys/system.h ****         QSPI,
  72:../libs/PoliTeKDSP/libs/libDaisy/src/sys/system.h ****         INVALID_ADDRESS,
  73:../libs/PoliTeKDSP/libs/libDaisy/src/sys/system.h ****     };
  74:../libs/PoliTeKDSP/libs/libDaisy/src/sys/system.h **** 
  75:../libs/PoliTeKDSP/libs/libDaisy/src/sys/system.h ****     /** Bootloader struct for controlling bootloading parameters */
  76:../libs/PoliTeKDSP/libs/libDaisy/src/sys/system.h ****     struct BootInfo
ARM GAS  C:\Users\skipi\AppData\Local\Temp\cc9eAo3V.s 			page 6


  77:../libs/PoliTeKDSP/libs/libDaisy/src/sys/system.h ****     {
  78:../libs/PoliTeKDSP/libs/libDaisy/src/sys/system.h ****         enum class Type : uint32_t
  79:../libs/PoliTeKDSP/libs/libDaisy/src/sys/system.h ****         {
  80:../libs/PoliTeKDSP/libs/libDaisy/src/sys/system.h ****             INVALID      = 0x00000000,
  81:../libs/PoliTeKDSP/libs/libDaisy/src/sys/system.h ****             JUMP         = 0xDEADBEEF,
  82:../libs/PoliTeKDSP/libs/libDaisy/src/sys/system.h ****             SKIP_TIMEOUT = 0x5AFEB007,
  83:../libs/PoliTeKDSP/libs/libDaisy/src/sys/system.h ****             INF_TIMEOUT  = 0xB0074EFA,
  84:../libs/PoliTeKDSP/libs/libDaisy/src/sys/system.h ****         } status;
  85:../libs/PoliTeKDSP/libs/libDaisy/src/sys/system.h ****         uint32_t data;
  86:../libs/PoliTeKDSP/libs/libDaisy/src/sys/system.h ****         enum class Version : uint32_t
  87:../libs/PoliTeKDSP/libs/libDaisy/src/sys/system.h ****         {
  88:../libs/PoliTeKDSP/libs/libDaisy/src/sys/system.h ****             LT_v6_0 = 0, // Less than v6.0
  89:../libs/PoliTeKDSP/libs/libDaisy/src/sys/system.h ****             NONE,        // No bootloader present
  90:../libs/PoliTeKDSP/libs/libDaisy/src/sys/system.h ****             v6_0,        // v6.0
  91:../libs/PoliTeKDSP/libs/libDaisy/src/sys/system.h ****             v6_1,        // v6.1 or greater
  92:../libs/PoliTeKDSP/libs/libDaisy/src/sys/system.h ****             LAST
  93:../libs/PoliTeKDSP/libs/libDaisy/src/sys/system.h ****         } version;
  94:../libs/PoliTeKDSP/libs/libDaisy/src/sys/system.h ****     };
  95:../libs/PoliTeKDSP/libs/libDaisy/src/sys/system.h **** 
  96:../libs/PoliTeKDSP/libs/libDaisy/src/sys/system.h ****     System() {}
  97:../libs/PoliTeKDSP/libs/libDaisy/src/sys/system.h ****     ~System() {}
  69              		.loc 4 97 5 is_stmt 1 view .LVU5
  70              		.loc 4 97 5 is_stmt 0 view .LVU6
  71              	.LBE466:
  72              	.LBB467:
  73              	.LBI467:
  74              		.file 5 "../libs/PoliTeKDSP/libs/libDaisy/src/hid/usb.h"
   1:../libs/PoliTeKDSP/libs/libDaisy/src/hid/usb.h **** #pragma once
   2:../libs/PoliTeKDSP/libs/libDaisy/src/hid/usb.h **** #ifndef DSY_HID_USB_H
   3:../libs/PoliTeKDSP/libs/libDaisy/src/hid/usb.h **** #define DSY_HID_USB_H
   4:../libs/PoliTeKDSP/libs/libDaisy/src/hid/usb.h **** #include <stdint.h>
   5:../libs/PoliTeKDSP/libs/libDaisy/src/hid/usb.h **** #include <stdlib.h>
   6:../libs/PoliTeKDSP/libs/libDaisy/src/hid/usb.h **** 
   7:../libs/PoliTeKDSP/libs/libDaisy/src/hid/usb.h **** namespace daisy
   8:../libs/PoliTeKDSP/libs/libDaisy/src/hid/usb.h **** /** @addtogroup human_interface
   9:../libs/PoliTeKDSP/libs/libDaisy/src/hid/usb.h ****     @{
  10:../libs/PoliTeKDSP/libs/libDaisy/src/hid/usb.h **** */
  11:../libs/PoliTeKDSP/libs/libDaisy/src/hid/usb.h **** 
  12:../libs/PoliTeKDSP/libs/libDaisy/src/hid/usb.h **** {
  13:../libs/PoliTeKDSP/libs/libDaisy/src/hid/usb.h **** /** 
  14:../libs/PoliTeKDSP/libs/libDaisy/src/hid/usb.h ****     @brief Interface for initializing and using the USB Peripherals on the daisy
  15:../libs/PoliTeKDSP/libs/libDaisy/src/hid/usb.h ****     @author Stephen Hensley
  16:../libs/PoliTeKDSP/libs/libDaisy/src/hid/usb.h ****     @date December 2019
  17:../libs/PoliTeKDSP/libs/libDaisy/src/hid/usb.h **** */
  18:../libs/PoliTeKDSP/libs/libDaisy/src/hid/usb.h **** class UsbHandle
  19:../libs/PoliTeKDSP/libs/libDaisy/src/hid/usb.h **** {
  20:../libs/PoliTeKDSP/libs/libDaisy/src/hid/usb.h ****   public:
  21:../libs/PoliTeKDSP/libs/libDaisy/src/hid/usb.h ****     /** Return values for USBHandle Functions */
  22:../libs/PoliTeKDSP/libs/libDaisy/src/hid/usb.h ****     enum class Result
  23:../libs/PoliTeKDSP/libs/libDaisy/src/hid/usb.h ****     {
  24:../libs/PoliTeKDSP/libs/libDaisy/src/hid/usb.h ****         OK,
  25:../libs/PoliTeKDSP/libs/libDaisy/src/hid/usb.h ****         ERR,
  26:../libs/PoliTeKDSP/libs/libDaisy/src/hid/usb.h ****     };
  27:../libs/PoliTeKDSP/libs/libDaisy/src/hid/usb.h **** 
  28:../libs/PoliTeKDSP/libs/libDaisy/src/hid/usb.h ****     /** Specified which of the two USB Peripherals to initialize. */
  29:../libs/PoliTeKDSP/libs/libDaisy/src/hid/usb.h ****     enum UsbPeriph
  30:../libs/PoliTeKDSP/libs/libDaisy/src/hid/usb.h ****     {
ARM GAS  C:\Users\skipi\AppData\Local\Temp\cc9eAo3V.s 			page 7


  31:../libs/PoliTeKDSP/libs/libDaisy/src/hid/usb.h ****         FS_INTERNAL, /**< Internal pin */
  32:../libs/PoliTeKDSP/libs/libDaisy/src/hid/usb.h ****         FS_EXTERNAL, /**< FS External D+ pin is Pin 38 (GPIO32). FS External D- pin is Pin 37 (GPIO
  33:../libs/PoliTeKDSP/libs/libDaisy/src/hid/usb.h ****         FS_BOTH,     /**< Both */
  34:../libs/PoliTeKDSP/libs/libDaisy/src/hid/usb.h ****     };
  35:../libs/PoliTeKDSP/libs/libDaisy/src/hid/usb.h **** 
  36:../libs/PoliTeKDSP/libs/libDaisy/src/hid/usb.h **** 
  37:../libs/PoliTeKDSP/libs/libDaisy/src/hid/usb.h ****     /** Function called upon reception of a buffer */
  38:../libs/PoliTeKDSP/libs/libDaisy/src/hid/usb.h ****     typedef void (*ReceiveCallback)(uint8_t* buff, uint32_t* len);
  39:../libs/PoliTeKDSP/libs/libDaisy/src/hid/usb.h **** 
  40:../libs/PoliTeKDSP/libs/libDaisy/src/hid/usb.h ****     UsbHandle() {}
  41:../libs/PoliTeKDSP/libs/libDaisy/src/hid/usb.h **** 
  42:../libs/PoliTeKDSP/libs/libDaisy/src/hid/usb.h ****     ~UsbHandle() {}
  75              		.loc 5 42 5 is_stmt 1 view .LVU7
  76              		.loc 5 42 5 is_stmt 0 view .LVU8
  77              	.LBE467:
  78              	.LBB468:
  79              	.LBI468:
  80              		.file 6 "../libs/PoliTeKDSP/libs/libDaisy/src/per/adc.h"
   1:../libs/PoliTeKDSP/libs/libDaisy/src/per/adc.h **** #pragma once
   2:../libs/PoliTeKDSP/libs/libDaisy/src/per/adc.h **** #ifndef DSY_ADC_H
   3:../libs/PoliTeKDSP/libs/libDaisy/src/per/adc.h **** #define DSY_ADC_H /**< Macro */
   4:../libs/PoliTeKDSP/libs/libDaisy/src/per/adc.h **** #include <stdint.h>
   5:../libs/PoliTeKDSP/libs/libDaisy/src/per/adc.h **** #include <stdlib.h>
   6:../libs/PoliTeKDSP/libs/libDaisy/src/per/adc.h **** #include "daisy_core.h"
   7:../libs/PoliTeKDSP/libs/libDaisy/src/per/adc.h **** #include "per/gpio.h"
   8:../libs/PoliTeKDSP/libs/libDaisy/src/per/adc.h **** 
   9:../libs/PoliTeKDSP/libs/libDaisy/src/per/adc.h **** #define DSY_ADC_MAX_CHANNELS 16 /**< Maximum number of ADC channels */
  10:../libs/PoliTeKDSP/libs/libDaisy/src/per/adc.h **** 
  11:../libs/PoliTeKDSP/libs/libDaisy/src/per/adc.h **** namespace daisy
  12:../libs/PoliTeKDSP/libs/libDaisy/src/per/adc.h **** {
  13:../libs/PoliTeKDSP/libs/libDaisy/src/per/adc.h **** /** @addtogroup per_analog
  14:../libs/PoliTeKDSP/libs/libDaisy/src/per/adc.h ****     @{
  15:../libs/PoliTeKDSP/libs/libDaisy/src/per/adc.h **** */
  16:../libs/PoliTeKDSP/libs/libDaisy/src/per/adc.h **** 
  17:../libs/PoliTeKDSP/libs/libDaisy/src/per/adc.h **** /* While there may not be many configuration options here,
  18:../libs/PoliTeKDSP/libs/libDaisy/src/per/adc.h **** using a struct like this allows us to add more configuration
  19:../libs/PoliTeKDSP/libs/libDaisy/src/per/adc.h **** later without breaking existing functionality.
  20:../libs/PoliTeKDSP/libs/libDaisy/src/per/adc.h **** */
  21:../libs/PoliTeKDSP/libs/libDaisy/src/per/adc.h **** 
  22:../libs/PoliTeKDSP/libs/libDaisy/src/per/adc.h **** /** @brief   Configuration Structure for an ADC Channel 
  23:../libs/PoliTeKDSP/libs/libDaisy/src/per/adc.h ****  *  @details This can be used to configure a a single input, 
  24:../libs/PoliTeKDSP/libs/libDaisy/src/per/adc.h ****  *           or a multiplexed input, allowing up to 8 inputs on 
  25:../libs/PoliTeKDSP/libs/libDaisy/src/per/adc.h ****  *           one channel.
  26:../libs/PoliTeKDSP/libs/libDaisy/src/per/adc.h ****  *  @note    Sharing data lines to multiple muxes _is_ possible, but
  27:../libs/PoliTeKDSP/libs/libDaisy/src/per/adc.h ****  *           each channel sharing data lines must be set to the maximum
  28:../libs/PoliTeKDSP/libs/libDaisy/src/per/adc.h ****  *           number of channels, even if some multiplexers have fewer
  29:../libs/PoliTeKDSP/libs/libDaisy/src/per/adc.h ****  *           inputs connected.
  30:../libs/PoliTeKDSP/libs/libDaisy/src/per/adc.h **** */
  31:../libs/PoliTeKDSP/libs/libDaisy/src/per/adc.h **** struct AdcChannelConfig
  32:../libs/PoliTeKDSP/libs/libDaisy/src/per/adc.h **** {
  33:../libs/PoliTeKDSP/libs/libDaisy/src/per/adc.h ****     /** Which pin to use for multiplexing */
  34:../libs/PoliTeKDSP/libs/libDaisy/src/per/adc.h ****     enum MuxPin
  35:../libs/PoliTeKDSP/libs/libDaisy/src/per/adc.h ****     {
  36:../libs/PoliTeKDSP/libs/libDaisy/src/per/adc.h ****         MUX_SEL_0,    /**< & */
  37:../libs/PoliTeKDSP/libs/libDaisy/src/per/adc.h ****         MUX_SEL_1,    /**< & */
  38:../libs/PoliTeKDSP/libs/libDaisy/src/per/adc.h ****         MUX_SEL_2,    /**< & */
  39:../libs/PoliTeKDSP/libs/libDaisy/src/per/adc.h ****         MUX_SEL_LAST, /**< & */
ARM GAS  C:\Users\skipi\AppData\Local\Temp\cc9eAo3V.s 			page 8


  40:../libs/PoliTeKDSP/libs/libDaisy/src/per/adc.h ****     };
  41:../libs/PoliTeKDSP/libs/libDaisy/src/per/adc.h **** 
  42:../libs/PoliTeKDSP/libs/libDaisy/src/per/adc.h ****     /** \brief per channel conversion speed added to fixed time based on bitdepth, etc. */
  43:../libs/PoliTeKDSP/libs/libDaisy/src/per/adc.h ****     enum ConversionSpeed
  44:../libs/PoliTeKDSP/libs/libDaisy/src/per/adc.h ****     {
  45:../libs/PoliTeKDSP/libs/libDaisy/src/per/adc.h ****         SPEED_1CYCLES_5,
  46:../libs/PoliTeKDSP/libs/libDaisy/src/per/adc.h ****         SPEED_2CYCLES_5,
  47:../libs/PoliTeKDSP/libs/libDaisy/src/per/adc.h ****         SPEED_8CYCLES_5,
  48:../libs/PoliTeKDSP/libs/libDaisy/src/per/adc.h ****         SPEED_16CYCLES_5,
  49:../libs/PoliTeKDSP/libs/libDaisy/src/per/adc.h ****         SPEED_32CYCLES_5,
  50:../libs/PoliTeKDSP/libs/libDaisy/src/per/adc.h ****         SPEED_64CYCLES_5,
  51:../libs/PoliTeKDSP/libs/libDaisy/src/per/adc.h ****         SPEED_387CYCLES_5,
  52:../libs/PoliTeKDSP/libs/libDaisy/src/per/adc.h ****         SPEED_810CYCLES_5,
  53:../libs/PoliTeKDSP/libs/libDaisy/src/per/adc.h ****     };
  54:../libs/PoliTeKDSP/libs/libDaisy/src/per/adc.h **** 
  55:../libs/PoliTeKDSP/libs/libDaisy/src/per/adc.h ****     /** Initializes a single ADC pin as an ADC. 
  56:../libs/PoliTeKDSP/libs/libDaisy/src/per/adc.h ****     \param pin Pin to init.
  57:../libs/PoliTeKDSP/libs/libDaisy/src/per/adc.h ****     \param speed conversion speed for this pin defaults to 8.5 cycles
  58:../libs/PoliTeKDSP/libs/libDaisy/src/per/adc.h ****      */
  59:../libs/PoliTeKDSP/libs/libDaisy/src/per/adc.h ****     void InitSingle(Pin pin, ConversionSpeed speed = SPEED_8CYCLES_5);
  60:../libs/PoliTeKDSP/libs/libDaisy/src/per/adc.h **** 
  61:../libs/PoliTeKDSP/libs/libDaisy/src/per/adc.h ****     /** 
  62:../libs/PoliTeKDSP/libs/libDaisy/src/per/adc.h ****     Initializes a single ADC pin as a Multiplexed ADC.
  63:../libs/PoliTeKDSP/libs/libDaisy/src/per/adc.h ****     Requires a CD405X Multiplexer connected to the pin.
  64:../libs/PoliTeKDSP/libs/libDaisy/src/per/adc.h ****     You only need to supply the mux pins that are required,
  65:../libs/PoliTeKDSP/libs/libDaisy/src/per/adc.h ****     e.g. a 4052 mux would only require mux_0 and mux_1.
  66:../libs/PoliTeKDSP/libs/libDaisy/src/per/adc.h ****     Internal Callbacks handle the pin addressing.
  67:../libs/PoliTeKDSP/libs/libDaisy/src/per/adc.h ****     \param adc_pin &
  68:../libs/PoliTeKDSP/libs/libDaisy/src/per/adc.h ****     \param mux_channels must be 1-8
  69:../libs/PoliTeKDSP/libs/libDaisy/src/per/adc.h ****     \param mux_0 First mux pin
  70:../libs/PoliTeKDSP/libs/libDaisy/src/per/adc.h ****     \param mux_1 Second mux pin
  71:../libs/PoliTeKDSP/libs/libDaisy/src/per/adc.h ****     \param mux_2 Third mux pin
  72:../libs/PoliTeKDSP/libs/libDaisy/src/per/adc.h ****     \param speed conversion speed for this pin defaults to 8.5 cycles
  73:../libs/PoliTeKDSP/libs/libDaisy/src/per/adc.h ****     */
  74:../libs/PoliTeKDSP/libs/libDaisy/src/per/adc.h ****     void InitMux(Pin             adc_pin,
  75:../libs/PoliTeKDSP/libs/libDaisy/src/per/adc.h ****                  size_t          mux_channels,
  76:../libs/PoliTeKDSP/libs/libDaisy/src/per/adc.h ****                  Pin             mux_0,
  77:../libs/PoliTeKDSP/libs/libDaisy/src/per/adc.h ****                  Pin             mux_1 = Pin(PORTX, 0),
  78:../libs/PoliTeKDSP/libs/libDaisy/src/per/adc.h ****                  Pin             mux_2 = Pin(PORTX, 0),
  79:../libs/PoliTeKDSP/libs/libDaisy/src/per/adc.h ****                  ConversionSpeed speed = SPEED_8CYCLES_5);
  80:../libs/PoliTeKDSP/libs/libDaisy/src/per/adc.h **** 
  81:../libs/PoliTeKDSP/libs/libDaisy/src/per/adc.h ****     GPIO            pin_;                   /**< & */
  82:../libs/PoliTeKDSP/libs/libDaisy/src/per/adc.h ****     GPIO            mux_pin_[MUX_SEL_LAST]; /**< & */
  83:../libs/PoliTeKDSP/libs/libDaisy/src/per/adc.h ****     uint8_t         mux_channels_;          /**< & */
  84:../libs/PoliTeKDSP/libs/libDaisy/src/per/adc.h ****     ConversionSpeed speed_;
  85:../libs/PoliTeKDSP/libs/libDaisy/src/per/adc.h **** };
  86:../libs/PoliTeKDSP/libs/libDaisy/src/per/adc.h **** 
  87:../libs/PoliTeKDSP/libs/libDaisy/src/per/adc.h **** /**
  88:../libs/PoliTeKDSP/libs/libDaisy/src/per/adc.h ****    @brief Handler for analog to digital conversion
  89:../libs/PoliTeKDSP/libs/libDaisy/src/per/adc.h **** */
  90:../libs/PoliTeKDSP/libs/libDaisy/src/per/adc.h **** class AdcHandle
  91:../libs/PoliTeKDSP/libs/libDaisy/src/per/adc.h **** {
  92:../libs/PoliTeKDSP/libs/libDaisy/src/per/adc.h ****   public:
  93:../libs/PoliTeKDSP/libs/libDaisy/src/per/adc.h ****     /** Supported oversampling amounts */
  94:../libs/PoliTeKDSP/libs/libDaisy/src/per/adc.h ****     enum OverSampling
  95:../libs/PoliTeKDSP/libs/libDaisy/src/per/adc.h ****     {
  96:../libs/PoliTeKDSP/libs/libDaisy/src/per/adc.h ****         OVS_NONE, /**< & */
ARM GAS  C:\Users\skipi\AppData\Local\Temp\cc9eAo3V.s 			page 9


  97:../libs/PoliTeKDSP/libs/libDaisy/src/per/adc.h ****         OVS_4,    /**< & */
  98:../libs/PoliTeKDSP/libs/libDaisy/src/per/adc.h ****         OVS_8,    /**< & */
  99:../libs/PoliTeKDSP/libs/libDaisy/src/per/adc.h ****         OVS_16,   /**< & */
 100:../libs/PoliTeKDSP/libs/libDaisy/src/per/adc.h ****         OVS_32,   /**< & */
 101:../libs/PoliTeKDSP/libs/libDaisy/src/per/adc.h ****         OVS_64,   /**< & */
 102:../libs/PoliTeKDSP/libs/libDaisy/src/per/adc.h ****         OVS_128,  /**< & */
 103:../libs/PoliTeKDSP/libs/libDaisy/src/per/adc.h ****         OVS_256,  /**< & */
 104:../libs/PoliTeKDSP/libs/libDaisy/src/per/adc.h ****         OVS_512,  /**< & */
 105:../libs/PoliTeKDSP/libs/libDaisy/src/per/adc.h ****         OVS_1024, /**< & */
 106:../libs/PoliTeKDSP/libs/libDaisy/src/per/adc.h ****         OVS_LAST, /**< & */
 107:../libs/PoliTeKDSP/libs/libDaisy/src/per/adc.h ****     };
 108:../libs/PoliTeKDSP/libs/libDaisy/src/per/adc.h **** 
 109:../libs/PoliTeKDSP/libs/libDaisy/src/per/adc.h ****     AdcHandle() {}
 110:../libs/PoliTeKDSP/libs/libDaisy/src/per/adc.h ****     ~AdcHandle() {}
  81              		.loc 6 110 5 is_stmt 1 view .LVU9
  82              		.loc 6 110 5 is_stmt 0 view .LVU10
  83              	.LBE468:
  84              	.LBB469:
  85              	.LBI469:
  86              		.file 7 "../libs/PoliTeKDSP/libs/libDaisy/src/hid/audio.h"
   1:../libs/PoliTeKDSP/libs/libDaisy/src/hid/audio.h **** #ifndef DSY_AUDIO_H
   2:../libs/PoliTeKDSP/libs/libDaisy/src/hid/audio.h **** #define DSY_AUDIO_H /**< & */
   3:../libs/PoliTeKDSP/libs/libDaisy/src/hid/audio.h **** 
   4:../libs/PoliTeKDSP/libs/libDaisy/src/hid/audio.h **** #include "per/sai.h"
   5:../libs/PoliTeKDSP/libs/libDaisy/src/hid/audio.h **** 
   6:../libs/PoliTeKDSP/libs/libDaisy/src/hid/audio.h **** namespace daisy
   7:../libs/PoliTeKDSP/libs/libDaisy/src/hid/audio.h **** {
   8:../libs/PoliTeKDSP/libs/libDaisy/src/hid/audio.h **** /** @brief Audio Engine Handle
   9:../libs/PoliTeKDSP/libs/libDaisy/src/hid/audio.h ****  *  @ingroup audio 
  10:../libs/PoliTeKDSP/libs/libDaisy/src/hid/audio.h ****  *  @details This class allows for higher level access to an audio engine.
  11:../libs/PoliTeKDSP/libs/libDaisy/src/hid/audio.h ****  *           If you're using a SOM like the DaisySeed or DaisyPatchSM (or any 
  12:../libs/PoliTeKDSP/libs/libDaisy/src/hid/audio.h ****  *            board that includes one of those objects) then the intialization
  13:../libs/PoliTeKDSP/libs/libDaisy/src/hid/audio.h ****  *            is already taken  care of.
  14:../libs/PoliTeKDSP/libs/libDaisy/src/hid/audio.h ****  *           If you're setting up your own custom hardware, or need to make changes
  15:../libs/PoliTeKDSP/libs/libDaisy/src/hid/audio.h ****  *           you will have to take the following steps:
  16:../libs/PoliTeKDSP/libs/libDaisy/src/hid/audio.h ****  *             1. Create and Initialize an SaiHandle or two depending on your requirements
  17:../libs/PoliTeKDSP/libs/libDaisy/src/hid/audio.h ****  *             2. Initialize the Audio Handle with the desired settings and the Initialized SaiHand
  18:../libs/PoliTeKDSP/libs/libDaisy/src/hid/audio.h ****  *             3. If the connected codec requires special configuration or initialization, do so
  19:../libs/PoliTeKDSP/libs/libDaisy/src/hid/audio.h ****  *             4. Write a callback method using either the AudioCallback or the InterleavingAudioCa
  20:../libs/PoliTeKDSP/libs/libDaisy/src/hid/audio.h ****  *             5. Start the Audio using one of the StartAudio function
  21:../libs/PoliTeKDSP/libs/libDaisy/src/hid/audio.h ****  */
  22:../libs/PoliTeKDSP/libs/libDaisy/src/hid/audio.h **** class AudioHandle
  23:../libs/PoliTeKDSP/libs/libDaisy/src/hid/audio.h **** {
  24:../libs/PoliTeKDSP/libs/libDaisy/src/hid/audio.h ****   public:
  25:../libs/PoliTeKDSP/libs/libDaisy/src/hid/audio.h ****     /** Manually configurable details about the Audio Engine */
  26:../libs/PoliTeKDSP/libs/libDaisy/src/hid/audio.h ****     /** TODO: Figure out how to get samplerate in here. */
  27:../libs/PoliTeKDSP/libs/libDaisy/src/hid/audio.h ****     struct Config
  28:../libs/PoliTeKDSP/libs/libDaisy/src/hid/audio.h ****     {
  29:../libs/PoliTeKDSP/libs/libDaisy/src/hid/audio.h ****         /** number of samples to process per callback */
  30:../libs/PoliTeKDSP/libs/libDaisy/src/hid/audio.h ****         size_t blocksize = 48;
  31:../libs/PoliTeKDSP/libs/libDaisy/src/hid/audio.h **** 
  32:../libs/PoliTeKDSP/libs/libDaisy/src/hid/audio.h ****         /**< Sample rate of audio */
  33:../libs/PoliTeKDSP/libs/libDaisy/src/hid/audio.h ****         SaiHandle::Config::SampleRate samplerate
  34:../libs/PoliTeKDSP/libs/libDaisy/src/hid/audio.h ****             = SaiHandle::Config::SampleRate::SAI_48KHZ;
  35:../libs/PoliTeKDSP/libs/libDaisy/src/hid/audio.h **** 
  36:../libs/PoliTeKDSP/libs/libDaisy/src/hid/audio.h ****         /** factor for adjustment before and after callback for hardware that may have extra headro
  37:../libs/PoliTeKDSP/libs/libDaisy/src/hid/audio.h ****         float postgain = 1.f;
ARM GAS  C:\Users\skipi\AppData\Local\Temp\cc9eAo3V.s 			page 10


  38:../libs/PoliTeKDSP/libs/libDaisy/src/hid/audio.h **** 
  39:../libs/PoliTeKDSP/libs/libDaisy/src/hid/audio.h ****         /** factor for additional one-sided compensation to audio path for hardware that may
  40:../libs/PoliTeKDSP/libs/libDaisy/src/hid/audio.h ****          *  have unequal input/output ranges
  41:../libs/PoliTeKDSP/libs/libDaisy/src/hid/audio.h ****          */
  42:../libs/PoliTeKDSP/libs/libDaisy/src/hid/audio.h ****         float output_compensation = 1.f;
  43:../libs/PoliTeKDSP/libs/libDaisy/src/hid/audio.h ****     };
  44:../libs/PoliTeKDSP/libs/libDaisy/src/hid/audio.h **** 
  45:../libs/PoliTeKDSP/libs/libDaisy/src/hid/audio.h ****     enum class Result
  46:../libs/PoliTeKDSP/libs/libDaisy/src/hid/audio.h ****     {
  47:../libs/PoliTeKDSP/libs/libDaisy/src/hid/audio.h ****         OK,
  48:../libs/PoliTeKDSP/libs/libDaisy/src/hid/audio.h ****         ERR,
  49:../libs/PoliTeKDSP/libs/libDaisy/src/hid/audio.h ****     };
  50:../libs/PoliTeKDSP/libs/libDaisy/src/hid/audio.h **** 
  51:../libs/PoliTeKDSP/libs/libDaisy/src/hid/audio.h ****     /** Non-Interleaving input buffer
  52:../libs/PoliTeKDSP/libs/libDaisy/src/hid/audio.h ****      * Buffer arranged by float[chn][sample] 
  53:../libs/PoliTeKDSP/libs/libDaisy/src/hid/audio.h ****      * const so that the user can't modify the input
  54:../libs/PoliTeKDSP/libs/libDaisy/src/hid/audio.h ****      */
  55:../libs/PoliTeKDSP/libs/libDaisy/src/hid/audio.h ****     typedef const float* const* InputBuffer;
  56:../libs/PoliTeKDSP/libs/libDaisy/src/hid/audio.h **** 
  57:../libs/PoliTeKDSP/libs/libDaisy/src/hid/audio.h ****     /** Non-Interleaving output buffer
  58:../libs/PoliTeKDSP/libs/libDaisy/src/hid/audio.h ****      * Arranged by float[chn][sample] 
  59:../libs/PoliTeKDSP/libs/libDaisy/src/hid/audio.h ****      */
  60:../libs/PoliTeKDSP/libs/libDaisy/src/hid/audio.h ****     typedef float** OutputBuffer;
  61:../libs/PoliTeKDSP/libs/libDaisy/src/hid/audio.h **** 
  62:../libs/PoliTeKDSP/libs/libDaisy/src/hid/audio.h ****     /** Type for a Non-Interleaving audio callback 
  63:../libs/PoliTeKDSP/libs/libDaisy/src/hid/audio.h ****      * Non-Interleaving audio callbacks in daisy will be of this type
  64:../libs/PoliTeKDSP/libs/libDaisy/src/hid/audio.h ****      */
  65:../libs/PoliTeKDSP/libs/libDaisy/src/hid/audio.h ****     typedef void (*AudioCallback)(InputBuffer  in,
  66:../libs/PoliTeKDSP/libs/libDaisy/src/hid/audio.h ****                                   OutputBuffer out,
  67:../libs/PoliTeKDSP/libs/libDaisy/src/hid/audio.h ****                                   size_t       size);
  68:../libs/PoliTeKDSP/libs/libDaisy/src/hid/audio.h **** 
  69:../libs/PoliTeKDSP/libs/libDaisy/src/hid/audio.h ****     /** Interleaving Input buffer
  70:../libs/PoliTeKDSP/libs/libDaisy/src/hid/audio.h ****      ** audio is prepared as { L0, R0, L1, R1, . . . LN, RN }]
  71:../libs/PoliTeKDSP/libs/libDaisy/src/hid/audio.h ****      ** this is const, as the user shouldn't modify it
  72:../libs/PoliTeKDSP/libs/libDaisy/src/hid/audio.h ****     */
  73:../libs/PoliTeKDSP/libs/libDaisy/src/hid/audio.h ****     typedef const float* InterleavingInputBuffer;
  74:../libs/PoliTeKDSP/libs/libDaisy/src/hid/audio.h **** 
  75:../libs/PoliTeKDSP/libs/libDaisy/src/hid/audio.h ****     /** Interleaving Output buffer 
  76:../libs/PoliTeKDSP/libs/libDaisy/src/hid/audio.h ****      ** audio is prepared as { L0, R0, L1, R1, . . . LN, RN }
  77:../libs/PoliTeKDSP/libs/libDaisy/src/hid/audio.h ****     */
  78:../libs/PoliTeKDSP/libs/libDaisy/src/hid/audio.h ****     typedef float* InterleavingOutputBuffer;
  79:../libs/PoliTeKDSP/libs/libDaisy/src/hid/audio.h **** 
  80:../libs/PoliTeKDSP/libs/libDaisy/src/hid/audio.h ****     /** Interleaving Audio Callback 
  81:../libs/PoliTeKDSP/libs/libDaisy/src/hid/audio.h ****      * Interleaving audio callbacks in daisy must be of this type
  82:../libs/PoliTeKDSP/libs/libDaisy/src/hid/audio.h ****      */
  83:../libs/PoliTeKDSP/libs/libDaisy/src/hid/audio.h ****     typedef void (*InterleavingAudioCallback)(InterleavingInputBuffer  in,
  84:../libs/PoliTeKDSP/libs/libDaisy/src/hid/audio.h ****                                               InterleavingOutputBuffer out,
  85:../libs/PoliTeKDSP/libs/libDaisy/src/hid/audio.h ****                                               size_t                   size);
  86:../libs/PoliTeKDSP/libs/libDaisy/src/hid/audio.h **** 
  87:../libs/PoliTeKDSP/libs/libDaisy/src/hid/audio.h ****     AudioHandle() : pimpl_(nullptr) {}
  88:../libs/PoliTeKDSP/libs/libDaisy/src/hid/audio.h ****     ~AudioHandle() {}
  87              		.loc 7 88 5 is_stmt 1 view .LVU11
  88              		.loc 7 88 5 is_stmt 0 view .LVU12
  89              	.LBE469:
  90              		.loc 2 22 19 view .LVU13
  91 0000 7047     		bx	lr
  92              		.cfi_endproc
ARM GAS  C:\Users\skipi\AppData\Local\Temp\cc9eAo3V.s 			page 11


  93              	.LFE2729:
  95              		.weak	_ZN5daisy9DaisySeedD1Ev
  96              		.thumb_set _ZN5daisy9DaisySeedD1Ev,_ZN5daisy9DaisySeedD2Ev
  97 0002 00BF     		.section	.text._Z27DisplayRefreshTimerCallbackPv,"ax",%progbits
  98              		.align	1
  99              		.p2align 2,,3
 100              		.global	_Z27DisplayRefreshTimerCallbackPv
 101              		.syntax unified
 102              		.thumb
 103              		.thumb_func
 104              		.fpu fpv5-d16
 106              	_Z27DisplayRefreshTimerCallbackPv:
 107              	.LVL2:
 108              	.LFB4953:
 109              		.file 8 "main.cpp"
   1:main.cpp      **** #include "../libs/PoliTeKDSP/libs/libDaisy/src/daisy_seed.h"
   2:main.cpp      **** #include "../libs/PoliTeKDSP/libs/DaisySP/Source/daisysp.h"
   3:main.cpp      **** #include "../libs/PoliTeKDSP/libs/libDaisy/src/hid/encoder.h"
   4:main.cpp      **** #include "../libs/PoliTeKDSP/libs/libDaisy/src/util/scopedirqblocker.h"
   5:main.cpp      **** #include "Display/displayHandler.h"
   6:main.cpp      **** #include "PSP/PlantConditioner.h"
   7:main.cpp      **** #include "PSP/AudioEngine.h"
   8:main.cpp      **** 
   9:main.cpp      **** using namespace daisy;
  10:main.cpp      **** 
  11:main.cpp      **** #define DISPLAY_REFRESH_FREQ 25u // 25Hz
  12:main.cpp      **** 
  13:main.cpp      **** // Istanze hardware e software
  14:main.cpp      **** DaisySeed hw;
  15:main.cpp      **** MyOledDisplay display;
  16:main.cpp      **** DisplayHandler display_handle(&display);
  17:main.cpp      **** 
  18:main.cpp      **** PlantConditioner pc;
  19:main.cpp      **** AudioEngine synth;
  20:main.cpp      **** 
  21:main.cpp      **** TimerHandle display_timer;
  22:main.cpp      **** 
  23:main.cpp      **** ControlsStruct audio_controls = {440.0f, false};
  24:main.cpp      **** TuningStruct tuning_controls = {50.0f, 1.0f};
  25:main.cpp      **** 
  26:main.cpp      **** 
  27:main.cpp      **** 
  28:main.cpp      **** volatile bool display_refresh_due = false;
  29:main.cpp      **** 
  30:main.cpp      **** 
  31:main.cpp      **** 
  32:main.cpp      **** 
  33:main.cpp      **** void DisplayRefreshTimerCallback(void* data) {
 110              		.loc 8 33 46 is_stmt 1 view -0
 111              		.cfi_startproc
 112              		@ args = 0, pretend = 0, frame = 0
 113              		@ frame_needed = 0, uses_anonymous_args = 0
 114              		@ link register save eliminated.
  34:main.cpp      ****     (void)data;
 115              		.loc 8 34 5 view .LVU15
  35:main.cpp      ****     display_refresh_due = true;
 116              		.loc 8 35 5 view .LVU16
ARM GAS  C:\Users\skipi\AppData\Local\Temp\cc9eAo3V.s 			page 12


 117              		.loc 8 35 25 is_stmt 0 view .LVU17
 118 0000 014B     		ldr	r3, .L5
 119 0002 0122     		movs	r2, #1
 120 0004 1A70     		strb	r2, [r3]
  36:main.cpp      **** }
 121              		.loc 8 36 1 view .LVU18
 122 0006 7047     		bx	lr
 123              	.L6:
 124              		.align	2
 125              	.L5:
 126 0008 00000000 		.word	.LANCHOR0
 127              		.cfi_endproc
 128              	.LFE4953:
 130              		.section	.text._ZN5daisy11OledDisplayINS_13SSD130xDriverILj128ELj64ENS_19SSD130xI2CTransportEEEED2
 131              		.align	1
 132              		.p2align 2,,3
 133              		.weak	_ZN5daisy11OledDisplayINS_13SSD130xDriverILj128ELj64ENS_19SSD130xI2CTransportEEEED2Ev
 134              		.syntax unified
 135              		.thumb
 136              		.thumb_func
 137              		.fpu fpv5-d16
 139              	_ZN5daisy11OledDisplayINS_13SSD130xDriverILj128ELj64ENS_19SSD130xI2CTransportEEEED2Ev:
 140              	.LVL3:
 141              	.LFB5547:
 142              		.file 9 "../libs/PoliTeKDSP/libs/libDaisy/src/hid/disp/oled_display.h"
   1:../libs/PoliTeKDSP/libs/libDaisy/src/hid/disp/oled_display.h **** #pragma once
   2:../libs/PoliTeKDSP/libs/libDaisy/src/hid/disp/oled_display.h **** #ifndef DSY_OLED_DISPLAY_H
   3:../libs/PoliTeKDSP/libs/libDaisy/src/hid/disp/oled_display.h **** #define DSY_OLED_DISPLAY_H /**< Macro */
   4:../libs/PoliTeKDSP/libs/libDaisy/src/hid/disp/oled_display.h **** 
   5:../libs/PoliTeKDSP/libs/libDaisy/src/hid/disp/oled_display.h **** #include "display.h"
   6:../libs/PoliTeKDSP/libs/libDaisy/src/hid/disp/oled_display.h **** 
   7:../libs/PoliTeKDSP/libs/libDaisy/src/hid/disp/oled_display.h **** namespace daisy
   8:../libs/PoliTeKDSP/libs/libDaisy/src/hid/disp/oled_display.h **** {
   9:../libs/PoliTeKDSP/libs/libDaisy/src/hid/disp/oled_display.h **** /** 
  10:../libs/PoliTeKDSP/libs/libDaisy/src/hid/disp/oled_display.h ****  * This class is for drawing to a monochrome OLED display. 
  11:../libs/PoliTeKDSP/libs/libDaisy/src/hid/disp/oled_display.h ****  * @ingroup device
  12:../libs/PoliTeKDSP/libs/libDaisy/src/hid/disp/oled_display.h **** */
  13:../libs/PoliTeKDSP/libs/libDaisy/src/hid/disp/oled_display.h **** template <typename DisplayDriver>
  14:../libs/PoliTeKDSP/libs/libDaisy/src/hid/disp/oled_display.h **** class OledDisplay : public OneBitGraphicsDisplayImpl<OledDisplay<DisplayDriver>>
  15:../libs/PoliTeKDSP/libs/libDaisy/src/hid/disp/oled_display.h **** {
  16:../libs/PoliTeKDSP/libs/libDaisy/src/hid/disp/oled_display.h ****   public:
  17:../libs/PoliTeKDSP/libs/libDaisy/src/hid/disp/oled_display.h ****     OledDisplay() {}
  18:../libs/PoliTeKDSP/libs/libDaisy/src/hid/disp/oled_display.h ****     virtual ~OledDisplay() {}
 143              		.loc 9 18 13 is_stmt 1 view -0
 144              		.cfi_startproc
 145              		@ args = 0, pretend = 0, frame = 0
 146              		@ frame_needed = 0, uses_anonymous_args = 0
 147              		@ link register save eliminated.
 148              	.LBB470:
 149              	.LBI470:
 150              		.file 10 "../libs/PoliTeKDSP/libs/libDaisy/src/hid/disp/display.h"
   1:../libs/PoliTeKDSP/libs/libDaisy/src/hid/disp/display.h **** #pragma once
   2:../libs/PoliTeKDSP/libs/libDaisy/src/hid/disp/display.h **** #ifndef DSY_DISPLAY_H
   3:../libs/PoliTeKDSP/libs/libDaisy/src/hid/disp/display.h **** #define DSY_DISPLAY_H /**< Macro */
   4:../libs/PoliTeKDSP/libs/libDaisy/src/hid/disp/display.h **** #include <cmath>
   5:../libs/PoliTeKDSP/libs/libDaisy/src/hid/disp/display.h **** #include "util/oled_fonts.h"
   6:../libs/PoliTeKDSP/libs/libDaisy/src/hid/disp/display.h **** #include "daisy_core.h"
ARM GAS  C:\Users\skipi\AppData\Local\Temp\cc9eAo3V.s 			page 13


   7:../libs/PoliTeKDSP/libs/libDaisy/src/hid/disp/display.h **** #include "graphics_common.h"
   8:../libs/PoliTeKDSP/libs/libDaisy/src/hid/disp/display.h **** 
   9:../libs/PoliTeKDSP/libs/libDaisy/src/hid/disp/display.h **** #ifndef deg2rad
  10:../libs/PoliTeKDSP/libs/libDaisy/src/hid/disp/display.h **** #define deg2rad(deg) ((deg)*3.141592 / 180.0)
  11:../libs/PoliTeKDSP/libs/libDaisy/src/hid/disp/display.h **** #endif
  12:../libs/PoliTeKDSP/libs/libDaisy/src/hid/disp/display.h **** 
  13:../libs/PoliTeKDSP/libs/libDaisy/src/hid/disp/display.h **** namespace daisy
  14:../libs/PoliTeKDSP/libs/libDaisy/src/hid/disp/display.h **** {
  15:../libs/PoliTeKDSP/libs/libDaisy/src/hid/disp/display.h **** /** 
  16:../libs/PoliTeKDSP/libs/libDaisy/src/hid/disp/display.h ****  * This interface is used as a base class for all types of 1bit-per-pixel
  17:../libs/PoliTeKDSP/libs/libDaisy/src/hid/disp/display.h ****  * graphics displays.
  18:../libs/PoliTeKDSP/libs/libDaisy/src/hid/disp/display.h **** */
  19:../libs/PoliTeKDSP/libs/libDaisy/src/hid/disp/display.h **** class OneBitGraphicsDisplay
  20:../libs/PoliTeKDSP/libs/libDaisy/src/hid/disp/display.h **** {
  21:../libs/PoliTeKDSP/libs/libDaisy/src/hid/disp/display.h ****   public:
  22:../libs/PoliTeKDSP/libs/libDaisy/src/hid/disp/display.h ****     OneBitGraphicsDisplay() {}
  23:../libs/PoliTeKDSP/libs/libDaisy/src/hid/disp/display.h ****     virtual ~OneBitGraphicsDisplay() {}
  24:../libs/PoliTeKDSP/libs/libDaisy/src/hid/disp/display.h **** 
  25:../libs/PoliTeKDSP/libs/libDaisy/src/hid/disp/display.h ****     virtual uint16_t Height() const = 0;
  26:../libs/PoliTeKDSP/libs/libDaisy/src/hid/disp/display.h ****     virtual uint16_t Width() const  = 0;
  27:../libs/PoliTeKDSP/libs/libDaisy/src/hid/disp/display.h **** 
  28:../libs/PoliTeKDSP/libs/libDaisy/src/hid/disp/display.h ****     Rectangle GetBounds() const
  29:../libs/PoliTeKDSP/libs/libDaisy/src/hid/disp/display.h ****     {
  30:../libs/PoliTeKDSP/libs/libDaisy/src/hid/disp/display.h ****         return Rectangle(int16_t(Width()), int16_t(Height()));
  31:../libs/PoliTeKDSP/libs/libDaisy/src/hid/disp/display.h ****     }
  32:../libs/PoliTeKDSP/libs/libDaisy/src/hid/disp/display.h **** 
  33:../libs/PoliTeKDSP/libs/libDaisy/src/hid/disp/display.h **** 
  34:../libs/PoliTeKDSP/libs/libDaisy/src/hid/disp/display.h ****     size_t CurrentX() { return currentX_; };
  35:../libs/PoliTeKDSP/libs/libDaisy/src/hid/disp/display.h ****     size_t CurrentY() { return currentY_; };
  36:../libs/PoliTeKDSP/libs/libDaisy/src/hid/disp/display.h **** 
  37:../libs/PoliTeKDSP/libs/libDaisy/src/hid/disp/display.h ****     /** 
  38:../libs/PoliTeKDSP/libs/libDaisy/src/hid/disp/display.h ****     Fills the entire display with either on/off.
  39:../libs/PoliTeKDSP/libs/libDaisy/src/hid/disp/display.h ****     \param on Sets on or off.
  40:../libs/PoliTeKDSP/libs/libDaisy/src/hid/disp/display.h ****     */
  41:../libs/PoliTeKDSP/libs/libDaisy/src/hid/disp/display.h ****     virtual void Fill(bool on) = 0;
  42:../libs/PoliTeKDSP/libs/libDaisy/src/hid/disp/display.h **** 
  43:../libs/PoliTeKDSP/libs/libDaisy/src/hid/disp/display.h ****     /**
  44:../libs/PoliTeKDSP/libs/libDaisy/src/hid/disp/display.h ****     Sets the pixel at the specified coordinate to be on/off.
  45:../libs/PoliTeKDSP/libs/libDaisy/src/hid/disp/display.h ****     \param x   x Coordinate
  46:../libs/PoliTeKDSP/libs/libDaisy/src/hid/disp/display.h ****     \param y   y coordinate
  47:../libs/PoliTeKDSP/libs/libDaisy/src/hid/disp/display.h ****     \param on  on or off
  48:../libs/PoliTeKDSP/libs/libDaisy/src/hid/disp/display.h ****     */
  49:../libs/PoliTeKDSP/libs/libDaisy/src/hid/disp/display.h ****     virtual void DrawPixel(uint_fast8_t x, uint_fast8_t y, bool on) = 0;
  50:../libs/PoliTeKDSP/libs/libDaisy/src/hid/disp/display.h **** 
  51:../libs/PoliTeKDSP/libs/libDaisy/src/hid/disp/display.h ****     /**
  52:../libs/PoliTeKDSP/libs/libDaisy/src/hid/disp/display.h ****     Draws a line from (x1, y1) to (y1, y2)
  53:../libs/PoliTeKDSP/libs/libDaisy/src/hid/disp/display.h ****     \param x1  x Coordinate of the starting point
  54:../libs/PoliTeKDSP/libs/libDaisy/src/hid/disp/display.h ****     \param y1  y Coordinate of the starting point
  55:../libs/PoliTeKDSP/libs/libDaisy/src/hid/disp/display.h ****     \param x2  x Coordinate of the ending point
  56:../libs/PoliTeKDSP/libs/libDaisy/src/hid/disp/display.h ****     \param y2  y Coordinate of the ending point
  57:../libs/PoliTeKDSP/libs/libDaisy/src/hid/disp/display.h ****     \param on  on or off
  58:../libs/PoliTeKDSP/libs/libDaisy/src/hid/disp/display.h ****     */
  59:../libs/PoliTeKDSP/libs/libDaisy/src/hid/disp/display.h ****     virtual void DrawLine(uint_fast8_t x1,
  60:../libs/PoliTeKDSP/libs/libDaisy/src/hid/disp/display.h ****                           uint_fast8_t y1,
  61:../libs/PoliTeKDSP/libs/libDaisy/src/hid/disp/display.h ****                           uint_fast8_t x2,
  62:../libs/PoliTeKDSP/libs/libDaisy/src/hid/disp/display.h ****                           uint_fast8_t y2,
  63:../libs/PoliTeKDSP/libs/libDaisy/src/hid/disp/display.h ****                           bool         on)
ARM GAS  C:\Users\skipi\AppData\Local\Temp\cc9eAo3V.s 			page 14


  64:../libs/PoliTeKDSP/libs/libDaisy/src/hid/disp/display.h ****         = 0;
  65:../libs/PoliTeKDSP/libs/libDaisy/src/hid/disp/display.h **** 
  66:../libs/PoliTeKDSP/libs/libDaisy/src/hid/disp/display.h ****     /**
  67:../libs/PoliTeKDSP/libs/libDaisy/src/hid/disp/display.h ****     Draws a rectangle based on two coordinates.
  68:../libs/PoliTeKDSP/libs/libDaisy/src/hid/disp/display.h ****     \param x1 x Coordinate of the first point
  69:../libs/PoliTeKDSP/libs/libDaisy/src/hid/disp/display.h ****     \param y1 y Coordinate of the first point
  70:../libs/PoliTeKDSP/libs/libDaisy/src/hid/disp/display.h ****     \param x2 x Coordinate of the second point
  71:../libs/PoliTeKDSP/libs/libDaisy/src/hid/disp/display.h ****     \param y2 y Coordinate of the second point
  72:../libs/PoliTeKDSP/libs/libDaisy/src/hid/disp/display.h ****     \param on on or off
  73:../libs/PoliTeKDSP/libs/libDaisy/src/hid/disp/display.h ****     \param fill fill the rectangle or draw only the outline
  74:../libs/PoliTeKDSP/libs/libDaisy/src/hid/disp/display.h ****     */
  75:../libs/PoliTeKDSP/libs/libDaisy/src/hid/disp/display.h ****     virtual void DrawRect(uint_fast8_t x1,
  76:../libs/PoliTeKDSP/libs/libDaisy/src/hid/disp/display.h ****                           uint_fast8_t y1,
  77:../libs/PoliTeKDSP/libs/libDaisy/src/hid/disp/display.h ****                           uint_fast8_t x2,
  78:../libs/PoliTeKDSP/libs/libDaisy/src/hid/disp/display.h ****                           uint_fast8_t y2,
  79:../libs/PoliTeKDSP/libs/libDaisy/src/hid/disp/display.h ****                           bool         on,
  80:../libs/PoliTeKDSP/libs/libDaisy/src/hid/disp/display.h ****                           bool         fill = false)
  81:../libs/PoliTeKDSP/libs/libDaisy/src/hid/disp/display.h ****         = 0;
  82:../libs/PoliTeKDSP/libs/libDaisy/src/hid/disp/display.h **** 
  83:../libs/PoliTeKDSP/libs/libDaisy/src/hid/disp/display.h ****     /**
  84:../libs/PoliTeKDSP/libs/libDaisy/src/hid/disp/display.h ****     Draws a rectangle.
  85:../libs/PoliTeKDSP/libs/libDaisy/src/hid/disp/display.h ****     \param rect the rectangle
  86:../libs/PoliTeKDSP/libs/libDaisy/src/hid/disp/display.h ****     \param on   on or off
  87:../libs/PoliTeKDSP/libs/libDaisy/src/hid/disp/display.h ****     \param fill fill the rectangle or draw only the outline
  88:../libs/PoliTeKDSP/libs/libDaisy/src/hid/disp/display.h ****     */
  89:../libs/PoliTeKDSP/libs/libDaisy/src/hid/disp/display.h ****     void DrawRect(const Rectangle& rect, bool on, bool fill = false)
  90:../libs/PoliTeKDSP/libs/libDaisy/src/hid/disp/display.h ****     {
  91:../libs/PoliTeKDSP/libs/libDaisy/src/hid/disp/display.h ****         DrawRect(rect.GetX(),
  92:../libs/PoliTeKDSP/libs/libDaisy/src/hid/disp/display.h ****                  rect.GetY(),
  93:../libs/PoliTeKDSP/libs/libDaisy/src/hid/disp/display.h ****                  rect.GetRight(),
  94:../libs/PoliTeKDSP/libs/libDaisy/src/hid/disp/display.h ****                  rect.GetBottom(),
  95:../libs/PoliTeKDSP/libs/libDaisy/src/hid/disp/display.h ****                  on,
  96:../libs/PoliTeKDSP/libs/libDaisy/src/hid/disp/display.h ****                  fill);
  97:../libs/PoliTeKDSP/libs/libDaisy/src/hid/disp/display.h ****     }
  98:../libs/PoliTeKDSP/libs/libDaisy/src/hid/disp/display.h **** 
  99:../libs/PoliTeKDSP/libs/libDaisy/src/hid/disp/display.h ****     /**
 100:../libs/PoliTeKDSP/libs/libDaisy/src/hid/disp/display.h ****     Draws an arc around the specified coordinate
 101:../libs/PoliTeKDSP/libs/libDaisy/src/hid/disp/display.h ****     \param x           x Coordinate of the center of the arc
 102:../libs/PoliTeKDSP/libs/libDaisy/src/hid/disp/display.h ****     \param y           y Coordinate of the center of the arc
 103:../libs/PoliTeKDSP/libs/libDaisy/src/hid/disp/display.h ****     \param radius      radius of the arc
 104:../libs/PoliTeKDSP/libs/libDaisy/src/hid/disp/display.h ****     \param start_angle angle where to start the arc
 105:../libs/PoliTeKDSP/libs/libDaisy/src/hid/disp/display.h ****     \param sweep       total angle of the arc
 106:../libs/PoliTeKDSP/libs/libDaisy/src/hid/disp/display.h ****     \param on  on or off
 107:../libs/PoliTeKDSP/libs/libDaisy/src/hid/disp/display.h ****     */
 108:../libs/PoliTeKDSP/libs/libDaisy/src/hid/disp/display.h ****     virtual void DrawArc(uint_fast8_t x,
 109:../libs/PoliTeKDSP/libs/libDaisy/src/hid/disp/display.h ****                          uint_fast8_t y,
 110:../libs/PoliTeKDSP/libs/libDaisy/src/hid/disp/display.h ****                          uint_fast8_t radius,
 111:../libs/PoliTeKDSP/libs/libDaisy/src/hid/disp/display.h ****                          int_fast16_t start_angle,
 112:../libs/PoliTeKDSP/libs/libDaisy/src/hid/disp/display.h ****                          int_fast16_t sweep,
 113:../libs/PoliTeKDSP/libs/libDaisy/src/hid/disp/display.h ****                          bool         on)
 114:../libs/PoliTeKDSP/libs/libDaisy/src/hid/disp/display.h ****         = 0;
 115:../libs/PoliTeKDSP/libs/libDaisy/src/hid/disp/display.h **** 
 116:../libs/PoliTeKDSP/libs/libDaisy/src/hid/disp/display.h ****     /**
 117:../libs/PoliTeKDSP/libs/libDaisy/src/hid/disp/display.h ****     Draws a circle around the specified coordinate
 118:../libs/PoliTeKDSP/libs/libDaisy/src/hid/disp/display.h ****     \param x           x Coordinate of the center of the circle
 119:../libs/PoliTeKDSP/libs/libDaisy/src/hid/disp/display.h ****     \param y           y Coordinate of the center of the circle
 120:../libs/PoliTeKDSP/libs/libDaisy/src/hid/disp/display.h ****     \param radius      radius of the circle
ARM GAS  C:\Users\skipi\AppData\Local\Temp\cc9eAo3V.s 			page 15


 121:../libs/PoliTeKDSP/libs/libDaisy/src/hid/disp/display.h ****     \param on  on or off
 122:../libs/PoliTeKDSP/libs/libDaisy/src/hid/disp/display.h ****     */
 123:../libs/PoliTeKDSP/libs/libDaisy/src/hid/disp/display.h ****     void
 124:../libs/PoliTeKDSP/libs/libDaisy/src/hid/disp/display.h ****     DrawCircle(uint_fast8_t x, uint_fast8_t y, uint_fast8_t radius, bool on)
 125:../libs/PoliTeKDSP/libs/libDaisy/src/hid/disp/display.h ****     {
 126:../libs/PoliTeKDSP/libs/libDaisy/src/hid/disp/display.h ****         DrawArc(x, y, radius, 0, 360, on);
 127:../libs/PoliTeKDSP/libs/libDaisy/src/hid/disp/display.h ****     };
 128:../libs/PoliTeKDSP/libs/libDaisy/src/hid/disp/display.h **** 
 129:../libs/PoliTeKDSP/libs/libDaisy/src/hid/disp/display.h ****     /** 
 130:../libs/PoliTeKDSP/libs/libDaisy/src/hid/disp/display.h ****     Writes the character with the specific FontDef
 131:../libs/PoliTeKDSP/libs/libDaisy/src/hid/disp/display.h ****     to the display buffer at the current Cursor position.
 132:../libs/PoliTeKDSP/libs/libDaisy/src/hid/disp/display.h ****     \param ch character to be written
 133:../libs/PoliTeKDSP/libs/libDaisy/src/hid/disp/display.h ****     \param font font to be written in
 134:../libs/PoliTeKDSP/libs/libDaisy/src/hid/disp/display.h ****     \param on    on or off
 135:../libs/PoliTeKDSP/libs/libDaisy/src/hid/disp/display.h ****     \return &
 136:../libs/PoliTeKDSP/libs/libDaisy/src/hid/disp/display.h ****     */
 137:../libs/PoliTeKDSP/libs/libDaisy/src/hid/disp/display.h ****     virtual char WriteChar(char ch, FontDef font, bool on) = 0;
 138:../libs/PoliTeKDSP/libs/libDaisy/src/hid/disp/display.h **** 
 139:../libs/PoliTeKDSP/libs/libDaisy/src/hid/disp/display.h ****     /** 
 140:../libs/PoliTeKDSP/libs/libDaisy/src/hid/disp/display.h ****     Similar to WriteChar, except it will handle an entire String.
 141:../libs/PoliTeKDSP/libs/libDaisy/src/hid/disp/display.h ****     Wrapping does not happen automatically, so the width
 142:../libs/PoliTeKDSP/libs/libDaisy/src/hid/disp/display.h ****     of the string must be kept within the dimensions of the screen.
 143:../libs/PoliTeKDSP/libs/libDaisy/src/hid/disp/display.h ****     \param str string to be written
 144:../libs/PoliTeKDSP/libs/libDaisy/src/hid/disp/display.h ****     \param font font to use
 145:../libs/PoliTeKDSP/libs/libDaisy/src/hid/disp/display.h ****     \param on  on or off
 146:../libs/PoliTeKDSP/libs/libDaisy/src/hid/disp/display.h ****     \return &
 147:../libs/PoliTeKDSP/libs/libDaisy/src/hid/disp/display.h ****     */
 148:../libs/PoliTeKDSP/libs/libDaisy/src/hid/disp/display.h ****     virtual char WriteString(const char* str, FontDef font, bool on) = 0;
 149:../libs/PoliTeKDSP/libs/libDaisy/src/hid/disp/display.h **** 
 150:../libs/PoliTeKDSP/libs/libDaisy/src/hid/disp/display.h ****     /** 
 151:../libs/PoliTeKDSP/libs/libDaisy/src/hid/disp/display.h ****     Similar to WriteString but justified within a bounding box.
 152:../libs/PoliTeKDSP/libs/libDaisy/src/hid/disp/display.h ****     \param str          string to be written
 153:../libs/PoliTeKDSP/libs/libDaisy/src/hid/disp/display.h ****     \param font         font to use
 154:../libs/PoliTeKDSP/libs/libDaisy/src/hid/disp/display.h ****     \param boundingBox  the bounding box to draw the text in
 155:../libs/PoliTeKDSP/libs/libDaisy/src/hid/disp/display.h ****     \param alignment    the alignment to use
 156:../libs/PoliTeKDSP/libs/libDaisy/src/hid/disp/display.h ****     \param on           on or off
 157:../libs/PoliTeKDSP/libs/libDaisy/src/hid/disp/display.h ****     \return The rectangle that was drawn to
 158:../libs/PoliTeKDSP/libs/libDaisy/src/hid/disp/display.h ****     */
 159:../libs/PoliTeKDSP/libs/libDaisy/src/hid/disp/display.h ****     virtual Rectangle WriteStringAligned(const char*    str,
 160:../libs/PoliTeKDSP/libs/libDaisy/src/hid/disp/display.h ****                                          const FontDef& font,
 161:../libs/PoliTeKDSP/libs/libDaisy/src/hid/disp/display.h ****                                          Rectangle      boundingBox,
 162:../libs/PoliTeKDSP/libs/libDaisy/src/hid/disp/display.h ****                                          Alignment      alignment,
 163:../libs/PoliTeKDSP/libs/libDaisy/src/hid/disp/display.h ****                                          bool           on)
 164:../libs/PoliTeKDSP/libs/libDaisy/src/hid/disp/display.h ****         = 0;
 165:../libs/PoliTeKDSP/libs/libDaisy/src/hid/disp/display.h **** 
 166:../libs/PoliTeKDSP/libs/libDaisy/src/hid/disp/display.h ****     /** 
 167:../libs/PoliTeKDSP/libs/libDaisy/src/hid/disp/display.h ****     Moves the 'Cursor' position used for WriteChar, and WriteStr to the specified coordinate.
 168:../libs/PoliTeKDSP/libs/libDaisy/src/hid/disp/display.h ****     \param x x pos
 169:../libs/PoliTeKDSP/libs/libDaisy/src/hid/disp/display.h ****     \param y y pos
 170:../libs/PoliTeKDSP/libs/libDaisy/src/hid/disp/display.h ****     */
 171:../libs/PoliTeKDSP/libs/libDaisy/src/hid/disp/display.h ****     void SetCursor(uint16_t x, uint16_t y)
 172:../libs/PoliTeKDSP/libs/libDaisy/src/hid/disp/display.h ****     {
 173:../libs/PoliTeKDSP/libs/libDaisy/src/hid/disp/display.h ****         currentX_ = (x >= Width()) ? Width() - 1 : x;
 174:../libs/PoliTeKDSP/libs/libDaisy/src/hid/disp/display.h ****         currentY_ = (y >= Height()) ? Height() - 1 : y;
 175:../libs/PoliTeKDSP/libs/libDaisy/src/hid/disp/display.h ****     }
 176:../libs/PoliTeKDSP/libs/libDaisy/src/hid/disp/display.h **** 
 177:../libs/PoliTeKDSP/libs/libDaisy/src/hid/disp/display.h ****     /** 
ARM GAS  C:\Users\skipi\AppData\Local\Temp\cc9eAo3V.s 			page 16


 178:../libs/PoliTeKDSP/libs/libDaisy/src/hid/disp/display.h ****     Writes the current display buffer to the OLED device using SPI or I2C depending on 
 179:../libs/PoliTeKDSP/libs/libDaisy/src/hid/disp/display.h ****     how the object was initialized.
 180:../libs/PoliTeKDSP/libs/libDaisy/src/hid/disp/display.h ****     */
 181:../libs/PoliTeKDSP/libs/libDaisy/src/hid/disp/display.h ****     virtual void Update() = 0;
 182:../libs/PoliTeKDSP/libs/libDaisy/src/hid/disp/display.h **** 
 183:../libs/PoliTeKDSP/libs/libDaisy/src/hid/disp/display.h ****     /** 
 184:../libs/PoliTeKDSP/libs/libDaisy/src/hid/disp/display.h ****     Returns true if the Update has finished, used for chained DMA transfers
 185:../libs/PoliTeKDSP/libs/libDaisy/src/hid/disp/display.h ****     */
 186:../libs/PoliTeKDSP/libs/libDaisy/src/hid/disp/display.h ****     virtual bool UpdateFinished() = 0;
 187:../libs/PoliTeKDSP/libs/libDaisy/src/hid/disp/display.h **** 
 188:../libs/PoliTeKDSP/libs/libDaisy/src/hid/disp/display.h ****   protected:
 189:../libs/PoliTeKDSP/libs/libDaisy/src/hid/disp/display.h ****     uint16_t currentX_;
 190:../libs/PoliTeKDSP/libs/libDaisy/src/hid/disp/display.h ****     uint16_t currentY_;
 191:../libs/PoliTeKDSP/libs/libDaisy/src/hid/disp/display.h **** };
 192:../libs/PoliTeKDSP/libs/libDaisy/src/hid/disp/display.h **** 
 193:../libs/PoliTeKDSP/libs/libDaisy/src/hid/disp/display.h **** /** This class is intended as a intermediary class for your actual implementation of the OneBitGrap
 194:../libs/PoliTeKDSP/libs/libDaisy/src/hid/disp/display.h ****  *  interface. It uses the CRTP design pattern where the template argument is the child class. It p
 195:../libs/PoliTeKDSP/libs/libDaisy/src/hid/disp/display.h ****  *  implementations for most of the functions, except DrawPixel(), Update() and Fill(), which you'l
 196:../libs/PoliTeKDSP/libs/libDaisy/src/hid/disp/display.h ****  *  to provide in your child class.
 197:../libs/PoliTeKDSP/libs/libDaisy/src/hid/disp/display.h ****  *  The main goal of this class is to provide common drawing functions without relying on massive a
 198:../libs/PoliTeKDSP/libs/libDaisy/src/hid/disp/display.h ****  *  virtual function calls that would result in a performance loss. To achieve this, any drawing fu
 199:../libs/PoliTeKDSP/libs/libDaisy/src/hid/disp/display.h ****  *  is implemented here and internally calls other drawing functions (e.g. DrawRect() which interna
 200:../libs/PoliTeKDSP/libs/libDaisy/src/hid/disp/display.h ****  *  DrawPixel() and DrawLine()) makes these calls via the qualified name of these functions to expl
 201:../libs/PoliTeKDSP/libs/libDaisy/src/hid/disp/display.h ****  *  suppress the virtual dispatch mechanism like this:
 202:../libs/PoliTeKDSP/libs/libDaisy/src/hid/disp/display.h ****  * 
 203:../libs/PoliTeKDSP/libs/libDaisy/src/hid/disp/display.h ****  *      ChildType::DrawPixel(...); // no virtual function call; direct call into the child class fu
 204:../libs/PoliTeKDSP/libs/libDaisy/src/hid/disp/display.h ****  *  
 205:../libs/PoliTeKDSP/libs/libDaisy/src/hid/disp/display.h ****  *  To create a custom OneBitGraphicsDisplay implementation, you can 
 206:../libs/PoliTeKDSP/libs/libDaisy/src/hid/disp/display.h ****  *  A) inherit from OneBitGraphicsDisplay directly and provide all the drawing functions yourself
 207:../libs/PoliTeKDSP/libs/libDaisy/src/hid/disp/display.h ****  *  B) Inherit from OneBitGraphicsDisplayImpl and only provide DrawPixel(), Fill() and Update()
 208:../libs/PoliTeKDSP/libs/libDaisy/src/hid/disp/display.h ****  *     like this:
 209:../libs/PoliTeKDSP/libs/libDaisy/src/hid/disp/display.h ****  *  
 210:../libs/PoliTeKDSP/libs/libDaisy/src/hid/disp/display.h ****  *      class MyDisplayClass : public OneBitGraphicsDisplayImpl<MyDisplayClass> 
 211:../libs/PoliTeKDSP/libs/libDaisy/src/hid/disp/display.h ****  *      {
 212:../libs/PoliTeKDSP/libs/libDaisy/src/hid/disp/display.h ****  *      public:
 213:../libs/PoliTeKDSP/libs/libDaisy/src/hid/disp/display.h ****  *          void Fill() override { ... };
 214:../libs/PoliTeKDSP/libs/libDaisy/src/hid/disp/display.h ****  *          void DrawPixel(uint_fast8_t x, uint_fast8_t y, bool on) override { ... };
 215:../libs/PoliTeKDSP/libs/libDaisy/src/hid/disp/display.h ****  *          void Update() override { ... }
 216:../libs/PoliTeKDSP/libs/libDaisy/src/hid/disp/display.h ****  *      };
 217:../libs/PoliTeKDSP/libs/libDaisy/src/hid/disp/display.h ****  *  
 218:../libs/PoliTeKDSP/libs/libDaisy/src/hid/disp/display.h ****  */
 219:../libs/PoliTeKDSP/libs/libDaisy/src/hid/disp/display.h **** template <class ChildType>
 220:../libs/PoliTeKDSP/libs/libDaisy/src/hid/disp/display.h **** class OneBitGraphicsDisplayImpl : public OneBitGraphicsDisplay
 221:../libs/PoliTeKDSP/libs/libDaisy/src/hid/disp/display.h **** {
 222:../libs/PoliTeKDSP/libs/libDaisy/src/hid/disp/display.h ****   public:
 223:../libs/PoliTeKDSP/libs/libDaisy/src/hid/disp/display.h ****     OneBitGraphicsDisplayImpl() {}
 224:../libs/PoliTeKDSP/libs/libDaisy/src/hid/disp/display.h ****     virtual ~OneBitGraphicsDisplayImpl() {}
 151              		.loc 10 224 13 view .LVU20
 152              	.LBB471:
 153              	.LBI471:
  23:../libs/PoliTeKDSP/libs/libDaisy/src/hid/disp/display.h **** 
 154              		.loc 10 23 13 view .LVU21
  23:../libs/PoliTeKDSP/libs/libDaisy/src/hid/disp/display.h **** 
 155              		.loc 10 23 13 is_stmt 0 view .LVU22
 156              	.LBE471:
 157              	.LBE470:
 158              		.loc 9 18 29 view .LVU23
ARM GAS  C:\Users\skipi\AppData\Local\Temp\cc9eAo3V.s 			page 17


 159 0000 7047     		bx	lr
 160              		.cfi_endproc
 161              	.LFE5547:
 163              		.weak	_ZN5daisy11OledDisplayINS_13SSD130xDriverILj128ELj64ENS_19SSD130xI2CTransportEEEED1Ev
 164              		.thumb_set _ZN5daisy11OledDisplayINS_13SSD130xDriverILj128ELj64ENS_19SSD130xI2CTransportEEEED1Ev,_
 165 0002 00BF     		.section	.text._ZNK5daisy11OledDisplayINS_13SSD130xDriverILj128ELj64ENS_19SSD130xI2CTransportEEEE6
 166              		.align	1
 167              		.p2align 2,,3
 168              		.weak	_ZNK5daisy11OledDisplayINS_13SSD130xDriverILj128ELj64ENS_19SSD130xI2CTransportEEEE6HeightEv
 169              		.syntax unified
 170              		.thumb
 171              		.thumb_func
 172              		.fpu fpv5-d16
 174              	_ZNK5daisy11OledDisplayINS_13SSD130xDriverILj128ELj64ENS_19SSD130xI2CTransportEEEE6HeightEv:
 175              	.LVL4:
 176              	.LFB5550:
  19:../libs/PoliTeKDSP/libs/libDaisy/src/hid/disp/oled_display.h **** 
  20:../libs/PoliTeKDSP/libs/libDaisy/src/hid/disp/oled_display.h ****     struct Config
  21:../libs/PoliTeKDSP/libs/libDaisy/src/hid/disp/oled_display.h ****     {
  22:../libs/PoliTeKDSP/libs/libDaisy/src/hid/disp/oled_display.h ****         typename DisplayDriver::Config driver_config;
  23:../libs/PoliTeKDSP/libs/libDaisy/src/hid/disp/oled_display.h ****     };
  24:../libs/PoliTeKDSP/libs/libDaisy/src/hid/disp/oled_display.h **** 
  25:../libs/PoliTeKDSP/libs/libDaisy/src/hid/disp/oled_display.h ****     void Init(Config config) { driver_.Init(config.driver_config); }
  26:../libs/PoliTeKDSP/libs/libDaisy/src/hid/disp/oled_display.h **** 
  27:../libs/PoliTeKDSP/libs/libDaisy/src/hid/disp/oled_display.h ****     uint16_t Height() const override { return driver_.Height(); }
 177              		.loc 9 27 14 is_stmt 1 view -0
 178              		.cfi_startproc
 179              		@ args = 0, pretend = 0, frame = 0
 180              		@ frame_needed = 0, uses_anonymous_args = 0
 181              		@ link register save eliminated.
 182              		.loc 9 27 65 is_stmt 0 view .LVU25
 183 0000 4020     		movs	r0, #64
 184              	.LVL5:
 185              		.loc 9 27 65 view .LVU26
 186 0002 7047     		bx	lr
 187              		.cfi_endproc
 188              	.LFE5550:
 190              		.section	.text._ZNK5daisy11OledDisplayINS_13SSD130xDriverILj128ELj64ENS_19SSD130xI2CTransportEEEE5
 191              		.align	1
 192              		.p2align 2,,3
 193              		.weak	_ZNK5daisy11OledDisplayINS_13SSD130xDriverILj128ELj64ENS_19SSD130xI2CTransportEEEE5WidthEv
 194              		.syntax unified
 195              		.thumb
 196              		.thumb_func
 197              		.fpu fpv5-d16
 199              	_ZNK5daisy11OledDisplayINS_13SSD130xDriverILj128ELj64ENS_19SSD130xI2CTransportEEEE5WidthEv:
 200              	.LVL6:
 201              	.LFB5551:
  28:../libs/PoliTeKDSP/libs/libDaisy/src/hid/disp/oled_display.h ****     uint16_t Width() const override { return driver_.Width(); }
 202              		.loc 9 28 14 is_stmt 1 view -0
 203              		.cfi_startproc
 204              		@ args = 0, pretend = 0, frame = 0
 205              		@ frame_needed = 0, uses_anonymous_args = 0
 206              		@ link register save eliminated.
 207              		.loc 9 28 63 is_stmt 0 view .LVU28
 208 0000 8020     		movs	r0, #128
 209              	.LVL7:
ARM GAS  C:\Users\skipi\AppData\Local\Temp\cc9eAo3V.s 			page 18


 210              		.loc 9 28 63 view .LVU29
 211 0002 7047     		bx	lr
 212              		.cfi_endproc
 213              	.LFE5551:
 215              		.section	.text._ZN5daisy11OledDisplayINS_13SSD130xDriverILj128ELj64ENS_19SSD130xI2CTransportEEEE4F
 216              		.align	1
 217              		.p2align 2,,3
 218              		.weak	_ZN5daisy11OledDisplayINS_13SSD130xDriverILj128ELj64ENS_19SSD130xI2CTransportEEEE4FillEb
 219              		.syntax unified
 220              		.thumb
 221              		.thumb_func
 222              		.fpu fpv5-d16
 224              	_ZN5daisy11OledDisplayINS_13SSD130xDriverILj128ELj64ENS_19SSD130xI2CTransportEEEE4FillEb:
 225              	.LVL8:
 226              	.LFB5552:
  29:../libs/PoliTeKDSP/libs/libDaisy/src/hid/disp/oled_display.h **** 
  30:../libs/PoliTeKDSP/libs/libDaisy/src/hid/disp/oled_display.h ****     /** 
  31:../libs/PoliTeKDSP/libs/libDaisy/src/hid/disp/oled_display.h ****     Fills the entire display with either on/off.
  32:../libs/PoliTeKDSP/libs/libDaisy/src/hid/disp/oled_display.h ****     \param on Sets on or off.
  33:../libs/PoliTeKDSP/libs/libDaisy/src/hid/disp/oled_display.h ****     */
  34:../libs/PoliTeKDSP/libs/libDaisy/src/hid/disp/oled_display.h ****     void Fill(bool on) override { driver_.Fill(on); }
 227              		.loc 9 34 10 is_stmt 1 view -0
 228              		.cfi_startproc
 229              		@ args = 0, pretend = 0, frame = 0
 230              		@ frame_needed = 0, uses_anonymous_args = 0
 231              		@ link register save eliminated.
 232              	.LBB472:
 233              	.LBI472:
 234              		.file 11 "Display/../../libs/PoliTeKDSP/libs/libDaisy/src/dev/oled_ssd130x.h"
   1:Display/../../libs/PoliTeKDSP/libs/libDaisy/src/dev/oled_ssd130x.h **** #pragma once
   2:Display/../../libs/PoliTeKDSP/libs/libDaisy/src/dev/oled_ssd130x.h **** #ifndef SA_OLED_SSD130X_H
   3:Display/../../libs/PoliTeKDSP/libs/libDaisy/src/dev/oled_ssd130x.h **** #define SA_OLED_SSD130X_H /**< & */
   4:Display/../../libs/PoliTeKDSP/libs/libDaisy/src/dev/oled_ssd130x.h **** 
   5:Display/../../libs/PoliTeKDSP/libs/libDaisy/src/dev/oled_ssd130x.h **** #include "per/i2c.h"
   6:Display/../../libs/PoliTeKDSP/libs/libDaisy/src/dev/oled_ssd130x.h **** #include "per/spi.h"
   7:Display/../../libs/PoliTeKDSP/libs/libDaisy/src/dev/oled_ssd130x.h **** #include "per/gpio.h"
   8:Display/../../libs/PoliTeKDSP/libs/libDaisy/src/dev/oled_ssd130x.h **** #include "sys/system.h"
   9:Display/../../libs/PoliTeKDSP/libs/libDaisy/src/dev/oled_ssd130x.h **** #include "stm32h7xx_hal.h"
  10:Display/../../libs/PoliTeKDSP/libs/libDaisy/src/dev/oled_ssd130x.h **** 
  11:Display/../../libs/PoliTeKDSP/libs/libDaisy/src/dev/oled_ssd130x.h **** namespace daisy
  12:Display/../../libs/PoliTeKDSP/libs/libDaisy/src/dev/oled_ssd130x.h **** {
  13:Display/../../libs/PoliTeKDSP/libs/libDaisy/src/dev/oled_ssd130x.h **** /**
  14:Display/../../libs/PoliTeKDSP/libs/libDaisy/src/dev/oled_ssd130x.h ****  * I2C Transport for SSD1306 / SSD1309 OLED display devices
  15:Display/../../libs/PoliTeKDSP/libs/libDaisy/src/dev/oled_ssd130x.h ****  */
  16:Display/../../libs/PoliTeKDSP/libs/libDaisy/src/dev/oled_ssd130x.h **** class SSD130xI2CTransport
  17:Display/../../libs/PoliTeKDSP/libs/libDaisy/src/dev/oled_ssd130x.h **** {
  18:Display/../../libs/PoliTeKDSP/libs/libDaisy/src/dev/oled_ssd130x.h ****   public:
  19:Display/../../libs/PoliTeKDSP/libs/libDaisy/src/dev/oled_ssd130x.h ****     struct Config
  20:Display/../../libs/PoliTeKDSP/libs/libDaisy/src/dev/oled_ssd130x.h ****     {
  21:Display/../../libs/PoliTeKDSP/libs/libDaisy/src/dev/oled_ssd130x.h ****         Config()
  22:Display/../../libs/PoliTeKDSP/libs/libDaisy/src/dev/oled_ssd130x.h ****         {
  23:Display/../../libs/PoliTeKDSP/libs/libDaisy/src/dev/oled_ssd130x.h ****             // Intialize using defaults
  24:Display/../../libs/PoliTeKDSP/libs/libDaisy/src/dev/oled_ssd130x.h ****             Defaults();
  25:Display/../../libs/PoliTeKDSP/libs/libDaisy/src/dev/oled_ssd130x.h ****         }
  26:Display/../../libs/PoliTeKDSP/libs/libDaisy/src/dev/oled_ssd130x.h ****         I2CHandle::Config i2c_config;
  27:Display/../../libs/PoliTeKDSP/libs/libDaisy/src/dev/oled_ssd130x.h ****         uint8_t           i2c_address;
  28:Display/../../libs/PoliTeKDSP/libs/libDaisy/src/dev/oled_ssd130x.h ****         void              Defaults()
ARM GAS  C:\Users\skipi\AppData\Local\Temp\cc9eAo3V.s 			page 19


  29:Display/../../libs/PoliTeKDSP/libs/libDaisy/src/dev/oled_ssd130x.h ****         {
  30:Display/../../libs/PoliTeKDSP/libs/libDaisy/src/dev/oled_ssd130x.h ****             i2c_config.periph         = I2CHandle::Config::Peripheral::I2C_1;
  31:Display/../../libs/PoliTeKDSP/libs/libDaisy/src/dev/oled_ssd130x.h ****             i2c_config.speed          = I2CHandle::Config::Speed::I2C_1MHZ;
  32:Display/../../libs/PoliTeKDSP/libs/libDaisy/src/dev/oled_ssd130x.h ****             i2c_config.mode           = I2CHandle::Config::Mode::I2C_MASTER;
  33:Display/../../libs/PoliTeKDSP/libs/libDaisy/src/dev/oled_ssd130x.h ****             i2c_config.pin_config.scl = Pin(PORTB, 8);
  34:Display/../../libs/PoliTeKDSP/libs/libDaisy/src/dev/oled_ssd130x.h ****             i2c_config.pin_config.sda = Pin(PORTB, 9);
  35:Display/../../libs/PoliTeKDSP/libs/libDaisy/src/dev/oled_ssd130x.h ****             i2c_address               = 0x3C;
  36:Display/../../libs/PoliTeKDSP/libs/libDaisy/src/dev/oled_ssd130x.h ****         }
  37:Display/../../libs/PoliTeKDSP/libs/libDaisy/src/dev/oled_ssd130x.h ****     };
  38:Display/../../libs/PoliTeKDSP/libs/libDaisy/src/dev/oled_ssd130x.h ****     void Init(const Config& config)
  39:Display/../../libs/PoliTeKDSP/libs/libDaisy/src/dev/oled_ssd130x.h ****     {
  40:Display/../../libs/PoliTeKDSP/libs/libDaisy/src/dev/oled_ssd130x.h ****         i2c_address_ = config.i2c_address;
  41:Display/../../libs/PoliTeKDSP/libs/libDaisy/src/dev/oled_ssd130x.h ****         i2c_.Init(config.i2c_config);
  42:Display/../../libs/PoliTeKDSP/libs/libDaisy/src/dev/oled_ssd130x.h ****     };
  43:Display/../../libs/PoliTeKDSP/libs/libDaisy/src/dev/oled_ssd130x.h ****     void SendCommand(uint8_t cmd)
  44:Display/../../libs/PoliTeKDSP/libs/libDaisy/src/dev/oled_ssd130x.h ****     {
  45:Display/../../libs/PoliTeKDSP/libs/libDaisy/src/dev/oled_ssd130x.h ****         uint8_t buf[2] = {0X00, cmd};
  46:Display/../../libs/PoliTeKDSP/libs/libDaisy/src/dev/oled_ssd130x.h ****         i2c_.TransmitBlocking(i2c_address_, buf, 2, 1000);
  47:Display/../../libs/PoliTeKDSP/libs/libDaisy/src/dev/oled_ssd130x.h ****     };
  48:Display/../../libs/PoliTeKDSP/libs/libDaisy/src/dev/oled_ssd130x.h **** 
  49:Display/../../libs/PoliTeKDSP/libs/libDaisy/src/dev/oled_ssd130x.h ****     void SendData(uint8_t* buff, size_t size)
  50:Display/../../libs/PoliTeKDSP/libs/libDaisy/src/dev/oled_ssd130x.h ****     {
  51:Display/../../libs/PoliTeKDSP/libs/libDaisy/src/dev/oled_ssd130x.h ****         for(size_t i = 0; i < size; i++)
  52:Display/../../libs/PoliTeKDSP/libs/libDaisy/src/dev/oled_ssd130x.h ****         {
  53:Display/../../libs/PoliTeKDSP/libs/libDaisy/src/dev/oled_ssd130x.h ****             uint8_t buf[2] = {0X40, buff[i]};
  54:Display/../../libs/PoliTeKDSP/libs/libDaisy/src/dev/oled_ssd130x.h ****             i2c_.TransmitBlocking(i2c_address_, buf, 2, 1000);
  55:Display/../../libs/PoliTeKDSP/libs/libDaisy/src/dev/oled_ssd130x.h ****         }
  56:Display/../../libs/PoliTeKDSP/libs/libDaisy/src/dev/oled_ssd130x.h ****     };
  57:Display/../../libs/PoliTeKDSP/libs/libDaisy/src/dev/oled_ssd130x.h **** 
  58:Display/../../libs/PoliTeKDSP/libs/libDaisy/src/dev/oled_ssd130x.h ****   private:
  59:Display/../../libs/PoliTeKDSP/libs/libDaisy/src/dev/oled_ssd130x.h ****     daisy::I2CHandle i2c_;
  60:Display/../../libs/PoliTeKDSP/libs/libDaisy/src/dev/oled_ssd130x.h ****     uint8_t          i2c_address_;
  61:Display/../../libs/PoliTeKDSP/libs/libDaisy/src/dev/oled_ssd130x.h **** };
  62:Display/../../libs/PoliTeKDSP/libs/libDaisy/src/dev/oled_ssd130x.h **** 
  63:Display/../../libs/PoliTeKDSP/libs/libDaisy/src/dev/oled_ssd130x.h **** /**
  64:Display/../../libs/PoliTeKDSP/libs/libDaisy/src/dev/oled_ssd130x.h ****  * 4 Wire SPI Transport for SSD1306 / SSD1309 OLED display devices
  65:Display/../../libs/PoliTeKDSP/libs/libDaisy/src/dev/oled_ssd130x.h ****  */
  66:Display/../../libs/PoliTeKDSP/libs/libDaisy/src/dev/oled_ssd130x.h **** class SSD130x4WireSpiTransport
  67:Display/../../libs/PoliTeKDSP/libs/libDaisy/src/dev/oled_ssd130x.h **** {
  68:Display/../../libs/PoliTeKDSP/libs/libDaisy/src/dev/oled_ssd130x.h ****   public:
  69:Display/../../libs/PoliTeKDSP/libs/libDaisy/src/dev/oled_ssd130x.h ****     struct Config
  70:Display/../../libs/PoliTeKDSP/libs/libDaisy/src/dev/oled_ssd130x.h ****     {
  71:Display/../../libs/PoliTeKDSP/libs/libDaisy/src/dev/oled_ssd130x.h ****         Config()
  72:Display/../../libs/PoliTeKDSP/libs/libDaisy/src/dev/oled_ssd130x.h ****         {
  73:Display/../../libs/PoliTeKDSP/libs/libDaisy/src/dev/oled_ssd130x.h ****             // Initialize using defaults
  74:Display/../../libs/PoliTeKDSP/libs/libDaisy/src/dev/oled_ssd130x.h ****             Defaults();
  75:Display/../../libs/PoliTeKDSP/libs/libDaisy/src/dev/oled_ssd130x.h ****         }
  76:Display/../../libs/PoliTeKDSP/libs/libDaisy/src/dev/oled_ssd130x.h ****         SpiHandle::Config spi_config;
  77:Display/../../libs/PoliTeKDSP/libs/libDaisy/src/dev/oled_ssd130x.h ****         struct
  78:Display/../../libs/PoliTeKDSP/libs/libDaisy/src/dev/oled_ssd130x.h ****         {
  79:Display/../../libs/PoliTeKDSP/libs/libDaisy/src/dev/oled_ssd130x.h ****             Pin dc;    /**< & */
  80:Display/../../libs/PoliTeKDSP/libs/libDaisy/src/dev/oled_ssd130x.h ****             Pin reset; /**< & */
  81:Display/../../libs/PoliTeKDSP/libs/libDaisy/src/dev/oled_ssd130x.h ****         } pin_config;
  82:Display/../../libs/PoliTeKDSP/libs/libDaisy/src/dev/oled_ssd130x.h ****         bool useDma;
  83:Display/../../libs/PoliTeKDSP/libs/libDaisy/src/dev/oled_ssd130x.h ****         void Defaults()
  84:Display/../../libs/PoliTeKDSP/libs/libDaisy/src/dev/oled_ssd130x.h ****         {
  85:Display/../../libs/PoliTeKDSP/libs/libDaisy/src/dev/oled_ssd130x.h ****             // SPI peripheral config
ARM GAS  C:\Users\skipi\AppData\Local\Temp\cc9eAo3V.s 			page 20


  86:Display/../../libs/PoliTeKDSP/libs/libDaisy/src/dev/oled_ssd130x.h ****             spi_config.periph = SpiHandle::Config::Peripheral::SPI_1;
  87:Display/../../libs/PoliTeKDSP/libs/libDaisy/src/dev/oled_ssd130x.h ****             spi_config.mode   = SpiHandle::Config::Mode::MASTER;
  88:Display/../../libs/PoliTeKDSP/libs/libDaisy/src/dev/oled_ssd130x.h ****             spi_config.direction
  89:Display/../../libs/PoliTeKDSP/libs/libDaisy/src/dev/oled_ssd130x.h ****                 = SpiHandle::Config::Direction::TWO_LINES_TX_ONLY;
  90:Display/../../libs/PoliTeKDSP/libs/libDaisy/src/dev/oled_ssd130x.h ****             spi_config.datasize       = 8;
  91:Display/../../libs/PoliTeKDSP/libs/libDaisy/src/dev/oled_ssd130x.h ****             spi_config.clock_polarity = SpiHandle::Config::ClockPolarity::LOW;
  92:Display/../../libs/PoliTeKDSP/libs/libDaisy/src/dev/oled_ssd130x.h ****             spi_config.clock_phase    = SpiHandle::Config::ClockPhase::ONE_EDGE;
  93:Display/../../libs/PoliTeKDSP/libs/libDaisy/src/dev/oled_ssd130x.h ****             spi_config.nss            = SpiHandle::Config::NSS::HARD_OUTPUT;
  94:Display/../../libs/PoliTeKDSP/libs/libDaisy/src/dev/oled_ssd130x.h ****             spi_config.baud_prescaler = SpiHandle::Config::BaudPrescaler::PS_8;
  95:Display/../../libs/PoliTeKDSP/libs/libDaisy/src/dev/oled_ssd130x.h ****             // SPI pin config
  96:Display/../../libs/PoliTeKDSP/libs/libDaisy/src/dev/oled_ssd130x.h ****             spi_config.pin_config.sclk = Pin(PORTG, 11);
  97:Display/../../libs/PoliTeKDSP/libs/libDaisy/src/dev/oled_ssd130x.h ****             spi_config.pin_config.miso = Pin(PORTX, 0);
  98:Display/../../libs/PoliTeKDSP/libs/libDaisy/src/dev/oled_ssd130x.h ****             spi_config.pin_config.mosi = Pin(PORTB, 5);
  99:Display/../../libs/PoliTeKDSP/libs/libDaisy/src/dev/oled_ssd130x.h ****             spi_config.pin_config.nss  = Pin(PORTG, 10);
 100:Display/../../libs/PoliTeKDSP/libs/libDaisy/src/dev/oled_ssd130x.h ****             // SSD130x control pin config
 101:Display/../../libs/PoliTeKDSP/libs/libDaisy/src/dev/oled_ssd130x.h ****             pin_config.dc    = Pin(PORTB, 4);
 102:Display/../../libs/PoliTeKDSP/libs/libDaisy/src/dev/oled_ssd130x.h ****             pin_config.reset = Pin(PORTB, 15);
 103:Display/../../libs/PoliTeKDSP/libs/libDaisy/src/dev/oled_ssd130x.h ****             // Using DMA off by default
 104:Display/../../libs/PoliTeKDSP/libs/libDaisy/src/dev/oled_ssd130x.h ****             useDma = false;
 105:Display/../../libs/PoliTeKDSP/libs/libDaisy/src/dev/oled_ssd130x.h ****         }
 106:Display/../../libs/PoliTeKDSP/libs/libDaisy/src/dev/oled_ssd130x.h ****     };
 107:Display/../../libs/PoliTeKDSP/libs/libDaisy/src/dev/oled_ssd130x.h ****     void Init(const Config& config)
 108:Display/../../libs/PoliTeKDSP/libs/libDaisy/src/dev/oled_ssd130x.h ****     {
 109:Display/../../libs/PoliTeKDSP/libs/libDaisy/src/dev/oled_ssd130x.h ****         // Initialize both GPIO
 110:Display/../../libs/PoliTeKDSP/libs/libDaisy/src/dev/oled_ssd130x.h ****         pin_dc_.Init(config.pin_config.dc, GPIO::Mode::OUTPUT);
 111:Display/../../libs/PoliTeKDSP/libs/libDaisy/src/dev/oled_ssd130x.h ****         pin_reset_.Init(config.pin_config.reset, GPIO::Mode::OUTPUT);
 112:Display/../../libs/PoliTeKDSP/libs/libDaisy/src/dev/oled_ssd130x.h **** 
 113:Display/../../libs/PoliTeKDSP/libs/libDaisy/src/dev/oled_ssd130x.h ****         // Initialize SPI
 114:Display/../../libs/PoliTeKDSP/libs/libDaisy/src/dev/oled_ssd130x.h ****         spi_.Init(config.spi_config);
 115:Display/../../libs/PoliTeKDSP/libs/libDaisy/src/dev/oled_ssd130x.h **** 
 116:Display/../../libs/PoliTeKDSP/libs/libDaisy/src/dev/oled_ssd130x.h ****         // Reset and Configure OLED.
 117:Display/../../libs/PoliTeKDSP/libs/libDaisy/src/dev/oled_ssd130x.h ****         pin_reset_.Write(0);
 118:Display/../../libs/PoliTeKDSP/libs/libDaisy/src/dev/oled_ssd130x.h ****         System::Delay(10);
 119:Display/../../libs/PoliTeKDSP/libs/libDaisy/src/dev/oled_ssd130x.h ****         pin_reset_.Write(1);
 120:Display/../../libs/PoliTeKDSP/libs/libDaisy/src/dev/oled_ssd130x.h ****         System::Delay(10);
 121:Display/../../libs/PoliTeKDSP/libs/libDaisy/src/dev/oled_ssd130x.h ****     };
 122:Display/../../libs/PoliTeKDSP/libs/libDaisy/src/dev/oled_ssd130x.h **** 
 123:Display/../../libs/PoliTeKDSP/libs/libDaisy/src/dev/oled_ssd130x.h ****     void SendCommand(uint8_t cmd)
 124:Display/../../libs/PoliTeKDSP/libs/libDaisy/src/dev/oled_ssd130x.h ****     {
 125:Display/../../libs/PoliTeKDSP/libs/libDaisy/src/dev/oled_ssd130x.h ****         pin_dc_.Write(0);
 126:Display/../../libs/PoliTeKDSP/libs/libDaisy/src/dev/oled_ssd130x.h ****         spi_.BlockingTransmit(&cmd, 1);
 127:Display/../../libs/PoliTeKDSP/libs/libDaisy/src/dev/oled_ssd130x.h ****     };
 128:Display/../../libs/PoliTeKDSP/libs/libDaisy/src/dev/oled_ssd130x.h **** 
 129:Display/../../libs/PoliTeKDSP/libs/libDaisy/src/dev/oled_ssd130x.h ****     void SendCommands(uint8_t* buff, size_t size)
 130:Display/../../libs/PoliTeKDSP/libs/libDaisy/src/dev/oled_ssd130x.h ****     {
 131:Display/../../libs/PoliTeKDSP/libs/libDaisy/src/dev/oled_ssd130x.h ****         pin_dc_.Write(0);
 132:Display/../../libs/PoliTeKDSP/libs/libDaisy/src/dev/oled_ssd130x.h ****         spi_.BlockingTransmit(buff, size);
 133:Display/../../libs/PoliTeKDSP/libs/libDaisy/src/dev/oled_ssd130x.h ****     };
 134:Display/../../libs/PoliTeKDSP/libs/libDaisy/src/dev/oled_ssd130x.h **** 
 135:Display/../../libs/PoliTeKDSP/libs/libDaisy/src/dev/oled_ssd130x.h ****     void SendData(uint8_t* buff, size_t size)
 136:Display/../../libs/PoliTeKDSP/libs/libDaisy/src/dev/oled_ssd130x.h ****     {
 137:Display/../../libs/PoliTeKDSP/libs/libDaisy/src/dev/oled_ssd130x.h ****         pin_dc_.Write(1);
 138:Display/../../libs/PoliTeKDSP/libs/libDaisy/src/dev/oled_ssd130x.h ****         spi_.BlockingTransmit(buff, size);
 139:Display/../../libs/PoliTeKDSP/libs/libDaisy/src/dev/oled_ssd130x.h ****     };
 140:Display/../../libs/PoliTeKDSP/libs/libDaisy/src/dev/oled_ssd130x.h **** 
 141:Display/../../libs/PoliTeKDSP/libs/libDaisy/src/dev/oled_ssd130x.h ****     void SendDataDma(uint8_t*                          buff,
 142:Display/../../libs/PoliTeKDSP/libs/libDaisy/src/dev/oled_ssd130x.h ****                      size_t                            size,
ARM GAS  C:\Users\skipi\AppData\Local\Temp\cc9eAo3V.s 			page 21


 143:Display/../../libs/PoliTeKDSP/libs/libDaisy/src/dev/oled_ssd130x.h ****                      SpiHandle::EndCallbackFunctionPtr end_callback,
 144:Display/../../libs/PoliTeKDSP/libs/libDaisy/src/dev/oled_ssd130x.h ****                      void*                             context)
 145:Display/../../libs/PoliTeKDSP/libs/libDaisy/src/dev/oled_ssd130x.h ****     {
 146:Display/../../libs/PoliTeKDSP/libs/libDaisy/src/dev/oled_ssd130x.h ****         SCB_CleanInvalidateDCache_by_Addr(buff, size);
 147:Display/../../libs/PoliTeKDSP/libs/libDaisy/src/dev/oled_ssd130x.h ****         pin_dc_.Write(1);
 148:Display/../../libs/PoliTeKDSP/libs/libDaisy/src/dev/oled_ssd130x.h ****         spi_.DmaTransmit(buff, size, NULL, end_callback, context);
 149:Display/../../libs/PoliTeKDSP/libs/libDaisy/src/dev/oled_ssd130x.h ****     };
 150:Display/../../libs/PoliTeKDSP/libs/libDaisy/src/dev/oled_ssd130x.h **** 
 151:Display/../../libs/PoliTeKDSP/libs/libDaisy/src/dev/oled_ssd130x.h ****   private:
 152:Display/../../libs/PoliTeKDSP/libs/libDaisy/src/dev/oled_ssd130x.h ****     SpiHandle spi_;
 153:Display/../../libs/PoliTeKDSP/libs/libDaisy/src/dev/oled_ssd130x.h ****     GPIO      pin_reset_;
 154:Display/../../libs/PoliTeKDSP/libs/libDaisy/src/dev/oled_ssd130x.h ****     GPIO      pin_dc_;
 155:Display/../../libs/PoliTeKDSP/libs/libDaisy/src/dev/oled_ssd130x.h **** };
 156:Display/../../libs/PoliTeKDSP/libs/libDaisy/src/dev/oled_ssd130x.h **** 
 157:Display/../../libs/PoliTeKDSP/libs/libDaisy/src/dev/oled_ssd130x.h **** /**
 158:Display/../../libs/PoliTeKDSP/libs/libDaisy/src/dev/oled_ssd130x.h ****  * Soft SPI Transport for SSD1306 / SSD1309 OLED display devices
 159:Display/../../libs/PoliTeKDSP/libs/libDaisy/src/dev/oled_ssd130x.h ****  */
 160:Display/../../libs/PoliTeKDSP/libs/libDaisy/src/dev/oled_ssd130x.h **** class SSD130x4WireSoftSpiTransport
 161:Display/../../libs/PoliTeKDSP/libs/libDaisy/src/dev/oled_ssd130x.h **** {
 162:Display/../../libs/PoliTeKDSP/libs/libDaisy/src/dev/oled_ssd130x.h ****   public:
 163:Display/../../libs/PoliTeKDSP/libs/libDaisy/src/dev/oled_ssd130x.h ****     struct Config
 164:Display/../../libs/PoliTeKDSP/libs/libDaisy/src/dev/oled_ssd130x.h ****     {
 165:Display/../../libs/PoliTeKDSP/libs/libDaisy/src/dev/oled_ssd130x.h ****         Config()
 166:Display/../../libs/PoliTeKDSP/libs/libDaisy/src/dev/oled_ssd130x.h ****         {
 167:Display/../../libs/PoliTeKDSP/libs/libDaisy/src/dev/oled_ssd130x.h ****             // Initialize using defaults
 168:Display/../../libs/PoliTeKDSP/libs/libDaisy/src/dev/oled_ssd130x.h ****             Defaults();
 169:Display/../../libs/PoliTeKDSP/libs/libDaisy/src/dev/oled_ssd130x.h ****         }
 170:Display/../../libs/PoliTeKDSP/libs/libDaisy/src/dev/oled_ssd130x.h ****         struct
 171:Display/../../libs/PoliTeKDSP/libs/libDaisy/src/dev/oled_ssd130x.h ****         {
 172:Display/../../libs/PoliTeKDSP/libs/libDaisy/src/dev/oled_ssd130x.h ****             uint32_t sclk_delay;
 173:Display/../../libs/PoliTeKDSP/libs/libDaisy/src/dev/oled_ssd130x.h ****             Pin      sclk;
 174:Display/../../libs/PoliTeKDSP/libs/libDaisy/src/dev/oled_ssd130x.h ****             Pin      mosi;
 175:Display/../../libs/PoliTeKDSP/libs/libDaisy/src/dev/oled_ssd130x.h ****             Pin      dc;
 176:Display/../../libs/PoliTeKDSP/libs/libDaisy/src/dev/oled_ssd130x.h ****             Pin      reset;
 177:Display/../../libs/PoliTeKDSP/libs/libDaisy/src/dev/oled_ssd130x.h ****         } pin_config;
 178:Display/../../libs/PoliTeKDSP/libs/libDaisy/src/dev/oled_ssd130x.h ****         void Defaults()
 179:Display/../../libs/PoliTeKDSP/libs/libDaisy/src/dev/oled_ssd130x.h ****         {
 180:Display/../../libs/PoliTeKDSP/libs/libDaisy/src/dev/oled_ssd130x.h ****             pin_config.sclk_delay = 0; // fast as possible?!
 181:Display/../../libs/PoliTeKDSP/libs/libDaisy/src/dev/oled_ssd130x.h ****             // SPI peripheral config
 182:Display/../../libs/PoliTeKDSP/libs/libDaisy/src/dev/oled_ssd130x.h ****             pin_config.sclk = Pin(PORTD, 3); /**< D10 - SPI2 SCK  */
 183:Display/../../libs/PoliTeKDSP/libs/libDaisy/src/dev/oled_ssd130x.h ****             pin_config.mosi = Pin(PORTC, 3); /**< D9  - SPI2 MOSI */
 184:Display/../../libs/PoliTeKDSP/libs/libDaisy/src/dev/oled_ssd130x.h ****             // SSD130x control pin config
 185:Display/../../libs/PoliTeKDSP/libs/libDaisy/src/dev/oled_ssd130x.h ****             pin_config.dc    = Pin(PORTC, 11); //D2
 186:Display/../../libs/PoliTeKDSP/libs/libDaisy/src/dev/oled_ssd130x.h ****             pin_config.reset = Pin(PORTC, 10); //D3
 187:Display/../../libs/PoliTeKDSP/libs/libDaisy/src/dev/oled_ssd130x.h ****         }
 188:Display/../../libs/PoliTeKDSP/libs/libDaisy/src/dev/oled_ssd130x.h ****     };
 189:Display/../../libs/PoliTeKDSP/libs/libDaisy/src/dev/oled_ssd130x.h ****     void Init(const Config& config)
 190:Display/../../libs/PoliTeKDSP/libs/libDaisy/src/dev/oled_ssd130x.h ****     {
 191:Display/../../libs/PoliTeKDSP/libs/libDaisy/src/dev/oled_ssd130x.h ****         // Initialize both GPIO
 192:Display/../../libs/PoliTeKDSP/libs/libDaisy/src/dev/oled_ssd130x.h ****         pin_sclk_.Init(config.pin_config.sclk, GPIO::Mode::OUTPUT);
 193:Display/../../libs/PoliTeKDSP/libs/libDaisy/src/dev/oled_ssd130x.h ****         pin_sclk_.Write(1); //ClockPolarity::LOW
 194:Display/../../libs/PoliTeKDSP/libs/libDaisy/src/dev/oled_ssd130x.h ****         clk_delay = config.pin_config.sclk_delay;
 195:Display/../../libs/PoliTeKDSP/libs/libDaisy/src/dev/oled_ssd130x.h ****         pin_mosi_.Init(config.pin_config.mosi, GPIO::Mode::OUTPUT);
 196:Display/../../libs/PoliTeKDSP/libs/libDaisy/src/dev/oled_ssd130x.h ****         pin_mosi_.Write(0);
 197:Display/../../libs/PoliTeKDSP/libs/libDaisy/src/dev/oled_ssd130x.h **** 
 198:Display/../../libs/PoliTeKDSP/libs/libDaisy/src/dev/oled_ssd130x.h ****         pin_dc_.Init(config.pin_config.dc, GPIO::Mode::OUTPUT);
 199:Display/../../libs/PoliTeKDSP/libs/libDaisy/src/dev/oled_ssd130x.h ****         pin_reset_.Init(config.pin_config.reset, GPIO::Mode::OUTPUT);
ARM GAS  C:\Users\skipi\AppData\Local\Temp\cc9eAo3V.s 			page 22


 200:Display/../../libs/PoliTeKDSP/libs/libDaisy/src/dev/oled_ssd130x.h **** 
 201:Display/../../libs/PoliTeKDSP/libs/libDaisy/src/dev/oled_ssd130x.h ****         // Reset and Configure OLED.
 202:Display/../../libs/PoliTeKDSP/libs/libDaisy/src/dev/oled_ssd130x.h ****         pin_reset_.Write(0);
 203:Display/../../libs/PoliTeKDSP/libs/libDaisy/src/dev/oled_ssd130x.h ****         System::Delay(10);
 204:Display/../../libs/PoliTeKDSP/libs/libDaisy/src/dev/oled_ssd130x.h ****         pin_reset_.Write(1);
 205:Display/../../libs/PoliTeKDSP/libs/libDaisy/src/dev/oled_ssd130x.h ****         System::Delay(10);
 206:Display/../../libs/PoliTeKDSP/libs/libDaisy/src/dev/oled_ssd130x.h ****     };
 207:Display/../../libs/PoliTeKDSP/libs/libDaisy/src/dev/oled_ssd130x.h ****     void SendCommand(uint8_t cmd)
 208:Display/../../libs/PoliTeKDSP/libs/libDaisy/src/dev/oled_ssd130x.h ****     {
 209:Display/../../libs/PoliTeKDSP/libs/libDaisy/src/dev/oled_ssd130x.h ****         pin_dc_.Write(0);
 210:Display/../../libs/PoliTeKDSP/libs/libDaisy/src/dev/oled_ssd130x.h ****         SoftSpiTransmit(cmd);
 211:Display/../../libs/PoliTeKDSP/libs/libDaisy/src/dev/oled_ssd130x.h ****     };
 212:Display/../../libs/PoliTeKDSP/libs/libDaisy/src/dev/oled_ssd130x.h **** 
 213:Display/../../libs/PoliTeKDSP/libs/libDaisy/src/dev/oled_ssd130x.h ****     void SendData(uint8_t* buff, size_t size)
 214:Display/../../libs/PoliTeKDSP/libs/libDaisy/src/dev/oled_ssd130x.h ****     {
 215:Display/../../libs/PoliTeKDSP/libs/libDaisy/src/dev/oled_ssd130x.h ****         pin_dc_.Write(1);
 216:Display/../../libs/PoliTeKDSP/libs/libDaisy/src/dev/oled_ssd130x.h ****         for(size_t i = 0; i < size; i++)
 217:Display/../../libs/PoliTeKDSP/libs/libDaisy/src/dev/oled_ssd130x.h ****             SoftSpiTransmit(buff[i]);
 218:Display/../../libs/PoliTeKDSP/libs/libDaisy/src/dev/oled_ssd130x.h ****     };
 219:Display/../../libs/PoliTeKDSP/libs/libDaisy/src/dev/oled_ssd130x.h **** 
 220:Display/../../libs/PoliTeKDSP/libs/libDaisy/src/dev/oled_ssd130x.h ****   private:
 221:Display/../../libs/PoliTeKDSP/libs/libDaisy/src/dev/oled_ssd130x.h ****     void SoftSpiTransmit(uint8_t val)
 222:Display/../../libs/PoliTeKDSP/libs/libDaisy/src/dev/oled_ssd130x.h ****     {
 223:Display/../../libs/PoliTeKDSP/libs/libDaisy/src/dev/oled_ssd130x.h ****         // bit flip
 224:Display/../../libs/PoliTeKDSP/libs/libDaisy/src/dev/oled_ssd130x.h ****         val = ((val & 0x01) << 7) | ((val & 0x02) << 5) | ((val & 0x04) << 3)
 225:Display/../../libs/PoliTeKDSP/libs/libDaisy/src/dev/oled_ssd130x.h ****               | ((val & 0x08) << 1) | ((val & 0x10) >> 1) | ((val & 0x20) >> 3)
 226:Display/../../libs/PoliTeKDSP/libs/libDaisy/src/dev/oled_ssd130x.h ****               | ((val & 0x40) >> 5) | ((val & 0x80) >> 7);
 227:Display/../../libs/PoliTeKDSP/libs/libDaisy/src/dev/oled_ssd130x.h **** 
 228:Display/../../libs/PoliTeKDSP/libs/libDaisy/src/dev/oled_ssd130x.h ****         for(uint8_t bit = 0u; bit < 8u; bit++)
 229:Display/../../libs/PoliTeKDSP/libs/libDaisy/src/dev/oled_ssd130x.h ****         {
 230:Display/../../libs/PoliTeKDSP/libs/libDaisy/src/dev/oled_ssd130x.h ****             pin_mosi_.Write((val & (1 << bit)) ? 1 : 0);
 231:Display/../../libs/PoliTeKDSP/libs/libDaisy/src/dev/oled_ssd130x.h **** 
 232:Display/../../libs/PoliTeKDSP/libs/libDaisy/src/dev/oled_ssd130x.h ****             System::DelayTicks(clk_delay);
 233:Display/../../libs/PoliTeKDSP/libs/libDaisy/src/dev/oled_ssd130x.h **** 
 234:Display/../../libs/PoliTeKDSP/libs/libDaisy/src/dev/oled_ssd130x.h ****             pin_sclk_.Toggle();
 235:Display/../../libs/PoliTeKDSP/libs/libDaisy/src/dev/oled_ssd130x.h **** 
 236:Display/../../libs/PoliTeKDSP/libs/libDaisy/src/dev/oled_ssd130x.h ****             System::DelayTicks(clk_delay);
 237:Display/../../libs/PoliTeKDSP/libs/libDaisy/src/dev/oled_ssd130x.h **** 
 238:Display/../../libs/PoliTeKDSP/libs/libDaisy/src/dev/oled_ssd130x.h ****             pin_sclk_.Toggle();
 239:Display/../../libs/PoliTeKDSP/libs/libDaisy/src/dev/oled_ssd130x.h ****         }
 240:Display/../../libs/PoliTeKDSP/libs/libDaisy/src/dev/oled_ssd130x.h ****     }
 241:Display/../../libs/PoliTeKDSP/libs/libDaisy/src/dev/oled_ssd130x.h **** 
 242:Display/../../libs/PoliTeKDSP/libs/libDaisy/src/dev/oled_ssd130x.h ****     uint32_t clk_delay;
 243:Display/../../libs/PoliTeKDSP/libs/libDaisy/src/dev/oled_ssd130x.h ****     GPIO     pin_sclk_;
 244:Display/../../libs/PoliTeKDSP/libs/libDaisy/src/dev/oled_ssd130x.h ****     GPIO     pin_mosi_;
 245:Display/../../libs/PoliTeKDSP/libs/libDaisy/src/dev/oled_ssd130x.h ****     GPIO     pin_reset_;
 246:Display/../../libs/PoliTeKDSP/libs/libDaisy/src/dev/oled_ssd130x.h ****     GPIO     pin_dc_;
 247:Display/../../libs/PoliTeKDSP/libs/libDaisy/src/dev/oled_ssd130x.h **** };
 248:Display/../../libs/PoliTeKDSP/libs/libDaisy/src/dev/oled_ssd130x.h **** 
 249:Display/../../libs/PoliTeKDSP/libs/libDaisy/src/dev/oled_ssd130x.h **** 
 250:Display/../../libs/PoliTeKDSP/libs/libDaisy/src/dev/oled_ssd130x.h **** /**
 251:Display/../../libs/PoliTeKDSP/libs/libDaisy/src/dev/oled_ssd130x.h ****  * A driver implementation for the SSD1306/SSD1309
 252:Display/../../libs/PoliTeKDSP/libs/libDaisy/src/dev/oled_ssd130x.h ****  */
 253:Display/../../libs/PoliTeKDSP/libs/libDaisy/src/dev/oled_ssd130x.h **** template <size_t width, size_t height, typename Transport>
 254:Display/../../libs/PoliTeKDSP/libs/libDaisy/src/dev/oled_ssd130x.h **** class SSD130xDriver
 255:Display/../../libs/PoliTeKDSP/libs/libDaisy/src/dev/oled_ssd130x.h **** {
 256:Display/../../libs/PoliTeKDSP/libs/libDaisy/src/dev/oled_ssd130x.h ****   public:
ARM GAS  C:\Users\skipi\AppData\Local\Temp\cc9eAo3V.s 			page 23


 257:Display/../../libs/PoliTeKDSP/libs/libDaisy/src/dev/oled_ssd130x.h ****     struct Config
 258:Display/../../libs/PoliTeKDSP/libs/libDaisy/src/dev/oled_ssd130x.h ****     {
 259:Display/../../libs/PoliTeKDSP/libs/libDaisy/src/dev/oled_ssd130x.h ****         typename Transport::Config transport_config;
 260:Display/../../libs/PoliTeKDSP/libs/libDaisy/src/dev/oled_ssd130x.h ****     };
 261:Display/../../libs/PoliTeKDSP/libs/libDaisy/src/dev/oled_ssd130x.h **** 
 262:Display/../../libs/PoliTeKDSP/libs/libDaisy/src/dev/oled_ssd130x.h ****     void Init(Config config)
 263:Display/../../libs/PoliTeKDSP/libs/libDaisy/src/dev/oled_ssd130x.h ****     {
 264:Display/../../libs/PoliTeKDSP/libs/libDaisy/src/dev/oled_ssd130x.h ****         transport_.Init(config.transport_config);
 265:Display/../../libs/PoliTeKDSP/libs/libDaisy/src/dev/oled_ssd130x.h **** 
 266:Display/../../libs/PoliTeKDSP/libs/libDaisy/src/dev/oled_ssd130x.h ****         // Init routine...
 267:Display/../../libs/PoliTeKDSP/libs/libDaisy/src/dev/oled_ssd130x.h **** 
 268:Display/../../libs/PoliTeKDSP/libs/libDaisy/src/dev/oled_ssd130x.h ****         // Display Off
 269:Display/../../libs/PoliTeKDSP/libs/libDaisy/src/dev/oled_ssd130x.h ****         transport_.SendCommand(0xaE);
 270:Display/../../libs/PoliTeKDSP/libs/libDaisy/src/dev/oled_ssd130x.h ****         // Dimension dependent commands...
 271:Display/../../libs/PoliTeKDSP/libs/libDaisy/src/dev/oled_ssd130x.h ****         switch(height)
 272:Display/../../libs/PoliTeKDSP/libs/libDaisy/src/dev/oled_ssd130x.h ****         {
 273:Display/../../libs/PoliTeKDSP/libs/libDaisy/src/dev/oled_ssd130x.h ****             case 16:
 274:Display/../../libs/PoliTeKDSP/libs/libDaisy/src/dev/oled_ssd130x.h ****                 // Display Clock Divide Ratio
 275:Display/../../libs/PoliTeKDSP/libs/libDaisy/src/dev/oled_ssd130x.h ****                 transport_.SendCommand(0xD5);
 276:Display/../../libs/PoliTeKDSP/libs/libDaisy/src/dev/oled_ssd130x.h ****                 transport_.SendCommand(0x60);
 277:Display/../../libs/PoliTeKDSP/libs/libDaisy/src/dev/oled_ssd130x.h ****                 // Multiplex Ratio
 278:Display/../../libs/PoliTeKDSP/libs/libDaisy/src/dev/oled_ssd130x.h ****                 transport_.SendCommand(0xA8);
 279:Display/../../libs/PoliTeKDSP/libs/libDaisy/src/dev/oled_ssd130x.h ****                 transport_.SendCommand(0x0F);
 280:Display/../../libs/PoliTeKDSP/libs/libDaisy/src/dev/oled_ssd130x.h ****                 // COM Pins
 281:Display/../../libs/PoliTeKDSP/libs/libDaisy/src/dev/oled_ssd130x.h ****                 transport_.SendCommand(0xDA);
 282:Display/../../libs/PoliTeKDSP/libs/libDaisy/src/dev/oled_ssd130x.h ****                 transport_.SendCommand(0x02);
 283:Display/../../libs/PoliTeKDSP/libs/libDaisy/src/dev/oled_ssd130x.h ****                 break;
 284:Display/../../libs/PoliTeKDSP/libs/libDaisy/src/dev/oled_ssd130x.h ****             case 32:
 285:Display/../../libs/PoliTeKDSP/libs/libDaisy/src/dev/oled_ssd130x.h ****                 // Display Clock Divide Ratio
 286:Display/../../libs/PoliTeKDSP/libs/libDaisy/src/dev/oled_ssd130x.h ****                 transport_.SendCommand(0xD5);
 287:Display/../../libs/PoliTeKDSP/libs/libDaisy/src/dev/oled_ssd130x.h ****                 transport_.SendCommand(0x80);
 288:Display/../../libs/PoliTeKDSP/libs/libDaisy/src/dev/oled_ssd130x.h ****                 // Multiplex Ratio
 289:Display/../../libs/PoliTeKDSP/libs/libDaisy/src/dev/oled_ssd130x.h ****                 transport_.SendCommand(0xA8);
 290:Display/../../libs/PoliTeKDSP/libs/libDaisy/src/dev/oled_ssd130x.h ****                 transport_.SendCommand(0x1F);
 291:Display/../../libs/PoliTeKDSP/libs/libDaisy/src/dev/oled_ssd130x.h ****                 // COM Pins
 292:Display/../../libs/PoliTeKDSP/libs/libDaisy/src/dev/oled_ssd130x.h ****                 transport_.SendCommand(0xDA);
 293:Display/../../libs/PoliTeKDSP/libs/libDaisy/src/dev/oled_ssd130x.h ****                 if(width == 64)
 294:Display/../../libs/PoliTeKDSP/libs/libDaisy/src/dev/oled_ssd130x.h ****                 {
 295:Display/../../libs/PoliTeKDSP/libs/libDaisy/src/dev/oled_ssd130x.h ****                     transport_.SendCommand(0x12);
 296:Display/../../libs/PoliTeKDSP/libs/libDaisy/src/dev/oled_ssd130x.h ****                 }
 297:Display/../../libs/PoliTeKDSP/libs/libDaisy/src/dev/oled_ssd130x.h ****                 else
 298:Display/../../libs/PoliTeKDSP/libs/libDaisy/src/dev/oled_ssd130x.h ****                 {
 299:Display/../../libs/PoliTeKDSP/libs/libDaisy/src/dev/oled_ssd130x.h ****                     transport_.SendCommand(0x02);
 300:Display/../../libs/PoliTeKDSP/libs/libDaisy/src/dev/oled_ssd130x.h ****                 }
 301:Display/../../libs/PoliTeKDSP/libs/libDaisy/src/dev/oled_ssd130x.h **** 
 302:Display/../../libs/PoliTeKDSP/libs/libDaisy/src/dev/oled_ssd130x.h ****                 break;
 303:Display/../../libs/PoliTeKDSP/libs/libDaisy/src/dev/oled_ssd130x.h ****             case 48:
 304:Display/../../libs/PoliTeKDSP/libs/libDaisy/src/dev/oled_ssd130x.h ****                 // Display Clock Divide Ratio
 305:Display/../../libs/PoliTeKDSP/libs/libDaisy/src/dev/oled_ssd130x.h ****                 transport_.SendCommand(0xD5);
 306:Display/../../libs/PoliTeKDSP/libs/libDaisy/src/dev/oled_ssd130x.h ****                 transport_.SendCommand(0x80);
 307:Display/../../libs/PoliTeKDSP/libs/libDaisy/src/dev/oled_ssd130x.h ****                 // Multiplex Ratio
 308:Display/../../libs/PoliTeKDSP/libs/libDaisy/src/dev/oled_ssd130x.h ****                 transport_.SendCommand(0xA8);
 309:Display/../../libs/PoliTeKDSP/libs/libDaisy/src/dev/oled_ssd130x.h ****                 transport_.SendCommand(0x2F);
 310:Display/../../libs/PoliTeKDSP/libs/libDaisy/src/dev/oled_ssd130x.h ****                 // COM Pins
 311:Display/../../libs/PoliTeKDSP/libs/libDaisy/src/dev/oled_ssd130x.h ****                 transport_.SendCommand(0xDA);
 312:Display/../../libs/PoliTeKDSP/libs/libDaisy/src/dev/oled_ssd130x.h ****                 transport_.SendCommand(0x12);
 313:Display/../../libs/PoliTeKDSP/libs/libDaisy/src/dev/oled_ssd130x.h ****                 break;
ARM GAS  C:\Users\skipi\AppData\Local\Temp\cc9eAo3V.s 			page 24


 314:Display/../../libs/PoliTeKDSP/libs/libDaisy/src/dev/oled_ssd130x.h ****             default: // 128
 315:Display/../../libs/PoliTeKDSP/libs/libDaisy/src/dev/oled_ssd130x.h ****                 // Display Clock Divide Ratio
 316:Display/../../libs/PoliTeKDSP/libs/libDaisy/src/dev/oled_ssd130x.h ****                 transport_.SendCommand(0xD5);
 317:Display/../../libs/PoliTeKDSP/libs/libDaisy/src/dev/oled_ssd130x.h ****                 transport_.SendCommand(0x80);
 318:Display/../../libs/PoliTeKDSP/libs/libDaisy/src/dev/oled_ssd130x.h ****                 // Multiplex Ratio
 319:Display/../../libs/PoliTeKDSP/libs/libDaisy/src/dev/oled_ssd130x.h ****                 transport_.SendCommand(0xA8);
 320:Display/../../libs/PoliTeKDSP/libs/libDaisy/src/dev/oled_ssd130x.h ****                 transport_.SendCommand(0x3F);
 321:Display/../../libs/PoliTeKDSP/libs/libDaisy/src/dev/oled_ssd130x.h ****                 // COM Pins
 322:Display/../../libs/PoliTeKDSP/libs/libDaisy/src/dev/oled_ssd130x.h ****                 transport_.SendCommand(0xDA);
 323:Display/../../libs/PoliTeKDSP/libs/libDaisy/src/dev/oled_ssd130x.h ****                 transport_.SendCommand(0x12);
 324:Display/../../libs/PoliTeKDSP/libs/libDaisy/src/dev/oled_ssd130x.h ****                 break;
 325:Display/../../libs/PoliTeKDSP/libs/libDaisy/src/dev/oled_ssd130x.h ****         }
 326:Display/../../libs/PoliTeKDSP/libs/libDaisy/src/dev/oled_ssd130x.h **** 
 327:Display/../../libs/PoliTeKDSP/libs/libDaisy/src/dev/oled_ssd130x.h ****         // Display Offset
 328:Display/../../libs/PoliTeKDSP/libs/libDaisy/src/dev/oled_ssd130x.h ****         transport_.SendCommand(0xD3);
 329:Display/../../libs/PoliTeKDSP/libs/libDaisy/src/dev/oled_ssd130x.h ****         transport_.SendCommand(0x00);
 330:Display/../../libs/PoliTeKDSP/libs/libDaisy/src/dev/oled_ssd130x.h ****         // Start Line Address
 331:Display/../../libs/PoliTeKDSP/libs/libDaisy/src/dev/oled_ssd130x.h ****         transport_.SendCommand(0x40);
 332:Display/../../libs/PoliTeKDSP/libs/libDaisy/src/dev/oled_ssd130x.h ****         // Normal Display
 333:Display/../../libs/PoliTeKDSP/libs/libDaisy/src/dev/oled_ssd130x.h ****         transport_.SendCommand(0xA6);
 334:Display/../../libs/PoliTeKDSP/libs/libDaisy/src/dev/oled_ssd130x.h ****         // All On Resume
 335:Display/../../libs/PoliTeKDSP/libs/libDaisy/src/dev/oled_ssd130x.h ****         transport_.SendCommand(0xA4);
 336:Display/../../libs/PoliTeKDSP/libs/libDaisy/src/dev/oled_ssd130x.h ****         // Charge Pump
 337:Display/../../libs/PoliTeKDSP/libs/libDaisy/src/dev/oled_ssd130x.h ****         transport_.SendCommand(0x8D);
 338:Display/../../libs/PoliTeKDSP/libs/libDaisy/src/dev/oled_ssd130x.h ****         transport_.SendCommand(0x14);
 339:Display/../../libs/PoliTeKDSP/libs/libDaisy/src/dev/oled_ssd130x.h ****         // Set Segment Remap
 340:Display/../../libs/PoliTeKDSP/libs/libDaisy/src/dev/oled_ssd130x.h ****         transport_.SendCommand(0xA1);
 341:Display/../../libs/PoliTeKDSP/libs/libDaisy/src/dev/oled_ssd130x.h ****         // COM Output Scan Direction
 342:Display/../../libs/PoliTeKDSP/libs/libDaisy/src/dev/oled_ssd130x.h ****         transport_.SendCommand(0xC8);
 343:Display/../../libs/PoliTeKDSP/libs/libDaisy/src/dev/oled_ssd130x.h ****         // Contrast Control
 344:Display/../../libs/PoliTeKDSP/libs/libDaisy/src/dev/oled_ssd130x.h ****         transport_.SendCommand(0x81);
 345:Display/../../libs/PoliTeKDSP/libs/libDaisy/src/dev/oled_ssd130x.h ****         transport_.SendCommand(0x8F);
 346:Display/../../libs/PoliTeKDSP/libs/libDaisy/src/dev/oled_ssd130x.h ****         // Pre Charge
 347:Display/../../libs/PoliTeKDSP/libs/libDaisy/src/dev/oled_ssd130x.h ****         transport_.SendCommand(0xD9);
 348:Display/../../libs/PoliTeKDSP/libs/libDaisy/src/dev/oled_ssd130x.h ****         transport_.SendCommand(0x25);
 349:Display/../../libs/PoliTeKDSP/libs/libDaisy/src/dev/oled_ssd130x.h ****         // VCOM Detect
 350:Display/../../libs/PoliTeKDSP/libs/libDaisy/src/dev/oled_ssd130x.h ****         transport_.SendCommand(0xDB);
 351:Display/../../libs/PoliTeKDSP/libs/libDaisy/src/dev/oled_ssd130x.h ****         transport_.SendCommand(0x34);
 352:Display/../../libs/PoliTeKDSP/libs/libDaisy/src/dev/oled_ssd130x.h **** 
 353:Display/../../libs/PoliTeKDSP/libs/libDaisy/src/dev/oled_ssd130x.h **** 
 354:Display/../../libs/PoliTeKDSP/libs/libDaisy/src/dev/oled_ssd130x.h ****         // Display On
 355:Display/../../libs/PoliTeKDSP/libs/libDaisy/src/dev/oled_ssd130x.h ****         transport_.SendCommand(0xAF); //--turn on oled panel
 356:Display/../../libs/PoliTeKDSP/libs/libDaisy/src/dev/oled_ssd130x.h ****     };
 357:Display/../../libs/PoliTeKDSP/libs/libDaisy/src/dev/oled_ssd130x.h **** 
 358:Display/../../libs/PoliTeKDSP/libs/libDaisy/src/dev/oled_ssd130x.h ****     size_t Width() const { return width; };
 359:Display/../../libs/PoliTeKDSP/libs/libDaisy/src/dev/oled_ssd130x.h ****     size_t Height() const { return height; };
 360:Display/../../libs/PoliTeKDSP/libs/libDaisy/src/dev/oled_ssd130x.h **** 
 361:Display/../../libs/PoliTeKDSP/libs/libDaisy/src/dev/oled_ssd130x.h ****     void DrawPixel(uint_fast8_t x, uint_fast8_t y, bool on)
 362:Display/../../libs/PoliTeKDSP/libs/libDaisy/src/dev/oled_ssd130x.h ****     {
 363:Display/../../libs/PoliTeKDSP/libs/libDaisy/src/dev/oled_ssd130x.h ****         if(x >= width || y >= height)
 364:Display/../../libs/PoliTeKDSP/libs/libDaisy/src/dev/oled_ssd130x.h ****             return;
 365:Display/../../libs/PoliTeKDSP/libs/libDaisy/src/dev/oled_ssd130x.h ****         if(on)
 366:Display/../../libs/PoliTeKDSP/libs/libDaisy/src/dev/oled_ssd130x.h ****             buffer_[x + (y / 8) * width] |= (1 << (y % 8));
 367:Display/../../libs/PoliTeKDSP/libs/libDaisy/src/dev/oled_ssd130x.h ****         else
 368:Display/../../libs/PoliTeKDSP/libs/libDaisy/src/dev/oled_ssd130x.h ****             buffer_[x + (y / 8) * width] &= ~(1 << (y % 8));
 369:Display/../../libs/PoliTeKDSP/libs/libDaisy/src/dev/oled_ssd130x.h ****     }
 370:Display/../../libs/PoliTeKDSP/libs/libDaisy/src/dev/oled_ssd130x.h **** 
ARM GAS  C:\Users\skipi\AppData\Local\Temp\cc9eAo3V.s 			page 25


 371:Display/../../libs/PoliTeKDSP/libs/libDaisy/src/dev/oled_ssd130x.h ****     void Fill(bool on)
 235              		.loc 11 371 10 view .LVU31
 236              	.LBB473:
 372:Display/../../libs/PoliTeKDSP/libs/libDaisy/src/dev/oled_ssd130x.h ****     {
 373:Display/../../libs/PoliTeKDSP/libs/libDaisy/src/dev/oled_ssd130x.h ****         for(size_t i = 0; i < sizeof(buffer_); i++)
 237              		.loc 11 373 29 view .LVU32
 374:Display/../../libs/PoliTeKDSP/libs/libDaisy/src/dev/oled_ssd130x.h ****         {
 375:Display/../../libs/PoliTeKDSP/libs/libDaisy/src/dev/oled_ssd130x.h ****             buffer_[i] = on ? 0xff : 0x00;
 238              		.loc 11 375 24 is_stmt 0 view .LVU33
 239 0000 4942     		rsbs	r1, r1, #0
 240              	.LVL9:
 241              		.loc 11 375 24 view .LVU34
 242 0002 4FF48062 		mov	r2, #1024
 243 0006 1030     		adds	r0, r0, #16
 244              	.LVL10:
 245              		.loc 11 375 24 view .LVU35
 246 0008 C9B2     		uxtb	r1, r1
 247 000a FFF7FEBF 		b	memset
 248              	.LVL11:
 249              		.loc 11 375 24 view .LVU36
 250              	.LBE473:
 251              	.LBE472:
 252              		.cfi_endproc
 253              	.LFE5552:
 255 000e 00BF     		.section	.text._ZN5daisy11OledDisplayINS_13SSD130xDriverILj128ELj64ENS_19SSD130xI2CTransportEEEE14
 256              		.align	1
 257              		.p2align 2,,3
 258              		.weak	_ZN5daisy11OledDisplayINS_13SSD130xDriverILj128ELj64ENS_19SSD130xI2CTransportEEEE14UpdateFin
 259              		.syntax unified
 260              		.thumb
 261              		.thumb_func
 262              		.fpu fpv5-d16
 264              	_ZN5daisy11OledDisplayINS_13SSD130xDriverILj128ELj64ENS_19SSD130xI2CTransportEEEE14UpdateFinishedEv
 265              	.LVL12:
 266              	.LFB5561:
  35:../libs/PoliTeKDSP/libs/libDaisy/src/hid/disp/oled_display.h **** 
  36:../libs/PoliTeKDSP/libs/libDaisy/src/hid/disp/oled_display.h ****     /**
  37:../libs/PoliTeKDSP/libs/libDaisy/src/hid/disp/oled_display.h ****     Sets the pixel at the specified coordinate to be on/off.
  38:../libs/PoliTeKDSP/libs/libDaisy/src/hid/disp/oled_display.h ****     \param x   x Coordinate
  39:../libs/PoliTeKDSP/libs/libDaisy/src/hid/disp/oled_display.h ****     \param y   y coordinate
  40:../libs/PoliTeKDSP/libs/libDaisy/src/hid/disp/oled_display.h ****     \param on  on or off
  41:../libs/PoliTeKDSP/libs/libDaisy/src/hid/disp/oled_display.h ****     */
  42:../libs/PoliTeKDSP/libs/libDaisy/src/hid/disp/oled_display.h ****     void DrawPixel(uint_fast8_t x, uint_fast8_t y, bool on) override
  43:../libs/PoliTeKDSP/libs/libDaisy/src/hid/disp/oled_display.h ****     {
  44:../libs/PoliTeKDSP/libs/libDaisy/src/hid/disp/oled_display.h ****         driver_.DrawPixel(x, y, on);
  45:../libs/PoliTeKDSP/libs/libDaisy/src/hid/disp/oled_display.h ****     }
  46:../libs/PoliTeKDSP/libs/libDaisy/src/hid/disp/oled_display.h **** 
  47:../libs/PoliTeKDSP/libs/libDaisy/src/hid/disp/oled_display.h ****     /** 
  48:../libs/PoliTeKDSP/libs/libDaisy/src/hid/disp/oled_display.h ****     Writes the current display buffer to the OLED device using SPI or I2C depending on 
  49:../libs/PoliTeKDSP/libs/libDaisy/src/hid/disp/oled_display.h ****     how the object was initialized.
  50:../libs/PoliTeKDSP/libs/libDaisy/src/hid/disp/oled_display.h ****     */
  51:../libs/PoliTeKDSP/libs/libDaisy/src/hid/disp/oled_display.h ****     void Update() override { driver_.Update(); }
  52:../libs/PoliTeKDSP/libs/libDaisy/src/hid/disp/oled_display.h **** 
  53:../libs/PoliTeKDSP/libs/libDaisy/src/hid/disp/oled_display.h ****     bool UpdateFinished() override { return driver_.UpdateFinished(); }
 267              		.loc 9 53 10 is_stmt 1 view -0
 268              		.cfi_startproc
 269              		@ args = 0, pretend = 0, frame = 0
ARM GAS  C:\Users\skipi\AppData\Local\Temp\cc9eAo3V.s 			page 26


 270              		@ frame_needed = 0, uses_anonymous_args = 0
 271              		@ link register save eliminated.
 272              		.loc 9 53 71 is_stmt 0 view .LVU38
 273 0000 0120     		movs	r0, #1
 274              	.LVL13:
 275              		.loc 9 53 71 view .LVU39
 276 0002 7047     		bx	lr
 277              		.cfi_endproc
 278              	.LFE5561:
 280              		.section	.text._Z13AudioCallbackPKPKfPPfj,"ax",%progbits
 281              		.align	1
 282              		.p2align 2,,3
 283              		.global	_Z13AudioCallbackPKPKfPPfj
 284              		.syntax unified
 285              		.thumb
 286              		.thumb_func
 287              		.fpu fpv5-d16
 289              	_Z13AudioCallbackPKPKfPPfj:
 290              	.LVL14:
 291              	.LFB4954:
  37:main.cpp      **** 
  38:main.cpp      **** 
  39:main.cpp      **** 
  40:main.cpp      **** void AudioCallback(AudioHandle::InputBuffer in, AudioHandle::OutputBuffer out, size_t size) {
 292              		.loc 8 40 93 is_stmt 1 view -0
 293              		.cfi_startproc
 294              		@ args = 0, pretend = 0, frame = 0
 295              		@ frame_needed = 0, uses_anonymous_args = 0
  41:main.cpp      ****     synth.Update(audio_controls);
 296              		.loc 8 41 5 view .LVU41
 297              		.loc 8 41 17 is_stmt 0 view .LVU42
 298 0000 124B     		ldr	r3, .L20
 299 0002 1348     		ldr	r0, .L20+4
 300              	.LVL15:
  40:main.cpp      ****     synth.Update(audio_controls);
 301              		.loc 8 40 93 view .LVU43
 302 0004 70B5     		push	{r4, r5, r6, lr}
 303              		.cfi_def_cfa_offset 16
 304              		.cfi_offset 4, -16
 305              		.cfi_offset 5, -12
 306              		.cfi_offset 6, -8
 307              		.cfi_offset 14, -4
 308 0006 1646     		mov	r6, r2
 309 0008 0D46     		mov	r5, r1
 310 000a 2DED028B 		vpush.64	{d8}
 311              		.cfi_def_cfa_offset 24
 312              		.cfi_offset 80, -24
 313              		.cfi_offset 81, -20
 314              		.loc 8 41 17 view .LVU44
 315 000e 93E80600 		ldm	r3, {r1, r2}
 316              	.LVL16:
 317              		.loc 8 41 17 view .LVU45
 318 0012 FFF7FEFF 		bl	_ZN11AudioEngine6UpdateE14ControlsStruct
 319              	.LVL17:
  42:main.cpp      **** 
  43:main.cpp      ****     for (size_t i = 0; i < size; i++) {
 320              		.loc 8 43 5 is_stmt 1 view .LVU46
ARM GAS  C:\Users\skipi\AppData\Local\Temp\cc9eAo3V.s 			page 27


 321              	.LBB474:
 322              		.loc 8 43 26 view .LVU47
 323 0016 AEB1     		cbz	r6, .L12
 324              		.loc 8 43 17 is_stmt 0 view .LVU48
 325 0018 0024     		movs	r4, #0
 326              	.LVL18:
 327              	.L14:
 328              	.LBB475:
  44:main.cpp      ****         // 1. Genera il campione una volta sola
  45:main.cpp      ****         float sig = synth.Process();
 329              		.loc 8 45 9 is_stmt 1 discriminator 2 view .LVU49
 330              		.loc 8 45 34 is_stmt 0 discriminator 2 view .LVU50
 331 001a 0D48     		ldr	r0, .L20+4
 332 001c FFF7FEFF 		bl	_ZN11AudioEngine7ProcessEv
 333              	.LVL19:
  46:main.cpp      ****         
  47:main.cpp      ****         // 2. Passalo al display (moltiplicalo per 2 se l'onda è troppo piccola)
  48:main.cpp      ****         display_handle.pushAudioSample(sig);
 334              		.loc 8 48 39 discriminator 2 view .LVU51
 335 0020 0C48     		ldr	r0, .L20+8
  45:main.cpp      ****         
 336              		.loc 8 45 34 discriminator 2 view .LVU52
 337 0022 B0EE408A 		vmov.f32	s16, s0
 338              	.LVL20:
 339              		.loc 8 48 9 is_stmt 1 discriminator 2 view .LVU53
 340              		.loc 8 48 39 is_stmt 0 discriminator 2 view .LVU54
 341 0026 FFF7FEFF 		bl	_ZN14DisplayHandler15pushAudioSampleEf
 342              	.LVL21:
  49:main.cpp      **** 
  50:main.cpp      ****         // 3. Liberalo sulle uscite
  51:main.cpp      ****         out[0][i] = sig;
 343              		.loc 8 51 9 is_stmt 1 discriminator 2 view .LVU55
  52:main.cpp      ****         out[1][i] = sig;
 344              		.loc 8 52 19 is_stmt 0 discriminator 2 view .LVU56
 345 002a D5E90003 		ldrd	r0, r3, [r5]
  51:main.cpp      ****         out[1][i] = sig;
 346              		.loc 8 51 19 discriminator 2 view .LVU57
 347 002e 00EB8400 		add	r0, r0, r4, lsl #2
 348              		.loc 8 52 19 discriminator 2 view .LVU58
 349 0032 03EB8403 		add	r3, r3, r4, lsl #2
 350              	.LBE475:
  43:main.cpp      ****         // 1. Genera il campione una volta sola
 351              		.loc 8 43 5 discriminator 2 view .LVU59
 352 0036 0134     		adds	r4, r4, #1
 353              	.LVL22:
 354              	.LBB476:
  51:main.cpp      ****         out[1][i] = sig;
 355              		.loc 8 51 19 discriminator 2 view .LVU60
 356 0038 80ED008A 		vstr.32	s16, [r0]
 357              		.loc 8 52 9 is_stmt 1 discriminator 2 view .LVU61
 358              	.LBE476:
  43:main.cpp      ****         // 1. Genera il campione una volta sola
 359              		.loc 8 43 26 is_stmt 0 discriminator 2 view .LVU62
 360 003c A642     		cmp	r6, r4
 361              	.LBB477:
 362              		.loc 8 52 19 discriminator 2 view .LVU63
 363 003e 83ED008A 		vstr.32	s16, [r3]
ARM GAS  C:\Users\skipi\AppData\Local\Temp\cc9eAo3V.s 			page 28


 364              	.LBE477:
  43:main.cpp      ****         // 1. Genera il campione una volta sola
 365              		.loc 8 43 5 is_stmt 1 discriminator 2 view .LVU64
 366              	.LVL23:
  43:main.cpp      ****         // 1. Genera il campione una volta sola
 367              		.loc 8 43 26 discriminator 2 view .LVU65
 368 0042 EAD1     		bne	.L14
 369              	.LVL24:
 370              	.L12:
  43:main.cpp      ****         // 1. Genera il campione una volta sola
 371              		.loc 8 43 26 is_stmt 0 discriminator 2 view .LVU66
 372              	.LBE474:
  53:main.cpp      ****     }
  54:main.cpp      **** }
 373              		.loc 8 54 1 view .LVU67
 374 0044 BDEC028B 		vldm	sp!, {d8}
 375              		.cfi_restore 80
 376              		.cfi_restore 81
 377              		.cfi_def_cfa_offset 16
 378 0048 70BD     		pop	{r4, r5, r6, pc}
 379              	.LVL25:
 380              	.L21:
 381              		.loc 8 54 1 view .LVU68
 382 004a 00BF     		.align	2
 383              	.L20:
 384 004c 00000000 		.word	.LANCHOR1
 385 0050 00000000 		.word	.LANCHOR2
 386 0054 00000000 		.word	.LANCHOR3
 387              		.cfi_endproc
 388              	.LFE4954:
 390              		.section	.text._ZN5daisy11OledDisplayINS_13SSD130xDriverILj128ELj64ENS_19SSD130xI2CTransportEEEED0
 391              		.align	1
 392              		.p2align 2,,3
 393              		.weak	_ZN5daisy11OledDisplayINS_13SSD130xDriverILj128ELj64ENS_19SSD130xI2CTransportEEEED0Ev
 394              		.syntax unified
 395              		.thumb
 396              		.thumb_func
 397              		.fpu fpv5-d16
 399              	_ZN5daisy11OledDisplayINS_13SSD130xDriverILj128ELj64ENS_19SSD130xI2CTransportEEEED0Ev:
 400              	.LVL26:
 401              	.LFB5549:
  18:../libs/PoliTeKDSP/libs/libDaisy/src/hid/disp/oled_display.h **** 
 402              		.loc 9 18 13 is_stmt 1 view -0
 403              		.cfi_startproc
 404              		@ args = 0, pretend = 0, frame = 0
 405              		@ frame_needed = 0, uses_anonymous_args = 0
  18:../libs/PoliTeKDSP/libs/libDaisy/src/hid/disp/oled_display.h **** 
 406              		.loc 9 18 13 is_stmt 0 view .LVU70
 407 0000 10B5     		push	{r4, lr}
 408              		.cfi_def_cfa_offset 8
 409              		.cfi_offset 4, -8
 410              		.cfi_offset 14, -4
  18:../libs/PoliTeKDSP/libs/libDaisy/src/hid/disp/oled_display.h **** 
 411              		.loc 9 18 13 view .LVU71
 412 0002 0446     		mov	r4, r0
 413              	.LVL27:
 414              	.LBB478:
ARM GAS  C:\Users\skipi\AppData\Local\Temp\cc9eAo3V.s 			page 29


 415              	.LBI478:
  18:../libs/PoliTeKDSP/libs/libDaisy/src/hid/disp/oled_display.h **** 
 416              		.loc 9 18 13 is_stmt 1 view .LVU72
 417              	.LBB479:
 418              	.LBI479:
 419              		.loc 10 224 13 view .LVU73
 420              	.LBB480:
 421              	.LBI480:
  23:../libs/PoliTeKDSP/libs/libDaisy/src/hid/disp/display.h **** 
 422              		.loc 10 23 13 view .LVU74
  23:../libs/PoliTeKDSP/libs/libDaisy/src/hid/disp/display.h **** 
 423              		.loc 10 23 13 is_stmt 0 view .LVU75
 424              	.LBE480:
 425              	.LBE479:
 426              	.LBE478:
  18:../libs/PoliTeKDSP/libs/libDaisy/src/hid/disp/oled_display.h **** 
 427              		.loc 9 18 29 view .LVU76
 428 0004 4FF48261 		mov	r1, #1040
 429 0008 FFF7FEFF 		bl	_ZdlPvj
 430              	.LVL28:
  18:../libs/PoliTeKDSP/libs/libDaisy/src/hid/disp/oled_display.h **** 
 431              		.loc 9 18 29 view .LVU77
 432 000c 2046     		mov	r0, r4
 433 000e 10BD     		pop	{r4, pc}
  18:../libs/PoliTeKDSP/libs/libDaisy/src/hid/disp/oled_display.h **** 
 434              		.loc 9 18 29 view .LVU78
 435              		.cfi_endproc
 436              	.LFE5549:
 438              		.section	.text._ZN5daisy11OledDisplayINS_13SSD130xDriverILj128ELj64ENS_19SSD130xI2CTransportEEEE6U
 439              		.align	1
 440              		.p2align 2,,3
 441              		.weak	_ZN5daisy11OledDisplayINS_13SSD130xDriverILj128ELj64ENS_19SSD130xI2CTransportEEEE6UpdateEv
 442              		.syntax unified
 443              		.thumb
 444              		.thumb_func
 445              		.fpu fpv5-d16
 447              	_ZN5daisy11OledDisplayINS_13SSD130xDriverILj128ELj64ENS_19SSD130xI2CTransportEEEE6UpdateEv:
 448              	.LVL29:
 449              	.LFB5560:
  51:../libs/PoliTeKDSP/libs/libDaisy/src/hid/disp/oled_display.h **** 
 450              		.loc 9 51 10 is_stmt 1 view -0
 451              		.cfi_startproc
 452              		@ args = 0, pretend = 0, frame = 8
 453              		@ frame_needed = 0, uses_anonymous_args = 0
  51:../libs/PoliTeKDSP/libs/libDaisy/src/hid/disp/oled_display.h **** 
 454              		.loc 9 51 10 is_stmt 0 view .LVU80
 455 0000 2DE9F04F 		push	{r4, r5, r6, r7, r8, r9, r10, fp, lr}
 456              		.cfi_def_cfa_offset 36
 457              		.cfi_offset 4, -36
 458              		.cfi_offset 5, -32
 459              		.cfi_offset 6, -28
 460              		.cfi_offset 7, -24
 461              		.cfi_offset 8, -20
 462              		.cfi_offset 9, -16
 463              		.cfi_offset 10, -12
 464              		.cfi_offset 11, -8
 465              		.cfi_offset 14, -4
ARM GAS  C:\Users\skipi\AppData\Local\Temp\cc9eAo3V.s 			page 30


 466              	.LBB493:
 467              	.LBB494:
 468              	.LBB495:
 469              	.LBB496:
  46:Display/../../libs/PoliTeKDSP/libs/libDaisy/src/dev/oled_ssd130x.h ****     };
 470              		.loc 11 46 30 view .LVU81
 471 0004 4FF0B008 		mov	r8, #176
 472              	.LBE496:
 473              	.LBE495:
 474              	.LBE494:
 475              	.LBE493:
  51:../libs/PoliTeKDSP/libs/libDaisy/src/hid/disp/oled_display.h **** 
 476              		.loc 9 51 10 view .LVU82
 477 0008 85B0     		sub	sp, sp, #20
 478              		.cfi_def_cfa_offset 56
  51:../libs/PoliTeKDSP/libs/libDaisy/src/hid/disp/oled_display.h **** 
 479              		.loc 9 51 10 view .LVU83
 480 000a 0546     		mov	r5, r0
 481              	.LVL30:
 482              	.LBB508:
 483              	.LBI493:
 376:Display/../../libs/PoliTeKDSP/libs/libDaisy/src/dev/oled_ssd130x.h ****         }
 377:Display/../../libs/PoliTeKDSP/libs/libDaisy/src/dev/oled_ssd130x.h ****     };
 378:Display/../../libs/PoliTeKDSP/libs/libDaisy/src/dev/oled_ssd130x.h **** 
 379:Display/../../libs/PoliTeKDSP/libs/libDaisy/src/dev/oled_ssd130x.h ****     /**
 380:Display/../../libs/PoliTeKDSP/libs/libDaisy/src/dev/oled_ssd130x.h ****      * Update the display
 381:Display/../../libs/PoliTeKDSP/libs/libDaisy/src/dev/oled_ssd130x.h ****     */
 382:Display/../../libs/PoliTeKDSP/libs/libDaisy/src/dev/oled_ssd130x.h ****     void Update()
 484              		.loc 11 382 10 is_stmt 1 view .LVU84
 485              	.LBB507:
 383:Display/../../libs/PoliTeKDSP/libs/libDaisy/src/dev/oled_ssd130x.h ****     {
 384:Display/../../libs/PoliTeKDSP/libs/libDaisy/src/dev/oled_ssd130x.h ****         uint8_t i;
 385:Display/../../libs/PoliTeKDSP/libs/libDaisy/src/dev/oled_ssd130x.h ****         uint8_t high_column_addr;
 386:Display/../../libs/PoliTeKDSP/libs/libDaisy/src/dev/oled_ssd130x.h ****         switch(height)
 387:Display/../../libs/PoliTeKDSP/libs/libDaisy/src/dev/oled_ssd130x.h ****         {
 388:Display/../../libs/PoliTeKDSP/libs/libDaisy/src/dev/oled_ssd130x.h ****             case 32: high_column_addr = 0x12; break;
 389:Display/../../libs/PoliTeKDSP/libs/libDaisy/src/dev/oled_ssd130x.h **** 
 390:Display/../../libs/PoliTeKDSP/libs/libDaisy/src/dev/oled_ssd130x.h ****             default: high_column_addr = 0x10; break;
 391:Display/../../libs/PoliTeKDSP/libs/libDaisy/src/dev/oled_ssd130x.h ****         }
 392:Display/../../libs/PoliTeKDSP/libs/libDaisy/src/dev/oled_ssd130x.h ****         for(i = 0; i < (height / 8); i++)
 486              		.loc 11 392 22 view .LVU85
 487              	.LBB499:
 488              	.LBB497:
  46:Display/../../libs/PoliTeKDSP/libs/libDaisy/src/dev/oled_ssd130x.h ****     };
 489              		.loc 11 46 30 is_stmt 0 view .LVU86
 490 000c 00F10807 		add	r7, r0, #8
 491              	.LVL31:
  46:Display/../../libs/PoliTeKDSP/libs/libDaisy/src/dev/oled_ssd130x.h ****     };
 492              		.loc 11 46 30 view .LVU87
 493 0010 00F18F06 		add	r6, r0, #143
 494 0014 00F28F49 		addw	r9, r0, #1167
 495              	.LVL32:
 496              	.L26:
  46:Display/../../libs/PoliTeKDSP/libs/libDaisy/src/dev/oled_ssd130x.h ****     };
 497              		.loc 11 46 30 view .LVU88
 498              	.LBE497:
 499              	.LBI495:
ARM GAS  C:\Users\skipi\AppData\Local\Temp\cc9eAo3V.s 			page 31


  43:Display/../../libs/PoliTeKDSP/libs/libDaisy/src/dev/oled_ssd130x.h ****     {
 500              		.loc 11 43 10 is_stmt 1 view .LVU89
 501              	.LBB498:
  45:Display/../../libs/PoliTeKDSP/libs/libDaisy/src/dev/oled_ssd130x.h ****         i2c_.TransmitBlocking(i2c_address_, buf, 2, 1000);
 502              		.loc 11 45 9 view .LVU90
  46:Display/../../libs/PoliTeKDSP/libs/libDaisy/src/dev/oled_ssd130x.h ****     };
 503              		.loc 11 46 30 is_stmt 0 view .LVU91
 504 0018 4FF47A7B 		mov	fp, #1000
  45:Display/../../libs/PoliTeKDSP/libs/libDaisy/src/dev/oled_ssd130x.h ****         i2c_.TransmitBlocking(i2c_address_, buf, 2, 1000);
 505              		.loc 11 45 17 view .LVU92
 506 001c 4FF0000A 		mov	r10, #0
  46:Display/../../libs/PoliTeKDSP/libs/libDaisy/src/dev/oled_ssd130x.h ****     };
 507              		.loc 11 46 30 view .LVU93
 508 0020 297B     		ldrb	r1, [r5, #12]	@ zero_extendqisi2
 509 0022 0223     		movs	r3, #2
 510 0024 03AA     		add	r2, sp, #12
 511 0026 3846     		mov	r0, r7
 512 0028 CDF800B0 		str	fp, [sp]
 513 002c A6F18004 		sub	r4, r6, #128
  45:Display/../../libs/PoliTeKDSP/libs/libDaisy/src/dev/oled_ssd130x.h ****         i2c_.TransmitBlocking(i2c_address_, buf, 2, 1000);
 514              		.loc 11 45 17 view .LVU94
 515 0030 8DF80CA0 		strb	r10, [sp, #12]
  45:Display/../../libs/PoliTeKDSP/libs/libDaisy/src/dev/oled_ssd130x.h ****         i2c_.TransmitBlocking(i2c_address_, buf, 2, 1000);
 516              		.loc 11 45 36 view .LVU95
 517 0034 8DF80D80 		strb	r8, [sp, #13]
  46:Display/../../libs/PoliTeKDSP/libs/libDaisy/src/dev/oled_ssd130x.h ****     };
 518              		.loc 11 46 9 is_stmt 1 view .LVU96
  46:Display/../../libs/PoliTeKDSP/libs/libDaisy/src/dev/oled_ssd130x.h ****     };
 519              		.loc 11 46 30 is_stmt 0 view .LVU97
 520 0038 FFF7FEFF 		bl	_ZN5daisy9I2CHandle16TransmitBlockingEtPhtm
 521              	.LVL33:
  46:Display/../../libs/PoliTeKDSP/libs/libDaisy/src/dev/oled_ssd130x.h ****     };
 522              		.loc 11 46 30 view .LVU98
 523              	.LBE498:
 524              	.LBE499:
 525              	.LBB500:
 526              	.LBI500:
  43:Display/../../libs/PoliTeKDSP/libs/libDaisy/src/dev/oled_ssd130x.h ****     {
 527              		.loc 11 43 10 is_stmt 1 view .LVU99
 528              	.LBB501:
  45:Display/../../libs/PoliTeKDSP/libs/libDaisy/src/dev/oled_ssd130x.h ****         i2c_.TransmitBlocking(i2c_address_, buf, 2, 1000);
 529              		.loc 11 45 9 view .LVU100
  46:Display/../../libs/PoliTeKDSP/libs/libDaisy/src/dev/oled_ssd130x.h ****     };
 530              		.loc 11 46 30 is_stmt 0 view .LVU101
 531 003c 297B     		ldrb	r1, [r5, #12]	@ zero_extendqisi2
 532 003e 0223     		movs	r3, #2
 533 0040 03AA     		add	r2, sp, #12
 534 0042 3846     		mov	r0, r7
 535 0044 CDF800B0 		str	fp, [sp]
  45:Display/../../libs/PoliTeKDSP/libs/libDaisy/src/dev/oled_ssd130x.h ****         i2c_.TransmitBlocking(i2c_address_, buf, 2, 1000);
 536              		.loc 11 45 17 view .LVU102
 537 0048 8DF80CA0 		strb	r10, [sp, #12]
  45:Display/../../libs/PoliTeKDSP/libs/libDaisy/src/dev/oled_ssd130x.h ****         i2c_.TransmitBlocking(i2c_address_, buf, 2, 1000);
 538              		.loc 11 45 36 view .LVU103
 539 004c 8DF80DA0 		strb	r10, [sp, #13]
  46:Display/../../libs/PoliTeKDSP/libs/libDaisy/src/dev/oled_ssd130x.h ****     };
 540              		.loc 11 46 9 is_stmt 1 view .LVU104
ARM GAS  C:\Users\skipi\AppData\Local\Temp\cc9eAo3V.s 			page 32


  46:Display/../../libs/PoliTeKDSP/libs/libDaisy/src/dev/oled_ssd130x.h ****     };
 541              		.loc 11 46 30 is_stmt 0 view .LVU105
 542 0050 FFF7FEFF 		bl	_ZN5daisy9I2CHandle16TransmitBlockingEtPhtm
 543              	.LVL34:
  46:Display/../../libs/PoliTeKDSP/libs/libDaisy/src/dev/oled_ssd130x.h ****     };
 544              		.loc 11 46 30 view .LVU106
 545              	.LBE501:
 546              	.LBE500:
 547              	.LBB502:
 548              	.LBI502:
  43:Display/../../libs/PoliTeKDSP/libs/libDaisy/src/dev/oled_ssd130x.h ****     {
 549              		.loc 11 43 10 is_stmt 1 view .LVU107
 550              	.LBB503:
  45:Display/../../libs/PoliTeKDSP/libs/libDaisy/src/dev/oled_ssd130x.h ****         i2c_.TransmitBlocking(i2c_address_, buf, 2, 1000);
 551              		.loc 11 45 9 view .LVU108
  45:Display/../../libs/PoliTeKDSP/libs/libDaisy/src/dev/oled_ssd130x.h ****         i2c_.TransmitBlocking(i2c_address_, buf, 2, 1000);
 552              		.loc 11 45 36 is_stmt 0 view .LVU109
 553 0054 4FF0100C 		mov	ip, #16
  46:Display/../../libs/PoliTeKDSP/libs/libDaisy/src/dev/oled_ssd130x.h ****     };
 554              		.loc 11 46 30 view .LVU110
 555 0058 297B     		ldrb	r1, [r5, #12]	@ zero_extendqisi2
 556 005a 0223     		movs	r3, #2
 557 005c 03AA     		add	r2, sp, #12
 558 005e 3846     		mov	r0, r7
 559 0060 CDF800B0 		str	fp, [sp]
  45:Display/../../libs/PoliTeKDSP/libs/libDaisy/src/dev/oled_ssd130x.h ****         i2c_.TransmitBlocking(i2c_address_, buf, 2, 1000);
 560              		.loc 11 45 17 view .LVU111
 561 0064 8DF80CA0 		strb	r10, [sp, #12]
  45:Display/../../libs/PoliTeKDSP/libs/libDaisy/src/dev/oled_ssd130x.h ****         i2c_.TransmitBlocking(i2c_address_, buf, 2, 1000);
 562              		.loc 11 45 36 view .LVU112
 563 0068 8DF80DC0 		strb	ip, [sp, #13]
  46:Display/../../libs/PoliTeKDSP/libs/libDaisy/src/dev/oled_ssd130x.h ****     };
 564              		.loc 11 46 9 is_stmt 1 view .LVU113
  46:Display/../../libs/PoliTeKDSP/libs/libDaisy/src/dev/oled_ssd130x.h ****     };
 565              		.loc 11 46 30 is_stmt 0 view .LVU114
 566 006c FFF7FEFF 		bl	_ZN5daisy9I2CHandle16TransmitBlockingEtPhtm
 567              	.LVL35:
  46:Display/../../libs/PoliTeKDSP/libs/libDaisy/src/dev/oled_ssd130x.h ****     };
 568              		.loc 11 46 30 view .LVU115
 569              	.LBE503:
 570              	.LBE502:
 571              	.LBB504:
 572              	.LBI504:
  49:Display/../../libs/PoliTeKDSP/libs/libDaisy/src/dev/oled_ssd130x.h ****     {
 573              		.loc 11 49 10 is_stmt 1 view .LVU116
 574              	.LBB505:
  51:Display/../../libs/PoliTeKDSP/libs/libDaisy/src/dev/oled_ssd130x.h ****         {
 575              		.loc 11 51 29 view .LVU117
 576              	.L25:
 577              	.LBB506:
  53:Display/../../libs/PoliTeKDSP/libs/libDaisy/src/dev/oled_ssd130x.h ****             i2c_.TransmitBlocking(i2c_address_, buf, 2, 1000);
 578              		.loc 11 53 13 view .LVU118
  54:Display/../../libs/PoliTeKDSP/libs/libDaisy/src/dev/oled_ssd130x.h ****         }
 579              		.loc 11 54 34 is_stmt 0 view .LVU119
 580 0070 4FF47A70 		mov	r0, #1000
  53:Display/../../libs/PoliTeKDSP/libs/libDaisy/src/dev/oled_ssd130x.h ****             i2c_.TransmitBlocking(i2c_address_, buf, 2, 1000);
 581              		.loc 11 53 44 view .LVU120
ARM GAS  C:\Users\skipi\AppData\Local\Temp\cc9eAo3V.s 			page 33


 582 0074 14F801CF 		ldrb	ip, [r4, #1]!	@ zero_extendqisi2
 583              	.LVL36:
  53:Display/../../libs/PoliTeKDSP/libs/libDaisy/src/dev/oled_ssd130x.h ****             i2c_.TransmitBlocking(i2c_address_, buf, 2, 1000);
 584              		.loc 11 53 21 view .LVU121
 585 0078 4FF0400E 		mov	lr, #64
  54:Display/../../libs/PoliTeKDSP/libs/libDaisy/src/dev/oled_ssd130x.h ****         }
 586              		.loc 11 54 34 view .LVU122
 587 007c 297B     		ldrb	r1, [r5, #12]	@ zero_extendqisi2
 588 007e 0223     		movs	r3, #2
 589 0080 0090     		str	r0, [sp]
 590 0082 03AA     		add	r2, sp, #12
 591 0084 3846     		mov	r0, r7
  53:Display/../../libs/PoliTeKDSP/libs/libDaisy/src/dev/oled_ssd130x.h ****             i2c_.TransmitBlocking(i2c_address_, buf, 2, 1000);
 592              		.loc 11 53 21 view .LVU123
 593 0086 8DF80CE0 		strb	lr, [sp, #12]
  53:Display/../../libs/PoliTeKDSP/libs/libDaisy/src/dev/oled_ssd130x.h ****             i2c_.TransmitBlocking(i2c_address_, buf, 2, 1000);
 594              		.loc 11 53 44 view .LVU124
 595 008a 8DF80DC0 		strb	ip, [sp, #13]
  54:Display/../../libs/PoliTeKDSP/libs/libDaisy/src/dev/oled_ssd130x.h ****         }
 596              		.loc 11 54 13 is_stmt 1 view .LVU125
  54:Display/../../libs/PoliTeKDSP/libs/libDaisy/src/dev/oled_ssd130x.h ****         }
 597              		.loc 11 54 34 is_stmt 0 view .LVU126
 598 008e FFF7FEFF 		bl	_ZN5daisy9I2CHandle16TransmitBlockingEtPhtm
 599              	.LVL37:
 600              	.LBE506:
  51:Display/../../libs/PoliTeKDSP/libs/libDaisy/src/dev/oled_ssd130x.h ****         {
 601              		.loc 11 51 9 is_stmt 1 view .LVU127
  51:Display/../../libs/PoliTeKDSP/libs/libDaisy/src/dev/oled_ssd130x.h ****         {
 602              		.loc 11 51 29 view .LVU128
 603 0092 B442     		cmp	r4, r6
 604 0094 ECD1     		bne	.L25
 605              	.LVL38:
  51:Display/../../libs/PoliTeKDSP/libs/libDaisy/src/dev/oled_ssd130x.h ****         {
 606              		.loc 11 51 29 is_stmt 0 view .LVU129
 607              	.LBE505:
 608              	.LBE504:
 609              		.loc 11 392 9 is_stmt 1 view .LVU130
 610              		.loc 11 392 22 view .LVU131
 611 0096 04F18006 		add	r6, r4, #128
 612 009a 08F10108 		add	r8, r8, #1
 613              	.LVL39:
 614              		.loc 11 392 22 is_stmt 0 view .LVU132
 615 009e 4E45     		cmp	r6, r9
 616 00a0 5FFA88F8 		uxtb	r8, r8
 617 00a4 B8D1     		bne	.L26
 618              	.LBE507:
 619              	.LBE508:
  51:../libs/PoliTeKDSP/libs/libDaisy/src/hid/disp/oled_display.h **** 
 620              		.loc 9 51 48 view .LVU133
 621 00a6 05B0     		add	sp, sp, #20
 622              		.cfi_def_cfa_offset 36
 623              		@ sp needed
 624 00a8 BDE8F08F 		pop	{r4, r5, r6, r7, r8, r9, r10, fp, pc}
  51:../libs/PoliTeKDSP/libs/libDaisy/src/hid/disp/oled_display.h **** 
 625              		.loc 9 51 48 view .LVU134
 626              		.cfi_endproc
 627              	.LFE5560:
ARM GAS  C:\Users\skipi\AppData\Local\Temp\cc9eAo3V.s 			page 34


 629              		.section	.text._ZN5daisy25OneBitGraphicsDisplayImplINS_11OledDisplayINS_13SSD130xDriverILj128ELj64
 630              		.align	1
 631              		.p2align 2,,3
 632              		.weak	_ZN5daisy25OneBitGraphicsDisplayImplINS_11OledDisplayINS_13SSD130xDriverILj128ELj64ENS_19SSD
 633              		.syntax unified
 634              		.thumb
 635              		.thumb_func
 636              		.fpu fpv5-d16
 638              	_ZN5daisy25OneBitGraphicsDisplayImplINS_11OledDisplayINS_13SSD130xDriverILj128ELj64ENS_19SSD130xI2C
 639              	.LVL40:
 640              	.LFB5558:
 225:../libs/PoliTeKDSP/libs/libDaisy/src/hid/disp/display.h **** 
 226:../libs/PoliTeKDSP/libs/libDaisy/src/hid/disp/display.h ****     void DrawLine(uint_fast8_t x1,
 227:../libs/PoliTeKDSP/libs/libDaisy/src/hid/disp/display.h ****                   uint_fast8_t y1,
 228:../libs/PoliTeKDSP/libs/libDaisy/src/hid/disp/display.h ****                   uint_fast8_t x2,
 229:../libs/PoliTeKDSP/libs/libDaisy/src/hid/disp/display.h ****                   uint_fast8_t y2,
 230:../libs/PoliTeKDSP/libs/libDaisy/src/hid/disp/display.h ****                   bool         on) override
 231:../libs/PoliTeKDSP/libs/libDaisy/src/hid/disp/display.h ****     {
 232:../libs/PoliTeKDSP/libs/libDaisy/src/hid/disp/display.h ****         int_fast16_t deltaX = abs((int_fast16_t)x2 - (int_fast16_t)x1);
 233:../libs/PoliTeKDSP/libs/libDaisy/src/hid/disp/display.h ****         int_fast16_t deltaY = abs((int_fast16_t)y2 - (int_fast16_t)y1);
 234:../libs/PoliTeKDSP/libs/libDaisy/src/hid/disp/display.h ****         int_fast16_t signX  = ((x1 < x2) ? 1 : -1);
 235:../libs/PoliTeKDSP/libs/libDaisy/src/hid/disp/display.h ****         int_fast16_t signY  = ((y1 < y2) ? 1 : -1);
 236:../libs/PoliTeKDSP/libs/libDaisy/src/hid/disp/display.h ****         int_fast16_t error  = deltaX - deltaY;
 237:../libs/PoliTeKDSP/libs/libDaisy/src/hid/disp/display.h ****         int_fast16_t error2;
 238:../libs/PoliTeKDSP/libs/libDaisy/src/hid/disp/display.h **** 
 239:../libs/PoliTeKDSP/libs/libDaisy/src/hid/disp/display.h ****         // If we write "ChildType::DrawPixel(x2, y2, on);", we end up with
 240:../libs/PoliTeKDSP/libs/libDaisy/src/hid/disp/display.h ****         // all sorts of weird compiler errors when the Child class is a template
 241:../libs/PoliTeKDSP/libs/libDaisy/src/hid/disp/display.h ****         // class. The only way around this is to use this very verbose syntax:
 242:../libs/PoliTeKDSP/libs/libDaisy/src/hid/disp/display.h ****         ((ChildType*)(this))->ChildType::DrawPixel(x2, y2, on);
 243:../libs/PoliTeKDSP/libs/libDaisy/src/hid/disp/display.h **** 
 244:../libs/PoliTeKDSP/libs/libDaisy/src/hid/disp/display.h ****         while((x1 != x2) || (y1 != y2))
 245:../libs/PoliTeKDSP/libs/libDaisy/src/hid/disp/display.h ****         {
 246:../libs/PoliTeKDSP/libs/libDaisy/src/hid/disp/display.h ****             ((ChildType*)(this))->ChildType::DrawPixel(x1, y1, on);
 247:../libs/PoliTeKDSP/libs/libDaisy/src/hid/disp/display.h ****             error2 = error * 2;
 248:../libs/PoliTeKDSP/libs/libDaisy/src/hid/disp/display.h ****             if(error2 > -deltaY)
 249:../libs/PoliTeKDSP/libs/libDaisy/src/hid/disp/display.h ****             {
 250:../libs/PoliTeKDSP/libs/libDaisy/src/hid/disp/display.h ****                 error -= deltaY;
 251:../libs/PoliTeKDSP/libs/libDaisy/src/hid/disp/display.h ****                 x1 += signX;
 252:../libs/PoliTeKDSP/libs/libDaisy/src/hid/disp/display.h ****             }
 253:../libs/PoliTeKDSP/libs/libDaisy/src/hid/disp/display.h **** 
 254:../libs/PoliTeKDSP/libs/libDaisy/src/hid/disp/display.h ****             if(error2 < deltaX)
 255:../libs/PoliTeKDSP/libs/libDaisy/src/hid/disp/display.h ****             {
 256:../libs/PoliTeKDSP/libs/libDaisy/src/hid/disp/display.h ****                 error += deltaX;
 257:../libs/PoliTeKDSP/libs/libDaisy/src/hid/disp/display.h ****                 y1 += signY;
 258:../libs/PoliTeKDSP/libs/libDaisy/src/hid/disp/display.h ****             }
 259:../libs/PoliTeKDSP/libs/libDaisy/src/hid/disp/display.h ****         }
 260:../libs/PoliTeKDSP/libs/libDaisy/src/hid/disp/display.h ****     }
 261:../libs/PoliTeKDSP/libs/libDaisy/src/hid/disp/display.h **** 
 262:../libs/PoliTeKDSP/libs/libDaisy/src/hid/disp/display.h ****     void DrawRect(uint_fast8_t x1,
 263:../libs/PoliTeKDSP/libs/libDaisy/src/hid/disp/display.h ****                   uint_fast8_t y1,
 264:../libs/PoliTeKDSP/libs/libDaisy/src/hid/disp/display.h ****                   uint_fast8_t x2,
 265:../libs/PoliTeKDSP/libs/libDaisy/src/hid/disp/display.h ****                   uint_fast8_t y2,
 266:../libs/PoliTeKDSP/libs/libDaisy/src/hid/disp/display.h ****                   bool         on,
 267:../libs/PoliTeKDSP/libs/libDaisy/src/hid/disp/display.h ****                   bool         fill = false) override
 268:../libs/PoliTeKDSP/libs/libDaisy/src/hid/disp/display.h ****     {
 269:../libs/PoliTeKDSP/libs/libDaisy/src/hid/disp/display.h ****         if(fill)
 270:../libs/PoliTeKDSP/libs/libDaisy/src/hid/disp/display.h ****         {
ARM GAS  C:\Users\skipi\AppData\Local\Temp\cc9eAo3V.s 			page 35


 271:../libs/PoliTeKDSP/libs/libDaisy/src/hid/disp/display.h ****             for(uint_fast8_t x = x1; x <= x2; x++)
 272:../libs/PoliTeKDSP/libs/libDaisy/src/hid/disp/display.h ****             {
 273:../libs/PoliTeKDSP/libs/libDaisy/src/hid/disp/display.h ****                 for(uint_fast8_t y = y1; y <= y2; y++)
 274:../libs/PoliTeKDSP/libs/libDaisy/src/hid/disp/display.h ****                 {
 275:../libs/PoliTeKDSP/libs/libDaisy/src/hid/disp/display.h ****                     ((ChildType*)(this))->ChildType::DrawPixel(x, y, on);
 276:../libs/PoliTeKDSP/libs/libDaisy/src/hid/disp/display.h ****                 }
 277:../libs/PoliTeKDSP/libs/libDaisy/src/hid/disp/display.h ****             }
 278:../libs/PoliTeKDSP/libs/libDaisy/src/hid/disp/display.h ****         }
 279:../libs/PoliTeKDSP/libs/libDaisy/src/hid/disp/display.h ****         else
 280:../libs/PoliTeKDSP/libs/libDaisy/src/hid/disp/display.h ****         {
 281:../libs/PoliTeKDSP/libs/libDaisy/src/hid/disp/display.h ****             ((ChildType*)(this))->ChildType::DrawLine(x1, y1, x2, y1, on);
 282:../libs/PoliTeKDSP/libs/libDaisy/src/hid/disp/display.h ****             ((ChildType*)(this))->ChildType::DrawLine(x2, y1, x2, y2, on);
 283:../libs/PoliTeKDSP/libs/libDaisy/src/hid/disp/display.h ****             ((ChildType*)(this))->ChildType::DrawLine(x2, y2, x1, y2, on);
 284:../libs/PoliTeKDSP/libs/libDaisy/src/hid/disp/display.h ****             ((ChildType*)(this))->ChildType::DrawLine(x1, y2, x1, y1, on);
 285:../libs/PoliTeKDSP/libs/libDaisy/src/hid/disp/display.h ****         }
 286:../libs/PoliTeKDSP/libs/libDaisy/src/hid/disp/display.h ****     }
 287:../libs/PoliTeKDSP/libs/libDaisy/src/hid/disp/display.h **** 
 288:../libs/PoliTeKDSP/libs/libDaisy/src/hid/disp/display.h ****     void DrawArc(uint_fast8_t x,
 289:../libs/PoliTeKDSP/libs/libDaisy/src/hid/disp/display.h ****                  uint_fast8_t y,
 290:../libs/PoliTeKDSP/libs/libDaisy/src/hid/disp/display.h ****                  uint_fast8_t radius,
 291:../libs/PoliTeKDSP/libs/libDaisy/src/hid/disp/display.h ****                  int_fast16_t start_angle,
 292:../libs/PoliTeKDSP/libs/libDaisy/src/hid/disp/display.h ****                  int_fast16_t sweep,
 293:../libs/PoliTeKDSP/libs/libDaisy/src/hid/disp/display.h ****                  bool         on) override
 294:../libs/PoliTeKDSP/libs/libDaisy/src/hid/disp/display.h ****     {
 295:../libs/PoliTeKDSP/libs/libDaisy/src/hid/disp/display.h ****         // Values to calculate the circle
 296:../libs/PoliTeKDSP/libs/libDaisy/src/hid/disp/display.h ****         int_fast16_t t_x, t_y, err, e2;
 297:../libs/PoliTeKDSP/libs/libDaisy/src/hid/disp/display.h **** 
 298:../libs/PoliTeKDSP/libs/libDaisy/src/hid/disp/display.h ****         // Temporary values to speed up comparisons
 299:../libs/PoliTeKDSP/libs/libDaisy/src/hid/disp/display.h ****         float t_sxy, t_syx, t_sxny, t_synx;
 300:../libs/PoliTeKDSP/libs/libDaisy/src/hid/disp/display.h ****         float t_exy, t_eyx, t_exny, t_eynx;
 301:../libs/PoliTeKDSP/libs/libDaisy/src/hid/disp/display.h **** 
 302:../libs/PoliTeKDSP/libs/libDaisy/src/hid/disp/display.h ****         float start_angle_rad, end_angle_rad;
 303:../libs/PoliTeKDSP/libs/libDaisy/src/hid/disp/display.h ****         float start_x, start_y, end_x, end_y;
 304:../libs/PoliTeKDSP/libs/libDaisy/src/hid/disp/display.h **** 
 305:../libs/PoliTeKDSP/libs/libDaisy/src/hid/disp/display.h ****         bool d1, d2, d3, d4;
 306:../libs/PoliTeKDSP/libs/libDaisy/src/hid/disp/display.h **** 
 307:../libs/PoliTeKDSP/libs/libDaisy/src/hid/disp/display.h ****         d1 = d2 = d3 = d4 = true;
 308:../libs/PoliTeKDSP/libs/libDaisy/src/hid/disp/display.h **** 
 309:../libs/PoliTeKDSP/libs/libDaisy/src/hid/disp/display.h ****         bool circle = false;
 310:../libs/PoliTeKDSP/libs/libDaisy/src/hid/disp/display.h **** 
 311:../libs/PoliTeKDSP/libs/libDaisy/src/hid/disp/display.h ****         if(sweep < 0)
 312:../libs/PoliTeKDSP/libs/libDaisy/src/hid/disp/display.h ****         {
 313:../libs/PoliTeKDSP/libs/libDaisy/src/hid/disp/display.h ****             start_angle += sweep;
 314:../libs/PoliTeKDSP/libs/libDaisy/src/hid/disp/display.h ****             sweep = -sweep;
 315:../libs/PoliTeKDSP/libs/libDaisy/src/hid/disp/display.h ****         }
 316:../libs/PoliTeKDSP/libs/libDaisy/src/hid/disp/display.h **** 
 317:../libs/PoliTeKDSP/libs/libDaisy/src/hid/disp/display.h ****         start_angle_rad = deg2rad(start_angle);
 318:../libs/PoliTeKDSP/libs/libDaisy/src/hid/disp/display.h ****         end_angle_rad   = deg2rad(start_angle + sweep);
 319:../libs/PoliTeKDSP/libs/libDaisy/src/hid/disp/display.h **** 
 320:../libs/PoliTeKDSP/libs/libDaisy/src/hid/disp/display.h ****         start_x = cos(start_angle_rad) * radius;
 321:../libs/PoliTeKDSP/libs/libDaisy/src/hid/disp/display.h ****         start_y = -sin(start_angle_rad) * radius;
 322:../libs/PoliTeKDSP/libs/libDaisy/src/hid/disp/display.h ****         end_x   = cos(end_angle_rad) * radius;
 323:../libs/PoliTeKDSP/libs/libDaisy/src/hid/disp/display.h ****         end_y   = -sin(end_angle_rad) * radius;
 324:../libs/PoliTeKDSP/libs/libDaisy/src/hid/disp/display.h **** 
 325:../libs/PoliTeKDSP/libs/libDaisy/src/hid/disp/display.h ****         // Check if start and endpoint are very near
 326:../libs/PoliTeKDSP/libs/libDaisy/src/hid/disp/display.h ****         if((end_x - start_x) * (end_x - start_x)
 327:../libs/PoliTeKDSP/libs/libDaisy/src/hid/disp/display.h ****                + (end_y - start_y) * (end_y - start_y)
ARM GAS  C:\Users\skipi\AppData\Local\Temp\cc9eAo3V.s 			page 36


 328:../libs/PoliTeKDSP/libs/libDaisy/src/hid/disp/display.h ****            < 2.0f)
 329:../libs/PoliTeKDSP/libs/libDaisy/src/hid/disp/display.h ****         {
 330:../libs/PoliTeKDSP/libs/libDaisy/src/hid/disp/display.h ****             if(sweep > 180)
 331:../libs/PoliTeKDSP/libs/libDaisy/src/hid/disp/display.h ****                 circle = true;
 332:../libs/PoliTeKDSP/libs/libDaisy/src/hid/disp/display.h ****             else
 333:../libs/PoliTeKDSP/libs/libDaisy/src/hid/disp/display.h ****                 // Nothing to draw
 334:../libs/PoliTeKDSP/libs/libDaisy/src/hid/disp/display.h ****                 return;
 335:../libs/PoliTeKDSP/libs/libDaisy/src/hid/disp/display.h ****         }
 336:../libs/PoliTeKDSP/libs/libDaisy/src/hid/disp/display.h **** 
 337:../libs/PoliTeKDSP/libs/libDaisy/src/hid/disp/display.h ****         t_x = -radius;
 338:../libs/PoliTeKDSP/libs/libDaisy/src/hid/disp/display.h ****         t_y = 0;
 339:../libs/PoliTeKDSP/libs/libDaisy/src/hid/disp/display.h ****         err = 2 - 2 * radius;
 340:../libs/PoliTeKDSP/libs/libDaisy/src/hid/disp/display.h **** 
 341:../libs/PoliTeKDSP/libs/libDaisy/src/hid/disp/display.h ****         do
 342:../libs/PoliTeKDSP/libs/libDaisy/src/hid/disp/display.h ****         {
 343:../libs/PoliTeKDSP/libs/libDaisy/src/hid/disp/display.h ****             if(!circle)
 344:../libs/PoliTeKDSP/libs/libDaisy/src/hid/disp/display.h ****             {
 345:../libs/PoliTeKDSP/libs/libDaisy/src/hid/disp/display.h ****                 t_sxy  = start_x * t_y;
 346:../libs/PoliTeKDSP/libs/libDaisy/src/hid/disp/display.h ****                 t_syx  = start_y * t_x;
 347:../libs/PoliTeKDSP/libs/libDaisy/src/hid/disp/display.h ****                 t_sxny = start_x * -t_y;
 348:../libs/PoliTeKDSP/libs/libDaisy/src/hid/disp/display.h ****                 t_synx = start_y * -t_x;
 349:../libs/PoliTeKDSP/libs/libDaisy/src/hid/disp/display.h ****                 t_exy  = end_x * t_y;
 350:../libs/PoliTeKDSP/libs/libDaisy/src/hid/disp/display.h ****                 t_eyx  = end_y * t_x;
 351:../libs/PoliTeKDSP/libs/libDaisy/src/hid/disp/display.h ****                 t_exny = end_x * -t_y;
 352:../libs/PoliTeKDSP/libs/libDaisy/src/hid/disp/display.h ****                 t_eynx = end_y * -t_x;
 353:../libs/PoliTeKDSP/libs/libDaisy/src/hid/disp/display.h **** 
 354:../libs/PoliTeKDSP/libs/libDaisy/src/hid/disp/display.h ****                 if(sweep > 180)
 355:../libs/PoliTeKDSP/libs/libDaisy/src/hid/disp/display.h ****                 {
 356:../libs/PoliTeKDSP/libs/libDaisy/src/hid/disp/display.h ****                     d1 = (t_sxy - t_synx < 0 || t_exy - t_eynx > 0);
 357:../libs/PoliTeKDSP/libs/libDaisy/src/hid/disp/display.h ****                     d2 = (t_sxy - t_syx < 0 || t_exy - t_eyx > 0);
 358:../libs/PoliTeKDSP/libs/libDaisy/src/hid/disp/display.h ****                     d3 = (t_sxny - t_syx < 0 || t_exny - t_eyx > 0);
 359:../libs/PoliTeKDSP/libs/libDaisy/src/hid/disp/display.h ****                     d4 = (t_sxny - t_synx < 0 || t_exny - t_eynx > 0);
 360:../libs/PoliTeKDSP/libs/libDaisy/src/hid/disp/display.h ****                 }
 361:../libs/PoliTeKDSP/libs/libDaisy/src/hid/disp/display.h ****                 else
 362:../libs/PoliTeKDSP/libs/libDaisy/src/hid/disp/display.h ****                 {
 363:../libs/PoliTeKDSP/libs/libDaisy/src/hid/disp/display.h ****                     d1 = (t_sxy - t_synx < 0 && t_exy - t_eynx > 0);
 364:../libs/PoliTeKDSP/libs/libDaisy/src/hid/disp/display.h ****                     d2 = (t_sxy - t_syx < 0 && t_exy - t_eyx > 0);
 365:../libs/PoliTeKDSP/libs/libDaisy/src/hid/disp/display.h ****                     d3 = (t_sxny - t_syx < 0 && t_exny - t_eyx > 0);
 366:../libs/PoliTeKDSP/libs/libDaisy/src/hid/disp/display.h ****                     d4 = (t_sxny - t_synx < 0 && t_exny - t_eynx > 0);
 367:../libs/PoliTeKDSP/libs/libDaisy/src/hid/disp/display.h ****                 }
 368:../libs/PoliTeKDSP/libs/libDaisy/src/hid/disp/display.h ****             }
 369:../libs/PoliTeKDSP/libs/libDaisy/src/hid/disp/display.h **** 
 370:../libs/PoliTeKDSP/libs/libDaisy/src/hid/disp/display.h ****             if(d1)
 371:../libs/PoliTeKDSP/libs/libDaisy/src/hid/disp/display.h ****                 ((ChildType*)(this))
 372:../libs/PoliTeKDSP/libs/libDaisy/src/hid/disp/display.h ****                     ->ChildType::DrawPixel(x - t_x, y + t_y, on);
 373:../libs/PoliTeKDSP/libs/libDaisy/src/hid/disp/display.h ****             if(d2)
 374:../libs/PoliTeKDSP/libs/libDaisy/src/hid/disp/display.h ****                 ((ChildType*)(this))
 375:../libs/PoliTeKDSP/libs/libDaisy/src/hid/disp/display.h ****                     ->ChildType::DrawPixel(x + t_x, y + t_y, on);
 376:../libs/PoliTeKDSP/libs/libDaisy/src/hid/disp/display.h ****             if(d3)
 377:../libs/PoliTeKDSP/libs/libDaisy/src/hid/disp/display.h ****                 ((ChildType*)(this))
 378:../libs/PoliTeKDSP/libs/libDaisy/src/hid/disp/display.h ****                     ->ChildType::DrawPixel(x + t_x, y - t_y, on);
 379:../libs/PoliTeKDSP/libs/libDaisy/src/hid/disp/display.h ****             if(d4)
 380:../libs/PoliTeKDSP/libs/libDaisy/src/hid/disp/display.h ****                 ((ChildType*)(this))
 381:../libs/PoliTeKDSP/libs/libDaisy/src/hid/disp/display.h ****                     ->ChildType::DrawPixel(x - t_x, y - t_y, on);
 382:../libs/PoliTeKDSP/libs/libDaisy/src/hid/disp/display.h **** 
 383:../libs/PoliTeKDSP/libs/libDaisy/src/hid/disp/display.h ****             e2 = err;
 384:../libs/PoliTeKDSP/libs/libDaisy/src/hid/disp/display.h ****             if(e2 <= t_y)
ARM GAS  C:\Users\skipi\AppData\Local\Temp\cc9eAo3V.s 			page 37


 385:../libs/PoliTeKDSP/libs/libDaisy/src/hid/disp/display.h ****             {
 386:../libs/PoliTeKDSP/libs/libDaisy/src/hid/disp/display.h ****                 t_y++;
 387:../libs/PoliTeKDSP/libs/libDaisy/src/hid/disp/display.h ****                 err = err + (t_y * 2 + 1);
 388:../libs/PoliTeKDSP/libs/libDaisy/src/hid/disp/display.h ****                 if(-t_x == t_y && e2 <= t_x)
 389:../libs/PoliTeKDSP/libs/libDaisy/src/hid/disp/display.h ****                 {
 390:../libs/PoliTeKDSP/libs/libDaisy/src/hid/disp/display.h ****                     e2 = 0;
 391:../libs/PoliTeKDSP/libs/libDaisy/src/hid/disp/display.h ****                 }
 392:../libs/PoliTeKDSP/libs/libDaisy/src/hid/disp/display.h ****             }
 393:../libs/PoliTeKDSP/libs/libDaisy/src/hid/disp/display.h ****             if(e2 > t_x)
 394:../libs/PoliTeKDSP/libs/libDaisy/src/hid/disp/display.h ****             {
 395:../libs/PoliTeKDSP/libs/libDaisy/src/hid/disp/display.h ****                 t_x++;
 396:../libs/PoliTeKDSP/libs/libDaisy/src/hid/disp/display.h ****                 err = err + (t_x * 2 + 1);
 397:../libs/PoliTeKDSP/libs/libDaisy/src/hid/disp/display.h ****             }
 398:../libs/PoliTeKDSP/libs/libDaisy/src/hid/disp/display.h ****         } while(t_x <= 0);
 399:../libs/PoliTeKDSP/libs/libDaisy/src/hid/disp/display.h ****     }
 400:../libs/PoliTeKDSP/libs/libDaisy/src/hid/disp/display.h **** 
 401:../libs/PoliTeKDSP/libs/libDaisy/src/hid/disp/display.h ****     char WriteChar(char ch, FontDef font, bool on) override
 402:../libs/PoliTeKDSP/libs/libDaisy/src/hid/disp/display.h ****     {
 403:../libs/PoliTeKDSP/libs/libDaisy/src/hid/disp/display.h ****         uint32_t i, b, j;
 404:../libs/PoliTeKDSP/libs/libDaisy/src/hid/disp/display.h **** 
 405:../libs/PoliTeKDSP/libs/libDaisy/src/hid/disp/display.h ****         // Check if character is valid
 406:../libs/PoliTeKDSP/libs/libDaisy/src/hid/disp/display.h ****         if(ch < 32 || ch > 126)
 407:../libs/PoliTeKDSP/libs/libDaisy/src/hid/disp/display.h ****             return 0;
 408:../libs/PoliTeKDSP/libs/libDaisy/src/hid/disp/display.h **** 
 409:../libs/PoliTeKDSP/libs/libDaisy/src/hid/disp/display.h ****         // Check remaining space on current line
 410:../libs/PoliTeKDSP/libs/libDaisy/src/hid/disp/display.h ****         if(Width() < (currentX_ + font.FontWidth)
 411:../libs/PoliTeKDSP/libs/libDaisy/src/hid/disp/display.h ****            || Height() < (currentY_ + font.FontHeight))
 412:../libs/PoliTeKDSP/libs/libDaisy/src/hid/disp/display.h ****         {
 413:../libs/PoliTeKDSP/libs/libDaisy/src/hid/disp/display.h ****             // Not enough space on current line
 414:../libs/PoliTeKDSP/libs/libDaisy/src/hid/disp/display.h ****             return 0;
 415:../libs/PoliTeKDSP/libs/libDaisy/src/hid/disp/display.h ****         }
 416:../libs/PoliTeKDSP/libs/libDaisy/src/hid/disp/display.h **** 
 417:../libs/PoliTeKDSP/libs/libDaisy/src/hid/disp/display.h ****         // Use the font to write
 418:../libs/PoliTeKDSP/libs/libDaisy/src/hid/disp/display.h ****         for(i = 0; i < font.FontHeight; i++)
 419:../libs/PoliTeKDSP/libs/libDaisy/src/hid/disp/display.h ****         {
 420:../libs/PoliTeKDSP/libs/libDaisy/src/hid/disp/display.h ****             b = font.data[(ch - 32) * font.FontHeight + i];
 421:../libs/PoliTeKDSP/libs/libDaisy/src/hid/disp/display.h ****             for(j = 0; j < font.FontWidth; j++)
 422:../libs/PoliTeKDSP/libs/libDaisy/src/hid/disp/display.h ****             {
 423:../libs/PoliTeKDSP/libs/libDaisy/src/hid/disp/display.h ****                 if((b << j) & 0x8000)
 424:../libs/PoliTeKDSP/libs/libDaisy/src/hid/disp/display.h ****                 {
 425:../libs/PoliTeKDSP/libs/libDaisy/src/hid/disp/display.h ****                     ((ChildType*)(this))
 426:../libs/PoliTeKDSP/libs/libDaisy/src/hid/disp/display.h ****                         ->ChildType::DrawPixel(
 427:../libs/PoliTeKDSP/libs/libDaisy/src/hid/disp/display.h ****                             currentX_ + j, (currentY_ + i), on);
 428:../libs/PoliTeKDSP/libs/libDaisy/src/hid/disp/display.h ****                 }
 429:../libs/PoliTeKDSP/libs/libDaisy/src/hid/disp/display.h ****                 else
 430:../libs/PoliTeKDSP/libs/libDaisy/src/hid/disp/display.h ****                 {
 431:../libs/PoliTeKDSP/libs/libDaisy/src/hid/disp/display.h ****                     ((ChildType*)(this))
 432:../libs/PoliTeKDSP/libs/libDaisy/src/hid/disp/display.h ****                         ->ChildType::DrawPixel(
 433:../libs/PoliTeKDSP/libs/libDaisy/src/hid/disp/display.h ****                             currentX_ + j, (currentY_ + i), !on);
 434:../libs/PoliTeKDSP/libs/libDaisy/src/hid/disp/display.h ****                 }
 435:../libs/PoliTeKDSP/libs/libDaisy/src/hid/disp/display.h ****             }
 436:../libs/PoliTeKDSP/libs/libDaisy/src/hid/disp/display.h ****         }
 437:../libs/PoliTeKDSP/libs/libDaisy/src/hid/disp/display.h **** 
 438:../libs/PoliTeKDSP/libs/libDaisy/src/hid/disp/display.h ****         // The current space is now taken
 439:../libs/PoliTeKDSP/libs/libDaisy/src/hid/disp/display.h ****         SetCursor(currentX_ + font.FontWidth, currentY_);
 440:../libs/PoliTeKDSP/libs/libDaisy/src/hid/disp/display.h **** 
 441:../libs/PoliTeKDSP/libs/libDaisy/src/hid/disp/display.h ****         // Return written char for validation
ARM GAS  C:\Users\skipi\AppData\Local\Temp\cc9eAo3V.s 			page 38


 442:../libs/PoliTeKDSP/libs/libDaisy/src/hid/disp/display.h ****         return ch;
 443:../libs/PoliTeKDSP/libs/libDaisy/src/hid/disp/display.h ****     }
 444:../libs/PoliTeKDSP/libs/libDaisy/src/hid/disp/display.h **** 
 445:../libs/PoliTeKDSP/libs/libDaisy/src/hid/disp/display.h ****     char WriteString(const char* str, FontDef font, bool on) override
 641              		.loc 10 445 10 is_stmt 1 view -0
 642              		.cfi_startproc
 643              		@ args = 4, pretend = 0, frame = 32
 644              		@ frame_needed = 0, uses_anonymous_args = 0
 645              		.loc 10 445 10 is_stmt 0 view .LVU136
 646 0000 2DE9F04F 		push	{r4, r5, r6, r7, r8, r9, r10, fp, lr}
 647              		.cfi_def_cfa_offset 36
 648              		.cfi_offset 4, -36
 649              		.cfi_offset 5, -32
 650              		.cfi_offset 6, -28
 651              		.cfi_offset 7, -24
 652              		.cfi_offset 8, -20
 653              		.cfi_offset 9, -16
 654              		.cfi_offset 10, -12
 655              		.cfi_offset 11, -8
 656              		.cfi_offset 14, -4
 657 0004 89B0     		sub	sp, sp, #36
 658              		.cfi_def_cfa_offset 72
 659              		.loc 10 445 10 view .LVU137
 660 0006 08AC     		add	r4, sp, #32
 661 0008 9DF84870 		ldrb	r7, [sp, #72]	@ zero_extendqisi2
 662 000c 0191     		str	r1, [sp, #4]
 663 000e 04E90C00 		stmdb	r4, {r2, r3}
 446:../libs/PoliTeKDSP/libs/libDaisy/src/hid/disp/display.h ****     {
 447:../libs/PoliTeKDSP/libs/libDaisy/src/hid/disp/display.h ****         // Write until null-byte
 448:../libs/PoliTeKDSP/libs/libDaisy/src/hid/disp/display.h ****         while(*str)
 664              		.loc 10 448 9 is_stmt 1 view .LVU138
 665 0012 0B78     		ldrb	r3, [r1]	@ zero_extendqisi2
 666 0014 002B     		cmp	r3, #0
 667 0016 00F0AB80 		beq	.L54
 668 001a 1A46     		mov	r2, r3
 669 001c 9DF81880 		ldrb	r8, [sp, #24]	@ zero_extendqisi2
 670 0020 9DF81930 		ldrb	r3, [sp, #25]	@ zero_extendqisi2
 671 0024 0646     		mov	r6, r0
 672 0026 4546     		mov	r5, r8
 673 0028 9046     		mov	r8, r2
 674 002a 0393     		str	r3, [sp, #12]
 675 002c 079B     		ldr	r3, [sp, #28]
 676 002e 0593     		str	r3, [sp, #20]
 677              	.LVL41:
 678              	.L55:
 679              	.LBB537:
 680              	.LBI537:
 401:../libs/PoliTeKDSP/libs/libDaisy/src/hid/disp/display.h ****     {
 681              		.loc 10 401 10 view .LVU139
 682              	.LBB538:
 406:../libs/PoliTeKDSP/libs/libDaisy/src/hid/disp/display.h ****             return 0;
 683              		.loc 10 406 20 is_stmt 0 view .LVU140
 684 0030 A8F12004 		sub	r4, r8, #32
 406:../libs/PoliTeKDSP/libs/libDaisy/src/hid/disp/display.h ****             return 0;
 685              		.loc 10 406 9 view .LVU141
 686 0034 E3B2     		uxtb	r3, r4
 687 0036 5E2B     		cmp	r3, #94
ARM GAS  C:\Users\skipi\AppData\Local\Temp\cc9eAo3V.s 			page 39


 688 0038 00F29E80 		bhi	.L36
 410:../libs/PoliTeKDSP/libs/libDaisy/src/hid/disp/display.h ****            || Height() < (currentY_ + font.FontHeight))
 689              		.loc 10 410 17 view .LVU142
 690 003c 3368     		ldr	r3, [r6]
 691 003e 5E4A     		ldr	r2, .L76
 692 0040 DB68     		ldr	r3, [r3, #12]
 693 0042 9342     		cmp	r3, r2
 694 0044 40F09B80 		bne	.L69
 695 0048 8020     		movs	r0, #128
 696              	.L35:
 410:../libs/PoliTeKDSP/libs/libDaisy/src/hid/disp/display.h ****            || Height() < (currentY_ + font.FontHeight))
 697              		.loc 10 410 23 view .LVU143
 698 004a B388     		ldrh	r3, [r6, #4]
 410:../libs/PoliTeKDSP/libs/libDaisy/src/hid/disp/display.h ****            || Height() < (currentY_ + font.FontHeight))
 699              		.loc 10 410 33 view .LVU144
 700 004c 2B44     		add	r3, r3, r5
 411:../libs/PoliTeKDSP/libs/libDaisy/src/hid/disp/display.h ****         {
 701              		.loc 10 411 12 view .LVU145
 702 004e 8342     		cmp	r3, r0
 703 0050 00F39280 		bgt	.L36
 411:../libs/PoliTeKDSP/libs/libDaisy/src/hid/disp/display.h ****         {
 704              		.loc 10 411 21 view .LVU146
 705 0054 3368     		ldr	r3, [r6]
 706 0056 594A     		ldr	r2, .L76+4
 707 0058 9B68     		ldr	r3, [r3, #8]
 708 005a 9342     		cmp	r3, r2
 709 005c 40F09280 		bne	.L70
 710 0060 4020     		movs	r0, #64
 711              	.L37:
 411:../libs/PoliTeKDSP/libs/libDaisy/src/hid/disp/display.h ****         {
 712              		.loc 10 411 27 view .LVU147
 713 0062 F188     		ldrh	r1, [r6, #6]
 411:../libs/PoliTeKDSP/libs/libDaisy/src/hid/disp/display.h ****         {
 714              		.loc 10 411 37 view .LVU148
 715 0064 039A     		ldr	r2, [sp, #12]
 411:../libs/PoliTeKDSP/libs/libDaisy/src/hid/disp/display.h ****         {
 716              		.loc 10 411 27 view .LVU149
 717 0066 0291     		str	r1, [sp, #8]
 411:../libs/PoliTeKDSP/libs/libDaisy/src/hid/disp/display.h ****         {
 718              		.loc 10 411 37 view .LVU150
 719 0068 8B18     		adds	r3, r1, r2
 411:../libs/PoliTeKDSP/libs/libDaisy/src/hid/disp/display.h ****         {
 720              		.loc 10 411 12 view .LVU151
 721 006a 8342     		cmp	r3, r0
 722 006c 00F38480 		bgt	.L36
 723              	.LVL42:
 418:../libs/PoliTeKDSP/libs/libDaisy/src/hid/disp/display.h ****         {
 724              		.loc 10 418 22 is_stmt 1 view .LVU152
 725 0070 002A     		cmp	r2, #0
 726 0072 00F09180 		beq	.L38
 420:../libs/PoliTeKDSP/libs/libDaisy/src/hid/disp/display.h ****             for(j = 0; j < font.FontWidth; j++)
 727              		.loc 10 420 37 is_stmt 0 view .LVU153
 728 0076 02FB04F4 		mul	r4, r2, r4
 729 007a 6FF00049 		mvn	r9, #-2147483648
 730 007e 059B     		ldr	r3, [sp, #20]
 731 0080 A144     		add	r9, r9, r4
 732 0082 1444     		add	r4, r4, r2
ARM GAS  C:\Users\skipi\AppData\Local\Temp\cc9eAo3V.s 			page 40


 439:../libs/PoliTeKDSP/libs/libDaisy/src/hid/disp/display.h **** 
 733              		.loc 10 439 19 view .LVU154
 734 0084 B6F804B0 		ldrh	fp, [r6, #4]
 735 0088 03EB4909 		add	r9, r3, r9, lsl #1
 736 008c 023B     		subs	r3, r3, #2
 737 008e CDF81080 		str	r8, [sp, #16]
 738 0092 03EB4403 		add	r3, r3, r4, lsl #1
 739 0096 0C46     		mov	r4, r1
 740 0098 9A46     		mov	r10, r3
 741              	.LVL43:
 742              	.L41:
 420:../libs/PoliTeKDSP/libs/libDaisy/src/hid/disp/display.h ****             for(j = 0; j < font.FontWidth; j++)
 743              		.loc 10 420 15 view .LVU155
 744 009a 39F802CF 		ldrh	ip, [r9, #2]!
 745              	.LVL44:
 421:../libs/PoliTeKDSP/libs/libDaisy/src/hid/disp/display.h ****             {
 746              		.loc 10 421 26 is_stmt 1 view .LVU156
 747 009e A5B3     		cbz	r5, .L46
 748              	.LBB539:
 749              	.LBB540:
 750              	.LBB541:
 751              	.LBB542:
 752              	.LBB543:
 368:Display/../../libs/PoliTeKDSP/libs/libDaisy/src/dev/oled_ssd130x.h ****     }
 753              		.loc 11 368 55 is_stmt 0 view .LVU157
 754 00a0 04F00703 		and	r3, r4, #7
 368:Display/../../libs/PoliTeKDSP/libs/libDaisy/src/dev/oled_ssd130x.h ****     }
 755              		.loc 11 368 49 view .LVU158
 756 00a4 4FF0010E 		mov	lr, #1
 368:Display/../../libs/PoliTeKDSP/libs/libDaisy/src/dev/oled_ssd130x.h ****     }
 757              		.loc 11 368 28 view .LVU159
 758 00a8 E208     		lsrs	r2, r4, #3
 759 00aa 5946     		mov	r1, fp
 368:Display/../../libs/PoliTeKDSP/libs/libDaisy/src/dev/oled_ssd130x.h ****     }
 760              		.loc 11 368 49 view .LVU160
 761 00ac 0EFA03FE 		lsl	lr, lr, r3
 762 00b0 0BF11003 		add	r3, fp, #16
 368:Display/../../libs/PoliTeKDSP/libs/libDaisy/src/dev/oled_ssd130x.h ****     }
 763              		.loc 11 368 42 view .LVU161
 764 00b4 4FFA8EFE 		sxtb	lr, lr
 765 00b8 03EBC212 		add	r2, r3, r2, lsl #7
 766              	.LBE543:
 767              	.LBE542:
 768              	.LBE541:
 769              	.LBE540:
 770              	.LBE539:
 421:../libs/PoliTeKDSP/libs/libDaisy/src/hid/disp/display.h ****             {
 771              		.loc 10 421 19 view .LVU162
 772 00bc 0023     		movs	r3, #0
 773              	.LBB561:
 774              	.LBB556:
 775              	.LBB551:
 776              	.LBB547:
 777              	.LBB544:
 368:Display/../../libs/PoliTeKDSP/libs/libDaisy/src/dev/oled_ssd130x.h ****     }
 778              		.loc 11 368 42 view .LVU163
 779 00be 6FEA0E08 		mvn	r8, lr
ARM GAS  C:\Users\skipi\AppData\Local\Temp\cc9eAo3V.s 			page 41


 780 00c2 3244     		add	r2, r2, r6
 781 00c4 0DE0     		b	.L47
 782              	.LVL45:
 783              	.L71:
 368:Display/../../libs/PoliTeKDSP/libs/libDaisy/src/dev/oled_ssd130x.h ****     }
 784              		.loc 11 368 42 view .LVU164
 785              	.LBE544:
 786              	.LBE547:
 787              	.LBE551:
 788              	.LBE556:
 789              	.LBE561:
 790              	.LBB562:
 791              	.LBI562:
  42:../libs/PoliTeKDSP/libs/libDaisy/src/hid/disp/oled_display.h ****     {
 792              		.loc 9 42 10 is_stmt 1 view .LVU165
 793              	.LBB563:
 794              	.LBI563:
 361:Display/../../libs/PoliTeKDSP/libs/libDaisy/src/dev/oled_ssd130x.h ****     {
 795              		.loc 11 361 10 view .LVU166
 796              	.LBB564:
 363:Display/../../libs/PoliTeKDSP/libs/libDaisy/src/dev/oled_ssd130x.h ****             return;
 797              		.loc 11 363 9 is_stmt 0 view .LVU167
 798 00c6 7F29     		cmp	r1, #127
 799 00c8 06D8     		bhi	.L43
 800 00ca 3F2C     		cmp	r4, #63
 801 00cc 04D8     		bhi	.L43
 366:Display/../../libs/PoliTeKDSP/libs/libDaisy/src/dev/oled_ssd130x.h ****         else
 802              		.loc 11 366 42 view .LVU168
 803 00ce 1078     		ldrb	r0, [r2]	@ zero_extendqisi2
 365:Display/../../libs/PoliTeKDSP/libs/libDaisy/src/dev/oled_ssd130x.h ****             buffer_[x + (y / 8) * width] |= (1 << (y % 8));
 804              		.loc 11 365 9 view .LVU169
 805 00d0 97B1     		cbz	r7, .L45
 806              	.L68:
 365:Display/../../libs/PoliTeKDSP/libs/libDaisy/src/dev/oled_ssd130x.h ****             buffer_[x + (y / 8) * width] |= (1 << (y % 8));
 807              		.loc 11 365 9 view .LVU170
 808              	.LBE564:
 809              	.LBE563:
 810              	.LBE562:
 811              	.LBB565:
 812              	.LBB557:
 813              	.LBB552:
 366:Display/../../libs/PoliTeKDSP/libs/libDaisy/src/dev/oled_ssd130x.h ****         else
 814              		.loc 11 366 42 view .LVU171
 815 00d2 4EEA0000 		orr	r0, lr, r0
 816 00d6 1070     		strb	r0, [r2]
 817              	.L43:
 818              	.LBE552:
 819              	.LBE557:
 820              	.LBE565:
 421:../libs/PoliTeKDSP/libs/libDaisy/src/hid/disp/display.h ****             {
 821              		.loc 10 421 13 is_stmt 1 view .LVU172
 822 00d8 0133     		adds	r3, r3, #1
 823              	.LVL46:
 421:../libs/PoliTeKDSP/libs/libDaisy/src/hid/disp/display.h ****             {
 824              		.loc 10 421 26 view .LVU173
 825 00da 0132     		adds	r2, r2, #1
 826 00dc 0131     		adds	r1, r1, #1
ARM GAS  C:\Users\skipi\AppData\Local\Temp\cc9eAo3V.s 			page 42


 827 00de AB42     		cmp	r3, r5
 828 00e0 13D0     		beq	.L46
 829              	.LVL47:
 830              	.L47:
 423:../libs/PoliTeKDSP/libs/libDaisy/src/hid/disp/display.h ****                 {
 831              		.loc 10 423 23 is_stmt 0 view .LVU174
 832 00e2 0CFA03F0 		lsl	r0, ip, r3
 423:../libs/PoliTeKDSP/libs/libDaisy/src/hid/disp/display.h ****                 {
 833              		.loc 10 423 17 view .LVU175
 834 00e6 0004     		lsls	r0, r0, #16
 835 00e8 EDD4     		bmi	.L71
 836              	.LVL48:
 837              	.LBB566:
 838              	.LBI539:
  42:../libs/PoliTeKDSP/libs/libDaisy/src/hid/disp/oled_display.h ****     {
 839              		.loc 9 42 10 is_stmt 1 view .LVU176
 840              	.LBB558:
 841              	.LBI540:
 361:Display/../../libs/PoliTeKDSP/libs/libDaisy/src/dev/oled_ssd130x.h ****     {
 842              		.loc 11 361 10 view .LVU177
 843              	.LBB553:
 363:Display/../../libs/PoliTeKDSP/libs/libDaisy/src/dev/oled_ssd130x.h ****             return;
 844              		.loc 11 363 9 is_stmt 0 view .LVU178
 845 00ea 7F29     		cmp	r1, #127
 846 00ec F4D8     		bhi	.L43
 847 00ee 3F2C     		cmp	r4, #63
 848 00f0 F2D8     		bhi	.L43
 366:Display/../../libs/PoliTeKDSP/libs/libDaisy/src/dev/oled_ssd130x.h ****         else
 849              		.loc 11 366 42 view .LVU179
 850 00f2 1078     		ldrb	r0, [r2]	@ zero_extendqisi2
 365:Display/../../libs/PoliTeKDSP/libs/libDaisy/src/dev/oled_ssd130x.h ****             buffer_[x + (y / 8) * width] |= (1 << (y % 8));
 851              		.loc 11 365 9 view .LVU180
 852 00f4 002F     		cmp	r7, #0
 853 00f6 ECD0     		beq	.L68
 854              	.L45:
 855              	.LVL49:
 856              	.LBB548:
 857              	.LBI542:
 361:Display/../../libs/PoliTeKDSP/libs/libDaisy/src/dev/oled_ssd130x.h ****     {
 858              		.loc 11 361 10 is_stmt 1 view .LVU181
 361:Display/../../libs/PoliTeKDSP/libs/libDaisy/src/dev/oled_ssd130x.h ****     {
 859              		.loc 11 361 10 is_stmt 0 view .LVU182
 860              	.LBE548:
 861              	.LBE553:
 862              	.LBE558:
 863              	.LBE566:
 421:../libs/PoliTeKDSP/libs/libDaisy/src/hid/disp/display.h ****             {
 864              		.loc 10 421 13 view .LVU183
 865 00f8 0133     		adds	r3, r3, #1
 866              	.LVL50:
 867              	.LBB567:
 868              	.LBB559:
 869              	.LBB554:
 870              	.LBB549:
 871              	.LBB545:
 368:Display/../../libs/PoliTeKDSP/libs/libDaisy/src/dev/oled_ssd130x.h ****     }
 872              		.loc 11 368 42 view .LVU184
ARM GAS  C:\Users\skipi\AppData\Local\Temp\cc9eAo3V.s 			page 43


 873 00fa 08EA0000 		and	r0, r8, r0
 874              	.LBE545:
 875              	.LBE549:
 876              	.LBE554:
 877              	.LBE559:
 878              	.LBE567:
 421:../libs/PoliTeKDSP/libs/libDaisy/src/hid/disp/display.h ****             {
 879              		.loc 10 421 26 view .LVU185
 880 00fe 0132     		adds	r2, r2, #1
 881 0100 0131     		adds	r1, r1, #1
 882 0102 AB42     		cmp	r3, r5
 883              	.LBB568:
 884              	.LBB560:
 885              	.LBB555:
 886              	.LBB550:
 887              	.LBB546:
 368:Display/../../libs/PoliTeKDSP/libs/libDaisy/src/dev/oled_ssd130x.h ****     }
 888              		.loc 11 368 42 view .LVU186
 889 0104 02F8010C 		strb	r0, [r2, #-1]
 368:Display/../../libs/PoliTeKDSP/libs/libDaisy/src/dev/oled_ssd130x.h ****     }
 890              		.loc 11 368 42 view .LVU187
 891              	.LBE546:
 892              	.LBE550:
 893              	.LBE555:
 894              	.LBE560:
 895              	.LBE568:
 421:../libs/PoliTeKDSP/libs/libDaisy/src/hid/disp/display.h ****             {
 896              		.loc 10 421 13 is_stmt 1 view .LVU188
 897              	.LVL51:
 421:../libs/PoliTeKDSP/libs/libDaisy/src/hid/disp/display.h ****             {
 898              		.loc 10 421 26 view .LVU189
 899 0108 EBD1     		bne	.L47
 900              	.LVL52:
 901              	.L46:
 418:../libs/PoliTeKDSP/libs/libDaisy/src/hid/disp/display.h ****         {
 902              		.loc 10 418 9 view .LVU190
 418:../libs/PoliTeKDSP/libs/libDaisy/src/hid/disp/display.h ****         {
 903              		.loc 10 418 22 view .LVU191
 904 010a D145     		cmp	r9, r10
 905 010c 04F10104 		add	r4, r4, #1
 906 0110 C3D1     		bne	.L41
 907 0112 DDF81080 		ldr	r8, [sp, #16]
 908              	.LVL53:
 909              	.L40:
 910              	.LBB569:
 911              	.LBB570:
 173:../libs/PoliTeKDSP/libs/libDaisy/src/hid/disp/display.h ****         currentY_ = (y >= Height()) ? Height() - 1 : y;
 912              		.loc 10 173 33 is_stmt 0 view .LVU192
 913 0116 3268     		ldr	r2, [r6]
 914              	.LBE570:
 915              	.LBE569:
 439:../libs/PoliTeKDSP/libs/libDaisy/src/hid/disp/display.h **** 
 916              		.loc 10 439 18 view .LVU193
 917 0118 0BEB0504 		add	r4, fp, r5
 918 011c 2649     		ldr	r1, .L76
 919              	.LBB575:
 920              	.LBB571:
ARM GAS  C:\Users\skipi\AppData\Local\Temp\cc9eAo3V.s 			page 44


 173:../libs/PoliTeKDSP/libs/libDaisy/src/hid/disp/display.h ****         currentY_ = (y >= Height()) ? Height() - 1 : y;
 921              		.loc 10 173 33 view .LVU194
 922 011e D368     		ldr	r3, [r2, #12]
 923              	.LBE571:
 924              	.LBE575:
 439:../libs/PoliTeKDSP/libs/libDaisy/src/hid/disp/display.h **** 
 925              		.loc 10 439 18 view .LVU195
 926 0120 A4B2     		uxth	r4, r4
 927              	.LVL54:
 928              	.LBB576:
 929              	.LBI569:
 171:../libs/PoliTeKDSP/libs/libDaisy/src/hid/disp/display.h ****     {
 930              		.loc 10 171 10 is_stmt 1 view .LVU196
 931              	.LBB572:
 173:../libs/PoliTeKDSP/libs/libDaisy/src/hid/disp/display.h ****         currentY_ = (y >= Height()) ? Height() - 1 : y;
 932              		.loc 10 173 9 view .LVU197
 933 0122 8B42     		cmp	r3, r1
 934 0124 34D1     		bne	.L72
 173:../libs/PoliTeKDSP/libs/libDaisy/src/hid/disp/display.h ****         currentY_ = (y >= Height()) ? Height() - 1 : y;
 935              		.loc 10 173 33 is_stmt 0 view .LVU198
 936 0126 8020     		movs	r0, #128
 937              	.L48:
 173:../libs/PoliTeKDSP/libs/libDaisy/src/hid/disp/display.h ****         currentY_ = (y >= Height()) ? Height() - 1 : y;
 938              		.loc 10 173 19 view .LVU199
 939 0128 8442     		cmp	r4, r0
 940 012a 04D3     		bcc	.L49
 173:../libs/PoliTeKDSP/libs/libDaisy/src/hid/disp/display.h ****         currentY_ = (y >= Height()) ? Height() - 1 : y;
 941              		.loc 10 173 44 view .LVU200
 942 012c D368     		ldr	r3, [r2, #12]
 943 012e 2249     		ldr	r1, .L76
 944 0130 8B42     		cmp	r3, r1
 945 0132 3AD1     		bne	.L73
 946 0134 7F24     		movs	r4, #127
 947              	.LVL55:
 948              	.L49:
 174:../libs/PoliTeKDSP/libs/libDaisy/src/hid/disp/display.h ****     }
 949              		.loc 10 174 34 view .LVU201
 950 0136 9368     		ldr	r3, [r2, #8]
 951 0138 204A     		ldr	r2, .L76+4
 173:../libs/PoliTeKDSP/libs/libDaisy/src/hid/disp/display.h ****         currentY_ = (y >= Height()) ? Height() - 1 : y;
 952              		.loc 10 173 19 view .LVU202
 953 013a B480     		strh	r4, [r6, #4]	@ movhi
 174:../libs/PoliTeKDSP/libs/libDaisy/src/hid/disp/display.h ****     }
 954              		.loc 10 174 9 is_stmt 1 view .LVU203
 955 013c 9342     		cmp	r3, r2
 956 013e 24D1     		bne	.L74
 174:../libs/PoliTeKDSP/libs/libDaisy/src/hid/disp/display.h ****     }
 957              		.loc 10 174 34 is_stmt 0 view .LVU204
 958 0140 4020     		movs	r0, #64
 959              	.L51:
 174:../libs/PoliTeKDSP/libs/libDaisy/src/hid/disp/display.h ****     }
 960              		.loc 10 174 19 view .LVU205
 961 0142 029B     		ldr	r3, [sp, #8]
 962 0144 8342     		cmp	r3, r0
 963 0146 06D3     		bcc	.L52
 174:../libs/PoliTeKDSP/libs/libDaisy/src/hid/disp/display.h ****     }
 964              		.loc 10 174 46 view .LVU206
ARM GAS  C:\Users\skipi\AppData\Local\Temp\cc9eAo3V.s 			page 45


 965 0148 3368     		ldr	r3, [r6]
 966 014a 1C4A     		ldr	r2, .L76+4
 967 014c 9B68     		ldr	r3, [r3, #8]
 968 014e 9342     		cmp	r3, r2
 969 0150 25D1     		bne	.L75
 970 0152 3F23     		movs	r3, #63
 971 0154 0293     		str	r3, [sp, #8]
 972              	.LVL56:
 973              	.L52:
 174:../libs/PoliTeKDSP/libs/libDaisy/src/hid/disp/display.h ****     }
 974              		.loc 10 174 19 view .LVU207
 975 0156 029B     		ldr	r3, [sp, #8]
 976 0158 F380     		strh	r3, [r6, #6]	@ movhi
 977              	.LVL57:
 978              	.L34:
 174:../libs/PoliTeKDSP/libs/libDaisy/src/hid/disp/display.h ****     }
 979              		.loc 10 174 19 view .LVU208
 980              	.LBE572:
 981              	.LBE576:
 982              	.LBE538:
 983              	.LBE537:
 449:../libs/PoliTeKDSP/libs/libDaisy/src/hid/disp/display.h ****         {
 450:../libs/PoliTeKDSP/libs/libDaisy/src/hid/disp/display.h ****             if(((ChildType*)(this))->ChildType::WriteChar(*str, font, on)
 451:../libs/PoliTeKDSP/libs/libDaisy/src/hid/disp/display.h ****                != *str)
 984              		.loc 10 451 16 view .LVU209
 985 015a 019B     		ldr	r3, [sp, #4]
 986 015c 1878     		ldrb	r0, [r3]	@ zero_extendqisi2
 450:../libs/PoliTeKDSP/libs/libDaisy/src/hid/disp/display.h ****                != *str)
 987              		.loc 10 450 13 view .LVU210
 988 015e 4045     		cmp	r0, r8
 989 0160 07D1     		bne	.L32
 990              	.LVL58:
 448:../libs/PoliTeKDSP/libs/libDaisy/src/hid/disp/display.h ****         {
 991              		.loc 10 448 9 is_stmt 1 view .LVU211
 992 0162 13F8018F 		ldrb	r8, [r3, #1]!	@ zero_extendqisi2
 993              	.LVL59:
 448:../libs/PoliTeKDSP/libs/libDaisy/src/hid/disp/display.h ****         {
 994              		.loc 10 448 9 is_stmt 0 view .LVU212
 995 0166 0193     		str	r3, [sp, #4]
 996 0168 B8F1000F 		cmp	r8, #0
 997 016c 7FF460AF 		bne	.L55
 998              	.LVL60:
 999              	.L54:
 1000              	.LBB581:
 1001              	.LBB579:
 407:../libs/PoliTeKDSP/libs/libDaisy/src/hid/disp/display.h **** 
 1002              		.loc 10 407 20 view .LVU213
 1003 0170 0020     		movs	r0, #0
 1004              	.L32:
 1005              	.LBE579:
 1006              	.LBE581:
 452:../libs/PoliTeKDSP/libs/libDaisy/src/hid/disp/display.h ****             {
 453:../libs/PoliTeKDSP/libs/libDaisy/src/hid/disp/display.h ****                 // Char could not be written
 454:../libs/PoliTeKDSP/libs/libDaisy/src/hid/disp/display.h ****                 return *str;
 455:../libs/PoliTeKDSP/libs/libDaisy/src/hid/disp/display.h ****             }
 456:../libs/PoliTeKDSP/libs/libDaisy/src/hid/disp/display.h **** 
 457:../libs/PoliTeKDSP/libs/libDaisy/src/hid/disp/display.h ****             // Next char
ARM GAS  C:\Users\skipi\AppData\Local\Temp\cc9eAo3V.s 			page 46


 458:../libs/PoliTeKDSP/libs/libDaisy/src/hid/disp/display.h ****             str++;
 459:../libs/PoliTeKDSP/libs/libDaisy/src/hid/disp/display.h ****         }
 460:../libs/PoliTeKDSP/libs/libDaisy/src/hid/disp/display.h **** 
 461:../libs/PoliTeKDSP/libs/libDaisy/src/hid/disp/display.h ****         // Everything ok
 462:../libs/PoliTeKDSP/libs/libDaisy/src/hid/disp/display.h ****         return *str;
 463:../libs/PoliTeKDSP/libs/libDaisy/src/hid/disp/display.h ****     }
 1007              		.loc 10 463 5 view .LVU214
 1008 0172 09B0     		add	sp, sp, #36
 1009              		.cfi_remember_state
 1010              		.cfi_def_cfa_offset 36
 1011              		@ sp needed
 1012 0174 BDE8F08F 		pop	{r4, r5, r6, r7, r8, r9, r10, fp, pc}
 1013              	.LVL61:
 1014              	.L36:
 1015              		.cfi_restore_state
 1016              	.LBB582:
 1017              	.LBB580:
 407:../libs/PoliTeKDSP/libs/libDaisy/src/hid/disp/display.h **** 
 1018              		.loc 10 407 20 view .LVU215
 1019 0178 4FF00008 		mov	r8, #0
 1020              	.LVL62:
 407:../libs/PoliTeKDSP/libs/libDaisy/src/hid/disp/display.h **** 
 1021              		.loc 10 407 20 view .LVU216
 1022 017c EDE7     		b	.L34
 1023              	.LVL63:
 1024              	.L69:
 410:../libs/PoliTeKDSP/libs/libDaisy/src/hid/disp/display.h ****            || Height() < (currentY_ + font.FontHeight))
 1025              		.loc 10 410 17 view .LVU217
 1026 017e 3046     		mov	r0, r6
 1027 0180 9847     		blx	r3
 1028              	.LVL64:
 1029 0182 62E7     		b	.L35
 1030              	.L70:
 411:../libs/PoliTeKDSP/libs/libDaisy/src/hid/disp/display.h ****         {
 1031              		.loc 10 411 21 view .LVU218
 1032 0184 3046     		mov	r0, r6
 1033 0186 9847     		blx	r3
 1034              	.LVL65:
 1035 0188 6BE7     		b	.L37
 1036              	.LVL66:
 1037              	.L74:
 1038              	.LBB577:
 1039              	.LBB573:
 174:../libs/PoliTeKDSP/libs/libDaisy/src/hid/disp/display.h ****     }
 1040              		.loc 10 174 33 view .LVU219
 1041 018a 3046     		mov	r0, r6
 1042 018c 9847     		blx	r3
 1043              	.LVL67:
 1044 018e D8E7     		b	.L51
 1045              	.LVL68:
 1046              	.L72:
 173:../libs/PoliTeKDSP/libs/libDaisy/src/hid/disp/display.h ****         currentY_ = (y >= Height()) ? Height() - 1 : y;
 1047              		.loc 10 173 32 view .LVU220
 1048 0190 3046     		mov	r0, r6
 1049 0192 9847     		blx	r3
 1050              	.LVL69:
 173:../libs/PoliTeKDSP/libs/libDaisy/src/hid/disp/display.h ****         currentY_ = (y >= Height()) ? Height() - 1 : y;
ARM GAS  C:\Users\skipi\AppData\Local\Temp\cc9eAo3V.s 			page 47


 1051              		.loc 10 173 44 view .LVU221
 1052 0194 3268     		ldr	r2, [r6]
 1053 0196 C7E7     		b	.L48
 1054              	.LVL70:
 1055              	.L38:
 173:../libs/PoliTeKDSP/libs/libDaisy/src/hid/disp/display.h ****         currentY_ = (y >= Height()) ? Height() - 1 : y;
 1056              		.loc 10 173 44 view .LVU222
 1057              	.LBE573:
 1058              	.LBE577:
 439:../libs/PoliTeKDSP/libs/libDaisy/src/hid/disp/display.h **** 
 1059              		.loc 10 439 19 view .LVU223
 1060 0198 B6F804B0 		ldrh	fp, [r6, #4]
 1061 019c BBE7     		b	.L40
 1062              	.LVL71:
 1063              	.L75:
 1064              	.LBB578:
 1065              	.LBB574:
 174:../libs/PoliTeKDSP/libs/libDaisy/src/hid/disp/display.h ****     }
 1066              		.loc 10 174 45 view .LVU224
 1067 019e 3046     		mov	r0, r6
 1068 01a0 9847     		blx	r3
 1069              	.LVL72:
 174:../libs/PoliTeKDSP/libs/libDaisy/src/hid/disp/display.h ****     }
 1070              		.loc 10 174 19 view .LVU225
 1071 01a2 0138     		subs	r0, r0, #1
 1072 01a4 83B2     		uxth	r3, r0
 1073 01a6 0293     		str	r3, [sp, #8]
 1074              	.LVL73:
 174:../libs/PoliTeKDSP/libs/libDaisy/src/hid/disp/display.h ****     }
 1075              		.loc 10 174 19 view .LVU226
 1076 01a8 D5E7     		b	.L52
 1077              	.LVL74:
 1078              	.L73:
 173:../libs/PoliTeKDSP/libs/libDaisy/src/hid/disp/display.h ****         currentY_ = (y >= Height()) ? Height() - 1 : y;
 1079              		.loc 10 173 43 view .LVU227
 1080 01aa 3046     		mov	r0, r6
 1081 01ac 9847     		blx	r3
 1082              	.LVL75:
 173:../libs/PoliTeKDSP/libs/libDaisy/src/hid/disp/display.h ****         currentY_ = (y >= Height()) ? Height() - 1 : y;
 1083              		.loc 10 173 19 view .LVU228
 1084 01ae 0138     		subs	r0, r0, #1
 174:../libs/PoliTeKDSP/libs/libDaisy/src/hid/disp/display.h ****     }
 1085              		.loc 10 174 34 view .LVU229
 1086 01b0 3268     		ldr	r2, [r6]
 173:../libs/PoliTeKDSP/libs/libDaisy/src/hid/disp/display.h ****         currentY_ = (y >= Height()) ? Height() - 1 : y;
 1087              		.loc 10 173 19 view .LVU230
 1088 01b2 84B2     		uxth	r4, r0
 1089              	.LVL76:
 173:../libs/PoliTeKDSP/libs/libDaisy/src/hid/disp/display.h ****         currentY_ = (y >= Height()) ? Height() - 1 : y;
 1090              		.loc 10 173 19 view .LVU231
 1091 01b4 BFE7     		b	.L49
 1092              	.L77:
 1093 01b6 00BF     		.align	2
 1094              	.L76:
 1095 01b8 00000000 		.word	_ZNK5daisy11OledDisplayINS_13SSD130xDriverILj128ELj64ENS_19SSD130xI2CTransportEEEE5WidthEv
 1096 01bc 00000000 		.word	_ZNK5daisy11OledDisplayINS_13SSD130xDriverILj128ELj64ENS_19SSD130xI2CTransportEEEE6HeightEv
 1097              	.LBE574:
ARM GAS  C:\Users\skipi\AppData\Local\Temp\cc9eAo3V.s 			page 48


 1098              	.LBE578:
 1099              	.LBE580:
 1100              	.LBE582:
 1101              		.cfi_endproc
 1102              	.LFE5558:
 1104              		.section	.text._ZN5daisy25OneBitGraphicsDisplayImplINS_11OledDisplayINS_13SSD130xDriverILj128ELj64
 1105              		.align	1
 1106              		.p2align 2,,3
 1107              		.weak	_ZN5daisy25OneBitGraphicsDisplayImplINS_11OledDisplayINS_13SSD130xDriverILj128ELj64ENS_19SSD
 1108              		.syntax unified
 1109              		.thumb
 1110              		.thumb_func
 1111              		.fpu fpv5-d16
 1113              	_ZN5daisy25OneBitGraphicsDisplayImplINS_11OledDisplayINS_13SSD130xDriverILj128ELj64ENS_19SSD130xI2C
 1114              	.LVL77:
 1115              	.LFB5557:
 401:../libs/PoliTeKDSP/libs/libDaisy/src/hid/disp/display.h ****     {
 1116              		.loc 10 401 10 is_stmt 1 view -0
 1117              		.cfi_startproc
 1118              		@ args = 4, pretend = 0, frame = 16
 1119              		@ frame_needed = 0, uses_anonymous_args = 0
 401:../libs/PoliTeKDSP/libs/libDaisy/src/hid/disp/display.h ****     {
 1120              		.loc 10 401 10 is_stmt 0 view .LVU233
 1121 0000 2DE9F04F 		push	{r4, r5, r6, r7, r8, r9, r10, fp, lr}
 1122              		.cfi_def_cfa_offset 36
 1123              		.cfi_offset 4, -36
 1124              		.cfi_offset 5, -32
 1125              		.cfi_offset 6, -28
 1126              		.cfi_offset 7, -24
 1127              		.cfi_offset 8, -20
 1128              		.cfi_offset 9, -16
 1129              		.cfi_offset 10, -12
 1130              		.cfi_offset 11, -8
 1131              		.cfi_offset 14, -4
 1132 0004 85B0     		sub	sp, sp, #20
 1133              		.cfi_def_cfa_offset 56
 1134              	.LVL78:
 406:../libs/PoliTeKDSP/libs/libDaisy/src/hid/disp/display.h ****             return 0;
 1135              		.loc 10 406 20 view .LVU234
 1136 0006 A1F12005 		sub	r5, r1, #32
 401:../libs/PoliTeKDSP/libs/libDaisy/src/hid/disp/display.h ****     {
 1137              		.loc 10 401 10 view .LVU235
 1138 000a 04AC     		add	r4, sp, #16
 1139 000c 9DF83870 		ldrb	r7, [sp, #56]	@ zero_extendqisi2
 1140 0010 0091     		str	r1, [sp]
 1141 0012 04E90C00 		stmdb	r4, {r2, r3}
 1142              	.LVL79:
 406:../libs/PoliTeKDSP/libs/libDaisy/src/hid/disp/display.h ****             return 0;
 1143              		.loc 10 406 9 view .LVU236
 1144 0016 EBB2     		uxtb	r3, r5
 1145 0018 5E2B     		cmp	r3, #94
 1146 001a 00F29580 		bhi	.L82
 410:../libs/PoliTeKDSP/libs/libDaisy/src/hid/disp/display.h ****            || Height() < (currentY_ + font.FontHeight))
 1147              		.loc 10 410 17 view .LVU237
 1148 001e 0368     		ldr	r3, [r0]
 1149 0020 8046     		mov	r8, r0
 1150 0022 5D4A     		ldr	r2, .L117
ARM GAS  C:\Users\skipi\AppData\Local\Temp\cc9eAo3V.s 			page 49


 1151 0024 DB68     		ldr	r3, [r3, #12]
 1152 0026 9DF80840 		ldrb	r4, [sp, #8]	@ zero_extendqisi2
 1153 002a 9342     		cmp	r3, r2
 1154 002c 9DF80960 		ldrb	r6, [sp, #9]	@ zero_extendqisi2
 1155 0030 40F09480 		bne	.L109
 1156 0034 8020     		movs	r0, #128
 1157              	.LVL80:
 1158              	.L81:
 410:../libs/PoliTeKDSP/libs/libDaisy/src/hid/disp/display.h ****            || Height() < (currentY_ + font.FontHeight))
 1159              		.loc 10 410 23 view .LVU238
 1160 0036 B8F80430 		ldrh	r3, [r8, #4]
 410:../libs/PoliTeKDSP/libs/libDaisy/src/hid/disp/display.h ****            || Height() < (currentY_ + font.FontHeight))
 1161              		.loc 10 410 33 view .LVU239
 1162 003a 2344     		add	r3, r3, r4
 411:../libs/PoliTeKDSP/libs/libDaisy/src/hid/disp/display.h ****         {
 1163              		.loc 10 411 12 view .LVU240
 1164 003c 8342     		cmp	r3, r0
 1165 003e 00F38380 		bgt	.L82
 411:../libs/PoliTeKDSP/libs/libDaisy/src/hid/disp/display.h ****         {
 1166              		.loc 10 411 21 discriminator 2 view .LVU241
 1167 0042 D8F80030 		ldr	r3, [r8]
 1168 0046 554A     		ldr	r2, .L117+4
 1169 0048 9B68     		ldr	r3, [r3, #8]
 1170 004a 9342     		cmp	r3, r2
 1171 004c 40F08880 		bne	.L110
 411:../libs/PoliTeKDSP/libs/libDaisy/src/hid/disp/display.h ****         {
 1172              		.loc 10 411 21 view .LVU242
 1173 0050 4020     		movs	r0, #64
 1174              	.L83:
 411:../libs/PoliTeKDSP/libs/libDaisy/src/hid/disp/display.h ****         {
 1175              		.loc 10 411 27 discriminator 2 view .LVU243
 1176 0052 B8F80620 		ldrh	r2, [r8, #6]
 411:../libs/PoliTeKDSP/libs/libDaisy/src/hid/disp/display.h ****         {
 1177              		.loc 10 411 37 discriminator 2 view .LVU244
 1178 0056 9319     		adds	r3, r2, r6
 411:../libs/PoliTeKDSP/libs/libDaisy/src/hid/disp/display.h ****         {
 1179              		.loc 10 411 27 discriminator 2 view .LVU245
 1180 0058 0192     		str	r2, [sp, #4]
 411:../libs/PoliTeKDSP/libs/libDaisy/src/hid/disp/display.h ****         {
 1181              		.loc 10 411 12 discriminator 2 view .LVU246
 1182 005a 8342     		cmp	r3, r0
 1183 005c 74DC     		bgt	.L82
 1184              	.LVL81:
 418:../libs/PoliTeKDSP/libs/libDaisy/src/hid/disp/display.h ****         {
 1185              		.loc 10 418 22 is_stmt 1 view .LVU247
 1186 005e 002E     		cmp	r6, #0
 1187 0060 00F08980 		beq	.L84
 420:../libs/PoliTeKDSP/libs/libDaisy/src/hid/disp/display.h ****             for(j = 0; j < font.FontWidth; j++)
 1188              		.loc 10 420 37 is_stmt 0 view .LVU248
 1189 0064 06FB05F5 		mul	r5, r6, r5
 1190 0068 6FF00040 		mvn	r0, #-2147483648
 420:../libs/PoliTeKDSP/libs/libDaisy/src/hid/disp/display.h ****             for(j = 0; j < font.FontWidth; j++)
 1191              		.loc 10 420 22 view .LVU249
 1192 006c 039B     		ldr	r3, [sp, #12]
 1193 006e 9646     		mov	lr, r2
 1194 0070 2844     		add	r0, r0, r5
 1195 0072 2E44     		add	r6, r6, r5
ARM GAS  C:\Users\skipi\AppData\Local\Temp\cc9eAo3V.s 			page 50


 439:../libs/PoliTeKDSP/libs/libDaisy/src/hid/disp/display.h **** 
 1196              		.loc 10 439 19 view .LVU250
 1197 0074 B8F804A0 		ldrh	r10, [r8, #4]
 1198 0078 03EB4000 		add	r0, r3, r0, lsl #1
 1199 007c 023B     		subs	r3, r3, #2
 1200 007e 03EB460B 		add	fp, r3, r6, lsl #1
 1201              	.LVL82:
 1202              	.L87:
 420:../libs/PoliTeKDSP/libs/libDaisy/src/hid/disp/display.h ****             for(j = 0; j < font.FontWidth; j++)
 1203              		.loc 10 420 15 view .LVU251
 1204 0082 30F8026F 		ldrh	r6, [r0, #2]!
 1205              	.LVL83:
 421:../libs/PoliTeKDSP/libs/libDaisy/src/hid/disp/display.h ****             {
 1206              		.loc 10 421 26 is_stmt 1 view .LVU252
 1207 0086 BCB3     		cbz	r4, .L92
 1208              	.LBB613:
 1209              	.LBB614:
 1210              	.LBB615:
 1211              	.LBB616:
 1212              	.LBB617:
 368:Display/../../libs/PoliTeKDSP/libs/libDaisy/src/dev/oled_ssd130x.h ****     }
 1213              		.loc 11 368 55 is_stmt 0 view .LVU253
 1214 0088 0EF00703 		and	r3, lr, #7
 368:Display/../../libs/PoliTeKDSP/libs/libDaisy/src/dev/oled_ssd130x.h ****     }
 1215              		.loc 11 368 49 view .LVU254
 1216 008c 4FF0010C 		mov	ip, #1
 368:Display/../../libs/PoliTeKDSP/libs/libDaisy/src/dev/oled_ssd130x.h ****     }
 1217              		.loc 11 368 28 view .LVU255
 1218 0090 4FEADE02 		lsr	r2, lr, #3
 1219 0094 5146     		mov	r1, r10
 368:Display/../../libs/PoliTeKDSP/libs/libDaisy/src/dev/oled_ssd130x.h ****     }
 1220              		.loc 11 368 49 view .LVU256
 1221 0096 0CFA03FC 		lsl	ip, ip, r3
 1222 009a 0AF11003 		add	r3, r10, #16
 368:Display/../../libs/PoliTeKDSP/libs/libDaisy/src/dev/oled_ssd130x.h ****     }
 1223              		.loc 11 368 42 view .LVU257
 1224 009e 4FFA8CFC 		sxtb	ip, ip
 1225 00a2 03EBC212 		add	r2, r3, r2, lsl #7
 1226              	.LBE617:
 1227              	.LBE616:
 1228              	.LBE615:
 1229              	.LBE614:
 1230              	.LBE613:
 421:../libs/PoliTeKDSP/libs/libDaisy/src/hid/disp/display.h ****             {
 1231              		.loc 10 421 19 view .LVU258
 1232 00a6 0023     		movs	r3, #0
 1233              	.LBB635:
 1234              	.LBB630:
 1235              	.LBB625:
 1236              	.LBB621:
 1237              	.LBB618:
 368:Display/../../libs/PoliTeKDSP/libs/libDaisy/src/dev/oled_ssd130x.h ****     }
 1238              		.loc 11 368 42 view .LVU259
 1239 00a8 6FEA0C09 		mvn	r9, ip
 1240 00ac 4244     		add	r2, r2, r8
 1241 00ae 0EE0     		b	.L93
 1242              	.LVL84:
ARM GAS  C:\Users\skipi\AppData\Local\Temp\cc9eAo3V.s 			page 51


 1243              	.L111:
 368:Display/../../libs/PoliTeKDSP/libs/libDaisy/src/dev/oled_ssd130x.h ****     }
 1244              		.loc 11 368 42 view .LVU260
 1245              	.LBE618:
 1246              	.LBE621:
 1247              	.LBE625:
 1248              	.LBE630:
 1249              	.LBE635:
 1250              	.LBB636:
 1251              	.LBI636:
  42:../libs/PoliTeKDSP/libs/libDaisy/src/hid/disp/oled_display.h ****     {
 1252              		.loc 9 42 10 is_stmt 1 view .LVU261
 1253              	.LBB637:
 1254              	.LBI637:
 361:Display/../../libs/PoliTeKDSP/libs/libDaisy/src/dev/oled_ssd130x.h ****     {
 1255              		.loc 11 361 10 view .LVU262
 1256              	.LBB638:
 363:Display/../../libs/PoliTeKDSP/libs/libDaisy/src/dev/oled_ssd130x.h ****             return;
 1257              		.loc 11 363 9 is_stmt 0 view .LVU263
 1258 00b0 7F29     		cmp	r1, #127
 1259 00b2 07D8     		bhi	.L89
 1260 00b4 BEF13F0F 		cmp	lr, #63
 1261 00b8 04D8     		bhi	.L89
 366:Display/../../libs/PoliTeKDSP/libs/libDaisy/src/dev/oled_ssd130x.h ****         else
 1262              		.loc 11 366 42 view .LVU264
 1263 00ba 1578     		ldrb	r5, [r2]	@ zero_extendqisi2
 365:Display/../../libs/PoliTeKDSP/libs/libDaisy/src/dev/oled_ssd130x.h ****             buffer_[x + (y / 8) * width] |= (1 << (y % 8));
 1264              		.loc 11 365 9 view .LVU265
 1265 00bc 9FB1     		cbz	r7, .L91
 1266              	.L108:
 365:Display/../../libs/PoliTeKDSP/libs/libDaisy/src/dev/oled_ssd130x.h ****             buffer_[x + (y / 8) * width] |= (1 << (y % 8));
 1267              		.loc 11 365 9 view .LVU266
 1268              	.LBE638:
 1269              	.LBE637:
 1270              	.LBE636:
 1271              	.LBB639:
 1272              	.LBB631:
 1273              	.LBB626:
 366:Display/../../libs/PoliTeKDSP/libs/libDaisy/src/dev/oled_ssd130x.h ****         else
 1274              		.loc 11 366 42 view .LVU267
 1275 00be 4CEA0505 		orr	r5, ip, r5
 1276 00c2 1570     		strb	r5, [r2]
 1277              	.L89:
 1278              	.LBE626:
 1279              	.LBE631:
 1280              	.LBE639:
 421:../libs/PoliTeKDSP/libs/libDaisy/src/hid/disp/display.h ****             {
 1281              		.loc 10 421 13 is_stmt 1 discriminator 2 view .LVU268
 1282 00c4 0133     		adds	r3, r3, #1
 1283              	.LVL85:
 421:../libs/PoliTeKDSP/libs/libDaisy/src/hid/disp/display.h ****             {
 1284              		.loc 10 421 26 discriminator 2 view .LVU269
 1285 00c6 0132     		adds	r2, r2, #1
 1286 00c8 0131     		adds	r1, r1, #1
 1287 00ca 9C42     		cmp	r4, r3
 1288 00cc 14D0     		beq	.L92
 1289              	.LVL86:
ARM GAS  C:\Users\skipi\AppData\Local\Temp\cc9eAo3V.s 			page 52


 1290              	.L93:
 423:../libs/PoliTeKDSP/libs/libDaisy/src/hid/disp/display.h ****                 {
 1291              		.loc 10 423 23 is_stmt 0 view .LVU270
 1292 00ce 06FA03F5 		lsl	r5, r6, r3
 423:../libs/PoliTeKDSP/libs/libDaisy/src/hid/disp/display.h ****                 {
 1293              		.loc 10 423 17 view .LVU271
 1294 00d2 2D04     		lsls	r5, r5, #16
 1295 00d4 ECD4     		bmi	.L111
 1296              	.LVL87:
 1297              	.LBB640:
 1298              	.LBI613:
  42:../libs/PoliTeKDSP/libs/libDaisy/src/hid/disp/oled_display.h ****     {
 1299              		.loc 9 42 10 is_stmt 1 view .LVU272
 1300              	.LBB632:
 1301              	.LBI614:
 361:Display/../../libs/PoliTeKDSP/libs/libDaisy/src/dev/oled_ssd130x.h ****     {
 1302              		.loc 11 361 10 view .LVU273
 1303              	.LBB627:
 363:Display/../../libs/PoliTeKDSP/libs/libDaisy/src/dev/oled_ssd130x.h ****             return;
 1304              		.loc 11 363 9 is_stmt 0 view .LVU274
 1305 00d6 7F29     		cmp	r1, #127
 1306 00d8 F4D8     		bhi	.L89
 1307 00da BEF13F0F 		cmp	lr, #63
 1308 00de F1D8     		bhi	.L89
 366:Display/../../libs/PoliTeKDSP/libs/libDaisy/src/dev/oled_ssd130x.h ****         else
 1309              		.loc 11 366 42 view .LVU275
 1310 00e0 1578     		ldrb	r5, [r2]	@ zero_extendqisi2
 365:Display/../../libs/PoliTeKDSP/libs/libDaisy/src/dev/oled_ssd130x.h ****             buffer_[x + (y / 8) * width] |= (1 << (y % 8));
 1311              		.loc 11 365 9 view .LVU276
 1312 00e2 002F     		cmp	r7, #0
 1313 00e4 EBD0     		beq	.L108
 1314              	.L91:
 1315              	.LVL88:
 1316              	.LBB622:
 1317              	.LBI616:
 361:Display/../../libs/PoliTeKDSP/libs/libDaisy/src/dev/oled_ssd130x.h ****     {
 1318              		.loc 11 361 10 is_stmt 1 view .LVU277
 361:Display/../../libs/PoliTeKDSP/libs/libDaisy/src/dev/oled_ssd130x.h ****     {
 1319              		.loc 11 361 10 is_stmt 0 view .LVU278
 1320              	.LBE622:
 1321              	.LBE627:
 1322              	.LBE632:
 1323              	.LBE640:
 421:../libs/PoliTeKDSP/libs/libDaisy/src/hid/disp/display.h ****             {
 1324              		.loc 10 421 13 view .LVU279
 1325 00e6 0133     		adds	r3, r3, #1
 1326              	.LVL89:
 1327              	.LBB641:
 1328              	.LBB633:
 1329              	.LBB628:
 1330              	.LBB623:
 1331              	.LBB619:
 368:Display/../../libs/PoliTeKDSP/libs/libDaisy/src/dev/oled_ssd130x.h ****     }
 1332              		.loc 11 368 42 view .LVU280
 1333 00e8 09EA0505 		and	r5, r9, r5
 1334              	.LBE619:
 1335              	.LBE623:
ARM GAS  C:\Users\skipi\AppData\Local\Temp\cc9eAo3V.s 			page 53


 1336              	.LBE628:
 1337              	.LBE633:
 1338              	.LBE641:
 421:../libs/PoliTeKDSP/libs/libDaisy/src/hid/disp/display.h ****             {
 1339              		.loc 10 421 26 view .LVU281
 1340 00ec 0132     		adds	r2, r2, #1
 1341 00ee 0131     		adds	r1, r1, #1
 1342 00f0 9C42     		cmp	r4, r3
 1343              	.LBB642:
 1344              	.LBB634:
 1345              	.LBB629:
 1346              	.LBB624:
 1347              	.LBB620:
 368:Display/../../libs/PoliTeKDSP/libs/libDaisy/src/dev/oled_ssd130x.h ****     }
 1348              		.loc 11 368 42 view .LVU282
 1349 00f2 02F8015C 		strb	r5, [r2, #-1]
 368:Display/../../libs/PoliTeKDSP/libs/libDaisy/src/dev/oled_ssd130x.h ****     }
 1350              		.loc 11 368 42 view .LVU283
 1351              	.LBE620:
 1352              	.LBE624:
 1353              	.LBE629:
 1354              	.LBE634:
 1355              	.LBE642:
 421:../libs/PoliTeKDSP/libs/libDaisy/src/hid/disp/display.h ****             {
 1356              		.loc 10 421 13 is_stmt 1 view .LVU284
 1357              	.LVL90:
 421:../libs/PoliTeKDSP/libs/libDaisy/src/hid/disp/display.h ****             {
 1358              		.loc 10 421 26 view .LVU285
 1359 00f6 EAD1     		bne	.L93
 1360              	.LVL91:
 1361              	.L92:
 418:../libs/PoliTeKDSP/libs/libDaisy/src/hid/disp/display.h ****         {
 1362              		.loc 10 418 9 view .LVU286
 418:../libs/PoliTeKDSP/libs/libDaisy/src/hid/disp/display.h ****         {
 1363              		.loc 10 418 22 view .LVU287
 1364 00f8 5845     		cmp	r0, fp
 1365 00fa 0EF1010E 		add	lr, lr, #1
 1366 00fe C0D1     		bne	.L87
 1367              	.LVL92:
 1368              	.L86:
 1369              	.LBB643:
 1370              	.LBB644:
 173:../libs/PoliTeKDSP/libs/libDaisy/src/hid/disp/display.h ****         currentY_ = (y >= Height()) ? Height() - 1 : y;
 1371              		.loc 10 173 33 is_stmt 0 view .LVU288
 1372 0100 D8F80030 		ldr	r3, [r8]
 1373              	.LBE644:
 1374              	.LBE643:
 439:../libs/PoliTeKDSP/libs/libDaisy/src/hid/disp/display.h **** 
 1375              		.loc 10 439 18 view .LVU289
 1376 0104 5444     		add	r4, r4, r10
 1377 0106 2449     		ldr	r1, .L117
 1378              	.LBB650:
 1379              	.LBB645:
 173:../libs/PoliTeKDSP/libs/libDaisy/src/hid/disp/display.h ****         currentY_ = (y >= Height()) ? Height() - 1 : y;
 1380              		.loc 10 173 33 view .LVU290
 1381 0108 DA68     		ldr	r2, [r3, #12]
 1382              	.LBE645:
ARM GAS  C:\Users\skipi\AppData\Local\Temp\cc9eAo3V.s 			page 54


 1383              	.LBE650:
 439:../libs/PoliTeKDSP/libs/libDaisy/src/hid/disp/display.h **** 
 1384              		.loc 10 439 18 view .LVU291
 1385 010a A4B2     		uxth	r4, r4
 1386              	.LVL93:
 1387              	.LBB651:
 1388              	.LBI643:
 171:../libs/PoliTeKDSP/libs/libDaisy/src/hid/disp/display.h ****     {
 1389              		.loc 10 171 10 is_stmt 1 view .LVU292
 1390              	.LBB646:
 173:../libs/PoliTeKDSP/libs/libDaisy/src/hid/disp/display.h ****         currentY_ = (y >= Height()) ? Height() - 1 : y;
 1391              		.loc 10 173 9 view .LVU293
 1392 010c 8A42     		cmp	r2, r1
 1393 010e 2DD1     		bne	.L112
 173:../libs/PoliTeKDSP/libs/libDaisy/src/hid/disp/display.h ****         currentY_ = (y >= Height()) ? Height() - 1 : y;
 1394              		.loc 10 173 33 is_stmt 0 view .LVU294
 1395 0110 8020     		movs	r0, #128
 1396              	.L94:
 173:../libs/PoliTeKDSP/libs/libDaisy/src/hid/disp/display.h ****         currentY_ = (y >= Height()) ? Height() - 1 : y;
 1397              		.loc 10 173 19 view .LVU295
 1398 0112 8442     		cmp	r4, r0
 1399 0114 1CD2     		bcs	.L113
 1400              	.LVL94:
 1401              	.L95:
 174:../libs/PoliTeKDSP/libs/libDaisy/src/hid/disp/display.h ****     }
 1402              		.loc 10 174 34 view .LVU296
 1403 0116 9B68     		ldr	r3, [r3, #8]
 1404 0118 204A     		ldr	r2, .L117+4
 173:../libs/PoliTeKDSP/libs/libDaisy/src/hid/disp/display.h ****         currentY_ = (y >= Height()) ? Height() - 1 : y;
 1405              		.loc 10 173 19 view .LVU297
 1406 011a A8F80440 		strh	r4, [r8, #4]	@ movhi
 174:../libs/PoliTeKDSP/libs/libDaisy/src/hid/disp/display.h ****     }
 1407              		.loc 10 174 9 is_stmt 1 view .LVU298
 1408 011e 9342     		cmp	r3, r2
 1409 0120 21D1     		bne	.L114
 174:../libs/PoliTeKDSP/libs/libDaisy/src/hid/disp/display.h ****     }
 1410              		.loc 10 174 34 is_stmt 0 view .LVU299
 1411 0122 4020     		movs	r0, #64
 1412              	.L97:
 174:../libs/PoliTeKDSP/libs/libDaisy/src/hid/disp/display.h ****     }
 1413              		.loc 10 174 19 view .LVU300
 1414 0124 019B     		ldr	r3, [sp, #4]
 1415 0126 8342     		cmp	r3, r0
 1416 0128 07D3     		bcc	.L98
 174:../libs/PoliTeKDSP/libs/libDaisy/src/hid/disp/display.h ****     }
 1417              		.loc 10 174 46 view .LVU301
 1418 012a D8F80030 		ldr	r3, [r8]
 1419 012e 1B4A     		ldr	r2, .L117+4
 1420 0130 9B68     		ldr	r3, [r3, #8]
 1421 0132 9342     		cmp	r3, r2
 1422 0134 29D1     		bne	.L115
 1423 0136 3F23     		movs	r3, #63
 1424 0138 0193     		str	r3, [sp, #4]
 1425              	.LVL95:
 1426              	.L98:
 174:../libs/PoliTeKDSP/libs/libDaisy/src/hid/disp/display.h ****     }
 1427              		.loc 10 174 19 view .LVU302
ARM GAS  C:\Users\skipi\AppData\Local\Temp\cc9eAo3V.s 			page 55


 1428 013a DDE90003 		ldrd	r0, r3, [sp]
 1429 013e A8F80630 		strh	r3, [r8, #6]	@ movhi
 1430              	.LVL96:
 174:../libs/PoliTeKDSP/libs/libDaisy/src/hid/disp/display.h ****     }
 1431              		.loc 10 174 19 view .LVU303
 1432              	.LBE646:
 1433              	.LBE651:
 443:../libs/PoliTeKDSP/libs/libDaisy/src/hid/disp/display.h **** 
 1434              		.loc 10 443 5 view .LVU304
 1435 0142 05B0     		add	sp, sp, #20
 1436              		.cfi_remember_state
 1437              		.cfi_def_cfa_offset 36
 1438              		@ sp needed
 1439 0144 BDE8F08F 		pop	{r4, r5, r6, r7, r8, r9, r10, fp, pc}
 1440              	.LVL97:
 1441              	.L82:
 1442              		.cfi_restore_state
 407:../libs/PoliTeKDSP/libs/libDaisy/src/hid/disp/display.h **** 
 1443              		.loc 10 407 20 view .LVU305
 1444 0148 0020     		movs	r0, #0
 443:../libs/PoliTeKDSP/libs/libDaisy/src/hid/disp/display.h **** 
 1445              		.loc 10 443 5 view .LVU306
 1446 014a 05B0     		add	sp, sp, #20
 1447              		.cfi_remember_state
 1448              		.cfi_def_cfa_offset 36
 1449              		@ sp needed
 1450 014c BDE8F08F 		pop	{r4, r5, r6, r7, r8, r9, r10, fp, pc}
 1451              	.LVL98:
 1452              	.L113:
 1453              		.cfi_restore_state
 1454              	.LBB652:
 1455              	.LBB647:
 173:../libs/PoliTeKDSP/libs/libDaisy/src/hid/disp/display.h ****         currentY_ = (y >= Height()) ? Height() - 1 : y;
 1456              		.loc 10 173 44 view .LVU307
 1457 0150 DA68     		ldr	r2, [r3, #12]
 1458 0152 1149     		ldr	r1, .L117
 1459 0154 8A42     		cmp	r2, r1
 1460 0156 11D1     		bne	.L116
 1461 0158 7F24     		movs	r4, #127
 1462              	.LVL99:
 173:../libs/PoliTeKDSP/libs/libDaisy/src/hid/disp/display.h ****         currentY_ = (y >= Height()) ? Height() - 1 : y;
 1463              		.loc 10 173 44 view .LVU308
 1464 015a DCE7     		b	.L95
 1465              	.LVL100:
 1466              	.L109:
 173:../libs/PoliTeKDSP/libs/libDaisy/src/hid/disp/display.h ****         currentY_ = (y >= Height()) ? Height() - 1 : y;
 1467              		.loc 10 173 44 view .LVU309
 1468              	.LBE647:
 1469              	.LBE652:
 410:../libs/PoliTeKDSP/libs/libDaisy/src/hid/disp/display.h ****            || Height() < (currentY_ + font.FontHeight))
 1470              		.loc 10 410 17 view .LVU310
 1471 015c 9847     		blx	r3
 1472              	.LVL101:
 410:../libs/PoliTeKDSP/libs/libDaisy/src/hid/disp/display.h ****            || Height() < (currentY_ + font.FontHeight))
 1473              		.loc 10 410 17 view .LVU311
 1474 015e 6AE7     		b	.L81
 1475              	.L110:
ARM GAS  C:\Users\skipi\AppData\Local\Temp\cc9eAo3V.s 			page 56


 411:../libs/PoliTeKDSP/libs/libDaisy/src/hid/disp/display.h ****         {
 1476              		.loc 10 411 21 discriminator 2 view .LVU312
 1477 0160 4046     		mov	r0, r8
 1478 0162 9847     		blx	r3
 1479              	.LVL102:
 1480 0164 75E7     		b	.L83
 1481              	.LVL103:
 1482              	.L114:
 1483              	.LBB653:
 1484              	.LBB648:
 174:../libs/PoliTeKDSP/libs/libDaisy/src/hid/disp/display.h ****     }
 1485              		.loc 10 174 33 view .LVU313
 1486 0166 4046     		mov	r0, r8
 1487 0168 9847     		blx	r3
 1488              	.LVL104:
 1489 016a DBE7     		b	.L97
 1490              	.LVL105:
 1491              	.L112:
 173:../libs/PoliTeKDSP/libs/libDaisy/src/hid/disp/display.h ****         currentY_ = (y >= Height()) ? Height() - 1 : y;
 1492              		.loc 10 173 32 view .LVU314
 1493 016c 4046     		mov	r0, r8
 1494 016e 9047     		blx	r2
 1495              	.LVL106:
 173:../libs/PoliTeKDSP/libs/libDaisy/src/hid/disp/display.h ****         currentY_ = (y >= Height()) ? Height() - 1 : y;
 1496              		.loc 10 173 44 view .LVU315
 1497 0170 D8F80030 		ldr	r3, [r8]
 1498 0174 CDE7     		b	.L94
 1499              	.LVL107:
 1500              	.L84:
 173:../libs/PoliTeKDSP/libs/libDaisy/src/hid/disp/display.h ****         currentY_ = (y >= Height()) ? Height() - 1 : y;
 1501              		.loc 10 173 44 view .LVU316
 1502              	.LBE648:
 1503              	.LBE653:
 439:../libs/PoliTeKDSP/libs/libDaisy/src/hid/disp/display.h **** 
 1504              		.loc 10 439 19 view .LVU317
 1505 0176 B8F804A0 		ldrh	r10, [r8, #4]
 1506 017a C1E7     		b	.L86
 1507              	.LVL108:
 1508              	.L116:
 1509              	.LBB654:
 1510              	.LBB649:
 173:../libs/PoliTeKDSP/libs/libDaisy/src/hid/disp/display.h ****         currentY_ = (y >= Height()) ? Height() - 1 : y;
 1511              		.loc 10 173 43 view .LVU318
 1512 017c 4046     		mov	r0, r8
 1513 017e 9047     		blx	r2
 1514              	.LVL109:
 173:../libs/PoliTeKDSP/libs/libDaisy/src/hid/disp/display.h ****         currentY_ = (y >= Height()) ? Height() - 1 : y;
 1515              		.loc 10 173 19 view .LVU319
 1516 0180 0138     		subs	r0, r0, #1
 174:../libs/PoliTeKDSP/libs/libDaisy/src/hid/disp/display.h ****     }
 1517              		.loc 10 174 34 view .LVU320
 1518 0182 D8F80030 		ldr	r3, [r8]
 173:../libs/PoliTeKDSP/libs/libDaisy/src/hid/disp/display.h ****         currentY_ = (y >= Height()) ? Height() - 1 : y;
 1519              		.loc 10 173 19 view .LVU321
 1520 0186 84B2     		uxth	r4, r0
 1521              	.LVL110:
 173:../libs/PoliTeKDSP/libs/libDaisy/src/hid/disp/display.h ****         currentY_ = (y >= Height()) ? Height() - 1 : y;
ARM GAS  C:\Users\skipi\AppData\Local\Temp\cc9eAo3V.s 			page 57


 1522              		.loc 10 173 19 view .LVU322
 1523 0188 C5E7     		b	.L95
 1524              	.L115:
 174:../libs/PoliTeKDSP/libs/libDaisy/src/hid/disp/display.h ****     }
 1525              		.loc 10 174 45 view .LVU323
 1526 018a 4046     		mov	r0, r8
 1527 018c 9847     		blx	r3
 1528              	.LVL111:
 174:../libs/PoliTeKDSP/libs/libDaisy/src/hid/disp/display.h ****     }
 1529              		.loc 10 174 19 view .LVU324
 1530 018e 0138     		subs	r0, r0, #1
 1531 0190 83B2     		uxth	r3, r0
 1532 0192 0193     		str	r3, [sp, #4]
 1533              	.LVL112:
 174:../libs/PoliTeKDSP/libs/libDaisy/src/hid/disp/display.h ****     }
 1534              		.loc 10 174 19 view .LVU325
 1535 0194 D1E7     		b	.L98
 1536              	.L118:
 1537 0196 00BF     		.align	2
 1538              	.L117:
 1539 0198 00000000 		.word	_ZNK5daisy11OledDisplayINS_13SSD130xDriverILj128ELj64ENS_19SSD130xI2CTransportEEEE5WidthEv
 1540 019c 00000000 		.word	_ZNK5daisy11OledDisplayINS_13SSD130xDriverILj128ELj64ENS_19SSD130xI2CTransportEEEE6HeightEv
 1541              	.LBE649:
 1542              	.LBE654:
 1543              		.cfi_endproc
 1544              	.LFE5557:
 1546              		.section	.text._ZN5daisy25OneBitGraphicsDisplayImplINS_11OledDisplayINS_13SSD130xDriverILj128ELj64
 1547              		.align	1
 1548              		.p2align 2,,3
 1549              		.weak	_ZN5daisy25OneBitGraphicsDisplayImplINS_11OledDisplayINS_13SSD130xDriverILj128ELj64ENS_19SSD
 1550              		.syntax unified
 1551              		.thumb
 1552              		.thumb_func
 1553              		.fpu fpv5-d16
 1555              	_ZN5daisy25OneBitGraphicsDisplayImplINS_11OledDisplayINS_13SSD130xDriverILj128ELj64ENS_19SSD130xI2C
 1556              	.LVL113:
 1557              	.LFB5559:
 464:../libs/PoliTeKDSP/libs/libDaisy/src/hid/disp/display.h **** 
 465:../libs/PoliTeKDSP/libs/libDaisy/src/hid/disp/display.h ****     Rectangle WriteStringAligned(const char*    str,
 1558              		.loc 10 465 15 is_stmt 1 view -0
 1559              		.cfi_startproc
 1560              		@ args = 12, pretend = 0, frame = 32
 1561              		@ frame_needed = 0, uses_anonymous_args = 0
 1562              		.loc 10 465 15 is_stmt 0 view .LVU327
 1563 0000 2DE9F04F 		push	{r4, r5, r6, r7, r8, r9, r10, fp, lr}
 1564              		.cfi_def_cfa_offset 36
 1565              		.cfi_offset 4, -36
 1566              		.cfi_offset 5, -32
 1567              		.cfi_offset 6, -28
 1568              		.cfi_offset 7, -24
 1569              		.cfi_offset 8, -20
 1570              		.cfi_offset 9, -16
 1571              		.cfi_offset 10, -12
 1572              		.cfi_offset 11, -8
 1573              		.cfi_offset 14, -4
 1574 0004 89B0     		sub	sp, sp, #36
 1575              		.cfi_def_cfa_offset 72
ARM GAS  C:\Users\skipi\AppData\Local\Temp\cc9eAo3V.s 			page 58


 1576              		.loc 10 465 15 view .LVU328
 1577 0006 1D46     		mov	r5, r3
 1578 0008 8846     		mov	r8, r1
 1579              	.LVL114:
 1580              	.LBB793:
 1581              	.LBI793:
 466:../libs/PoliTeKDSP/libs/libDaisy/src/hid/disp/display.h ****                                  const FontDef& font,
 467:../libs/PoliTeKDSP/libs/libDaisy/src/hid/disp/display.h ****                                  Rectangle      boundingBox,
 468:../libs/PoliTeKDSP/libs/libDaisy/src/hid/disp/display.h ****                                  Alignment      alignment,
 469:../libs/PoliTeKDSP/libs/libDaisy/src/hid/disp/display.h ****                                  bool           on) override
 470:../libs/PoliTeKDSP/libs/libDaisy/src/hid/disp/display.h ****     {
 471:../libs/PoliTeKDSP/libs/libDaisy/src/hid/disp/display.h ****         const auto alignedRect
 472:../libs/PoliTeKDSP/libs/libDaisy/src/hid/disp/display.h ****             = GetTextRect(str, font).AlignedWithin(boundingBox, alignment);
 473:../libs/PoliTeKDSP/libs/libDaisy/src/hid/disp/display.h ****         SetCursor(alignedRect.GetX(), alignedRect.GetY());
 474:../libs/PoliTeKDSP/libs/libDaisy/src/hid/disp/display.h ****         ((ChildType*)(this))->ChildType::WriteString(str, font, on);
 475:../libs/PoliTeKDSP/libs/libDaisy/src/hid/disp/display.h ****         return alignedRect;
 476:../libs/PoliTeKDSP/libs/libDaisy/src/hid/disp/display.h ****     }
 477:../libs/PoliTeKDSP/libs/libDaisy/src/hid/disp/display.h **** 
 478:../libs/PoliTeKDSP/libs/libDaisy/src/hid/disp/display.h ****   private:
 479:../libs/PoliTeKDSP/libs/libDaisy/src/hid/disp/display.h ****     uint32_t strlen(const char* string)
 480:../libs/PoliTeKDSP/libs/libDaisy/src/hid/disp/display.h ****     {
 481:../libs/PoliTeKDSP/libs/libDaisy/src/hid/disp/display.h ****         uint32_t result = 0;
 482:../libs/PoliTeKDSP/libs/libDaisy/src/hid/disp/display.h ****         while(*string++ != '\0')
 483:../libs/PoliTeKDSP/libs/libDaisy/src/hid/disp/display.h ****             result++;
 484:../libs/PoliTeKDSP/libs/libDaisy/src/hid/disp/display.h ****         return result;
 485:../libs/PoliTeKDSP/libs/libDaisy/src/hid/disp/display.h ****     }
 486:../libs/PoliTeKDSP/libs/libDaisy/src/hid/disp/display.h **** 
 487:../libs/PoliTeKDSP/libs/libDaisy/src/hid/disp/display.h ****     Rectangle GetTextRect(const char* text, const FontDef& font)
 1582              		.loc 10 487 15 is_stmt 1 view .LVU329
 1583              	.LBB794:
 1584              	.LBB795:
 1585              	.LBI795:
 479:../libs/PoliTeKDSP/libs/libDaisy/src/hid/disp/display.h ****     {
 1586              		.loc 10 479 14 view .LVU330
 1587              	.LBB796:
 482:../libs/PoliTeKDSP/libs/libDaisy/src/hid/disp/display.h ****             result++;
 1588              		.loc 10 482 25 view .LVU331
 1589              	.LBE796:
 1590              	.LBE795:
 1591              	.LBE794:
 1592              	.LBE793:
 465:../libs/PoliTeKDSP/libs/libDaisy/src/hid/disp/display.h ****                                  const FontDef& font,
 1593              		.loc 10 465 15 is_stmt 0 view .LVU332
 1594 000a 0690     		str	r0, [sp, #24]
 1595              	.LBB811:
 1596              	.LBB807:
 1597              	.LBB800:
 1598              	.LBB797:
 482:../libs/PoliTeKDSP/libs/libDaisy/src/hid/disp/display.h ****             result++;
 1599              		.loc 10 482 25 view .LVU333
 1600 000c 1046     		mov	r0, r2
 1601              	.LVL115:
 482:../libs/PoliTeKDSP/libs/libDaisy/src/hid/disp/display.h ****             result++;
 1602              		.loc 10 482 25 view .LVU334
 1603              	.LBE797:
 1604              	.LBE800:
 1605              	.LBE807:
ARM GAS  C:\Users\skipi\AppData\Local\Temp\cc9eAo3V.s 			page 59


 1606              	.LBE811:
 465:../libs/PoliTeKDSP/libs/libDaisy/src/hid/disp/display.h ****                                  const FontDef& font,
 1607              		.loc 10 465 15 view .LVU335
 1608 000e 129C     		ldr	r4, [sp, #72]
 1609              	.LBB812:
 1610              	.LBB808:
 1611              	.LBB801:
 1612              	.LBB798:
 482:../libs/PoliTeKDSP/libs/libDaisy/src/hid/disp/display.h ****             result++;
 1613              		.loc 10 482 25 view .LVU336
 1614 0010 10F8013B 		ldrb	r3, [r0], #1	@ zero_extendqisi2
 1615              	.LVL116:
 482:../libs/PoliTeKDSP/libs/libDaisy/src/hid/disp/display.h ****             result++;
 1616              		.loc 10 482 25 view .LVU337
 1617              	.LBE798:
 1618              	.LBE801:
 1619              	.LBE808:
 1620              	.LBE812:
 465:../libs/PoliTeKDSP/libs/libDaisy/src/hid/disp/display.h ****                                  const FontDef& font,
 1621              		.loc 10 465 15 view .LVU338
 1622 0014 1399     		ldr	r1, [sp, #76]
 1623              	.LVL117:
 465:../libs/PoliTeKDSP/libs/libDaisy/src/hid/disp/display.h ****                                  const FontDef& font,
 1624              		.loc 10 465 15 view .LVU339
 1625 0016 9DF85060 		ldrb	r6, [sp, #80]	@ zero_extendqisi2
 1626 001a 0092     		str	r2, [sp]
 1627              	.LBB813:
 1628              	.LBB809:
 1629              	.LBB802:
 1630              	.LBB799:
 482:../libs/PoliTeKDSP/libs/libDaisy/src/hid/disp/display.h ****             result++;
 1631              		.loc 10 482 25 view .LVU340
 1632 001c 33B1     		cbz	r3, .L120
 481:../libs/PoliTeKDSP/libs/libDaisy/src/hid/disp/display.h ****         while(*string++ != '\0')
 1633              		.loc 10 481 18 view .LVU341
 1634 001e 0022     		movs	r2, #0
 1635              	.LVL118:
 1636              	.L121:
 482:../libs/PoliTeKDSP/libs/libDaisy/src/hid/disp/display.h ****             result++;
 1637              		.loc 10 482 25 view .LVU342
 1638 0020 10F8013B 		ldrb	r3, [r0], #1	@ zero_extendqisi2
 1639              	.LVL119:
 483:../libs/PoliTeKDSP/libs/libDaisy/src/hid/disp/display.h ****         return result;
 1640              		.loc 10 483 13 view .LVU343
 1641 0024 0132     		adds	r2, r2, #1
 1642              	.LVL120:
 482:../libs/PoliTeKDSP/libs/libDaisy/src/hid/disp/display.h ****             result++;
 1643              		.loc 10 482 25 is_stmt 1 view .LVU344
 1644 0026 002B     		cmp	r3, #0
 1645 0028 FAD1     		bne	.L121
 1646              	.LBE799:
 1647              	.LBE802:
 488:../libs/PoliTeKDSP/libs/libDaisy/src/hid/disp/display.h ****     {
 489:../libs/PoliTeKDSP/libs/libDaisy/src/hid/disp/display.h ****         const auto numChars = strlen(text);
 490:../libs/PoliTeKDSP/libs/libDaisy/src/hid/disp/display.h ****         return {int16_t(numChars * font.FontWidth), font.FontHeight};
 1648              		.loc 10 490 68 is_stmt 0 view .LVU345
 1649 002a 93B2     		uxth	r3, r2
ARM GAS  C:\Users\skipi\AppData\Local\Temp\cc9eAo3V.s 			page 60


 1650              	.LVL121:
 1651              	.L120:
 1652              		.loc 10 490 68 view .LVU346
 1653 002c 2A78     		ldrb	r2, [r5]	@ zero_extendqisi2
 1654              		.loc 10 490 58 view .LVU347
 1655 002e 6878     		ldrb	r0, [r5, #1]	@ zero_extendqisi2
 1656              		.loc 10 490 68 view .LVU348
 1657 0030 12FB03F3 		smulbb	r3, r2, r3
 1658 0034 02B2     		sxth	r2, r0
 1659              	.LVL122:
 1660              	.LBB803:
 1661              	.LBI803:
 1662              		.file 12 "../libs/PoliTeKDSP/libs/libDaisy/src/hid/disp/graphics_common.h"
   1:../libs/PoliTeKDSP/libs/libDaisy/src/hid/disp/graphics_common.h **** #pragma once
   2:../libs/PoliTeKDSP/libs/libDaisy/src/hid/disp/graphics_common.h **** 
   3:../libs/PoliTeKDSP/libs/libDaisy/src/hid/disp/graphics_common.h **** #include <cstdint>
   4:../libs/PoliTeKDSP/libs/libDaisy/src/hid/disp/graphics_common.h **** 
   5:../libs/PoliTeKDSP/libs/libDaisy/src/hid/disp/graphics_common.h **** namespace daisy
   6:../libs/PoliTeKDSP/libs/libDaisy/src/hid/disp/graphics_common.h **** {
   7:../libs/PoliTeKDSP/libs/libDaisy/src/hid/disp/graphics_common.h **** /** Justifications */
   8:../libs/PoliTeKDSP/libs/libDaisy/src/hid/disp/graphics_common.h **** enum class Alignment
   9:../libs/PoliTeKDSP/libs/libDaisy/src/hid/disp/graphics_common.h **** {
  10:../libs/PoliTeKDSP/libs/libDaisy/src/hid/disp/graphics_common.h ****     centered,
  11:../libs/PoliTeKDSP/libs/libDaisy/src/hid/disp/graphics_common.h ****     topLeft,
  12:../libs/PoliTeKDSP/libs/libDaisy/src/hid/disp/graphics_common.h ****     topCentered,
  13:../libs/PoliTeKDSP/libs/libDaisy/src/hid/disp/graphics_common.h ****     topRight,
  14:../libs/PoliTeKDSP/libs/libDaisy/src/hid/disp/graphics_common.h ****     bottomLeft,
  15:../libs/PoliTeKDSP/libs/libDaisy/src/hid/disp/graphics_common.h ****     bottomCentered,
  16:../libs/PoliTeKDSP/libs/libDaisy/src/hid/disp/graphics_common.h ****     bottomRight,
  17:../libs/PoliTeKDSP/libs/libDaisy/src/hid/disp/graphics_common.h ****     centeredLeft,
  18:../libs/PoliTeKDSP/libs/libDaisy/src/hid/disp/graphics_common.h ****     centeredRight
  19:../libs/PoliTeKDSP/libs/libDaisy/src/hid/disp/graphics_common.h **** };
  20:../libs/PoliTeKDSP/libs/libDaisy/src/hid/disp/graphics_common.h **** 
  21:../libs/PoliTeKDSP/libs/libDaisy/src/hid/disp/graphics_common.h **** class Rectangle
  22:../libs/PoliTeKDSP/libs/libDaisy/src/hid/disp/graphics_common.h **** {
  23:../libs/PoliTeKDSP/libs/libDaisy/src/hid/disp/graphics_common.h ****   public:
  24:../libs/PoliTeKDSP/libs/libDaisy/src/hid/disp/graphics_common.h ****     Rectangle() : x_(0), y_(0), width_(0), height_(0) {}
  25:../libs/PoliTeKDSP/libs/libDaisy/src/hid/disp/graphics_common.h **** 
  26:../libs/PoliTeKDSP/libs/libDaisy/src/hid/disp/graphics_common.h ****     Rectangle(int16_t width, int16_t height)
 1663              		.loc 12 26 5 is_stmt 1 view .LVU349
 1664              	.LBB804:
 1665              	.LBI804:
  27:../libs/PoliTeKDSP/libs/libDaisy/src/hid/disp/graphics_common.h ****     : x_(0), y_(0), width_(max(0, width)), height_(max(0, height))
  28:../libs/PoliTeKDSP/libs/libDaisy/src/hid/disp/graphics_common.h ****     {
  29:../libs/PoliTeKDSP/libs/libDaisy/src/hid/disp/graphics_common.h ****     }
  30:../libs/PoliTeKDSP/libs/libDaisy/src/hid/disp/graphics_common.h **** 
  31:../libs/PoliTeKDSP/libs/libDaisy/src/hid/disp/graphics_common.h ****     Rectangle(int16_t x, int16_t y, int16_t width, int16_t height)
  32:../libs/PoliTeKDSP/libs/libDaisy/src/hid/disp/graphics_common.h ****     : x_(x), y_(y), width_(max(0, width)), height_(max(0, height))
  33:../libs/PoliTeKDSP/libs/libDaisy/src/hid/disp/graphics_common.h ****     {
  34:../libs/PoliTeKDSP/libs/libDaisy/src/hid/disp/graphics_common.h ****     }
  35:../libs/PoliTeKDSP/libs/libDaisy/src/hid/disp/graphics_common.h **** 
  36:../libs/PoliTeKDSP/libs/libDaisy/src/hid/disp/graphics_common.h ****     Rectangle(const Rectangle& other) { *this = other; }
  37:../libs/PoliTeKDSP/libs/libDaisy/src/hid/disp/graphics_common.h **** 
  38:../libs/PoliTeKDSP/libs/libDaisy/src/hid/disp/graphics_common.h ****     Rectangle& operator=(const Rectangle& other)
  39:../libs/PoliTeKDSP/libs/libDaisy/src/hid/disp/graphics_common.h ****     {
  40:../libs/PoliTeKDSP/libs/libDaisy/src/hid/disp/graphics_common.h ****         x_      = other.x_;
  41:../libs/PoliTeKDSP/libs/libDaisy/src/hid/disp/graphics_common.h ****         y_      = other.y_;
ARM GAS  C:\Users\skipi\AppData\Local\Temp\cc9eAo3V.s 			page 61


  42:../libs/PoliTeKDSP/libs/libDaisy/src/hid/disp/graphics_common.h ****         width_  = other.width_;
  43:../libs/PoliTeKDSP/libs/libDaisy/src/hid/disp/graphics_common.h ****         height_ = other.height_;
  44:../libs/PoliTeKDSP/libs/libDaisy/src/hid/disp/graphics_common.h ****         return *this;
  45:../libs/PoliTeKDSP/libs/libDaisy/src/hid/disp/graphics_common.h ****     }
  46:../libs/PoliTeKDSP/libs/libDaisy/src/hid/disp/graphics_common.h **** 
  47:../libs/PoliTeKDSP/libs/libDaisy/src/hid/disp/graphics_common.h ****     bool operator==(const Rectangle& other) const
  48:../libs/PoliTeKDSP/libs/libDaisy/src/hid/disp/graphics_common.h ****     {
  49:../libs/PoliTeKDSP/libs/libDaisy/src/hid/disp/graphics_common.h ****         return (x_ == other.x_) && (y_ == other.y_) && (width_ == other.width_)
  50:../libs/PoliTeKDSP/libs/libDaisy/src/hid/disp/graphics_common.h ****                && (height_ == other.height_);
  51:../libs/PoliTeKDSP/libs/libDaisy/src/hid/disp/graphics_common.h ****     }
  52:../libs/PoliTeKDSP/libs/libDaisy/src/hid/disp/graphics_common.h ****     bool operator!=(const Rectangle& other) const { return !(*this == other); }
  53:../libs/PoliTeKDSP/libs/libDaisy/src/hid/disp/graphics_common.h **** 
  54:../libs/PoliTeKDSP/libs/libDaisy/src/hid/disp/graphics_common.h ****     bool IsEmpty() const { return (width_ <= 0) || (height_ <= 0); }
  55:../libs/PoliTeKDSP/libs/libDaisy/src/hid/disp/graphics_common.h **** 
  56:../libs/PoliTeKDSP/libs/libDaisy/src/hid/disp/graphics_common.h ****     int16_t GetX() const { return x_; }
  57:../libs/PoliTeKDSP/libs/libDaisy/src/hid/disp/graphics_common.h ****     int16_t GetY() const { return y_; }
  58:../libs/PoliTeKDSP/libs/libDaisy/src/hid/disp/graphics_common.h ****     int16_t GetWidth() const { return width_; }
  59:../libs/PoliTeKDSP/libs/libDaisy/src/hid/disp/graphics_common.h ****     int16_t GetHeight() const { return height_; }
  60:../libs/PoliTeKDSP/libs/libDaisy/src/hid/disp/graphics_common.h ****     int16_t GetRight() const { return x_ + width_; }
  61:../libs/PoliTeKDSP/libs/libDaisy/src/hid/disp/graphics_common.h ****     int16_t GetBottom() const { return y_ + height_; }
  62:../libs/PoliTeKDSP/libs/libDaisy/src/hid/disp/graphics_common.h ****     int16_t GetCenterX() const { return x_ + width_ / 2; }
  63:../libs/PoliTeKDSP/libs/libDaisy/src/hid/disp/graphics_common.h ****     int16_t GetCenterY() const { return y_ + height_ / 2; }
  64:../libs/PoliTeKDSP/libs/libDaisy/src/hid/disp/graphics_common.h **** 
  65:../libs/PoliTeKDSP/libs/libDaisy/src/hid/disp/graphics_common.h ****     Rectangle WithX(int16_t x) const { return {x, y_, width_, height_}; }
  66:../libs/PoliTeKDSP/libs/libDaisy/src/hid/disp/graphics_common.h ****     Rectangle WithY(int16_t y) const { return {x_, y, width_, height_}; }
  67:../libs/PoliTeKDSP/libs/libDaisy/src/hid/disp/graphics_common.h ****     Rectangle WithWidth(int16_t width) const
  68:../libs/PoliTeKDSP/libs/libDaisy/src/hid/disp/graphics_common.h ****     {
  69:../libs/PoliTeKDSP/libs/libDaisy/src/hid/disp/graphics_common.h ****         return {x_, y_, width, height_};
  70:../libs/PoliTeKDSP/libs/libDaisy/src/hid/disp/graphics_common.h ****     }
  71:../libs/PoliTeKDSP/libs/libDaisy/src/hid/disp/graphics_common.h ****     Rectangle WithHeight(int16_t height) const
  72:../libs/PoliTeKDSP/libs/libDaisy/src/hid/disp/graphics_common.h ****     {
  73:../libs/PoliTeKDSP/libs/libDaisy/src/hid/disp/graphics_common.h ****         return {x_, y_, width_, height};
  74:../libs/PoliTeKDSP/libs/libDaisy/src/hid/disp/graphics_common.h ****     }
  75:../libs/PoliTeKDSP/libs/libDaisy/src/hid/disp/graphics_common.h ****     Rectangle WithSize(int16_t width, int16_t height) const
  76:../libs/PoliTeKDSP/libs/libDaisy/src/hid/disp/graphics_common.h ****     {
  77:../libs/PoliTeKDSP/libs/libDaisy/src/hid/disp/graphics_common.h ****         return {x_, y_, width, height};
  78:../libs/PoliTeKDSP/libs/libDaisy/src/hid/disp/graphics_common.h ****     }
  79:../libs/PoliTeKDSP/libs/libDaisy/src/hid/disp/graphics_common.h ****     Rectangle WithWidthKeepingCenter(int16_t width) const
  80:../libs/PoliTeKDSP/libs/libDaisy/src/hid/disp/graphics_common.h ****     {
  81:../libs/PoliTeKDSP/libs/libDaisy/src/hid/disp/graphics_common.h ****         return Rectangle(x_, y_, width, height_)
  82:../libs/PoliTeKDSP/libs/libDaisy/src/hid/disp/graphics_common.h ****             .WithCenter(GetCenterX(), GetCenterY());
  83:../libs/PoliTeKDSP/libs/libDaisy/src/hid/disp/graphics_common.h ****     }
  84:../libs/PoliTeKDSP/libs/libDaisy/src/hid/disp/graphics_common.h ****     Rectangle WithHeightKeepingCenter(int16_t height) const
  85:../libs/PoliTeKDSP/libs/libDaisy/src/hid/disp/graphics_common.h ****     {
  86:../libs/PoliTeKDSP/libs/libDaisy/src/hid/disp/graphics_common.h ****         return Rectangle(x_, y_, width_, height)
  87:../libs/PoliTeKDSP/libs/libDaisy/src/hid/disp/graphics_common.h ****             .WithCenter(GetCenterX(), GetCenterY());
  88:../libs/PoliTeKDSP/libs/libDaisy/src/hid/disp/graphics_common.h ****     }
  89:../libs/PoliTeKDSP/libs/libDaisy/src/hid/disp/graphics_common.h ****     Rectangle WithSizeKeepingCenter(int16_t width, int16_t height) const
  90:../libs/PoliTeKDSP/libs/libDaisy/src/hid/disp/graphics_common.h ****     {
  91:../libs/PoliTeKDSP/libs/libDaisy/src/hid/disp/graphics_common.h ****         return Rectangle(x_, y_, width, height)
  92:../libs/PoliTeKDSP/libs/libDaisy/src/hid/disp/graphics_common.h ****             .WithCenter(GetCenterX(), GetCenterY());
  93:../libs/PoliTeKDSP/libs/libDaisy/src/hid/disp/graphics_common.h ****     }
  94:../libs/PoliTeKDSP/libs/libDaisy/src/hid/disp/graphics_common.h **** 
  95:../libs/PoliTeKDSP/libs/libDaisy/src/hid/disp/graphics_common.h ****     Rectangle Reduced(int16_t sizeToReduce) const
  96:../libs/PoliTeKDSP/libs/libDaisy/src/hid/disp/graphics_common.h ****     {
  97:../libs/PoliTeKDSP/libs/libDaisy/src/hid/disp/graphics_common.h ****         return {int16_t(x_ + sizeToReduce),
  98:../libs/PoliTeKDSP/libs/libDaisy/src/hid/disp/graphics_common.h ****                 int16_t(y_ + sizeToReduce),
ARM GAS  C:\Users\skipi\AppData\Local\Temp\cc9eAo3V.s 			page 62


  99:../libs/PoliTeKDSP/libs/libDaisy/src/hid/disp/graphics_common.h ****                 int16_t(width_ - 2 * sizeToReduce),
 100:../libs/PoliTeKDSP/libs/libDaisy/src/hid/disp/graphics_common.h ****                 int16_t(height_ - 2 * sizeToReduce)};
 101:../libs/PoliTeKDSP/libs/libDaisy/src/hid/disp/graphics_common.h ****     }
 102:../libs/PoliTeKDSP/libs/libDaisy/src/hid/disp/graphics_common.h ****     Rectangle Reduced(int16_t xToReduce, int16_t yToReduce) const
 103:../libs/PoliTeKDSP/libs/libDaisy/src/hid/disp/graphics_common.h ****     {
 104:../libs/PoliTeKDSP/libs/libDaisy/src/hid/disp/graphics_common.h ****         return {int16_t(x_ + xToReduce),
 105:../libs/PoliTeKDSP/libs/libDaisy/src/hid/disp/graphics_common.h ****                 int16_t(y_ + yToReduce),
 106:../libs/PoliTeKDSP/libs/libDaisy/src/hid/disp/graphics_common.h ****                 int16_t(width_ - 2 * xToReduce),
 107:../libs/PoliTeKDSP/libs/libDaisy/src/hid/disp/graphics_common.h ****                 int16_t(height_ - 2 * yToReduce)};
 108:../libs/PoliTeKDSP/libs/libDaisy/src/hid/disp/graphics_common.h ****     }
 109:../libs/PoliTeKDSP/libs/libDaisy/src/hid/disp/graphics_common.h **** 
 110:../libs/PoliTeKDSP/libs/libDaisy/src/hid/disp/graphics_common.h ****     Rectangle Translated(int16_t x, int16_t y) const
 111:../libs/PoliTeKDSP/libs/libDaisy/src/hid/disp/graphics_common.h ****     {
 112:../libs/PoliTeKDSP/libs/libDaisy/src/hid/disp/graphics_common.h ****         return {int16_t(x_ + x), int16_t(y_ + y), width_, height_};
 113:../libs/PoliTeKDSP/libs/libDaisy/src/hid/disp/graphics_common.h ****     }
 114:../libs/PoliTeKDSP/libs/libDaisy/src/hid/disp/graphics_common.h **** 
 115:../libs/PoliTeKDSP/libs/libDaisy/src/hid/disp/graphics_common.h ****     Rectangle WithLeft(int16_t left) const
 116:../libs/PoliTeKDSP/libs/libDaisy/src/hid/disp/graphics_common.h ****     {
 117:../libs/PoliTeKDSP/libs/libDaisy/src/hid/disp/graphics_common.h ****         const auto newWidth = int16_t((x_ - left) + width_);
 118:../libs/PoliTeKDSP/libs/libDaisy/src/hid/disp/graphics_common.h ****         return {left, y_, newWidth, height_};
 119:../libs/PoliTeKDSP/libs/libDaisy/src/hid/disp/graphics_common.h ****     }
 120:../libs/PoliTeKDSP/libs/libDaisy/src/hid/disp/graphics_common.h **** 
 121:../libs/PoliTeKDSP/libs/libDaisy/src/hid/disp/graphics_common.h ****     Rectangle WithRight(int16_t right) const
 122:../libs/PoliTeKDSP/libs/libDaisy/src/hid/disp/graphics_common.h ****     {
 123:../libs/PoliTeKDSP/libs/libDaisy/src/hid/disp/graphics_common.h ****         const auto newWidth = int16_t(right - x_);
 124:../libs/PoliTeKDSP/libs/libDaisy/src/hid/disp/graphics_common.h ****         return {x_, y_, newWidth, height_};
 125:../libs/PoliTeKDSP/libs/libDaisy/src/hid/disp/graphics_common.h ****     }
 126:../libs/PoliTeKDSP/libs/libDaisy/src/hid/disp/graphics_common.h **** 
 127:../libs/PoliTeKDSP/libs/libDaisy/src/hid/disp/graphics_common.h ****     Rectangle WithTop(int16_t top) const
 128:../libs/PoliTeKDSP/libs/libDaisy/src/hid/disp/graphics_common.h ****     {
 129:../libs/PoliTeKDSP/libs/libDaisy/src/hid/disp/graphics_common.h ****         const auto newHeight = int16_t((y_ - top) + height_);
 130:../libs/PoliTeKDSP/libs/libDaisy/src/hid/disp/graphics_common.h ****         return {x_, top, width_, newHeight};
 131:../libs/PoliTeKDSP/libs/libDaisy/src/hid/disp/graphics_common.h ****     }
 132:../libs/PoliTeKDSP/libs/libDaisy/src/hid/disp/graphics_common.h **** 
 133:../libs/PoliTeKDSP/libs/libDaisy/src/hid/disp/graphics_common.h ****     Rectangle WithBottom(int16_t bottom) const
 134:../libs/PoliTeKDSP/libs/libDaisy/src/hid/disp/graphics_common.h ****     {
 135:../libs/PoliTeKDSP/libs/libDaisy/src/hid/disp/graphics_common.h ****         const auto newHeight = int16_t(bottom - y_);
 136:../libs/PoliTeKDSP/libs/libDaisy/src/hid/disp/graphics_common.h ****         return {x_, y_, width_, newHeight};
 137:../libs/PoliTeKDSP/libs/libDaisy/src/hid/disp/graphics_common.h ****     }
 138:../libs/PoliTeKDSP/libs/libDaisy/src/hid/disp/graphics_common.h **** 
 139:../libs/PoliTeKDSP/libs/libDaisy/src/hid/disp/graphics_common.h ****     Rectangle WithTrimmedLeft(int16_t pxToTrim) const
 140:../libs/PoliTeKDSP/libs/libDaisy/src/hid/disp/graphics_common.h ****     {
 141:../libs/PoliTeKDSP/libs/libDaisy/src/hid/disp/graphics_common.h ****         return {
 142:../libs/PoliTeKDSP/libs/libDaisy/src/hid/disp/graphics_common.h ****             int16_t(x_ + pxToTrim), y_, int16_t(width_ - pxToTrim), height_};
 143:../libs/PoliTeKDSP/libs/libDaisy/src/hid/disp/graphics_common.h ****     }
 144:../libs/PoliTeKDSP/libs/libDaisy/src/hid/disp/graphics_common.h **** 
 145:../libs/PoliTeKDSP/libs/libDaisy/src/hid/disp/graphics_common.h ****     Rectangle WithTrimmedRight(int16_t pxToTrim) const
 146:../libs/PoliTeKDSP/libs/libDaisy/src/hid/disp/graphics_common.h ****     {
 147:../libs/PoliTeKDSP/libs/libDaisy/src/hid/disp/graphics_common.h ****         return {x_, y_, int16_t(width_ - pxToTrim), height_};
 148:../libs/PoliTeKDSP/libs/libDaisy/src/hid/disp/graphics_common.h ****     }
 149:../libs/PoliTeKDSP/libs/libDaisy/src/hid/disp/graphics_common.h **** 
 150:../libs/PoliTeKDSP/libs/libDaisy/src/hid/disp/graphics_common.h ****     Rectangle WithTrimmedTop(int16_t pxToTrim) const
 151:../libs/PoliTeKDSP/libs/libDaisy/src/hid/disp/graphics_common.h ****     {
 152:../libs/PoliTeKDSP/libs/libDaisy/src/hid/disp/graphics_common.h ****         return {
 153:../libs/PoliTeKDSP/libs/libDaisy/src/hid/disp/graphics_common.h ****             x_, int16_t(y_ + pxToTrim), width_, int16_t(height_ - pxToTrim)};
 154:../libs/PoliTeKDSP/libs/libDaisy/src/hid/disp/graphics_common.h ****     }
 155:../libs/PoliTeKDSP/libs/libDaisy/src/hid/disp/graphics_common.h **** 
ARM GAS  C:\Users\skipi\AppData\Local\Temp\cc9eAo3V.s 			page 63


 156:../libs/PoliTeKDSP/libs/libDaisy/src/hid/disp/graphics_common.h ****     Rectangle WithTrimmedBottom(int16_t pxToTrim) const
 157:../libs/PoliTeKDSP/libs/libDaisy/src/hid/disp/graphics_common.h ****     {
 158:../libs/PoliTeKDSP/libs/libDaisy/src/hid/disp/graphics_common.h ****         return {x_, y_, width_, int16_t(height_ - pxToTrim)};
 159:../libs/PoliTeKDSP/libs/libDaisy/src/hid/disp/graphics_common.h ****     }
 160:../libs/PoliTeKDSP/libs/libDaisy/src/hid/disp/graphics_common.h **** 
 161:../libs/PoliTeKDSP/libs/libDaisy/src/hid/disp/graphics_common.h ****     Rectangle WithCenterX(int16_t centerX) const
 162:../libs/PoliTeKDSP/libs/libDaisy/src/hid/disp/graphics_common.h ****     {
 163:../libs/PoliTeKDSP/libs/libDaisy/src/hid/disp/graphics_common.h ****         return {int16_t(x_ + centerX - GetCenterX()), y_, width_, height_};
 164:../libs/PoliTeKDSP/libs/libDaisy/src/hid/disp/graphics_common.h ****     }
 165:../libs/PoliTeKDSP/libs/libDaisy/src/hid/disp/graphics_common.h **** 
