ARM GAS  C:\Users\skipi\AppData\Local\Temp\ccoTrycY.s 			page 1


   1              		.cpu cortex-m7
   2              		.eabi_attribute 28, 1
   3              		.eabi_attribute 20, 1
   4              		.eabi_attribute 21, 1
   5              		.eabi_attribute 23, 3
   6              		.eabi_attribute 24, 1
   7              		.eabi_attribute 25, 1
   8              		.eabi_attribute 26, 1
   9              		.eabi_attribute 30, 2
  10              		.eabi_attribute 34, 1
  11              		.eabi_attribute 18, 4
  12              		.file	"MenuManager.cpp"
  13              		.text
  14              	.Ltext0:
  15              		.cfi_sections	.debug_frame
  16              		.section	.text._ZN11MenuManager4InitEv,"ax",%progbits
  17              		.align	1
  18              		.p2align 2,,3
  19              		.global	_ZN11MenuManager4InitEv
  20              		.arch armv7e-m
  21              		.syntax unified
  22              		.thumb
  23              		.thumb_func
  24              		.fpu fpv5-d16
  26              	_ZN11MenuManager4InitEv:
  27              	.LVL0:
  28              	.LFB562:
  29              		.file 1 "Display/MenuManager.cpp"
   1:Display/MenuManager.cpp **** #include "MenuManager.h"
   2:Display/MenuManager.cpp **** 
   3:Display/MenuManager.cpp **** void MenuManager::Init() {
  30              		.loc 1 3 26 view -0
  31              		.cfi_startproc
  32              		@ args = 0, pretend = 0, frame = 0
  33              		@ frame_needed = 0, uses_anonymous_args = 0
  34              		@ link register save eliminated.
   4:Display/MenuManager.cpp ****     // Inizializziamo direttamente i campi della struct _outData
   5:Display/MenuManager.cpp ****     _outData.state = PLAYMODE;
  35              		.loc 1 5 5 view .LVU1
   6:Display/MenuManager.cpp ****     _outData.cursor_state = PLAYMODE;
  36              		.loc 1 6 5 view .LVU2
   7:Display/MenuManager.cpp ****     _outData.delta = 50.0f;
   8:Display/MenuManager.cpp ****     _outData.curve = 1.0f;
   9:Display/MenuManager.cpp ****     _outData.root = 0;
  10:Display/MenuManager.cpp ****     _outData.scale = 0;
  11:Display/MenuManager.cpp ****     _outData.hysteresis = 2.0f;
  37              		.loc 1 11 25 is_stmt 0 view .LVU3
  38 0000 0222     		movs	r2, #2
   7:Display/MenuManager.cpp ****     _outData.delta = 50.0f;
  39              		.loc 1 7 20 view .LVU4
  40 0002 0949     		ldr	r1, .L3
   5:Display/MenuManager.cpp ****     _outData.cursor_state = PLAYMODE;
  41              		.loc 1 5 20 view .LVU5
  42 0004 0023     		movs	r3, #0
   8:Display/MenuManager.cpp ****     _outData.root = 0;
  43              		.loc 1 8 20 view .LVU6
  44 0006 4FF07E5C 		mov	ip, #1065353216
ARM GAS  C:\Users\skipi\AppData\Local\Temp\ccoTrycY.s 			page 2


   7:Display/MenuManager.cpp ****     _outData.delta = 50.0f;
  45              		.loc 1 7 20 view .LVU7
  46 000a 8160     		str	r1, [r0, #8]	@ float
  12:Display/MenuManager.cpp ****     _outData.filter_order = 2;   // Default ordine 2
  13:Display/MenuManager.cpp ****     _outData.octave = 4;
  47              		.loc 1 13 21 view .LVU8
  48 000c 0421     		movs	r1, #4
   5:Display/MenuManager.cpp ****     _outData.cursor_state = PLAYMODE;
  49              		.loc 1 5 20 view .LVU9
  50 000e 8380     		strh	r3, [r0, #4]	@ movhi
   7:Display/MenuManager.cpp ****     _outData.curve = 1.0f;
  51              		.loc 1 7 5 is_stmt 1 view .LVU10
   8:Display/MenuManager.cpp ****     _outData.root = 0;
  52              		.loc 1 8 5 view .LVU11
   8:Display/MenuManager.cpp ****     _outData.root = 0;
  53              		.loc 1 8 20 is_stmt 0 view .LVU12
  54 0010 C0F80CC0 		str	ip, [r0, #12]	@ float
   9:Display/MenuManager.cpp ****     _outData.scale = 0;
  55              		.loc 1 9 5 is_stmt 1 view .LVU13
   9:Display/MenuManager.cpp ****     _outData.scale = 0;
  56              		.loc 1 9 19 is_stmt 0 view .LVU14
  57 0014 0361     		str	r3, [r0, #16]
  10:Display/MenuManager.cpp ****     _outData.hysteresis = 2.0f;
  58              		.loc 1 10 5 is_stmt 1 view .LVU15
  10:Display/MenuManager.cpp ****     _outData.hysteresis = 2.0f;
  59              		.loc 1 10 20 is_stmt 0 view .LVU16
  60 0016 C361     		str	r3, [r0, #28]
  11:Display/MenuManager.cpp ****     _outData.filter_order = 2;   // Default ordine 2
  61              		.loc 1 11 5 is_stmt 1 view .LVU17
  12:Display/MenuManager.cpp ****     _outData.octave = 4;
  62              		.loc 1 12 27 is_stmt 0 view .LVU18
  63 0018 C0E90522 		strd	r2, r2, [r0, #20]
  64              		.loc 1 13 5 is_stmt 1 view .LVU19
  14:Display/MenuManager.cpp ****     _outData.preset = 0;
  15:Display/MenuManager.cpp **** 
  16:Display/MenuManager.cpp ****     _next_state = MAIN_MENU; // Destinazione di default al primo click
  65              		.loc 1 16 17 is_stmt 0 view .LVU20
  66 001c 0122     		movs	r2, #1
  14:Display/MenuManager.cpp ****     _outData.preset = 0;
  67              		.loc 1 14 21 view .LVU21
  68 001e C0E90813 		strd	r1, r3, [r0, #32]
  69              		.loc 1 16 5 is_stmt 1 view .LVU22
  70              		.loc 1 16 17 is_stmt 0 view .LVU23
  71 0022 4270     		strb	r2, [r0, #1]
  17:Display/MenuManager.cpp **** }
  72              		.loc 1 17 1 view .LVU24
  73 0024 7047     		bx	lr
  74              	.L4:
  75 0026 00BF     		.align	2
  76              	.L3:
  77 0028 00004842 		.word	1112014848
  78              		.cfi_endproc
  79              	.LFE562:
  81              		.section	.text._ZN11MenuManager15StateTransitionEbib,"ax",%progbits
  82              		.align	1
  83              		.p2align 2,,3
  84              		.global	_ZN11MenuManager15StateTransitionEbib
ARM GAS  C:\Users\skipi\AppData\Local\Temp\ccoTrycY.s 			page 3


  85              		.syntax unified
  86              		.thumb
  87              		.thumb_func
  88              		.fpu fpv5-d16
  90              	_ZN11MenuManager15StateTransitionEbib:
  91              	.LVL1:
  92              	.LFB563:
  18:Display/MenuManager.cpp **** 
  19:Display/MenuManager.cpp **** void MenuManager::StateTransition(bool click, int rotation, bool timeout) {
  93              		.loc 1 19 75 is_stmt 1 view -0
  94              		.cfi_startproc
  95              		@ args = 0, pretend = 0, frame = 0
  96              		@ frame_needed = 0, uses_anonymous_args = 0
  97              		@ link register save eliminated.
  20:Display/MenuManager.cpp ****     
  21:Display/MenuManager.cpp ****     // Creiamo una variabile locale per non alterare il parametro in ingresso
  22:Display/MenuManager.cpp ****     int current_rotation = rotation;
  98              		.loc 1 22 5 view .LVU26
  23:Display/MenuManager.cpp **** 
  24:Display/MenuManager.cpp ****     // --- 1. AGGIORNAMENTO DELLO STATO (State Register) ---
  25:Display/MenuManager.cpp ****     if (timeout) {
  99              		.loc 1 25 5 view .LVU27
 100 0000 73B1     		cbz	r3, .L6
  26:Display/MenuManager.cpp ****         _outData.state = PLAYMODE;
 101              		.loc 1 26 9 view .LVU28
 102              		.loc 1 26 24 is_stmt 0 view .LVU29
 103 0002 0021     		movs	r1, #0
 104              	.LVL2:
  27:Display/MenuManager.cpp ****         _next_state = MAIN_MENU; 
 105              		.loc 1 27 21 view .LVU30
 106 0004 0123     		movs	r3, #1
 107              	.LVL3:
  26:Display/MenuManager.cpp ****         _outData.state = PLAYMODE;
 108              		.loc 1 26 24 view .LVU31
 109 0006 0171     		strb	r1, [r0, #4]
 110              		.loc 1 27 9 is_stmt 1 view .LVU32
 111              		.loc 1 27 21 is_stmt 0 view .LVU33
 112 0008 4370     		strb	r3, [r0, #1]
  28:Display/MenuManager.cpp ****     } 
  29:Display/MenuManager.cpp ****     else if (click) {
  30:Display/MenuManager.cpp ****         // Logica per risalire l'albero quando il cursore è su BACK
  31:Display/MenuManager.cpp ****         if (_next_state == BACK) {
  32:Display/MenuManager.cpp ****             if (_outData.state == MAIN_MENU) _outData.state = PLAYMODE;
  33:Display/MenuManager.cpp ****             else if (_outData.state == CALIBRATION_HUB || _outData.state == SCALES_HUB || _outData.
  34:Display/MenuManager.cpp ****         } 
  35:Display/MenuManager.cpp ****         else {
  36:Display/MenuManager.cpp ****             // Normale ingresso nello stato puntato
  37:Display/MenuManager.cpp ****             _outData.state = _next_state; 
  38:Display/MenuManager.cpp ****         }
  39:Display/MenuManager.cpp **** 
  40:Display/MenuManager.cpp ****         // --- INIZIALIZZAZIONE DEL CURSORE POST-CLICK ---
  41:Display/MenuManager.cpp ****         switch (_outData.state) {
  42:Display/MenuManager.cpp ****             case PLAYMODE:        _next_state = MAIN_MENU; break;
  43:Display/MenuManager.cpp ****             case MAIN_MENU:       _next_state = CALIBRATION_HUB; break;
  44:Display/MenuManager.cpp ****             case CALIBRATION_HUB: _next_state = DELTA; break;
  45:Display/MenuManager.cpp ****             case SCALES_HUB:      _next_state = ROOT; break;
  46:Display/MenuManager.cpp ****             default: break; 
ARM GAS  C:\Users\skipi\AppData\Local\Temp\ccoTrycY.s 			page 4


  47:Display/MenuManager.cpp ****         }
  48:Display/MenuManager.cpp **** 
  49:Display/MenuManager.cpp ****         // Dopo un click, ignoriamo eventuali rotazioni accidentali nello stesso istante
  50:Display/MenuManager.cpp ****         current_rotation = 0; 
  51:Display/MenuManager.cpp ****     }
  52:Display/MenuManager.cpp **** 
  53:Display/MenuManager.cpp ****     // --- 2. RETE DELLE USCITE (Output Logic) ---
  54:Display/MenuManager.cpp ****     if (current_rotation != 0) {
 113              		.loc 1 54 5 is_stmt 1 view .LVU34
 114 000a 002A     		cmp	r2, #0
 115 000c 3BD0     		beq	.L8
 116              	.LVL4:
 117              	.L33:
  55:Display/MenuManager.cpp ****         switch (_outData.state) {
  56:Display/MenuManager.cpp ****             case DELTA:
  57:Display/MenuManager.cpp ****                 _outData.delta += (current_rotation * 5.0f);
  58:Display/MenuManager.cpp ****                 if (_outData.delta < 1.0f) _outData.delta = 1.0f;
  59:Display/MenuManager.cpp ****                 if (_outData.delta > 100.0f) _outData.delta = 100.0f;
  60:Display/MenuManager.cpp ****                 break;
  61:Display/MenuManager.cpp **** 
  62:Display/MenuManager.cpp ****             case CURVE:
  63:Display/MenuManager.cpp ****                 _outData.curve += (current_rotation * 0.1f);
  64:Display/MenuManager.cpp ****                 if (_outData.curve < 0.1f) _outData.curve = 0.1f;
  65:Display/MenuManager.cpp ****                 if (_outData.curve > 2.0f) _outData.curve = 2.0f;
  66:Display/MenuManager.cpp ****                 break;
  67:Display/MenuManager.cpp ****             case HYSTERESIS:
  68:Display/MenuManager.cpp ****                 _outData.hysteresis += (current_rotation * 1.0f);
  69:Display/MenuManager.cpp ****                 if (_outData.hysteresis < 0.0f) _outData.hysteresis = 0.0f;
  70:Display/MenuManager.cpp ****                 if (_outData.hysteresis > 20.0f) _outData.hysteresis = 20.0f;
  71:Display/MenuManager.cpp ****                 break;
  72:Display/MenuManager.cpp ****             case FILTER_ORDER: 
  73:Display/MenuManager.cpp ****                 if (current_rotation > 0) _outData.filter_order = 4;
  74:Display/MenuManager.cpp ****                 else if (current_rotation < 0) _outData.filter_order = 2;
  75:Display/MenuManager.cpp ****                 break;
  76:Display/MenuManager.cpp **** 
  77:Display/MenuManager.cpp ****             case ROOT:
  78:Display/MenuManager.cpp ****                 _outData.root += current_rotation;
  79:Display/MenuManager.cpp ****                 if (_outData.root < 0) _outData.root = 0;
  80:Display/MenuManager.cpp ****                 if (_outData.root > 11) _outData.root = 11;
  81:Display/MenuManager.cpp ****                 break;
  82:Display/MenuManager.cpp **** 
  83:Display/MenuManager.cpp ****             case SCALE:
  84:Display/MenuManager.cpp ****                 _outData.scale += current_rotation;
  85:Display/MenuManager.cpp ****                 if (_outData.scale < 0) _outData.scale = 0;
  86:Display/MenuManager.cpp ****                 if (_outData.scale > 6) _outData.scale = 6;
  87:Display/MenuManager.cpp ****                 break;
  88:Display/MenuManager.cpp **** 
  89:Display/MenuManager.cpp ****             case OCTAVE:
  90:Display/MenuManager.cpp ****                 _outData.octave += current_rotation;
  91:Display/MenuManager.cpp ****                 if (_outData.octave < 1) _outData.octave = 1;
  92:Display/MenuManager.cpp ****                 if (_outData.octave > 8) _outData.octave = 8;
  93:Display/MenuManager.cpp ****                 break;
  94:Display/MenuManager.cpp **** 
  95:Display/MenuManager.cpp ****             case PRESETS_HUB:
  96:Display/MenuManager.cpp ****                 _outData.preset += current_rotation;
  97:Display/MenuManager.cpp ****                 if (_outData.preset < 0) _outData.preset = 0;
  98:Display/MenuManager.cpp ****                 if (_outData.preset > 2) _outData.preset = 2;
ARM GAS  C:\Users\skipi\AppData\Local\Temp\ccoTrycY.s 			page 5


  99:Display/MenuManager.cpp ****                 break;
 100:Display/MenuManager.cpp **** 
 101:Display/MenuManager.cpp ****             default:
 102:Display/MenuManager.cpp ****                 break; 
 103:Display/MenuManager.cpp ****         }
 104:Display/MenuManager.cpp ****     }
 105:Display/MenuManager.cpp **** 
 106:Display/MenuManager.cpp ****     // --- 3. RETE DI STATO FUTURO (Next State Logic) ---
 107:Display/MenuManager.cpp ****     if (current_rotation != 0) {
 108:Display/MenuManager.cpp ****         switch (_outData.state) {
 118              		.loc 1 108 9 view .LVU35
 109:Display/MenuManager.cpp ****             case MAIN_MENU:
 110:Display/MenuManager.cpp ****                 if (current_rotation > 0) {
 111:Display/MenuManager.cpp ****                     if (_next_state == CALIBRATION_HUB) _next_state = SCALES_HUB;
 112:Display/MenuManager.cpp ****                     else if (_next_state == SCALES_HUB) _next_state = PRESETS_HUB;
 113:Display/MenuManager.cpp ****                     else if (_next_state == PRESETS_HUB) _next_state = BACK;
 114:Display/MenuManager.cpp ****                     else if (_next_state == BACK) _next_state = CALIBRATION_HUB;
 115:Display/MenuManager.cpp ****                 } else {
 116:Display/MenuManager.cpp ****                     if (_next_state == CALIBRATION_HUB) _next_state = BACK;
 117:Display/MenuManager.cpp ****                     else if (_next_state == SCALES_HUB) _next_state = CALIBRATION_HUB;
 118:Display/MenuManager.cpp ****                     else if (_next_state == PRESETS_HUB) _next_state = SCALES_HUB;
 119:Display/MenuManager.cpp ****                     else if (_next_state == BACK) _next_state = PRESETS_HUB;
 120:Display/MenuManager.cpp ****                 }
 121:Display/MenuManager.cpp ****                 break;
 122:Display/MenuManager.cpp **** 
 123:Display/MenuManager.cpp ****             case CALIBRATION_HUB:
 124:Display/MenuManager.cpp ****                 if (current_rotation > 0) {
 125:Display/MenuManager.cpp ****                     if (_next_state == DELTA)                _next_state = CURVE;
 126:Display/MenuManager.cpp ****                     else if (_next_state == CURVE)           _next_state = HYSTERESIS;
 127:Display/MenuManager.cpp ****                     else if (_next_state == HYSTERESIS)      _next_state = FILTER_ORDER; // <---
 128:Display/MenuManager.cpp ****                     else if (_next_state == FILTER_ORDER)   _next_state = BACK;         // <---
 129:Display/MenuManager.cpp ****                     else if (_next_state == BACK)            _next_state = DELTA;
 130:Display/MenuManager.cpp ****                 } else {
 131:Display/MenuManager.cpp ****                     if (_next_state == DELTA)                _next_state = BACK;
 132:Display/MenuManager.cpp ****                     else if (_next_state == CURVE)           _next_state = DELTA;
 133:Display/MenuManager.cpp ****                     else if (_next_state == HYSTERESIS)      _next_state = CURVE;
 134:Display/MenuManager.cpp ****                     else if (_next_state == FILTER_ORDER)   _next_state = HYSTERESIS; // <---
 135:Display/MenuManager.cpp ****                     else if (_next_state == BACK)            _next_state = FILTER_ORDER; // <---
 136:Display/MenuManager.cpp ****                 }
 137:Display/MenuManager.cpp ****                 break;
 138:Display/MenuManager.cpp **** 
 139:Display/MenuManager.cpp ****             case SCALES_HUB:
 140:Display/MenuManager.cpp ****                 if (current_rotation > 0) {
 141:Display/MenuManager.cpp ****                     if (_next_state == ROOT) _next_state = SCALE;
 142:Display/MenuManager.cpp ****                     else if (_next_state == SCALE) _next_state = OCTAVE;
 143:Display/MenuManager.cpp ****                     else if (_next_state == OCTAVE) _next_state = BACK;
 144:Display/MenuManager.cpp ****                     else if (_next_state == BACK) _next_state = ROOT;
 145:Display/MenuManager.cpp ****                 } else {
 146:Display/MenuManager.cpp ****                     if (_next_state == ROOT) _next_state = BACK;
 147:Display/MenuManager.cpp ****                     else if (_next_state == SCALE) _next_state = ROOT;
 148:Display/MenuManager.cpp ****                     else if (_next_state == OCTAVE) _next_state = SCALE;
 149:Display/MenuManager.cpp ****                     else if (_next_state == BACK) _next_state = OCTAVE;
 150:Display/MenuManager.cpp ****                 }
 151:Display/MenuManager.cpp ****                 break;
 152:Display/MenuManager.cpp ****                 
 153:Display/MenuManager.cpp ****             default:
 154:Display/MenuManager.cpp ****                 break;
ARM GAS  C:\Users\skipi\AppData\Local\Temp\ccoTrycY.s 			page 6


 155:Display/MenuManager.cpp ****         }
 156:Display/MenuManager.cpp ****     }
 157:Display/MenuManager.cpp **** 
 158:Display/MenuManager.cpp ****     // Preparazione statica delle vie d'uscita per le Foglie
 159:Display/MenuManager.cpp ****     if (_outData.state == DELTA || _outData.state == CURVE || _outData.state == HYSTERESIS || _outD
 119              		.loc 1 159 92 is_stmt 0 view .LVU36
 120 000e 4B1F     		subs	r3, r1, #5
 121 0010 DBB2     		uxtb	r3, r3
 122              		.loc 1 159 5 is_stmt 1 view .LVU37
 123 0012 032B     		cmp	r3, #3
 124 0014 46D8     		bhi	.L79
 125              		.loc 1 159 127 discriminator 1 view .LVU38
 126              		.loc 1 159 139 is_stmt 0 discriminator 1 view .LVU39
 127 0016 0222     		movs	r2, #2
 128 0018 1346     		mov	r3, r2
 129 001a 4270     		strb	r2, [r0, #1]
 160:Display/MenuManager.cpp ****     if (_outData.state == ROOT || _outData.state == SCALE || _outData.state == OCTAVE) _next_state 
 130              		.loc 1 160 5 is_stmt 1 discriminator 1 view .LVU40
 131              	.L80:
 161:Display/MenuManager.cpp ****     if (_outData.state == PRESETS_HUB) _next_state = MAIN_MENU; 
 162:Display/MenuManager.cpp **** 
 163:Display/MenuManager.cpp ****     // --- 4. PREPARAZIONE DATI IN USCITA ---
 164:Display/MenuManager.cpp ****     // Abbiamo già aggiornato i valori dentro _outData, ci manca solo di agganciare il cursore
 165:Display/MenuManager.cpp ****     _outData.cursor_state = _next_state;
 132              		.loc 1 165 5 view .LVU41
 133              		.loc 1 165 27 is_stmt 0 view .LVU42
 134 001c 4371     		strb	r3, [r0, #5]
 166:Display/MenuManager.cpp **** }
 135              		.loc 1 166 1 view .LVU43
 136 001e 7047     		bx	lr
 137              	.LVL5:
 138              	.L6:
  29:Display/MenuManager.cpp ****         // Logica per risalire l'albero quando il cursore è su BACK
 139              		.loc 1 29 10 is_stmt 1 view .LVU44
 140 0020 49B1     		cbz	r1, .L9
  31:Display/MenuManager.cpp ****             if (_outData.state == MAIN_MENU) _outData.state = PLAYMODE;
 141              		.loc 1 31 9 view .LVU45
  31:Display/MenuManager.cpp ****             if (_outData.state == MAIN_MENU) _outData.state = PLAYMODE;
 142              		.loc 1 31 13 is_stmt 0 view .LVU46
 143 0022 4178     		ldrb	r1, [r0, #1]	@ zero_extendqisi2
 144              	.LVL6:
  31:Display/MenuManager.cpp ****             if (_outData.state == MAIN_MENU) _outData.state = PLAYMODE;
 145              		.loc 1 31 9 view .LVU47
 146 0024 0C29     		cmp	r1, #12
 147 0026 12D0     		beq	.L107
  37:Display/MenuManager.cpp ****         }
 148              		.loc 1 37 13 is_stmt 1 view .LVU48
  37:Display/MenuManager.cpp ****         }
 149              		.loc 1 37 28 is_stmt 0 view .LVU49
 150 0028 0171     		strb	r1, [r0, #4]
 151              	.LVL7:
 152              	.L12:
  41:Display/MenuManager.cpp ****             case PLAYMODE:        _next_state = MAIN_MENU; break;
 153              		.loc 1 41 9 is_stmt 1 view .LVU50
 154 002a 0329     		cmp	r1, #3
 155 002c EFD8     		bhi	.L33
 156 002e DFE801F0 		tbb	[pc, r1]
ARM GAS  C:\Users\skipi\AppData\Local\Temp\ccoTrycY.s 			page 7


 157              	.L15:
 158 0032 52       		.byte	(.L18-.L15)/2
 159 0033 4F       		.byte	(.L95-.L15)/2
 160 0034 36       		.byte	(.L94-.L15)/2
 161 0035 28       		.byte	(.L99-.L15)/2
 162              	.LVL8:
 163              		.p2align 1
 164              	.L9:
  54:Display/MenuManager.cpp ****         switch (_outData.state) {
 165              		.loc 1 54 5 view .LVU51
  55:Display/MenuManager.cpp ****             case DELTA:
 166              		.loc 1 55 26 is_stmt 0 view .LVU52
 167 0036 0179     		ldrb	r1, [r0, #4]	@ zero_extendqisi2
 168              	.LVL9:
  54:Display/MenuManager.cpp ****         switch (_outData.state) {
 169              		.loc 1 54 5 view .LVU53
 170 0038 002A     		cmp	r2, #0
 171 003a E8D0     		beq	.L33
  55:Display/MenuManager.cpp ****             case DELTA:
 172              		.loc 1 55 9 is_stmt 1 view .LVU54
 173 003c 0B1F     		subs	r3, r1, #4
 174              	.LVL10:
  55:Display/MenuManager.cpp ****             case DELTA:
 175              		.loc 1 55 9 is_stmt 0 view .LVU55
 176 003e 072B     		cmp	r3, #7
 177 0040 11D8     		bhi	.L21
 178 0042 DFE803F0 		tbb	[pc, r3]
 179              	.L23:
 180 0046 4B       		.byte	(.L30-.L23)/2
 181 0047 55       		.byte	(.L29-.L23)/2
 182 0048 67       		.byte	(.L28-.L23)/2
 183 0049 83       		.byte	(.L27-.L23)/2
 184 004a A0       		.byte	(.L26-.L23)/2
 185 004b A6       		.byte	(.L25-.L23)/2
 186 004c AE       		.byte	(.L24-.L23)/2
 187 004d B6       		.byte	(.L22-.L23)/2
 188              	.LVL11:
 189              		.p2align 1
 190              	.L107:
  32:Display/MenuManager.cpp ****             else if (_outData.state == CALIBRATION_HUB || _outData.state == SCALES_HUB || _outData.
 191              		.loc 1 32 13 is_stmt 1 view .LVU56
  32:Display/MenuManager.cpp ****             else if (_outData.state == CALIBRATION_HUB || _outData.state == SCALES_HUB || _outData.
 192              		.loc 1 32 26 is_stmt 0 view .LVU57
 193 004e 0179     		ldrb	r1, [r0, #4]	@ zero_extendqisi2
  32:Display/MenuManager.cpp ****             else if (_outData.state == CALIBRATION_HUB || _outData.state == SCALES_HUB || _outData.
 194              		.loc 1 32 13 view .LVU58
 195 0050 0129     		cmp	r1, #1
 196 0052 00F0B780 		beq	.L108
  33:Display/MenuManager.cpp ****         } 
 197              		.loc 1 33 18 is_stmt 1 view .LVU59
 198 0056 8B1E     		subs	r3, r1, #2
 199              	.LVL12:
  33:Display/MenuManager.cpp ****         } 
 200              		.loc 1 33 18 is_stmt 0 view .LVU60
 201 0058 022B     		cmp	r3, #2
 202 005a E6D8     		bhi	.L12
  33:Display/MenuManager.cpp ****         } 
ARM GAS  C:\Users\skipi\AppData\Local\Temp\ccoTrycY.s 			page 8


 203              		.loc 1 33 122 is_stmt 1 discriminator 1 view .LVU61
  33:Display/MenuManager.cpp ****         } 
 204              		.loc 1 33 137 is_stmt 0 discriminator 1 view .LVU62
 205 005c 0122     		movs	r2, #1
 206              	.LVL13:
  43:Display/MenuManager.cpp ****             case CALIBRATION_HUB: _next_state = DELTA; break;
 207              		.loc 1 43 47 discriminator 1 view .LVU63
 208 005e 0223     		movs	r3, #2
  33:Display/MenuManager.cpp ****         } 
 209              		.loc 1 33 137 discriminator 1 view .LVU64
 210 0060 0271     		strb	r2, [r0, #4]
  41:Display/MenuManager.cpp ****             case PLAYMODE:        _next_state = MAIN_MENU; break;
 211              		.loc 1 41 9 is_stmt 1 discriminator 1 view .LVU65
  43:Display/MenuManager.cpp ****             case CALIBRATION_HUB: _next_state = DELTA; break;
 212              		.loc 1 43 13 discriminator 1 view .LVU66
  43:Display/MenuManager.cpp ****             case CALIBRATION_HUB: _next_state = DELTA; break;
 213              		.loc 1 43 35 discriminator 1 view .LVU67
  43:Display/MenuManager.cpp ****             case CALIBRATION_HUB: _next_state = DELTA; break;
 214              		.loc 1 43 47 is_stmt 0 discriminator 1 view .LVU68
 215 0062 4370     		strb	r3, [r0, #1]
  43:Display/MenuManager.cpp ****             case CALIBRATION_HUB: _next_state = DELTA; break;
 216              		.loc 1 43 66 is_stmt 1 discriminator 1 view .LVU69
 217              	.LVL14:
 107:Display/MenuManager.cpp ****         switch (_outData.state) {
 218              		.loc 1 107 5 discriminator 1 view .LVU70
 159:Display/MenuManager.cpp ****     if (_outData.state == ROOT || _outData.state == SCALE || _outData.state == OCTAVE) _next_state 
 219              		.loc 1 159 5 discriminator 1 view .LVU71
 160:Display/MenuManager.cpp ****     if (_outData.state == PRESETS_HUB) _next_state = MAIN_MENU; 
 220              		.loc 1 160 5 discriminator 1 view .LVU72
 161:Display/MenuManager.cpp **** 
 221              		.loc 1 161 5 discriminator 1 view .LVU73
 222 0064 0FE0     		b	.L8
 223              	.LVL15:
 224              	.L21:
 107:Display/MenuManager.cpp ****         switch (_outData.state) {
 225              		.loc 1 107 5 view .LVU74
 108:Display/MenuManager.cpp ****             case MAIN_MENU:
 226              		.loc 1 108 9 view .LVU75
 227 0066 0229     		cmp	r1, #2
 228 0068 0FD0     		beq	.L52
 229 006a 0329     		cmp	r1, #3
 230 006c 24D1     		bne	.L109
 139:Display/MenuManager.cpp ****                 if (current_rotation > 0) {
 231              		.loc 1 139 13 view .LVU76
 140:Display/MenuManager.cpp ****                     if (_next_state == ROOT) _next_state = SCALE;
 232              		.loc 1 140 17 view .LVU77
 233 006e 002A     		cmp	r2, #0
 141:Display/MenuManager.cpp ****                     else if (_next_state == SCALE) _next_state = OCTAVE;
 234              		.loc 1 141 25 is_stmt 0 view .LVU78
 235 0070 4378     		ldrb	r3, [r0, #1]	@ zero_extendqisi2
 140:Display/MenuManager.cpp ****                     if (_next_state == ROOT) _next_state = SCALE;
 236              		.loc 1 140 17 view .LVU79
 237 0072 00F3F680 		bgt	.L110
 146:Display/MenuManager.cpp ****                     else if (_next_state == SCALE) _next_state = ROOT;
 238              		.loc 1 146 21 is_stmt 1 view .LVU80
 239 0076 092B     		cmp	r3, #9
 240 0078 00F00E81 		beq	.L106
ARM GAS  C:\Users\skipi\AppData\Local\Temp\ccoTrycY.s 			page 9


 147:Display/MenuManager.cpp ****                     else if (_next_state == OCTAVE) _next_state = SCALE;
 241              		.loc 1 147 26 view .LVU81
 242 007c 0A2B     		cmp	r3, #10
 243 007e 40F0FA80 		bne	.L77
 244              	.L99:
 147:Display/MenuManager.cpp ****                     else if (_next_state == OCTAVE) _next_state = SCALE;
 245              		.loc 1 147 52 discriminator 1 view .LVU82
 147:Display/MenuManager.cpp ****                     else if (_next_state == OCTAVE) _next_state = SCALE;
 246              		.loc 1 147 64 is_stmt 0 discriminator 1 view .LVU83
 247 0082 0923     		movs	r3, #9
 248 0084 4370     		strb	r3, [r0, #1]
 159:Display/MenuManager.cpp ****     if (_outData.state == ROOT || _outData.state == SCALE || _outData.state == OCTAVE) _next_state 
 249              		.loc 1 159 5 is_stmt 1 discriminator 1 view .LVU84
 160:Display/MenuManager.cpp ****     if (_outData.state == PRESETS_HUB) _next_state = MAIN_MENU; 
 250              		.loc 1 160 5 discriminator 1 view .LVU85
 161:Display/MenuManager.cpp **** 
 251              		.loc 1 161 5 discriminator 1 view .LVU86
 252              	.LVL16:
 253              	.L8:
 165:Display/MenuManager.cpp **** }
 254              		.loc 1 165 29 is_stmt 0 view .LVU87
 255 0086 4378     		ldrb	r3, [r0, #1]	@ zero_extendqisi2
 256 0088 C8E7     		b	.L80
 257              	.LVL17:
 258              	.L52:
 123:Display/MenuManager.cpp ****                 if (current_rotation > 0) {
 259              		.loc 1 123 13 is_stmt 1 view .LVU88
 124:Display/MenuManager.cpp ****                     if (_next_state == DELTA)                _next_state = CURVE;
 260              		.loc 1 124 17 view .LVU89
 261 008a 002A     		cmp	r2, #0
 125:Display/MenuManager.cpp ****                     else if (_next_state == CURVE)           _next_state = HYSTERESIS;
 262              		.loc 1 125 25 is_stmt 0 view .LVU90
 263 008c 4378     		ldrb	r3, [r0, #1]	@ zero_extendqisi2
 124:Display/MenuManager.cpp ****                     if (_next_state == DELTA)                _next_state = CURVE;
 264              		.loc 1 124 17 view .LVU91
 265 008e 00F3CC80 		bgt	.L111
 131:Display/MenuManager.cpp ****                     else if (_next_state == CURVE)           _next_state = DELTA;
 266              		.loc 1 131 21 is_stmt 1 view .LVU92
 267 0092 062B     		cmp	r3, #6
 268 0094 00F00081 		beq	.L106
 132:Display/MenuManager.cpp ****                     else if (_next_state == HYSTERESIS)      _next_state = CURVE;
 269              		.loc 1 132 26 view .LVU93
 270 0098 052B     		cmp	r3, #5
 271 009a 40F0D280 		bne	.L69
 272              	.L94:
 132:Display/MenuManager.cpp ****                     else if (_next_state == HYSTERESIS)      _next_state = CURVE;
 273              		.loc 1 132 62 discriminator 1 view .LVU94
 132:Display/MenuManager.cpp ****                     else if (_next_state == HYSTERESIS)      _next_state = CURVE;
 274              		.loc 1 132 74 is_stmt 0 discriminator 1 view .LVU95
 275 009e 0623     		movs	r3, #6
 276 00a0 4370     		strb	r3, [r0, #1]
 277 00a2 F0E7     		b	.L8
 278              	.LVL18:
 279              	.L79:
 160:Display/MenuManager.cpp ****     if (_outData.state == PRESETS_HUB) _next_state = MAIN_MENU; 
 280              		.loc 1 160 5 is_stmt 1 view .LVU96
 281 00a4 A1F10903 		sub	r3, r1, #9
ARM GAS  C:\Users\skipi\AppData\Local\Temp\ccoTrycY.s 			page 10


 282 00a8 022B     		cmp	r3, #2
 283 00aa 00F2B680 		bhi	.L81
 160:Display/MenuManager.cpp ****     if (_outData.state == PRESETS_HUB) _next_state = MAIN_MENU; 
 284              		.loc 1 160 88 discriminator 1 view .LVU97
 160:Display/MenuManager.cpp ****     if (_outData.state == PRESETS_HUB) _next_state = MAIN_MENU; 
 285              		.loc 1 160 100 is_stmt 0 discriminator 1 view .LVU98
 286 00ae 0322     		movs	r2, #3
 287 00b0 1346     		mov	r3, r2
 288 00b2 4270     		strb	r2, [r0, #1]
 161:Display/MenuManager.cpp **** 
 289              		.loc 1 161 5 is_stmt 1 discriminator 1 view .LVU99
 165:Display/MenuManager.cpp **** }
 290              		.loc 1 165 5 discriminator 1 view .LVU100
 165:Display/MenuManager.cpp **** }
 291              		.loc 1 165 27 is_stmt 0 discriminator 1 view .LVU101
 292 00b4 4371     		strb	r3, [r0, #5]
 293              		.loc 1 166 1 discriminator 1 view .LVU102
 294 00b6 7047     		bx	lr
 295              	.LVL19:
 296              	.L109:
 108:Display/MenuManager.cpp ****             case MAIN_MENU:
 297              		.loc 1 108 9 view .LVU103
 298 00b8 0129     		cmp	r1, #1
 299 00ba A8D1     		bne	.L33
 109:Display/MenuManager.cpp ****                 if (current_rotation > 0) {
 300              		.loc 1 109 13 is_stmt 1 view .LVU104
 110:Display/MenuManager.cpp ****                     if (_next_state == CALIBRATION_HUB) _next_state = SCALES_HUB;
 301              		.loc 1 110 17 view .LVU105
 302 00bc 002A     		cmp	r2, #0
 111:Display/MenuManager.cpp ****                     else if (_next_state == SCALES_HUB) _next_state = PRESETS_HUB;
 303              		.loc 1 111 25 is_stmt 0 view .LVU106
 304 00be 4378     		ldrb	r3, [r0, #1]	@ zero_extendqisi2
 110:Display/MenuManager.cpp ****                     if (_next_state == CALIBRATION_HUB) _next_state = SCALES_HUB;
 305              		.loc 1 110 17 view .LVU107
 306 00c0 00F3E480 		bgt	.L112
 116:Display/MenuManager.cpp ****                     else if (_next_state == SCALES_HUB) _next_state = CALIBRATION_HUB;
 307              		.loc 1 116 21 is_stmt 1 view .LVU108
 308 00c4 022B     		cmp	r3, #2
 309 00c6 00F0E780 		beq	.L106
 117:Display/MenuManager.cpp ****                     else if (_next_state == PRESETS_HUB) _next_state = SCALES_HUB;
 310              		.loc 1 117 26 view .LVU109
 311 00ca 032B     		cmp	r3, #3
 312 00cc 40F0E780 		bne	.L60
 313              	.L95:
 117:Display/MenuManager.cpp ****                     else if (_next_state == PRESETS_HUB) _next_state = SCALES_HUB;
 314              		.loc 1 117 57 discriminator 1 view .LVU110
 117:Display/MenuManager.cpp ****                     else if (_next_state == PRESETS_HUB) _next_state = SCALES_HUB;
 315              		.loc 1 117 69 is_stmt 0 discriminator 1 view .LVU111
 316 00d0 0223     		movs	r3, #2
 317 00d2 4370     		strb	r3, [r0, #1]
 159:Display/MenuManager.cpp ****     if (_outData.state == ROOT || _outData.state == SCALE || _outData.state == OCTAVE) _next_state 
 318              		.loc 1 159 5 is_stmt 1 discriminator 1 view .LVU112
 160:Display/MenuManager.cpp ****     if (_outData.state == PRESETS_HUB) _next_state = MAIN_MENU; 
 319              		.loc 1 160 5 discriminator 1 view .LVU113
 161:Display/MenuManager.cpp **** 
 320              		.loc 1 161 5 discriminator 1 view .LVU114
 321 00d4 D7E7     		b	.L8
ARM GAS  C:\Users\skipi\AppData\Local\Temp\ccoTrycY.s 			page 11


 322              	.LVL20:
 323              	.L18:
  42:Display/MenuManager.cpp ****             case MAIN_MENU:       _next_state = CALIBRATION_HUB; break;
 324              		.loc 1 42 13 view .LVU115
  42:Display/MenuManager.cpp ****             case MAIN_MENU:       _next_state = CALIBRATION_HUB; break;
 325              		.loc 1 42 35 view .LVU116
  42:Display/MenuManager.cpp ****             case MAIN_MENU:       _next_state = CALIBRATION_HUB; break;
 326              		.loc 1 42 47 is_stmt 0 view .LVU117
 327 00d6 0123     		movs	r3, #1
 328 00d8 4370     		strb	r3, [r0, #1]
  42:Display/MenuManager.cpp ****             case MAIN_MENU:       _next_state = CALIBRATION_HUB; break;
 329              		.loc 1 42 60 is_stmt 1 view .LVU118
 330              	.LVL21:
 107:Display/MenuManager.cpp ****         switch (_outData.state) {
 331              		.loc 1 107 5 view .LVU119
 159:Display/MenuManager.cpp ****     if (_outData.state == ROOT || _outData.state == SCALE || _outData.state == OCTAVE) _next_state 
 332              		.loc 1 159 5 view .LVU120
 160:Display/MenuManager.cpp ****     if (_outData.state == PRESETS_HUB) _next_state = MAIN_MENU; 
 333              		.loc 1 160 5 view .LVU121
 161:Display/MenuManager.cpp **** 
 334              		.loc 1 161 5 view .LVU122
 335 00da D4E7     		b	.L8
 336              	.LVL22:
 337              	.L30:
  95:Display/MenuManager.cpp ****                 _outData.preset += current_rotation;
 338              		.loc 1 95 13 view .LVU123
  96:Display/MenuManager.cpp ****                 if (_outData.preset < 0) _outData.preset = 0;
 339              		.loc 1 96 17 view .LVU124
  97:Display/MenuManager.cpp ****                 if (_outData.preset > 2) _outData.preset = 2;
 340              		.loc 1 97 17 view .LVU125
  96:Display/MenuManager.cpp ****                 if (_outData.preset < 0) _outData.preset = 0;
 341              		.loc 1 96 33 is_stmt 0 view .LVU126
 342 00dc 436A     		ldr	r3, [r0, #36]
  97:Display/MenuManager.cpp ****                 if (_outData.preset > 2) _outData.preset = 2;
 343              		.loc 1 97 17 view .LVU127
 344 00de D218     		adds	r2, r2, r3
 345              	.LVL23:
  97:Display/MenuManager.cpp ****                 if (_outData.preset > 2) _outData.preset = 2;
 346              		.loc 1 97 17 view .LVU128
 347 00e0 00F18480 		bmi	.L113
  98:Display/MenuManager.cpp ****                 break;
 348              		.loc 1 98 17 is_stmt 1 view .LVU129
 349 00e4 022A     		cmp	r2, #2
 350 00e6 40F39680 		ble	.L114
  98:Display/MenuManager.cpp ****                 break;
 351              		.loc 1 98 42 discriminator 1 view .LVU130
  98:Display/MenuManager.cpp ****                 break;
 352              		.loc 1 98 58 is_stmt 0 discriminator 1 view .LVU131
 353 00ea 0223     		movs	r3, #2
 354 00ec 4362     		str	r3, [r0, #36]
 355 00ee 8EE7     		b	.L33
 356              	.LVL24:
 357              	.L29:
  62:Display/MenuManager.cpp ****                 _outData.curve += (current_rotation * 0.1f);
 358              		.loc 1 62 13 is_stmt 1 view .LVU132
  63:Display/MenuManager.cpp ****                 if (_outData.curve < 0.1f) _outData.curve = 0.1f;
 359              		.loc 1 63 17 view .LVU133
ARM GAS  C:\Users\skipi\AppData\Local\Temp\ccoTrycY.s 			page 12


  63:Display/MenuManager.cpp ****                 if (_outData.curve < 0.1f) _outData.curve = 0.1f;
 360              		.loc 1 63 53 is_stmt 0 view .LVU134
 361 00f0 07EE902A 		vmov	s15, r2	@ int
  63:Display/MenuManager.cpp ****                 if (_outData.curve < 0.1f) _outData.curve = 0.1f;
 362              		.loc 1 63 32 view .LVU135
 363 00f4 DFED716A 		vldr.32	s13, .L124
 364 00f8 90ED037A 		vldr.32	s14, [r0, #12]
  63:Display/MenuManager.cpp ****                 if (_outData.curve < 0.1f) _outData.curve = 0.1f;
 365              		.loc 1 63 53 view .LVU136
 366 00fc F8EEE77A 		vcvt.f32.s32	s15, s15
  63:Display/MenuManager.cpp ****                 if (_outData.curve < 0.1f) _outData.curve = 0.1f;
 367              		.loc 1 63 32 view .LVU137
 368 0100 A7EEA67A 		vfma.f32	s14, s15, s13
  64:Display/MenuManager.cpp ****                 if (_outData.curve > 2.0f) _outData.curve = 2.0f;
 369              		.loc 1 64 17 is_stmt 1 view .LVU138
 370 0104 B4EEE67A 		vcmpe.f32	s14, s13
 371 0108 F1EE10FA 		vmrs	APSR_nzcv, FPSCR
 372 010c 5DD5     		bpl	.L91
  64:Display/MenuManager.cpp ****                 if (_outData.curve > 2.0f) _outData.curve = 2.0f;
 373              		.loc 1 64 44 discriminator 1 view .LVU139
  64:Display/MenuManager.cpp ****                 if (_outData.curve > 2.0f) _outData.curve = 2.0f;
 374              		.loc 1 64 59 is_stmt 0 discriminator 1 view .LVU140
 375 010e C0ED036A 		vstr.32	s13, [r0, #12]
  65:Display/MenuManager.cpp ****                 break;
 376              		.loc 1 65 17 is_stmt 1 discriminator 1 view .LVU141
 377 0112 7CE7     		b	.L33
 378              	.L28:
  56:Display/MenuManager.cpp ****                 _outData.delta += (current_rotation * 5.0f);
 379              		.loc 1 56 13 view .LVU142
  57:Display/MenuManager.cpp ****                 if (_outData.delta < 1.0f) _outData.delta = 1.0f;
 380              		.loc 1 57 17 view .LVU143
  57:Display/MenuManager.cpp ****                 if (_outData.delta < 1.0f) _outData.delta = 1.0f;
 381              		.loc 1 57 53 is_stmt 0 view .LVU144
 382 0114 07EE902A 		vmov	s15, r2	@ int
  57:Display/MenuManager.cpp ****                 if (_outData.delta < 1.0f) _outData.delta = 1.0f;
 383              		.loc 1 57 32 view .LVU145
 384 0118 B1EE046A 		vmov.f32	s12, #5.0e+0
 385 011c 90ED027A 		vldr.32	s14, [r0, #8]
  58:Display/MenuManager.cpp ****                 if (_outData.delta > 100.0f) _outData.delta = 100.0f;
 386              		.loc 1 58 17 view .LVU146
 387 0120 F7EE006A 		vmov.f32	s13, #1.0e+0
  57:Display/MenuManager.cpp ****                 if (_outData.delta < 1.0f) _outData.delta = 1.0f;
 388              		.loc 1 57 53 view .LVU147
 389 0124 F8EEE77A 		vcvt.f32.s32	s15, s15
  57:Display/MenuManager.cpp ****                 if (_outData.delta < 1.0f) _outData.delta = 1.0f;
 390              		.loc 1 57 32 view .LVU148
 391 0128 A7EE867A 		vfma.f32	s14, s15, s12
  58:Display/MenuManager.cpp ****                 if (_outData.delta > 100.0f) _outData.delta = 100.0f;
 392              		.loc 1 58 17 is_stmt 1 view .LVU149
 393 012c B4EEE67A 		vcmpe.f32	s14, s13
 394 0130 F1EE10FA 		vmrs	APSR_nzcv, FPSCR
 395 0134 54D4     		bmi	.L115
  59:Display/MenuManager.cpp ****                 break;
 396              		.loc 1 59 17 view .LVU150
 397 0136 DFED627A 		vldr.32	s15, .L124+4
  57:Display/MenuManager.cpp ****                 if (_outData.delta < 1.0f) _outData.delta = 1.0f;
 398              		.loc 1 57 32 is_stmt 0 view .LVU151
ARM GAS  C:\Users\skipi\AppData\Local\Temp\ccoTrycY.s 			page 13


 399 013a B4EEE77A 		vcmpe.f32	s14, s15
 400 013e F1EE10FA 		vmrs	APSR_nzcv, FPSCR
 401 0142 77FE877A 		vselgt.f32	s15, s15, s14
 402 0146 C0ED027A 		vstr.32	s15, [r0, #8]
 403 014a 60E7     		b	.L33
 404              	.L27:
  67:Display/MenuManager.cpp ****                 _outData.hysteresis += (current_rotation * 1.0f);
 405              		.loc 1 67 13 is_stmt 1 view .LVU152
  68:Display/MenuManager.cpp ****                 if (_outData.hysteresis < 0.0f) _outData.hysteresis = 0.0f;
 406              		.loc 1 68 17 view .LVU153
  68:Display/MenuManager.cpp ****                 if (_outData.hysteresis < 0.0f) _outData.hysteresis = 0.0f;
 407              		.loc 1 68 37 is_stmt 0 view .LVU154
 408 014c 07EE902A 		vmov	s15, r2	@ int
 409 0150 90ED057A 		vldr.32	s14, [r0, #20]	@ int
 410 0154 F8EEE77A 		vcvt.f32.s32	s15, s15
 411 0158 B8EEC77A 		vcvt.f32.s32	s14, s14
 412 015c 77EE277A 		vadd.f32	s15, s14, s15
 413 0160 FDEEE77A 		vcvt.s32.f32	s15, s15
  69:Display/MenuManager.cpp ****                 if (_outData.hysteresis > 20.0f) _outData.hysteresis = 20.0f;
 414              		.loc 1 69 17 is_stmt 1 view .LVU155
  69:Display/MenuManager.cpp ****                 if (_outData.hysteresis > 20.0f) _outData.hysteresis = 20.0f;
 415              		.loc 1 69 41 is_stmt 0 view .LVU156
 416 0164 B8EEE77A 		vcvt.f32.s32	s14, s15
  69:Display/MenuManager.cpp ****                 if (_outData.hysteresis > 20.0f) _outData.hysteresis = 20.0f;
 417              		.loc 1 69 17 view .LVU157
 418 0168 B5EEC07A 		vcmpe.f32	s14, #0
 419 016c F1EE10FA 		vmrs	APSR_nzcv, FPSCR
 420 0170 3FD4     		bmi	.L116
  70:Display/MenuManager.cpp ****                 break;
 421              		.loc 1 70 17 is_stmt 1 view .LVU158
 422 0172 F3EE046A 		vmov.f32	s13, #2.0e+1
 423 0176 B4EEE67A 		vcmpe.f32	s14, s13
 424 017a F1EE10FA 		vmrs	APSR_nzcv, FPSCR
 425 017e 43DD     		ble	.L117
  70:Display/MenuManager.cpp ****                 break;
 426              		.loc 1 70 50 discriminator 1 view .LVU159
  70:Display/MenuManager.cpp ****                 break;
 427              		.loc 1 70 70 is_stmt 0 discriminator 1 view .LVU160
 428 0180 1423     		movs	r3, #20
 429 0182 4361     		str	r3, [r0, #20]
 430 0184 43E7     		b	.L33
 431              	.L26:
  72:Display/MenuManager.cpp ****                 if (current_rotation > 0) _outData.filter_order = 4;
 432              		.loc 1 72 13 is_stmt 1 view .LVU161
  73:Display/MenuManager.cpp ****                 else if (current_rotation < 0) _outData.filter_order = 2;
 433              		.loc 1 73 17 view .LVU162
 434 0186 002A     		cmp	r2, #0
  73:Display/MenuManager.cpp ****                 else if (current_rotation < 0) _outData.filter_order = 2;
 435              		.loc 1 73 43 view .LVU163
  73:Display/MenuManager.cpp ****                 else if (current_rotation < 0) _outData.filter_order = 2;
 436              		.loc 1 73 65 is_stmt 0 view .LVU164
 437 0188 CCBF     		ite	gt
 438 018a 0423     		movgt	r3, #4
  74:Display/MenuManager.cpp ****                 break;
 439              		.loc 1 74 22 is_stmt 1 view .LVU165
  74:Display/MenuManager.cpp ****                 break;
 440              		.loc 1 74 48 view .LVU166
ARM GAS  C:\Users\skipi\AppData\Local\Temp\ccoTrycY.s 			page 14


  74:Display/MenuManager.cpp ****                 break;
 441              		.loc 1 74 70 is_stmt 0 view .LVU167
 442 018c 0223     		movle	r3, #2
 443 018e 8361     		str	r3, [r0, #24]
 444 0190 3DE7     		b	.L33
 445              	.L25:
  77:Display/MenuManager.cpp ****                 _outData.root += current_rotation;
 446              		.loc 1 77 13 is_stmt 1 view .LVU168
  78:Display/MenuManager.cpp ****                 if (_outData.root < 0) _outData.root = 0;
 447              		.loc 1 78 17 view .LVU169
  79:Display/MenuManager.cpp ****                 if (_outData.root > 11) _outData.root = 11;
 448              		.loc 1 79 17 view .LVU170
  78:Display/MenuManager.cpp ****                 if (_outData.root < 0) _outData.root = 0;
 449              		.loc 1 78 31 is_stmt 0 view .LVU171
 450 0192 0369     		ldr	r3, [r0, #16]
  79:Display/MenuManager.cpp ****                 if (_outData.root > 11) _outData.root = 11;
 451              		.loc 1 79 17 view .LVU172
 452 0194 D218     		adds	r2, r2, r3
 453              	.LVL25:
  79:Display/MenuManager.cpp ****                 if (_outData.root > 11) _outData.root = 11;
 454              		.loc 1 79 17 view .LVU173
 455 0196 2FD4     		bmi	.L118
  80:Display/MenuManager.cpp ****                 break;
 456              		.loc 1 80 17 is_stmt 1 view .LVU174
 457 0198 0B2A     		cmp	r2, #11
 458 019a 38DD     		ble	.L119
  80:Display/MenuManager.cpp ****                 break;
 459              		.loc 1 80 41 discriminator 1 view .LVU175
  80:Display/MenuManager.cpp ****                 break;
 460              		.loc 1 80 55 is_stmt 0 discriminator 1 view .LVU176
 461 019c 0B23     		movs	r3, #11
 462 019e 0361     		str	r3, [r0, #16]
 463 01a0 35E7     		b	.L33
 464              	.LVL26:
 465              	.L24:
  83:Display/MenuManager.cpp ****                 _outData.scale += current_rotation;
 466              		.loc 1 83 13 is_stmt 1 view .LVU177
  84:Display/MenuManager.cpp ****                 if (_outData.scale < 0) _outData.scale = 0;
 467              		.loc 1 84 17 view .LVU178
  85:Display/MenuManager.cpp ****                 if (_outData.scale > 6) _outData.scale = 6;
 468              		.loc 1 85 17 view .LVU179
  84:Display/MenuManager.cpp ****                 if (_outData.scale < 0) _outData.scale = 0;
 469              		.loc 1 84 32 is_stmt 0 view .LVU180
 470 01a2 C369     		ldr	r3, [r0, #28]
  85:Display/MenuManager.cpp ****                 if (_outData.scale > 6) _outData.scale = 6;
 471              		.loc 1 85 17 view .LVU181
 472 01a4 D218     		adds	r2, r2, r3
 473              	.LVL27:
  85:Display/MenuManager.cpp ****                 if (_outData.scale > 6) _outData.scale = 6;
 474              		.loc 1 85 17 view .LVU182
 475 01a6 1ED4     		bmi	.L120
  86:Display/MenuManager.cpp ****                 break;
 476              		.loc 1 86 17 is_stmt 1 view .LVU183
 477 01a8 062A     		cmp	r2, #6
 478 01aa 32DD     		ble	.L121
  86:Display/MenuManager.cpp ****                 break;
 479              		.loc 1 86 41 discriminator 1 view .LVU184
ARM GAS  C:\Users\skipi\AppData\Local\Temp\ccoTrycY.s 			page 15


  86:Display/MenuManager.cpp ****                 break;
 480              		.loc 1 86 56 is_stmt 0 discriminator 1 view .LVU185
 481 01ac 0623     		movs	r3, #6
 482 01ae C361     		str	r3, [r0, #28]
 483 01b0 2DE7     		b	.L33
 484              	.LVL28:
 485              	.L22:
  89:Display/MenuManager.cpp ****                 _outData.octave += current_rotation;
 486              		.loc 1 89 13 is_stmt 1 view .LVU186
  90:Display/MenuManager.cpp ****                 if (_outData.octave < 1) _outData.octave = 1;
 487              		.loc 1 90 17 view .LVU187
  90:Display/MenuManager.cpp ****                 if (_outData.octave < 1) _outData.octave = 1;
 488              		.loc 1 90 33 is_stmt 0 view .LVU188
 489 01b2 036A     		ldr	r3, [r0, #32]
 490 01b4 1A44     		add	r2, r2, r3
 491              	.LVL29:
  91:Display/MenuManager.cpp ****                 if (_outData.octave > 8) _outData.octave = 8;
 492              		.loc 1 91 17 is_stmt 1 view .LVU189
 493 01b6 002A     		cmp	r2, #0
 494 01b8 21DD     		ble	.L122
  92:Display/MenuManager.cpp ****                 break;
 495              		.loc 1 92 17 view .LVU190
 496 01ba 082A     		cmp	r2, #8
 497 01bc 22DD     		ble	.L123
  92:Display/MenuManager.cpp ****                 break;
 498              		.loc 1 92 42 discriminator 1 view .LVU191
  92:Display/MenuManager.cpp ****                 break;
 499              		.loc 1 92 58 is_stmt 0 discriminator 1 view .LVU192
 500 01be 0823     		movs	r3, #8
 501 01c0 0362     		str	r3, [r0, #32]
 502 01c2 24E7     		b	.L33
 503              	.LVL30:
 504              	.L108:
  32:Display/MenuManager.cpp ****             else if (_outData.state == CALIBRATION_HUB || _outData.state == SCALES_HUB || _outData.
 505              		.loc 1 32 46 is_stmt 1 discriminator 1 view .LVU193
  32:Display/MenuManager.cpp ****             else if (_outData.state == CALIBRATION_HUB || _outData.state == SCALES_HUB || _outData.
 506              		.loc 1 32 61 is_stmt 0 discriminator 1 view .LVU194
 507 01c4 0371     		strb	r3, [r0, #4]
  41:Display/MenuManager.cpp ****             case PLAYMODE:        _next_state = MAIN_MENU; break;
 508              		.loc 1 41 9 is_stmt 1 discriminator 1 view .LVU195
  42:Display/MenuManager.cpp ****             case MAIN_MENU:       _next_state = CALIBRATION_HUB; break;
 509              		.loc 1 42 13 discriminator 1 view .LVU196
  42:Display/MenuManager.cpp ****             case MAIN_MENU:       _next_state = CALIBRATION_HUB; break;
 510              		.loc 1 42 35 discriminator 1 view .LVU197
  42:Display/MenuManager.cpp ****             case MAIN_MENU:       _next_state = CALIBRATION_HUB; break;
 511              		.loc 1 42 47 is_stmt 0 discriminator 1 view .LVU198
 512 01c6 4170     		strb	r1, [r0, #1]
  42:Display/MenuManager.cpp ****             case MAIN_MENU:       _next_state = CALIBRATION_HUB; break;
 513              		.loc 1 42 60 is_stmt 1 discriminator 1 view .LVU199
 514              	.LVL31:
 107:Display/MenuManager.cpp ****         switch (_outData.state) {
 515              		.loc 1 107 5 discriminator 1 view .LVU200
 159:Display/MenuManager.cpp ****     if (_outData.state == ROOT || _outData.state == SCALE || _outData.state == OCTAVE) _next_state 
 516              		.loc 1 159 5 discriminator 1 view .LVU201
 160:Display/MenuManager.cpp ****     if (_outData.state == PRESETS_HUB) _next_state = MAIN_MENU; 
 517              		.loc 1 160 5 discriminator 1 view .LVU202
 518 01c8 5DE7     		b	.L8
ARM GAS  C:\Users\skipi\AppData\Local\Temp\ccoTrycY.s 			page 16


 519              	.LVL32:
 520              	.L91:
  65:Display/MenuManager.cpp ****                 break;
 521              		.loc 1 65 17 view .LVU203
 522 01ca F0EE007A 		vmov.f32	s15, #2.0e+0
  63:Display/MenuManager.cpp ****                 if (_outData.curve < 0.1f) _outData.curve = 0.1f;
 523              		.loc 1 63 32 is_stmt 0 view .LVU204
 524 01ce B4EEE77A 		vcmpe.f32	s14, s15
 525 01d2 F1EE10FA 		vmrs	APSR_nzcv, FPSCR
 526 01d6 77FE877A 		vselgt.f32	s15, s15, s14
 527 01da C0ED037A 		vstr.32	s15, [r0, #12]
 528 01de 16E7     		b	.L33
 529              	.L115:
  58:Display/MenuManager.cpp ****                 if (_outData.delta > 100.0f) _outData.delta = 100.0f;
 530              		.loc 1 58 44 is_stmt 1 discriminator 1 view .LVU205
  58:Display/MenuManager.cpp ****                 if (_outData.delta > 100.0f) _outData.delta = 100.0f;
 531              		.loc 1 58 59 is_stmt 0 discriminator 1 view .LVU206
 532 01e0 C0ED026A 		vstr.32	s13, [r0, #8]
  59:Display/MenuManager.cpp ****                 break;
 533              		.loc 1 59 17 is_stmt 1 discriminator 1 view .LVU207
 534 01e4 13E7     		b	.L33
 535              	.LVL33:
 536              	.L120:
  85:Display/MenuManager.cpp ****                 if (_outData.scale > 6) _outData.scale = 6;
 537              		.loc 1 85 41 discriminator 1 view .LVU208
  85:Display/MenuManager.cpp ****                 if (_outData.scale > 6) _outData.scale = 6;
 538              		.loc 1 85 56 is_stmt 0 discriminator 1 view .LVU209
 539 01e6 0023     		movs	r3, #0
 540 01e8 C361     		str	r3, [r0, #28]
  86:Display/MenuManager.cpp ****                 break;
 541              		.loc 1 86 17 is_stmt 1 discriminator 1 view .LVU210
 542 01ea 10E7     		b	.L33
 543              	.L113:
  97:Display/MenuManager.cpp ****                 if (_outData.preset > 2) _outData.preset = 2;
 544              		.loc 1 97 42 discriminator 1 view .LVU211
  97:Display/MenuManager.cpp ****                 if (_outData.preset > 2) _outData.preset = 2;
 545              		.loc 1 97 58 is_stmt 0 discriminator 1 view .LVU212
 546 01ec 0023     		movs	r3, #0
 547 01ee 4362     		str	r3, [r0, #36]
  98:Display/MenuManager.cpp ****                 break;
 548              		.loc 1 98 17 is_stmt 1 discriminator 1 view .LVU213
 549 01f0 0DE7     		b	.L33
 550              	.LVL34:
 551              	.L116:
  69:Display/MenuManager.cpp ****                 if (_outData.hysteresis > 20.0f) _outData.hysteresis = 20.0f;
 552              		.loc 1 69 49 discriminator 1 view .LVU214
  69:Display/MenuManager.cpp ****                 if (_outData.hysteresis > 20.0f) _outData.hysteresis = 20.0f;
 553              		.loc 1 69 69 is_stmt 0 discriminator 1 view .LVU215
 554 01f2 0023     		movs	r3, #0
 555 01f4 4361     		str	r3, [r0, #20]
  70:Display/MenuManager.cpp ****                 break;
 556              		.loc 1 70 17 is_stmt 1 discriminator 1 view .LVU216
 557 01f6 0AE7     		b	.L33
 558              	.LVL35:
 559              	.L118:
  79:Display/MenuManager.cpp ****                 if (_outData.root > 11) _outData.root = 11;
 560              		.loc 1 79 40 discriminator 1 view .LVU217
ARM GAS  C:\Users\skipi\AppData\Local\Temp\ccoTrycY.s 			page 17


  79:Display/MenuManager.cpp ****                 if (_outData.root > 11) _outData.root = 11;
 561              		.loc 1 79 54 is_stmt 0 discriminator 1 view .LVU218
 562 01f8 0023     		movs	r3, #0
 563 01fa 0361     		str	r3, [r0, #16]
  80:Display/MenuManager.cpp ****                 break;
 564              		.loc 1 80 17 is_stmt 1 discriminator 1 view .LVU219
 565 01fc 07E7     		b	.L33
 566              	.L122:
  91:Display/MenuManager.cpp ****                 if (_outData.octave > 8) _outData.octave = 8;
 567              		.loc 1 91 42 discriminator 1 view .LVU220
  91:Display/MenuManager.cpp ****                 if (_outData.octave > 8) _outData.octave = 8;
 568              		.loc 1 91 58 is_stmt 0 discriminator 1 view .LVU221
 569 01fe 0123     		movs	r3, #1
 570 0200 0362     		str	r3, [r0, #32]
  92:Display/MenuManager.cpp ****                 break;
 571              		.loc 1 92 17 is_stmt 1 discriminator 1 view .LVU222
 572 0202 04E7     		b	.L33
 573              	.L123:
  90:Display/MenuManager.cpp ****                 if (_outData.octave < 1) _outData.octave = 1;
 574              		.loc 1 90 33 is_stmt 0 view .LVU223
 575 0204 0262     		str	r2, [r0, #32]
 576 0206 02E7     		b	.L33
 577              	.LVL36:
 578              	.L117:
  68:Display/MenuManager.cpp ****                 if (_outData.hysteresis < 0.0f) _outData.hysteresis = 0.0f;
 579              		.loc 1 68 37 view .LVU224
 580 0208 C0ED057A 		vstr.32	s15, [r0, #20]	@ int
 581 020c FFE6     		b	.L33
 582              	.LVL37:
 583              	.L119:
  78:Display/MenuManager.cpp ****                 if (_outData.root < 0) _outData.root = 0;
 584              		.loc 1 78 31 view .LVU225
 585 020e 0261     		str	r2, [r0, #16]
 586 0210 FDE6     		b	.L33
 587              	.L121:
  84:Display/MenuManager.cpp ****                 if (_outData.scale < 0) _outData.scale = 0;
 588              		.loc 1 84 32 view .LVU226
 589 0212 C261     		str	r2, [r0, #28]
 590 0214 FBE6     		b	.L33
 591              	.L114:
  96:Display/MenuManager.cpp ****                 if (_outData.preset < 0) _outData.preset = 0;
 592              		.loc 1 96 33 view .LVU227
 593 0216 4262     		str	r2, [r0, #36]
 594 0218 F9E6     		b	.L33
 595              	.LVL38:
 596              	.L81:
 161:Display/MenuManager.cpp **** 
 597              		.loc 1 161 5 is_stmt 1 view .LVU228
 598 021a 0429     		cmp	r1, #4
 599 021c 7FF433AF 		bne	.L8
 161:Display/MenuManager.cpp **** 
 600              		.loc 1 161 40 discriminator 1 view .LVU229
 161:Display/MenuManager.cpp **** 
 601              		.loc 1 161 52 is_stmt 0 discriminator 1 view .LVU230
 602 0220 0122     		movs	r2, #1
 603 0222 1346     		mov	r3, r2
 604 0224 4270     		strb	r2, [r0, #1]
ARM GAS  C:\Users\skipi\AppData\Local\Temp\ccoTrycY.s 			page 18


 165:Display/MenuManager.cpp **** }
 605              		.loc 1 165 5 is_stmt 1 discriminator 1 view .LVU231
 165:Display/MenuManager.cpp **** }
 606              		.loc 1 165 27 is_stmt 0 discriminator 1 view .LVU232
 607 0226 4371     		strb	r3, [r0, #5]
 608              		.loc 1 166 1 discriminator 1 view .LVU233
 609 0228 7047     		bx	lr
 610              	.LVL39:
 611              	.L111:
 125:Display/MenuManager.cpp ****                     else if (_next_state == CURVE)           _next_state = HYSTERESIS;
 612              		.loc 1 125 21 is_stmt 1 view .LVU234
 613 022a 062B     		cmp	r3, #6
 614 022c 0BD0     		beq	.L96
 126:Display/MenuManager.cpp ****                     else if (_next_state == HYSTERESIS)      _next_state = FILTER_ORDER; // <---
 615              		.loc 1 126 26 view .LVU235
 616 022e 052B     		cmp	r3, #5
 617 0230 0ED0     		beq	.L97
 127:Display/MenuManager.cpp ****                     else if (_next_state == FILTER_ORDER)   _next_state = BACK;         // <---
 618              		.loc 1 127 26 view .LVU236
 619 0232 072B     		cmp	r3, #7
 620 0234 12D0     		beq	.L98
 128:Display/MenuManager.cpp ****                     else if (_next_state == BACK)            _next_state = DELTA;
 621              		.loc 1 128 26 view .LVU237
 622 0236 082B     		cmp	r3, #8
 623 0238 2ED0     		beq	.L106
 129:Display/MenuManager.cpp ****                 } else {
 624              		.loc 1 129 26 view .LVU238
 625 023a 0C2B     		cmp	r3, #12
 626 023c 7FF423AF 		bne	.L8
 627 0240 2DE7     		b	.L94
 628              	.L69:
 133:Display/MenuManager.cpp ****                     else if (_next_state == FILTER_ORDER)   _next_state = HYSTERESIS; // <---
 629              		.loc 1 133 26 view .LVU239
 630 0242 072B     		cmp	r3, #7
 631 0244 02D1     		bne	.L70
 632              	.L96:
 133:Display/MenuManager.cpp ****                     else if (_next_state == FILTER_ORDER)   _next_state = HYSTERESIS; // <---
 633              		.loc 1 133 62 discriminator 1 view .LVU240
 133:Display/MenuManager.cpp ****                     else if (_next_state == FILTER_ORDER)   _next_state = HYSTERESIS; // <---
 634              		.loc 1 133 74 is_stmt 0 discriminator 1 view .LVU241
 635 0246 0523     		movs	r3, #5
 636 0248 4370     		strb	r3, [r0, #1]
 637 024a 1CE7     		b	.L8
 638              	.L70:
 134:Display/MenuManager.cpp ****                     else if (_next_state == BACK)            _next_state = FILTER_ORDER; // <---
 639              		.loc 1 134 26 is_stmt 1 view .LVU242
 640 024c 082B     		cmp	r3, #8
 641 024e 02D1     		bne	.L71
 642              	.L97:
 134:Display/MenuManager.cpp ****                     else if (_next_state == BACK)            _next_state = FILTER_ORDER; // <---
 643              		.loc 1 134 61 discriminator 1 view .LVU243
 134:Display/MenuManager.cpp ****                     else if (_next_state == BACK)            _next_state = FILTER_ORDER; // <---
 644              		.loc 1 134 73 is_stmt 0 discriminator 1 view .LVU244
 645 0250 0723     		movs	r3, #7
 646 0252 4370     		strb	r3, [r0, #1]
 647 0254 17E7     		b	.L8
 648              	.L71:
ARM GAS  C:\Users\skipi\AppData\Local\Temp\ccoTrycY.s 			page 19


 135:Display/MenuManager.cpp ****                 }
 649              		.loc 1 135 26 is_stmt 1 view .LVU245
 650 0256 0C2B     		cmp	r3, #12
 651 0258 7FF415AF 		bne	.L8
 652              	.L98:
 135:Display/MenuManager.cpp ****                 }
 653              		.loc 1 135 62 discriminator 1 view .LVU246
 135:Display/MenuManager.cpp ****                 }
 654              		.loc 1 135 74 is_stmt 0 discriminator 1 view .LVU247
 655 025c 0823     		movs	r3, #8
 656 025e 4370     		strb	r3, [r0, #1]
 657 0260 11E7     		b	.L8
 658              	.L110:
 141:Display/MenuManager.cpp ****                     else if (_next_state == SCALE) _next_state = OCTAVE;
 659              		.loc 1 141 21 is_stmt 1 view .LVU248
 660 0262 092B     		cmp	r3, #9
 661 0264 09D0     		beq	.L104
 142:Display/MenuManager.cpp ****                     else if (_next_state == OCTAVE) _next_state = BACK;
 662              		.loc 1 142 26 view .LVU249
 663 0266 0A2B     		cmp	r3, #10
 664 0268 0DD0     		beq	.L105
 143:Display/MenuManager.cpp ****                     else if (_next_state == BACK) _next_state = ROOT;
 665              		.loc 1 143 26 view .LVU250
 666 026a 0B2B     		cmp	r3, #11
 667 026c 14D0     		beq	.L106
 144:Display/MenuManager.cpp ****                 } else {
 668              		.loc 1 144 26 view .LVU251
 669 026e 0C2B     		cmp	r3, #12
 670 0270 7FF409AF 		bne	.L8
 671 0274 05E7     		b	.L99
 672              	.L77:
 148:Display/MenuManager.cpp ****                     else if (_next_state == BACK) _next_state = OCTAVE;
 673              		.loc 1 148 26 view .LVU252
 674 0276 0B2B     		cmp	r3, #11
 675 0278 02D1     		bne	.L78
 676              	.L104:
 148:Display/MenuManager.cpp ****                     else if (_next_state == BACK) _next_state = OCTAVE;
 677              		.loc 1 148 53 discriminator 1 view .LVU253
 148:Display/MenuManager.cpp ****                     else if (_next_state == BACK) _next_state = OCTAVE;
 678              		.loc 1 148 65 is_stmt 0 discriminator 1 view .LVU254
 679 027a 0A23     		movs	r3, #10
 680 027c 4370     		strb	r3, [r0, #1]
 159:Display/MenuManager.cpp ****     if (_outData.state == ROOT || _outData.state == SCALE || _outData.state == OCTAVE) _next_state 
 681              		.loc 1 159 5 is_stmt 1 discriminator 1 view .LVU255
 160:Display/MenuManager.cpp ****     if (_outData.state == PRESETS_HUB) _next_state = MAIN_MENU; 
 682              		.loc 1 160 5 discriminator 1 view .LVU256
 161:Display/MenuManager.cpp **** 
 683              		.loc 1 161 5 discriminator 1 view .LVU257
 684 027e 02E7     		b	.L8
 685              	.L78:
 149:Display/MenuManager.cpp ****                 }
 686              		.loc 1 149 26 view .LVU258
 687 0280 0C2B     		cmp	r3, #12
 688 0282 7FF400AF 		bne	.L8
 689              	.L105:
 149:Display/MenuManager.cpp ****                 }
 690              		.loc 1 149 51 discriminator 1 view .LVU259
ARM GAS  C:\Users\skipi\AppData\Local\Temp\ccoTrycY.s 			page 20


 149:Display/MenuManager.cpp ****                 }
 691              		.loc 1 149 63 is_stmt 0 discriminator 1 view .LVU260
 692 0286 0B23     		movs	r3, #11
 693 0288 4370     		strb	r3, [r0, #1]
 159:Display/MenuManager.cpp ****     if (_outData.state == ROOT || _outData.state == SCALE || _outData.state == OCTAVE) _next_state 
 694              		.loc 1 159 5 is_stmt 1 discriminator 1 view .LVU261
 160:Display/MenuManager.cpp ****     if (_outData.state == PRESETS_HUB) _next_state = MAIN_MENU; 
 695              		.loc 1 160 5 discriminator 1 view .LVU262
 161:Display/MenuManager.cpp **** 
 696              		.loc 1 161 5 discriminator 1 view .LVU263
 697 028a FCE6     		b	.L8
 698              	.L112:
 111:Display/MenuManager.cpp ****                     else if (_next_state == SCALES_HUB) _next_state = PRESETS_HUB;
 699              		.loc 1 111 21 view .LVU264
 700 028c 022B     		cmp	r3, #2
 701 028e 08D0     		beq	.L101
 112:Display/MenuManager.cpp ****                     else if (_next_state == PRESETS_HUB) _next_state = BACK;
 702              		.loc 1 112 26 view .LVU265
 703 0290 032B     		cmp	r3, #3
 704 0292 0CD0     		beq	.L102
 113:Display/MenuManager.cpp ****                     else if (_next_state == BACK) _next_state = CALIBRATION_HUB;
 705              		.loc 1 113 26 view .LVU266
 706 0294 042B     		cmp	r3, #4
 707 0296 0DD1     		bne	.L58
 708              	.L106:
 146:Display/MenuManager.cpp ****                     else if (_next_state == SCALE) _next_state = ROOT;
 709              		.loc 1 146 46 discriminator 1 view .LVU267
 146:Display/MenuManager.cpp ****                     else if (_next_state == SCALE) _next_state = ROOT;
 710              		.loc 1 146 58 is_stmt 0 discriminator 1 view .LVU268
 711 0298 0C23     		movs	r3, #12
 712 029a 4370     		strb	r3, [r0, #1]
 159:Display/MenuManager.cpp ****     if (_outData.state == ROOT || _outData.state == SCALE || _outData.state == OCTAVE) _next_state 
 713              		.loc 1 159 5 is_stmt 1 discriminator 1 view .LVU269
 160:Display/MenuManager.cpp ****     if (_outData.state == PRESETS_HUB) _next_state = MAIN_MENU; 
 714              		.loc 1 160 5 discriminator 1 view .LVU270
 161:Display/MenuManager.cpp **** 
 715              		.loc 1 161 5 discriminator 1 view .LVU271
 716 029c F3E6     		b	.L8
 717              	.L60:
 118:Display/MenuManager.cpp ****                     else if (_next_state == BACK) _next_state = PRESETS_HUB;
 718              		.loc 1 118 26 view .LVU272
 719 029e 042B     		cmp	r3, #4
 720 02a0 02D1     		bne	.L61
 721              	.L101:
 118:Display/MenuManager.cpp ****                     else if (_next_state == BACK) _next_state = PRESETS_HUB;
 722              		.loc 1 118 58 discriminator 1 view .LVU273
 118:Display/MenuManager.cpp ****                     else if (_next_state == BACK) _next_state = PRESETS_HUB;
 723              		.loc 1 118 70 is_stmt 0 discriminator 1 view .LVU274
 724 02a2 0323     		movs	r3, #3
 725 02a4 4370     		strb	r3, [r0, #1]
 159:Display/MenuManager.cpp ****     if (_outData.state == ROOT || _outData.state == SCALE || _outData.state == OCTAVE) _next_state 
 726              		.loc 1 159 5 is_stmt 1 discriminator 1 view .LVU275
 160:Display/MenuManager.cpp ****     if (_outData.state == PRESETS_HUB) _next_state = MAIN_MENU; 
 727              		.loc 1 160 5 discriminator 1 view .LVU276
 161:Display/MenuManager.cpp **** 
 728              		.loc 1 161 5 discriminator 1 view .LVU277
 729 02a6 EEE6     		b	.L8
ARM GAS  C:\Users\skipi\AppData\Local\Temp\ccoTrycY.s 			page 21


 730              	.L61:
 119:Display/MenuManager.cpp ****                 }
 731              		.loc 1 119 26 view .LVU278
 732 02a8 0C2B     		cmp	r3, #12
 733 02aa 7FF4ECAE 		bne	.L8
 734              	.L102:
 119:Display/MenuManager.cpp ****                 }
 735              		.loc 1 119 51 discriminator 1 view .LVU279
 119:Display/MenuManager.cpp ****                 }
 736              		.loc 1 119 63 is_stmt 0 discriminator 1 view .LVU280
 737 02ae 0423     		movs	r3, #4
 738 02b0 4370     		strb	r3, [r0, #1]
 159:Display/MenuManager.cpp ****     if (_outData.state == ROOT || _outData.state == SCALE || _outData.state == OCTAVE) _next_state 
 739              		.loc 1 159 5 is_stmt 1 discriminator 1 view .LVU281
 160:Display/MenuManager.cpp ****     if (_outData.state == PRESETS_HUB) _next_state = MAIN_MENU; 
 740              		.loc 1 160 5 discriminator 1 view .LVU282
 161:Display/MenuManager.cpp **** 
 741              		.loc 1 161 5 discriminator 1 view .LVU283
 742 02b2 E8E6     		b	.L8
 743              	.L58:
 114:Display/MenuManager.cpp ****                 } else {
 744              		.loc 1 114 26 view .LVU284
 745 02b4 0C2B     		cmp	r3, #12
 746 02b6 7FF4E6AE 		bne	.L8
 747 02ba 09E7     		b	.L95
 748              	.L125:
 749              		.align	2
 750              	.L124:
 751 02bc CDCCCC3D 		.word	1036831949
 752 02c0 0000C842 		.word	1120403456
 753              		.cfi_endproc
 754              	.LFE563:
 756              		.text
 757              	.Letext0:
 758              		.file 2 "c:\\program files\\daisytoolchain\\arm-none-eabi\\include\\c++\\10.2.1\\cmath"
 759              		.file 3 "c:\\program files\\daisytoolchain\\arm-none-eabi\\include\\c++\\10.2.1\\bits\\std_abs.h"
 760              		.file 4 "c:\\program files\\daisytoolchain\\arm-none-eabi\\include\\c++\\10.2.1\\arm-none-eabi\\th
 761              		.file 5 "c:\\program files\\daisytoolchain\\arm-none-eabi\\include\\math.h"
 762              		.file 6 "c:\\program files\\daisytoolchain\\arm-none-eabi\\include\\c++\\10.2.1\\math.h"
 763              		.file 7 "Display/MenuManager.h"
 764              		.file 8 "<built-in>"
ARM GAS  C:\Users\skipi\AppData\Local\Temp\ccoTrycY.s 			page 22


DEFINED SYMBOLS
                            *ABS*:00000000 MenuManager.cpp
C:\Users\skipi\AppData\Local\Temp\ccoTrycY.s:17     .text._ZN11MenuManager4InitEv:00000000 $t
C:\Users\skipi\AppData\Local\Temp\ccoTrycY.s:26     .text._ZN11MenuManager4InitEv:00000000 _ZN11MenuManager4InitEv
C:\Users\skipi\AppData\Local\Temp\ccoTrycY.s:77     .text._ZN11MenuManager4InitEv:00000028 $d
C:\Users\skipi\AppData\Local\Temp\ccoTrycY.s:82     .text._ZN11MenuManager15StateTransitionEbib:00000000 $t
C:\Users\skipi\AppData\Local\Temp\ccoTrycY.s:90     .text._ZN11MenuManager15StateTransitionEbib:00000000 _ZN11MenuManager15StateTransitionEbib
C:\Users\skipi\AppData\Local\Temp\ccoTrycY.s:158    .text._ZN11MenuManager15StateTransitionEbib:00000032 $d
C:\Users\skipi\AppData\Local\Temp\ccoTrycY.s:163    .text._ZN11MenuManager15StateTransitionEbib:00000036 $t
C:\Users\skipi\AppData\Local\Temp\ccoTrycY.s:180    .text._ZN11MenuManager15StateTransitionEbib:00000046 $d
C:\Users\skipi\AppData\Local\Temp\ccoTrycY.s:189    .text._ZN11MenuManager15StateTransitionEbib:0000004e $t
C:\Users\skipi\AppData\Local\Temp\ccoTrycY.s:751    .text._ZN11MenuManager15StateTransitionEbib:000002bc $d

NO UNDEFINED SYMBOLS
