ARM GAS  C:\Users\matte\AppData\Local\Temp\ccgZTizB.s 			page 1


   1              		.cpu cortex-m7
   2              		.eabi_attribute 28, 1
   3              		.eabi_attribute 20, 1
   4              		.eabi_attribute 21, 1
   5              		.eabi_attribute 23, 3
   6              		.eabi_attribute 24, 1
   7              		.eabi_attribute 25, 1
   8              		.eabi_attribute 26, 1
   9              		.eabi_attribute 30, 2
  10              		.eabi_attribute 34, 1
  11              		.eabi_attribute 18, 4
  12              		.file	"PlantConditioner.cpp"
  13              		.text
  14              	.Ltext0:
  15              		.cfi_sections	.debug_frame
  16              		.section	.text._ZN16PlantConditionerC2Ev,"ax",%progbits
  17              		.align	1
  18              		.p2align 2,,3
  19              		.global	_ZN16PlantConditionerC2Ev
  20              		.arch armv7e-m
  21              		.syntax unified
  22              		.thumb
  23              		.thumb_func
  24              		.fpu fpv5-d16
  26              	_ZN16PlantConditionerC2Ev:
  27              	.LVL0:
  28              	.LFB4985:
  29              		.file 1 "PSP/PlantConditioner.cpp"
   1:PSP/PlantConditioner.cpp **** #include "PlantConditioner.h"
   2:PSP/PlantConditioner.cpp **** 
   3:PSP/PlantConditioner.cpp **** 
   4:PSP/PlantConditioner.cpp **** using namespace daisysp;
   5:PSP/PlantConditioner.cpp **** 
   6:PSP/PlantConditioner.cpp **** PlantConditioner::PlantConditioner() {}
  30              		.loc 1 6 1 view -0
  31              		.cfi_startproc
  32              		@ args = 0, pretend = 0, frame = 24
  33              		@ frame_needed = 0, uses_anonymous_args = 0
  34              		.loc 1 6 1 is_stmt 0 view .LVU1
  35 0000 2DE9F04F 		push	{r4, r5, r6, r7, r8, r9, r10, fp, lr}
  36              		.cfi_def_cfa_offset 36
  37              		.cfi_offset 4, -36
  38              		.cfi_offset 5, -32
  39              		.cfi_offset 6, -28
  40              		.cfi_offset 7, -24
  41              		.cfi_offset 8, -20
  42              		.cfi_offset 9, -16
  43              		.cfi_offset 10, -12
  44              		.cfi_offset 11, -8
  45              		.cfi_offset 14, -4
  46              	.LBB202:
  47              	.LBB203:
  48              	.LBB204:
  49              	.LBB205:
  50              	.LBB206:
  51              		.file 2 "../libs/libDaisy/src/dev/mpr121.h"
   1:../libs/libDaisy/src/dev/mpr121.h **** #pragma once
ARM GAS  C:\Users\matte\AppData\Local\Temp\ccgZTizB.s 			page 2


   2:../libs/libDaisy/src/dev/mpr121.h **** #ifndef DSY_MPR121_H
   3:../libs/libDaisy/src/dev/mpr121.h **** #define DSY_MPR121_H
   4:../libs/libDaisy/src/dev/mpr121.h **** 
   5:../libs/libDaisy/src/dev/mpr121.h **** // The default I2C address
   6:../libs/libDaisy/src/dev/mpr121.h **** #define MPR121_I2CADDR_DEFAULT 0x5A        ///< default I2C address
   7:../libs/libDaisy/src/dev/mpr121.h **** #define MPR121_TOUCH_THRESHOLD_DEFAULT 12  ///< default touch threshold value
   8:../libs/libDaisy/src/dev/mpr121.h **** #define MPR121_RELEASE_THRESHOLD_DEFAULT 6 ///< default relese threshold value
   9:../libs/libDaisy/src/dev/mpr121.h **** 
  10:../libs/libDaisy/src/dev/mpr121.h **** namespace daisy
  11:../libs/libDaisy/src/dev/mpr121.h **** {
  12:../libs/libDaisy/src/dev/mpr121.h **** /** @addtogroup external 
  13:../libs/libDaisy/src/dev/mpr121.h ****     @{ 
  14:../libs/libDaisy/src/dev/mpr121.h **** */
  15:../libs/libDaisy/src/dev/mpr121.h **** 
  16:../libs/libDaisy/src/dev/mpr121.h **** /** I2C Transport for MPR121 */
  17:../libs/libDaisy/src/dev/mpr121.h **** class Mpr121I2CTransport
  18:../libs/libDaisy/src/dev/mpr121.h **** {
  19:../libs/libDaisy/src/dev/mpr121.h ****   public:
  20:../libs/libDaisy/src/dev/mpr121.h ****     Mpr121I2CTransport() {}
  21:../libs/libDaisy/src/dev/mpr121.h ****     ~Mpr121I2CTransport() {}
  22:../libs/libDaisy/src/dev/mpr121.h **** 
  23:../libs/libDaisy/src/dev/mpr121.h ****     struct Config
  24:../libs/libDaisy/src/dev/mpr121.h ****     {
  25:../libs/libDaisy/src/dev/mpr121.h ****         I2CHandle::Config::Peripheral periph;
  26:../libs/libDaisy/src/dev/mpr121.h ****         I2CHandle::Config::Speed      speed;
  27:../libs/libDaisy/src/dev/mpr121.h ****         Pin                           scl;
  28:../libs/libDaisy/src/dev/mpr121.h ****         Pin                           sda;
  29:../libs/libDaisy/src/dev/mpr121.h **** 
  30:../libs/libDaisy/src/dev/mpr121.h ****         I2CHandle::Config::Mode mode;
  31:../libs/libDaisy/src/dev/mpr121.h **** 
  32:../libs/libDaisy/src/dev/mpr121.h ****         uint8_t dev_addr;
  33:../libs/libDaisy/src/dev/mpr121.h **** 
  34:../libs/libDaisy/src/dev/mpr121.h ****         Config()
  35:../libs/libDaisy/src/dev/mpr121.h ****         {
  36:../libs/libDaisy/src/dev/mpr121.h ****             periph = I2CHandle::Config::Peripheral::I2C_1;
  37:../libs/libDaisy/src/dev/mpr121.h ****             speed  = I2CHandle::Config::Speed::I2C_400KHZ;
  52              		.loc 2 37 20 view .LVU2
  53 0004 0121     		movs	r1, #1
  36:../libs/libDaisy/src/dev/mpr121.h ****             speed  = I2CHandle::Config::Speed::I2C_400KHZ;
  54              		.loc 2 36 20 view .LVU3
  55 0006 0024     		movs	r4, #0
  38:../libs/libDaisy/src/dev/mpr121.h **** 
  39:../libs/libDaisy/src/dev/mpr121.h ****             scl = Pin(PORTB, 8);
  40:../libs/libDaisy/src/dev/mpr121.h ****             sda = Pin(PORTB, 9);
  41:../libs/libDaisy/src/dev/mpr121.h **** 
  42:../libs/libDaisy/src/dev/mpr121.h ****             dev_addr = MPR121_I2CADDR_DEFAULT;
  56              		.loc 2 42 22 view .LVU4
  57 0008 5A23     		movs	r3, #90
  58              	.LBE206:
  59              	.LBE205:
  60              	.LBE204:
  61              	.LBE203:
  62              	.LBE202:
  63              		.loc 1 6 1 view .LVU5
  64 000a 0546     		mov	r5, r0
  65              	.LVL1:
  66              	.LBB275:
ARM GAS  C:\Users\matte\AppData\Local\Temp\ccgZTizB.s 			page 3


  67              	.LBB224:
  68              	.LBI203:
  43:../libs/libDaisy/src/dev/mpr121.h ****         }
  44:../libs/libDaisy/src/dev/mpr121.h ****     };
  45:../libs/libDaisy/src/dev/mpr121.h **** 
  46:../libs/libDaisy/src/dev/mpr121.h ****     /** \return Did the transaction error? i.e. Return true if error, false if ok */
  47:../libs/libDaisy/src/dev/mpr121.h ****     inline bool Init(Config config)
  48:../libs/libDaisy/src/dev/mpr121.h ****     {
  49:../libs/libDaisy/src/dev/mpr121.h ****         config_ = config;
  50:../libs/libDaisy/src/dev/mpr121.h **** 
  51:../libs/libDaisy/src/dev/mpr121.h ****         I2CHandle::Config i2c_conf;
  52:../libs/libDaisy/src/dev/mpr121.h ****         i2c_conf.mode   = I2CHandle::Config::Mode::I2C_MASTER;
  53:../libs/libDaisy/src/dev/mpr121.h ****         i2c_conf.periph = config.periph;
  54:../libs/libDaisy/src/dev/mpr121.h ****         i2c_conf.speed  = config.speed;
  55:../libs/libDaisy/src/dev/mpr121.h **** 
  56:../libs/libDaisy/src/dev/mpr121.h ****         i2c_conf.pin_config.scl = config.scl;
  57:../libs/libDaisy/src/dev/mpr121.h ****         i2c_conf.pin_config.sda = config.sda;
  58:../libs/libDaisy/src/dev/mpr121.h **** 
  59:../libs/libDaisy/src/dev/mpr121.h ****         return I2CHandle::Result::OK != i2c_.Init(i2c_conf);
  60:../libs/libDaisy/src/dev/mpr121.h ****     }
  61:../libs/libDaisy/src/dev/mpr121.h **** 
  62:../libs/libDaisy/src/dev/mpr121.h ****     /** \return Did the transaction error? i.e. Return true if error, false if ok */
  63:../libs/libDaisy/src/dev/mpr121.h ****     bool Write(uint8_t *data, uint16_t size)
  64:../libs/libDaisy/src/dev/mpr121.h ****     {
  65:../libs/libDaisy/src/dev/mpr121.h ****         return I2CHandle::Result::OK
  66:../libs/libDaisy/src/dev/mpr121.h ****                != i2c_.TransmitBlocking(config_.dev_addr, data, size, 10);
  67:../libs/libDaisy/src/dev/mpr121.h ****     }
  68:../libs/libDaisy/src/dev/mpr121.h **** 
  69:../libs/libDaisy/src/dev/mpr121.h ****     /** \return Did the transaction error? i.e. Return true if error, false if ok */
  70:../libs/libDaisy/src/dev/mpr121.h ****     bool Read(uint8_t *data, uint16_t size)
  71:../libs/libDaisy/src/dev/mpr121.h ****     {
  72:../libs/libDaisy/src/dev/mpr121.h ****         return I2CHandle::Result::OK
  73:../libs/libDaisy/src/dev/mpr121.h ****                != i2c_.ReceiveBlocking(config_.dev_addr, data, size, 10);
  74:../libs/libDaisy/src/dev/mpr121.h ****     }
  75:../libs/libDaisy/src/dev/mpr121.h **** 
  76:../libs/libDaisy/src/dev/mpr121.h ****   private:
  77:../libs/libDaisy/src/dev/mpr121.h ****     I2CHandle i2c_;
  78:../libs/libDaisy/src/dev/mpr121.h ****     Config    config_;
  79:../libs/libDaisy/src/dev/mpr121.h **** };
  80:../libs/libDaisy/src/dev/mpr121.h **** 
  81:../libs/libDaisy/src/dev/mpr121.h **** 
  82:../libs/libDaisy/src/dev/mpr121.h **** /** @brief Device support for MPR121 12x Capacitive Touch Sensor
  83:../libs/libDaisy/src/dev/mpr121.h ****     @author beserge
  84:../libs/libDaisy/src/dev/mpr121.h ****     @date December 2021
  85:../libs/libDaisy/src/dev/mpr121.h **** */
  86:../libs/libDaisy/src/dev/mpr121.h **** template <typename Transport>
  87:../libs/libDaisy/src/dev/mpr121.h **** class Mpr121
  88:../libs/libDaisy/src/dev/mpr121.h **** {
  89:../libs/libDaisy/src/dev/mpr121.h ****   public:
  90:../libs/libDaisy/src/dev/mpr121.h ****     Mpr121() {}
  91:../libs/libDaisy/src/dev/mpr121.h ****     ~Mpr121() {}
  92:../libs/libDaisy/src/dev/mpr121.h **** 
  93:../libs/libDaisy/src/dev/mpr121.h ****     struct Config
  94:../libs/libDaisy/src/dev/mpr121.h ****     {
  95:../libs/libDaisy/src/dev/mpr121.h ****         typename Transport::Config transport_config;
  96:../libs/libDaisy/src/dev/mpr121.h ****         uint8_t                    touch_threshold;
  97:../libs/libDaisy/src/dev/mpr121.h ****         uint8_t                    release_threshold;
ARM GAS  C:\Users\matte\AppData\Local\Temp\ccgZTizB.s 			page 4


  98:../libs/libDaisy/src/dev/mpr121.h **** 
  99:../libs/libDaisy/src/dev/mpr121.h ****         Config()
  69              		.loc 2 99 9 is_stmt 1 view .LVU6
  70              	.LBB219:
  71              	.LBB215:
  72              	.LBI205:
  34:../libs/libDaisy/src/dev/mpr121.h ****         {
  73              		.loc 2 34 9 view .LVU7
  74              	.LBB211:
  75              	.LBB207:
  76              	.LBI207:
  77              		.file 3 "../libs/libDaisy/src/daisy_core.h"
   1:../libs/libDaisy/src/daisy_core.h **** #pragma once
   2:../libs/libDaisy/src/daisy_core.h **** #ifndef DSY_CORE_HW_H
   3:../libs/libDaisy/src/daisy_core.h **** #define DSY_CORE_HW_H /**< & */
   4:../libs/libDaisy/src/daisy_core.h **** #include <stdint.h>
   5:../libs/libDaisy/src/daisy_core.h **** #include <stdlib.h>
   6:../libs/libDaisy/src/daisy_core.h **** 
   7:../libs/libDaisy/src/daisy_core.h **** #if defined(_MSC_VER)
   8:../libs/libDaisy/src/daisy_core.h **** #define FORCE_INLINE __forceinline /**< & */
   9:../libs/libDaisy/src/daisy_core.h **** #elif defined(__clang__)
  10:../libs/libDaisy/src/daisy_core.h **** #define FORCE_INLINE inline __attribute__((always_inline)) /**< & */
  11:../libs/libDaisy/src/daisy_core.h **** #pragma clang diagnostic ignored "-Wduplicate-decl-specifier"
  12:../libs/libDaisy/src/daisy_core.h **** #elif defined(__GNUC__)
  13:../libs/libDaisy/src/daisy_core.h **** #define FORCE_INLINE inline __attribute__((always_inline)) /**< & */
  14:../libs/libDaisy/src/daisy_core.h **** #else
  15:../libs/libDaisy/src/daisy_core.h **** #error unknown compiler
  16:../libs/libDaisy/src/daisy_core.h **** #endif
  17:../libs/libDaisy/src/daisy_core.h **** 
  18:../libs/libDaisy/src/daisy_core.h **** /** @addtogroup utility
  19:../libs/libDaisy/src/daisy_core.h ****     @{
  20:../libs/libDaisy/src/daisy_core.h **** */
  21:../libs/libDaisy/src/daisy_core.h **** 
  22:../libs/libDaisy/src/daisy_core.h **** /** Macro for area of memory that is configured as cacheless
  23:../libs/libDaisy/src/daisy_core.h **** This should be used primarily for DMA buffers, and the like.
  24:../libs/libDaisy/src/daisy_core.h **** */
  25:../libs/libDaisy/src/daisy_core.h **** #define DMA_BUFFER_MEM_SECTION __attribute__((section(".sram1_bss")))
  26:../libs/libDaisy/src/daisy_core.h **** /** 
  27:../libs/libDaisy/src/daisy_core.h **** THE DTCM RAM section is also non-cached. However, is not suitable 
  28:../libs/libDaisy/src/daisy_core.h **** for DMA transfers. Performance is on par with internal SRAM w/ 
  29:../libs/libDaisy/src/daisy_core.h **** cache enabled.
  30:../libs/libDaisy/src/daisy_core.h **** */
  31:../libs/libDaisy/src/daisy_core.h **** #define DTCM_MEM_SECTION __attribute__((section(".dtcmram_bss")))
  32:../libs/libDaisy/src/daisy_core.h **** 
  33:../libs/libDaisy/src/daisy_core.h **** #define FBIPMAX 0.999985f             /**< close to 1.0f-LSB at 16 bit */
  34:../libs/libDaisy/src/daisy_core.h **** #define FBIPMIN (-FBIPMAX)            /**< - (1 - LSB) */
  35:../libs/libDaisy/src/daisy_core.h **** #define U82F_SCALE 0.0078740f         /**< 1 / 127 */
  36:../libs/libDaisy/src/daisy_core.h **** #define F2U8_SCALE 127.0f             /**< 128 - 1 */
  37:../libs/libDaisy/src/daisy_core.h **** #define S82F_SCALE 0.0078125f         /**< 1 / (2**7) */
  38:../libs/libDaisy/src/daisy_core.h **** #define F2S8_SCALE 127.0f             /**< (2 ** 7) - 1 */
  39:../libs/libDaisy/src/daisy_core.h **** #define S162F_SCALE 3.0517578125e-05f /**< 1 / (2** 15) */
  40:../libs/libDaisy/src/daisy_core.h **** #define F2S16_SCALE 32767.0f          /**< (2 ** 15) - 1 */
  41:../libs/libDaisy/src/daisy_core.h **** #define F2S24_SCALE 8388608.0f        /**< 2 ** 23 */
  42:../libs/libDaisy/src/daisy_core.h **** #define S242F_SCALE 1.192092896e-07f  /**< 1 / (2 ** 23) */
  43:../libs/libDaisy/src/daisy_core.h **** #define S24SIGN 0x800000              /**< 2 ** 23 */
  44:../libs/libDaisy/src/daisy_core.h **** #define S322F_SCALE 4.6566129e-10f    /**< 1 / (2** 31) */
  45:../libs/libDaisy/src/daisy_core.h **** #define F2S32_SCALE 2147483647.f      /**< (2 ** 31) - 1 */
ARM GAS  C:\Users\matte\AppData\Local\Temp\ccgZTizB.s 			page 5


  46:../libs/libDaisy/src/daisy_core.h **** 
  47:../libs/libDaisy/src/daisy_core.h **** 
  48:../libs/libDaisy/src/daisy_core.h **** /** shorthand macro for simplifying the reading of the left 
  49:../libs/libDaisy/src/daisy_core.h ****  *  channel of a non-interleaved output buffer named out */
  50:../libs/libDaisy/src/daisy_core.h **** #define OUT_L out[0]
  51:../libs/libDaisy/src/daisy_core.h **** 
  52:../libs/libDaisy/src/daisy_core.h **** /** shorthand macro for simplifying the reading of the right 
  53:../libs/libDaisy/src/daisy_core.h ****  *  channel of a non-interleaved output buffer named out */
  54:../libs/libDaisy/src/daisy_core.h **** #define OUT_R out[1]
  55:../libs/libDaisy/src/daisy_core.h **** 
  56:../libs/libDaisy/src/daisy_core.h **** /** shorthand macro for simplifying the reading of the left 
  57:../libs/libDaisy/src/daisy_core.h ****  *  channel of a non-interleaved input buffer named in */
  58:../libs/libDaisy/src/daisy_core.h **** #define IN_L in[0]
  59:../libs/libDaisy/src/daisy_core.h **** 
  60:../libs/libDaisy/src/daisy_core.h **** /** shorthand macro for simplifying the reading of the right 
  61:../libs/libDaisy/src/daisy_core.h ****  *  channel of a non-interleaved input buffer named in */
  62:../libs/libDaisy/src/daisy_core.h **** #define IN_R in[1]
  63:../libs/libDaisy/src/daisy_core.h **** 
  64:../libs/libDaisy/src/daisy_core.h **** /** 
  65:../libs/libDaisy/src/daisy_core.h ****     Computes cube.
  66:../libs/libDaisy/src/daisy_core.h ****     \param x Number to be cubed
  67:../libs/libDaisy/src/daisy_core.h ****     \return x ^ 3
  68:../libs/libDaisy/src/daisy_core.h **** */
  69:../libs/libDaisy/src/daisy_core.h **** FORCE_INLINE float cube(float x)
  70:../libs/libDaisy/src/daisy_core.h **** {
  71:../libs/libDaisy/src/daisy_core.h ****     return (x * x) * x;
  72:../libs/libDaisy/src/daisy_core.h **** }
  73:../libs/libDaisy/src/daisy_core.h **** 
  74:../libs/libDaisy/src/daisy_core.h **** /** 
  75:../libs/libDaisy/src/daisy_core.h ****     Converts unsigned 8-bit to float
  76:../libs/libDaisy/src/daisy_core.h ****     \param x Number to be scaled.
  77:../libs/libDaisy/src/daisy_core.h ****     \return Scaled number.
  78:../libs/libDaisy/src/daisy_core.h **** */
  79:../libs/libDaisy/src/daisy_core.h **** FORCE_INLINE float u82f(uint8_t x)
  80:../libs/libDaisy/src/daisy_core.h **** {
  81:../libs/libDaisy/src/daisy_core.h ****     return ((float)x - 127.f) * U82F_SCALE;
  82:../libs/libDaisy/src/daisy_core.h **** }
  83:../libs/libDaisy/src/daisy_core.h **** 
  84:../libs/libDaisy/src/daisy_core.h **** /**
  85:../libs/libDaisy/src/daisy_core.h ****     Converts float to unsigned 8-bit
  86:../libs/libDaisy/src/daisy_core.h **** */
  87:../libs/libDaisy/src/daisy_core.h **** FORCE_INLINE uint8_t f2u8(float x)
  88:../libs/libDaisy/src/daisy_core.h **** {
  89:../libs/libDaisy/src/daisy_core.h ****     x = x <= FBIPMIN ? FBIPMIN : x;
  90:../libs/libDaisy/src/daisy_core.h ****     x = x >= FBIPMAX ? FBIPMAX : x;
  91:../libs/libDaisy/src/daisy_core.h ****     return (uint8_t)((x * F2U8_SCALE) + F2U8_SCALE);
  92:../libs/libDaisy/src/daisy_core.h **** }
  93:../libs/libDaisy/src/daisy_core.h **** 
  94:../libs/libDaisy/src/daisy_core.h **** 
  95:../libs/libDaisy/src/daisy_core.h **** /** 
  96:../libs/libDaisy/src/daisy_core.h ****     Converts Signed 8-bit to float
  97:../libs/libDaisy/src/daisy_core.h ****     \param x Number to be scaled.
  98:../libs/libDaisy/src/daisy_core.h ****     \return Scaled number.
  99:../libs/libDaisy/src/daisy_core.h **** */
 100:../libs/libDaisy/src/daisy_core.h **** FORCE_INLINE float s82f(int8_t x)
 101:../libs/libDaisy/src/daisy_core.h **** {
 102:../libs/libDaisy/src/daisy_core.h ****     return (float)x * S82F_SCALE;
ARM GAS  C:\Users\matte\AppData\Local\Temp\ccgZTizB.s 			page 6


 103:../libs/libDaisy/src/daisy_core.h **** }
 104:../libs/libDaisy/src/daisy_core.h **** 
 105:../libs/libDaisy/src/daisy_core.h **** /**
 106:../libs/libDaisy/src/daisy_core.h ****     Converts float to Signed 8-bit
 107:../libs/libDaisy/src/daisy_core.h **** */
 108:../libs/libDaisy/src/daisy_core.h **** FORCE_INLINE int8_t f2s8(float x)
 109:../libs/libDaisy/src/daisy_core.h **** {
 110:../libs/libDaisy/src/daisy_core.h ****     x = x <= FBIPMIN ? FBIPMIN : x;
 111:../libs/libDaisy/src/daisy_core.h ****     x = x >= FBIPMAX ? FBIPMAX : x;
 112:../libs/libDaisy/src/daisy_core.h ****     return (int32_t)(x * F2S8_SCALE);
 113:../libs/libDaisy/src/daisy_core.h **** }
 114:../libs/libDaisy/src/daisy_core.h **** 
 115:../libs/libDaisy/src/daisy_core.h **** /** 
 116:../libs/libDaisy/src/daisy_core.h ****     Converts Signed 16-bit to float
 117:../libs/libDaisy/src/daisy_core.h ****     \param x Number to be scaled.
 118:../libs/libDaisy/src/daisy_core.h ****     \return Scaled number.
 119:../libs/libDaisy/src/daisy_core.h **** */
 120:../libs/libDaisy/src/daisy_core.h **** FORCE_INLINE float s162f(int16_t x)
 121:../libs/libDaisy/src/daisy_core.h **** {
 122:../libs/libDaisy/src/daisy_core.h ****     return (float)x * S162F_SCALE;
 123:../libs/libDaisy/src/daisy_core.h **** }
 124:../libs/libDaisy/src/daisy_core.h **** 
 125:../libs/libDaisy/src/daisy_core.h **** /**
 126:../libs/libDaisy/src/daisy_core.h ****     Converts float to Signed 16-bit
 127:../libs/libDaisy/src/daisy_core.h **** */
 128:../libs/libDaisy/src/daisy_core.h **** FORCE_INLINE int16_t f2s16(float x)
 129:../libs/libDaisy/src/daisy_core.h **** {
 130:../libs/libDaisy/src/daisy_core.h ****     x = x <= FBIPMIN ? FBIPMIN : x;
 131:../libs/libDaisy/src/daisy_core.h ****     x = x >= FBIPMAX ? FBIPMAX : x;
 132:../libs/libDaisy/src/daisy_core.h ****     return (int32_t)(x * F2S16_SCALE);
 133:../libs/libDaisy/src/daisy_core.h **** }
 134:../libs/libDaisy/src/daisy_core.h **** 
 135:../libs/libDaisy/src/daisy_core.h **** /**
 136:../libs/libDaisy/src/daisy_core.h ****     Converts Signed 24-bit to float
 137:../libs/libDaisy/src/daisy_core.h ****  */
 138:../libs/libDaisy/src/daisy_core.h **** FORCE_INLINE float s242f(int32_t x)
 139:../libs/libDaisy/src/daisy_core.h **** {
 140:../libs/libDaisy/src/daisy_core.h ****     x = (x ^ S24SIGN) - S24SIGN; //sign extend aka ((x<<8)>>8)
 141:../libs/libDaisy/src/daisy_core.h ****     return (float)x * S242F_SCALE;
 142:../libs/libDaisy/src/daisy_core.h **** }
 143:../libs/libDaisy/src/daisy_core.h **** /**
 144:../libs/libDaisy/src/daisy_core.h ****     Converts float to Signed 24-bit
 145:../libs/libDaisy/src/daisy_core.h ****  */
 146:../libs/libDaisy/src/daisy_core.h **** FORCE_INLINE int32_t f2s24(float x)
 147:../libs/libDaisy/src/daisy_core.h **** {
 148:../libs/libDaisy/src/daisy_core.h ****     x = x <= FBIPMIN ? FBIPMIN : x;
 149:../libs/libDaisy/src/daisy_core.h ****     x = x >= FBIPMAX ? FBIPMAX : x;
 150:../libs/libDaisy/src/daisy_core.h ****     return (int32_t)(x * F2S24_SCALE);
 151:../libs/libDaisy/src/daisy_core.h **** }
 152:../libs/libDaisy/src/daisy_core.h **** 
 153:../libs/libDaisy/src/daisy_core.h **** /**
 154:../libs/libDaisy/src/daisy_core.h ****     Converts Signed 32-bit to float
 155:../libs/libDaisy/src/daisy_core.h ****  */
 156:../libs/libDaisy/src/daisy_core.h **** FORCE_INLINE float s322f(int32_t x)
 157:../libs/libDaisy/src/daisy_core.h **** {
 158:../libs/libDaisy/src/daisy_core.h ****     return (float)x * S322F_SCALE;
 159:../libs/libDaisy/src/daisy_core.h **** }
ARM GAS  C:\Users\matte\AppData\Local\Temp\ccgZTizB.s 			page 7


 160:../libs/libDaisy/src/daisy_core.h **** /**
 161:../libs/libDaisy/src/daisy_core.h ****     Converts float to Signed 24-bit
 162:../libs/libDaisy/src/daisy_core.h ****  */
 163:../libs/libDaisy/src/daisy_core.h **** FORCE_INLINE int32_t f2s32(float x)
 164:../libs/libDaisy/src/daisy_core.h **** {
 165:../libs/libDaisy/src/daisy_core.h ****     x = x <= FBIPMIN ? FBIPMIN : x;
 166:../libs/libDaisy/src/daisy_core.h ****     x = x >= FBIPMAX ? FBIPMAX : x;
 167:../libs/libDaisy/src/daisy_core.h ****     return (int32_t)(x * F2S32_SCALE);
 168:../libs/libDaisy/src/daisy_core.h **** }
 169:../libs/libDaisy/src/daisy_core.h **** 
 170:../libs/libDaisy/src/daisy_core.h **** #ifdef __cplusplus
 171:../libs/libDaisy/src/daisy_core.h **** 
 172:../libs/libDaisy/src/daisy_core.h **** namespace daisy
 173:../libs/libDaisy/src/daisy_core.h **** {
 174:../libs/libDaisy/src/daisy_core.h **** /** @brief GPIO Port names */
 175:../libs/libDaisy/src/daisy_core.h **** enum GPIOPort
 176:../libs/libDaisy/src/daisy_core.h **** {
 177:../libs/libDaisy/src/daisy_core.h ****     PORTA, /**< Port A */
 178:../libs/libDaisy/src/daisy_core.h ****     PORTB, /**< Port B */
 179:../libs/libDaisy/src/daisy_core.h ****     PORTC, /**< Port C */
 180:../libs/libDaisy/src/daisy_core.h ****     PORTD, /**< Port D */
 181:../libs/libDaisy/src/daisy_core.h ****     PORTE, /**< Port E */
 182:../libs/libDaisy/src/daisy_core.h ****     PORTF, /**< Port F */
 183:../libs/libDaisy/src/daisy_core.h ****     PORTG, /**< Port G */
 184:../libs/libDaisy/src/daisy_core.h ****     PORTH, /**< Port H */
 185:../libs/libDaisy/src/daisy_core.h ****     PORTI, /**< Port I */
 186:../libs/libDaisy/src/daisy_core.h ****     PORTJ, /**< Port J */
 187:../libs/libDaisy/src/daisy_core.h ****     PORTK, /**< Port K */
 188:../libs/libDaisy/src/daisy_core.h ****     PORTX, /**< Used as a dummy port to signal an invalid pin. */
 189:../libs/libDaisy/src/daisy_core.h **** };
 190:../libs/libDaisy/src/daisy_core.h **** 
 191:../libs/libDaisy/src/daisy_core.h **** /** @brief representation of hardware port/pin combination */
 192:../libs/libDaisy/src/daisy_core.h **** struct Pin
 193:../libs/libDaisy/src/daisy_core.h **** {
 194:../libs/libDaisy/src/daisy_core.h ****     GPIOPort port;
 195:../libs/libDaisy/src/daisy_core.h ****     uint8_t  pin;
 196:../libs/libDaisy/src/daisy_core.h **** 
 197:../libs/libDaisy/src/daisy_core.h ****     /** @brief Constructor creates a valid pin. 
 198:../libs/libDaisy/src/daisy_core.h ****      *  @param pt GPIOPort between PA, and PK corresponding to STM32 Port.
 199:../libs/libDaisy/src/daisy_core.h ****      *  @param pn pin number in range of 0-15
 200:../libs/libDaisy/src/daisy_core.h ****     */
 201:../libs/libDaisy/src/daisy_core.h ****     constexpr Pin(const GPIOPort pt, const uint8_t pn) : port(pt), pin(pn) {}
 202:../libs/libDaisy/src/daisy_core.h **** 
 203:../libs/libDaisy/src/daisy_core.h ****     /** @brief Basic Constructor creates an invalid Pin object */
 204:../libs/libDaisy/src/daisy_core.h ****     constexpr Pin() : port(PORTX), pin(255) {}
  78              		.loc 3 204 15 view .LVU8
  79              		.loc 3 204 15 is_stmt 0 view .LVU9
  80              	.LBE207:
  81              	.LBB208:
  82              	.LBI208:
  83              		.loc 3 204 15 is_stmt 1 view .LVU10
  84              		.loc 3 204 15 is_stmt 0 view .LVU11
  85              	.LBE208:
  36:../libs/libDaisy/src/dev/mpr121.h ****             speed  = I2CHandle::Config::Speed::I2C_400KHZ;
  86              		.loc 2 36 13 is_stmt 1 view .LVU12
  37:../libs/libDaisy/src/dev/mpr121.h **** 
  87              		.loc 2 37 13 view .LVU13
ARM GAS  C:\Users\matte\AppData\Local\Temp\ccgZTizB.s 			page 8


  39:../libs/libDaisy/src/dev/mpr121.h ****             sda = Pin(PORTB, 9);
  88              		.loc 2 39 13 view .LVU14
  89              	.LBB209:
  90              	.LBI209:
 201:../libs/libDaisy/src/daisy_core.h **** 
  91              		.loc 3 201 15 view .LVU15
 201:../libs/libDaisy/src/daisy_core.h **** 
  92              		.loc 3 201 15 is_stmt 0 view .LVU16
  93              	.LBE209:
  40:../libs/libDaisy/src/dev/mpr121.h **** 
  94              		.loc 2 40 13 is_stmt 1 view .LVU17
  95              	.LBB210:
  96              	.LBI210:
 201:../libs/libDaisy/src/daisy_core.h **** 
  97              		.loc 3 201 15 view .LVU18
 201:../libs/libDaisy/src/daisy_core.h **** 
  98              		.loc 3 201 15 is_stmt 0 view .LVU19
  99              	.LBE210:
  39:../libs/libDaisy/src/dev/mpr121.h ****             sda = Pin(PORTB, 9);
 100              		.loc 2 39 17 view .LVU20
 101 000c 504A     		ldr	r2, .L4
 102              	.LBE211:
 103              	.LBE215:
 104              	.LBE219:
 105              	.LBE224:
 106              	.LBE275:
 107              		.loc 1 6 1 view .LVU21
 108 000e 87B0     		sub	sp, sp, #28
 109              		.cfi_def_cfa_offset 64
 110              	.LBB276:
 111              	.LBB225:
 112              	.LBB220:
 113              	.LBB216:
 114              	.LBB212:
  42:../libs/libDaisy/src/dev/mpr121.h ****         }
 115              		.loc 2 42 22 view .LVU22
 116 0010 0375     		strb	r3, [r0, #20]
 117              	.LBE212:
 118              	.LBE216:
 119              	.LBE220:
 120              	.LBE225:
 121              		.loc 1 6 36 view .LVU23
 122 0012 05F5B078 		add	r8, r5, #352
 123              	.LBB226:
 124              	.LBB227:
 125              	.LBB228:
 126              	.LBB229:
  37:../libs/libDaisy/src/dev/mpr121.h **** 
 127              		.loc 2 37 20 view .LVU24
 128 0016 C163     		str	r1, [r0, #60]
 129              	.LBE229:
 130              	.LBE228:
 131              	.LBE227:
 132              	.LBE226:
 133              		.loc 1 6 36 view .LVU25
 134 0018 05F5DA7A 		add	r10, r5, #436
 135              	.LBB267:
ARM GAS  C:\Users\matte\AppData\Local\Temp\ccgZTizB.s 			page 9


 136              	.LBB243:
 137              	.LBB244:
 138              	.LBB245:
 139              	.LBB246:
  42:../libs/libDaisy/src/dev/mpr121.h ****         }
 140              		.loc 2 42 22 view .LVU26
 141 001c 80F82C30 		strb	r3, [r0, #44]
 142              	.LBE246:
 143              	.LBE245:
 144              	.LBE244:
 145              	.LBE243:
 146              	.LBB260:
 147              	.LBB238:
 148              	.LBB234:
 149 0020 80F84830 		strb	r3, [r0, #72]
 150              	.LBE234:
 151              	.LBE238:
 152              	.LBE260:
 153              	.LBE267:
 154              	.LBB268:
 155              	.LBB221:
 100:../libs/libDaisy/src/dev/mpr121.h ****         {
 101:../libs/libDaisy/src/dev/mpr121.h ****             touch_threshold   = MPR121_TOUCH_THRESHOLD_DEFAULT;
 156              		.loc 2 101 31 view .LVU27
 157 0024 40F20C63 		movw	r3, #1548
 158              	.LBB217:
 159              	.LBB213:
  39:../libs/libDaisy/src/dev/mpr121.h ****             sda = Pin(PORTB, 9);
 160              		.loc 2 39 17 view .LVU28
 161 0028 C260     		str	r2, [r0, #12]
  42:../libs/libDaisy/src/dev/mpr121.h ****         }
 162              		.loc 2 42 13 is_stmt 1 view .LVU29
 163              	.LVL2:
  42:../libs/libDaisy/src/dev/mpr121.h ****         }
 164              		.loc 2 42 13 is_stmt 0 view .LVU30
 165              	.LBE213:
 166              	.LBE217:
 167              	.LBE221:
 168              	.LBE268:
 169              	.LBB269:
 170              	.LBB261:
 171              	.LBB257:
 172              	.LBB254:
 173              	.LBB251:
  39:../libs/libDaisy/src/dev/mpr121.h ****             sda = Pin(PORTB, 9);
 174              		.loc 2 39 17 view .LVU31
 175 002a 4262     		str	r2, [r0, #36]
 176              	.LBE251:
 177              	.LBE254:
 178              	.LBE257:
 179              	.LBE261:
 180              	.LBB262:
 181              	.LBB239:
 182              	.LBB235:
 183 002c 0264     		str	r2, [r0, #64]
 184              	.LBE235:
 185              	.LBE239:
ARM GAS  C:\Users\matte\AppData\Local\Temp\ccgZTizB.s 			page 10


 186              	.LBE262:
 187              	.LBE269:
 188              	.LBB270:
 189              	.LBB222:
 190              	.LBB218:
 191              	.LBB214:
  37:../libs/libDaisy/src/dev/mpr121.h **** 
 192              		.loc 2 37 20 view .LVU32
 193 002e C0E90141 		strd	r4, r1, [r0, #4]
 194              	.LBE214:
 195              	.LBE218:
 196              	.LBE222:
 197              	.LBE270:
 198              	.LBB271:
 199              	.LBB263:
 200              	.LBB258:
 201              	.LBB255:
 202              	.LBB252:
 203 0032 C0E90741 		strd	r4, r1, [r0, #28]
 204              	.LBE252:
 205              	.LBE255:
 206              	.LBE258:
 207              	.LBE263:
 208              	.LBE271:
 209              		.loc 1 6 36 view .LVU33
 210 0036 0C21     		movs	r1, #12
 211              	.LBB272:
 212              	.LBB264:
 213              	.LBB240:
 214              	.LBB236:
  36:../libs/libDaisy/src/dev/mpr121.h ****             speed  = I2CHandle::Config::Speed::I2C_400KHZ;
 215              		.loc 2 36 20 view .LVU34
 216 0038 C0E90D44 		strd	r4, r4, [r0, #52]
 217              	.LBE236:
 218              	.LBE240:
 219              	.LBE264:
 220              	.LBE272:
 221              		.loc 1 6 36 view .LVU35
 222 003c 85F85010 		strb	r1, [r5, #80]
 223 0040 5430     		adds	r0, r0, #84
 224              	.LVL3:
 225              	.LBB273:
 226              	.LBB223:
 227              		.loc 2 101 31 view .LVU36
 228 0042 2B83     		strh	r3, [r5, #24]	@ movhi
 229              	.LVL4:
 230              		.loc 2 101 31 view .LVU37
 231              	.LBE223:
 232              	.LBE273:
 233              	.LBB274:
 234              	.LBI226:
  90:../libs/libDaisy/src/dev/mpr121.h ****     ~Mpr121() {}
 235              		.loc 2 90 5 is_stmt 1 view .LVU38
 236              	.LBB265:
 237              	.LBI243:
  99:../libs/libDaisy/src/dev/mpr121.h ****         {
 238              		.loc 2 99 9 view .LVU39
ARM GAS  C:\Users\matte\AppData\Local\Temp\ccgZTizB.s 			page 11


 239              	.LBB259:
 240              	.LBB256:
 241              	.LBI245:
  34:../libs/libDaisy/src/dev/mpr121.h ****         {
 242              		.loc 2 34 9 view .LVU40
 243              	.LBB253:
 244              	.LBB247:
 245              	.LBI247:
 246              		.loc 3 204 15 view .LVU41
 247              		.loc 3 204 15 is_stmt 0 view .LVU42
 248              	.LBE247:
 249              	.LBB248:
 250              	.LBI248:
 251              		.loc 3 204 15 is_stmt 1 view .LVU43
 252              		.loc 3 204 15 is_stmt 0 view .LVU44
 253              	.LBE248:
  36:../libs/libDaisy/src/dev/mpr121.h ****             speed  = I2CHandle::Config::Speed::I2C_400KHZ;
 254              		.loc 2 36 13 is_stmt 1 view .LVU45
  37:../libs/libDaisy/src/dev/mpr121.h **** 
 255              		.loc 2 37 13 view .LVU46
  39:../libs/libDaisy/src/dev/mpr121.h ****             sda = Pin(PORTB, 9);
 256              		.loc 2 39 13 view .LVU47
 257              	.LBB249:
 258              	.LBI249:
 201:../libs/libDaisy/src/daisy_core.h **** 
 259              		.loc 3 201 15 view .LVU48
 201:../libs/libDaisy/src/daisy_core.h **** 
 260              		.loc 3 201 15 is_stmt 0 view .LVU49
 261              	.LBE249:
  40:../libs/libDaisy/src/dev/mpr121.h **** 
 262              		.loc 2 40 13 is_stmt 1 view .LVU50
 263              	.LBB250:
 264              	.LBI250:
 201:../libs/libDaisy/src/daisy_core.h **** 
 265              		.loc 3 201 15 view .LVU51
 201:../libs/libDaisy/src/daisy_core.h **** 
 266              		.loc 3 201 15 is_stmt 0 view .LVU52
 267              	.LBE250:
  42:../libs/libDaisy/src/dev/mpr121.h ****         }
 268              		.loc 2 42 13 is_stmt 1 view .LVU53
  42:../libs/libDaisy/src/dev/mpr121.h ****         }
 269              		.loc 2 42 13 is_stmt 0 view .LVU54
 270              	.LBE253:
 271              	.LBE256:
 272              		.loc 2 101 31 view .LVU55
 273 0044 2B86     		strh	r3, [r5, #48]	@ movhi
 274              	.LVL5:
 275              		.loc 2 101 31 view .LVU56
 276              	.LBE259:
 277              	.LBE265:
 278              	.LBB266:
 279              	.LBI227:
  20:../libs/libDaisy/src/dev/mpr121.h ****     ~Mpr121I2CTransport() {}
 280              		.loc 2 20 5 is_stmt 1 view .LVU57
 281              	.LBB241:
 282              	.LBI241:
 283              		.file 4 "../libs/libDaisy/src/per/i2c.h"
ARM GAS  C:\Users\matte\AppData\Local\Temp\ccgZTizB.s 			page 12


   1:../libs/libDaisy/src/per/i2c.h **** #pragma once
   2:../libs/libDaisy/src/per/i2c.h **** #include "util/hal_map.h"
   3:../libs/libDaisy/src/per/i2c.h **** #include "daisy_core.h"
   4:../libs/libDaisy/src/per/i2c.h **** 
   5:../libs/libDaisy/src/per/i2c.h **** namespace daisy
   6:../libs/libDaisy/src/per/i2c.h **** {
   7:../libs/libDaisy/src/per/i2c.h **** /** A handle for interacting with an I2C peripheral. This is a dumb
   8:../libs/libDaisy/src/per/i2c.h ****  *  gateway that internally points to one of the four I2C peripherals
   9:../libs/libDaisy/src/per/i2c.h ****  *  after it was initialised. It can then be copied and passed around.
  10:../libs/libDaisy/src/per/i2c.h ****  *  Use an I2CHandle like this:
  11:../libs/libDaisy/src/per/i2c.h ****  *  
  12:../libs/libDaisy/src/per/i2c.h ****  *      // setup the configuration
  13:../libs/libDaisy/src/per/i2c.h ****  *      I2CHandle::Config i2c_conf;
  14:../libs/libDaisy/src/per/i2c.h ****  *      i2c_conf.periph = I2CHandle::Config::Peripheral::I2C_1;
  15:../libs/libDaisy/src/per/i2c.h ****  *      i2c_conf.speed  = I2CHandle::Config::Speed::I2C_400KHZ;
  16:../libs/libDaisy/src/per/i2c.h ****  *      i2c_conf.mode   = I2CHandle::Config::Mode::Master;
  17:../libs/libDaisy/src/per/i2c.h ****  *      i2c_conf.pin_config.scl  = {DSY_GPIOB, 8};
  18:../libs/libDaisy/src/per/i2c.h ****  *      i2c_conf.pin_config.sda  = {DSY_GPIOB, 9};
  19:../libs/libDaisy/src/per/i2c.h ****  *      // initialise the peripheral
  20:../libs/libDaisy/src/per/i2c.h ****  *      I2CHandle i2c;
  21:../libs/libDaisy/src/per/i2c.h ****  *      i2c.Init(i2c_conf);
  22:../libs/libDaisy/src/per/i2c.h ****  *      // now i2c points to the corresponding peripheral and can be used.
  23:../libs/libDaisy/src/per/i2c.h ****  *      i2c.TransmitBlocking( ... );
  24:../libs/libDaisy/src/per/i2c.h ****  */
  25:../libs/libDaisy/src/per/i2c.h **** class I2CHandle
  26:../libs/libDaisy/src/per/i2c.h **** {
  27:../libs/libDaisy/src/per/i2c.h ****   public:
  28:../libs/libDaisy/src/per/i2c.h ****     /** Contains settings for initialising an I2C interface. */
  29:../libs/libDaisy/src/per/i2c.h ****     struct Config
  30:../libs/libDaisy/src/per/i2c.h ****     {
  31:../libs/libDaisy/src/per/i2c.h ****         /** Specifies whether the interface will operate in master or slave mode. */
  32:../libs/libDaisy/src/per/i2c.h ****         enum class Mode
  33:../libs/libDaisy/src/per/i2c.h ****         {
  34:../libs/libDaisy/src/per/i2c.h ****             I2C_MASTER,
  35:../libs/libDaisy/src/per/i2c.h ****             I2C_SLAVE,
  36:../libs/libDaisy/src/per/i2c.h ****         };
  37:../libs/libDaisy/src/per/i2c.h **** 
  38:../libs/libDaisy/src/per/i2c.h ****         /** Specifices the internal peripheral to use (these are mapped to different pins on the ha
  39:../libs/libDaisy/src/per/i2c.h ****         enum class Peripheral
  40:../libs/libDaisy/src/per/i2c.h ****         {
  41:../libs/libDaisy/src/per/i2c.h ****             I2C_1 = 0, /**< & */
  42:../libs/libDaisy/src/per/i2c.h ****             I2C_2,     /**< & */
  43:../libs/libDaisy/src/per/i2c.h ****             I2C_3,     /**< & */
  44:../libs/libDaisy/src/per/i2c.h ****             I2C_4,     /**< & */
  45:../libs/libDaisy/src/per/i2c.h ****         };
  46:../libs/libDaisy/src/per/i2c.h **** 
  47:../libs/libDaisy/src/per/i2c.h ****         /** Rate at which the clock/data will be sent/received. The device being used will have max
  48:../libs/libDaisy/src/per/i2c.h ****          *  1MHZ Mode is currently 886kHz
  49:../libs/libDaisy/src/per/i2c.h ****          */
  50:../libs/libDaisy/src/per/i2c.h ****         enum class Speed
  51:../libs/libDaisy/src/per/i2c.h ****         {
  52:../libs/libDaisy/src/per/i2c.h ****             I2C_100KHZ, /**< & */
  53:../libs/libDaisy/src/per/i2c.h ****             I2C_400KHZ, /**< & */
  54:../libs/libDaisy/src/per/i2c.h ****             I2C_1MHZ,   /**< & */
  55:../libs/libDaisy/src/per/i2c.h ****         };
  56:../libs/libDaisy/src/per/i2c.h **** 
  57:../libs/libDaisy/src/per/i2c.h ****         Peripheral periph; /**< & */
ARM GAS  C:\Users\matte\AppData\Local\Temp\ccgZTizB.s 			page 13


  58:../libs/libDaisy/src/per/i2c.h ****         struct
  59:../libs/libDaisy/src/per/i2c.h ****         {
  60:../libs/libDaisy/src/per/i2c.h ****             Pin scl;  /**< & */
  61:../libs/libDaisy/src/per/i2c.h ****             Pin sda;  /**< & */
  62:../libs/libDaisy/src/per/i2c.h ****         } pin_config; /**< & */
  63:../libs/libDaisy/src/per/i2c.h **** 
  64:../libs/libDaisy/src/per/i2c.h ****         Speed speed; /**< & */
  65:../libs/libDaisy/src/per/i2c.h ****         Mode  mode;  /**< & */
  66:../libs/libDaisy/src/per/i2c.h ****         // 0x10 is chosen as a default to avoid conflicts with reserved addresses
  67:../libs/libDaisy/src/per/i2c.h ****         uint8_t address = 0x10; /**< & */
  68:../libs/libDaisy/src/per/i2c.h ****     };
  69:../libs/libDaisy/src/per/i2c.h **** 
  70:../libs/libDaisy/src/per/i2c.h ****     /** Return values for I2C functions. */
  71:../libs/libDaisy/src/per/i2c.h ****     enum class Result
  72:../libs/libDaisy/src/per/i2c.h ****     {
  73:../libs/libDaisy/src/per/i2c.h ****         OK, /**< & */
  74:../libs/libDaisy/src/per/i2c.h ****         ERR /**< & */
  75:../libs/libDaisy/src/per/i2c.h ****     };
  76:../libs/libDaisy/src/per/i2c.h **** 
  77:../libs/libDaisy/src/per/i2c.h ****     enum class Direction
  78:../libs/libDaisy/src/per/i2c.h ****     {
  79:../libs/libDaisy/src/per/i2c.h ****         TRANSMIT, /**< & */
  80:../libs/libDaisy/src/per/i2c.h ****         RECEIVE,  /**< & */
  81:../libs/libDaisy/src/per/i2c.h ****     };
  82:../libs/libDaisy/src/per/i2c.h **** 
  83:../libs/libDaisy/src/per/i2c.h ****     I2CHandle() : pimpl_(nullptr) {}
 284              		.loc 4 83 5 view .LVU58
 285              		.loc 4 83 5 is_stmt 0 view .LVU59
 286              	.LBE241:
 287              	.LBB242:
 288              	.LBI228:
  34:../libs/libDaisy/src/dev/mpr121.h ****         {
 289              		.loc 2 34 9 is_stmt 1 view .LVU60
 290              	.LBB237:
 291              	.LBB230:
 292              	.LBI230:
 293              		.loc 3 204 15 view .LVU61
 294              		.loc 3 204 15 is_stmt 0 view .LVU62
 295              	.LBE230:
 296              	.LBB231:
 297              	.LBI231:
 298              		.loc 3 204 15 is_stmt 1 view .LVU63
 299              		.loc 3 204 15 is_stmt 0 view .LVU64
 300              	.LBE231:
  36:../libs/libDaisy/src/dev/mpr121.h ****             speed  = I2CHandle::Config::Speed::I2C_400KHZ;
 301              		.loc 2 36 13 is_stmt 1 view .LVU65
  37:../libs/libDaisy/src/dev/mpr121.h **** 
 302              		.loc 2 37 13 view .LVU66
  39:../libs/libDaisy/src/dev/mpr121.h ****             sda = Pin(PORTB, 9);
 303              		.loc 2 39 13 view .LVU67
 304              	.LBB232:
 305              	.LBI232:
 201:../libs/libDaisy/src/daisy_core.h **** 
 306              		.loc 3 201 15 view .LVU68
 201:../libs/libDaisy/src/daisy_core.h **** 
 307              		.loc 3 201 15 is_stmt 0 view .LVU69
 308              	.LBE232:
ARM GAS  C:\Users\matte\AppData\Local\Temp\ccgZTizB.s 			page 14


  40:../libs/libDaisy/src/dev/mpr121.h **** 
 309              		.loc 2 40 13 is_stmt 1 view .LVU70
 310              	.LBB233:
 311              	.LBI233:
 201:../libs/libDaisy/src/daisy_core.h **** 
 312              		.loc 3 201 15 view .LVU71
 201:../libs/libDaisy/src/daisy_core.h **** 
 313              		.loc 3 201 15 is_stmt 0 view .LVU72
 314              	.LBE233:
  42:../libs/libDaisy/src/dev/mpr121.h ****         }
 315              		.loc 2 42 13 is_stmt 1 view .LVU73
  42:../libs/libDaisy/src/dev/mpr121.h ****         }
 316              		.loc 2 42 13 is_stmt 0 view .LVU74
 317              	.LBE237:
 318              	.LBE242:
 319              	.LBE266:
 320              	.LBE274:
 321              		.loc 1 6 36 view .LVU75
 322 0046 FFF7FEFF 		bl	_ZN3IIRC1Ev
 323              	.LVL6:
 324 004a 05F19C00 		add	r0, r5, #156
 325 004e FFF7FEFF 		bl	_ZN2MFC1Ev
 326              	.LVL7:
 327 0052 4FF08040 		mov	r0, #1073741824
 328 0056 4FF07E52 		mov	r2, #1065353216
 329 005a 0023     		movs	r3, #0
 330 005c C5F8C000 		str	r0, [r5, #192]	@ float
 331 0060 4FF0FF30 		mov	r0, #-1
 332 0064 C5F8C420 		str	r2, [r5, #196]	@ float
 333 0068 05F5E47C 		add	ip, r5, #456
 334 006c 394A     		ldr	r2, .L4+4
 335 006e 3A49     		ldr	r1, .L4+8
 336 0070 C5F8B800 		str	r0, [r5, #184]
 337 0074 40F20470 		movw	r0, #1796
 338 0078 85F8B440 		strb	r4, [r5, #180]
 339 007c 0C46     		mov	r4, r1
 340 007e C5F8BC30 		str	r3, [r5, #188]	@ float
 341 0082 05F5A271 		add	r1, r5, #324
 342 0086 C5F8CC30 		str	r3, [r5, #204]	@ float
 343 008a 04F11C09 		add	r9, r4, #28
 344 008e C5F8D830 		str	r3, [r5, #216]	@ float
 345 0092 0E46     		mov	r6, r1
 346 0094 C5F8D020 		str	r2, [r5, #208]	@ float
 347 0098 04F13807 		add	r7, r4, #56
 348 009c C5F8D420 		str	r2, [r5, #212]	@ float
 349 00a0 05F5CC72 		add	r2, r5, #408
 350 00a4 C5F8DC30 		str	r3, [r5, #220]	@ float
 351 00a8 05F5BE73 		add	r3, r5, #380
 352 00ac A5F8C800 		strh	r0, [r5, #200]	@ movhi
 353 00b0 04F1B400 		add	r0, r4, #180
 354 00b4 0193     		str	r3, [sp, #4]
 355 00b6 04F15403 		add	r3, r4, #84
 356 00ba 0292     		str	r2, [sp, #8]
 357 00bc 05F5FC72 		add	r2, r5, #504
 358 00c0 0393     		str	r3, [sp, #12]
 359 00c2 04F1700B 		add	fp, r4, #112
 360 00c6 0590     		str	r0, [sp, #20]
ARM GAS  C:\Users\matte\AppData\Local\Temp\ccgZTizB.s 			page 15


 361 00c8 04F1840E 		add	lr, r4, #132
 362 00cc 0492     		str	r2, [sp, #16]
 363 00ce 0FCC     		ldmia	r4!, {r0, r1, r2, r3}
 364 00d0 0FC6     		stmia	r6!, {r0, r1, r2, r3}
 365 00d2 94E80700 		ldm	r4, {r0, r1, r2}
 366 00d6 86E80700 		stm	r6, {r0, r1, r2}
 367 00da B9E80F00 		ldmia	r9!, {r0, r1, r2, r3}
 368 00de A8E80F00 		stmia	r8!, {r0, r1, r2, r3}
 369 00e2 99E80700 		ldm	r9, {r0, r1, r2}
 370 00e6 019C     		ldr	r4, [sp, #4]
 371 00e8 88E80700 		stm	r8, {r0, r1, r2}
 372 00ec 0FCF     		ldmia	r7!, {r0, r1, r2, r3}
 373 00ee 0FC4     		stmia	r4!, {r0, r1, r2, r3}
 374 00f0 039B     		ldr	r3, [sp, #12]
 375 00f2 97E80700 		ldm	r7, {r0, r1, r2}
 376 00f6 1E46     		mov	r6, r3
 377 00f8 84E80700 		stm	r4, {r0, r1, r2}
 378 00fc 0FCE     		ldmia	r6!, {r0, r1, r2, r3}
 379 00fe 029C     		ldr	r4, [sp, #8]
 380 0100 2746     		mov	r7, r4
 381 0102 0FC7     		stmia	r7!, {r0, r1, r2, r3}
 382 0104 96E80700 		ldm	r6, {r0, r1, r2}
 383 0108 87E80700 		stm	r7, {r0, r1, r2}
 384 010c BBE80F00 		ldmia	fp!, {r0, r1, r2, r3}
 385 0110 AAE80F00 		stmia	r10!, {r0, r1, r2, r3}
 386 0114 DBF80030 		ldr	r3, [fp]
 387 0118 CAF80030 		str	r3, [r10]
 388 011c BEE80F00 		ldmia	lr!, {r0, r1, r2, r3}
 389 0120 ACE80F00 		stmia	ip!, {r0, r1, r2, r3}
 390 0124 BEE80F00 		ldmia	lr!, {r0, r1, r2, r3}
 391 0128 ACE80F00 		stmia	ip!, {r0, r1, r2, r3}
 392 012c 9EE80F00 		ldm	lr, {r0, r1, r2, r3}
 393 0130 8CE80F00 		stm	ip, {r0, r1, r2, r3}
 394 0134 0598     		ldr	r0, [sp, #20]
 395 0136 049C     		ldr	r4, [sp, #16]
 396 0138 0646     		mov	r6, r0
 397 013a 0FCE     		ldmia	r6!, {r0, r1, r2, r3}
 398 013c 0FC4     		stmia	r4!, {r0, r1, r2, r3}
 399 013e 96E80300 		ldm	r6, {r0, r1}
 400 0142 84E80300 		stm	r4, {r0, r1}
 401              	.LBE276:
 402              		.loc 1 6 39 view .LVU76
 403 0146 2846     		mov	r0, r5
 404 0148 07B0     		add	sp, sp, #28
 405              		.cfi_def_cfa_offset 36
 406              		@ sp needed
 407 014a BDE8F08F 		pop	{r4, r5, r6, r7, r8, r9, r10, fp, pc}
 408              	.LVL8:
 409              	.L5:
 410              		.loc 1 6 39 view .LVU77
 411 014e 00BF     		.align	2
 412              	.L4:
 413 0150 01080109 		.word	151062529
 414 0154 00004842 		.word	1112014848
 415 0158 00000000 		.word	.LANCHOR0
 416              		.cfi_endproc
 417              	.LFE4985:
ARM GAS  C:\Users\matte\AppData\Local\Temp\ccgZTizB.s 			page 16


 419              		.global	_ZN16PlantConditionerC1Ev
 420              		.thumb_set _ZN16PlantConditionerC1Ev,_ZN16PlantConditionerC2Ev
 421              		.section	.text._ZN16PlantConditionerD2Ev,"ax",%progbits
 422              		.align	1
 423              		.p2align 2,,3
 424              		.global	_ZN16PlantConditionerD2Ev
 425              		.syntax unified
 426              		.thumb
 427              		.thumb_func
 428              		.fpu fpv5-d16
 430              	_ZN16PlantConditionerD2Ev:
 431              	.LVL9:
 432              	.LFB4988:
   7:PSP/PlantConditioner.cpp **** PlantConditioner::~PlantConditioner() {}
 433              		.loc 1 7 1 is_stmt 1 view -0
 434              		.cfi_startproc
 435              		@ args = 0, pretend = 0, frame = 0
 436              		@ frame_needed = 0, uses_anonymous_args = 0
 437              		.loc 1 7 1 is_stmt 0 view .LVU79
 438 0000 10B5     		push	{r4, lr}
 439              		.cfi_def_cfa_offset 8
 440              		.cfi_offset 4, -8
 441              		.cfi_offset 14, -4
 442              		.loc 1 7 1 view .LVU80
 443 0002 0446     		mov	r4, r0
 444              	.LBB277:
 445              		.loc 1 7 37 view .LVU81
 446 0004 9C30     		adds	r0, r0, #156
 447              	.LVL10:
 448              		.loc 1 7 37 view .LVU82
 449 0006 FFF7FEFF 		bl	_ZN2MFD1Ev
 450              	.LVL11:
 451 000a 04F15400 		add	r0, r4, #84
 452 000e FFF7FEFF 		bl	_ZN3IIRD1Ev
 453              	.LVL12:
 454              	.LBB278:
 455              	.LBI278:
  91:../libs/libDaisy/src/dev/mpr121.h **** 
 456              		.loc 2 91 5 is_stmt 1 view .LVU83
 457              	.LBB279:
 458              	.LBI279:
  21:../libs/libDaisy/src/dev/mpr121.h **** 
 459              		.loc 2 21 5 view .LVU84
  21:../libs/libDaisy/src/dev/mpr121.h **** 
 460              		.loc 2 21 5 is_stmt 0 view .LVU85
 461              	.LBE279:
 462              	.LBE278:
 463              	.LBE277:
 464              		.loc 1 7 40 view .LVU86
 465 0012 2046     		mov	r0, r4
 466 0014 10BD     		pop	{r4, pc}
 467              		.loc 1 7 40 view .LVU87
 468              		.cfi_endproc
 469              	.LFE4988:
 471              		.global	_ZN16PlantConditionerD1Ev
 472              		.thumb_set _ZN16PlantConditionerD1Ev,_ZN16PlantConditionerD2Ev
 473 0016 00BF     		.section	.text._ZN16PlantConditioner4InitEN3IIR10FilterTypeEPN5daisy9DaisySeedE,"ax",%progbits
ARM GAS  C:\Users\matte\AppData\Local\Temp\ccgZTizB.s 			page 17


 474              		.align	1
 475              		.p2align 2,,3
 476              		.global	_ZN16PlantConditioner4InitEN3IIR10FilterTypeEPN5daisy9DaisySeedE
 477              		.syntax unified
 478              		.thumb
 479              		.thumb_func
 480              		.fpu fpv5-d16
 482              	_ZN16PlantConditioner4InitEN3IIR10FilterTypeEPN5daisy9DaisySeedE:
 483              	.LVL13:
 484              	.LFB4990:
   8:PSP/PlantConditioner.cpp **** 
   9:PSP/PlantConditioner.cpp **** void PlantConditioner::Init(IIR::FilterType filter_type, daisy::DaisySeed* hw) {
 485              		.loc 1 9 80 is_stmt 1 view -0
 486              		.cfi_startproc
 487              		@ args = 0, pretend = 0, frame = 72
 488              		@ frame_needed = 0, uses_anonymous_args = 0
  10:PSP/PlantConditioner.cpp ****     
  11:PSP/PlantConditioner.cpp ****     _hw = hw;
 489              		.loc 1 11 5 view .LVU89
   9:PSP/PlantConditioner.cpp ****     
 490              		.loc 1 9 80 is_stmt 0 view .LVU90
 491 0000 2DE9F04F 		push	{r4, r5, r6, r7, r8, r9, r10, fp, lr}
 492              		.cfi_def_cfa_offset 36
 493              		.cfi_offset 4, -36
 494              		.cfi_offset 5, -32
 495              		.cfi_offset 6, -28
 496              		.cfi_offset 7, -24
 497              		.cfi_offset 8, -20
 498              		.cfi_offset 9, -16
 499              		.cfi_offset 10, -12
 500              		.cfi_offset 11, -8
 501              		.cfi_offset 14, -4
 502 0004 0446     		mov	r4, r0
 503 0006 95B0     		sub	sp, sp, #84
 504              		.cfi_def_cfa_offset 120
  12:PSP/PlantConditioner.cpp **** 
  13:PSP/PlantConditioner.cpp ****     _mpr121ObjConf.transport_config.speed = daisy::I2CHandle::Config::Speed::I2C_400KHZ;
 505              		.loc 1 13 43 view .LVU91
 506 0008 4FF00108 		mov	r8, #1
  11:PSP/PlantConditioner.cpp **** 
 507              		.loc 1 11 9 view .LVU92
 508 000c 0260     		str	r2, [r0]
 509              		.loc 1 13 5 is_stmt 1 view .LVU93
  14:PSP/PlantConditioner.cpp ****     if (_cap.Init(_mpr121ObjConf) != daisy::Mpr121I2C::Result::OK)
 510              		.loc 1 14 5 view .LVU94
 511              	.LVL14:
   9:PSP/PlantConditioner.cpp ****     
 512              		.loc 1 9 80 is_stmt 0 view .LVU95
 513 000e 0391     		str	r1, [sp, #12]
 514 0010 0EAD     		add	r5, sp, #56
  13:PSP/PlantConditioner.cpp ****     if (_cap.Init(_mpr121ObjConf) != daisy::Mpr121I2C::Result::OK)
 515              		.loc 1 13 43 view .LVU96
 516 0012 C0F80880 		str	r8, [r0, #8]
 517              	.LBB716:
 518              	.LBB717:
 102:../libs/libDaisy/src/dev/mpr121.h ****             release_threshold = MPR121_RELEASE_THRESHOLD_DEFAULT;
 103:../libs/libDaisy/src/dev/mpr121.h ****         }
ARM GAS  C:\Users\matte\AppData\Local\Temp\ccgZTizB.s 			page 18


 104:../libs/libDaisy/src/dev/mpr121.h ****     };
 105:../libs/libDaisy/src/dev/mpr121.h **** 
 106:../libs/libDaisy/src/dev/mpr121.h ****     enum Result
 107:../libs/libDaisy/src/dev/mpr121.h ****     {
 108:../libs/libDaisy/src/dev/mpr121.h ****         OK = 0,
 109:../libs/libDaisy/src/dev/mpr121.h ****         ERR
 110:../libs/libDaisy/src/dev/mpr121.h ****     };
 111:../libs/libDaisy/src/dev/mpr121.h **** 
 112:../libs/libDaisy/src/dev/mpr121.h ****     /** Initialize the MPR121 device
 113:../libs/libDaisy/src/dev/mpr121.h ****         \param config Configuration settings
 114:../libs/libDaisy/src/dev/mpr121.h ****     */
 115:../libs/libDaisy/src/dev/mpr121.h ****     Result Init(Config config)
 116:../libs/libDaisy/src/dev/mpr121.h ****     {
 117:../libs/libDaisy/src/dev/mpr121.h ****         config_ = config;
 519              		.loc 2 117 9 view .LVU97
 520 0016 0DF1380B 		add	fp, sp, #56
 521 001a 4068     		ldr	r0, [r0, #4]	@ unaligned
 522              	.LVL15:
 523              		.loc 2 117 9 view .LVU98
 524 001c 04F11C0E 		add	lr, r4, #28
 525              	.LVL16:
 526              		.loc 2 117 9 view .LVU99
 527 0020 A168     		ldr	r1, [r4, #8]	@ unaligned
 528              	.LVL17:
 529              		.loc 2 117 9 view .LVU100
 530 0022 0DF1100C 		add	ip, sp, #16
 531 0026 E268     		ldr	r2, [r4, #12]	@ unaligned
 532              	.LVL18:
 533              	.LBB718:
 534              	.LBB719:
 535              	.LBB720:
 536              	.LBB721:
  66:../libs/libDaisy/src/dev/mpr121.h ****     }
 537              		.loc 2 66 40 view .LVU101
 538 0028 0A27     		movs	r7, #10
 539 002a 2369     		ldr	r3, [r4, #16]	@ unaligned
 540              	.LBE721:
 541              	.LBE720:
 542              	.LBE719:
 543              	.LBE718:
 544              	.LBB803:
 545              	.LBB804:
  49:../libs/libDaisy/src/dev/mpr121.h **** 
 546              		.loc 2 49 17 view .LVU102
 547 002c E246     		mov	r10, ip
 548              	.LBE804:
 549              	.LBE803:
 550              	.LBB817:
 551              	.LBB796:
 118:../libs/libDaisy/src/dev/mpr121.h **** 
 119:../libs/libDaisy/src/dev/mpr121.h ****         SetTransportErr(transport_.Init(config_.transport_config));
 120:../libs/libDaisy/src/dev/mpr121.h **** 
 121:../libs/libDaisy/src/dev/mpr121.h ****         // soft reset
 122:../libs/libDaisy/src/dev/mpr121.h ****         WriteRegister(MPR121_SOFTRESET, 0x63);
 123:../libs/libDaisy/src/dev/mpr121.h ****         System::Delay(1);
 124:../libs/libDaisy/src/dev/mpr121.h **** 
 125:../libs/libDaisy/src/dev/mpr121.h ****         WriteRegister(MPR121_ECR, 0x0);
ARM GAS  C:\Users\matte\AppData\Local\Temp\ccgZTizB.s 			page 19


 126:../libs/libDaisy/src/dev/mpr121.h **** 
 127:../libs/libDaisy/src/dev/mpr121.h ****         // this doesn't work for some reason...
 128:../libs/libDaisy/src/dev/mpr121.h ****         // uint8_t c = ReadRegister8(MPR121_CONFIG2);
 129:../libs/libDaisy/src/dev/mpr121.h **** 
 130:../libs/libDaisy/src/dev/mpr121.h ****         // if(c != 0x24)
 131:../libs/libDaisy/src/dev/mpr121.h ****         //     return ERR;
 132:../libs/libDaisy/src/dev/mpr121.h **** 
 133:../libs/libDaisy/src/dev/mpr121.h ****         SetThresholds(config_.touch_threshold, config_.release_threshold);
 134:../libs/libDaisy/src/dev/mpr121.h ****         WriteRegister(MPR121_MHDR, 0x01);
 135:../libs/libDaisy/src/dev/mpr121.h ****         WriteRegister(MPR121_NHDR, 0x01);
 136:../libs/libDaisy/src/dev/mpr121.h ****         WriteRegister(MPR121_NCLR, 0x0E);
 137:../libs/libDaisy/src/dev/mpr121.h ****         WriteRegister(MPR121_FDLR, 0x00);
 138:../libs/libDaisy/src/dev/mpr121.h **** 
 139:../libs/libDaisy/src/dev/mpr121.h ****         WriteRegister(MPR121_MHDF, 0x01);
 140:../libs/libDaisy/src/dev/mpr121.h ****         WriteRegister(MPR121_NHDF, 0x05);
 141:../libs/libDaisy/src/dev/mpr121.h ****         WriteRegister(MPR121_NCLF, 0x01);
 142:../libs/libDaisy/src/dev/mpr121.h ****         WriteRegister(MPR121_FDLF, 0x00);
 143:../libs/libDaisy/src/dev/mpr121.h **** 
 144:../libs/libDaisy/src/dev/mpr121.h ****         WriteRegister(MPR121_NHDT, 0x00);
 145:../libs/libDaisy/src/dev/mpr121.h ****         WriteRegister(MPR121_NCLT, 0x00);
 146:../libs/libDaisy/src/dev/mpr121.h ****         WriteRegister(MPR121_FDLT, 0x00);
 147:../libs/libDaisy/src/dev/mpr121.h **** 
 148:../libs/libDaisy/src/dev/mpr121.h ****         WriteRegister(MPR121_DEBOUNCE, 0);
 149:../libs/libDaisy/src/dev/mpr121.h ****         WriteRegister(MPR121_CONFIG1, 0x10); // default, 16uA charge current
 150:../libs/libDaisy/src/dev/mpr121.h ****         WriteRegister(MPR121_CONFIG2, 0x20); // 0.5uS encoding, 1ms period
 151:../libs/libDaisy/src/dev/mpr121.h **** 
 152:../libs/libDaisy/src/dev/mpr121.h ****         // autoconfig
 153:../libs/libDaisy/src/dev/mpr121.h ****         // WriteRegister(MPR121_AUTOCONFIG0, 0x0B);
 154:../libs/libDaisy/src/dev/mpr121.h **** 
 155:../libs/libDaisy/src/dev/mpr121.h ****         // correct values for Vdd = 3.3V
 156:../libs/libDaisy/src/dev/mpr121.h ****         // WriteRegister(MPR121_UPLIMIT, 200);     // ((Vdd - 0.7)/Vdd) * 256
 157:../libs/libDaisy/src/dev/mpr121.h ****         // WriteRegister(MPR121_TARGETLIMIT, 180); // UPLIMIT * 0.9
 158:../libs/libDaisy/src/dev/mpr121.h ****         // WriteRegister(MPR121_LOWLIMIT, 130);    // UPLIMIT * 0.65
 159:../libs/libDaisy/src/dev/mpr121.h ****         // autoconfig
 160:../libs/libDaisy/src/dev/mpr121.h **** 
 161:../libs/libDaisy/src/dev/mpr121.h ****         // enable X electrodes and start MPR121
 162:../libs/libDaisy/src/dev/mpr121.h ****         uint8_t ECR_SETTING
 163:../libs/libDaisy/src/dev/mpr121.h ****             = 0x80
 164:../libs/libDaisy/src/dev/mpr121.h ****               + 12; // 5 bits for baseline tracking & proximity disabled + X
 165:../libs/libDaisy/src/dev/mpr121.h ****                     // amount of electrodes running (12)
 166:../libs/libDaisy/src/dev/mpr121.h ****         WriteRegister(MPR121_ECR,
 167:../libs/libDaisy/src/dev/mpr121.h ****                       ECR_SETTING); // start with above ECR setting
 168:../libs/libDaisy/src/dev/mpr121.h **** 
 169:../libs/libDaisy/src/dev/mpr121.h ****         return GetTransportErr();
 170:../libs/libDaisy/src/dev/mpr121.h ****     }
 171:../libs/libDaisy/src/dev/mpr121.h **** 
 172:../libs/libDaisy/src/dev/mpr121.h ****     /** Set the touch and release thresholds for all 13 channels on the
 173:../libs/libDaisy/src/dev/mpr121.h ****         device to the passed values.
 174:../libs/libDaisy/src/dev/mpr121.h ****         \param      touch The touch threshold value from 0 to 255.
 175:../libs/libDaisy/src/dev/mpr121.h ****         \param      release The release threshold from 0 to 255.
 176:../libs/libDaisy/src/dev/mpr121.h ****     */
 177:../libs/libDaisy/src/dev/mpr121.h ****     void SetThresholds(uint8_t touch, uint8_t release)
 178:../libs/libDaisy/src/dev/mpr121.h ****     {
 179:../libs/libDaisy/src/dev/mpr121.h ****         // set all thresholds (the same)
 180:../libs/libDaisy/src/dev/mpr121.h ****         for(uint8_t i = 0; i < 12; i++)
 181:../libs/libDaisy/src/dev/mpr121.h ****         {
 182:../libs/libDaisy/src/dev/mpr121.h ****             WriteRegister(MPR121_TOUCHTH_0 + 2 * i, touch);
ARM GAS  C:\Users\matte\AppData\Local\Temp\ccgZTizB.s 			page 20


 183:../libs/libDaisy/src/dev/mpr121.h ****             WriteRegister(MPR121_RELEASETH_0 + 2 * i, release);
 184:../libs/libDaisy/src/dev/mpr121.h ****         }
 185:../libs/libDaisy/src/dev/mpr121.h ****     }
 186:../libs/libDaisy/src/dev/mpr121.h **** 
 187:../libs/libDaisy/src/dev/mpr121.h **** 
 188:../libs/libDaisy/src/dev/mpr121.h ****     /** Read the filtered data from channel t. The ADC raw data outputs
 189:../libs/libDaisy/src/dev/mpr121.h ****         run through 3 levels of digital filtering to filter out the high
 190:../libs/libDaisy/src/dev/mpr121.h ****         frequency and low frequency noise encountered. For detailed information on
 191:../libs/libDaisy/src/dev/mpr121.h ****         this filtering see page 6 of the device datasheet.
 192:../libs/libDaisy/src/dev/mpr121.h ****         \param      t the channel to read
 193:../libs/libDaisy/src/dev/mpr121.h ****         \returns    the filtered reading as a 10 bit unsigned value
 194:../libs/libDaisy/src/dev/mpr121.h ****     */
 195:../libs/libDaisy/src/dev/mpr121.h ****     uint16_t FilteredData(uint8_t t)
 196:../libs/libDaisy/src/dev/mpr121.h ****     {
 197:../libs/libDaisy/src/dev/mpr121.h ****         if(t > 12)
 198:../libs/libDaisy/src/dev/mpr121.h ****             return 0;
 199:../libs/libDaisy/src/dev/mpr121.h ****         return ReadRegister16(MPR121_FILTDATA_0L + t * 2);
 200:../libs/libDaisy/src/dev/mpr121.h ****     }
 201:../libs/libDaisy/src/dev/mpr121.h **** 
 202:../libs/libDaisy/src/dev/mpr121.h ****     /** Read the baseline value for the channel. The 3rd level filtered
 203:../libs/libDaisy/src/dev/mpr121.h ****         result is internally 10bit but only high 8 bits are readable
 204:../libs/libDaisy/src/dev/mpr121.h ****         from registers 0x1E~0x2A as the baseline value output for each channel.
 205:../libs/libDaisy/src/dev/mpr121.h ****         \param      t the channel to read.
 206:../libs/libDaisy/src/dev/mpr121.h ****         \returns    the baseline data that was read
 207:../libs/libDaisy/src/dev/mpr121.h ****     */
 208:../libs/libDaisy/src/dev/mpr121.h ****     uint16_t BaselineData(uint8_t t)
 209:../libs/libDaisy/src/dev/mpr121.h ****     {
 210:../libs/libDaisy/src/dev/mpr121.h ****         if(t > 12)
 211:../libs/libDaisy/src/dev/mpr121.h ****             return 0;
 212:../libs/libDaisy/src/dev/mpr121.h ****         uint16_t bl = ReadRegister8(MPR121_BASELINE_0 + t);
 213:../libs/libDaisy/src/dev/mpr121.h ****         return (bl << 2);
 214:../libs/libDaisy/src/dev/mpr121.h ****     }
 215:../libs/libDaisy/src/dev/mpr121.h **** 
 216:../libs/libDaisy/src/dev/mpr121.h ****     /** Read the touch status of all 13 channels as bit values in a 12 bit integer.
 217:../libs/libDaisy/src/dev/mpr121.h ****         \returns    a 12 bit integer with each bit corresponding to the touch status
 218:../libs/libDaisy/src/dev/mpr121.h ****         of a sensor. For example, if bit 0 is set then channel 0 of the
 219:../libs/libDaisy/src/dev/mpr121.h ****         device is currently deemed to be touched.
 220:../libs/libDaisy/src/dev/mpr121.h ****     */
 221:../libs/libDaisy/src/dev/mpr121.h ****     uint16_t Touched()
 222:../libs/libDaisy/src/dev/mpr121.h ****     {
 223:../libs/libDaisy/src/dev/mpr121.h ****         uint16_t t = ReadRegister16(MPR121_TOUCHSTATUS_L);
 224:../libs/libDaisy/src/dev/mpr121.h ****         return t & 0x0FFF;
 225:../libs/libDaisy/src/dev/mpr121.h ****     }
 226:../libs/libDaisy/src/dev/mpr121.h **** 
 227:../libs/libDaisy/src/dev/mpr121.h ****     /** Read the contents of an 8 bit device register.
 228:../libs/libDaisy/src/dev/mpr121.h ****         \param      reg the register address to read from
 229:../libs/libDaisy/src/dev/mpr121.h ****         \returns    the 8 bit value that was read.
 230:../libs/libDaisy/src/dev/mpr121.h ****     */
 231:../libs/libDaisy/src/dev/mpr121.h ****     uint8_t ReadRegister8(uint8_t reg)
 232:../libs/libDaisy/src/dev/mpr121.h ****     {
 233:../libs/libDaisy/src/dev/mpr121.h ****         uint8_t buff;
 234:../libs/libDaisy/src/dev/mpr121.h ****         SetTransportErr(transport_.Write(&reg, 1));
 235:../libs/libDaisy/src/dev/mpr121.h ****         SetTransportErr(transport_.Read(&buff, 1));
 236:../libs/libDaisy/src/dev/mpr121.h **** 
 237:../libs/libDaisy/src/dev/mpr121.h ****         return buff;
 238:../libs/libDaisy/src/dev/mpr121.h ****     }
 239:../libs/libDaisy/src/dev/mpr121.h **** 
ARM GAS  C:\Users\matte\AppData\Local\Temp\ccgZTizB.s 			page 21


 240:../libs/libDaisy/src/dev/mpr121.h ****     /** Read the contents of a 16 bit device register.
 241:../libs/libDaisy/src/dev/mpr121.h ****         \param      reg the register address to read from
 242:../libs/libDaisy/src/dev/mpr121.h ****         \returns    the 16 bit value that was read.
 243:../libs/libDaisy/src/dev/mpr121.h ****     */
 244:../libs/libDaisy/src/dev/mpr121.h ****     uint16_t ReadRegister16(uint8_t reg)
 245:../libs/libDaisy/src/dev/mpr121.h ****     {
 246:../libs/libDaisy/src/dev/mpr121.h ****         uint16_t buff;
 247:../libs/libDaisy/src/dev/mpr121.h ****         SetTransportErr(transport_.Write(&reg, 1));
 248:../libs/libDaisy/src/dev/mpr121.h ****         SetTransportErr(transport_.Read((uint8_t *)&buff, 2));
 249:../libs/libDaisy/src/dev/mpr121.h **** 
 250:../libs/libDaisy/src/dev/mpr121.h ****         return buff;
 251:../libs/libDaisy/src/dev/mpr121.h ****     }
 252:../libs/libDaisy/src/dev/mpr121.h **** 
 253:../libs/libDaisy/src/dev/mpr121.h ****     /** Writes 8-bits to the specified destination register
 254:../libs/libDaisy/src/dev/mpr121.h ****         \param  reg the register address to write to
 255:../libs/libDaisy/src/dev/mpr121.h ****         \param  value the value to write
 256:../libs/libDaisy/src/dev/mpr121.h ****     */
 257:../libs/libDaisy/src/dev/mpr121.h ****     void WriteRegister(uint8_t reg, uint8_t value)
 258:../libs/libDaisy/src/dev/mpr121.h ****     {
 259:../libs/libDaisy/src/dev/mpr121.h ****         // MPR121 must be put in Stop Mode to write to most registers
 260:../libs/libDaisy/src/dev/mpr121.h ****         bool stop_required = true;
 261:../libs/libDaisy/src/dev/mpr121.h **** 
 262:../libs/libDaisy/src/dev/mpr121.h ****         // first get the current set value of the MPR121_ECR register
 263:../libs/libDaisy/src/dev/mpr121.h ****         uint8_t ecr_reg = MPR121_ECR;
 264:../libs/libDaisy/src/dev/mpr121.h ****         uint8_t buff[2] = {ecr_reg, 0x00};
 552              		.loc 2 264 17 view .LVU103
 553 002e 4FF05E09 		mov	r9, #94
 554              	.LBE796:
 555              	.LBE817:
 133:../libs/libDaisy/src/dev/mpr121.h ****         WriteRegister(MPR121_MHDR, 0x01);
 556              		.loc 2 133 22 view .LVU104
 557 0032 4126     		movs	r6, #65
 558 0034 0FC5     		stmia	r5!, {r0, r1, r2, r3}
 559 0036 238B     		ldrh	r3, [r4, #24]	@ unaligned
 560 0038 6069     		ldr	r0, [r4, #20]	@ unaligned
 561 003a AB80     		strh	r3, [r5, #4]	@ unaligned
 562              	.LBE717:
 563              	.LBI716:
 115:../libs/libDaisy/src/dev/mpr121.h ****     {
 564              		.loc 2 115 12 is_stmt 1 view .LVU105
 565              	.LBB2368:
 117:../libs/libDaisy/src/dev/mpr121.h **** 
 566              		.loc 2 117 9 is_stmt 0 view .LVU106
 567 003c AB88     		ldrh	r3, [r5, #4]	@ unaligned
 568 003e 2860     		str	r0, [r5]
 119:../libs/libDaisy/src/dev/mpr121.h **** 
 569              		.loc 2 119 24 view .LVU107
 570 0040 04F13405 		add	r5, r4, #52
 571              	.LVL19:
 117:../libs/libDaisy/src/dev/mpr121.h **** 
 572              		.loc 2 117 9 view .LVU108
 573 0044 E062     		str	r0, [r4, #44]	@ unaligned
 574 0046 2386     		strh	r3, [r4, #48]	@ unaligned
 575 0048 BBE80F00 		ldmia	fp!, {r0, r1, r2, r3}
 576 004c E061     		str	r0, [r4, #28]	@ unaligned
 577 004e 2162     		str	r1, [r4, #32]	@ unaligned
 578 0050 6262     		str	r2, [r4, #36]	@ unaligned
ARM GAS  C:\Users\matte\AppData\Local\Temp\ccgZTizB.s 			page 22


 579 0052 A362     		str	r3, [r4, #40]	@ unaligned
 580 0054 BEE80F00 		ldmia	lr!, {r0, r1, r2, r3}
 581              	.LVL20:
 117:../libs/libDaisy/src/dev/mpr121.h **** 
 582              		.loc 2 117 9 view .LVU109
 583 0058 ACE80F00 		stmia	ip!, {r0, r1, r2, r3}
 584              	.LBB818:
 585              	.LBB814:
 586              	.LBB805:
 587              	.LBB806:
  29:../libs/libDaisy/src/per/i2c.h ****     {
 588              		.loc 4 29 12 view .LVU110
 589 005c 4FF01003 		mov	r3, #16
 590              	.LBE806:
 591              	.LBE805:
  53:../libs/libDaisy/src/dev/mpr121.h ****         i2c_conf.speed  = config.speed;
 592              		.loc 2 53 25 view .LVU111
 593 0060 0990     		str	r0, [sp, #36]
 594              	.LBB812:
 595              	.LBB810:
  29:../libs/libDaisy/src/per/i2c.h ****     {
 596              		.loc 4 29 12 view .LVU112
 597 0062 8DF83430 		strb	r3, [sp, #52]
 598 0066 DEF80030 		ldr	r3, [lr]
 599 006a CCF80030 		str	r3, [ip]
 600              	.LBE810:
 601              	.LBE812:
  49:../libs/libDaisy/src/dev/mpr121.h **** 
 602              		.loc 2 49 17 view .LVU113
 603 006e 84F84830 		strb	r3, [r4, #72]
  52:../libs/libDaisy/src/dev/mpr121.h ****         i2c_conf.periph = config.periph;
 604              		.loc 2 52 25 view .LVU114
 605 0072 0023     		movs	r3, #0
  49:../libs/libDaisy/src/dev/mpr121.h **** 
 606              		.loc 2 49 17 view .LVU115
 607 0074 0490     		str	r0, [sp, #16]
  54:../libs/libDaisy/src/dev/mpr121.h **** 
 608              		.loc 2 54 25 view .LVU116
 609 0076 CDE90B83 		strd	r8, r3, [sp, #44]
 610              	.LVL21:
  54:../libs/libDaisy/src/dev/mpr121.h **** 
 611              		.loc 2 54 25 view .LVU117
 612              	.LBE814:
 613              	.LBI803:
  47:../libs/libDaisy/src/dev/mpr121.h ****     {
 614              		.loc 2 47 17 is_stmt 1 view .LVU118
 615              	.LBB815:
  49:../libs/libDaisy/src/dev/mpr121.h **** 
 616              		.loc 2 49 9 view .LVU119
  51:../libs/libDaisy/src/dev/mpr121.h ****         i2c_conf.mode   = I2CHandle::Config::Mode::I2C_MASTER;
 617              		.loc 2 51 9 view .LVU120
 618              	.LBB813:
 619              	.LBI805:
  29:../libs/libDaisy/src/per/i2c.h ****     {
 620              		.loc 4 29 12 view .LVU121
 621              	.LBB811:
 622              	.LBB807:
ARM GAS  C:\Users\matte\AppData\Local\Temp\ccgZTizB.s 			page 23


 623              	.LBI807:
  59:../libs/libDaisy/src/per/i2c.h ****             Pin scl;  /**< & */
 624              		.loc 4 59 9 view .LVU122
 625              	.LBB808:
 626              	.LBI808:
 627              		.loc 3 204 15 view .LVU123
 628              		.loc 3 204 15 is_stmt 0 view .LVU124
 629              	.LBE808:
 630              	.LBB809:
 631              	.LBI809:
 632              		.loc 3 204 15 is_stmt 1 view .LVU125
 633              		.loc 3 204 15 is_stmt 0 view .LVU126
 634              	.LBE809:
 635              	.LBE807:
 636              	.LBE811:
 637              	.LBE813:
  52:../libs/libDaisy/src/dev/mpr121.h ****         i2c_conf.periph = config.periph;
 638              		.loc 2 52 9 is_stmt 1 view .LVU127
  53:../libs/libDaisy/src/dev/mpr121.h ****         i2c_conf.speed  = config.speed;
 639              		.loc 2 53 9 view .LVU128
  54:../libs/libDaisy/src/dev/mpr121.h **** 
 640              		.loc 2 54 9 view .LVU129
  56:../libs/libDaisy/src/dev/mpr121.h ****         i2c_conf.pin_config.sda = config.sda;
 641              		.loc 2 56 9 view .LVU130
  56:../libs/libDaisy/src/dev/mpr121.h ****         i2c_conf.pin_config.sda = config.sda;
 642              		.loc 2 56 33 is_stmt 0 view .LVU131
 643 007a BDF81830 		ldrh	r3, [sp, #24]
 644 007e ADF82830 		strh	r3, [sp, #40]	@ movhi
  57:../libs/libDaisy/src/dev/mpr121.h **** 
 645              		.loc 2 57 9 is_stmt 1 view .LVU132
  57:../libs/libDaisy/src/dev/mpr121.h **** 
 646              		.loc 2 57 33 is_stmt 0 view .LVU133
 647 0082 BDF81A30 		ldrh	r3, [sp, #26]
 648 0086 ADF82A30 		strh	r3, [sp, #42]	@ movhi
  59:../libs/libDaisy/src/dev/mpr121.h ****     }
 649              		.loc 2 59 9 is_stmt 1 view .LVU134
  49:../libs/libDaisy/src/dev/mpr121.h **** 
 650              		.loc 2 49 17 is_stmt 0 view .LVU135
 651 008a BAE80F00 		ldmia	r10!, {r0, r1, r2, r3}
  49:../libs/libDaisy/src/dev/mpr121.h **** 
 652              		.loc 2 49 17 view .LVU136
 653 008e A063     		str	r0, [r4, #56]	@ unaligned
  59:../libs/libDaisy/src/dev/mpr121.h ****     }
 654              		.loc 2 59 50 view .LVU137
 655 0090 2846     		mov	r0, r5
 656              	.LVL22:
  49:../libs/libDaisy/src/dev/mpr121.h **** 
 657              		.loc 2 49 17 view .LVU138
 658 0092 E163     		str	r1, [r4, #60]	@ unaligned
  59:../libs/libDaisy/src/dev/mpr121.h ****     }
 659              		.loc 2 59 50 view .LVU139
 660 0094 09A9     		add	r1, sp, #36
  49:../libs/libDaisy/src/dev/mpr121.h **** 
 661              		.loc 2 49 17 view .LVU140
 662 0096 2264     		str	r2, [r4, #64]	@ unaligned
 663              	.LBE815:
 664              	.LBE818:
ARM GAS  C:\Users\matte\AppData\Local\Temp\ccgZTizB.s 			page 24


 665              	.LBB819:
 666              	.LBB797:
 667              		.loc 2 264 17 view .LVU141
 668 0098 4FF0000A 		mov	r10, #0
 669              	.LBE797:
 670              	.LBE819:
 671              	.LBB820:
 672              	.LBB816:
  49:../libs/libDaisy/src/dev/mpr121.h **** 
 673              		.loc 2 49 17 view .LVU142
 674 009c 6364     		str	r3, [r4, #68]	@ unaligned
  59:../libs/libDaisy/src/dev/mpr121.h ****     }
 675              		.loc 2 59 50 view .LVU143
 676 009e FFF7FEFF 		bl	_ZN5daisy9I2CHandle4InitERKNS0_6ConfigE
 677              	.LVL23:
  59:../libs/libDaisy/src/dev/mpr121.h ****     }
 678              		.loc 2 59 50 view .LVU144
 679              	.LBE816:
 680              	.LBE820:
 681              	.LBB821:
 682              	.LBI821:
 265:../libs/libDaisy/src/dev/mpr121.h **** 
 266:../libs/libDaisy/src/dev/mpr121.h ****         SetTransportErr(transport_.Write(buff, 1));
 267:../libs/libDaisy/src/dev/mpr121.h **** 
 268:../libs/libDaisy/src/dev/mpr121.h ****         uint8_t ecr_backup;
 269:../libs/libDaisy/src/dev/mpr121.h ****         SetTransportErr(transport_.Read(&ecr_backup, 1));
 270:../libs/libDaisy/src/dev/mpr121.h ****         if((reg == MPR121_ECR) || ((0x73 <= reg) && (reg <= 0x7A)))
 271:../libs/libDaisy/src/dev/mpr121.h ****         {
 272:../libs/libDaisy/src/dev/mpr121.h ****             stop_required = false;
 273:../libs/libDaisy/src/dev/mpr121.h ****         }
 274:../libs/libDaisy/src/dev/mpr121.h **** 
 275:../libs/libDaisy/src/dev/mpr121.h ****         if(stop_required)
 276:../libs/libDaisy/src/dev/mpr121.h ****         {
 277:../libs/libDaisy/src/dev/mpr121.h ****             // clear this register to set stop mode
 278:../libs/libDaisy/src/dev/mpr121.h ****             SetTransportErr(transport_.Write(buff, 2));
 279:../libs/libDaisy/src/dev/mpr121.h ****         }
 280:../libs/libDaisy/src/dev/mpr121.h **** 
 281:../libs/libDaisy/src/dev/mpr121.h ****         buff[0] = reg;
 282:../libs/libDaisy/src/dev/mpr121.h ****         buff[1] = value;
 283:../libs/libDaisy/src/dev/mpr121.h ****         SetTransportErr(transport_.Write(buff, 2));
 284:../libs/libDaisy/src/dev/mpr121.h **** 
 285:../libs/libDaisy/src/dev/mpr121.h ****         if(stop_required)
 286:../libs/libDaisy/src/dev/mpr121.h ****         {
 287:../libs/libDaisy/src/dev/mpr121.h ****             // write back the previous set ECR settings
 288:../libs/libDaisy/src/dev/mpr121.h ****             buff[0] = ecr_reg;
 289:../libs/libDaisy/src/dev/mpr121.h ****             buff[1] = ecr_backup;
 290:../libs/libDaisy/src/dev/mpr121.h ****             SetTransportErr(transport_.Write(buff, 2));
 291:../libs/libDaisy/src/dev/mpr121.h ****         }
 292:../libs/libDaisy/src/dev/mpr121.h ****     }
 293:../libs/libDaisy/src/dev/mpr121.h **** 
 294:../libs/libDaisy/src/dev/mpr121.h ****     /** Device register map */
 295:../libs/libDaisy/src/dev/mpr121.h ****     enum RegMap
 296:../libs/libDaisy/src/dev/mpr121.h ****     {
 297:../libs/libDaisy/src/dev/mpr121.h ****         MPR121_TOUCHSTATUS_L = 0x00,
 298:../libs/libDaisy/src/dev/mpr121.h ****         MPR121_TOUCHSTATUS_H = 0x01,
 299:../libs/libDaisy/src/dev/mpr121.h ****         MPR121_FILTDATA_0L   = 0x04,
 300:../libs/libDaisy/src/dev/mpr121.h ****         MPR121_FILTDATA_0H   = 0x05,
ARM GAS  C:\Users\matte\AppData\Local\Temp\ccgZTizB.s 			page 25


 301:../libs/libDaisy/src/dev/mpr121.h ****         MPR121_BASELINE_0    = 0x1E,
 302:../libs/libDaisy/src/dev/mpr121.h ****         MPR121_MHDR          = 0x2B,
 303:../libs/libDaisy/src/dev/mpr121.h ****         MPR121_NHDR          = 0x2C,
 304:../libs/libDaisy/src/dev/mpr121.h ****         MPR121_NCLR          = 0x2D,
 305:../libs/libDaisy/src/dev/mpr121.h ****         MPR121_FDLR          = 0x2E,
 306:../libs/libDaisy/src/dev/mpr121.h ****         MPR121_MHDF          = 0x2F,
 307:../libs/libDaisy/src/dev/mpr121.h ****         MPR121_NHDF          = 0x30,
 308:../libs/libDaisy/src/dev/mpr121.h ****         MPR121_NCLF          = 0x31,
 309:../libs/libDaisy/src/dev/mpr121.h ****         MPR121_FDLF          = 0x32,
 310:../libs/libDaisy/src/dev/mpr121.h ****         MPR121_NHDT          = 0x33,
 311:../libs/libDaisy/src/dev/mpr121.h ****         MPR121_NCLT          = 0x34,
 312:../libs/libDaisy/src/dev/mpr121.h ****         MPR121_FDLT          = 0x35,
 313:../libs/libDaisy/src/dev/mpr121.h **** 
 314:../libs/libDaisy/src/dev/mpr121.h ****         MPR121_TOUCHTH_0    = 0x41,
 315:../libs/libDaisy/src/dev/mpr121.h ****         MPR121_RELEASETH_0  = 0x42,
 316:../libs/libDaisy/src/dev/mpr121.h ****         MPR121_DEBOUNCE     = 0x5B,
 317:../libs/libDaisy/src/dev/mpr121.h ****         MPR121_CONFIG1      = 0x5C,
 318:../libs/libDaisy/src/dev/mpr121.h ****         MPR121_CONFIG2      = 0x5D,
 319:../libs/libDaisy/src/dev/mpr121.h ****         MPR121_CHARGECURR_0 = 0x5F,
 320:../libs/libDaisy/src/dev/mpr121.h ****         MPR121_CHARGETIME_1 = 0x6C,
 321:../libs/libDaisy/src/dev/mpr121.h ****         MPR121_ECR          = 0x5E,
 322:../libs/libDaisy/src/dev/mpr121.h ****         MPR121_AUTOCONFIG0  = 0x7B,
 323:../libs/libDaisy/src/dev/mpr121.h ****         MPR121_AUTOCONFIG1  = 0x7C,
 324:../libs/libDaisy/src/dev/mpr121.h ****         MPR121_UPLIMIT      = 0x7D,
 325:../libs/libDaisy/src/dev/mpr121.h ****         MPR121_LOWLIMIT     = 0x7E,
 326:../libs/libDaisy/src/dev/mpr121.h ****         MPR121_TARGETLIMIT  = 0x7F,
 327:../libs/libDaisy/src/dev/mpr121.h **** 
 328:../libs/libDaisy/src/dev/mpr121.h ****         MPR121_GPIODIR    = 0x76,
 329:../libs/libDaisy/src/dev/mpr121.h ****         MPR121_GPIOEN     = 0x77,
 330:../libs/libDaisy/src/dev/mpr121.h ****         MPR121_GPIOSET    = 0x78,
 331:../libs/libDaisy/src/dev/mpr121.h ****         MPR121_GPIOCLR    = 0x79,
 332:../libs/libDaisy/src/dev/mpr121.h ****         MPR121_GPIOTOGGLE = 0x7A,
 333:../libs/libDaisy/src/dev/mpr121.h **** 
 334:../libs/libDaisy/src/dev/mpr121.h ****         MPR121_SOFTRESET = 0x80,
 335:../libs/libDaisy/src/dev/mpr121.h ****     };
 336:../libs/libDaisy/src/dev/mpr121.h **** 
 337:../libs/libDaisy/src/dev/mpr121.h ****   private:
 338:../libs/libDaisy/src/dev/mpr121.h ****     Config    config_;
 339:../libs/libDaisy/src/dev/mpr121.h ****     Transport transport_;
 340:../libs/libDaisy/src/dev/mpr121.h ****     bool      transport_error_;
 341:../libs/libDaisy/src/dev/mpr121.h **** 
 342:../libs/libDaisy/src/dev/mpr121.h ****     /** Set the global transport_error_ bool */
 343:../libs/libDaisy/src/dev/mpr121.h ****     void SetTransportErr(bool err) { transport_error_ |= err; }
 683              		.loc 2 343 10 is_stmt 1 view .LVU145
 684              	.LBE821:
 685              	.LBB825:
 686              	.LBB798:
 687              	.LBB727:
 688              	.LBB722:
  66:../libs/libDaisy/src/dev/mpr121.h ****     }
 689              		.loc 2 66 40 is_stmt 0 view .LVU146
 690 00a2 0097     		str	r7, [sp]
 691              	.LBE722:
 692              	.LBE727:
 693              	.LBE798:
 694              	.LBE825:
 695              	.LBB826:
ARM GAS  C:\Users\matte\AppData\Local\Temp\ccgZTizB.s 			page 26


 696              	.LBB822:
 697              		.loc 2 343 55 view .LVU147
 698 00a4 94F84C30 		ldrb	r3, [r4, #76]	@ zero_extendqisi2
 699              	.LBE822:
 700              	.LBE826:
 701              	.LBB827:
 702              	.LBB799:
 703              	.LBB728:
 704              	.LBB723:
  66:../libs/libDaisy/src/dev/mpr121.h ****     }
 705              		.loc 2 66 40 view .LVU148
 706 00a8 09AA     		add	r2, sp, #36
 707 00aa 94F84810 		ldrb	r1, [r4, #72]	@ zero_extendqisi2
 708              	.LBE723:
 709              	.LBE728:
 710              	.LBE799:
 711              	.LBE827:
 712              	.LBB828:
 713              	.LBB823:
 714              		.loc 2 343 55 view .LVU149
 715 00ae 0028     		cmp	r0, #0
 716 00b0 18BF     		it	ne
 717 00b2 43F00103 		orrne	r3, r3, #1
 718              	.LBE823:
 719              	.LBE828:
 720              	.LBB829:
 721              	.LBB800:
 722              	.LBB729:
 723              	.LBB724:
  66:../libs/libDaisy/src/dev/mpr121.h ****     }
 724              		.loc 2 66 40 view .LVU150
 725 00b6 2846     		mov	r0, r5
 726              	.LVL24:
  66:../libs/libDaisy/src/dev/mpr121.h ****     }
 727              		.loc 2 66 40 view .LVU151
 728              	.LBE724:
 729              	.LBE729:
 264:../libs/libDaisy/src/dev/mpr121.h **** 
 730              		.loc 2 264 17 view .LVU152
 731 00b8 8DF825A0 		strb	r10, [sp, #37]
 732              	.LBE800:
 733              	.LBE829:
 734              	.LBB830:
 735              	.LBB824:
 736              		.loc 2 343 55 view .LVU153
 737 00bc 84F84C30 		strb	r3, [r4, #76]
 738              	.LVL25:
 739              		.loc 2 343 55 view .LVU154
 740              	.LBE824:
 741              	.LBE830:
 742              	.LBB831:
 743              	.LBI718:
 257:../libs/libDaisy/src/dev/mpr121.h ****     {
 744              		.loc 2 257 10 is_stmt 1 view .LVU155
 745              	.LBB801:
 746              	.LBB730:
 747              	.LBI720:
ARM GAS  C:\Users\matte\AppData\Local\Temp\ccgZTizB.s 			page 27


  63:../libs/libDaisy/src/dev/mpr121.h ****     {
 748              		.loc 2 63 10 view .LVU156
 749              	.LBB725:
  65:../libs/libDaisy/src/dev/mpr121.h ****                != i2c_.TransmitBlocking(config_.dev_addr, data, size, 10);
 750              		.loc 2 65 9 view .LVU157
  66:../libs/libDaisy/src/dev/mpr121.h ****     }
 751              		.loc 2 66 40 is_stmt 0 view .LVU158
 752 00c0 4346     		mov	r3, r8
 753              	.LBE725:
 754              	.LBE730:
 264:../libs/libDaisy/src/dev/mpr121.h **** 
 755              		.loc 2 264 17 view .LVU159
 756 00c2 8DF82490 		strb	r9, [sp, #36]
 757              	.LBB731:
 758              	.LBB726:
  66:../libs/libDaisy/src/dev/mpr121.h ****     }
 759              		.loc 2 66 40 view .LVU160
 760 00c6 FFF7FEFF 		bl	_ZN5daisy9I2CHandle16TransmitBlockingEtPhtm
 761              	.LVL26:
  66:../libs/libDaisy/src/dev/mpr121.h ****     }
 762              		.loc 2 66 40 view .LVU161
 763              	.LBE726:
 764              	.LBE731:
 765              	.LBB732:
 766              	.LBI732:
 767              		.loc 2 343 10 is_stmt 1 view .LVU162
 768              	.LBE732:
 769              	.LBB736:
 770              	.LBB737:
  73:../libs/libDaisy/src/dev/mpr121.h ****     }
 771              		.loc 2 73 39 is_stmt 0 view .LVU163
 772 00ca 0097     		str	r7, [sp]
 773 00cc 04AA     		add	r2, sp, #16
 774              	.LBE737:
 775              	.LBE736:
 776              	.LBB741:
 777              	.LBB733:
 778              		.loc 2 343 55 view .LVU164
 779 00ce 94F84C30 		ldrb	r3, [r4, #76]	@ zero_extendqisi2
 780              	.LBE733:
 781              	.LBE741:
 782              	.LBB742:
 783              	.LBB738:
  73:../libs/libDaisy/src/dev/mpr121.h ****     }
 784              		.loc 2 73 39 view .LVU165
 785 00d2 94F84810 		ldrb	r1, [r4, #72]	@ zero_extendqisi2
 786              	.LBE738:
 787              	.LBE742:
 788              	.LBB743:
 789              	.LBB734:
 790              		.loc 2 343 55 view .LVU166
 791 00d6 0028     		cmp	r0, #0
 792 00d8 18BF     		it	ne
 793 00da 43F00103 		orrne	r3, r3, #1
 794              	.LBE734:
 795              	.LBE743:
 796              	.LBB744:
ARM GAS  C:\Users\matte\AppData\Local\Temp\ccgZTizB.s 			page 28


 797              	.LBB739:
  73:../libs/libDaisy/src/dev/mpr121.h ****     }
 798              		.loc 2 73 39 view .LVU167
 799 00de 2846     		mov	r0, r5
 800              	.LVL27:
  73:../libs/libDaisy/src/dev/mpr121.h ****     }
 801              		.loc 2 73 39 view .LVU168
 802              	.LBE739:
 803              	.LBE744:
 804              	.LBB745:
 805              	.LBB735:
 806              		.loc 2 343 55 view .LVU169
 807 00e0 84F84C30 		strb	r3, [r4, #76]
 808              	.LVL28:
 809              		.loc 2 343 55 view .LVU170
 810              	.LBE735:
 811              	.LBE745:
 812              	.LBB746:
 813              	.LBI736:
  70:../libs/libDaisy/src/dev/mpr121.h ****     {
 814              		.loc 2 70 10 is_stmt 1 view .LVU171
 815              	.LBB740:
  72:../libs/libDaisy/src/dev/mpr121.h ****                != i2c_.ReceiveBlocking(config_.dev_addr, data, size, 10);
 816              		.loc 2 72 9 view .LVU172
  73:../libs/libDaisy/src/dev/mpr121.h ****     }
 817              		.loc 2 73 39 is_stmt 0 view .LVU173
 818 00e4 4346     		mov	r3, r8
 819 00e6 FFF7FEFF 		bl	_ZN5daisy9I2CHandle15ReceiveBlockingEtPhtm
 820              	.LVL29:
  73:../libs/libDaisy/src/dev/mpr121.h ****     }
 821              		.loc 2 73 39 view .LVU174
 822              	.LBE740:
 823              	.LBE746:
 824              	.LBB747:
 825              	.LBI747:
 826              		.loc 2 343 10 is_stmt 1 view .LVU175
 827              	.LBE747:
 828              	.LBB751:
 829              	.LBB752:
  66:../libs/libDaisy/src/dev/mpr121.h ****     }
 830              		.loc 2 66 40 is_stmt 0 view .LVU176
 831 00ea 0097     		str	r7, [sp]
 832              	.LBE752:
 833              	.LBE751:
 834              	.LBB756:
 835              	.LBB748:
 836              		.loc 2 343 55 view .LVU177
 837 00ec 94F84C30 		ldrb	r3, [r4, #76]	@ zero_extendqisi2
 838              	.LBE748:
 839              	.LBE756:
 840              	.LBB757:
 841              	.LBB753:
  66:../libs/libDaisy/src/dev/mpr121.h ****     }
 842              		.loc 2 66 40 view .LVU178
 843 00f0 09AA     		add	r2, sp, #36
 844 00f2 94F84810 		ldrb	r1, [r4, #72]	@ zero_extendqisi2
 845              	.LBE753:
ARM GAS  C:\Users\matte\AppData\Local\Temp\ccgZTizB.s 			page 29


 846              	.LBE757:
 847              	.LBB758:
 848              	.LBB749:
 849              		.loc 2 343 55 view .LVU179
 850 00f6 0028     		cmp	r0, #0
 851 00f8 18BF     		it	ne
 852 00fa 43F00103 		orrne	r3, r3, #1
 853              	.LBE749:
 854              	.LBE758:
 855              	.LBB759:
 856              	.LBB754:
  66:../libs/libDaisy/src/dev/mpr121.h ****     }
 857              		.loc 2 66 40 view .LVU180
 858 00fe 2846     		mov	r0, r5
 859              	.LVL30:
  66:../libs/libDaisy/src/dev/mpr121.h ****     }
 860              		.loc 2 66 40 view .LVU181
 861              	.LBE754:
 862              	.LBE759:
 863              	.LBB760:
 864              	.LBB750:
 865              		.loc 2 343 55 view .LVU182
 866 0100 84F84C30 		strb	r3, [r4, #76]
 867              	.LVL31:
 868              		.loc 2 343 55 view .LVU183
 869              	.LBE750:
 870              	.LBE760:
 871              	.LBB761:
 872              	.LBI751:
  63:../libs/libDaisy/src/dev/mpr121.h ****     {
 873              		.loc 2 63 10 is_stmt 1 view .LVU184
 874              	.LBB755:
  65:../libs/libDaisy/src/dev/mpr121.h ****                != i2c_.TransmitBlocking(config_.dev_addr, data, size, 10);
 875              		.loc 2 65 9 view .LVU185
  66:../libs/libDaisy/src/dev/mpr121.h ****     }
 876              		.loc 2 66 40 is_stmt 0 view .LVU186
 877 0104 0223     		movs	r3, #2
 878 0106 FFF7FEFF 		bl	_ZN5daisy9I2CHandle16TransmitBlockingEtPhtm
 879              	.LVL32:
  66:../libs/libDaisy/src/dev/mpr121.h ****     }
 880              		.loc 2 66 40 view .LVU187
 881              	.LBE755:
 882              	.LBE761:
 883              	.LBB762:
 884              	.LBI762:
 885              		.loc 2 343 10 is_stmt 1 view .LVU188
 886              	.LBE762:
 887              	.LBB766:
 888              	.LBB767:
  66:../libs/libDaisy/src/dev/mpr121.h ****     }
 889              		.loc 2 66 40 is_stmt 0 view .LVU189
 890 010a 0097     		str	r7, [sp]
 891              	.LBE767:
 892              	.LBE766:
 893              	.LBB771:
 894              	.LBB763:
 895              		.loc 2 343 55 view .LVU190
ARM GAS  C:\Users\matte\AppData\Local\Temp\ccgZTizB.s 			page 30


 896 010c 94F84C30 		ldrb	r3, [r4, #76]	@ zero_extendqisi2
 897              	.LBE763:
 898              	.LBE771:
 899              	.LBB772:
 900              	.LBB768:
  66:../libs/libDaisy/src/dev/mpr121.h ****     }
 901              		.loc 2 66 40 view .LVU191
 902 0110 09AA     		add	r2, sp, #36
 903 0112 94F84810 		ldrb	r1, [r4, #72]	@ zero_extendqisi2
 904              	.LBE768:
 905              	.LBE772:
 906              	.LBB773:
 907              	.LBB764:
 908              		.loc 2 343 55 view .LVU192
 909 0116 0028     		cmp	r0, #0
 910 0118 18BF     		it	ne
 911 011a 43F00103 		orrne	r3, r3, #1
 912              	.LBE764:
 913              	.LBE773:
 914              	.LBB774:
 915              	.LBB769:
  66:../libs/libDaisy/src/dev/mpr121.h ****     }
 916              		.loc 2 66 40 view .LVU193
 917 011e 2846     		mov	r0, r5
 918              	.LVL33:
  66:../libs/libDaisy/src/dev/mpr121.h ****     }
 919              		.loc 2 66 40 view .LVU194
 920              	.LBE769:
 921              	.LBE774:
 922              	.LBB775:
 923              	.LBB765:
 924              		.loc 2 343 55 view .LVU195
 925 0120 84F84C30 		strb	r3, [r4, #76]
 926              	.LVL34:
 927              		.loc 2 343 55 view .LVU196
 928              	.LBE765:
 929              	.LBE775:
 281:../libs/libDaisy/src/dev/mpr121.h ****         buff[1] = value;
 930              		.loc 2 281 17 view .LVU197
 931 0124 8023     		movs	r3, #128
 932 0126 8DF82430 		strb	r3, [sp, #36]
 282:../libs/libDaisy/src/dev/mpr121.h ****         SetTransportErr(transport_.Write(buff, 2));
 933              		.loc 2 282 17 view .LVU198
 934 012a 6323     		movs	r3, #99
 935 012c 8DF82530 		strb	r3, [sp, #37]
 936              	.LVL35:
 937              	.LBB776:
 938              	.LBI766:
  63:../libs/libDaisy/src/dev/mpr121.h ****     {
 939              		.loc 2 63 10 is_stmt 1 view .LVU199
 940              	.LBB770:
  65:../libs/libDaisy/src/dev/mpr121.h ****                != i2c_.TransmitBlocking(config_.dev_addr, data, size, 10);
 941              		.loc 2 65 9 view .LVU200
  66:../libs/libDaisy/src/dev/mpr121.h ****     }
 942              		.loc 2 66 40 is_stmt 0 view .LVU201
 943 0130 0223     		movs	r3, #2
 944 0132 FFF7FEFF 		bl	_ZN5daisy9I2CHandle16TransmitBlockingEtPhtm
ARM GAS  C:\Users\matte\AppData\Local\Temp\ccgZTizB.s 			page 31


 945              	.LVL36:
  66:../libs/libDaisy/src/dev/mpr121.h ****     }
 946              		.loc 2 66 40 view .LVU202
 947              	.LBE770:
 948              	.LBE776:
 949              	.LBB777:
 950              	.LBI777:
 951              		.loc 2 343 10 is_stmt 1 view .LVU203
 952              	.LBE777:
 953              	.LBB781:
 954              	.LBB782:
  66:../libs/libDaisy/src/dev/mpr121.h ****     }
 955              		.loc 2 66 40 is_stmt 0 view .LVU204
 956 0136 0097     		str	r7, [sp]
 957              	.LBE782:
 958              	.LBE781:
 959              	.LBB786:
 960              	.LBB778:
 961              		.loc 2 343 55 view .LVU205
 962 0138 94F84C30 		ldrb	r3, [r4, #76]	@ zero_extendqisi2
 963              	.LBE778:
 964              	.LBE786:
 965              	.LBB787:
 966              	.LBB783:
  66:../libs/libDaisy/src/dev/mpr121.h ****     }
 967              		.loc 2 66 40 view .LVU206
 968 013c 09AA     		add	r2, sp, #36
 969 013e 94F84810 		ldrb	r1, [r4, #72]	@ zero_extendqisi2
 970              	.LBE783:
 971              	.LBE787:
 972              	.LBB788:
 973              	.LBB779:
 974              		.loc 2 343 55 view .LVU207
 975 0142 0028     		cmp	r0, #0
 976 0144 18BF     		it	ne
 977 0146 43F00103 		orrne	r3, r3, #1
 978              	.LBE779:
 979              	.LBE788:
 980              	.LBB789:
 981              	.LBB784:
  66:../libs/libDaisy/src/dev/mpr121.h ****     }
 982              		.loc 2 66 40 view .LVU208
 983 014a 2846     		mov	r0, r5
 984              	.LVL37:
  66:../libs/libDaisy/src/dev/mpr121.h ****     }
 985              		.loc 2 66 40 view .LVU209
 986              	.LBE784:
 987              	.LBE789:
 288:../libs/libDaisy/src/dev/mpr121.h ****             buff[1] = ecr_backup;
 988              		.loc 2 288 21 view .LVU210
 989 014c 8DF82490 		strb	r9, [sp, #36]
 990              	.LBB790:
 991              	.LBB780:
 992              		.loc 2 343 55 view .LVU211
 993 0150 84F84C30 		strb	r3, [r4, #76]
 994              	.LVL38:
 995              		.loc 2 343 55 view .LVU212
ARM GAS  C:\Users\matte\AppData\Local\Temp\ccgZTizB.s 			page 32


 996              	.LBE780:
 997              	.LBE790:
 289:../libs/libDaisy/src/dev/mpr121.h ****             SetTransportErr(transport_.Write(buff, 2));
 998              		.loc 2 289 21 view .LVU213
 999 0154 9DF81030 		ldrb	r3, [sp, #16]	@ zero_extendqisi2
 1000 0158 8DF82530 		strb	r3, [sp, #37]
 1001              	.LVL39:
 1002              	.LBB791:
 1003              	.LBI781:
  63:../libs/libDaisy/src/dev/mpr121.h ****     {
 1004              		.loc 2 63 10 is_stmt 1 view .LVU214
 1005              	.LBB785:
  65:../libs/libDaisy/src/dev/mpr121.h ****                != i2c_.TransmitBlocking(config_.dev_addr, data, size, 10);
 1006              		.loc 2 65 9 view .LVU215
  66:../libs/libDaisy/src/dev/mpr121.h ****     }
 1007              		.loc 2 66 40 is_stmt 0 view .LVU216
 1008 015c 0223     		movs	r3, #2
 1009 015e FFF7FEFF 		bl	_ZN5daisy9I2CHandle16TransmitBlockingEtPhtm
 1010              	.LVL40:
  66:../libs/libDaisy/src/dev/mpr121.h ****     }
 1011              		.loc 2 66 40 view .LVU217
 1012              	.LBE785:
 1013              	.LBE791:
 1014              	.LBB792:
 1015              	.LBI792:
 1016              		.loc 2 343 10 is_stmt 1 view .LVU218
 1017              	.LBB793:
 1018              		.loc 2 343 55 is_stmt 0 view .LVU219
 1019 0162 94F84C30 		ldrb	r3, [r4, #76]	@ zero_extendqisi2
 1020 0166 0028     		cmp	r0, #0
 1021 0168 18BF     		it	ne
 1022 016a 43F00103 		orrne	r3, r3, #1
 1023              	.LBE793:
 1024              	.LBE792:
 1025              	.LBE801:
 1026              	.LBE831:
 123:../libs/libDaisy/src/dev/mpr121.h **** 
 1027              		.loc 2 123 22 view .LVU220
 1028 016e 4046     		mov	r0, r8
 1029              	.LVL41:
 1030              	.LBB832:
 1031              	.LBB802:
 1032              	.LBB795:
 1033              	.LBB794:
 1034              		.loc 2 343 55 view .LVU221
 1035 0170 84F84C30 		strb	r3, [r4, #76]
 1036              	.LVL42:
 1037              		.loc 2 343 55 view .LVU222
 1038              	.LBE794:
 1039              	.LBE795:
 1040              	.LBE802:
 1041              	.LBE832:
 123:../libs/libDaisy/src/dev/mpr121.h **** 
 1042              		.loc 2 123 22 view .LVU223
 1043 0174 FFF7FEFF 		bl	_ZN5daisy6System5DelayEm
 1044              	.LVL43:
 1045              	.LBB833:
ARM GAS  C:\Users\matte\AppData\Local\Temp\ccgZTizB.s 			page 33


 1046              	.LBI833:
 257:../libs/libDaisy/src/dev/mpr121.h ****     {
 1047              		.loc 2 257 10 is_stmt 1 view .LVU224
 1048              	.LBB834:
 1049              	.LBB835:
 1050              	.LBB836:
  66:../libs/libDaisy/src/dev/mpr121.h ****     }
 1051              		.loc 2 66 40 is_stmt 0 view .LVU225
 1052 0178 4346     		mov	r3, r8
 1053 017a 09AA     		add	r2, sp, #36
 1054 017c 0097     		str	r7, [sp]
 1055 017e 2846     		mov	r0, r5
 1056 0180 94F84810 		ldrb	r1, [r4, #72]	@ zero_extendqisi2
 1057              	.LBE836:
 1058              	.LBE835:
 264:../libs/libDaisy/src/dev/mpr121.h **** 
 1059              		.loc 2 264 17 view .LVU226
 1060 0184 8DF825A0 		strb	r10, [sp, #37]
 1061 0188 8DF82490 		strb	r9, [sp, #36]
 1062              	.LVL44:
 1063              	.LBB838:
 1064              	.LBI835:
  63:../libs/libDaisy/src/dev/mpr121.h ****     {
 1065              		.loc 2 63 10 is_stmt 1 view .LVU227
 1066              	.LBB837:
  65:../libs/libDaisy/src/dev/mpr121.h ****                != i2c_.TransmitBlocking(config_.dev_addr, data, size, 10);
 1067              		.loc 2 65 9 view .LVU228
  66:../libs/libDaisy/src/dev/mpr121.h ****     }
 1068              		.loc 2 66 40 is_stmt 0 view .LVU229
 1069 018c FFF7FEFF 		bl	_ZN5daisy9I2CHandle16TransmitBlockingEtPhtm
 1070              	.LVL45:
  66:../libs/libDaisy/src/dev/mpr121.h ****     }
 1071              		.loc 2 66 40 view .LVU230
 1072              	.LBE837:
 1073              	.LBE838:
 1074              	.LBB839:
 1075              	.LBI839:
 1076              		.loc 2 343 10 is_stmt 1 view .LVU231
 1077              	.LBE839:
 1078              	.LBB843:
 1079              	.LBB844:
  73:../libs/libDaisy/src/dev/mpr121.h ****     }
 1080              		.loc 2 73 39 is_stmt 0 view .LVU232
 1081 0190 0097     		str	r7, [sp]
 1082 0192 4346     		mov	r3, r8
 1083              	.LBE844:
 1084              	.LBE843:
 1085              	.LBB848:
 1086              	.LBB840:
 1087              		.loc 2 343 55 view .LVU233
 1088 0194 94F84C20 		ldrb	r2, [r4, #76]	@ zero_extendqisi2
 1089              	.LBE840:
 1090              	.LBE848:
 1091              	.LBB849:
 1092              	.LBB845:
  73:../libs/libDaisy/src/dev/mpr121.h ****     }
 1093              		.loc 2 73 39 view .LVU234
ARM GAS  C:\Users\matte\AppData\Local\Temp\ccgZTizB.s 			page 34


 1094 0198 94F84810 		ldrb	r1, [r4, #72]	@ zero_extendqisi2
 1095              	.LBE845:
 1096              	.LBE849:
 1097              	.LBB850:
 1098              	.LBB841:
 1099              		.loc 2 343 55 view .LVU235
 1100 019c 0028     		cmp	r0, #0
 1101 019e 18BF     		it	ne
 1102 01a0 42F00102 		orrne	r2, r2, #1
 1103              	.LBE841:
 1104              	.LBE850:
 1105              	.LBB851:
 1106              	.LBB846:
  73:../libs/libDaisy/src/dev/mpr121.h ****     }
 1107              		.loc 2 73 39 view .LVU236
 1108 01a4 2846     		mov	r0, r5
 1109              	.LVL46:
  73:../libs/libDaisy/src/dev/mpr121.h ****     }
 1110              		.loc 2 73 39 view .LVU237
 1111              	.LBE846:
 1112              	.LBE851:
 1113              	.LBB852:
 1114              	.LBB842:
 1115              		.loc 2 343 55 view .LVU238
 1116 01a6 84F84C20 		strb	r2, [r4, #76]
 1117              	.LVL47:
 1118              		.loc 2 343 55 view .LVU239
 1119              	.LBE842:
 1120              	.LBE852:
 1121              	.LBB853:
 1122              	.LBI843:
  70:../libs/libDaisy/src/dev/mpr121.h ****     {
 1123              		.loc 2 70 10 is_stmt 1 view .LVU240
 1124              	.LBB847:
  72:../libs/libDaisy/src/dev/mpr121.h ****                != i2c_.ReceiveBlocking(config_.dev_addr, data, size, 10);
 1125              		.loc 2 72 9 view .LVU241
  73:../libs/libDaisy/src/dev/mpr121.h ****     }
 1126              		.loc 2 73 39 is_stmt 0 view .LVU242
 1127 01aa 04AA     		add	r2, sp, #16
 1128              	.LVL48:
  73:../libs/libDaisy/src/dev/mpr121.h ****     }
 1129              		.loc 2 73 39 view .LVU243
 1130 01ac FFF7FEFF 		bl	_ZN5daisy9I2CHandle15ReceiveBlockingEtPhtm
 1131              	.LVL49:
  73:../libs/libDaisy/src/dev/mpr121.h ****     }
 1132              		.loc 2 73 39 view .LVU244
 1133              	.LBE847:
 1134              	.LBE853:
 1135              	.LBB854:
 1136              	.LBI854:
 1137              		.loc 2 343 10 is_stmt 1 view .LVU245
 1138              	.LBE854:
 1139              	.LBB858:
 1140              	.LBB859:
  66:../libs/libDaisy/src/dev/mpr121.h ****     }
 1141              		.loc 2 66 40 is_stmt 0 view .LVU246
 1142 01b0 0097     		str	r7, [sp]
ARM GAS  C:\Users\matte\AppData\Local\Temp\ccgZTizB.s 			page 35


 1143              	.LBE859:
 1144              	.LBE858:
 1145              	.LBB864:
 1146              	.LBB855:
 1147              		.loc 2 343 55 view .LVU247
 1148 01b2 94F84C30 		ldrb	r3, [r4, #76]	@ zero_extendqisi2
 1149              	.LBE855:
 1150              	.LBE864:
 1151              	.LBB865:
 1152              	.LBB860:
  66:../libs/libDaisy/src/dev/mpr121.h ****     }
 1153              		.loc 2 66 40 view .LVU248
 1154 01b6 09AA     		add	r2, sp, #36
 1155 01b8 94F84810 		ldrb	r1, [r4, #72]	@ zero_extendqisi2
 1156              	.LBE860:
 1157              	.LBE865:
 1158              	.LBB866:
 1159              	.LBB856:
 1160              		.loc 2 343 55 view .LVU249
 1161 01bc 0028     		cmp	r0, #0
 1162 01be 18BF     		it	ne
 1163 01c0 43F00103 		orrne	r3, r3, #1
 1164              	.LBE856:
 1165              	.LBE866:
 1166              	.LBB867:
 1167              	.LBB861:
  66:../libs/libDaisy/src/dev/mpr121.h ****     }
 1168              		.loc 2 66 40 view .LVU250
 1169 01c4 2846     		mov	r0, r5
 1170              	.LVL50:
  66:../libs/libDaisy/src/dev/mpr121.h ****     }
 1171              		.loc 2 66 40 view .LVU251
 1172              	.LBE861:
 1173              	.LBE867:
 282:../libs/libDaisy/src/dev/mpr121.h ****         SetTransportErr(transport_.Write(buff, 2));
 1174              		.loc 2 282 17 view .LVU252
 1175 01c6 8DF825A0 		strb	r10, [sp, #37]
 1176              	.LBB868:
 1177              	.LBB857:
 1178              		.loc 2 343 55 view .LVU253
 1179 01ca 84F84C30 		strb	r3, [r4, #76]
 1180              	.LVL51:
 1181              		.loc 2 343 55 view .LVU254
 1182              	.LBE857:
 1183              	.LBE868:
 1184              	.LBB869:
 1185              	.LBI858:
  63:../libs/libDaisy/src/dev/mpr121.h ****     {
 1186              		.loc 2 63 10 is_stmt 1 view .LVU255
 1187              	.LBB862:
  65:../libs/libDaisy/src/dev/mpr121.h ****                != i2c_.TransmitBlocking(config_.dev_addr, data, size, 10);
 1188              		.loc 2 65 9 view .LVU256
  66:../libs/libDaisy/src/dev/mpr121.h ****     }
 1189              		.loc 2 66 40 is_stmt 0 view .LVU257
 1190 01ce 0223     		movs	r3, #2
 1191              	.LBE862:
 1192              	.LBE869:
ARM GAS  C:\Users\matte\AppData\Local\Temp\ccgZTizB.s 			page 36


 281:../libs/libDaisy/src/dev/mpr121.h ****         buff[1] = value;
 1193              		.loc 2 281 17 view .LVU258
 1194 01d0 8DF82490 		strb	r9, [sp, #36]
 1195              	.LBB870:
 1196              	.LBB863:
  66:../libs/libDaisy/src/dev/mpr121.h ****     }
 1197              		.loc 2 66 40 view .LVU259
 1198 01d4 FFF7FEFF 		bl	_ZN5daisy9I2CHandle16TransmitBlockingEtPhtm
 1199              	.LVL52:
  66:../libs/libDaisy/src/dev/mpr121.h ****     }
 1200              		.loc 2 66 40 view .LVU260
 1201              	.LBE863:
 1202              	.LBE870:
 1203              	.LBB871:
 1204              	.LBI871:
 1205              		.loc 2 343 10 is_stmt 1 view .LVU261
 1206              	.LBB872:
 1207              		.loc 2 343 55 is_stmt 0 view .LVU262
 1208 01d8 94F84C30 		ldrb	r3, [r4, #76]	@ zero_extendqisi2
 1209              	.LBE872:
 1210              	.LBE871:
 1211              	.LBE834:
 1212              	.LBE833:
 133:../libs/libDaisy/src/dev/mpr121.h ****         WriteRegister(MPR121_MHDR, 0x01);
 1213              		.loc 2 133 22 view .LVU263
 1214 01dc 94F830B0 		ldrb	fp, [r4, #48]	@ zero_extendqisi2
 1215              	.LBB879:
 1216              	.LBB877:
 1217              	.LBB875:
 1218              	.LBB873:
 1219              		.loc 2 343 55 view .LVU264
 1220 01e0 0028     		cmp	r0, #0
 1221 01e2 18BF     		it	ne
 1222 01e4 43F00103 		orrne	r3, r3, #1
 1223              	.LBE873:
 1224              	.LBE875:
 1225              	.LBE877:
 1226              	.LBE879:
 133:../libs/libDaisy/src/dev/mpr121.h ****         WriteRegister(MPR121_MHDR, 0x01);
 1227              		.loc 2 133 22 view .LVU265
 1228 01e8 94F831A0 		ldrb	r10, [r4, #49]	@ zero_extendqisi2
 1229              	.LBB880:
 1230              	.LBB878:
 1231              	.LBB876:
 1232              	.LBB874:
 1233              		.loc 2 343 55 view .LVU266
 1234 01ec 84F84C30 		strb	r3, [r4, #76]
 1235              	.LVL53:
 1236              		.loc 2 343 55 view .LVU267
 1237              	.LBE874:
 1238              	.LBE876:
 1239              	.LBE878:
 1240              	.LBE880:
 1241              	.LBB881:
 1242              	.LBI881:
 177:../libs/libDaisy/src/dev/mpr121.h ****     {
 1243              		.loc 2 177 10 is_stmt 1 view .LVU268
ARM GAS  C:\Users\matte\AppData\Local\Temp\ccgZTizB.s 			page 37


 1244              	.LBB882:
 180:../libs/libDaisy/src/dev/mpr121.h ****         {
 1245              		.loc 2 180 30 view .LVU269
 1246              	.L9:
 1247              	.LBB883:
 1248              	.LBI883:
 257:../libs/libDaisy/src/dev/mpr121.h ****     {
 1249              		.loc 2 257 10 view .LVU270
 1250              	.LBB884:
 1251              	.LBB885:
 1252              	.LBB886:
  66:../libs/libDaisy/src/dev/mpr121.h ****     }
 1253              		.loc 2 66 40 is_stmt 0 view .LVU271
 1254 01f0 0A27     		movs	r7, #10
 1255              	.LBE886:
 1256              	.LBE885:
 264:../libs/libDaisy/src/dev/mpr121.h **** 
 1257              		.loc 2 264 17 view .LVU272
 1258 01f2 4FF00009 		mov	r9, #0
 1259 01f6 4FF05E08 		mov	r8, #94
 1260              	.LBB889:
 1261              	.LBB887:
  66:../libs/libDaisy/src/dev/mpr121.h ****     }
 1262              		.loc 2 66 40 view .LVU273
 1263 01fa 0123     		movs	r3, #1
 1264 01fc 09AA     		add	r2, sp, #36
 1265 01fe 0097     		str	r7, [sp]
 1266 0200 2846     		mov	r0, r5
 1267 0202 94F84810 		ldrb	r1, [r4, #72]	@ zero_extendqisi2
 1268              	.LBE887:
 1269              	.LBE889:
 264:../libs/libDaisy/src/dev/mpr121.h **** 
 1270              		.loc 2 264 17 view .LVU274
 1271 0206 8DF82590 		strb	r9, [sp, #37]
 1272 020a 8DF82480 		strb	r8, [sp, #36]
 1273              	.LVL54:
 1274              	.LBB890:
 1275              	.LBI885:
  63:../libs/libDaisy/src/dev/mpr121.h ****     {
 1276              		.loc 2 63 10 is_stmt 1 view .LVU275
 1277              	.LBB888:
  65:../libs/libDaisy/src/dev/mpr121.h ****                != i2c_.TransmitBlocking(config_.dev_addr, data, size, 10);
 1278              		.loc 2 65 9 view .LVU276
  66:../libs/libDaisy/src/dev/mpr121.h ****     }
 1279              		.loc 2 66 40 is_stmt 0 view .LVU277
 1280 020e FFF7FEFF 		bl	_ZN5daisy9I2CHandle16TransmitBlockingEtPhtm
 1281              	.LVL55:
  66:../libs/libDaisy/src/dev/mpr121.h ****     }
 1282              		.loc 2 66 40 view .LVU278
 1283              	.LBE888:
 1284              	.LBE890:
 1285              	.LBB891:
 1286              	.LBI891:
 1287              		.loc 2 343 10 is_stmt 1 view .LVU279
 1288              	.LBB892:
 1289              		.loc 2 343 55 is_stmt 0 view .LVU280
 1290 0212 94F84C20 		ldrb	r2, [r4, #76]	@ zero_extendqisi2
ARM GAS  C:\Users\matte\AppData\Local\Temp\ccgZTizB.s 			page 38


 1291              	.LBE892:
 1292              	.LBE891:
 1293              	.LBB895:
 1294              	.LBB896:
  73:../libs/libDaisy/src/dev/mpr121.h ****     }
 1295              		.loc 2 73 39 view .LVU281
 1296 0216 0123     		movs	r3, #1
 1297 0218 0097     		str	r7, [sp]
 1298              	.LBE896:
 1299              	.LBE895:
 1300              	.LBB899:
 1301              	.LBB893:
 1302              		.loc 2 343 55 view .LVU282
 1303 021a 4845     		cmp	r0, r9
 1304 021c 18BF     		it	ne
 1305 021e 42F00102 		orrne	r2, r2, #1
 1306              	.LBE893:
 1307              	.LBE899:
 1308              	.LBB900:
 1309              	.LBB897:
  73:../libs/libDaisy/src/dev/mpr121.h ****     }
 1310              		.loc 2 73 39 view .LVU283
 1311 0222 94F84810 		ldrb	r1, [r4, #72]	@ zero_extendqisi2
 1312 0226 2846     		mov	r0, r5
 1313              	.LVL56:
  73:../libs/libDaisy/src/dev/mpr121.h ****     }
 1314              		.loc 2 73 39 view .LVU284
 1315              	.LBE897:
 1316              	.LBE900:
 1317              	.LBB901:
 1318              	.LBB894:
 1319              		.loc 2 343 55 view .LVU285
 1320 0228 84F84C20 		strb	r2, [r4, #76]
 1321              	.LVL57:
 1322              		.loc 2 343 55 view .LVU286
 1323              	.LBE894:
 1324              	.LBE901:
 1325              	.LBB902:
 1326              	.LBI895:
  70:../libs/libDaisy/src/dev/mpr121.h ****     {
 1327              		.loc 2 70 10 is_stmt 1 view .LVU287
 1328              	.LBB898:
  72:../libs/libDaisy/src/dev/mpr121.h ****                != i2c_.ReceiveBlocking(config_.dev_addr, data, size, 10);
 1329              		.loc 2 72 9 view .LVU288
  73:../libs/libDaisy/src/dev/mpr121.h ****     }
 1330              		.loc 2 73 39 is_stmt 0 view .LVU289
 1331 022c 04AA     		add	r2, sp, #16
 1332              	.LVL58:
  73:../libs/libDaisy/src/dev/mpr121.h ****     }
 1333              		.loc 2 73 39 view .LVU290
 1334 022e FFF7FEFF 		bl	_ZN5daisy9I2CHandle15ReceiveBlockingEtPhtm
 1335              	.LVL59:
  73:../libs/libDaisy/src/dev/mpr121.h ****     }
 1336              		.loc 2 73 39 view .LVU291
 1337              	.LBE898:
 1338              	.LBE902:
 1339              	.LBB903:
ARM GAS  C:\Users\matte\AppData\Local\Temp\ccgZTizB.s 			page 39


 1340              	.LBI903:
 1341              		.loc 2 343 10 is_stmt 1 view .LVU292
 1342              	.LBB904:
 1343              		.loc 2 343 55 is_stmt 0 view .LVU293
 1344 0232 94F84C20 		ldrb	r2, [r4, #76]	@ zero_extendqisi2
 1345              	.LBE904:
 1346              	.LBE903:
 1347              	.LBB907:
 1348              	.LBB908:
  66:../libs/libDaisy/src/dev/mpr121.h ****     }
 1349              		.loc 2 66 40 view .LVU294
 1350 0236 0223     		movs	r3, #2
 1351 0238 0097     		str	r7, [sp]
 1352              	.LBE908:
 1353              	.LBE907:
 1354              	.LBB911:
 1355              	.LBB905:
 1356              		.loc 2 343 55 view .LVU295
 1357 023a 4845     		cmp	r0, r9
 1358 023c 18BF     		it	ne
 1359 023e 42F00102 		orrne	r2, r2, #1
 1360              	.LBE905:
 1361              	.LBE911:
 1362              	.LBB912:
 1363              	.LBB909:
  66:../libs/libDaisy/src/dev/mpr121.h ****     }
 1364              		.loc 2 66 40 view .LVU296
 1365 0242 94F84810 		ldrb	r1, [r4, #72]	@ zero_extendqisi2
 1366 0246 2846     		mov	r0, r5
 1367              	.LVL60:
  66:../libs/libDaisy/src/dev/mpr121.h ****     }
 1368              		.loc 2 66 40 view .LVU297
 1369              	.LBE909:
 1370              	.LBE912:
 1371              	.LBB913:
 1372              	.LBB906:
 1373              		.loc 2 343 55 view .LVU298
 1374 0248 84F84C20 		strb	r2, [r4, #76]
 1375              	.LVL61:
 1376              		.loc 2 343 55 view .LVU299
 1377              	.LBE906:
 1378              	.LBE913:
 1379              	.LBB914:
 1380              	.LBI907:
  63:../libs/libDaisy/src/dev/mpr121.h ****     {
 1381              		.loc 2 63 10 is_stmt 1 view .LVU300
 1382              	.LBB910:
  65:../libs/libDaisy/src/dev/mpr121.h ****                != i2c_.TransmitBlocking(config_.dev_addr, data, size, 10);
 1383              		.loc 2 65 9 view .LVU301
  66:../libs/libDaisy/src/dev/mpr121.h ****     }
 1384              		.loc 2 66 40 is_stmt 0 view .LVU302
 1385 024c 09AA     		add	r2, sp, #36
 1386              	.LVL62:
  66:../libs/libDaisy/src/dev/mpr121.h ****     }
 1387              		.loc 2 66 40 view .LVU303
 1388 024e FFF7FEFF 		bl	_ZN5daisy9I2CHandle16TransmitBlockingEtPhtm
 1389              	.LVL63:
ARM GAS  C:\Users\matte\AppData\Local\Temp\ccgZTizB.s 			page 40


  66:../libs/libDaisy/src/dev/mpr121.h ****     }
 1390              		.loc 2 66 40 view .LVU304
 1391              	.LBE910:
 1392              	.LBE914:
 1393              	.LBB915:
 1394              	.LBI915:
 1395              		.loc 2 343 10 is_stmt 1 view .LVU305
 1396              	.LBB916:
 1397              		.loc 2 343 55 is_stmt 0 view .LVU306
 1398 0252 94F84C20 		ldrb	r2, [r4, #76]	@ zero_extendqisi2
 1399              	.LBE916:
 1400              	.LBE915:
 1401              	.LBB919:
 1402              	.LBB920:
  66:../libs/libDaisy/src/dev/mpr121.h ****     }
 1403              		.loc 2 66 40 view .LVU307
 1404 0256 0223     		movs	r3, #2
 1405 0258 0097     		str	r7, [sp]
 1406              	.LBE920:
 1407              	.LBE919:
 1408              	.LBB924:
 1409              	.LBB917:
 1410              		.loc 2 343 55 view .LVU308
 1411 025a 4845     		cmp	r0, r9
 1412 025c 18BF     		it	ne
 1413 025e 42F00102 		orrne	r2, r2, #1
 1414              	.LBE917:
 1415              	.LBE924:
 1416              	.LBB925:
 1417              	.LBB921:
  66:../libs/libDaisy/src/dev/mpr121.h ****     }
 1418              		.loc 2 66 40 view .LVU309
 1419 0262 94F84810 		ldrb	r1, [r4, #72]	@ zero_extendqisi2
 1420 0266 2846     		mov	r0, r5
 1421              	.LVL64:
  66:../libs/libDaisy/src/dev/mpr121.h ****     }
 1422              		.loc 2 66 40 view .LVU310
 1423              	.LBE921:
 1424              	.LBE925:
 281:../libs/libDaisy/src/dev/mpr121.h ****         buff[1] = value;
 1425              		.loc 2 281 17 view .LVU311
 1426 0268 8DF82460 		strb	r6, [sp, #36]
 1427              	.LBB926:
 1428              	.LBB918:
 1429              		.loc 2 343 55 view .LVU312
 1430 026c 84F84C20 		strb	r2, [r4, #76]
 1431              	.LVL65:
 1432              		.loc 2 343 55 view .LVU313
 1433              	.LBE918:
 1434              	.LBE926:
 1435              	.LBB927:
 1436              	.LBI919:
  63:../libs/libDaisy/src/dev/mpr121.h ****     {
 1437              		.loc 2 63 10 is_stmt 1 view .LVU314
 1438              	.LBB922:
  65:../libs/libDaisy/src/dev/mpr121.h ****                != i2c_.TransmitBlocking(config_.dev_addr, data, size, 10);
 1439              		.loc 2 65 9 view .LVU315
ARM GAS  C:\Users\matte\AppData\Local\Temp\ccgZTizB.s 			page 41


  66:../libs/libDaisy/src/dev/mpr121.h ****     }
 1440              		.loc 2 66 40 is_stmt 0 view .LVU316
 1441 0270 09AA     		add	r2, sp, #36
 1442              	.LVL66:
  66:../libs/libDaisy/src/dev/mpr121.h ****     }
 1443              		.loc 2 66 40 view .LVU317
 1444              	.LBE922:
 1445              	.LBE927:
 282:../libs/libDaisy/src/dev/mpr121.h ****         SetTransportErr(transport_.Write(buff, 2));
 1446              		.loc 2 282 17 view .LVU318
 1447 0272 8DF825B0 		strb	fp, [sp, #37]
 1448              	.LBB928:
 1449              	.LBB923:
  66:../libs/libDaisy/src/dev/mpr121.h ****     }
 1450              		.loc 2 66 40 view .LVU319
 1451 0276 FFF7FEFF 		bl	_ZN5daisy9I2CHandle16TransmitBlockingEtPhtm
 1452              	.LVL67:
  66:../libs/libDaisy/src/dev/mpr121.h ****     }
 1453              		.loc 2 66 40 view .LVU320
 1454              	.LBE923:
 1455              	.LBE928:
 1456              	.LBB929:
 1457              	.LBI929:
 1458              		.loc 2 343 10 is_stmt 1 view .LVU321
 1459              	.LBB930:
 1460              		.loc 2 343 55 is_stmt 0 view .LVU322
 1461 027a 94F84C30 		ldrb	r3, [r4, #76]	@ zero_extendqisi2
 1462              	.LBE930:
 1463              	.LBE929:
 289:../libs/libDaisy/src/dev/mpr121.h ****             SetTransportErr(transport_.Write(buff, 2));
 1464              		.loc 2 289 21 view .LVU323
 1465 027e 9DF81020 		ldrb	r2, [sp, #16]	@ zero_extendqisi2
 1466              	.LBB933:
 1467              	.LBB931:
 1468              		.loc 2 343 55 view .LVU324
 1469 0282 4845     		cmp	r0, r9
 1470 0284 18BF     		it	ne
 1471 0286 43F00103 		orrne	r3, r3, #1
 1472              	.LBE931:
 1473              	.LBE933:
 1474              	.LBB934:
 1475              	.LBB935:
  66:../libs/libDaisy/src/dev/mpr121.h ****     }
 1476              		.loc 2 66 40 view .LVU325
 1477 028a 0097     		str	r7, [sp]
 1478              	.LBE935:
 1479              	.LBE934:
 289:../libs/libDaisy/src/dev/mpr121.h ****             SetTransportErr(transport_.Write(buff, 2));
 1480              		.loc 2 289 21 view .LVU326
 1481 028c 8DF82520 		strb	r2, [sp, #37]
 1482              	.LBB939:
 1483              	.LBB936:
  66:../libs/libDaisy/src/dev/mpr121.h ****     }
 1484              		.loc 2 66 40 view .LVU327
 1485 0290 2846     		mov	r0, r5
 1486              	.LVL68:
  66:../libs/libDaisy/src/dev/mpr121.h ****     }
ARM GAS  C:\Users\matte\AppData\Local\Temp\ccgZTizB.s 			page 42


 1487              		.loc 2 66 40 view .LVU328
 1488 0292 09AA     		add	r2, sp, #36
 1489 0294 94F84810 		ldrb	r1, [r4, #72]	@ zero_extendqisi2
 1490              	.LBE936:
 1491              	.LBE939:
 1492              	.LBB940:
 1493              	.LBB932:
 1494              		.loc 2 343 55 view .LVU329
 1495 0298 84F84C30 		strb	r3, [r4, #76]
 1496              	.LVL69:
 1497              		.loc 2 343 55 view .LVU330
 1498              	.LBE932:
 1499              	.LBE940:
 1500              	.LBB941:
 1501              	.LBI934:
  63:../libs/libDaisy/src/dev/mpr121.h ****     {
 1502              		.loc 2 63 10 is_stmt 1 view .LVU331
 1503              	.LBB937:
  65:../libs/libDaisy/src/dev/mpr121.h ****                != i2c_.TransmitBlocking(config_.dev_addr, data, size, 10);
 1504              		.loc 2 65 9 view .LVU332
  66:../libs/libDaisy/src/dev/mpr121.h ****     }
 1505              		.loc 2 66 40 is_stmt 0 view .LVU333
 1506 029c 0223     		movs	r3, #2
 1507              	.LBE937:
 1508              	.LBE941:
 288:../libs/libDaisy/src/dev/mpr121.h ****             buff[1] = ecr_backup;
 1509              		.loc 2 288 21 view .LVU334
 1510 029e 8DF82480 		strb	r8, [sp, #36]
 1511              	.LBB942:
 1512              	.LBB938:
  66:../libs/libDaisy/src/dev/mpr121.h ****     }
 1513              		.loc 2 66 40 view .LVU335
 1514 02a2 FFF7FEFF 		bl	_ZN5daisy9I2CHandle16TransmitBlockingEtPhtm
 1515              	.LVL70:
  66:../libs/libDaisy/src/dev/mpr121.h ****     }
 1516              		.loc 2 66 40 view .LVU336
 1517              	.LBE938:
 1518              	.LBE942:
 1519              	.LBB943:
 1520              	.LBI943:
 1521              		.loc 2 343 10 is_stmt 1 view .LVU337
 1522              	.LBB944:
 1523              		.loc 2 343 55 is_stmt 0 view .LVU338
 1524 02a6 94F84C20 		ldrb	r2, [r4, #76]	@ zero_extendqisi2
 1525              	.LBE944:
 1526              	.LBE943:
 1527              	.LBE884:
 1528              	.LBE883:
 1529              	.LBB951:
 1530              	.LBB952:
 1531              	.LBB953:
 1532              	.LBB954:
  66:../libs/libDaisy/src/dev/mpr121.h ****     }
 1533              		.loc 2 66 40 view .LVU339
 1534 02aa 0123     		movs	r3, #1
 1535 02ac 0097     		str	r7, [sp]
 1536              	.LBE954:
ARM GAS  C:\Users\matte\AppData\Local\Temp\ccgZTizB.s 			page 43


 1537              	.LBE953:
 1538              	.LBE952:
 1539              	.LBE951:
 1540              	.LBB1024:
 1541              	.LBB949:
 1542              	.LBB947:
 1543              	.LBB945:
 1544              		.loc 2 343 55 view .LVU340
 1545 02ae 4845     		cmp	r0, r9
 1546 02b0 18BF     		it	ne
 1547 02b2 42F00102 		orrne	r2, r2, #1
 1548              	.LBE945:
 1549              	.LBE947:
 1550              	.LBE949:
 1551              	.LBE1024:
 1552              	.LBB1025:
 1553              	.LBB1019:
 1554              	.LBB958:
 1555              	.LBB955:
  66:../libs/libDaisy/src/dev/mpr121.h ****     }
 1556              		.loc 2 66 40 view .LVU341
 1557 02b6 94F84810 		ldrb	r1, [r4, #72]	@ zero_extendqisi2
 1558 02ba 2846     		mov	r0, r5
 1559              	.LVL71:
  66:../libs/libDaisy/src/dev/mpr121.h ****     }
 1560              		.loc 2 66 40 view .LVU342
 1561              	.LBE955:
 1562              	.LBE958:
 264:../libs/libDaisy/src/dev/mpr121.h **** 
 1563              		.loc 2 264 17 view .LVU343
 1564 02bc 8DF82590 		strb	r9, [sp, #37]
 1565              	.LBE1019:
 1566              	.LBE1025:
 1567              	.LBB1026:
 1568              	.LBB950:
 1569              	.LBB948:
 1570              	.LBB946:
 1571              		.loc 2 343 55 view .LVU344
 1572 02c0 84F84C20 		strb	r2, [r4, #76]
 1573              	.LVL72:
 1574              		.loc 2 343 55 view .LVU345
 1575              	.LBE946:
 1576              	.LBE948:
 1577              	.LBE950:
 1578              	.LBE1026:
 1579              	.LBB1027:
 1580              	.LBI951:
 257:../libs/libDaisy/src/dev/mpr121.h ****     {
 1581              		.loc 2 257 10 is_stmt 1 view .LVU346
 1582              	.LBB1020:
 1583              	.LBB959:
 1584              	.LBI953:
  63:../libs/libDaisy/src/dev/mpr121.h ****     {
 1585              		.loc 2 63 10 view .LVU347
 1586              	.LBB956:
  65:../libs/libDaisy/src/dev/mpr121.h ****                != i2c_.TransmitBlocking(config_.dev_addr, data, size, 10);
 1587              		.loc 2 65 9 view .LVU348
ARM GAS  C:\Users\matte\AppData\Local\Temp\ccgZTizB.s 			page 44


  66:../libs/libDaisy/src/dev/mpr121.h ****     }
 1588              		.loc 2 66 40 is_stmt 0 view .LVU349
 1589 02c4 09AA     		add	r2, sp, #36
 1590              	.LVL73:
  66:../libs/libDaisy/src/dev/mpr121.h ****     }
 1591              		.loc 2 66 40 view .LVU350
 1592              	.LBE956:
 1593              	.LBE959:
 264:../libs/libDaisy/src/dev/mpr121.h **** 
 1594              		.loc 2 264 17 view .LVU351
 1595 02c6 8DF82480 		strb	r8, [sp, #36]
 1596              	.LBB960:
 1597              	.LBB957:
  66:../libs/libDaisy/src/dev/mpr121.h ****     }
 1598              		.loc 2 66 40 view .LVU352
 1599 02ca FFF7FEFF 		bl	_ZN5daisy9I2CHandle16TransmitBlockingEtPhtm
 1600              	.LVL74:
  66:../libs/libDaisy/src/dev/mpr121.h ****     }
 1601              		.loc 2 66 40 view .LVU353
 1602              	.LBE957:
 1603              	.LBE960:
 1604              	.LBB961:
 1605              	.LBI961:
 1606              		.loc 2 343 10 is_stmt 1 view .LVU354
 1607              	.LBB962:
 1608              		.loc 2 343 55 is_stmt 0 view .LVU355
 1609 02ce 94F84C20 		ldrb	r2, [r4, #76]	@ zero_extendqisi2
 1610              	.LBE962:
 1611              	.LBE961:
 1612              	.LBB965:
 1613              	.LBB966:
  73:../libs/libDaisy/src/dev/mpr121.h ****     }
 1614              		.loc 2 73 39 view .LVU356
 1615 02d2 0123     		movs	r3, #1
 1616 02d4 0097     		str	r7, [sp]
 1617              	.LBE966:
 1618              	.LBE965:
 1619              	.LBB969:
 1620              	.LBB963:
 1621              		.loc 2 343 55 view .LVU357
 1622 02d6 4845     		cmp	r0, r9
 1623 02d8 18BF     		it	ne
 1624 02da 42F00102 		orrne	r2, r2, #1
 1625              	.LBE963:
 1626              	.LBE969:
 1627              	.LBB970:
 1628              	.LBB967:
  73:../libs/libDaisy/src/dev/mpr121.h ****     }
 1629              		.loc 2 73 39 view .LVU358
 1630 02de 94F84810 		ldrb	r1, [r4, #72]	@ zero_extendqisi2
 1631 02e2 2846     		mov	r0, r5
 1632              	.LVL75:
  73:../libs/libDaisy/src/dev/mpr121.h ****     }
 1633              		.loc 2 73 39 view .LVU359
 1634              	.LBE967:
 1635              	.LBE970:
 1636              	.LBB971:
ARM GAS  C:\Users\matte\AppData\Local\Temp\ccgZTizB.s 			page 45


 1637              	.LBB964:
 1638              		.loc 2 343 55 view .LVU360
 1639 02e4 84F84C20 		strb	r2, [r4, #76]
 1640              	.LVL76:
 1641              		.loc 2 343 55 view .LVU361
 1642              	.LBE964:
 1643              	.LBE971:
 1644              	.LBB972:
 1645              	.LBI965:
  70:../libs/libDaisy/src/dev/mpr121.h ****     {
 1646              		.loc 2 70 10 is_stmt 1 view .LVU362
 1647              	.LBB968:
  72:../libs/libDaisy/src/dev/mpr121.h ****                != i2c_.ReceiveBlocking(config_.dev_addr, data, size, 10);
 1648              		.loc 2 72 9 view .LVU363
  73:../libs/libDaisy/src/dev/mpr121.h ****     }
 1649              		.loc 2 73 39 is_stmt 0 view .LVU364
 1650 02e8 04AA     		add	r2, sp, #16
 1651              	.LVL77:
  73:../libs/libDaisy/src/dev/mpr121.h ****     }
 1652              		.loc 2 73 39 view .LVU365
 1653 02ea FFF7FEFF 		bl	_ZN5daisy9I2CHandle15ReceiveBlockingEtPhtm
 1654              	.LVL78:
  73:../libs/libDaisy/src/dev/mpr121.h ****     }
 1655              		.loc 2 73 39 view .LVU366
 1656              	.LBE968:
 1657              	.LBE972:
 1658              	.LBB973:
 1659              	.LBI973:
 1660              		.loc 2 343 10 is_stmt 1 view .LVU367
 1661              	.LBB974:
 1662              		.loc 2 343 55 is_stmt 0 view .LVU368
 1663 02ee 94F84C20 		ldrb	r2, [r4, #76]	@ zero_extendqisi2
 1664              	.LBE974:
 1665              	.LBE973:
 1666              	.LBB977:
 1667              	.LBB978:
  66:../libs/libDaisy/src/dev/mpr121.h ****     }
 1668              		.loc 2 66 40 view .LVU369
 1669 02f2 0223     		movs	r3, #2
 1670 02f4 0097     		str	r7, [sp]
 1671              	.LBE978:
 1672              	.LBE977:
 1673              	.LBB981:
 1674              	.LBB975:
 1675              		.loc 2 343 55 view .LVU370
 1676 02f6 4845     		cmp	r0, r9
 1677 02f8 18BF     		it	ne
 1678 02fa 42F00102 		orrne	r2, r2, #1
 1679              	.LBE975:
 1680              	.LBE981:
 1681              	.LBB982:
 1682              	.LBB979:
  66:../libs/libDaisy/src/dev/mpr121.h ****     }
 1683              		.loc 2 66 40 view .LVU371
 1684 02fe 94F84810 		ldrb	r1, [r4, #72]	@ zero_extendqisi2
 1685 0302 2846     		mov	r0, r5
 1686              	.LVL79:
ARM GAS  C:\Users\matte\AppData\Local\Temp\ccgZTizB.s 			page 46


  66:../libs/libDaisy/src/dev/mpr121.h ****     }
 1687              		.loc 2 66 40 view .LVU372
 1688              	.LBE979:
 1689              	.LBE982:
 1690              	.LBB983:
 1691              	.LBB976:
 1692              		.loc 2 343 55 view .LVU373
 1693 0304 84F84C20 		strb	r2, [r4, #76]
 1694              	.LVL80:
 1695              		.loc 2 343 55 view .LVU374
 1696              	.LBE976:
 1697              	.LBE983:
 1698              	.LBB984:
 1699              	.LBI977:
  63:../libs/libDaisy/src/dev/mpr121.h ****     {
 1700              		.loc 2 63 10 is_stmt 1 view .LVU375
 1701              	.LBB980:
  65:../libs/libDaisy/src/dev/mpr121.h ****                != i2c_.TransmitBlocking(config_.dev_addr, data, size, 10);
 1702              		.loc 2 65 9 view .LVU376
  66:../libs/libDaisy/src/dev/mpr121.h ****     }
 1703              		.loc 2 66 40 is_stmt 0 view .LVU377
 1704 0308 09AA     		add	r2, sp, #36
 1705              	.LVL81:
  66:../libs/libDaisy/src/dev/mpr121.h ****     }
 1706              		.loc 2 66 40 view .LVU378
 1707 030a FFF7FEFF 		bl	_ZN5daisy9I2CHandle16TransmitBlockingEtPhtm
 1708              	.LVL82:
  66:../libs/libDaisy/src/dev/mpr121.h ****     }
 1709              		.loc 2 66 40 view .LVU379
 1710              	.LBE980:
 1711              	.LBE984:
 1712              	.LBB985:
 1713              	.LBI985:
 1714              		.loc 2 343 10 is_stmt 1 view .LVU380
 1715              	.LBB986:
 1716              		.loc 2 343 55 is_stmt 0 view .LVU381
 1717 030e 94F84C30 		ldrb	r3, [r4, #76]	@ zero_extendqisi2
 1718              	.LBE986:
 1719              	.LBE985:
 281:../libs/libDaisy/src/dev/mpr121.h ****         buff[1] = value;
 1720              		.loc 2 281 17 view .LVU382
 1721 0312 721C     		adds	r2, r6, #1
 1722              	.LBB989:
 1723              	.LBB990:
  66:../libs/libDaisy/src/dev/mpr121.h ****     }
 1724              		.loc 2 66 40 view .LVU383
 1725 0314 0097     		str	r7, [sp]
 1726              	.LBE990:
 1727              	.LBE989:
 1728              	.LBB995:
 1729              	.LBB987:
 1730              		.loc 2 343 55 view .LVU384
 1731 0316 4845     		cmp	r0, r9
 1732 0318 18BF     		it	ne
 1733 031a 43F00103 		orrne	r3, r3, #1
 1734              	.LBE987:
 1735              	.LBE995:
ARM GAS  C:\Users\matte\AppData\Local\Temp\ccgZTizB.s 			page 47


 1736              	.LBB996:
 1737              	.LBB991:
  66:../libs/libDaisy/src/dev/mpr121.h ****     }
 1738              		.loc 2 66 40 view .LVU385
 1739 031e 94F84810 		ldrb	r1, [r4, #72]	@ zero_extendqisi2
 1740              	.LBE991:
 1741              	.LBE996:
 281:../libs/libDaisy/src/dev/mpr121.h ****         buff[1] = value;
 1742              		.loc 2 281 17 view .LVU386
 1743 0322 8DF82420 		strb	r2, [sp, #36]
 1744              	.LBB997:
 1745              	.LBB992:
  66:../libs/libDaisy/src/dev/mpr121.h ****     }
 1746              		.loc 2 66 40 view .LVU387
 1747 0326 2846     		mov	r0, r5
 1748              	.LVL83:
  66:../libs/libDaisy/src/dev/mpr121.h ****     }
 1749              		.loc 2 66 40 view .LVU388
 1750 0328 09AA     		add	r2, sp, #36
 1751              	.LBE992:
 1752              	.LBE997:
 1753              	.LBB998:
 1754              	.LBB988:
 1755              		.loc 2 343 55 view .LVU389
 1756 032a 84F84C30 		strb	r3, [r4, #76]
 1757              	.LVL84:
 1758              		.loc 2 343 55 view .LVU390
 1759              	.LBE988:
 1760              	.LBE998:
 1761              	.LBB999:
 1762              	.LBI989:
  63:../libs/libDaisy/src/dev/mpr121.h ****     {
 1763              		.loc 2 63 10 is_stmt 1 view .LVU391
 1764              	.LBB993:
  65:../libs/libDaisy/src/dev/mpr121.h ****                != i2c_.TransmitBlocking(config_.dev_addr, data, size, 10);
 1765              		.loc 2 65 9 view .LVU392
  66:../libs/libDaisy/src/dev/mpr121.h ****     }
 1766              		.loc 2 66 40 is_stmt 0 view .LVU393
 1767 032e 0223     		movs	r3, #2
 1768              	.LBE993:
 1769              	.LBE999:
 282:../libs/libDaisy/src/dev/mpr121.h ****         SetTransportErr(transport_.Write(buff, 2));
 1770              		.loc 2 282 17 view .LVU394
 1771 0330 8DF825A0 		strb	r10, [sp, #37]
 1772              	.LBB1000:
 1773              	.LBB994:
  66:../libs/libDaisy/src/dev/mpr121.h ****     }
 1774              		.loc 2 66 40 view .LVU395
 1775 0334 FFF7FEFF 		bl	_ZN5daisy9I2CHandle16TransmitBlockingEtPhtm
 1776              	.LVL85:
  66:../libs/libDaisy/src/dev/mpr121.h ****     }
 1777              		.loc 2 66 40 view .LVU396
 1778              	.LBE994:
 1779              	.LBE1000:
 1780              	.LBB1001:
 1781              	.LBI1001:
 1782              		.loc 2 343 10 is_stmt 1 view .LVU397
ARM GAS  C:\Users\matte\AppData\Local\Temp\ccgZTizB.s 			page 48


 1783              	.LBB1002:
 1784              		.loc 2 343 55 is_stmt 0 view .LVU398
 1785 0338 94F84C30 		ldrb	r3, [r4, #76]	@ zero_extendqisi2
 1786              	.LBE1002:
 1787              	.LBE1001:
 289:../libs/libDaisy/src/dev/mpr121.h ****             SetTransportErr(transport_.Write(buff, 2));
 1788              		.loc 2 289 21 view .LVU399
 1789 033c 9DF81020 		ldrb	r2, [sp, #16]	@ zero_extendqisi2
 1790              	.LBE1020:
 1791              	.LBE1027:
 180:../libs/libDaisy/src/dev/mpr121.h ****         {
 1792              		.loc 2 180 30 view .LVU400
 1793 0340 0236     		adds	r6, r6, #2
 1794              	.LVL86:
 1795              	.LBB1028:
 1796              	.LBB1021:
 1797              	.LBB1005:
 1798              	.LBB1003:
 1799              		.loc 2 343 55 view .LVU401
 1800 0342 4845     		cmp	r0, r9
 1801 0344 18BF     		it	ne
 1802 0346 43F00103 		orrne	r3, r3, #1
 1803              	.LBE1003:
 1804              	.LBE1005:
 1805              	.LBB1006:
 1806              	.LBB1007:
  66:../libs/libDaisy/src/dev/mpr121.h ****     }
 1807              		.loc 2 66 40 view .LVU402
 1808 034a 0097     		str	r7, [sp]
 1809              	.LBE1007:
 1810              	.LBE1006:
 289:../libs/libDaisy/src/dev/mpr121.h ****             SetTransportErr(transport_.Write(buff, 2));
 1811              		.loc 2 289 21 view .LVU403
 1812 034c 8DF82520 		strb	r2, [sp, #37]
 1813              	.LBB1011:
 1814              	.LBB1008:
  66:../libs/libDaisy/src/dev/mpr121.h ****     }
 1815              		.loc 2 66 40 view .LVU404
 1816 0350 2846     		mov	r0, r5
 1817              	.LVL87:
  66:../libs/libDaisy/src/dev/mpr121.h ****     }
 1818              		.loc 2 66 40 view .LVU405
 1819              	.LBE1008:
 1820              	.LBE1011:
 1821              	.LBB1012:
 1822              	.LBB1004:
 1823              		.loc 2 343 55 view .LVU406
 1824 0352 84F84C30 		strb	r3, [r4, #76]
 1825              	.LVL88:
 1826              		.loc 2 343 55 view .LVU407
 1827              	.LBE1004:
 1828              	.LBE1012:
 1829              	.LBB1013:
 1830              	.LBI1006:
  63:../libs/libDaisy/src/dev/mpr121.h ****     {
 1831              		.loc 2 63 10 is_stmt 1 view .LVU408
 1832              	.LBB1009:
ARM GAS  C:\Users\matte\AppData\Local\Temp\ccgZTizB.s 			page 49


  65:../libs/libDaisy/src/dev/mpr121.h ****                != i2c_.TransmitBlocking(config_.dev_addr, data, size, 10);
 1833              		.loc 2 65 9 view .LVU409
  66:../libs/libDaisy/src/dev/mpr121.h ****     }
 1834              		.loc 2 66 40 is_stmt 0 view .LVU410
 1835 0356 09AA     		add	r2, sp, #36
 1836              	.LVL89:
  66:../libs/libDaisy/src/dev/mpr121.h ****     }
 1837              		.loc 2 66 40 view .LVU411
 1838 0358 0223     		movs	r3, #2
 1839 035a 94F84810 		ldrb	r1, [r4, #72]	@ zero_extendqisi2
 1840              	.LBE1009:
 1841              	.LBE1013:
 1842              	.LBE1021:
 1843              	.LBE1028:
 180:../libs/libDaisy/src/dev/mpr121.h ****         {
 1844              		.loc 2 180 30 view .LVU412
 1845 035e F6B2     		uxtb	r6, r6
 1846              	.LBB1029:
 1847              	.LBB1022:
 288:../libs/libDaisy/src/dev/mpr121.h ****             buff[1] = ecr_backup;
 1848              		.loc 2 288 21 view .LVU413
 1849 0360 8DF82480 		strb	r8, [sp, #36]
 1850              	.LBB1014:
 1851              	.LBB1010:
  66:../libs/libDaisy/src/dev/mpr121.h ****     }
 1852              		.loc 2 66 40 view .LVU414
 1853 0364 FFF7FEFF 		bl	_ZN5daisy9I2CHandle16TransmitBlockingEtPhtm
 1854              	.LVL90:
  66:../libs/libDaisy/src/dev/mpr121.h ****     }
 1855              		.loc 2 66 40 view .LVU415
 1856              	.LBE1010:
 1857              	.LBE1014:
 1858              	.LBB1015:
 1859              	.LBI1015:
 1860              		.loc 2 343 10 is_stmt 1 view .LVU416
 1861              	.LBB1016:
 1862              		.loc 2 343 55 is_stmt 0 view .LVU417
 1863 0368 94F84C30 		ldrb	r3, [r4, #76]	@ zero_extendqisi2
 1864 036c 4845     		cmp	r0, r9
 1865 036e 18BF     		it	ne
 1866 0370 43F00103 		orrne	r3, r3, #1
 1867              	.LBE1016:
 1868              	.LBE1015:
 1869              	.LBE1022:
 1870              	.LBE1029:
 180:../libs/libDaisy/src/dev/mpr121.h ****         {
 1871              		.loc 2 180 30 view .LVU418
 1872 0374 592E     		cmp	r6, #89
 1873              	.LBB1030:
 1874              	.LBB1023:
 1875              	.LBB1018:
 1876              	.LBB1017:
 1877              		.loc 2 343 55 view .LVU419
 1878 0376 84F84C30 		strb	r3, [r4, #76]
 1879              	.LVL91:
 1880              		.loc 2 343 55 view .LVU420
 1881              	.LBE1017:
ARM GAS  C:\Users\matte\AppData\Local\Temp\ccgZTizB.s 			page 50


 1882              	.LBE1018:
 1883              	.LBE1023:
 1884              	.LBE1030:
 180:../libs/libDaisy/src/dev/mpr121.h ****         {
 1885              		.loc 2 180 9 is_stmt 1 view .LVU421
 180:../libs/libDaisy/src/dev/mpr121.h ****         {
 1886              		.loc 2 180 30 view .LVU422
 1887 037a 7FF439AF 		bne	.L9
 1888              	.LVL92:
 180:../libs/libDaisy/src/dev/mpr121.h ****         {
 1889              		.loc 2 180 30 is_stmt 0 view .LVU423
 1890              	.LBE882:
 1891              	.LBE881:
 1892              	.LBB1031:
 1893              	.LBI1031:
 257:../libs/libDaisy/src/dev/mpr121.h ****     {
 1894              		.loc 2 257 10 is_stmt 1 view .LVU424
 1895              	.LBB1032:
 1896              	.LBB1033:
 1897              	.LBB1034:
  66:../libs/libDaisy/src/dev/mpr121.h ****     }
 1898              		.loc 2 66 40 is_stmt 0 view .LVU425
 1899 037e 0123     		movs	r3, #1
 1900 0380 09AA     		add	r2, sp, #36
 1901 0382 0097     		str	r7, [sp]
 1902 0384 2846     		mov	r0, r5
 1903 0386 94F84810 		ldrb	r1, [r4, #72]	@ zero_extendqisi2
 1904              	.LBE1034:
 1905              	.LBE1033:
 282:../libs/libDaisy/src/dev/mpr121.h ****         SetTransportErr(transport_.Write(buff, 2));
 1906              		.loc 2 282 17 view .LVU426
 1907 038a 0126     		movs	r6, #1
 264:../libs/libDaisy/src/dev/mpr121.h **** 
 1908              		.loc 2 264 17 view .LVU427
 1909 038c 8DF82590 		strb	r9, [sp, #37]
 1910 0390 8DF82480 		strb	r8, [sp, #36]
 1911              	.LVL93:
 1912              	.LBB1036:
 1913              	.LBI1033:
  63:../libs/libDaisy/src/dev/mpr121.h ****     {
 1914              		.loc 2 63 10 is_stmt 1 view .LVU428
 1915              	.LBB1035:
  65:../libs/libDaisy/src/dev/mpr121.h ****                != i2c_.TransmitBlocking(config_.dev_addr, data, size, 10);
 1916              		.loc 2 65 9 view .LVU429
  66:../libs/libDaisy/src/dev/mpr121.h ****     }
 1917              		.loc 2 66 40 is_stmt 0 view .LVU430
 1918 0394 FFF7FEFF 		bl	_ZN5daisy9I2CHandle16TransmitBlockingEtPhtm
 1919              	.LVL94:
  66:../libs/libDaisy/src/dev/mpr121.h ****     }
 1920              		.loc 2 66 40 view .LVU431
 1921              	.LBE1035:
 1922              	.LBE1036:
 1923              	.LBB1037:
 1924              	.LBI1037:
 1925              		.loc 2 343 10 is_stmt 1 view .LVU432
 1926              	.LBE1037:
 1927              	.LBB1041:
ARM GAS  C:\Users\matte\AppData\Local\Temp\ccgZTizB.s 			page 51


 1928              	.LBB1042:
  73:../libs/libDaisy/src/dev/mpr121.h ****     }
 1929              		.loc 2 73 39 is_stmt 0 view .LVU433
 1930 0398 0097     		str	r7, [sp]
 1931 039a 04AA     		add	r2, sp, #16
 1932              	.LBE1042:
 1933              	.LBE1041:
 1934              	.LBB1046:
 1935              	.LBB1038:
 1936              		.loc 2 343 55 view .LVU434
 1937 039c 94F84C30 		ldrb	r3, [r4, #76]	@ zero_extendqisi2
 1938              	.LBE1038:
 1939              	.LBE1046:
 1940              	.LBB1047:
 1941              	.LBB1043:
  73:../libs/libDaisy/src/dev/mpr121.h ****     }
 1942              		.loc 2 73 39 view .LVU435
 1943 03a0 94F84810 		ldrb	r1, [r4, #72]	@ zero_extendqisi2
 1944              	.LBE1043:
 1945              	.LBE1047:
 1946              	.LBB1048:
 1947              	.LBB1039:
 1948              		.loc 2 343 55 view .LVU436
 1949 03a4 4845     		cmp	r0, r9
 1950 03a6 18BF     		it	ne
 1951 03a8 43F00103 		orrne	r3, r3, #1
 1952              	.LBE1039:
 1953              	.LBE1048:
 1954              	.LBB1049:
 1955              	.LBB1044:
  73:../libs/libDaisy/src/dev/mpr121.h ****     }
 1956              		.loc 2 73 39 view .LVU437
 1957 03ac 2846     		mov	r0, r5
 1958              	.LVL95:
  73:../libs/libDaisy/src/dev/mpr121.h ****     }
 1959              		.loc 2 73 39 view .LVU438
 1960              	.LBE1044:
 1961              	.LBE1049:
 1962              	.LBB1050:
 1963              	.LBB1040:
 1964              		.loc 2 343 55 view .LVU439
 1965 03ae 84F84C30 		strb	r3, [r4, #76]
 1966              	.LVL96:
 1967              		.loc 2 343 55 view .LVU440
 1968              	.LBE1040:
 1969              	.LBE1050:
 1970              	.LBB1051:
 1971              	.LBI1041:
  70:../libs/libDaisy/src/dev/mpr121.h ****     {
 1972              		.loc 2 70 10 is_stmt 1 view .LVU441
 1973              	.LBB1045:
  72:../libs/libDaisy/src/dev/mpr121.h ****                != i2c_.ReceiveBlocking(config_.dev_addr, data, size, 10);
 1974              		.loc 2 72 9 view .LVU442
  73:../libs/libDaisy/src/dev/mpr121.h ****     }
 1975              		.loc 2 73 39 is_stmt 0 view .LVU443
 1976 03b2 0123     		movs	r3, #1
 1977 03b4 FFF7FEFF 		bl	_ZN5daisy9I2CHandle15ReceiveBlockingEtPhtm
ARM GAS  C:\Users\matte\AppData\Local\Temp\ccgZTizB.s 			page 52


 1978              	.LVL97:
  73:../libs/libDaisy/src/dev/mpr121.h ****     }
 1979              		.loc 2 73 39 view .LVU444
 1980              	.LBE1045:
 1981              	.LBE1051:
 1982              	.LBB1052:
 1983              	.LBI1052:
 1984              		.loc 2 343 10 is_stmt 1 view .LVU445
 1985              	.LBE1052:
 1986              	.LBB1056:
 1987              	.LBB1057:
  66:../libs/libDaisy/src/dev/mpr121.h ****     }
 1988              		.loc 2 66 40 is_stmt 0 view .LVU446
 1989 03b8 0097     		str	r7, [sp]
 1990              	.LBE1057:
 1991              	.LBE1056:
 1992              	.LBB1061:
 1993              	.LBB1053:
 1994              		.loc 2 343 55 view .LVU447
 1995 03ba 94F84C30 		ldrb	r3, [r4, #76]	@ zero_extendqisi2
 1996              	.LBE1053:
 1997              	.LBE1061:
 1998              	.LBB1062:
 1999              	.LBB1058:
  66:../libs/libDaisy/src/dev/mpr121.h ****     }
 2000              		.loc 2 66 40 view .LVU448
 2001 03be 09AA     		add	r2, sp, #36
 2002 03c0 94F84810 		ldrb	r1, [r4, #72]	@ zero_extendqisi2
 2003              	.LBE1058:
 2004              	.LBE1062:
 2005              	.LBB1063:
 2006              	.LBB1054:
 2007              		.loc 2 343 55 view .LVU449
 2008 03c4 4845     		cmp	r0, r9
 2009 03c6 18BF     		it	ne
 2010 03c8 43F00103 		orrne	r3, r3, #1
 2011              	.LBE1054:
 2012              	.LBE1063:
 2013              	.LBB1064:
 2014              	.LBB1059:
  66:../libs/libDaisy/src/dev/mpr121.h ****     }
 2015              		.loc 2 66 40 view .LVU450
 2016 03cc 2846     		mov	r0, r5
 2017              	.LVL98:
  66:../libs/libDaisy/src/dev/mpr121.h ****     }
 2018              		.loc 2 66 40 view .LVU451
 2019              	.LBE1059:
 2020              	.LBE1064:
 2021              	.LBB1065:
 2022              	.LBB1055:
 2023              		.loc 2 343 55 view .LVU452
 2024 03ce 84F84C30 		strb	r3, [r4, #76]
 2025              	.LVL99:
 2026              		.loc 2 343 55 view .LVU453
 2027              	.LBE1055:
 2028              	.LBE1065:
 2029              	.LBB1066:
ARM GAS  C:\Users\matte\AppData\Local\Temp\ccgZTizB.s 			page 53


 2030              	.LBI1056:
  63:../libs/libDaisy/src/dev/mpr121.h ****     {
 2031              		.loc 2 63 10 is_stmt 1 view .LVU454
 2032              	.LBB1060:
  65:../libs/libDaisy/src/dev/mpr121.h ****                != i2c_.TransmitBlocking(config_.dev_addr, data, size, 10);
 2033              		.loc 2 65 9 view .LVU455
  66:../libs/libDaisy/src/dev/mpr121.h ****     }
 2034              		.loc 2 66 40 is_stmt 0 view .LVU456
 2035 03d2 0223     		movs	r3, #2
 2036 03d4 FFF7FEFF 		bl	_ZN5daisy9I2CHandle16TransmitBlockingEtPhtm
 2037              	.LVL100:
  66:../libs/libDaisy/src/dev/mpr121.h ****     }
 2038              		.loc 2 66 40 view .LVU457
 2039              	.LBE1060:
 2040              	.LBE1066:
 2041              	.LBB1067:
 2042              	.LBI1067:
 2043              		.loc 2 343 10 is_stmt 1 view .LVU458
 2044              	.LBE1067:
 2045              	.LBB1071:
 2046              	.LBB1072:
  66:../libs/libDaisy/src/dev/mpr121.h ****     }
 2047              		.loc 2 66 40 is_stmt 0 view .LVU459
 2048 03d8 0097     		str	r7, [sp]
 2049              	.LBE1072:
 2050              	.LBE1071:
 2051              	.LBB1077:
 2052              	.LBB1068:
 2053              		.loc 2 343 55 view .LVU460
 2054 03da 94F84C30 		ldrb	r3, [r4, #76]	@ zero_extendqisi2
 2055              	.LBE1068:
 2056              	.LBE1077:
 2057              	.LBB1078:
 2058              	.LBB1073:
  66:../libs/libDaisy/src/dev/mpr121.h ****     }
 2059              		.loc 2 66 40 view .LVU461
 2060 03de 09AA     		add	r2, sp, #36
 2061 03e0 94F84810 		ldrb	r1, [r4, #72]	@ zero_extendqisi2
 2062              	.LBE1073:
 2063              	.LBE1078:
 2064              	.LBB1079:
 2065              	.LBB1069:
 2066              		.loc 2 343 55 view .LVU462
 2067 03e4 4845     		cmp	r0, r9
 2068 03e6 18BF     		it	ne
 2069 03e8 43F00103 		orrne	r3, r3, #1
 2070              	.LBE1069:
 2071              	.LBE1079:
 2072              	.LBB1080:
 2073              	.LBB1074:
  66:../libs/libDaisy/src/dev/mpr121.h ****     }
 2074              		.loc 2 66 40 view .LVU463
 2075 03ec 2846     		mov	r0, r5
 2076              	.LVL101:
  66:../libs/libDaisy/src/dev/mpr121.h ****     }
 2077              		.loc 2 66 40 view .LVU464
 2078              	.LBE1074:
ARM GAS  C:\Users\matte\AppData\Local\Temp\ccgZTizB.s 			page 54


 2079              	.LBE1080:
 282:../libs/libDaisy/src/dev/mpr121.h ****         SetTransportErr(transport_.Write(buff, 2));
 2080              		.loc 2 282 17 view .LVU465
 2081 03ee 8DF82560 		strb	r6, [sp, #37]
 2082              	.LBB1081:
 2083              	.LBB1070:
 2084              		.loc 2 343 55 view .LVU466
 2085 03f2 84F84C30 		strb	r3, [r4, #76]
 2086              	.LVL102:
 2087              		.loc 2 343 55 view .LVU467
 2088              	.LBE1070:
 2089              	.LBE1081:
 2090              	.LBB1082:
 2091              	.LBI1071:
  63:../libs/libDaisy/src/dev/mpr121.h ****     {
 2092              		.loc 2 63 10 is_stmt 1 view .LVU468
 2093              	.LBB1075:
  65:../libs/libDaisy/src/dev/mpr121.h ****                != i2c_.TransmitBlocking(config_.dev_addr, data, size, 10);
 2094              		.loc 2 65 9 view .LVU469
 2095              	.LBE1075:
 2096              	.LBE1082:
 281:../libs/libDaisy/src/dev/mpr121.h ****         buff[1] = value;
 2097              		.loc 2 281 17 is_stmt 0 view .LVU470
 2098 03f6 2B23     		movs	r3, #43
 2099 03f8 8DF82430 		strb	r3, [sp, #36]
 2100              	.LBB1083:
 2101              	.LBB1076:
  66:../libs/libDaisy/src/dev/mpr121.h ****     }
 2102              		.loc 2 66 40 view .LVU471
 2103 03fc 0223     		movs	r3, #2
 2104 03fe FFF7FEFF 		bl	_ZN5daisy9I2CHandle16TransmitBlockingEtPhtm
 2105              	.LVL103:
  66:../libs/libDaisy/src/dev/mpr121.h ****     }
 2106              		.loc 2 66 40 view .LVU472
 2107              	.LBE1076:
 2108              	.LBE1083:
 2109              	.LBB1084:
 2110              	.LBI1084:
 2111              		.loc 2 343 10 is_stmt 1 view .LVU473
 2112              	.LBE1084:
 2113              	.LBB1088:
 2114              	.LBB1089:
  66:../libs/libDaisy/src/dev/mpr121.h ****     }
 2115              		.loc 2 66 40 is_stmt 0 view .LVU474
 2116 0402 0097     		str	r7, [sp]
 2117              	.LBE1089:
 2118              	.LBE1088:
 2119              	.LBB1093:
 2120              	.LBB1085:
 2121              		.loc 2 343 55 view .LVU475
 2122 0404 94F84C30 		ldrb	r3, [r4, #76]	@ zero_extendqisi2
 2123              	.LBE1085:
 2124              	.LBE1093:
 2125              	.LBB1094:
 2126              	.LBB1090:
  66:../libs/libDaisy/src/dev/mpr121.h ****     }
 2127              		.loc 2 66 40 view .LVU476
ARM GAS  C:\Users\matte\AppData\Local\Temp\ccgZTizB.s 			page 55


 2128 0408 09AA     		add	r2, sp, #36
 2129 040a 94F84810 		ldrb	r1, [r4, #72]	@ zero_extendqisi2
 2130              	.LBE1090:
 2131              	.LBE1094:
 2132              	.LBB1095:
 2133              	.LBB1086:
 2134              		.loc 2 343 55 view .LVU477
 2135 040e 4845     		cmp	r0, r9
 2136 0410 18BF     		it	ne
 2137 0412 43F00103 		orrne	r3, r3, #1
 2138              	.LBE1086:
 2139              	.LBE1095:
 2140              	.LBB1096:
 2141              	.LBB1091:
  66:../libs/libDaisy/src/dev/mpr121.h ****     }
 2142              		.loc 2 66 40 view .LVU478
 2143 0416 2846     		mov	r0, r5
 2144              	.LVL104:
  66:../libs/libDaisy/src/dev/mpr121.h ****     }
 2145              		.loc 2 66 40 view .LVU479
 2146              	.LBE1091:
 2147              	.LBE1096:
 288:../libs/libDaisy/src/dev/mpr121.h ****             buff[1] = ecr_backup;
 2148              		.loc 2 288 21 view .LVU480
 2149 0418 8DF82480 		strb	r8, [sp, #36]
 2150              	.LBB1097:
 2151              	.LBB1087:
 2152              		.loc 2 343 55 view .LVU481
 2153 041c 84F84C30 		strb	r3, [r4, #76]
 2154              	.LVL105:
 2155              		.loc 2 343 55 view .LVU482
 2156              	.LBE1087:
 2157              	.LBE1097:
 289:../libs/libDaisy/src/dev/mpr121.h ****             SetTransportErr(transport_.Write(buff, 2));
 2158              		.loc 2 289 21 view .LVU483
 2159 0420 9DF81030 		ldrb	r3, [sp, #16]	@ zero_extendqisi2
 2160 0424 8DF82530 		strb	r3, [sp, #37]
 2161              	.LVL106:
 2162              	.LBB1098:
 2163              	.LBI1088:
  63:../libs/libDaisy/src/dev/mpr121.h ****     {
 2164              		.loc 2 63 10 is_stmt 1 view .LVU484
 2165              	.LBB1092:
  65:../libs/libDaisy/src/dev/mpr121.h ****                != i2c_.TransmitBlocking(config_.dev_addr, data, size, 10);
 2166              		.loc 2 65 9 view .LVU485
  66:../libs/libDaisy/src/dev/mpr121.h ****     }
 2167              		.loc 2 66 40 is_stmt 0 view .LVU486
 2168 0428 0223     		movs	r3, #2
 2169 042a FFF7FEFF 		bl	_ZN5daisy9I2CHandle16TransmitBlockingEtPhtm
 2170              	.LVL107:
  66:../libs/libDaisy/src/dev/mpr121.h ****     }
 2171              		.loc 2 66 40 view .LVU487
 2172              	.LBE1092:
 2173              	.LBE1098:
 2174              	.LBB1099:
 2175              	.LBI1099:
 2176              		.loc 2 343 10 is_stmt 1 view .LVU488
ARM GAS  C:\Users\matte\AppData\Local\Temp\ccgZTizB.s 			page 56


 2177              	.LBE1099:
 2178              	.LBE1032:
 2179              	.LBE1031:
 2180              	.LBB1109:
 2181              	.LBB1110:
 2182              	.LBB1111:
 2183              	.LBB1112:
  66:../libs/libDaisy/src/dev/mpr121.h ****     }
 2184              		.loc 2 66 40 is_stmt 0 view .LVU489
 2185 042e 0097     		str	r7, [sp]
 2186              	.LBE1112:
 2187              	.LBE1111:
 2188              	.LBE1110:
 2189              	.LBE1109:
 2190              	.LBB1196:
 2191              	.LBB1106:
 2192              	.LBB1103:
 2193              	.LBB1100:
 2194              		.loc 2 343 55 view .LVU490
 2195 0430 94F84C30 		ldrb	r3, [r4, #76]	@ zero_extendqisi2
 2196              	.LBE1100:
 2197              	.LBE1103:
 2198              	.LBE1106:
 2199              	.LBE1196:
 2200              	.LBB1197:
 2201              	.LBB1190:
 2202              	.LBB1117:
 2203              	.LBB1113:
  66:../libs/libDaisy/src/dev/mpr121.h ****     }
 2204              		.loc 2 66 40 view .LVU491
 2205 0434 09AA     		add	r2, sp, #36
 2206 0436 94F84810 		ldrb	r1, [r4, #72]	@ zero_extendqisi2
 2207              	.LBE1113:
 2208              	.LBE1117:
 2209              	.LBE1190:
 2210              	.LBE1197:
 2211              	.LBB1198:
 2212              	.LBB1107:
 2213              	.LBB1104:
 2214              	.LBB1101:
 2215              		.loc 2 343 55 view .LVU492
 2216 043a 4845     		cmp	r0, r9
 2217 043c 18BF     		it	ne
 2218 043e 43F00103 		orrne	r3, r3, #1
 2219              	.LBE1101:
 2220              	.LBE1104:
 2221              	.LBE1107:
 2222              	.LBE1198:
 2223              	.LBB1199:
 2224              	.LBB1191:
 2225              	.LBB1118:
 2226              	.LBB1114:
  66:../libs/libDaisy/src/dev/mpr121.h ****     }
 2227              		.loc 2 66 40 view .LVU493
 2228 0442 2846     		mov	r0, r5
 2229              	.LVL108:
  66:../libs/libDaisy/src/dev/mpr121.h ****     }
ARM GAS  C:\Users\matte\AppData\Local\Temp\ccgZTizB.s 			page 57


 2230              		.loc 2 66 40 view .LVU494
 2231              	.LBE1114:
 2232              	.LBE1118:
 264:../libs/libDaisy/src/dev/mpr121.h **** 
 2233              		.loc 2 264 17 view .LVU495
 2234 0444 8DF82590 		strb	r9, [sp, #37]
 2235              	.LBE1191:
 2236              	.LBE1199:
 2237              	.LBB1200:
 2238              	.LBB1108:
 2239              	.LBB1105:
 2240              	.LBB1102:
 2241              		.loc 2 343 55 view .LVU496
 2242 0448 84F84C30 		strb	r3, [r4, #76]
 2243              	.LVL109:
 2244              		.loc 2 343 55 view .LVU497
 2245              	.LBE1102:
 2246              	.LBE1105:
 2247              	.LBE1108:
 2248              	.LBE1200:
 2249              	.LBB1201:
 2250              	.LBI1109:
 257:../libs/libDaisy/src/dev/mpr121.h ****     {
 2251              		.loc 2 257 10 is_stmt 1 view .LVU498
 2252              	.LBB1192:
 2253              	.LBB1119:
 2254              	.LBI1111:
  63:../libs/libDaisy/src/dev/mpr121.h ****     {
 2255              		.loc 2 63 10 view .LVU499
 2256              	.LBB1115:
  65:../libs/libDaisy/src/dev/mpr121.h ****                != i2c_.TransmitBlocking(config_.dev_addr, data, size, 10);
 2257              		.loc 2 65 9 view .LVU500
  66:../libs/libDaisy/src/dev/mpr121.h ****     }
 2258              		.loc 2 66 40 is_stmt 0 view .LVU501
 2259 044c 3346     		mov	r3, r6
 2260              	.LBE1115:
 2261              	.LBE1119:
 264:../libs/libDaisy/src/dev/mpr121.h **** 
 2262              		.loc 2 264 17 view .LVU502
 2263 044e 8DF82480 		strb	r8, [sp, #36]
 2264              	.LBB1120:
 2265              	.LBB1116:
  66:../libs/libDaisy/src/dev/mpr121.h ****     }
 2266              		.loc 2 66 40 view .LVU503
 2267 0452 FFF7FEFF 		bl	_ZN5daisy9I2CHandle16TransmitBlockingEtPhtm
 2268              	.LVL110:
  66:../libs/libDaisy/src/dev/mpr121.h ****     }
 2269              		.loc 2 66 40 view .LVU504
 2270              	.LBE1116:
 2271              	.LBE1120:
 2272              	.LBB1121:
 2273              	.LBI1121:
 2274              		.loc 2 343 10 is_stmt 1 view .LVU505
 2275              	.LBE1121:
 2276              	.LBB1125:
 2277              	.LBB1126:
  73:../libs/libDaisy/src/dev/mpr121.h ****     }
ARM GAS  C:\Users\matte\AppData\Local\Temp\ccgZTizB.s 			page 58


 2278              		.loc 2 73 39 is_stmt 0 view .LVU506
 2279 0456 0097     		str	r7, [sp]
 2280 0458 04AA     		add	r2, sp, #16
 2281              	.LBE1126:
 2282              	.LBE1125:
 2283              	.LBB1130:
 2284              	.LBB1122:
 2285              		.loc 2 343 55 view .LVU507
 2286 045a 94F84C30 		ldrb	r3, [r4, #76]	@ zero_extendqisi2
 2287              	.LBE1122:
 2288              	.LBE1130:
 2289              	.LBB1131:
 2290              	.LBB1127:
  73:../libs/libDaisy/src/dev/mpr121.h ****     }
 2291              		.loc 2 73 39 view .LVU508
 2292 045e 94F84810 		ldrb	r1, [r4, #72]	@ zero_extendqisi2
 2293              	.LBE1127:
 2294              	.LBE1131:
 2295              	.LBB1132:
 2296              	.LBB1123:
 2297              		.loc 2 343 55 view .LVU509
 2298 0462 4845     		cmp	r0, r9
 2299 0464 18BF     		it	ne
 2300 0466 43F00103 		orrne	r3, r3, #1
 2301              	.LBE1123:
 2302              	.LBE1132:
 2303              	.LBB1133:
 2304              	.LBB1128:
  73:../libs/libDaisy/src/dev/mpr121.h ****     }
 2305              		.loc 2 73 39 view .LVU510
 2306 046a 2846     		mov	r0, r5
 2307              	.LVL111:
  73:../libs/libDaisy/src/dev/mpr121.h ****     }
 2308              		.loc 2 73 39 view .LVU511
 2309              	.LBE1128:
 2310              	.LBE1133:
 2311              	.LBB1134:
 2312              	.LBB1124:
 2313              		.loc 2 343 55 view .LVU512
 2314 046c 84F84C30 		strb	r3, [r4, #76]
 2315              	.LVL112:
 2316              		.loc 2 343 55 view .LVU513
 2317              	.LBE1124:
 2318              	.LBE1134:
 2319              	.LBB1135:
 2320              	.LBI1125:
  70:../libs/libDaisy/src/dev/mpr121.h ****     {
 2321              		.loc 2 70 10 is_stmt 1 view .LVU514
 2322              	.LBB1129:
  72:../libs/libDaisy/src/dev/mpr121.h ****                != i2c_.ReceiveBlocking(config_.dev_addr, data, size, 10);
 2323              		.loc 2 72 9 view .LVU515
  73:../libs/libDaisy/src/dev/mpr121.h ****     }
 2324              		.loc 2 73 39 is_stmt 0 view .LVU516
 2325 0470 3346     		mov	r3, r6
 2326 0472 FFF7FEFF 		bl	_ZN5daisy9I2CHandle15ReceiveBlockingEtPhtm
 2327              	.LVL113:
  73:../libs/libDaisy/src/dev/mpr121.h ****     }
ARM GAS  C:\Users\matte\AppData\Local\Temp\ccgZTizB.s 			page 59


 2328              		.loc 2 73 39 view .LVU517
 2329              	.LBE1129:
 2330              	.LBE1135:
 2331              	.LBB1136:
 2332              	.LBI1136:
 2333              		.loc 2 343 10 is_stmt 1 view .LVU518
 2334              	.LBE1136:
 2335              	.LBB1140:
 2336              	.LBB1141:
  66:../libs/libDaisy/src/dev/mpr121.h ****     }
 2337              		.loc 2 66 40 is_stmt 0 view .LVU519
 2338 0476 0097     		str	r7, [sp]
 2339              	.LBE1141:
 2340              	.LBE1140:
 2341              	.LBB1145:
 2342              	.LBB1137:
 2343              		.loc 2 343 55 view .LVU520
 2344 0478 94F84C30 		ldrb	r3, [r4, #76]	@ zero_extendqisi2
 2345              	.LBE1137:
 2346              	.LBE1145:
 2347              	.LBB1146:
 2348              	.LBB1142:
  66:../libs/libDaisy/src/dev/mpr121.h ****     }
 2349              		.loc 2 66 40 view .LVU521
 2350 047c 09AA     		add	r2, sp, #36
 2351 047e 94F84810 		ldrb	r1, [r4, #72]	@ zero_extendqisi2
 2352              	.LBE1142:
 2353              	.LBE1146:
 2354              	.LBB1147:
 2355              	.LBB1138:
 2356              		.loc 2 343 55 view .LVU522
 2357 0482 4845     		cmp	r0, r9
 2358 0484 18BF     		it	ne
 2359 0486 43F00103 		orrne	r3, r3, #1
 2360              	.LBE1138:
 2361              	.LBE1147:
 2362              	.LBB1148:
 2363              	.LBB1143:
  66:../libs/libDaisy/src/dev/mpr121.h ****     }
 2364              		.loc 2 66 40 view .LVU523
 2365 048a 2846     		mov	r0, r5
 2366              	.LVL114:
  66:../libs/libDaisy/src/dev/mpr121.h ****     }
 2367              		.loc 2 66 40 view .LVU524
 2368              	.LBE1143:
 2369              	.LBE1148:
 2370              	.LBB1149:
 2371              	.LBB1139:
 2372              		.loc 2 343 55 view .LVU525
 2373 048c 84F84C30 		strb	r3, [r4, #76]
 2374              	.LVL115:
 2375              		.loc 2 343 55 view .LVU526
 2376              	.LBE1139:
 2377              	.LBE1149:
 2378              	.LBB1150:
 2379              	.LBI1140:
  63:../libs/libDaisy/src/dev/mpr121.h ****     {
ARM GAS  C:\Users\matte\AppData\Local\Temp\ccgZTizB.s 			page 60


 2380              		.loc 2 63 10 is_stmt 1 view .LVU527
 2381              	.LBB1144:
  65:../libs/libDaisy/src/dev/mpr121.h ****                != i2c_.TransmitBlocking(config_.dev_addr, data, size, 10);
 2382              		.loc 2 65 9 view .LVU528
  66:../libs/libDaisy/src/dev/mpr121.h ****     }
 2383              		.loc 2 66 40 is_stmt 0 view .LVU529
 2384 0490 0223     		movs	r3, #2
 2385 0492 FFF7FEFF 		bl	_ZN5daisy9I2CHandle16TransmitBlockingEtPhtm
 2386              	.LVL116:
  66:../libs/libDaisy/src/dev/mpr121.h ****     }
 2387              		.loc 2 66 40 view .LVU530
 2388              	.LBE1144:
 2389              	.LBE1150:
 2390              	.LBB1151:
 2391              	.LBI1151:
 2392              		.loc 2 343 10 is_stmt 1 view .LVU531
 2393              	.LBE1151:
 2394              	.LBB1155:
 2395              	.LBB1156:
  66:../libs/libDaisy/src/dev/mpr121.h ****     }
 2396              		.loc 2 66 40 is_stmt 0 view .LVU532
 2397 0496 0097     		str	r7, [sp]
 2398              	.LBE1156:
 2399              	.LBE1155:
 2400              	.LBB1161:
 2401              	.LBB1152:
 2402              		.loc 2 343 55 view .LVU533
 2403 0498 94F84C30 		ldrb	r3, [r4, #76]	@ zero_extendqisi2
 2404              	.LBE1152:
 2405              	.LBE1161:
 2406              	.LBB1162:
 2407              	.LBB1157:
  66:../libs/libDaisy/src/dev/mpr121.h ****     }
 2408              		.loc 2 66 40 view .LVU534
 2409 049c 09AA     		add	r2, sp, #36
 2410 049e 94F84810 		ldrb	r1, [r4, #72]	@ zero_extendqisi2
 2411              	.LBE1157:
 2412              	.LBE1162:
 2413              	.LBB1163:
 2414              	.LBB1153:
 2415              		.loc 2 343 55 view .LVU535
 2416 04a2 4845     		cmp	r0, r9
 2417 04a4 18BF     		it	ne
 2418 04a6 43F00103 		orrne	r3, r3, #1
 2419              	.LBE1153:
 2420              	.LBE1163:
 2421              	.LBB1164:
 2422              	.LBB1158:
  66:../libs/libDaisy/src/dev/mpr121.h ****     }
 2423              		.loc 2 66 40 view .LVU536
 2424 04aa 2846     		mov	r0, r5
 2425              	.LVL117:
  66:../libs/libDaisy/src/dev/mpr121.h ****     }
 2426              		.loc 2 66 40 view .LVU537
 2427              	.LBE1158:
 2428              	.LBE1164:
 282:../libs/libDaisy/src/dev/mpr121.h ****         SetTransportErr(transport_.Write(buff, 2));
ARM GAS  C:\Users\matte\AppData\Local\Temp\ccgZTizB.s 			page 61


 2429              		.loc 2 282 17 view .LVU538
 2430 04ac 8DF82560 		strb	r6, [sp, #37]
 2431              	.LBB1165:
 2432              	.LBB1154:
 2433              		.loc 2 343 55 view .LVU539
 2434 04b0 84F84C30 		strb	r3, [r4, #76]
 2435              	.LVL118:
 2436              		.loc 2 343 55 view .LVU540
 2437              	.LBE1154:
 2438              	.LBE1165:
 2439              	.LBB1166:
 2440              	.LBI1155:
  63:../libs/libDaisy/src/dev/mpr121.h ****     {
 2441              		.loc 2 63 10 is_stmt 1 view .LVU541
 2442              	.LBB1159:
  65:../libs/libDaisy/src/dev/mpr121.h ****                != i2c_.TransmitBlocking(config_.dev_addr, data, size, 10);
 2443              		.loc 2 65 9 view .LVU542
 2444              	.LBE1159:
 2445              	.LBE1166:
 281:../libs/libDaisy/src/dev/mpr121.h ****         buff[1] = value;
 2446              		.loc 2 281 17 is_stmt 0 view .LVU543
 2447 04b4 2C23     		movs	r3, #44
 2448 04b6 8DF82430 		strb	r3, [sp, #36]
 2449              	.LBB1167:
 2450              	.LBB1160:
  66:../libs/libDaisy/src/dev/mpr121.h ****     }
 2451              		.loc 2 66 40 view .LVU544
 2452 04ba 0223     		movs	r3, #2
 2453 04bc FFF7FEFF 		bl	_ZN5daisy9I2CHandle16TransmitBlockingEtPhtm
 2454              	.LVL119:
  66:../libs/libDaisy/src/dev/mpr121.h ****     }
 2455              		.loc 2 66 40 view .LVU545
 2456              	.LBE1160:
 2457              	.LBE1167:
 2458              	.LBB1168:
 2459              	.LBI1168:
 2460              		.loc 2 343 10 is_stmt 1 view .LVU546
 2461              	.LBE1168:
 2462              	.LBB1172:
 2463              	.LBB1173:
  66:../libs/libDaisy/src/dev/mpr121.h ****     }
 2464              		.loc 2 66 40 is_stmt 0 view .LVU547
 2465 04c0 0097     		str	r7, [sp]
 2466              	.LBE1173:
 2467              	.LBE1172:
 2468              	.LBB1177:
 2469              	.LBB1169:
 2470              		.loc 2 343 55 view .LVU548
 2471 04c2 94F84C30 		ldrb	r3, [r4, #76]	@ zero_extendqisi2
 2472              	.LBE1169:
 2473              	.LBE1177:
 2474              	.LBB1178:
 2475              	.LBB1174:
  66:../libs/libDaisy/src/dev/mpr121.h ****     }
 2476              		.loc 2 66 40 view .LVU549
 2477 04c6 09AA     		add	r2, sp, #36
 2478 04c8 94F84810 		ldrb	r1, [r4, #72]	@ zero_extendqisi2
ARM GAS  C:\Users\matte\AppData\Local\Temp\ccgZTizB.s 			page 62


 2479              	.LBE1174:
 2480              	.LBE1178:
 2481              	.LBB1179:
 2482              	.LBB1170:
 2483              		.loc 2 343 55 view .LVU550
 2484 04cc 4845     		cmp	r0, r9
 2485 04ce 18BF     		it	ne
 2486 04d0 43F00103 		orrne	r3, r3, #1
 2487              	.LBE1170:
 2488              	.LBE1179:
 2489              	.LBB1180:
 2490              	.LBB1175:
  66:../libs/libDaisy/src/dev/mpr121.h ****     }
 2491              		.loc 2 66 40 view .LVU551
 2492 04d4 2846     		mov	r0, r5
 2493              	.LVL120:
  66:../libs/libDaisy/src/dev/mpr121.h ****     }
 2494              		.loc 2 66 40 view .LVU552
 2495              	.LBE1175:
 2496              	.LBE1180:
 288:../libs/libDaisy/src/dev/mpr121.h ****             buff[1] = ecr_backup;
 2497              		.loc 2 288 21 view .LVU553
 2498 04d6 8DF82480 		strb	r8, [sp, #36]
 2499              	.LBB1181:
 2500              	.LBB1171:
 2501              		.loc 2 343 55 view .LVU554
 2502 04da 84F84C30 		strb	r3, [r4, #76]
 2503              	.LVL121:
 2504              		.loc 2 343 55 view .LVU555
 2505              	.LBE1171:
 2506              	.LBE1181:
 289:../libs/libDaisy/src/dev/mpr121.h ****             SetTransportErr(transport_.Write(buff, 2));
 2507              		.loc 2 289 21 view .LVU556
 2508 04de 9DF81030 		ldrb	r3, [sp, #16]	@ zero_extendqisi2
 2509 04e2 8DF82530 		strb	r3, [sp, #37]
 2510              	.LVL122:
 2511              	.LBB1182:
 2512              	.LBI1172:
  63:../libs/libDaisy/src/dev/mpr121.h ****     {
 2513              		.loc 2 63 10 is_stmt 1 view .LVU557
 2514              	.LBB1176:
  65:../libs/libDaisy/src/dev/mpr121.h ****                != i2c_.TransmitBlocking(config_.dev_addr, data, size, 10);
 2515              		.loc 2 65 9 view .LVU558
  66:../libs/libDaisy/src/dev/mpr121.h ****     }
 2516              		.loc 2 66 40 is_stmt 0 view .LVU559
 2517 04e6 0223     		movs	r3, #2
 2518 04e8 FFF7FEFF 		bl	_ZN5daisy9I2CHandle16TransmitBlockingEtPhtm
 2519              	.LVL123:
  66:../libs/libDaisy/src/dev/mpr121.h ****     }
 2520              		.loc 2 66 40 view .LVU560
 2521              	.LBE1176:
 2522              	.LBE1182:
 2523              	.LBB1183:
 2524              	.LBI1183:
 2525              		.loc 2 343 10 is_stmt 1 view .LVU561
 2526              	.LBE1183:
 2527              	.LBE1192:
ARM GAS  C:\Users\matte\AppData\Local\Temp\ccgZTizB.s 			page 63


 2528              	.LBE1201:
 2529              	.LBB1202:
 2530              	.LBB1203:
 2531              	.LBB1204:
 2532              	.LBB1205:
  66:../libs/libDaisy/src/dev/mpr121.h ****     }
 2533              		.loc 2 66 40 is_stmt 0 view .LVU562
 2534 04ec 0097     		str	r7, [sp]
 2535              	.LBE1205:
 2536              	.LBE1204:
 2537              	.LBE1203:
 2538              	.LBE1202:
 2539              	.LBB1287:
 2540              	.LBB1193:
 2541              	.LBB1187:
 2542              	.LBB1184:
 2543              		.loc 2 343 55 view .LVU563
 2544 04ee 94F84C30 		ldrb	r3, [r4, #76]	@ zero_extendqisi2
 2545              	.LBE1184:
 2546              	.LBE1187:
 2547              	.LBE1193:
 2548              	.LBE1287:
 2549              	.LBB1288:
 2550              	.LBB1281:
 2551              	.LBB1210:
 2552              	.LBB1206:
  66:../libs/libDaisy/src/dev/mpr121.h ****     }
 2553              		.loc 2 66 40 view .LVU564
 2554 04f2 09AA     		add	r2, sp, #36
 2555 04f4 94F84810 		ldrb	r1, [r4, #72]	@ zero_extendqisi2
 2556              	.LBE1206:
 2557              	.LBE1210:
 2558              	.LBE1281:
 2559              	.LBE1288:
 2560              	.LBB1289:
 2561              	.LBB1194:
 2562              	.LBB1188:
 2563              	.LBB1185:
 2564              		.loc 2 343 55 view .LVU565
 2565 04f8 4845     		cmp	r0, r9
 2566 04fa 18BF     		it	ne
 2567 04fc 43F00103 		orrne	r3, r3, #1
 2568              	.LBE1185:
 2569              	.LBE1188:
 2570              	.LBE1194:
 2571              	.LBE1289:
 2572              	.LBB1290:
 2573              	.LBB1282:
 2574              	.LBB1211:
 2575              	.LBB1207:
  66:../libs/libDaisy/src/dev/mpr121.h ****     }
 2576              		.loc 2 66 40 view .LVU566
 2577 0500 2846     		mov	r0, r5
 2578              	.LVL124:
  66:../libs/libDaisy/src/dev/mpr121.h ****     }
 2579              		.loc 2 66 40 view .LVU567
 2580              	.LBE1207:
ARM GAS  C:\Users\matte\AppData\Local\Temp\ccgZTizB.s 			page 64


 2581              	.LBE1211:
 264:../libs/libDaisy/src/dev/mpr121.h **** 
 2582              		.loc 2 264 17 view .LVU568
 2583 0502 8DF82590 		strb	r9, [sp, #37]
 2584              	.LBE1282:
 2585              	.LBE1290:
 2586              	.LBB1291:
 2587              	.LBB1195:
 2588              	.LBB1189:
 2589              	.LBB1186:
 2590              		.loc 2 343 55 view .LVU569
 2591 0506 84F84C30 		strb	r3, [r4, #76]
 2592              	.LVL125:
 2593              		.loc 2 343 55 view .LVU570
 2594              	.LBE1186:
 2595              	.LBE1189:
 2596              	.LBE1195:
 2597              	.LBE1291:
 2598              	.LBB1292:
 2599              	.LBI1202:
 257:../libs/libDaisy/src/dev/mpr121.h ****     {
 2600              		.loc 2 257 10 is_stmt 1 view .LVU571
 2601              	.LBB1283:
 2602              	.LBB1212:
 2603              	.LBI1204:
  63:../libs/libDaisy/src/dev/mpr121.h ****     {
 2604              		.loc 2 63 10 view .LVU572
 2605              	.LBB1208:
  65:../libs/libDaisy/src/dev/mpr121.h ****                != i2c_.TransmitBlocking(config_.dev_addr, data, size, 10);
 2606              		.loc 2 65 9 view .LVU573
  66:../libs/libDaisy/src/dev/mpr121.h ****     }
 2607              		.loc 2 66 40 is_stmt 0 view .LVU574
 2608 050a 3346     		mov	r3, r6
 2609              	.LBE1208:
 2610              	.LBE1212:
 264:../libs/libDaisy/src/dev/mpr121.h **** 
 2611              		.loc 2 264 17 view .LVU575
 2612 050c 8DF82480 		strb	r8, [sp, #36]
 2613              	.LBB1213:
 2614              	.LBB1209:
  66:../libs/libDaisy/src/dev/mpr121.h ****     }
 2615              		.loc 2 66 40 view .LVU576
 2616 0510 FFF7FEFF 		bl	_ZN5daisy9I2CHandle16TransmitBlockingEtPhtm
 2617              	.LVL126:
  66:../libs/libDaisy/src/dev/mpr121.h ****     }
 2618              		.loc 2 66 40 view .LVU577
 2619              	.LBE1209:
 2620              	.LBE1213:
 2621              	.LBB1214:
 2622              	.LBI1214:
 2623              		.loc 2 343 10 is_stmt 1 view .LVU578
 2624              	.LBE1214:
 2625              	.LBB1218:
 2626              	.LBB1219:
  73:../libs/libDaisy/src/dev/mpr121.h ****     }
 2627              		.loc 2 73 39 is_stmt 0 view .LVU579
 2628 0514 0097     		str	r7, [sp]
ARM GAS  C:\Users\matte\AppData\Local\Temp\ccgZTizB.s 			page 65


 2629 0516 04AA     		add	r2, sp, #16
 2630              	.LBE1219:
 2631              	.LBE1218:
 2632              	.LBB1223:
 2633              	.LBB1215:
 2634              		.loc 2 343 55 view .LVU580
 2635 0518 94F84C30 		ldrb	r3, [r4, #76]	@ zero_extendqisi2
 2636              	.LBE1215:
 2637              	.LBE1223:
 2638              	.LBB1224:
 2639              	.LBB1220:
  73:../libs/libDaisy/src/dev/mpr121.h ****     }
 2640              		.loc 2 73 39 view .LVU581
 2641 051c 94F84810 		ldrb	r1, [r4, #72]	@ zero_extendqisi2
 2642              	.LBE1220:
 2643              	.LBE1224:
 2644              	.LBB1225:
 2645              	.LBB1216:
 2646              		.loc 2 343 55 view .LVU582
 2647 0520 4845     		cmp	r0, r9
 2648 0522 18BF     		it	ne
 2649 0524 43F00103 		orrne	r3, r3, #1
 2650              	.LBE1216:
 2651              	.LBE1225:
 2652              	.LBB1226:
 2653              	.LBB1221:
  73:../libs/libDaisy/src/dev/mpr121.h ****     }
 2654              		.loc 2 73 39 view .LVU583
 2655 0528 2846     		mov	r0, r5
 2656              	.LVL127:
  73:../libs/libDaisy/src/dev/mpr121.h ****     }
 2657              		.loc 2 73 39 view .LVU584
 2658              	.LBE1221:
 2659              	.LBE1226:
 2660              	.LBB1227:
 2661              	.LBB1217:
 2662              		.loc 2 343 55 view .LVU585
 2663 052a 84F84C30 		strb	r3, [r4, #76]
 2664              	.LVL128:
 2665              		.loc 2 343 55 view .LVU586
 2666              	.LBE1217:
 2667              	.LBE1227:
 2668              	.LBB1228:
 2669              	.LBI1218:
  70:../libs/libDaisy/src/dev/mpr121.h ****     {
 2670              		.loc 2 70 10 is_stmt 1 view .LVU587
 2671              	.LBB1222:
  72:../libs/libDaisy/src/dev/mpr121.h ****                != i2c_.ReceiveBlocking(config_.dev_addr, data, size, 10);
 2672              		.loc 2 72 9 view .LVU588
  73:../libs/libDaisy/src/dev/mpr121.h ****     }
 2673              		.loc 2 73 39 is_stmt 0 view .LVU589
 2674 052e 3346     		mov	r3, r6
 2675 0530 FFF7FEFF 		bl	_ZN5daisy9I2CHandle15ReceiveBlockingEtPhtm
 2676              	.LVL129:
  73:../libs/libDaisy/src/dev/mpr121.h ****     }
 2677              		.loc 2 73 39 view .LVU590
 2678              	.LBE1222:
ARM GAS  C:\Users\matte\AppData\Local\Temp\ccgZTizB.s 			page 66


 2679              	.LBE1228:
 2680              	.LBB1229:
 2681              	.LBI1229:
 2682              		.loc 2 343 10 is_stmt 1 view .LVU591
 2683              	.LBE1229:
 2684              	.LBB1233:
 2685              	.LBB1234:
  66:../libs/libDaisy/src/dev/mpr121.h ****     }
 2686              		.loc 2 66 40 is_stmt 0 view .LVU592
 2687 0534 0097     		str	r7, [sp]
 2688              	.LBE1234:
 2689              	.LBE1233:
 2690              	.LBB1238:
 2691              	.LBB1230:
 2692              		.loc 2 343 55 view .LVU593
 2693 0536 94F84C30 		ldrb	r3, [r4, #76]	@ zero_extendqisi2
 2694              	.LBE1230:
 2695              	.LBE1238:
 2696              	.LBB1239:
 2697              	.LBB1235:
  66:../libs/libDaisy/src/dev/mpr121.h ****     }
 2698              		.loc 2 66 40 view .LVU594
 2699 053a 09AA     		add	r2, sp, #36
 2700 053c 94F84810 		ldrb	r1, [r4, #72]	@ zero_extendqisi2
 2701              	.LBE1235:
 2702              	.LBE1239:
 2703              	.LBB1240:
 2704              	.LBB1231:
 2705              		.loc 2 343 55 view .LVU595
 2706 0540 4845     		cmp	r0, r9
 2707 0542 18BF     		it	ne
 2708 0544 43F00103 		orrne	r3, r3, #1
 2709              	.LBE1231:
 2710              	.LBE1240:
 2711              	.LBB1241:
 2712              	.LBB1236:
  66:../libs/libDaisy/src/dev/mpr121.h ****     }
 2713              		.loc 2 66 40 view .LVU596
 2714 0548 2846     		mov	r0, r5
 2715              	.LVL130:
  66:../libs/libDaisy/src/dev/mpr121.h ****     }
 2716              		.loc 2 66 40 view .LVU597
 2717              	.LBE1236:
 2718              	.LBE1241:
 2719              	.LBB1242:
 2720              	.LBB1232:
 2721              		.loc 2 343 55 view .LVU598
 2722 054a 84F84C30 		strb	r3, [r4, #76]
 2723              	.LVL131:
 2724              		.loc 2 343 55 view .LVU599
 2725              	.LBE1232:
 2726              	.LBE1242:
 2727              	.LBB1243:
 2728              	.LBI1233:
  63:../libs/libDaisy/src/dev/mpr121.h ****     {
 2729              		.loc 2 63 10 is_stmt 1 view .LVU600
 2730              	.LBB1237:
ARM GAS  C:\Users\matte\AppData\Local\Temp\ccgZTizB.s 			page 67


  65:../libs/libDaisy/src/dev/mpr121.h ****                != i2c_.TransmitBlocking(config_.dev_addr, data, size, 10);
 2731              		.loc 2 65 9 view .LVU601
  66:../libs/libDaisy/src/dev/mpr121.h ****     }
 2732              		.loc 2 66 40 is_stmt 0 view .LVU602
 2733 054e 0223     		movs	r3, #2
 2734 0550 FFF7FEFF 		bl	_ZN5daisy9I2CHandle16TransmitBlockingEtPhtm
 2735              	.LVL132:
  66:../libs/libDaisy/src/dev/mpr121.h ****     }
 2736              		.loc 2 66 40 view .LVU603
 2737              	.LBE1237:
 2738              	.LBE1243:
 2739              	.LBB1244:
 2740              	.LBI1244:
 2741              		.loc 2 343 10 is_stmt 1 view .LVU604
 2742              	.LBE1244:
 2743              	.LBB1248:
 2744              	.LBB1249:
  66:../libs/libDaisy/src/dev/mpr121.h ****     }
 2745              		.loc 2 66 40 is_stmt 0 view .LVU605
 2746 0554 0097     		str	r7, [sp]
 2747              	.LBE1249:
 2748              	.LBE1248:
 2749              	.LBB1253:
 2750              	.LBB1245:
 2751              		.loc 2 343 55 view .LVU606
 2752 0556 94F84C30 		ldrb	r3, [r4, #76]	@ zero_extendqisi2
 2753              	.LBE1245:
 2754              	.LBE1253:
 2755              	.LBB1254:
 2756              	.LBB1250:
  66:../libs/libDaisy/src/dev/mpr121.h ****     }
 2757              		.loc 2 66 40 view .LVU607
 2758 055a 09AA     		add	r2, sp, #36
 2759 055c 94F84810 		ldrb	r1, [r4, #72]	@ zero_extendqisi2
 2760              	.LBE1250:
 2761              	.LBE1254:
 2762              	.LBB1255:
 2763              	.LBB1246:
 2764              		.loc 2 343 55 view .LVU608
 2765 0560 4845     		cmp	r0, r9
 2766 0562 18BF     		it	ne
 2767 0564 43F00103 		orrne	r3, r3, #1
 2768              	.LBE1246:
 2769              	.LBE1255:
 2770              	.LBB1256:
 2771              	.LBB1251:
  66:../libs/libDaisy/src/dev/mpr121.h ****     }
 2772              		.loc 2 66 40 view .LVU609
 2773 0568 2846     		mov	r0, r5
 2774              	.LVL133:
  66:../libs/libDaisy/src/dev/mpr121.h ****     }
 2775              		.loc 2 66 40 view .LVU610
 2776              	.LBE1251:
 2777              	.LBE1256:
 2778              	.LBB1257:
 2779              	.LBB1247:
 2780              		.loc 2 343 55 view .LVU611
ARM GAS  C:\Users\matte\AppData\Local\Temp\ccgZTizB.s 			page 68


 2781 056a 84F84C30 		strb	r3, [r4, #76]
 2782              	.LVL134:
 2783              		.loc 2 343 55 view .LVU612
 2784              	.LBE1247:
 2785              	.LBE1257:
 281:../libs/libDaisy/src/dev/mpr121.h ****         buff[1] = value;
 2786              		.loc 2 281 17 view .LVU613
 2787 056e 2D23     		movs	r3, #45
 2788 0570 8DF82430 		strb	r3, [sp, #36]
 282:../libs/libDaisy/src/dev/mpr121.h ****         SetTransportErr(transport_.Write(buff, 2));
 2789              		.loc 2 282 17 view .LVU614
 2790 0574 0E23     		movs	r3, #14
 2791 0576 8DF82530 		strb	r3, [sp, #37]
 2792              	.LVL135:
 2793              	.LBB1258:
 2794              	.LBI1248:
  63:../libs/libDaisy/src/dev/mpr121.h ****     {
 2795              		.loc 2 63 10 is_stmt 1 view .LVU615
 2796              	.LBB1252:
  65:../libs/libDaisy/src/dev/mpr121.h ****                != i2c_.TransmitBlocking(config_.dev_addr, data, size, 10);
 2797              		.loc 2 65 9 view .LVU616
  66:../libs/libDaisy/src/dev/mpr121.h ****     }
 2798              		.loc 2 66 40 is_stmt 0 view .LVU617
 2799 057a 0223     		movs	r3, #2
 2800 057c FFF7FEFF 		bl	_ZN5daisy9I2CHandle16TransmitBlockingEtPhtm
 2801              	.LVL136:
  66:../libs/libDaisy/src/dev/mpr121.h ****     }
 2802              		.loc 2 66 40 view .LVU618
 2803              	.LBE1252:
 2804              	.LBE1258:
 2805              	.LBB1259:
 2806              	.LBI1259:
 2807              		.loc 2 343 10 is_stmt 1 view .LVU619
 2808              	.LBE1259:
 2809              	.LBB1263:
 2810              	.LBB1264:
  66:../libs/libDaisy/src/dev/mpr121.h ****     }
 2811              		.loc 2 66 40 is_stmt 0 view .LVU620
 2812 0580 0097     		str	r7, [sp]
 2813              	.LBE1264:
 2814              	.LBE1263:
 2815              	.LBB1268:
 2816              	.LBB1260:
 2817              		.loc 2 343 55 view .LVU621
 2818 0582 94F84C30 		ldrb	r3, [r4, #76]	@ zero_extendqisi2
 2819              	.LBE1260:
 2820              	.LBE1268:
 2821              	.LBB1269:
 2822              	.LBB1265:
  66:../libs/libDaisy/src/dev/mpr121.h ****     }
 2823              		.loc 2 66 40 view .LVU622
 2824 0586 09AA     		add	r2, sp, #36
 2825 0588 94F84810 		ldrb	r1, [r4, #72]	@ zero_extendqisi2
 2826              	.LBE1265:
 2827              	.LBE1269:
 2828              	.LBB1270:
 2829              	.LBB1261:
ARM GAS  C:\Users\matte\AppData\Local\Temp\ccgZTizB.s 			page 69


 2830              		.loc 2 343 55 view .LVU623
 2831 058c 4845     		cmp	r0, r9
 2832 058e 18BF     		it	ne
 2833 0590 43F00103 		orrne	r3, r3, #1
 2834              	.LBE1261:
 2835              	.LBE1270:
 2836              	.LBB1271:
 2837              	.LBB1266:
  66:../libs/libDaisy/src/dev/mpr121.h ****     }
 2838              		.loc 2 66 40 view .LVU624
 2839 0594 2846     		mov	r0, r5
 2840              	.LVL137:
  66:../libs/libDaisy/src/dev/mpr121.h ****     }
 2841              		.loc 2 66 40 view .LVU625
 2842              	.LBE1266:
 2843              	.LBE1271:
 288:../libs/libDaisy/src/dev/mpr121.h ****             buff[1] = ecr_backup;
 2844              		.loc 2 288 21 view .LVU626
 2845 0596 8DF82480 		strb	r8, [sp, #36]
 2846              	.LBB1272:
 2847              	.LBB1262:
 2848              		.loc 2 343 55 view .LVU627
 2849 059a 84F84C30 		strb	r3, [r4, #76]
 2850              	.LVL138:
 2851              		.loc 2 343 55 view .LVU628
 2852              	.LBE1262:
 2853              	.LBE1272:
 289:../libs/libDaisy/src/dev/mpr121.h ****             SetTransportErr(transport_.Write(buff, 2));
 2854              		.loc 2 289 21 view .LVU629
 2855 059e 9DF81030 		ldrb	r3, [sp, #16]	@ zero_extendqisi2
 2856 05a2 8DF82530 		strb	r3, [sp, #37]
 2857              	.LVL139:
 2858              	.LBB1273:
 2859              	.LBI1263:
  63:../libs/libDaisy/src/dev/mpr121.h ****     {
 2860              		.loc 2 63 10 is_stmt 1 view .LVU630
 2861              	.LBB1267:
  65:../libs/libDaisy/src/dev/mpr121.h ****                != i2c_.TransmitBlocking(config_.dev_addr, data, size, 10);
 2862              		.loc 2 65 9 view .LVU631
  66:../libs/libDaisy/src/dev/mpr121.h ****     }
 2863              		.loc 2 66 40 is_stmt 0 view .LVU632
 2864 05a6 0223     		movs	r3, #2
 2865 05a8 FFF7FEFF 		bl	_ZN5daisy9I2CHandle16TransmitBlockingEtPhtm
 2866              	.LVL140:
  66:../libs/libDaisy/src/dev/mpr121.h ****     }
 2867              		.loc 2 66 40 view .LVU633
 2868              	.LBE1267:
 2869              	.LBE1273:
 2870              	.LBB1274:
 2871              	.LBI1274:
 2872              		.loc 2 343 10 is_stmt 1 view .LVU634
 2873              	.LBE1274:
 2874              	.LBE1283:
 2875              	.LBE1292:
 2876              	.LBB1293:
 2877              	.LBB1294:
 2878              	.LBB1295:
ARM GAS  C:\Users\matte\AppData\Local\Temp\ccgZTizB.s 			page 70


 2879              	.LBB1296:
  66:../libs/libDaisy/src/dev/mpr121.h ****     }
 2880              		.loc 2 66 40 is_stmt 0 view .LVU635
 2881 05ac 0097     		str	r7, [sp]
 2882              	.LBE1296:
 2883              	.LBE1295:
 2884              	.LBE1294:
 2885              	.LBE1293:
 2886              	.LBB1380:
 2887              	.LBB1284:
 2888              	.LBB1278:
 2889              	.LBB1275:
 2890              		.loc 2 343 55 view .LVU636
 2891 05ae 94F84C30 		ldrb	r3, [r4, #76]	@ zero_extendqisi2
 2892              	.LBE1275:
 2893              	.LBE1278:
 2894              	.LBE1284:
 2895              	.LBE1380:
 2896              	.LBB1381:
 2897              	.LBB1374:
 2898              	.LBB1301:
 2899              	.LBB1297:
  66:../libs/libDaisy/src/dev/mpr121.h ****     }
 2900              		.loc 2 66 40 view .LVU637
 2901 05b2 09AA     		add	r2, sp, #36
 2902 05b4 94F84810 		ldrb	r1, [r4, #72]	@ zero_extendqisi2
 2903              	.LBE1297:
 2904              	.LBE1301:
 2905              	.LBE1374:
 2906              	.LBE1381:
 2907              	.LBB1382:
 2908              	.LBB1285:
 2909              	.LBB1279:
 2910              	.LBB1276:
 2911              		.loc 2 343 55 view .LVU638
 2912 05b8 4845     		cmp	r0, r9
 2913 05ba 18BF     		it	ne
 2914 05bc 43F00103 		orrne	r3, r3, #1
 2915              	.LBE1276:
 2916              	.LBE1279:
 2917              	.LBE1285:
 2918              	.LBE1382:
 2919              	.LBB1383:
 2920              	.LBB1375:
 2921              	.LBB1302:
 2922              	.LBB1298:
  66:../libs/libDaisy/src/dev/mpr121.h ****     }
 2923              		.loc 2 66 40 view .LVU639
 2924 05c0 2846     		mov	r0, r5
 2925              	.LVL141:
  66:../libs/libDaisy/src/dev/mpr121.h ****     }
 2926              		.loc 2 66 40 view .LVU640
 2927              	.LBE1298:
 2928              	.LBE1302:
 264:../libs/libDaisy/src/dev/mpr121.h **** 
 2929              		.loc 2 264 17 view .LVU641
 2930 05c2 8DF82590 		strb	r9, [sp, #37]
ARM GAS  C:\Users\matte\AppData\Local\Temp\ccgZTizB.s 			page 71


 2931              	.LBE1375:
 2932              	.LBE1383:
 2933              	.LBB1384:
 2934              	.LBB1286:
 2935              	.LBB1280:
 2936              	.LBB1277:
 2937              		.loc 2 343 55 view .LVU642
 2938 05c6 84F84C30 		strb	r3, [r4, #76]
 2939              	.LVL142:
 2940              		.loc 2 343 55 view .LVU643
 2941              	.LBE1277:
 2942              	.LBE1280:
 2943              	.LBE1286:
 2944              	.LBE1384:
 2945              	.LBB1385:
 2946              	.LBI1293:
 257:../libs/libDaisy/src/dev/mpr121.h ****     {
 2947              		.loc 2 257 10 is_stmt 1 view .LVU644
 2948              	.LBB1376:
 2949              	.LBB1303:
 2950              	.LBI1295:
  63:../libs/libDaisy/src/dev/mpr121.h ****     {
 2951              		.loc 2 63 10 view .LVU645
 2952              	.LBB1299:
  65:../libs/libDaisy/src/dev/mpr121.h ****                != i2c_.TransmitBlocking(config_.dev_addr, data, size, 10);
 2953              		.loc 2 65 9 view .LVU646
  66:../libs/libDaisy/src/dev/mpr121.h ****     }
 2954              		.loc 2 66 40 is_stmt 0 view .LVU647
 2955 05ca 3346     		mov	r3, r6
 2956              	.LBE1299:
 2957              	.LBE1303:
 264:../libs/libDaisy/src/dev/mpr121.h **** 
 2958              		.loc 2 264 17 view .LVU648
 2959 05cc 8DF82480 		strb	r8, [sp, #36]
 2960              	.LBB1304:
 2961              	.LBB1300:
  66:../libs/libDaisy/src/dev/mpr121.h ****     }
 2962              		.loc 2 66 40 view .LVU649
 2963 05d0 FFF7FEFF 		bl	_ZN5daisy9I2CHandle16TransmitBlockingEtPhtm
 2964              	.LVL143:
  66:../libs/libDaisy/src/dev/mpr121.h ****     }
 2965              		.loc 2 66 40 view .LVU650
 2966              	.LBE1300:
 2967              	.LBE1304:
 2968              	.LBB1305:
 2969              	.LBI1305:
 2970              		.loc 2 343 10 is_stmt 1 view .LVU651
 2971              	.LBE1305:
 2972              	.LBB1309:
 2973              	.LBB1310:
  73:../libs/libDaisy/src/dev/mpr121.h ****     }
 2974              		.loc 2 73 39 is_stmt 0 view .LVU652
 2975 05d4 0097     		str	r7, [sp]
 2976 05d6 04AA     		add	r2, sp, #16
 2977              	.LBE1310:
 2978              	.LBE1309:
 2979              	.LBB1314:
ARM GAS  C:\Users\matte\AppData\Local\Temp\ccgZTizB.s 			page 72


 2980              	.LBB1306:
 2981              		.loc 2 343 55 view .LVU653
 2982 05d8 94F84C30 		ldrb	r3, [r4, #76]	@ zero_extendqisi2
 2983              	.LBE1306:
 2984              	.LBE1314:
 2985              	.LBB1315:
 2986              	.LBB1311:
  73:../libs/libDaisy/src/dev/mpr121.h ****     }
 2987              		.loc 2 73 39 view .LVU654
 2988 05dc 94F84810 		ldrb	r1, [r4, #72]	@ zero_extendqisi2
 2989              	.LBE1311:
 2990              	.LBE1315:
 2991              	.LBB1316:
 2992              	.LBB1307:
 2993              		.loc 2 343 55 view .LVU655
 2994 05e0 4845     		cmp	r0, r9
 2995 05e2 18BF     		it	ne
 2996 05e4 43F00103 		orrne	r3, r3, #1
 2997              	.LBE1307:
 2998              	.LBE1316:
 2999              	.LBB1317:
 3000              	.LBB1312:
  73:../libs/libDaisy/src/dev/mpr121.h ****     }
 3001              		.loc 2 73 39 view .LVU656
 3002 05e8 2846     		mov	r0, r5
 3003              	.LVL144:
  73:../libs/libDaisy/src/dev/mpr121.h ****     }
 3004              		.loc 2 73 39 view .LVU657
 3005              	.LBE1312:
 3006              	.LBE1317:
 3007              	.LBB1318:
 3008              	.LBB1308:
 3009              		.loc 2 343 55 view .LVU658
 3010 05ea 84F84C30 		strb	r3, [r4, #76]
 3011              	.LVL145:
 3012              		.loc 2 343 55 view .LVU659
 3013              	.LBE1308:
 3014              	.LBE1318:
 3015              	.LBB1319:
 3016              	.LBI1309:
  70:../libs/libDaisy/src/dev/mpr121.h ****     {
 3017              		.loc 2 70 10 is_stmt 1 view .LVU660
 3018              	.LBB1313:
  72:../libs/libDaisy/src/dev/mpr121.h ****                != i2c_.ReceiveBlocking(config_.dev_addr, data, size, 10);
 3019              		.loc 2 72 9 view .LVU661
  73:../libs/libDaisy/src/dev/mpr121.h ****     }
 3020              		.loc 2 73 39 is_stmt 0 view .LVU662
 3021 05ee 3346     		mov	r3, r6
 3022 05f0 FFF7FEFF 		bl	_ZN5daisy9I2CHandle15ReceiveBlockingEtPhtm
 3023              	.LVL146:
  73:../libs/libDaisy/src/dev/mpr121.h ****     }
 3024              		.loc 2 73 39 view .LVU663
 3025              	.LBE1313:
 3026              	.LBE1319:
 3027              	.LBB1320:
 3028              	.LBI1320:
 3029              		.loc 2 343 10 is_stmt 1 view .LVU664
ARM GAS  C:\Users\matte\AppData\Local\Temp\ccgZTizB.s 			page 73


 3030              	.LBE1320:
 3031              	.LBB1324:
 3032              	.LBB1325:
  66:../libs/libDaisy/src/dev/mpr121.h ****     }
 3033              		.loc 2 66 40 is_stmt 0 view .LVU665
 3034 05f4 0097     		str	r7, [sp]
 3035              	.LBE1325:
 3036              	.LBE1324:
 3037              	.LBB1329:
 3038              	.LBB1321:
 3039              		.loc 2 343 55 view .LVU666
 3040 05f6 94F84C30 		ldrb	r3, [r4, #76]	@ zero_extendqisi2
 3041              	.LBE1321:
 3042              	.LBE1329:
 3043              	.LBB1330:
 3044              	.LBB1326:
  66:../libs/libDaisy/src/dev/mpr121.h ****     }
 3045              		.loc 2 66 40 view .LVU667
 3046 05fa 09AA     		add	r2, sp, #36
 3047 05fc 94F84810 		ldrb	r1, [r4, #72]	@ zero_extendqisi2
 3048              	.LBE1326:
 3049              	.LBE1330:
 3050              	.LBB1331:
 3051              	.LBB1322:
 3052              		.loc 2 343 55 view .LVU668
 3053 0600 4845     		cmp	r0, r9
 3054 0602 18BF     		it	ne
 3055 0604 43F00103 		orrne	r3, r3, #1
 3056              	.LBE1322:
 3057              	.LBE1331:
 3058              	.LBB1332:
 3059              	.LBB1327:
  66:../libs/libDaisy/src/dev/mpr121.h ****     }
 3060              		.loc 2 66 40 view .LVU669
 3061 0608 2846     		mov	r0, r5
 3062              	.LVL147:
  66:../libs/libDaisy/src/dev/mpr121.h ****     }
 3063              		.loc 2 66 40 view .LVU670
 3064              	.LBE1327:
 3065              	.LBE1332:
 3066              	.LBB1333:
 3067              	.LBB1323:
 3068              		.loc 2 343 55 view .LVU671
 3069 060a 84F84C30 		strb	r3, [r4, #76]
 3070              	.LVL148:
 3071              		.loc 2 343 55 view .LVU672
 3072              	.LBE1323:
 3073              	.LBE1333:
 3074              	.LBB1334:
 3075              	.LBI1324:
  63:../libs/libDaisy/src/dev/mpr121.h ****     {
 3076              		.loc 2 63 10 is_stmt 1 view .LVU673
 3077              	.LBB1328:
  65:../libs/libDaisy/src/dev/mpr121.h ****                != i2c_.TransmitBlocking(config_.dev_addr, data, size, 10);
 3078              		.loc 2 65 9 view .LVU674
  66:../libs/libDaisy/src/dev/mpr121.h ****     }
 3079              		.loc 2 66 40 is_stmt 0 view .LVU675
ARM GAS  C:\Users\matte\AppData\Local\Temp\ccgZTizB.s 			page 74


 3080 060e 0223     		movs	r3, #2
 3081 0610 FFF7FEFF 		bl	_ZN5daisy9I2CHandle16TransmitBlockingEtPhtm
 3082              	.LVL149:
  66:../libs/libDaisy/src/dev/mpr121.h ****     }
 3083              		.loc 2 66 40 view .LVU676
 3084              	.LBE1328:
 3085              	.LBE1334:
 3086              	.LBB1335:
 3087              	.LBI1335:
 3088              		.loc 2 343 10 is_stmt 1 view .LVU677
 3089              	.LBE1335:
 3090              	.LBB1339:
 3091              	.LBB1340:
  66:../libs/libDaisy/src/dev/mpr121.h ****     }
 3092              		.loc 2 66 40 is_stmt 0 view .LVU678
 3093 0614 0097     		str	r7, [sp]
 3094              	.LBE1340:
 3095              	.LBE1339:
 3096              	.LBB1345:
 3097              	.LBB1336:
 3098              		.loc 2 343 55 view .LVU679
 3099 0616 94F84C30 		ldrb	r3, [r4, #76]	@ zero_extendqisi2
 3100              	.LBE1336:
 3101              	.LBE1345:
 3102              	.LBB1346:
 3103              	.LBB1341:
  66:../libs/libDaisy/src/dev/mpr121.h ****     }
 3104              		.loc 2 66 40 view .LVU680
 3105 061a 09AA     		add	r2, sp, #36
 3106 061c 94F84810 		ldrb	r1, [r4, #72]	@ zero_extendqisi2
 3107              	.LBE1341:
 3108              	.LBE1346:
 3109              	.LBB1347:
 3110              	.LBB1337:
 3111              		.loc 2 343 55 view .LVU681
 3112 0620 4845     		cmp	r0, r9
 3113 0622 18BF     		it	ne
 3114 0624 43F00103 		orrne	r3, r3, #1
 3115              	.LBE1337:
 3116              	.LBE1347:
 3117              	.LBB1348:
 3118              	.LBB1342:
  66:../libs/libDaisy/src/dev/mpr121.h ****     }
 3119              		.loc 2 66 40 view .LVU682
 3120 0628 2846     		mov	r0, r5
 3121              	.LVL150:
  66:../libs/libDaisy/src/dev/mpr121.h ****     }
 3122              		.loc 2 66 40 view .LVU683
 3123              	.LBE1342:
 3124              	.LBE1348:
 282:../libs/libDaisy/src/dev/mpr121.h ****         SetTransportErr(transport_.Write(buff, 2));
 3125              		.loc 2 282 17 view .LVU684
 3126 062a 8DF82590 		strb	r9, [sp, #37]
 3127              	.LBB1349:
 3128              	.LBB1338:
 3129              		.loc 2 343 55 view .LVU685
 3130 062e 84F84C30 		strb	r3, [r4, #76]
ARM GAS  C:\Users\matte\AppData\Local\Temp\ccgZTizB.s 			page 75


 3131              	.LVL151:
 3132              		.loc 2 343 55 view .LVU686
 3133              	.LBE1338:
 3134              	.LBE1349:
 3135              	.LBB1350:
 3136              	.LBI1339:
  63:../libs/libDaisy/src/dev/mpr121.h ****     {
 3137              		.loc 2 63 10 is_stmt 1 view .LVU687
 3138              	.LBB1343:
  65:../libs/libDaisy/src/dev/mpr121.h ****                != i2c_.TransmitBlocking(config_.dev_addr, data, size, 10);
 3139              		.loc 2 65 9 view .LVU688
 3140              	.LBE1343:
 3141              	.LBE1350:
 281:../libs/libDaisy/src/dev/mpr121.h ****         buff[1] = value;
 3142              		.loc 2 281 17 is_stmt 0 view .LVU689
 3143 0632 2E23     		movs	r3, #46
 3144 0634 8DF82430 		strb	r3, [sp, #36]
 3145              	.LBB1351:
 3146              	.LBB1344:
  66:../libs/libDaisy/src/dev/mpr121.h ****     }
 3147              		.loc 2 66 40 view .LVU690
 3148 0638 0223     		movs	r3, #2
 3149 063a FFF7FEFF 		bl	_ZN5daisy9I2CHandle16TransmitBlockingEtPhtm
 3150              	.LVL152:
  66:../libs/libDaisy/src/dev/mpr121.h ****     }
 3151              		.loc 2 66 40 view .LVU691
 3152              	.LBE1344:
 3153              	.LBE1351:
 3154              	.LBB1352:
 3155              	.LBI1352:
 3156              		.loc 2 343 10 is_stmt 1 view .LVU692
 3157              	.LBE1352:
 3158              	.LBB1356:
 3159              	.LBB1357:
  66:../libs/libDaisy/src/dev/mpr121.h ****     }
 3160              		.loc 2 66 40 is_stmt 0 view .LVU693
 3161 063e 0097     		str	r7, [sp]
 3162              	.LBE1357:
 3163              	.LBE1356:
 3164              	.LBB1361:
 3165              	.LBB1353:
 3166              		.loc 2 343 55 view .LVU694
 3167 0640 94F84C30 		ldrb	r3, [r4, #76]	@ zero_extendqisi2
 3168              	.LBE1353:
 3169              	.LBE1361:
 3170              	.LBB1362:
 3171              	.LBB1358:
  66:../libs/libDaisy/src/dev/mpr121.h ****     }
 3172              		.loc 2 66 40 view .LVU695
 3173 0644 09AA     		add	r2, sp, #36
 3174 0646 94F84810 		ldrb	r1, [r4, #72]	@ zero_extendqisi2
 3175              	.LBE1358:
 3176              	.LBE1362:
 3177              	.LBB1363:
 3178              	.LBB1354:
 3179              		.loc 2 343 55 view .LVU696
 3180 064a 4845     		cmp	r0, r9
ARM GAS  C:\Users\matte\AppData\Local\Temp\ccgZTizB.s 			page 76


 3181 064c 18BF     		it	ne
 3182 064e 43F00103 		orrne	r3, r3, #1
 3183              	.LBE1354:
 3184              	.LBE1363:
 3185              	.LBB1364:
 3186              	.LBB1359:
  66:../libs/libDaisy/src/dev/mpr121.h ****     }
 3187              		.loc 2 66 40 view .LVU697
 3188 0652 2846     		mov	r0, r5
 3189              	.LVL153:
  66:../libs/libDaisy/src/dev/mpr121.h ****     }
 3190              		.loc 2 66 40 view .LVU698
 3191              	.LBE1359:
 3192              	.LBE1364:
 288:../libs/libDaisy/src/dev/mpr121.h ****             buff[1] = ecr_backup;
 3193              		.loc 2 288 21 view .LVU699
 3194 0654 8DF82480 		strb	r8, [sp, #36]
 3195              	.LBB1365:
 3196              	.LBB1355:
 3197              		.loc 2 343 55 view .LVU700
 3198 0658 84F84C30 		strb	r3, [r4, #76]
 3199              	.LVL154:
 3200              		.loc 2 343 55 view .LVU701
 3201              	.LBE1355:
 3202              	.LBE1365:
 289:../libs/libDaisy/src/dev/mpr121.h ****             SetTransportErr(transport_.Write(buff, 2));
 3203              		.loc 2 289 21 view .LVU702
 3204 065c 9DF81030 		ldrb	r3, [sp, #16]	@ zero_extendqisi2
 3205 0660 8DF82530 		strb	r3, [sp, #37]
 3206              	.LVL155:
 3207              	.LBB1366:
 3208              	.LBI1356:
  63:../libs/libDaisy/src/dev/mpr121.h ****     {
 3209              		.loc 2 63 10 is_stmt 1 view .LVU703
 3210              	.LBB1360:
  65:../libs/libDaisy/src/dev/mpr121.h ****                != i2c_.TransmitBlocking(config_.dev_addr, data, size, 10);
 3211              		.loc 2 65 9 view .LVU704
  66:../libs/libDaisy/src/dev/mpr121.h ****     }
 3212              		.loc 2 66 40 is_stmt 0 view .LVU705
 3213 0664 0223     		movs	r3, #2
 3214 0666 FFF7FEFF 		bl	_ZN5daisy9I2CHandle16TransmitBlockingEtPhtm
 3215              	.LVL156:
  66:../libs/libDaisy/src/dev/mpr121.h ****     }
 3216              		.loc 2 66 40 view .LVU706
 3217              	.LBE1360:
 3218              	.LBE1366:
 3219              	.LBB1367:
 3220              	.LBI1367:
 3221              		.loc 2 343 10 is_stmt 1 view .LVU707
 3222              	.LBE1367:
 3223              	.LBE1376:
 3224              	.LBE1385:
 3225              	.LBB1386:
 3226              	.LBB1387:
 3227              	.LBB1388:
 3228              	.LBB1389:
  66:../libs/libDaisy/src/dev/mpr121.h ****     }
ARM GAS  C:\Users\matte\AppData\Local\Temp\ccgZTizB.s 			page 77


 3229              		.loc 2 66 40 is_stmt 0 view .LVU708
 3230 066a 0097     		str	r7, [sp]
 3231              	.LBE1389:
 3232              	.LBE1388:
 3233              	.LBE1387:
 3234              	.LBE1386:
 3235              	.LBB1473:
 3236              	.LBB1377:
 3237              	.LBB1371:
 3238              	.LBB1368:
 3239              		.loc 2 343 55 view .LVU709
 3240 066c 94F84C30 		ldrb	r3, [r4, #76]	@ zero_extendqisi2
 3241              	.LBE1368:
 3242              	.LBE1371:
 3243              	.LBE1377:
 3244              	.LBE1473:
 3245              	.LBB1474:
 3246              	.LBB1467:
 3247              	.LBB1394:
 3248              	.LBB1390:
  66:../libs/libDaisy/src/dev/mpr121.h ****     }
 3249              		.loc 2 66 40 view .LVU710
 3250 0670 09AA     		add	r2, sp, #36
 3251 0672 94F84810 		ldrb	r1, [r4, #72]	@ zero_extendqisi2
 3252              	.LBE1390:
 3253              	.LBE1394:
 3254              	.LBE1467:
 3255              	.LBE1474:
 3256              	.LBB1475:
 3257              	.LBB1378:
 3258              	.LBB1372:
 3259              	.LBB1369:
 3260              		.loc 2 343 55 view .LVU711
 3261 0676 4845     		cmp	r0, r9
 3262 0678 18BF     		it	ne
 3263 067a 43F00103 		orrne	r3, r3, #1
 3264              	.LBE1369:
 3265              	.LBE1372:
 3266              	.LBE1378:
 3267              	.LBE1475:
 3268              	.LBB1476:
 3269              	.LBB1468:
 3270              	.LBB1395:
 3271              	.LBB1391:
  66:../libs/libDaisy/src/dev/mpr121.h ****     }
 3272              		.loc 2 66 40 view .LVU712
 3273 067e 2846     		mov	r0, r5
 3274              	.LVL157:
  66:../libs/libDaisy/src/dev/mpr121.h ****     }
 3275              		.loc 2 66 40 view .LVU713
 3276              	.LBE1391:
 3277              	.LBE1395:
 264:../libs/libDaisy/src/dev/mpr121.h **** 
 3278              		.loc 2 264 17 view .LVU714
 3279 0680 8DF82590 		strb	r9, [sp, #37]
 3280              	.LBE1468:
 3281              	.LBE1476:
ARM GAS  C:\Users\matte\AppData\Local\Temp\ccgZTizB.s 			page 78


 3282              	.LBB1477:
 3283              	.LBB1379:
 3284              	.LBB1373:
 3285              	.LBB1370:
 3286              		.loc 2 343 55 view .LVU715
 3287 0684 84F84C30 		strb	r3, [r4, #76]
 3288              	.LVL158:
 3289              		.loc 2 343 55 view .LVU716
 3290              	.LBE1370:
 3291              	.LBE1373:
 3292              	.LBE1379:
 3293              	.LBE1477:
 3294              	.LBB1478:
 3295              	.LBI1386:
 257:../libs/libDaisy/src/dev/mpr121.h ****     {
 3296              		.loc 2 257 10 is_stmt 1 view .LVU717
 3297              	.LBB1469:
 3298              	.LBB1396:
 3299              	.LBI1388:
  63:../libs/libDaisy/src/dev/mpr121.h ****     {
 3300              		.loc 2 63 10 view .LVU718
 3301              	.LBB1392:
  65:../libs/libDaisy/src/dev/mpr121.h ****                != i2c_.TransmitBlocking(config_.dev_addr, data, size, 10);
 3302              		.loc 2 65 9 view .LVU719
  66:../libs/libDaisy/src/dev/mpr121.h ****     }
 3303              		.loc 2 66 40 is_stmt 0 view .LVU720
 3304 0688 3346     		mov	r3, r6
 3305              	.LBE1392:
 3306              	.LBE1396:
 264:../libs/libDaisy/src/dev/mpr121.h **** 
 3307              		.loc 2 264 17 view .LVU721
 3308 068a 8DF82480 		strb	r8, [sp, #36]
 3309              	.LBB1397:
 3310              	.LBB1393:
  66:../libs/libDaisy/src/dev/mpr121.h ****     }
 3311              		.loc 2 66 40 view .LVU722
 3312 068e FFF7FEFF 		bl	_ZN5daisy9I2CHandle16TransmitBlockingEtPhtm
 3313              	.LVL159:
  66:../libs/libDaisy/src/dev/mpr121.h ****     }
 3314              		.loc 2 66 40 view .LVU723
 3315              	.LBE1393:
 3316              	.LBE1397:
 3317              	.LBB1398:
 3318              	.LBI1398:
 3319              		.loc 2 343 10 is_stmt 1 view .LVU724
 3320              	.LBE1398:
 3321              	.LBB1402:
 3322              	.LBB1403:
  73:../libs/libDaisy/src/dev/mpr121.h ****     }
 3323              		.loc 2 73 39 is_stmt 0 view .LVU725
 3324 0692 0097     		str	r7, [sp]
 3325 0694 04AA     		add	r2, sp, #16
 3326              	.LBE1403:
 3327              	.LBE1402:
 3328              	.LBB1407:
 3329              	.LBB1399:
 3330              		.loc 2 343 55 view .LVU726
ARM GAS  C:\Users\matte\AppData\Local\Temp\ccgZTizB.s 			page 79


 3331 0696 94F84C30 		ldrb	r3, [r4, #76]	@ zero_extendqisi2
 3332              	.LBE1399:
 3333              	.LBE1407:
 3334              	.LBB1408:
 3335              	.LBB1404:
  73:../libs/libDaisy/src/dev/mpr121.h ****     }
 3336              		.loc 2 73 39 view .LVU727
 3337 069a 94F84810 		ldrb	r1, [r4, #72]	@ zero_extendqisi2
 3338              	.LBE1404:
 3339              	.LBE1408:
 3340              	.LBB1409:
 3341              	.LBB1400:
 3342              		.loc 2 343 55 view .LVU728
 3343 069e 4845     		cmp	r0, r9
 3344 06a0 18BF     		it	ne
 3345 06a2 43F00103 		orrne	r3, r3, #1
 3346              	.LBE1400:
 3347              	.LBE1409:
 3348              	.LBB1410:
 3349              	.LBB1405:
  73:../libs/libDaisy/src/dev/mpr121.h ****     }
 3350              		.loc 2 73 39 view .LVU729
 3351 06a6 2846     		mov	r0, r5
 3352              	.LVL160:
  73:../libs/libDaisy/src/dev/mpr121.h ****     }
 3353              		.loc 2 73 39 view .LVU730
 3354              	.LBE1405:
 3355              	.LBE1410:
 3356              	.LBB1411:
 3357              	.LBB1401:
 3358              		.loc 2 343 55 view .LVU731
 3359 06a8 84F84C30 		strb	r3, [r4, #76]
 3360              	.LVL161:
 3361              		.loc 2 343 55 view .LVU732
 3362              	.LBE1401:
 3363              	.LBE1411:
 3364              	.LBB1412:
 3365              	.LBI1402:
  70:../libs/libDaisy/src/dev/mpr121.h ****     {
 3366              		.loc 2 70 10 is_stmt 1 view .LVU733
 3367              	.LBB1406:
  72:../libs/libDaisy/src/dev/mpr121.h ****                != i2c_.ReceiveBlocking(config_.dev_addr, data, size, 10);
 3368              		.loc 2 72 9 view .LVU734
  73:../libs/libDaisy/src/dev/mpr121.h ****     }
 3369              		.loc 2 73 39 is_stmt 0 view .LVU735
 3370 06ac 3346     		mov	r3, r6
 3371 06ae FFF7FEFF 		bl	_ZN5daisy9I2CHandle15ReceiveBlockingEtPhtm
 3372              	.LVL162:
  73:../libs/libDaisy/src/dev/mpr121.h ****     }
 3373              		.loc 2 73 39 view .LVU736
 3374              	.LBE1406:
 3375              	.LBE1412:
 3376              	.LBB1413:
 3377              	.LBI1413:
 3378              		.loc 2 343 10 is_stmt 1 view .LVU737
 3379              	.LBE1413:
 3380              	.LBB1417:
ARM GAS  C:\Users\matte\AppData\Local\Temp\ccgZTizB.s 			page 80


 3381              	.LBB1418:
  66:../libs/libDaisy/src/dev/mpr121.h ****     }
 3382              		.loc 2 66 40 is_stmt 0 view .LVU738
 3383 06b2 0097     		str	r7, [sp]
 3384              	.LBE1418:
 3385              	.LBE1417:
 3386              	.LBB1422:
 3387              	.LBB1414:
 3388              		.loc 2 343 55 view .LVU739
 3389 06b4 94F84C30 		ldrb	r3, [r4, #76]	@ zero_extendqisi2
 3390              	.LBE1414:
 3391              	.LBE1422:
 3392              	.LBB1423:
 3393              	.LBB1419:
  66:../libs/libDaisy/src/dev/mpr121.h ****     }
 3394              		.loc 2 66 40 view .LVU740
 3395 06b8 09AA     		add	r2, sp, #36
 3396 06ba 94F84810 		ldrb	r1, [r4, #72]	@ zero_extendqisi2
 3397              	.LBE1419:
 3398              	.LBE1423:
 3399              	.LBB1424:
 3400              	.LBB1415:
 3401              		.loc 2 343 55 view .LVU741
 3402 06be 4845     		cmp	r0, r9
 3403 06c0 18BF     		it	ne
 3404 06c2 43F00103 		orrne	r3, r3, #1
 3405              	.LBE1415:
 3406              	.LBE1424:
 3407              	.LBB1425:
 3408              	.LBB1420:
  66:../libs/libDaisy/src/dev/mpr121.h ****     }
 3409              		.loc 2 66 40 view .LVU742
 3410 06c6 2846     		mov	r0, r5
 3411              	.LVL163:
  66:../libs/libDaisy/src/dev/mpr121.h ****     }
 3412              		.loc 2 66 40 view .LVU743
 3413              	.LBE1420:
 3414              	.LBE1425:
 3415              	.LBB1426:
 3416              	.LBB1416:
 3417              		.loc 2 343 55 view .LVU744
 3418 06c8 84F84C30 		strb	r3, [r4, #76]
 3419              	.LVL164:
 3420              		.loc 2 343 55 view .LVU745
 3421              	.LBE1416:
 3422              	.LBE1426:
 3423              	.LBB1427:
 3424              	.LBI1417:
  63:../libs/libDaisy/src/dev/mpr121.h ****     {
 3425              		.loc 2 63 10 is_stmt 1 view .LVU746
 3426              	.LBB1421:
  65:../libs/libDaisy/src/dev/mpr121.h ****                != i2c_.TransmitBlocking(config_.dev_addr, data, size, 10);
 3427              		.loc 2 65 9 view .LVU747
  66:../libs/libDaisy/src/dev/mpr121.h ****     }
 3428              		.loc 2 66 40 is_stmt 0 view .LVU748
 3429 06cc 0223     		movs	r3, #2
 3430 06ce FFF7FEFF 		bl	_ZN5daisy9I2CHandle16TransmitBlockingEtPhtm
ARM GAS  C:\Users\matte\AppData\Local\Temp\ccgZTizB.s 			page 81


 3431              	.LVL165:
  66:../libs/libDaisy/src/dev/mpr121.h ****     }
 3432              		.loc 2 66 40 view .LVU749
 3433              	.LBE1421:
 3434              	.LBE1427:
 3435              	.LBB1428:
 3436              	.LBI1428:
 3437              		.loc 2 343 10 is_stmt 1 view .LVU750
 3438              	.LBE1428:
 3439              	.LBB1432:
 3440              	.LBB1433:
  66:../libs/libDaisy/src/dev/mpr121.h ****     }
 3441              		.loc 2 66 40 is_stmt 0 view .LVU751
 3442 06d2 0097     		str	r7, [sp]
 3443              	.LBE1433:
 3444              	.LBE1432:
 3445              	.LBB1438:
 3446              	.LBB1429:
 3447              		.loc 2 343 55 view .LVU752
 3448 06d4 94F84C30 		ldrb	r3, [r4, #76]	@ zero_extendqisi2
 3449              	.LBE1429:
 3450              	.LBE1438:
 3451              	.LBB1439:
 3452              	.LBB1434:
  66:../libs/libDaisy/src/dev/mpr121.h ****     }
 3453              		.loc 2 66 40 view .LVU753
 3454 06d8 09AA     		add	r2, sp, #36
 3455 06da 94F84810 		ldrb	r1, [r4, #72]	@ zero_extendqisi2
 3456              	.LBE1434:
 3457              	.LBE1439:
 3458              	.LBB1440:
 3459              	.LBB1430:
 3460              		.loc 2 343 55 view .LVU754
 3461 06de 4845     		cmp	r0, r9
 3462 06e0 18BF     		it	ne
 3463 06e2 43F00103 		orrne	r3, r3, #1
 3464              	.LBE1430:
 3465              	.LBE1440:
 3466              	.LBB1441:
 3467              	.LBB1435:
  66:../libs/libDaisy/src/dev/mpr121.h ****     }
 3468              		.loc 2 66 40 view .LVU755
 3469 06e6 2846     		mov	r0, r5
 3470              	.LVL166:
  66:../libs/libDaisy/src/dev/mpr121.h ****     }
 3471              		.loc 2 66 40 view .LVU756
 3472              	.LBE1435:
 3473              	.LBE1441:
 282:../libs/libDaisy/src/dev/mpr121.h ****         SetTransportErr(transport_.Write(buff, 2));
 3474              		.loc 2 282 17 view .LVU757
 3475 06e8 8DF82560 		strb	r6, [sp, #37]
 3476              	.LBB1442:
 3477              	.LBB1431:
 3478              		.loc 2 343 55 view .LVU758
 3479 06ec 84F84C30 		strb	r3, [r4, #76]
 3480              	.LVL167:
 3481              		.loc 2 343 55 view .LVU759
ARM GAS  C:\Users\matte\AppData\Local\Temp\ccgZTizB.s 			page 82


 3482              	.LBE1431:
 3483              	.LBE1442:
 3484              	.LBB1443:
 3485              	.LBI1432:
  63:../libs/libDaisy/src/dev/mpr121.h ****     {
 3486              		.loc 2 63 10 is_stmt 1 view .LVU760
 3487              	.LBB1436:
  65:../libs/libDaisy/src/dev/mpr121.h ****                != i2c_.TransmitBlocking(config_.dev_addr, data, size, 10);
 3488              		.loc 2 65 9 view .LVU761
 3489              	.LBE1436:
 3490              	.LBE1443:
 281:../libs/libDaisy/src/dev/mpr121.h ****         buff[1] = value;
 3491              		.loc 2 281 17 is_stmt 0 view .LVU762
 3492 06f0 2F23     		movs	r3, #47
 3493 06f2 8DF82430 		strb	r3, [sp, #36]
 3494              	.LBB1444:
 3495              	.LBB1437:
  66:../libs/libDaisy/src/dev/mpr121.h ****     }
 3496              		.loc 2 66 40 view .LVU763
 3497 06f6 0223     		movs	r3, #2
 3498 06f8 FFF7FEFF 		bl	_ZN5daisy9I2CHandle16TransmitBlockingEtPhtm
 3499              	.LVL168:
  66:../libs/libDaisy/src/dev/mpr121.h ****     }
 3500              		.loc 2 66 40 view .LVU764
 3501              	.LBE1437:
 3502              	.LBE1444:
 3503              	.LBB1445:
 3504              	.LBI1445:
 3505              		.loc 2 343 10 is_stmt 1 view .LVU765
 3506              	.LBE1445:
 3507              	.LBB1449:
 3508              	.LBB1450:
  66:../libs/libDaisy/src/dev/mpr121.h ****     }
 3509              		.loc 2 66 40 is_stmt 0 view .LVU766
 3510 06fc 0097     		str	r7, [sp]
 3511              	.LBE1450:
 3512              	.LBE1449:
 3513              	.LBB1454:
 3514              	.LBB1446:
 3515              		.loc 2 343 55 view .LVU767
 3516 06fe 94F84C30 		ldrb	r3, [r4, #76]	@ zero_extendqisi2
 3517              	.LBE1446:
 3518              	.LBE1454:
 3519              	.LBB1455:
 3520              	.LBB1451:
  66:../libs/libDaisy/src/dev/mpr121.h ****     }
 3521              		.loc 2 66 40 view .LVU768
 3522 0702 09AA     		add	r2, sp, #36
 3523 0704 94F84810 		ldrb	r1, [r4, #72]	@ zero_extendqisi2
 3524              	.LBE1451:
 3525              	.LBE1455:
 3526              	.LBB1456:
 3527              	.LBB1447:
 3528              		.loc 2 343 55 view .LVU769
 3529 0708 4845     		cmp	r0, r9
 3530 070a 18BF     		it	ne
 3531 070c 43F00103 		orrne	r3, r3, #1
ARM GAS  C:\Users\matte\AppData\Local\Temp\ccgZTizB.s 			page 83


 3532              	.LBE1447:
 3533              	.LBE1456:
 3534              	.LBB1457:
 3535              	.LBB1452:
  66:../libs/libDaisy/src/dev/mpr121.h ****     }
 3536              		.loc 2 66 40 view .LVU770
 3537 0710 2846     		mov	r0, r5
 3538              	.LVL169:
  66:../libs/libDaisy/src/dev/mpr121.h ****     }
 3539              		.loc 2 66 40 view .LVU771
 3540              	.LBE1452:
 3541              	.LBE1457:
 288:../libs/libDaisy/src/dev/mpr121.h ****             buff[1] = ecr_backup;
 3542              		.loc 2 288 21 view .LVU772
 3543 0712 8DF82480 		strb	r8, [sp, #36]
 3544              	.LBB1458:
 3545              	.LBB1448:
 3546              		.loc 2 343 55 view .LVU773
 3547 0716 84F84C30 		strb	r3, [r4, #76]
 3548              	.LVL170:
 3549              		.loc 2 343 55 view .LVU774
 3550              	.LBE1448:
 3551              	.LBE1458:
 289:../libs/libDaisy/src/dev/mpr121.h ****             SetTransportErr(transport_.Write(buff, 2));
 3552              		.loc 2 289 21 view .LVU775
 3553 071a 9DF81030 		ldrb	r3, [sp, #16]	@ zero_extendqisi2
 3554 071e 8DF82530 		strb	r3, [sp, #37]
 3555              	.LVL171:
 3556              	.LBB1459:
 3557              	.LBI1449:
  63:../libs/libDaisy/src/dev/mpr121.h ****     {
 3558              		.loc 2 63 10 is_stmt 1 view .LVU776
 3559              	.LBB1453:
  65:../libs/libDaisy/src/dev/mpr121.h ****                != i2c_.TransmitBlocking(config_.dev_addr, data, size, 10);
 3560              		.loc 2 65 9 view .LVU777
  66:../libs/libDaisy/src/dev/mpr121.h ****     }
 3561              		.loc 2 66 40 is_stmt 0 view .LVU778
 3562 0722 0223     		movs	r3, #2
 3563 0724 FFF7FEFF 		bl	_ZN5daisy9I2CHandle16TransmitBlockingEtPhtm
 3564              	.LVL172:
  66:../libs/libDaisy/src/dev/mpr121.h ****     }
 3565              		.loc 2 66 40 view .LVU779
 3566              	.LBE1453:
 3567              	.LBE1459:
 3568              	.LBB1460:
 3569              	.LBI1460:
 3570              		.loc 2 343 10 is_stmt 1 view .LVU780
 3571              	.LBE1460:
 3572              	.LBE1469:
 3573              	.LBE1478:
 3574              	.LBB1479:
 3575              	.LBB1480:
 3576              	.LBB1481:
 3577              	.LBB1482:
  66:../libs/libDaisy/src/dev/mpr121.h ****     }
 3578              		.loc 2 66 40 is_stmt 0 view .LVU781
 3579 0728 0097     		str	r7, [sp]
ARM GAS  C:\Users\matte\AppData\Local\Temp\ccgZTizB.s 			page 84


 3580              	.LBE1482:
 3581              	.LBE1481:
 3582              	.LBE1480:
 3583              	.LBE1479:
 3584              	.LBB1564:
 3585              	.LBB1470:
 3586              	.LBB1464:
 3587              	.LBB1461:
 3588              		.loc 2 343 55 view .LVU782
 3589 072a 94F84C30 		ldrb	r3, [r4, #76]	@ zero_extendqisi2
 3590              	.LBE1461:
 3591              	.LBE1464:
 3592              	.LBE1470:
 3593              	.LBE1564:
 3594              	.LBB1565:
 3595              	.LBB1558:
 3596              	.LBB1487:
 3597              	.LBB1483:
  66:../libs/libDaisy/src/dev/mpr121.h ****     }
 3598              		.loc 2 66 40 view .LVU783
 3599 072e 09AA     		add	r2, sp, #36
 3600 0730 94F84810 		ldrb	r1, [r4, #72]	@ zero_extendqisi2
 3601              	.LBE1483:
 3602              	.LBE1487:
 3603              	.LBE1558:
 3604              	.LBE1565:
 3605              	.LBB1566:
 3606              	.LBB1471:
 3607              	.LBB1465:
 3608              	.LBB1462:
 3609              		.loc 2 343 55 view .LVU784
 3610 0734 4845     		cmp	r0, r9
 3611 0736 18BF     		it	ne
 3612 0738 43F00103 		orrne	r3, r3, #1
 3613              	.LBE1462:
 3614              	.LBE1465:
 3615              	.LBE1471:
 3616              	.LBE1566:
 3617              	.LBB1567:
 3618              	.LBB1559:
 3619              	.LBB1488:
 3620              	.LBB1484:
  66:../libs/libDaisy/src/dev/mpr121.h ****     }
 3621              		.loc 2 66 40 view .LVU785
 3622 073c 2846     		mov	r0, r5
 3623              	.LVL173:
  66:../libs/libDaisy/src/dev/mpr121.h ****     }
 3624              		.loc 2 66 40 view .LVU786
 3625              	.LBE1484:
 3626              	.LBE1488:
 264:../libs/libDaisy/src/dev/mpr121.h **** 
 3627              		.loc 2 264 17 view .LVU787
 3628 073e 8DF82590 		strb	r9, [sp, #37]
 3629              	.LBE1559:
 3630              	.LBE1567:
 3631              	.LBB1568:
 3632              	.LBB1472:
ARM GAS  C:\Users\matte\AppData\Local\Temp\ccgZTizB.s 			page 85


 3633              	.LBB1466:
 3634              	.LBB1463:
 3635              		.loc 2 343 55 view .LVU788
 3636 0742 84F84C30 		strb	r3, [r4, #76]
 3637              	.LVL174:
 3638              		.loc 2 343 55 view .LVU789
 3639              	.LBE1463:
 3640              	.LBE1466:
 3641              	.LBE1472:
 3642              	.LBE1568:
 3643              	.LBB1569:
 3644              	.LBI1479:
 257:../libs/libDaisy/src/dev/mpr121.h ****     {
 3645              		.loc 2 257 10 is_stmt 1 view .LVU790
 3646              	.LBB1560:
 3647              	.LBB1489:
 3648              	.LBI1481:
  63:../libs/libDaisy/src/dev/mpr121.h ****     {
 3649              		.loc 2 63 10 view .LVU791
 3650              	.LBB1485:
  65:../libs/libDaisy/src/dev/mpr121.h ****                != i2c_.TransmitBlocking(config_.dev_addr, data, size, 10);
 3651              		.loc 2 65 9 view .LVU792
  66:../libs/libDaisy/src/dev/mpr121.h ****     }
 3652              		.loc 2 66 40 is_stmt 0 view .LVU793
 3653 0746 3346     		mov	r3, r6
 3654              	.LBE1485:
 3655              	.LBE1489:
 264:../libs/libDaisy/src/dev/mpr121.h **** 
 3656              		.loc 2 264 17 view .LVU794
 3657 0748 8DF82480 		strb	r8, [sp, #36]
 3658              	.LBB1490:
 3659              	.LBB1486:
  66:../libs/libDaisy/src/dev/mpr121.h ****     }
 3660              		.loc 2 66 40 view .LVU795
 3661 074c FFF7FEFF 		bl	_ZN5daisy9I2CHandle16TransmitBlockingEtPhtm
 3662              	.LVL175:
  66:../libs/libDaisy/src/dev/mpr121.h ****     }
 3663              		.loc 2 66 40 view .LVU796
 3664              	.LBE1486:
 3665              	.LBE1490:
 3666              	.LBB1491:
 3667              	.LBI1491:
 3668              		.loc 2 343 10 is_stmt 1 view .LVU797
 3669              	.LBE1491:
 3670              	.LBB1495:
 3671              	.LBB1496:
  73:../libs/libDaisy/src/dev/mpr121.h ****     }
 3672              		.loc 2 73 39 is_stmt 0 view .LVU798
 3673 0750 0097     		str	r7, [sp]
 3674 0752 04AA     		add	r2, sp, #16
 3675              	.LBE1496:
 3676              	.LBE1495:
 3677              	.LBB1500:
 3678              	.LBB1492:
 3679              		.loc 2 343 55 view .LVU799
 3680 0754 94F84C30 		ldrb	r3, [r4, #76]	@ zero_extendqisi2
 3681              	.LBE1492:
ARM GAS  C:\Users\matte\AppData\Local\Temp\ccgZTizB.s 			page 86


 3682              	.LBE1500:
 3683              	.LBB1501:
 3684              	.LBB1497:
  73:../libs/libDaisy/src/dev/mpr121.h ****     }
 3685              		.loc 2 73 39 view .LVU800
 3686 0758 94F84810 		ldrb	r1, [r4, #72]	@ zero_extendqisi2
 3687              	.LBE1497:
 3688              	.LBE1501:
 3689              	.LBB1502:
 3690              	.LBB1493:
 3691              		.loc 2 343 55 view .LVU801
 3692 075c 4845     		cmp	r0, r9
 3693 075e 18BF     		it	ne
 3694 0760 43F00103 		orrne	r3, r3, #1
 3695              	.LBE1493:
 3696              	.LBE1502:
 3697              	.LBB1503:
 3698              	.LBB1498:
  73:../libs/libDaisy/src/dev/mpr121.h ****     }
 3699              		.loc 2 73 39 view .LVU802
 3700 0764 2846     		mov	r0, r5
 3701              	.LVL176:
  73:../libs/libDaisy/src/dev/mpr121.h ****     }
 3702              		.loc 2 73 39 view .LVU803
 3703              	.LBE1498:
 3704              	.LBE1503:
 3705              	.LBB1504:
 3706              	.LBB1494:
 3707              		.loc 2 343 55 view .LVU804
 3708 0766 84F84C30 		strb	r3, [r4, #76]
 3709              	.LVL177:
 3710              		.loc 2 343 55 view .LVU805
 3711              	.LBE1494:
 3712              	.LBE1504:
 3713              	.LBB1505:
 3714              	.LBI1495:
  70:../libs/libDaisy/src/dev/mpr121.h ****     {
 3715              		.loc 2 70 10 is_stmt 1 view .LVU806
 3716              	.LBB1499:
  72:../libs/libDaisy/src/dev/mpr121.h ****                != i2c_.ReceiveBlocking(config_.dev_addr, data, size, 10);
 3717              		.loc 2 72 9 view .LVU807
  73:../libs/libDaisy/src/dev/mpr121.h ****     }
 3718              		.loc 2 73 39 is_stmt 0 view .LVU808
 3719 076a 3346     		mov	r3, r6
 3720 076c FFF7FEFF 		bl	_ZN5daisy9I2CHandle15ReceiveBlockingEtPhtm
 3721              	.LVL178:
  73:../libs/libDaisy/src/dev/mpr121.h ****     }
 3722              		.loc 2 73 39 view .LVU809
 3723              	.LBE1499:
 3724              	.LBE1505:
 3725              	.LBB1506:
 3726              	.LBI1506:
 3727              		.loc 2 343 10 is_stmt 1 view .LVU810
 3728              	.LBE1506:
 3729              	.LBB1510:
 3730              	.LBB1511:
  66:../libs/libDaisy/src/dev/mpr121.h ****     }
ARM GAS  C:\Users\matte\AppData\Local\Temp\ccgZTizB.s 			page 87


 3731              		.loc 2 66 40 is_stmt 0 view .LVU811
 3732 0770 0097     		str	r7, [sp]
 3733              	.LBE1511:
 3734              	.LBE1510:
 3735              	.LBB1515:
 3736              	.LBB1507:
 3737              		.loc 2 343 55 view .LVU812
 3738 0772 94F84C30 		ldrb	r3, [r4, #76]	@ zero_extendqisi2
 3739              	.LBE1507:
 3740              	.LBE1515:
 3741              	.LBB1516:
 3742              	.LBB1512:
  66:../libs/libDaisy/src/dev/mpr121.h ****     }
 3743              		.loc 2 66 40 view .LVU813
 3744 0776 09AA     		add	r2, sp, #36
 3745 0778 94F84810 		ldrb	r1, [r4, #72]	@ zero_extendqisi2
 3746              	.LBE1512:
 3747              	.LBE1516:
 3748              	.LBB1517:
 3749              	.LBB1508:
 3750              		.loc 2 343 55 view .LVU814
 3751 077c 4845     		cmp	r0, r9
 3752 077e 18BF     		it	ne
 3753 0780 43F00103 		orrne	r3, r3, #1
 3754              	.LBE1508:
 3755              	.LBE1517:
 3756              	.LBB1518:
 3757              	.LBB1513:
  66:../libs/libDaisy/src/dev/mpr121.h ****     }
 3758              		.loc 2 66 40 view .LVU815
 3759 0784 2846     		mov	r0, r5
 3760              	.LVL179:
  66:../libs/libDaisy/src/dev/mpr121.h ****     }
 3761              		.loc 2 66 40 view .LVU816
 3762              	.LBE1513:
 3763              	.LBE1518:
 3764              	.LBB1519:
 3765              	.LBB1509:
 3766              		.loc 2 343 55 view .LVU817
 3767 0786 84F84C30 		strb	r3, [r4, #76]
 3768              	.LVL180:
 3769              		.loc 2 343 55 view .LVU818
 3770              	.LBE1509:
 3771              	.LBE1519:
 3772              	.LBB1520:
 3773              	.LBI1510:
  63:../libs/libDaisy/src/dev/mpr121.h ****     {
 3774              		.loc 2 63 10 is_stmt 1 view .LVU819
 3775              	.LBB1514:
  65:../libs/libDaisy/src/dev/mpr121.h ****                != i2c_.TransmitBlocking(config_.dev_addr, data, size, 10);
 3776              		.loc 2 65 9 view .LVU820
  66:../libs/libDaisy/src/dev/mpr121.h ****     }
 3777              		.loc 2 66 40 is_stmt 0 view .LVU821
 3778 078a 0223     		movs	r3, #2
 3779 078c FFF7FEFF 		bl	_ZN5daisy9I2CHandle16TransmitBlockingEtPhtm
 3780              	.LVL181:
  66:../libs/libDaisy/src/dev/mpr121.h ****     }
ARM GAS  C:\Users\matte\AppData\Local\Temp\ccgZTizB.s 			page 88


 3781              		.loc 2 66 40 view .LVU822
 3782              	.LBE1514:
 3783              	.LBE1520:
 3784              	.LBB1521:
 3785              	.LBI1521:
 3786              		.loc 2 343 10 is_stmt 1 view .LVU823
 3787              	.LBE1521:
 3788              	.LBB1525:
 3789              	.LBB1526:
  66:../libs/libDaisy/src/dev/mpr121.h ****     }
 3790              		.loc 2 66 40 is_stmt 0 view .LVU824
 3791 0790 0097     		str	r7, [sp]
 3792              	.LBE1526:
 3793              	.LBE1525:
 3794              	.LBB1530:
 3795              	.LBB1522:
 3796              		.loc 2 343 55 view .LVU825
 3797 0792 94F84C30 		ldrb	r3, [r4, #76]	@ zero_extendqisi2
 3798              	.LBE1522:
 3799              	.LBE1530:
 3800              	.LBB1531:
 3801              	.LBB1527:
  66:../libs/libDaisy/src/dev/mpr121.h ****     }
 3802              		.loc 2 66 40 view .LVU826
 3803 0796 09AA     		add	r2, sp, #36
 3804 0798 94F84810 		ldrb	r1, [r4, #72]	@ zero_extendqisi2
 3805              	.LBE1527:
 3806              	.LBE1531:
 3807              	.LBB1532:
 3808              	.LBB1523:
 3809              		.loc 2 343 55 view .LVU827
 3810 079c 4845     		cmp	r0, r9
 3811 079e 18BF     		it	ne
 3812 07a0 43F00103 		orrne	r3, r3, #1
 3813              	.LBE1523:
 3814              	.LBE1532:
 3815              	.LBB1533:
 3816              	.LBB1528:
  66:../libs/libDaisy/src/dev/mpr121.h ****     }
 3817              		.loc 2 66 40 view .LVU828
 3818 07a4 2846     		mov	r0, r5
 3819              	.LVL182:
  66:../libs/libDaisy/src/dev/mpr121.h ****     }
 3820              		.loc 2 66 40 view .LVU829
 3821              	.LBE1528:
 3822              	.LBE1533:
 3823              	.LBB1534:
 3824              	.LBB1524:
 3825              		.loc 2 343 55 view .LVU830
 3826 07a6 84F84C30 		strb	r3, [r4, #76]
 3827              	.LVL183:
 3828              		.loc 2 343 55 view .LVU831
 3829              	.LBE1524:
 3830              	.LBE1534:
 281:../libs/libDaisy/src/dev/mpr121.h ****         buff[1] = value;
 3831              		.loc 2 281 17 view .LVU832
 3832 07aa 3023     		movs	r3, #48
ARM GAS  C:\Users\matte\AppData\Local\Temp\ccgZTizB.s 			page 89


 3833 07ac 8DF82430 		strb	r3, [sp, #36]
 282:../libs/libDaisy/src/dev/mpr121.h ****         SetTransportErr(transport_.Write(buff, 2));
 3834              		.loc 2 282 17 view .LVU833
 3835 07b0 0523     		movs	r3, #5
 3836 07b2 8DF82530 		strb	r3, [sp, #37]
 3837              	.LVL184:
 3838              	.LBB1535:
 3839              	.LBI1525:
  63:../libs/libDaisy/src/dev/mpr121.h ****     {
 3840              		.loc 2 63 10 is_stmt 1 view .LVU834
 3841              	.LBB1529:
  65:../libs/libDaisy/src/dev/mpr121.h ****                != i2c_.TransmitBlocking(config_.dev_addr, data, size, 10);
 3842              		.loc 2 65 9 view .LVU835
  66:../libs/libDaisy/src/dev/mpr121.h ****     }
 3843              		.loc 2 66 40 is_stmt 0 view .LVU836
 3844 07b6 0223     		movs	r3, #2
 3845 07b8 FFF7FEFF 		bl	_ZN5daisy9I2CHandle16TransmitBlockingEtPhtm
 3846              	.LVL185:
  66:../libs/libDaisy/src/dev/mpr121.h ****     }
 3847              		.loc 2 66 40 view .LVU837
 3848              	.LBE1529:
 3849              	.LBE1535:
 3850              	.LBB1536:
 3851              	.LBI1536:
 3852              		.loc 2 343 10 is_stmt 1 view .LVU838
 3853              	.LBE1536:
 3854              	.LBB1540:
 3855              	.LBB1541:
  66:../libs/libDaisy/src/dev/mpr121.h ****     }
 3856              		.loc 2 66 40 is_stmt 0 view .LVU839
 3857 07bc 0097     		str	r7, [sp]
 3858              	.LBE1541:
 3859              	.LBE1540:
 3860              	.LBB1545:
 3861              	.LBB1537:
 3862              		.loc 2 343 55 view .LVU840
 3863 07be 94F84C30 		ldrb	r3, [r4, #76]	@ zero_extendqisi2
 3864              	.LBE1537:
 3865              	.LBE1545:
 3866              	.LBB1546:
 3867              	.LBB1542:
  66:../libs/libDaisy/src/dev/mpr121.h ****     }
 3868              		.loc 2 66 40 view .LVU841
 3869 07c2 09AA     		add	r2, sp, #36
 3870 07c4 94F84810 		ldrb	r1, [r4, #72]	@ zero_extendqisi2
 3871              	.LBE1542:
 3872              	.LBE1546:
 3873              	.LBB1547:
 3874              	.LBB1538:
 3875              		.loc 2 343 55 view .LVU842
 3876 07c8 4845     		cmp	r0, r9
 3877 07ca 18BF     		it	ne
 3878 07cc 43F00103 		orrne	r3, r3, #1
 3879              	.LBE1538:
 3880              	.LBE1547:
 3881              	.LBB1548:
 3882              	.LBB1543:
ARM GAS  C:\Users\matte\AppData\Local\Temp\ccgZTizB.s 			page 90


  66:../libs/libDaisy/src/dev/mpr121.h ****     }
 3883              		.loc 2 66 40 view .LVU843
 3884 07d0 2846     		mov	r0, r5
 3885              	.LVL186:
  66:../libs/libDaisy/src/dev/mpr121.h ****     }
 3886              		.loc 2 66 40 view .LVU844
 3887              	.LBE1543:
 3888              	.LBE1548:
 288:../libs/libDaisy/src/dev/mpr121.h ****             buff[1] = ecr_backup;
 3889              		.loc 2 288 21 view .LVU845
 3890 07d2 8DF82480 		strb	r8, [sp, #36]
 3891              	.LBB1549:
 3892              	.LBB1539:
 3893              		.loc 2 343 55 view .LVU846
 3894 07d6 84F84C30 		strb	r3, [r4, #76]
 3895              	.LVL187:
 3896              		.loc 2 343 55 view .LVU847
 3897              	.LBE1539:
 3898              	.LBE1549:
 289:../libs/libDaisy/src/dev/mpr121.h ****             SetTransportErr(transport_.Write(buff, 2));
 3899              		.loc 2 289 21 view .LVU848
 3900 07da 9DF81030 		ldrb	r3, [sp, #16]	@ zero_extendqisi2
 3901 07de 8DF82530 		strb	r3, [sp, #37]
 3902              	.LVL188:
 3903              	.LBB1550:
 3904              	.LBI1540:
  63:../libs/libDaisy/src/dev/mpr121.h ****     {
 3905              		.loc 2 63 10 is_stmt 1 view .LVU849
 3906              	.LBB1544:
  65:../libs/libDaisy/src/dev/mpr121.h ****                != i2c_.TransmitBlocking(config_.dev_addr, data, size, 10);
 3907              		.loc 2 65 9 view .LVU850
  66:../libs/libDaisy/src/dev/mpr121.h ****     }
 3908              		.loc 2 66 40 is_stmt 0 view .LVU851
 3909 07e2 0223     		movs	r3, #2
 3910 07e4 FFF7FEFF 		bl	_ZN5daisy9I2CHandle16TransmitBlockingEtPhtm
 3911              	.LVL189:
  66:../libs/libDaisy/src/dev/mpr121.h ****     }
 3912              		.loc 2 66 40 view .LVU852
 3913              	.LBE1544:
 3914              	.LBE1550:
 3915              	.LBB1551:
 3916              	.LBI1551:
 3917              		.loc 2 343 10 is_stmt 1 view .LVU853
 3918              	.LBE1551:
 3919              	.LBE1560:
 3920              	.LBE1569:
 3921              	.LBB1570:
 3922              	.LBB1571:
 3923              	.LBB1572:
 3924              	.LBB1573:
  66:../libs/libDaisy/src/dev/mpr121.h ****     }
 3925              		.loc 2 66 40 is_stmt 0 view .LVU854
 3926 07e8 0097     		str	r7, [sp]
 3927              	.LBE1573:
 3928              	.LBE1572:
 3929              	.LBE1571:
 3930              	.LBE1570:
ARM GAS  C:\Users\matte\AppData\Local\Temp\ccgZTizB.s 			page 91


 3931              	.LBB1657:
 3932              	.LBB1561:
 3933              	.LBB1555:
 3934              	.LBB1552:
 3935              		.loc 2 343 55 view .LVU855
 3936 07ea 94F84C30 		ldrb	r3, [r4, #76]	@ zero_extendqisi2
 3937              	.LBE1552:
 3938              	.LBE1555:
 3939              	.LBE1561:
 3940              	.LBE1657:
 3941              	.LBB1658:
 3942              	.LBB1651:
 3943              	.LBB1578:
 3944              	.LBB1574:
  66:../libs/libDaisy/src/dev/mpr121.h ****     }
 3945              		.loc 2 66 40 view .LVU856
 3946 07ee 09AA     		add	r2, sp, #36
 3947 07f0 94F84810 		ldrb	r1, [r4, #72]	@ zero_extendqisi2
 3948              	.LBE1574:
 3949              	.LBE1578:
 3950              	.LBE1651:
 3951              	.LBE1658:
 3952              	.LBB1659:
 3953              	.LBB1562:
 3954              	.LBB1556:
 3955              	.LBB1553:
 3956              		.loc 2 343 55 view .LVU857
 3957 07f4 4845     		cmp	r0, r9
 3958 07f6 18BF     		it	ne
 3959 07f8 43F00103 		orrne	r3, r3, #1
 3960              	.LBE1553:
 3961              	.LBE1556:
 3962              	.LBE1562:
 3963              	.LBE1659:
 3964              	.LBB1660:
 3965              	.LBB1652:
 3966              	.LBB1579:
 3967              	.LBB1575:
  66:../libs/libDaisy/src/dev/mpr121.h ****     }
 3968              		.loc 2 66 40 view .LVU858
 3969 07fc 2846     		mov	r0, r5
 3970              	.LVL190:
  66:../libs/libDaisy/src/dev/mpr121.h ****     }
 3971              		.loc 2 66 40 view .LVU859
 3972              	.LBE1575:
 3973              	.LBE1579:
 264:../libs/libDaisy/src/dev/mpr121.h **** 
 3974              		.loc 2 264 17 view .LVU860
 3975 07fe 8DF82590 		strb	r9, [sp, #37]
 3976              	.LBE1652:
 3977              	.LBE1660:
 3978              	.LBB1661:
 3979              	.LBB1563:
 3980              	.LBB1557:
 3981              	.LBB1554:
 3982              		.loc 2 343 55 view .LVU861
 3983 0802 84F84C30 		strb	r3, [r4, #76]
ARM GAS  C:\Users\matte\AppData\Local\Temp\ccgZTizB.s 			page 92


 3984              	.LVL191:
 3985              		.loc 2 343 55 view .LVU862
 3986              	.LBE1554:
 3987              	.LBE1557:
 3988              	.LBE1563:
 3989              	.LBE1661:
 3990              	.LBB1662:
 3991              	.LBI1570:
 257:../libs/libDaisy/src/dev/mpr121.h ****     {
 3992              		.loc 2 257 10 is_stmt 1 view .LVU863
 3993              	.LBB1653:
 3994              	.LBB1580:
 3995              	.LBI1572:
  63:../libs/libDaisy/src/dev/mpr121.h ****     {
 3996              		.loc 2 63 10 view .LVU864
 3997              	.LBB1576:
  65:../libs/libDaisy/src/dev/mpr121.h ****                != i2c_.TransmitBlocking(config_.dev_addr, data, size, 10);
 3998              		.loc 2 65 9 view .LVU865
  66:../libs/libDaisy/src/dev/mpr121.h ****     }
 3999              		.loc 2 66 40 is_stmt 0 view .LVU866
 4000 0806 3346     		mov	r3, r6
 4001              	.LBE1576:
 4002              	.LBE1580:
 264:../libs/libDaisy/src/dev/mpr121.h **** 
 4003              		.loc 2 264 17 view .LVU867
 4004 0808 8DF82480 		strb	r8, [sp, #36]
 4005              	.LBB1581:
 4006              	.LBB1577:
  66:../libs/libDaisy/src/dev/mpr121.h ****     }
 4007              		.loc 2 66 40 view .LVU868
 4008 080c FFF7FEFF 		bl	_ZN5daisy9I2CHandle16TransmitBlockingEtPhtm
 4009              	.LVL192:
  66:../libs/libDaisy/src/dev/mpr121.h ****     }
 4010              		.loc 2 66 40 view .LVU869
 4011              	.LBE1577:
 4012              	.LBE1581:
 4013              	.LBB1582:
 4014              	.LBI1582:
 4015              		.loc 2 343 10 is_stmt 1 view .LVU870
 4016              	.LBE1582:
 4017              	.LBB1586:
 4018              	.LBB1587:
  73:../libs/libDaisy/src/dev/mpr121.h ****     }
 4019              		.loc 2 73 39 is_stmt 0 view .LVU871
 4020 0810 0097     		str	r7, [sp]
 4021 0812 04AA     		add	r2, sp, #16
 4022              	.LBE1587:
 4023              	.LBE1586:
 4024              	.LBB1591:
 4025              	.LBB1583:
 4026              		.loc 2 343 55 view .LVU872
 4027 0814 94F84C30 		ldrb	r3, [r4, #76]	@ zero_extendqisi2
 4028              	.LBE1583:
 4029              	.LBE1591:
 4030              	.LBB1592:
 4031              	.LBB1588:
  73:../libs/libDaisy/src/dev/mpr121.h ****     }
ARM GAS  C:\Users\matte\AppData\Local\Temp\ccgZTizB.s 			page 93


 4032              		.loc 2 73 39 view .LVU873
 4033 0818 94F84810 		ldrb	r1, [r4, #72]	@ zero_extendqisi2
 4034              	.LBE1588:
 4035              	.LBE1592:
 4036              	.LBB1593:
 4037              	.LBB1584:
 4038              		.loc 2 343 55 view .LVU874
 4039 081c 4845     		cmp	r0, r9
 4040 081e 18BF     		it	ne
 4041 0820 43F00103 		orrne	r3, r3, #1
 4042              	.LBE1584:
 4043              	.LBE1593:
 4044              	.LBB1594:
 4045              	.LBB1589:
  73:../libs/libDaisy/src/dev/mpr121.h ****     }
 4046              		.loc 2 73 39 view .LVU875
 4047 0824 2846     		mov	r0, r5
 4048              	.LVL193:
  73:../libs/libDaisy/src/dev/mpr121.h ****     }
 4049              		.loc 2 73 39 view .LVU876
 4050              	.LBE1589:
 4051              	.LBE1594:
 4052              	.LBB1595:
 4053              	.LBB1585:
 4054              		.loc 2 343 55 view .LVU877
 4055 0826 84F84C30 		strb	r3, [r4, #76]
 4056              	.LVL194:
 4057              		.loc 2 343 55 view .LVU878
 4058              	.LBE1585:
 4059              	.LBE1595:
 4060              	.LBB1596:
 4061              	.LBI1586:
  70:../libs/libDaisy/src/dev/mpr121.h ****     {
 4062              		.loc 2 70 10 is_stmt 1 view .LVU879
 4063              	.LBB1590:
  72:../libs/libDaisy/src/dev/mpr121.h ****                != i2c_.ReceiveBlocking(config_.dev_addr, data, size, 10);
 4064              		.loc 2 72 9 view .LVU880
  73:../libs/libDaisy/src/dev/mpr121.h ****     }
 4065              		.loc 2 73 39 is_stmt 0 view .LVU881
 4066 082a 3346     		mov	r3, r6
 4067 082c FFF7FEFF 		bl	_ZN5daisy9I2CHandle15ReceiveBlockingEtPhtm
 4068              	.LVL195:
  73:../libs/libDaisy/src/dev/mpr121.h ****     }
 4069              		.loc 2 73 39 view .LVU882
 4070              	.LBE1590:
 4071              	.LBE1596:
 4072              	.LBB1597:
 4073              	.LBI1597:
 4074              		.loc 2 343 10 is_stmt 1 view .LVU883
 4075              	.LBE1597:
 4076              	.LBB1601:
 4077              	.LBB1602:
  66:../libs/libDaisy/src/dev/mpr121.h ****     }
 4078              		.loc 2 66 40 is_stmt 0 view .LVU884
 4079 0830 0097     		str	r7, [sp]
 4080              	.LBE1602:
 4081              	.LBE1601:
ARM GAS  C:\Users\matte\AppData\Local\Temp\ccgZTizB.s 			page 94


 4082              	.LBB1606:
 4083              	.LBB1598:
 4084              		.loc 2 343 55 view .LVU885
 4085 0832 94F84C30 		ldrb	r3, [r4, #76]	@ zero_extendqisi2
 4086              	.LBE1598:
 4087              	.LBE1606:
 4088              	.LBB1607:
 4089              	.LBB1603:
  66:../libs/libDaisy/src/dev/mpr121.h ****     }
 4090              		.loc 2 66 40 view .LVU886
 4091 0836 09AA     		add	r2, sp, #36
 4092 0838 94F84810 		ldrb	r1, [r4, #72]	@ zero_extendqisi2
 4093              	.LBE1603:
 4094              	.LBE1607:
 4095              	.LBB1608:
 4096              	.LBB1599:
 4097              		.loc 2 343 55 view .LVU887
 4098 083c 4845     		cmp	r0, r9
 4099 083e 18BF     		it	ne
 4100 0840 43F00103 		orrne	r3, r3, #1
 4101              	.LBE1599:
 4102              	.LBE1608:
 4103              	.LBB1609:
 4104              	.LBB1604:
  66:../libs/libDaisy/src/dev/mpr121.h ****     }
 4105              		.loc 2 66 40 view .LVU888
 4106 0844 2846     		mov	r0, r5
 4107              	.LVL196:
  66:../libs/libDaisy/src/dev/mpr121.h ****     }
 4108              		.loc 2 66 40 view .LVU889
 4109              	.LBE1604:
 4110              	.LBE1609:
 4111              	.LBB1610:
 4112              	.LBB1600:
 4113              		.loc 2 343 55 view .LVU890
 4114 0846 84F84C30 		strb	r3, [r4, #76]
 4115              	.LVL197:
 4116              		.loc 2 343 55 view .LVU891
 4117              	.LBE1600:
 4118              	.LBE1610:
 4119              	.LBB1611:
 4120              	.LBI1601:
  63:../libs/libDaisy/src/dev/mpr121.h ****     {
 4121              		.loc 2 63 10 is_stmt 1 view .LVU892
 4122              	.LBB1605:
  65:../libs/libDaisy/src/dev/mpr121.h ****                != i2c_.TransmitBlocking(config_.dev_addr, data, size, 10);
 4123              		.loc 2 65 9 view .LVU893
  66:../libs/libDaisy/src/dev/mpr121.h ****     }
 4124              		.loc 2 66 40 is_stmt 0 view .LVU894
 4125 084a 0223     		movs	r3, #2
 4126 084c FFF7FEFF 		bl	_ZN5daisy9I2CHandle16TransmitBlockingEtPhtm
 4127              	.LVL198:
  66:../libs/libDaisy/src/dev/mpr121.h ****     }
 4128              		.loc 2 66 40 view .LVU895
 4129              	.LBE1605:
 4130              	.LBE1611:
 4131              	.LBB1612:
ARM GAS  C:\Users\matte\AppData\Local\Temp\ccgZTizB.s 			page 95


 4132              	.LBI1612:
 4133              		.loc 2 343 10 is_stmt 1 view .LVU896
 4134              	.LBE1612:
 4135              	.LBB1616:
 4136              	.LBB1617:
  66:../libs/libDaisy/src/dev/mpr121.h ****     }
 4137              		.loc 2 66 40 is_stmt 0 view .LVU897
 4138 0850 0097     		str	r7, [sp]
 4139              	.LBE1617:
 4140              	.LBE1616:
 4141              	.LBB1622:
 4142              	.LBB1613:
 4143              		.loc 2 343 55 view .LVU898
 4144 0852 94F84C30 		ldrb	r3, [r4, #76]	@ zero_extendqisi2
 4145              	.LBE1613:
 4146              	.LBE1622:
 4147              	.LBB1623:
 4148              	.LBB1618:
  66:../libs/libDaisy/src/dev/mpr121.h ****     }
 4149              		.loc 2 66 40 view .LVU899
 4150 0856 09AA     		add	r2, sp, #36
 4151 0858 94F84810 		ldrb	r1, [r4, #72]	@ zero_extendqisi2
 4152              	.LBE1618:
 4153              	.LBE1623:
 4154              	.LBB1624:
 4155              	.LBB1614:
 4156              		.loc 2 343 55 view .LVU900
 4157 085c 4845     		cmp	r0, r9
 4158 085e 18BF     		it	ne
 4159 0860 43F00103 		orrne	r3, r3, #1
 4160              	.LBE1614:
 4161              	.LBE1624:
 4162              	.LBB1625:
 4163              	.LBB1619:
  66:../libs/libDaisy/src/dev/mpr121.h ****     }
 4164              		.loc 2 66 40 view .LVU901
 4165 0864 2846     		mov	r0, r5
 4166              	.LVL199:
  66:../libs/libDaisy/src/dev/mpr121.h ****     }
 4167              		.loc 2 66 40 view .LVU902
 4168              	.LBE1619:
 4169              	.LBE1625:
 282:../libs/libDaisy/src/dev/mpr121.h ****         SetTransportErr(transport_.Write(buff, 2));
 4170              		.loc 2 282 17 view .LVU903
 4171 0866 8DF82560 		strb	r6, [sp, #37]
 4172              	.LBB1626:
 4173              	.LBB1615:
 4174              		.loc 2 343 55 view .LVU904
 4175 086a 84F84C30 		strb	r3, [r4, #76]
 4176              	.LVL200:
 4177              		.loc 2 343 55 view .LVU905
 4178              	.LBE1615:
 4179              	.LBE1626:
 4180              	.LBB1627:
 4181              	.LBI1616:
  63:../libs/libDaisy/src/dev/mpr121.h ****     {
 4182              		.loc 2 63 10 is_stmt 1 view .LVU906
ARM GAS  C:\Users\matte\AppData\Local\Temp\ccgZTizB.s 			page 96


 4183              	.LBB1620:
  65:../libs/libDaisy/src/dev/mpr121.h ****                != i2c_.TransmitBlocking(config_.dev_addr, data, size, 10);
 4184              		.loc 2 65 9 view .LVU907
 4185              	.LBE1620:
 4186              	.LBE1627:
 281:../libs/libDaisy/src/dev/mpr121.h ****         buff[1] = value;
 4187              		.loc 2 281 17 is_stmt 0 view .LVU908
 4188 086e 3123     		movs	r3, #49
 4189 0870 8DF82430 		strb	r3, [sp, #36]
 4190              	.LBB1628:
 4191              	.LBB1621:
  66:../libs/libDaisy/src/dev/mpr121.h ****     }
 4192              		.loc 2 66 40 view .LVU909
 4193 0874 0223     		movs	r3, #2
 4194 0876 FFF7FEFF 		bl	_ZN5daisy9I2CHandle16TransmitBlockingEtPhtm
 4195              	.LVL201:
  66:../libs/libDaisy/src/dev/mpr121.h ****     }
 4196              		.loc 2 66 40 view .LVU910
 4197              	.LBE1621:
 4198              	.LBE1628:
 4199              	.LBB1629:
 4200              	.LBI1629:
 4201              		.loc 2 343 10 is_stmt 1 view .LVU911
 4202              	.LBE1629:
 4203              	.LBB1633:
 4204              	.LBB1634:
  66:../libs/libDaisy/src/dev/mpr121.h ****     }
 4205              		.loc 2 66 40 is_stmt 0 view .LVU912
 4206 087a 0097     		str	r7, [sp]
 4207              	.LBE1634:
 4208              	.LBE1633:
 4209              	.LBB1638:
 4210              	.LBB1630:
 4211              		.loc 2 343 55 view .LVU913
 4212 087c 94F84C30 		ldrb	r3, [r4, #76]	@ zero_extendqisi2
 4213              	.LBE1630:
 4214              	.LBE1638:
 4215              	.LBB1639:
 4216              	.LBB1635:
  66:../libs/libDaisy/src/dev/mpr121.h ****     }
 4217              		.loc 2 66 40 view .LVU914
 4218 0880 09AA     		add	r2, sp, #36
 4219 0882 94F84810 		ldrb	r1, [r4, #72]	@ zero_extendqisi2
 4220              	.LBE1635:
 4221              	.LBE1639:
 4222              	.LBB1640:
 4223              	.LBB1631:
 4224              		.loc 2 343 55 view .LVU915
 4225 0886 4845     		cmp	r0, r9
 4226 0888 18BF     		it	ne
 4227 088a 43F00103 		orrne	r3, r3, #1
 4228              	.LBE1631:
 4229              	.LBE1640:
 4230              	.LBB1641:
 4231              	.LBB1636:
  66:../libs/libDaisy/src/dev/mpr121.h ****     }
 4232              		.loc 2 66 40 view .LVU916
ARM GAS  C:\Users\matte\AppData\Local\Temp\ccgZTizB.s 			page 97


 4233 088e 2846     		mov	r0, r5
 4234              	.LVL202:
  66:../libs/libDaisy/src/dev/mpr121.h ****     }
 4235              		.loc 2 66 40 view .LVU917
 4236              	.LBE1636:
 4237              	.LBE1641:
 288:../libs/libDaisy/src/dev/mpr121.h ****             buff[1] = ecr_backup;
 4238              		.loc 2 288 21 view .LVU918
 4239 0890 8DF82480 		strb	r8, [sp, #36]
 4240              	.LBB1642:
 4241              	.LBB1632:
 4242              		.loc 2 343 55 view .LVU919
 4243 0894 84F84C30 		strb	r3, [r4, #76]
 4244              	.LVL203:
 4245              		.loc 2 343 55 view .LVU920
 4246              	.LBE1632:
 4247              	.LBE1642:
 289:../libs/libDaisy/src/dev/mpr121.h ****             SetTransportErr(transport_.Write(buff, 2));
 4248              		.loc 2 289 21 view .LVU921
 4249 0898 9DF81030 		ldrb	r3, [sp, #16]	@ zero_extendqisi2
 4250 089c 8DF82530 		strb	r3, [sp, #37]
 4251              	.LVL204:
 4252              	.LBB1643:
 4253              	.LBI1633:
  63:../libs/libDaisy/src/dev/mpr121.h ****     {
 4254              		.loc 2 63 10 is_stmt 1 view .LVU922
 4255              	.LBB1637:
  65:../libs/libDaisy/src/dev/mpr121.h ****                != i2c_.TransmitBlocking(config_.dev_addr, data, size, 10);
 4256              		.loc 2 65 9 view .LVU923
  66:../libs/libDaisy/src/dev/mpr121.h ****     }
 4257              		.loc 2 66 40 is_stmt 0 view .LVU924
 4258 08a0 0223     		movs	r3, #2
 4259 08a2 FFF7FEFF 		bl	_ZN5daisy9I2CHandle16TransmitBlockingEtPhtm
 4260              	.LVL205:
  66:../libs/libDaisy/src/dev/mpr121.h ****     }
 4261              		.loc 2 66 40 view .LVU925
 4262              	.LBE1637:
 4263              	.LBE1643:
 4264              	.LBB1644:
 4265              	.LBI1644:
 4266              		.loc 2 343 10 is_stmt 1 view .LVU926
 4267              	.LBE1644:
 4268              	.LBE1653:
 4269              	.LBE1662:
 4270              	.LBB1663:
 4271              	.LBB1664:
 4272              	.LBB1665:
 4273              	.LBB1666:
  66:../libs/libDaisy/src/dev/mpr121.h ****     }
 4274              		.loc 2 66 40 is_stmt 0 view .LVU927
 4275 08a6 0097     		str	r7, [sp]
 4276              	.LBE1666:
 4277              	.LBE1665:
 4278              	.LBE1664:
 4279              	.LBE1663:
 4280              	.LBB1750:
 4281              	.LBB1654:
ARM GAS  C:\Users\matte\AppData\Local\Temp\ccgZTizB.s 			page 98


 4282              	.LBB1648:
 4283              	.LBB1645:
 4284              		.loc 2 343 55 view .LVU928
 4285 08a8 94F84C30 		ldrb	r3, [r4, #76]	@ zero_extendqisi2
 4286              	.LBE1645:
 4287              	.LBE1648:
 4288              	.LBE1654:
 4289              	.LBE1750:
 4290              	.LBB1751:
 4291              	.LBB1744:
 4292              	.LBB1671:
 4293              	.LBB1667:
  66:../libs/libDaisy/src/dev/mpr121.h ****     }
 4294              		.loc 2 66 40 view .LVU929
 4295 08ac 09AA     		add	r2, sp, #36
 4296 08ae 94F84810 		ldrb	r1, [r4, #72]	@ zero_extendqisi2
 4297              	.LBE1667:
 4298              	.LBE1671:
 4299              	.LBE1744:
 4300              	.LBE1751:
 4301              	.LBB1752:
 4302              	.LBB1655:
 4303              	.LBB1649:
 4304              	.LBB1646:
 4305              		.loc 2 343 55 view .LVU930
 4306 08b2 4845     		cmp	r0, r9
 4307 08b4 18BF     		it	ne
 4308 08b6 43F00103 		orrne	r3, r3, #1
 4309              	.LBE1646:
 4310              	.LBE1649:
 4311              	.LBE1655:
 4312              	.LBE1752:
 4313              	.LBB1753:
 4314              	.LBB1745:
 4315              	.LBB1672:
 4316              	.LBB1668:
  66:../libs/libDaisy/src/dev/mpr121.h ****     }
 4317              		.loc 2 66 40 view .LVU931
 4318 08ba 2846     		mov	r0, r5
 4319              	.LVL206:
  66:../libs/libDaisy/src/dev/mpr121.h ****     }
 4320              		.loc 2 66 40 view .LVU932
 4321              	.LBE1668:
 4322              	.LBE1672:
 264:../libs/libDaisy/src/dev/mpr121.h **** 
 4323              		.loc 2 264 17 view .LVU933
 4324 08bc 8DF82590 		strb	r9, [sp, #37]
 4325              	.LBE1745:
 4326              	.LBE1753:
 4327              	.LBB1754:
 4328              	.LBB1656:
 4329              	.LBB1650:
 4330              	.LBB1647:
 4331              		.loc 2 343 55 view .LVU934
 4332 08c0 84F84C30 		strb	r3, [r4, #76]
 4333              	.LVL207:
 4334              		.loc 2 343 55 view .LVU935
ARM GAS  C:\Users\matte\AppData\Local\Temp\ccgZTizB.s 			page 99


 4335              	.LBE1647:
 4336              	.LBE1650:
 4337              	.LBE1656:
 4338              	.LBE1754:
 4339              	.LBB1755:
 4340              	.LBI1663:
 257:../libs/libDaisy/src/dev/mpr121.h ****     {
 4341              		.loc 2 257 10 is_stmt 1 view .LVU936
 4342              	.LBB1746:
 4343              	.LBB1673:
 4344              	.LBI1665:
  63:../libs/libDaisy/src/dev/mpr121.h ****     {
 4345              		.loc 2 63 10 view .LVU937
 4346              	.LBB1669:
  65:../libs/libDaisy/src/dev/mpr121.h ****                != i2c_.TransmitBlocking(config_.dev_addr, data, size, 10);
 4347              		.loc 2 65 9 view .LVU938
  66:../libs/libDaisy/src/dev/mpr121.h ****     }
 4348              		.loc 2 66 40 is_stmt 0 view .LVU939
 4349 08c4 3346     		mov	r3, r6
 4350              	.LBE1669:
 4351              	.LBE1673:
 264:../libs/libDaisy/src/dev/mpr121.h **** 
 4352              		.loc 2 264 17 view .LVU940
 4353 08c6 8DF82480 		strb	r8, [sp, #36]
 4354              	.LBB1674:
 4355              	.LBB1670:
  66:../libs/libDaisy/src/dev/mpr121.h ****     }
 4356              		.loc 2 66 40 view .LVU941
 4357 08ca FFF7FEFF 		bl	_ZN5daisy9I2CHandle16TransmitBlockingEtPhtm
 4358              	.LVL208:
  66:../libs/libDaisy/src/dev/mpr121.h ****     }
 4359              		.loc 2 66 40 view .LVU942
 4360              	.LBE1670:
 4361              	.LBE1674:
 4362              	.LBB1675:
 4363              	.LBI1675:
 4364              		.loc 2 343 10 is_stmt 1 view .LVU943
 4365              	.LBE1675:
 4366              	.LBB1679:
 4367              	.LBB1680:
  73:../libs/libDaisy/src/dev/mpr121.h ****     }
 4368              		.loc 2 73 39 is_stmt 0 view .LVU944
 4369 08ce 0097     		str	r7, [sp]
 4370 08d0 04AA     		add	r2, sp, #16
 4371              	.LBE1680:
 4372              	.LBE1679:
 4373              	.LBB1684:
 4374              	.LBB1676:
 4375              		.loc 2 343 55 view .LVU945
 4376 08d2 94F84C30 		ldrb	r3, [r4, #76]	@ zero_extendqisi2
 4377              	.LBE1676:
 4378              	.LBE1684:
 4379              	.LBB1685:
 4380              	.LBB1681:
  73:../libs/libDaisy/src/dev/mpr121.h ****     }
 4381              		.loc 2 73 39 view .LVU946
 4382 08d6 94F84810 		ldrb	r1, [r4, #72]	@ zero_extendqisi2
ARM GAS  C:\Users\matte\AppData\Local\Temp\ccgZTizB.s 			page 100


 4383              	.LBE1681:
 4384              	.LBE1685:
 4385              	.LBB1686:
 4386              	.LBB1677:
 4387              		.loc 2 343 55 view .LVU947
 4388 08da 4845     		cmp	r0, r9
 4389 08dc 18BF     		it	ne
 4390 08de 43F00103 		orrne	r3, r3, #1
 4391              	.LBE1677:
 4392              	.LBE1686:
 4393              	.LBB1687:
 4394              	.LBB1682:
  73:../libs/libDaisy/src/dev/mpr121.h ****     }
 4395              		.loc 2 73 39 view .LVU948
 4396 08e2 2846     		mov	r0, r5
 4397              	.LVL209:
  73:../libs/libDaisy/src/dev/mpr121.h ****     }
 4398              		.loc 2 73 39 view .LVU949
 4399              	.LBE1682:
 4400              	.LBE1687:
 4401              	.LBB1688:
 4402              	.LBB1678:
 4403              		.loc 2 343 55 view .LVU950
 4404 08e4 84F84C30 		strb	r3, [r4, #76]
 4405              	.LVL210:
 4406              		.loc 2 343 55 view .LVU951
 4407              	.LBE1678:
 4408              	.LBE1688:
 4409              	.LBB1689:
 4410              	.LBI1679:
  70:../libs/libDaisy/src/dev/mpr121.h ****     {
 4411              		.loc 2 70 10 is_stmt 1 view .LVU952
 4412              	.LBB1683:
  72:../libs/libDaisy/src/dev/mpr121.h ****                != i2c_.ReceiveBlocking(config_.dev_addr, data, size, 10);
 4413              		.loc 2 72 9 view .LVU953
  73:../libs/libDaisy/src/dev/mpr121.h ****     }
 4414              		.loc 2 73 39 is_stmt 0 view .LVU954
 4415 08e8 3346     		mov	r3, r6
 4416 08ea FFF7FEFF 		bl	_ZN5daisy9I2CHandle15ReceiveBlockingEtPhtm
 4417              	.LVL211:
  73:../libs/libDaisy/src/dev/mpr121.h ****     }
 4418              		.loc 2 73 39 view .LVU955
 4419              	.LBE1683:
 4420              	.LBE1689:
 4421              	.LBB1690:
 4422              	.LBI1690:
 4423              		.loc 2 343 10 is_stmt 1 view .LVU956
 4424              	.LBE1690:
 4425              	.LBB1694:
 4426              	.LBB1695:
  66:../libs/libDaisy/src/dev/mpr121.h ****     }
 4427              		.loc 2 66 40 is_stmt 0 view .LVU957
 4428 08ee 0097     		str	r7, [sp]
 4429              	.LBE1695:
 4430              	.LBE1694:
 4431              	.LBB1699:
 4432              	.LBB1691:
ARM GAS  C:\Users\matte\AppData\Local\Temp\ccgZTizB.s 			page 101


 4433              		.loc 2 343 55 view .LVU958
 4434 08f0 94F84C30 		ldrb	r3, [r4, #76]	@ zero_extendqisi2
 4435              	.LBE1691:
 4436              	.LBE1699:
 4437              	.LBB1700:
 4438              	.LBB1696:
  66:../libs/libDaisy/src/dev/mpr121.h ****     }
 4439              		.loc 2 66 40 view .LVU959
 4440 08f4 09AA     		add	r2, sp, #36
 4441 08f6 94F84810 		ldrb	r1, [r4, #72]	@ zero_extendqisi2
 4442              	.LBE1696:
 4443              	.LBE1700:
 4444              	.LBB1701:
 4445              	.LBB1692:
 4446              		.loc 2 343 55 view .LVU960
 4447 08fa 4845     		cmp	r0, r9
 4448 08fc 18BF     		it	ne
 4449 08fe 43F00103 		orrne	r3, r3, #1
 4450              	.LBE1692:
 4451              	.LBE1701:
 4452              	.LBB1702:
 4453              	.LBB1697:
  66:../libs/libDaisy/src/dev/mpr121.h ****     }
 4454              		.loc 2 66 40 view .LVU961
 4455 0902 2846     		mov	r0, r5
 4456              	.LVL212:
  66:../libs/libDaisy/src/dev/mpr121.h ****     }
 4457              		.loc 2 66 40 view .LVU962
 4458              	.LBE1697:
 4459              	.LBE1702:
 4460              	.LBB1703:
 4461              	.LBB1693:
 4462              		.loc 2 343 55 view .LVU963
 4463 0904 84F84C30 		strb	r3, [r4, #76]
 4464              	.LVL213:
 4465              		.loc 2 343 55 view .LVU964
 4466              	.LBE1693:
 4467              	.LBE1703:
 4468              	.LBB1704:
 4469              	.LBI1694:
  63:../libs/libDaisy/src/dev/mpr121.h ****     {
 4470              		.loc 2 63 10 is_stmt 1 view .LVU965
 4471              	.LBB1698:
  65:../libs/libDaisy/src/dev/mpr121.h ****                != i2c_.TransmitBlocking(config_.dev_addr, data, size, 10);
 4472              		.loc 2 65 9 view .LVU966
  66:../libs/libDaisy/src/dev/mpr121.h ****     }
 4473              		.loc 2 66 40 is_stmt 0 view .LVU967
 4474 0908 0223     		movs	r3, #2
 4475 090a FFF7FEFF 		bl	_ZN5daisy9I2CHandle16TransmitBlockingEtPhtm
 4476              	.LVL214:
  66:../libs/libDaisy/src/dev/mpr121.h ****     }
 4477              		.loc 2 66 40 view .LVU968
 4478              	.LBE1698:
 4479              	.LBE1704:
 4480              	.LBB1705:
 4481              	.LBI1705:
 4482              		.loc 2 343 10 is_stmt 1 view .LVU969
ARM GAS  C:\Users\matte\AppData\Local\Temp\ccgZTizB.s 			page 102


 4483              	.LBE1705:
 4484              	.LBB1709:
 4485              	.LBB1710:
  66:../libs/libDaisy/src/dev/mpr121.h ****     }
 4486              		.loc 2 66 40 is_stmt 0 view .LVU970
 4487 090e 0097     		str	r7, [sp]
 4488              	.LBE1710:
 4489              	.LBE1709:
 4490              	.LBB1715:
 4491              	.LBB1706:
 4492              		.loc 2 343 55 view .LVU971
 4493 0910 94F84C30 		ldrb	r3, [r4, #76]	@ zero_extendqisi2
 4494              	.LBE1706:
 4495              	.LBE1715:
 4496              	.LBB1716:
 4497              	.LBB1711:
  66:../libs/libDaisy/src/dev/mpr121.h ****     }
 4498              		.loc 2 66 40 view .LVU972
 4499 0914 09AA     		add	r2, sp, #36
 4500 0916 94F84810 		ldrb	r1, [r4, #72]	@ zero_extendqisi2
 4501              	.LBE1711:
 4502              	.LBE1716:
 4503              	.LBB1717:
 4504              	.LBB1707:
 4505              		.loc 2 343 55 view .LVU973
 4506 091a 4845     		cmp	r0, r9
 4507 091c 18BF     		it	ne
 4508 091e 43F00103 		orrne	r3, r3, #1
 4509              	.LBE1707:
 4510              	.LBE1717:
 4511              	.LBB1718:
 4512              	.LBB1712:
  66:../libs/libDaisy/src/dev/mpr121.h ****     }
 4513              		.loc 2 66 40 view .LVU974
 4514 0922 2846     		mov	r0, r5
 4515              	.LVL215:
  66:../libs/libDaisy/src/dev/mpr121.h ****     }
 4516              		.loc 2 66 40 view .LVU975
 4517              	.LBE1712:
 4518              	.LBE1718:
 282:../libs/libDaisy/src/dev/mpr121.h ****         SetTransportErr(transport_.Write(buff, 2));
 4519              		.loc 2 282 17 view .LVU976
 4520 0924 8DF82590 		strb	r9, [sp, #37]
 4521              	.LBB1719:
 4522              	.LBB1708:
 4523              		.loc 2 343 55 view .LVU977
 4524 0928 84F84C30 		strb	r3, [r4, #76]
 4525              	.LVL216:
 4526              		.loc 2 343 55 view .LVU978
 4527              	.LBE1708:
 4528              	.LBE1719:
 4529              	.LBB1720:
 4530              	.LBI1709:
  63:../libs/libDaisy/src/dev/mpr121.h ****     {
 4531              		.loc 2 63 10 is_stmt 1 view .LVU979
 4532              	.LBB1713:
  65:../libs/libDaisy/src/dev/mpr121.h ****                != i2c_.TransmitBlocking(config_.dev_addr, data, size, 10);
ARM GAS  C:\Users\matte\AppData\Local\Temp\ccgZTizB.s 			page 103


 4533              		.loc 2 65 9 view .LVU980
 4534              	.LBE1713:
 4535              	.LBE1720:
 281:../libs/libDaisy/src/dev/mpr121.h ****         buff[1] = value;
 4536              		.loc 2 281 17 is_stmt 0 view .LVU981
 4537 092c 3223     		movs	r3, #50
 4538 092e 8DF82430 		strb	r3, [sp, #36]
 4539              	.LBB1721:
 4540              	.LBB1714:
  66:../libs/libDaisy/src/dev/mpr121.h ****     }
 4541              		.loc 2 66 40 view .LVU982
 4542 0932 0223     		movs	r3, #2
 4543 0934 FFF7FEFF 		bl	_ZN5daisy9I2CHandle16TransmitBlockingEtPhtm
 4544              	.LVL217:
  66:../libs/libDaisy/src/dev/mpr121.h ****     }
 4545              		.loc 2 66 40 view .LVU983
 4546              	.LBE1714:
 4547              	.LBE1721:
 4548              	.LBB1722:
 4549              	.LBI1722:
 4550              		.loc 2 343 10 is_stmt 1 view .LVU984
 4551              	.LBE1722:
 4552              	.LBB1726:
 4553              	.LBB1727:
  66:../libs/libDaisy/src/dev/mpr121.h ****     }
 4554              		.loc 2 66 40 is_stmt 0 view .LVU985
 4555 0938 0097     		str	r7, [sp]
 4556              	.LBE1727:
 4557              	.LBE1726:
 4558              	.LBB1731:
 4559              	.LBB1723:
 4560              		.loc 2 343 55 view .LVU986
 4561 093a 94F84C30 		ldrb	r3, [r4, #76]	@ zero_extendqisi2
 4562              	.LBE1723:
 4563              	.LBE1731:
 4564              	.LBB1732:
 4565              	.LBB1728:
  66:../libs/libDaisy/src/dev/mpr121.h ****     }
 4566              		.loc 2 66 40 view .LVU987
 4567 093e 09AA     		add	r2, sp, #36
 4568 0940 94F84810 		ldrb	r1, [r4, #72]	@ zero_extendqisi2
 4569              	.LBE1728:
 4570              	.LBE1732:
 4571              	.LBB1733:
 4572              	.LBB1724:
 4573              		.loc 2 343 55 view .LVU988
 4574 0944 4845     		cmp	r0, r9
 4575 0946 18BF     		it	ne
 4576 0948 43F00103 		orrne	r3, r3, #1
 4577              	.LBE1724:
 4578              	.LBE1733:
 4579              	.LBB1734:
 4580              	.LBB1729:
  66:../libs/libDaisy/src/dev/mpr121.h ****     }
 4581              		.loc 2 66 40 view .LVU989
 4582 094c 2846     		mov	r0, r5
 4583              	.LVL218:
ARM GAS  C:\Users\matte\AppData\Local\Temp\ccgZTizB.s 			page 104


  66:../libs/libDaisy/src/dev/mpr121.h ****     }
 4584              		.loc 2 66 40 view .LVU990
 4585              	.LBE1729:
 4586              	.LBE1734:
 288:../libs/libDaisy/src/dev/mpr121.h ****             buff[1] = ecr_backup;
 4587              		.loc 2 288 21 view .LVU991
 4588 094e 8DF82480 		strb	r8, [sp, #36]
 4589              	.LBB1735:
 4590              	.LBB1725:
 4591              		.loc 2 343 55 view .LVU992
 4592 0952 84F84C30 		strb	r3, [r4, #76]
 4593              	.LVL219:
 4594              		.loc 2 343 55 view .LVU993
 4595              	.LBE1725:
 4596              	.LBE1735:
 289:../libs/libDaisy/src/dev/mpr121.h ****             SetTransportErr(transport_.Write(buff, 2));
 4597              		.loc 2 289 21 view .LVU994
 4598 0956 9DF81030 		ldrb	r3, [sp, #16]	@ zero_extendqisi2
 4599 095a 8DF82530 		strb	r3, [sp, #37]
 4600              	.LVL220:
 4601              	.LBB1736:
 4602              	.LBI1726:
  63:../libs/libDaisy/src/dev/mpr121.h ****     {
 4603              		.loc 2 63 10 is_stmt 1 view .LVU995
 4604              	.LBB1730:
  65:../libs/libDaisy/src/dev/mpr121.h ****                != i2c_.TransmitBlocking(config_.dev_addr, data, size, 10);
 4605              		.loc 2 65 9 view .LVU996
  66:../libs/libDaisy/src/dev/mpr121.h ****     }
 4606              		.loc 2 66 40 is_stmt 0 view .LVU997
 4607 095e 0223     		movs	r3, #2
 4608 0960 FFF7FEFF 		bl	_ZN5daisy9I2CHandle16TransmitBlockingEtPhtm
 4609              	.LVL221:
  66:../libs/libDaisy/src/dev/mpr121.h ****     }
 4610              		.loc 2 66 40 view .LVU998
 4611              	.LBE1730:
 4612              	.LBE1736:
 4613              	.LBB1737:
 4614              	.LBI1737:
 4615              		.loc 2 343 10 is_stmt 1 view .LVU999
 4616              	.LBE1737:
 4617              	.LBE1746:
 4618              	.LBE1755:
 4619              	.LBB1756:
 4620              	.LBB1757:
 4621              	.LBB1758:
 4622              	.LBB1759:
  66:../libs/libDaisy/src/dev/mpr121.h ****     }
 4623              		.loc 2 66 40 is_stmt 0 view .LVU1000
 4624 0964 0097     		str	r7, [sp]
 4625              	.LBE1759:
 4626              	.LBE1758:
 4627              	.LBE1757:
 4628              	.LBE1756:
 4629              	.LBB1843:
 4630              	.LBB1747:
 4631              	.LBB1741:
 4632              	.LBB1738:
ARM GAS  C:\Users\matte\AppData\Local\Temp\ccgZTizB.s 			page 105


 4633              		.loc 2 343 55 view .LVU1001
 4634 0966 94F84C30 		ldrb	r3, [r4, #76]	@ zero_extendqisi2
 4635              	.LBE1738:
 4636              	.LBE1741:
 4637              	.LBE1747:
 4638              	.LBE1843:
 4639              	.LBB1844:
 4640              	.LBB1837:
 4641              	.LBB1764:
 4642              	.LBB1760:
  66:../libs/libDaisy/src/dev/mpr121.h ****     }
 4643              		.loc 2 66 40 view .LVU1002
 4644 096a 09AA     		add	r2, sp, #36
 4645 096c 94F84810 		ldrb	r1, [r4, #72]	@ zero_extendqisi2
 4646              	.LBE1760:
 4647              	.LBE1764:
 4648              	.LBE1837:
 4649              	.LBE1844:
 4650              	.LBB1845:
 4651              	.LBB1748:
 4652              	.LBB1742:
 4653              	.LBB1739:
 4654              		.loc 2 343 55 view .LVU1003
 4655 0970 4845     		cmp	r0, r9
 4656 0972 18BF     		it	ne
 4657 0974 43F00103 		orrne	r3, r3, #1
 4658              	.LBE1739:
 4659              	.LBE1742:
 4660              	.LBE1748:
 4661              	.LBE1845:
 4662              	.LBB1846:
 4663              	.LBB1838:
 4664              	.LBB1765:
 4665              	.LBB1761:
  66:../libs/libDaisy/src/dev/mpr121.h ****     }
 4666              		.loc 2 66 40 view .LVU1004
 4667 0978 2846     		mov	r0, r5
 4668              	.LVL222:
  66:../libs/libDaisy/src/dev/mpr121.h ****     }
 4669              		.loc 2 66 40 view .LVU1005
 4670              	.LBE1761:
 4671              	.LBE1765:
 264:../libs/libDaisy/src/dev/mpr121.h **** 
 4672              		.loc 2 264 17 view .LVU1006
 4673 097a 8DF82590 		strb	r9, [sp, #37]
 4674              	.LBE1838:
 4675              	.LBE1846:
 4676              	.LBB1847:
 4677              	.LBB1749:
 4678              	.LBB1743:
 4679              	.LBB1740:
 4680              		.loc 2 343 55 view .LVU1007
 4681 097e 84F84C30 		strb	r3, [r4, #76]
 4682              	.LVL223:
 4683              		.loc 2 343 55 view .LVU1008
 4684              	.LBE1740:
 4685              	.LBE1743:
ARM GAS  C:\Users\matte\AppData\Local\Temp\ccgZTizB.s 			page 106


 4686              	.LBE1749:
 4687              	.LBE1847:
 4688              	.LBB1848:
 4689              	.LBI1756:
 257:../libs/libDaisy/src/dev/mpr121.h ****     {
 4690              		.loc 2 257 10 is_stmt 1 view .LVU1009
 4691              	.LBB1839:
 4692              	.LBB1766:
 4693              	.LBI1758:
  63:../libs/libDaisy/src/dev/mpr121.h ****     {
 4694              		.loc 2 63 10 view .LVU1010
 4695              	.LBB1762:
  65:../libs/libDaisy/src/dev/mpr121.h ****                != i2c_.TransmitBlocking(config_.dev_addr, data, size, 10);
 4696              		.loc 2 65 9 view .LVU1011
  66:../libs/libDaisy/src/dev/mpr121.h ****     }
 4697              		.loc 2 66 40 is_stmt 0 view .LVU1012
 4698 0982 3346     		mov	r3, r6
 4699              	.LBE1762:
 4700              	.LBE1766:
 264:../libs/libDaisy/src/dev/mpr121.h **** 
 4701              		.loc 2 264 17 view .LVU1013
 4702 0984 8DF82480 		strb	r8, [sp, #36]
 4703              	.LBB1767:
 4704              	.LBB1763:
  66:../libs/libDaisy/src/dev/mpr121.h ****     }
 4705              		.loc 2 66 40 view .LVU1014
 4706 0988 FFF7FEFF 		bl	_ZN5daisy9I2CHandle16TransmitBlockingEtPhtm
 4707              	.LVL224:
  66:../libs/libDaisy/src/dev/mpr121.h ****     }
 4708              		.loc 2 66 40 view .LVU1015
 4709              	.LBE1763:
 4710              	.LBE1767:
 4711              	.LBB1768:
 4712              	.LBI1768:
 4713              		.loc 2 343 10 is_stmt 1 view .LVU1016
 4714              	.LBE1768:
 4715              	.LBB1772:
 4716              	.LBB1773:
  73:../libs/libDaisy/src/dev/mpr121.h ****     }
 4717              		.loc 2 73 39 is_stmt 0 view .LVU1017
 4718 098c 0097     		str	r7, [sp]
 4719 098e 04AA     		add	r2, sp, #16
 4720              	.LBE1773:
 4721              	.LBE1772:
 4722              	.LBB1777:
 4723              	.LBB1769:
 4724              		.loc 2 343 55 view .LVU1018
 4725 0990 94F84C30 		ldrb	r3, [r4, #76]	@ zero_extendqisi2
 4726              	.LBE1769:
 4727              	.LBE1777:
 4728              	.LBB1778:
 4729              	.LBB1774:
  73:../libs/libDaisy/src/dev/mpr121.h ****     }
 4730              		.loc 2 73 39 view .LVU1019
 4731 0994 94F84810 		ldrb	r1, [r4, #72]	@ zero_extendqisi2
 4732              	.LBE1774:
 4733              	.LBE1778:
ARM GAS  C:\Users\matte\AppData\Local\Temp\ccgZTizB.s 			page 107


 4734              	.LBB1779:
 4735              	.LBB1770:
 4736              		.loc 2 343 55 view .LVU1020
 4737 0998 4845     		cmp	r0, r9
 4738 099a 18BF     		it	ne
 4739 099c 43F00103 		orrne	r3, r3, #1
 4740              	.LBE1770:
 4741              	.LBE1779:
 4742              	.LBB1780:
 4743              	.LBB1775:
  73:../libs/libDaisy/src/dev/mpr121.h ****     }
 4744              		.loc 2 73 39 view .LVU1021
 4745 09a0 2846     		mov	r0, r5
 4746              	.LVL225:
  73:../libs/libDaisy/src/dev/mpr121.h ****     }
 4747              		.loc 2 73 39 view .LVU1022
 4748              	.LBE1775:
 4749              	.LBE1780:
 4750              	.LBB1781:
 4751              	.LBB1771:
 4752              		.loc 2 343 55 view .LVU1023
 4753 09a2 84F84C30 		strb	r3, [r4, #76]
 4754              	.LVL226:
 4755              		.loc 2 343 55 view .LVU1024
 4756              	.LBE1771:
 4757              	.LBE1781:
 4758              	.LBB1782:
 4759              	.LBI1772:
  70:../libs/libDaisy/src/dev/mpr121.h ****     {
 4760              		.loc 2 70 10 is_stmt 1 view .LVU1025
 4761              	.LBB1776:
  72:../libs/libDaisy/src/dev/mpr121.h ****                != i2c_.ReceiveBlocking(config_.dev_addr, data, size, 10);
 4762              		.loc 2 72 9 view .LVU1026
  73:../libs/libDaisy/src/dev/mpr121.h ****     }
 4763              		.loc 2 73 39 is_stmt 0 view .LVU1027
 4764 09a6 3346     		mov	r3, r6
 4765 09a8 FFF7FEFF 		bl	_ZN5daisy9I2CHandle15ReceiveBlockingEtPhtm
 4766              	.LVL227:
  73:../libs/libDaisy/src/dev/mpr121.h ****     }
 4767              		.loc 2 73 39 view .LVU1028
 4768              	.LBE1776:
 4769              	.LBE1782:
 4770              	.LBB1783:
 4771              	.LBI1783:
 4772              		.loc 2 343 10 is_stmt 1 view .LVU1029
 4773              	.LBE1783:
 4774              	.LBB1787:
 4775              	.LBB1788:
  66:../libs/libDaisy/src/dev/mpr121.h ****     }
 4776              		.loc 2 66 40 is_stmt 0 view .LVU1030
 4777 09ac 0097     		str	r7, [sp]
 4778              	.LBE1788:
 4779              	.LBE1787:
 4780              	.LBB1792:
 4781              	.LBB1784:
 4782              		.loc 2 343 55 view .LVU1031
 4783 09ae 94F84C30 		ldrb	r3, [r4, #76]	@ zero_extendqisi2
ARM GAS  C:\Users\matte\AppData\Local\Temp\ccgZTizB.s 			page 108


 4784              	.LBE1784:
 4785              	.LBE1792:
 4786              	.LBB1793:
 4787              	.LBB1789:
  66:../libs/libDaisy/src/dev/mpr121.h ****     }
 4788              		.loc 2 66 40 view .LVU1032
 4789 09b2 09AA     		add	r2, sp, #36
 4790 09b4 94F84810 		ldrb	r1, [r4, #72]	@ zero_extendqisi2
 4791              	.LBE1789:
 4792              	.LBE1793:
 4793              	.LBB1794:
 4794              	.LBB1785:
 4795              		.loc 2 343 55 view .LVU1033
 4796 09b8 4845     		cmp	r0, r9
 4797 09ba 18BF     		it	ne
 4798 09bc 43F00103 		orrne	r3, r3, #1
 4799              	.LBE1785:
 4800              	.LBE1794:
 4801              	.LBB1795:
 4802              	.LBB1790:
  66:../libs/libDaisy/src/dev/mpr121.h ****     }
 4803              		.loc 2 66 40 view .LVU1034
 4804 09c0 2846     		mov	r0, r5
 4805              	.LVL228:
  66:../libs/libDaisy/src/dev/mpr121.h ****     }
 4806              		.loc 2 66 40 view .LVU1035
 4807              	.LBE1790:
 4808              	.LBE1795:
 4809              	.LBB1796:
 4810              	.LBB1786:
 4811              		.loc 2 343 55 view .LVU1036
 4812 09c2 84F84C30 		strb	r3, [r4, #76]
 4813              	.LVL229:
 4814              		.loc 2 343 55 view .LVU1037
 4815              	.LBE1786:
 4816              	.LBE1796:
 4817              	.LBB1797:
 4818              	.LBI1787:
  63:../libs/libDaisy/src/dev/mpr121.h ****     {
 4819              		.loc 2 63 10 is_stmt 1 view .LVU1038
 4820              	.LBB1791:
  65:../libs/libDaisy/src/dev/mpr121.h ****                != i2c_.TransmitBlocking(config_.dev_addr, data, size, 10);
 4821              		.loc 2 65 9 view .LVU1039
  66:../libs/libDaisy/src/dev/mpr121.h ****     }
 4822              		.loc 2 66 40 is_stmt 0 view .LVU1040
 4823 09c6 0223     		movs	r3, #2
 4824 09c8 FFF7FEFF 		bl	_ZN5daisy9I2CHandle16TransmitBlockingEtPhtm
 4825              	.LVL230:
  66:../libs/libDaisy/src/dev/mpr121.h ****     }
 4826              		.loc 2 66 40 view .LVU1041
 4827              	.LBE1791:
 4828              	.LBE1797:
 4829              	.LBB1798:
 4830              	.LBI1798:
 4831              		.loc 2 343 10 is_stmt 1 view .LVU1042
 4832              	.LBE1798:
 4833              	.LBB1802:
ARM GAS  C:\Users\matte\AppData\Local\Temp\ccgZTizB.s 			page 109


 4834              	.LBB1803:
  66:../libs/libDaisy/src/dev/mpr121.h ****     }
 4835              		.loc 2 66 40 is_stmt 0 view .LVU1043
 4836 09cc 0097     		str	r7, [sp]
 4837              	.LBE1803:
 4838              	.LBE1802:
 4839              	.LBB1808:
 4840              	.LBB1799:
 4841              		.loc 2 343 55 view .LVU1044
 4842 09ce 94F84C30 		ldrb	r3, [r4, #76]	@ zero_extendqisi2
 4843              	.LBE1799:
 4844              	.LBE1808:
 4845              	.LBB1809:
 4846              	.LBB1804:
  66:../libs/libDaisy/src/dev/mpr121.h ****     }
 4847              		.loc 2 66 40 view .LVU1045
 4848 09d2 09AA     		add	r2, sp, #36
 4849 09d4 94F84810 		ldrb	r1, [r4, #72]	@ zero_extendqisi2
 4850              	.LBE1804:
 4851              	.LBE1809:
 4852              	.LBB1810:
 4853              	.LBB1800:
 4854              		.loc 2 343 55 view .LVU1046
 4855 09d8 4845     		cmp	r0, r9
 4856 09da 18BF     		it	ne
 4857 09dc 43F00103 		orrne	r3, r3, #1
 4858              	.LBE1800:
 4859              	.LBE1810:
 4860              	.LBB1811:
 4861              	.LBB1805:
  66:../libs/libDaisy/src/dev/mpr121.h ****     }
 4862              		.loc 2 66 40 view .LVU1047
 4863 09e0 2846     		mov	r0, r5
 4864              	.LVL231:
  66:../libs/libDaisy/src/dev/mpr121.h ****     }
 4865              		.loc 2 66 40 view .LVU1048
 4866              	.LBE1805:
 4867              	.LBE1811:
 282:../libs/libDaisy/src/dev/mpr121.h ****         SetTransportErr(transport_.Write(buff, 2));
 4868              		.loc 2 282 17 view .LVU1049
 4869 09e2 8DF82590 		strb	r9, [sp, #37]
 4870              	.LBB1812:
 4871              	.LBB1801:
 4872              		.loc 2 343 55 view .LVU1050
 4873 09e6 84F84C30 		strb	r3, [r4, #76]
 4874              	.LVL232:
 4875              		.loc 2 343 55 view .LVU1051
 4876              	.LBE1801:
 4877              	.LBE1812:
 4878              	.LBB1813:
 4879              	.LBI1802:
  63:../libs/libDaisy/src/dev/mpr121.h ****     {
 4880              		.loc 2 63 10 is_stmt 1 view .LVU1052
 4881              	.LBB1806:
  65:../libs/libDaisy/src/dev/mpr121.h ****                != i2c_.TransmitBlocking(config_.dev_addr, data, size, 10);
 4882              		.loc 2 65 9 view .LVU1053
 4883              	.LBE1806:
ARM GAS  C:\Users\matte\AppData\Local\Temp\ccgZTizB.s 			page 110


 4884              	.LBE1813:
 281:../libs/libDaisy/src/dev/mpr121.h ****         buff[1] = value;
 4885              		.loc 2 281 17 is_stmt 0 view .LVU1054
 4886 09ea 3323     		movs	r3, #51
 4887 09ec 8DF82430 		strb	r3, [sp, #36]
 4888              	.LBB1814:
 4889              	.LBB1807:
  66:../libs/libDaisy/src/dev/mpr121.h ****     }
 4890              		.loc 2 66 40 view .LVU1055
 4891 09f0 0223     		movs	r3, #2
 4892 09f2 FFF7FEFF 		bl	_ZN5daisy9I2CHandle16TransmitBlockingEtPhtm
 4893              	.LVL233:
  66:../libs/libDaisy/src/dev/mpr121.h ****     }
 4894              		.loc 2 66 40 view .LVU1056
 4895              	.LBE1807:
 4896              	.LBE1814:
 4897              	.LBB1815:
 4898              	.LBI1815:
 4899              		.loc 2 343 10 is_stmt 1 view .LVU1057
 4900              	.LBE1815:
 4901              	.LBB1819:
 4902              	.LBB1820:
  66:../libs/libDaisy/src/dev/mpr121.h ****     }
 4903              		.loc 2 66 40 is_stmt 0 view .LVU1058
 4904 09f6 0097     		str	r7, [sp]
 4905              	.LBE1820:
 4906              	.LBE1819:
 4907              	.LBB1824:
 4908              	.LBB1816:
 4909              		.loc 2 343 55 view .LVU1059
 4910 09f8 94F84C30 		ldrb	r3, [r4, #76]	@ zero_extendqisi2
 4911              	.LBE1816:
 4912              	.LBE1824:
 4913              	.LBB1825:
 4914              	.LBB1821:
  66:../libs/libDaisy/src/dev/mpr121.h ****     }
 4915              		.loc 2 66 40 view .LVU1060
 4916 09fc 09AA     		add	r2, sp, #36
 4917 09fe 94F84810 		ldrb	r1, [r4, #72]	@ zero_extendqisi2
 4918              	.LBE1821:
 4919              	.LBE1825:
 4920              	.LBB1826:
 4921              	.LBB1817:
 4922              		.loc 2 343 55 view .LVU1061
 4923 0a02 4845     		cmp	r0, r9
 4924 0a04 18BF     		it	ne
 4925 0a06 43F00103 		orrne	r3, r3, #1
 4926              	.LBE1817:
 4927              	.LBE1826:
 4928              	.LBB1827:
 4929              	.LBB1822:
  66:../libs/libDaisy/src/dev/mpr121.h ****     }
 4930              		.loc 2 66 40 view .LVU1062
 4931 0a0a 2846     		mov	r0, r5
 4932              	.LVL234:
  66:../libs/libDaisy/src/dev/mpr121.h ****     }
 4933              		.loc 2 66 40 view .LVU1063
ARM GAS  C:\Users\matte\AppData\Local\Temp\ccgZTizB.s 			page 111


 4934              	.LBE1822:
 4935              	.LBE1827:
 288:../libs/libDaisy/src/dev/mpr121.h ****             buff[1] = ecr_backup;
 4936              		.loc 2 288 21 view .LVU1064
 4937 0a0c 8DF82480 		strb	r8, [sp, #36]
 4938              	.LBB1828:
 4939              	.LBB1818:
 4940              		.loc 2 343 55 view .LVU1065
 4941 0a10 84F84C30 		strb	r3, [r4, #76]
 4942              	.LVL235:
 4943              		.loc 2 343 55 view .LVU1066
 4944              	.LBE1818:
 4945              	.LBE1828:
 289:../libs/libDaisy/src/dev/mpr121.h ****             SetTransportErr(transport_.Write(buff, 2));
 4946              		.loc 2 289 21 view .LVU1067
 4947 0a14 9DF81030 		ldrb	r3, [sp, #16]	@ zero_extendqisi2
 4948 0a18 8DF82530 		strb	r3, [sp, #37]
 4949              	.LVL236:
 4950              	.LBB1829:
 4951              	.LBI1819:
  63:../libs/libDaisy/src/dev/mpr121.h ****     {
 4952              		.loc 2 63 10 is_stmt 1 view .LVU1068
 4953              	.LBB1823:
  65:../libs/libDaisy/src/dev/mpr121.h ****                != i2c_.TransmitBlocking(config_.dev_addr, data, size, 10);
 4954              		.loc 2 65 9 view .LVU1069
  66:../libs/libDaisy/src/dev/mpr121.h ****     }
 4955              		.loc 2 66 40 is_stmt 0 view .LVU1070
 4956 0a1c 0223     		movs	r3, #2
 4957 0a1e FFF7FEFF 		bl	_ZN5daisy9I2CHandle16TransmitBlockingEtPhtm
 4958              	.LVL237:
  66:../libs/libDaisy/src/dev/mpr121.h ****     }
 4959              		.loc 2 66 40 view .LVU1071
 4960              	.LBE1823:
 4961              	.LBE1829:
 4962              	.LBB1830:
 4963              	.LBI1830:
 4964              		.loc 2 343 10 is_stmt 1 view .LVU1072
 4965              	.LBE1830:
 4966              	.LBE1839:
 4967              	.LBE1848:
 4968              	.LBB1849:
 4969              	.LBB1850:
 4970              	.LBB1851:
 4971              	.LBB1852:
  66:../libs/libDaisy/src/dev/mpr121.h ****     }
 4972              		.loc 2 66 40 is_stmt 0 view .LVU1073
 4973 0a22 0097     		str	r7, [sp]
 4974              	.LBE1852:
 4975              	.LBE1851:
 4976              	.LBE1850:
 4977              	.LBE1849:
 4978              	.LBB1936:
 4979              	.LBB1840:
 4980              	.LBB1834:
 4981              	.LBB1831:
 4982              		.loc 2 343 55 view .LVU1074
 4983 0a24 94F84C30 		ldrb	r3, [r4, #76]	@ zero_extendqisi2
ARM GAS  C:\Users\matte\AppData\Local\Temp\ccgZTizB.s 			page 112


 4984              	.LBE1831:
 4985              	.LBE1834:
 4986              	.LBE1840:
 4987              	.LBE1936:
 4988              	.LBB1937:
 4989              	.LBB1930:
 4990              	.LBB1857:
 4991              	.LBB1853:
  66:../libs/libDaisy/src/dev/mpr121.h ****     }
 4992              		.loc 2 66 40 view .LVU1075
 4993 0a28 09AA     		add	r2, sp, #36
 4994 0a2a 94F84810 		ldrb	r1, [r4, #72]	@ zero_extendqisi2
 4995              	.LBE1853:
 4996              	.LBE1857:
 4997              	.LBE1930:
 4998              	.LBE1937:
 4999              	.LBB1938:
 5000              	.LBB1841:
 5001              	.LBB1835:
 5002              	.LBB1832:
 5003              		.loc 2 343 55 view .LVU1076
 5004 0a2e 4845     		cmp	r0, r9
 5005 0a30 18BF     		it	ne
 5006 0a32 43F00103 		orrne	r3, r3, #1
 5007              	.LBE1832:
 5008              	.LBE1835:
 5009              	.LBE1841:
 5010              	.LBE1938:
 5011              	.LBB1939:
 5012              	.LBB1931:
 5013              	.LBB1858:
 5014              	.LBB1854:
  66:../libs/libDaisy/src/dev/mpr121.h ****     }
 5015              		.loc 2 66 40 view .LVU1077
 5016 0a36 2846     		mov	r0, r5
 5017              	.LVL238:
  66:../libs/libDaisy/src/dev/mpr121.h ****     }
 5018              		.loc 2 66 40 view .LVU1078
 5019              	.LBE1854:
 5020              	.LBE1858:
 264:../libs/libDaisy/src/dev/mpr121.h **** 
 5021              		.loc 2 264 17 view .LVU1079
 5022 0a38 8DF82590 		strb	r9, [sp, #37]
 5023              	.LBE1931:
 5024              	.LBE1939:
 5025              	.LBB1940:
 5026              	.LBB1842:
 5027              	.LBB1836:
 5028              	.LBB1833:
 5029              		.loc 2 343 55 view .LVU1080
 5030 0a3c 84F84C30 		strb	r3, [r4, #76]
 5031              	.LVL239:
 5032              		.loc 2 343 55 view .LVU1081
 5033              	.LBE1833:
 5034              	.LBE1836:
 5035              	.LBE1842:
 5036              	.LBE1940:
ARM GAS  C:\Users\matte\AppData\Local\Temp\ccgZTizB.s 			page 113


 5037              	.LBB1941:
 5038              	.LBI1849:
 257:../libs/libDaisy/src/dev/mpr121.h ****     {
 5039              		.loc 2 257 10 is_stmt 1 view .LVU1082
 5040              	.LBB1932:
 5041              	.LBB1859:
 5042              	.LBI1851:
  63:../libs/libDaisy/src/dev/mpr121.h ****     {
 5043              		.loc 2 63 10 view .LVU1083
 5044              	.LBB1855:
  65:../libs/libDaisy/src/dev/mpr121.h ****                != i2c_.TransmitBlocking(config_.dev_addr, data, size, 10);
 5045              		.loc 2 65 9 view .LVU1084
  66:../libs/libDaisy/src/dev/mpr121.h ****     }
 5046              		.loc 2 66 40 is_stmt 0 view .LVU1085
 5047 0a40 3346     		mov	r3, r6
 5048              	.LBE1855:
 5049              	.LBE1859:
 264:../libs/libDaisy/src/dev/mpr121.h **** 
 5050              		.loc 2 264 17 view .LVU1086
 5051 0a42 8DF82480 		strb	r8, [sp, #36]
 5052              	.LBB1860:
 5053              	.LBB1856:
  66:../libs/libDaisy/src/dev/mpr121.h ****     }
 5054              		.loc 2 66 40 view .LVU1087
 5055 0a46 FFF7FEFF 		bl	_ZN5daisy9I2CHandle16TransmitBlockingEtPhtm
 5056              	.LVL240:
  66:../libs/libDaisy/src/dev/mpr121.h ****     }
 5057              		.loc 2 66 40 view .LVU1088
 5058              	.LBE1856:
 5059              	.LBE1860:
 5060              	.LBB1861:
 5061              	.LBI1861:
 5062              		.loc 2 343 10 is_stmt 1 view .LVU1089
 5063              	.LBE1861:
 5064              	.LBB1865:
 5065              	.LBB1866:
  73:../libs/libDaisy/src/dev/mpr121.h ****     }
 5066              		.loc 2 73 39 is_stmt 0 view .LVU1090
 5067 0a4a 0097     		str	r7, [sp]
 5068 0a4c 04AA     		add	r2, sp, #16
 5069              	.LBE1866:
 5070              	.LBE1865:
 5071              	.LBB1870:
 5072              	.LBB1862:
 5073              		.loc 2 343 55 view .LVU1091
 5074 0a4e 94F84C30 		ldrb	r3, [r4, #76]	@ zero_extendqisi2
 5075              	.LBE1862:
 5076              	.LBE1870:
 5077              	.LBB1871:
 5078              	.LBB1867:
  73:../libs/libDaisy/src/dev/mpr121.h ****     }
 5079              		.loc 2 73 39 view .LVU1092
 5080 0a52 94F84810 		ldrb	r1, [r4, #72]	@ zero_extendqisi2
 5081              	.LBE1867:
 5082              	.LBE1871:
 5083              	.LBB1872:
 5084              	.LBB1863:
ARM GAS  C:\Users\matte\AppData\Local\Temp\ccgZTizB.s 			page 114


 5085              		.loc 2 343 55 view .LVU1093
 5086 0a56 4845     		cmp	r0, r9
 5087 0a58 18BF     		it	ne
 5088 0a5a 43F00103 		orrne	r3, r3, #1
 5089              	.LBE1863:
 5090              	.LBE1872:
 5091              	.LBB1873:
 5092              	.LBB1868:
  73:../libs/libDaisy/src/dev/mpr121.h ****     }
 5093              		.loc 2 73 39 view .LVU1094
 5094 0a5e 2846     		mov	r0, r5
 5095              	.LVL241:
  73:../libs/libDaisy/src/dev/mpr121.h ****     }
 5096              		.loc 2 73 39 view .LVU1095
 5097              	.LBE1868:
 5098              	.LBE1873:
 5099              	.LBB1874:
 5100              	.LBB1864:
 5101              		.loc 2 343 55 view .LVU1096
 5102 0a60 84F84C30 		strb	r3, [r4, #76]
 5103              	.LVL242:
 5104              		.loc 2 343 55 view .LVU1097
 5105              	.LBE1864:
 5106              	.LBE1874:
 5107              	.LBB1875:
 5108              	.LBI1865:
  70:../libs/libDaisy/src/dev/mpr121.h ****     {
 5109              		.loc 2 70 10 is_stmt 1 view .LVU1098
 5110              	.LBB1869:
  72:../libs/libDaisy/src/dev/mpr121.h ****                != i2c_.ReceiveBlocking(config_.dev_addr, data, size, 10);
 5111              		.loc 2 72 9 view .LVU1099
  73:../libs/libDaisy/src/dev/mpr121.h ****     }
 5112              		.loc 2 73 39 is_stmt 0 view .LVU1100
 5113 0a64 3346     		mov	r3, r6
 5114 0a66 FFF7FEFF 		bl	_ZN5daisy9I2CHandle15ReceiveBlockingEtPhtm
 5115              	.LVL243:
  73:../libs/libDaisy/src/dev/mpr121.h ****     }
 5116              		.loc 2 73 39 view .LVU1101
 5117              	.LBE1869:
 5118              	.LBE1875:
 5119              	.LBB1876:
 5120              	.LBI1876:
 5121              		.loc 2 343 10 is_stmt 1 view .LVU1102
 5122              	.LBE1876:
 5123              	.LBB1880:
 5124              	.LBB1881:
  66:../libs/libDaisy/src/dev/mpr121.h ****     }
 5125              		.loc 2 66 40 is_stmt 0 view .LVU1103
 5126 0a6a 0097     		str	r7, [sp]
 5127              	.LBE1881:
 5128              	.LBE1880:
 5129              	.LBB1885:
 5130              	.LBB1877:
 5131              		.loc 2 343 55 view .LVU1104
 5132 0a6c 94F84C30 		ldrb	r3, [r4, #76]	@ zero_extendqisi2
 5133              	.LBE1877:
 5134              	.LBE1885:
ARM GAS  C:\Users\matte\AppData\Local\Temp\ccgZTizB.s 			page 115


 5135              	.LBB1886:
 5136              	.LBB1882:
  66:../libs/libDaisy/src/dev/mpr121.h ****     }
 5137              		.loc 2 66 40 view .LVU1105
 5138 0a70 09AA     		add	r2, sp, #36
 5139 0a72 94F84810 		ldrb	r1, [r4, #72]	@ zero_extendqisi2
 5140              	.LBE1882:
 5141              	.LBE1886:
 5142              	.LBB1887:
 5143              	.LBB1878:
 5144              		.loc 2 343 55 view .LVU1106
 5145 0a76 4845     		cmp	r0, r9
 5146 0a78 18BF     		it	ne
 5147 0a7a 43F00103 		orrne	r3, r3, #1
 5148              	.LBE1878:
 5149              	.LBE1887:
 5150              	.LBB1888:
 5151              	.LBB1883:
  66:../libs/libDaisy/src/dev/mpr121.h ****     }
 5152              		.loc 2 66 40 view .LVU1107
 5153 0a7e 2846     		mov	r0, r5
 5154              	.LVL244:
  66:../libs/libDaisy/src/dev/mpr121.h ****     }
 5155              		.loc 2 66 40 view .LVU1108
 5156              	.LBE1883:
 5157              	.LBE1888:
 5158              	.LBB1889:
 5159              	.LBB1879:
 5160              		.loc 2 343 55 view .LVU1109
 5161 0a80 84F84C30 		strb	r3, [r4, #76]
 5162              	.LVL245:
 5163              		.loc 2 343 55 view .LVU1110
 5164              	.LBE1879:
 5165              	.LBE1889:
 5166              	.LBB1890:
 5167              	.LBI1880:
  63:../libs/libDaisy/src/dev/mpr121.h ****     {
 5168              		.loc 2 63 10 is_stmt 1 view .LVU1111
 5169              	.LBB1884:
  65:../libs/libDaisy/src/dev/mpr121.h ****                != i2c_.TransmitBlocking(config_.dev_addr, data, size, 10);
 5170              		.loc 2 65 9 view .LVU1112
  66:../libs/libDaisy/src/dev/mpr121.h ****     }
 5171              		.loc 2 66 40 is_stmt 0 view .LVU1113
 5172 0a84 0223     		movs	r3, #2
 5173 0a86 FFF7FEFF 		bl	_ZN5daisy9I2CHandle16TransmitBlockingEtPhtm
 5174              	.LVL246:
  66:../libs/libDaisy/src/dev/mpr121.h ****     }
 5175              		.loc 2 66 40 view .LVU1114
 5176              	.LBE1884:
 5177              	.LBE1890:
 5178              	.LBB1891:
 5179              	.LBI1891:
 5180              		.loc 2 343 10 is_stmt 1 view .LVU1115
 5181              	.LBE1891:
 5182              	.LBB1895:
 5183              	.LBB1896:
  66:../libs/libDaisy/src/dev/mpr121.h ****     }
ARM GAS  C:\Users\matte\AppData\Local\Temp\ccgZTizB.s 			page 116


 5184              		.loc 2 66 40 is_stmt 0 view .LVU1116
 5185 0a8a 0097     		str	r7, [sp]
 5186              	.LBE1896:
 5187              	.LBE1895:
 5188              	.LBB1901:
 5189              	.LBB1892:
 5190              		.loc 2 343 55 view .LVU1117
 5191 0a8c 94F84C30 		ldrb	r3, [r4, #76]	@ zero_extendqisi2
 5192              	.LBE1892:
 5193              	.LBE1901:
 5194              	.LBB1902:
 5195              	.LBB1897:
  66:../libs/libDaisy/src/dev/mpr121.h ****     }
 5196              		.loc 2 66 40 view .LVU1118
 5197 0a90 09AA     		add	r2, sp, #36
 5198 0a92 94F84810 		ldrb	r1, [r4, #72]	@ zero_extendqisi2
 5199              	.LBE1897:
 5200              	.LBE1902:
 5201              	.LBB1903:
 5202              	.LBB1893:
 5203              		.loc 2 343 55 view .LVU1119
 5204 0a96 4845     		cmp	r0, r9
 5205 0a98 18BF     		it	ne
 5206 0a9a 43F00103 		orrne	r3, r3, #1
 5207              	.LBE1893:
 5208              	.LBE1903:
 5209              	.LBB1904:
 5210              	.LBB1898:
  66:../libs/libDaisy/src/dev/mpr121.h ****     }
 5211              		.loc 2 66 40 view .LVU1120
 5212 0a9e 2846     		mov	r0, r5
 5213              	.LVL247:
  66:../libs/libDaisy/src/dev/mpr121.h ****     }
 5214              		.loc 2 66 40 view .LVU1121
 5215              	.LBE1898:
 5216              	.LBE1904:
 282:../libs/libDaisy/src/dev/mpr121.h ****         SetTransportErr(transport_.Write(buff, 2));
 5217              		.loc 2 282 17 view .LVU1122
 5218 0aa0 8DF82590 		strb	r9, [sp, #37]
 5219              	.LBB1905:
 5220              	.LBB1894:
 5221              		.loc 2 343 55 view .LVU1123
 5222 0aa4 84F84C30 		strb	r3, [r4, #76]
 5223              	.LVL248:
 5224              		.loc 2 343 55 view .LVU1124
 5225              	.LBE1894:
 5226              	.LBE1905:
 5227              	.LBB1906:
 5228              	.LBI1895:
  63:../libs/libDaisy/src/dev/mpr121.h ****     {
 5229              		.loc 2 63 10 is_stmt 1 view .LVU1125
 5230              	.LBB1899:
  65:../libs/libDaisy/src/dev/mpr121.h ****                != i2c_.TransmitBlocking(config_.dev_addr, data, size, 10);
 5231              		.loc 2 65 9 view .LVU1126
 5232              	.LBE1899:
 5233              	.LBE1906:
 281:../libs/libDaisy/src/dev/mpr121.h ****         buff[1] = value;
ARM GAS  C:\Users\matte\AppData\Local\Temp\ccgZTizB.s 			page 117


 5234              		.loc 2 281 17 is_stmt 0 view .LVU1127
 5235 0aa8 3423     		movs	r3, #52
 5236 0aaa 8DF82430 		strb	r3, [sp, #36]
 5237              	.LBB1907:
 5238              	.LBB1900:
  66:../libs/libDaisy/src/dev/mpr121.h ****     }
 5239              		.loc 2 66 40 view .LVU1128
 5240 0aae 0223     		movs	r3, #2
 5241 0ab0 FFF7FEFF 		bl	_ZN5daisy9I2CHandle16TransmitBlockingEtPhtm
 5242              	.LVL249:
  66:../libs/libDaisy/src/dev/mpr121.h ****     }
 5243              		.loc 2 66 40 view .LVU1129
 5244              	.LBE1900:
 5245              	.LBE1907:
 5246              	.LBB1908:
 5247              	.LBI1908:
 5248              		.loc 2 343 10 is_stmt 1 view .LVU1130
 5249              	.LBE1908:
 5250              	.LBB1912:
 5251              	.LBB1913:
  66:../libs/libDaisy/src/dev/mpr121.h ****     }
 5252              		.loc 2 66 40 is_stmt 0 view .LVU1131
 5253 0ab4 0097     		str	r7, [sp]
 5254              	.LBE1913:
 5255              	.LBE1912:
 5256              	.LBB1917:
 5257              	.LBB1909:
 5258              		.loc 2 343 55 view .LVU1132
 5259 0ab6 94F84C30 		ldrb	r3, [r4, #76]	@ zero_extendqisi2
 5260              	.LBE1909:
 5261              	.LBE1917:
 5262              	.LBB1918:
 5263              	.LBB1914:
  66:../libs/libDaisy/src/dev/mpr121.h ****     }
 5264              		.loc 2 66 40 view .LVU1133
 5265 0aba 09AA     		add	r2, sp, #36
 5266 0abc 94F84810 		ldrb	r1, [r4, #72]	@ zero_extendqisi2
 5267              	.LBE1914:
 5268              	.LBE1918:
 5269              	.LBB1919:
 5270              	.LBB1910:
 5271              		.loc 2 343 55 view .LVU1134
 5272 0ac0 4845     		cmp	r0, r9
 5273 0ac2 18BF     		it	ne
 5274 0ac4 43F00103 		orrne	r3, r3, #1
 5275              	.LBE1910:
 5276              	.LBE1919:
 5277              	.LBB1920:
 5278              	.LBB1915:
  66:../libs/libDaisy/src/dev/mpr121.h ****     }
 5279              		.loc 2 66 40 view .LVU1135
 5280 0ac8 2846     		mov	r0, r5
 5281              	.LVL250:
  66:../libs/libDaisy/src/dev/mpr121.h ****     }
 5282              		.loc 2 66 40 view .LVU1136
 5283              	.LBE1915:
 5284              	.LBE1920:
ARM GAS  C:\Users\matte\AppData\Local\Temp\ccgZTizB.s 			page 118


 288:../libs/libDaisy/src/dev/mpr121.h ****             buff[1] = ecr_backup;
 5285              		.loc 2 288 21 view .LVU1137
 5286 0aca 8DF82480 		strb	r8, [sp, #36]
 5287              	.LBB1921:
 5288              	.LBB1911:
 5289              		.loc 2 343 55 view .LVU1138
 5290 0ace 84F84C30 		strb	r3, [r4, #76]
 5291              	.LVL251:
 5292              		.loc 2 343 55 view .LVU1139
 5293              	.LBE1911:
 5294              	.LBE1921:
 289:../libs/libDaisy/src/dev/mpr121.h ****             SetTransportErr(transport_.Write(buff, 2));
 5295              		.loc 2 289 21 view .LVU1140
 5296 0ad2 9DF81030 		ldrb	r3, [sp, #16]	@ zero_extendqisi2
 5297 0ad6 8DF82530 		strb	r3, [sp, #37]
 5298              	.LVL252:
 5299              	.LBB1922:
 5300              	.LBI1912:
  63:../libs/libDaisy/src/dev/mpr121.h ****     {
 5301              		.loc 2 63 10 is_stmt 1 view .LVU1141
 5302              	.LBB1916:
  65:../libs/libDaisy/src/dev/mpr121.h ****                != i2c_.TransmitBlocking(config_.dev_addr, data, size, 10);
 5303              		.loc 2 65 9 view .LVU1142
  66:../libs/libDaisy/src/dev/mpr121.h ****     }
 5304              		.loc 2 66 40 is_stmt 0 view .LVU1143
 5305 0ada 0223     		movs	r3, #2
 5306 0adc FFF7FEFF 		bl	_ZN5daisy9I2CHandle16TransmitBlockingEtPhtm
 5307              	.LVL253:
  66:../libs/libDaisy/src/dev/mpr121.h ****     }
 5308              		.loc 2 66 40 view .LVU1144
 5309              	.LBE1916:
 5310              	.LBE1922:
 5311              	.LBB1923:
 5312              	.LBI1923:
 5313              		.loc 2 343 10 is_stmt 1 view .LVU1145
 5314              	.LBE1923:
 5315              	.LBE1932:
 5316              	.LBE1941:
 5317              	.LBB1942:
 5318              	.LBB1943:
 5319              	.LBB1944:
 5320              	.LBB1945:
  66:../libs/libDaisy/src/dev/mpr121.h ****     }
 5321              		.loc 2 66 40 is_stmt 0 view .LVU1146
 5322 0ae0 0097     		str	r7, [sp]
 5323              	.LBE1945:
 5324              	.LBE1944:
 5325              	.LBE1943:
 5326              	.LBE1942:
 5327              	.LBB2029:
 5328              	.LBB1933:
 5329              	.LBB1927:
 5330              	.LBB1924:
 5331              		.loc 2 343 55 view .LVU1147
 5332 0ae2 94F84C30 		ldrb	r3, [r4, #76]	@ zero_extendqisi2
 5333              	.LBE1924:
 5334              	.LBE1927:
ARM GAS  C:\Users\matte\AppData\Local\Temp\ccgZTizB.s 			page 119


 5335              	.LBE1933:
 5336              	.LBE2029:
 5337              	.LBB2030:
 5338              	.LBB2023:
 5339              	.LBB1950:
 5340              	.LBB1946:
  66:../libs/libDaisy/src/dev/mpr121.h ****     }
 5341              		.loc 2 66 40 view .LVU1148
 5342 0ae6 09AA     		add	r2, sp, #36
 5343 0ae8 94F84810 		ldrb	r1, [r4, #72]	@ zero_extendqisi2
 5344              	.LBE1946:
 5345              	.LBE1950:
 5346              	.LBE2023:
 5347              	.LBE2030:
 5348              	.LBB2031:
 5349              	.LBB1934:
 5350              	.LBB1928:
 5351              	.LBB1925:
 5352              		.loc 2 343 55 view .LVU1149
 5353 0aec 4845     		cmp	r0, r9
 5354 0aee 18BF     		it	ne
 5355 0af0 43F00103 		orrne	r3, r3, #1
 5356              	.LBE1925:
 5357              	.LBE1928:
 5358              	.LBE1934:
 5359              	.LBE2031:
 5360              	.LBB2032:
 5361              	.LBB2024:
 5362              	.LBB1951:
 5363              	.LBB1947:
  66:../libs/libDaisy/src/dev/mpr121.h ****     }
 5364              		.loc 2 66 40 view .LVU1150
 5365 0af4 2846     		mov	r0, r5
 5366              	.LVL254:
  66:../libs/libDaisy/src/dev/mpr121.h ****     }
 5367              		.loc 2 66 40 view .LVU1151
 5368              	.LBE1947:
 5369              	.LBE1951:
 264:../libs/libDaisy/src/dev/mpr121.h **** 
 5370              		.loc 2 264 17 view .LVU1152
 5371 0af6 8DF82590 		strb	r9, [sp, #37]
 5372              	.LBE2024:
 5373              	.LBE2032:
 5374              	.LBB2033:
 5375              	.LBB1935:
 5376              	.LBB1929:
 5377              	.LBB1926:
 5378              		.loc 2 343 55 view .LVU1153
 5379 0afa 84F84C30 		strb	r3, [r4, #76]
 5380              	.LVL255:
 5381              		.loc 2 343 55 view .LVU1154
 5382              	.LBE1926:
 5383              	.LBE1929:
 5384              	.LBE1935:
 5385              	.LBE2033:
 5386              	.LBB2034:
 5387              	.LBI1942:
ARM GAS  C:\Users\matte\AppData\Local\Temp\ccgZTizB.s 			page 120


 257:../libs/libDaisy/src/dev/mpr121.h ****     {
 5388              		.loc 2 257 10 is_stmt 1 view .LVU1155
 5389              	.LBB2025:
 5390              	.LBB1952:
 5391              	.LBI1944:
  63:../libs/libDaisy/src/dev/mpr121.h ****     {
 5392              		.loc 2 63 10 view .LVU1156
 5393              	.LBB1948:
  65:../libs/libDaisy/src/dev/mpr121.h ****                != i2c_.TransmitBlocking(config_.dev_addr, data, size, 10);
 5394              		.loc 2 65 9 view .LVU1157
  66:../libs/libDaisy/src/dev/mpr121.h ****     }
 5395              		.loc 2 66 40 is_stmt 0 view .LVU1158
 5396 0afe 3346     		mov	r3, r6
 5397              	.LBE1948:
 5398              	.LBE1952:
 264:../libs/libDaisy/src/dev/mpr121.h **** 
 5399              		.loc 2 264 17 view .LVU1159
 5400 0b00 8DF82480 		strb	r8, [sp, #36]
 5401              	.LBB1953:
 5402              	.LBB1949:
  66:../libs/libDaisy/src/dev/mpr121.h ****     }
 5403              		.loc 2 66 40 view .LVU1160
 5404 0b04 FFF7FEFF 		bl	_ZN5daisy9I2CHandle16TransmitBlockingEtPhtm
 5405              	.LVL256:
  66:../libs/libDaisy/src/dev/mpr121.h ****     }
 5406              		.loc 2 66 40 view .LVU1161
 5407              	.LBE1949:
 5408              	.LBE1953:
 5409              	.LBB1954:
 5410              	.LBI1954:
 5411              		.loc 2 343 10 is_stmt 1 view .LVU1162
 5412              	.LBE1954:
 5413              	.LBB1958:
 5414              	.LBB1959:
  73:../libs/libDaisy/src/dev/mpr121.h ****     }
 5415              		.loc 2 73 39 is_stmt 0 view .LVU1163
 5416 0b08 0097     		str	r7, [sp]
 5417 0b0a 3346     		mov	r3, r6
 5418              	.LBE1959:
 5419              	.LBE1958:
 5420              	.LBB1963:
 5421              	.LBB1955:
 5422              		.loc 2 343 55 view .LVU1164
 5423 0b0c 94F84C20 		ldrb	r2, [r4, #76]	@ zero_extendqisi2
 5424              	.LBE1955:
 5425              	.LBE1963:
 5426              	.LBB1964:
 5427              	.LBB1960:
  73:../libs/libDaisy/src/dev/mpr121.h ****     }
 5428              		.loc 2 73 39 view .LVU1165
 5429 0b10 94F84810 		ldrb	r1, [r4, #72]	@ zero_extendqisi2
 5430              	.LBE1960:
 5431              	.LBE1964:
 5432              	.LBB1965:
 5433              	.LBB1956:
 5434              		.loc 2 343 55 view .LVU1166
 5435 0b14 4845     		cmp	r0, r9
ARM GAS  C:\Users\matte\AppData\Local\Temp\ccgZTizB.s 			page 121


 5436 0b16 18BF     		it	ne
 5437 0b18 42F00102 		orrne	r2, r2, #1
 5438              	.LBE1956:
 5439              	.LBE1965:
 5440              	.LBB1966:
 5441              	.LBB1961:
  73:../libs/libDaisy/src/dev/mpr121.h ****     }
 5442              		.loc 2 73 39 view .LVU1167
 5443 0b1c 2846     		mov	r0, r5
 5444              	.LVL257:
  73:../libs/libDaisy/src/dev/mpr121.h ****     }
 5445              		.loc 2 73 39 view .LVU1168
 5446              	.LBE1961:
 5447              	.LBE1966:
 5448              	.LBB1967:
 5449              	.LBB1957:
 5450              		.loc 2 343 55 view .LVU1169
 5451 0b1e 84F84C20 		strb	r2, [r4, #76]
 5452              	.LVL258:
 5453              		.loc 2 343 55 view .LVU1170
 5454              	.LBE1957:
 5455              	.LBE1967:
 5456              	.LBB1968:
 5457              	.LBI1958:
  70:../libs/libDaisy/src/dev/mpr121.h ****     {
 5458              		.loc 2 70 10 is_stmt 1 view .LVU1171
 5459              	.LBB1962:
  72:../libs/libDaisy/src/dev/mpr121.h ****                != i2c_.ReceiveBlocking(config_.dev_addr, data, size, 10);
 5460              		.loc 2 72 9 view .LVU1172
  73:../libs/libDaisy/src/dev/mpr121.h ****     }
 5461              		.loc 2 73 39 is_stmt 0 view .LVU1173
 5462 0b22 04AA     		add	r2, sp, #16
 5463              	.LVL259:
  73:../libs/libDaisy/src/dev/mpr121.h ****     }
 5464              		.loc 2 73 39 view .LVU1174
 5465 0b24 FFF7FEFF 		bl	_ZN5daisy9I2CHandle15ReceiveBlockingEtPhtm
 5466              	.LVL260:
  73:../libs/libDaisy/src/dev/mpr121.h ****     }
 5467              		.loc 2 73 39 view .LVU1175
 5468              	.LBE1962:
 5469              	.LBE1968:
 5470              	.LBB1969:
 5471              	.LBI1969:
 5472              		.loc 2 343 10 is_stmt 1 view .LVU1176
 5473              	.LBE1969:
 5474              	.LBB1973:
 5475              	.LBB1974:
  66:../libs/libDaisy/src/dev/mpr121.h ****     }
 5476              		.loc 2 66 40 is_stmt 0 view .LVU1177
 5477 0b28 0097     		str	r7, [sp]
 5478              	.LBE1974:
 5479              	.LBE1973:
 5480              	.LBB1978:
 5481              	.LBB1970:
 5482              		.loc 2 343 55 view .LVU1178
 5483 0b2a 94F84C30 		ldrb	r3, [r4, #76]	@ zero_extendqisi2
 5484              	.LBE1970:
ARM GAS  C:\Users\matte\AppData\Local\Temp\ccgZTizB.s 			page 122


 5485              	.LBE1978:
 5486              	.LBB1979:
 5487              	.LBB1975:
  66:../libs/libDaisy/src/dev/mpr121.h ****     }
 5488              		.loc 2 66 40 view .LVU1179
 5489 0b2e 09AA     		add	r2, sp, #36
 5490 0b30 94F84810 		ldrb	r1, [r4, #72]	@ zero_extendqisi2
 5491              	.LBE1975:
 5492              	.LBE1979:
 5493              	.LBB1980:
 5494              	.LBB1971:
 5495              		.loc 2 343 55 view .LVU1180
 5496 0b34 4845     		cmp	r0, r9
 5497 0b36 18BF     		it	ne
 5498 0b38 43F00103 		orrne	r3, r3, #1
 5499              	.LBE1971:
 5500              	.LBE1980:
 5501              	.LBB1981:
 5502              	.LBB1976:
  66:../libs/libDaisy/src/dev/mpr121.h ****     }
 5503              		.loc 2 66 40 view .LVU1181
 5504 0b3c 2846     		mov	r0, r5
 5505              	.LVL261:
  66:../libs/libDaisy/src/dev/mpr121.h ****     }
 5506              		.loc 2 66 40 view .LVU1182
 5507              	.LBE1976:
 5508              	.LBE1981:
 5509              	.LBB1982:
 5510              	.LBB1972:
 5511              		.loc 2 343 55 view .LVU1183
 5512 0b3e 84F84C30 		strb	r3, [r4, #76]
 5513              	.LVL262:
 5514              		.loc 2 343 55 view .LVU1184
 5515              	.LBE1972:
 5516              	.LBE1982:
 5517              	.LBB1983:
 5518              	.LBI1973:
  63:../libs/libDaisy/src/dev/mpr121.h ****     {
 5519              		.loc 2 63 10 is_stmt 1 view .LVU1185
 5520              	.LBB1977:
  65:../libs/libDaisy/src/dev/mpr121.h ****                != i2c_.TransmitBlocking(config_.dev_addr, data, size, 10);
 5521              		.loc 2 65 9 view .LVU1186
  66:../libs/libDaisy/src/dev/mpr121.h ****     }
 5522              		.loc 2 66 40 is_stmt 0 view .LVU1187
 5523 0b42 0223     		movs	r3, #2
 5524 0b44 FFF7FEFF 		bl	_ZN5daisy9I2CHandle16TransmitBlockingEtPhtm
 5525              	.LVL263:
  66:../libs/libDaisy/src/dev/mpr121.h ****     }
 5526              		.loc 2 66 40 view .LVU1188
 5527              	.LBE1977:
 5528              	.LBE1983:
 5529              	.LBB1984:
 5530              	.LBI1984:
 5531              		.loc 2 343 10 is_stmt 1 view .LVU1189
 5532              	.LBE1984:
 5533              	.LBB1988:
 5534              	.LBB1989:
ARM GAS  C:\Users\matte\AppData\Local\Temp\ccgZTizB.s 			page 123


  66:../libs/libDaisy/src/dev/mpr121.h ****     }
 5535              		.loc 2 66 40 is_stmt 0 view .LVU1190
 5536 0b48 0097     		str	r7, [sp]
 5537              	.LBE1989:
 5538              	.LBE1988:
 5539              	.LBB1994:
 5540              	.LBB1985:
 5541              		.loc 2 343 55 view .LVU1191
 5542 0b4a 94F84C30 		ldrb	r3, [r4, #76]	@ zero_extendqisi2
 5543              	.LBE1985:
 5544              	.LBE1994:
 5545              	.LBB1995:
 5546              	.LBB1990:
  66:../libs/libDaisy/src/dev/mpr121.h ****     }
 5547              		.loc 2 66 40 view .LVU1192
 5548 0b4e 09AA     		add	r2, sp, #36
 5549 0b50 94F84810 		ldrb	r1, [r4, #72]	@ zero_extendqisi2
 5550              	.LBE1990:
 5551              	.LBE1995:
 5552              	.LBB1996:
 5553              	.LBB1986:
 5554              		.loc 2 343 55 view .LVU1193
 5555 0b54 4845     		cmp	r0, r9
 5556 0b56 18BF     		it	ne
 5557 0b58 43F00103 		orrne	r3, r3, #1
 5558              	.LBE1986:
 5559              	.LBE1996:
 5560              	.LBB1997:
 5561              	.LBB1991:
  66:../libs/libDaisy/src/dev/mpr121.h ****     }
 5562              		.loc 2 66 40 view .LVU1194
 5563 0b5c 2846     		mov	r0, r5
 5564              	.LVL264:
  66:../libs/libDaisy/src/dev/mpr121.h ****     }
 5565              		.loc 2 66 40 view .LVU1195
 5566              	.LBE1991:
 5567              	.LBE1997:
 282:../libs/libDaisy/src/dev/mpr121.h ****         SetTransportErr(transport_.Write(buff, 2));
 5568              		.loc 2 282 17 view .LVU1196
 5569 0b5e 8DF82590 		strb	r9, [sp, #37]
 5570              	.LBB1998:
 5571              	.LBB1987:
 5572              		.loc 2 343 55 view .LVU1197
 5573 0b62 84F84C30 		strb	r3, [r4, #76]
 5574              	.LVL265:
 5575              		.loc 2 343 55 view .LVU1198
 5576              	.LBE1987:
 5577              	.LBE1998:
 5578              	.LBB1999:
 5579              	.LBI1988:
  63:../libs/libDaisy/src/dev/mpr121.h ****     {
 5580              		.loc 2 63 10 is_stmt 1 view .LVU1199
 5581              	.LBB1992:
  65:../libs/libDaisy/src/dev/mpr121.h ****                != i2c_.TransmitBlocking(config_.dev_addr, data, size, 10);
 5582              		.loc 2 65 9 view .LVU1200
 5583              	.LBE1992:
 5584              	.LBE1999:
ARM GAS  C:\Users\matte\AppData\Local\Temp\ccgZTizB.s 			page 124


 281:../libs/libDaisy/src/dev/mpr121.h ****         buff[1] = value;
 5585              		.loc 2 281 17 is_stmt 0 view .LVU1201
 5586 0b66 3523     		movs	r3, #53
 5587 0b68 8DF82430 		strb	r3, [sp, #36]
 5588              	.LBB2000:
 5589              	.LBB1993:
  66:../libs/libDaisy/src/dev/mpr121.h ****     }
 5590              		.loc 2 66 40 view .LVU1202
 5591 0b6c 0223     		movs	r3, #2
 5592 0b6e FFF7FEFF 		bl	_ZN5daisy9I2CHandle16TransmitBlockingEtPhtm
 5593              	.LVL266:
  66:../libs/libDaisy/src/dev/mpr121.h ****     }
 5594              		.loc 2 66 40 view .LVU1203
 5595              	.LBE1993:
 5596              	.LBE2000:
 5597              	.LBB2001:
 5598              	.LBI2001:
 5599              		.loc 2 343 10 is_stmt 1 view .LVU1204
 5600              	.LBE2001:
 5601              	.LBB2005:
 5602              	.LBB2006:
  66:../libs/libDaisy/src/dev/mpr121.h ****     }
 5603              		.loc 2 66 40 is_stmt 0 view .LVU1205
 5604 0b72 0097     		str	r7, [sp]
 5605              	.LBE2006:
 5606              	.LBE2005:
 5607              	.LBB2010:
 5608              	.LBB2002:
 5609              		.loc 2 343 55 view .LVU1206
 5610 0b74 94F84C30 		ldrb	r3, [r4, #76]	@ zero_extendqisi2
 5611              	.LBE2002:
 5612              	.LBE2010:
 5613              	.LBB2011:
 5614              	.LBB2007:
  66:../libs/libDaisy/src/dev/mpr121.h ****     }
 5615              		.loc 2 66 40 view .LVU1207
 5616 0b78 09AA     		add	r2, sp, #36
 5617 0b7a 94F84810 		ldrb	r1, [r4, #72]	@ zero_extendqisi2
 5618              	.LBE2007:
 5619              	.LBE2011:
 5620              	.LBB2012:
 5621              	.LBB2003:
 5622              		.loc 2 343 55 view .LVU1208
 5623 0b7e 4845     		cmp	r0, r9
 5624 0b80 18BF     		it	ne
 5625 0b82 43F00103 		orrne	r3, r3, #1
 5626              	.LBE2003:
 5627              	.LBE2012:
 5628              	.LBB2013:
 5629              	.LBB2008:
  66:../libs/libDaisy/src/dev/mpr121.h ****     }
 5630              		.loc 2 66 40 view .LVU1209
 5631 0b86 2846     		mov	r0, r5
 5632              	.LVL267:
  66:../libs/libDaisy/src/dev/mpr121.h ****     }
 5633              		.loc 2 66 40 view .LVU1210
 5634              	.LBE2008:
ARM GAS  C:\Users\matte\AppData\Local\Temp\ccgZTizB.s 			page 125


 5635              	.LBE2013:
 288:../libs/libDaisy/src/dev/mpr121.h ****             buff[1] = ecr_backup;
 5636              		.loc 2 288 21 view .LVU1211
 5637 0b88 8DF82480 		strb	r8, [sp, #36]
 5638              	.LBB2014:
 5639              	.LBB2004:
 5640              		.loc 2 343 55 view .LVU1212
 5641 0b8c 84F84C30 		strb	r3, [r4, #76]
 5642              	.LVL268:
 5643              		.loc 2 343 55 view .LVU1213
 5644              	.LBE2004:
 5645              	.LBE2014:
 289:../libs/libDaisy/src/dev/mpr121.h ****             SetTransportErr(transport_.Write(buff, 2));
 5646              		.loc 2 289 21 view .LVU1214
 5647 0b90 9DF81030 		ldrb	r3, [sp, #16]	@ zero_extendqisi2
 5648 0b94 8DF82530 		strb	r3, [sp, #37]
 5649              	.LVL269:
 5650              	.LBB2015:
 5651              	.LBI2005:
  63:../libs/libDaisy/src/dev/mpr121.h ****     {
 5652              		.loc 2 63 10 is_stmt 1 view .LVU1215
 5653              	.LBB2009:
  65:../libs/libDaisy/src/dev/mpr121.h ****                != i2c_.TransmitBlocking(config_.dev_addr, data, size, 10);
 5654              		.loc 2 65 9 view .LVU1216
  66:../libs/libDaisy/src/dev/mpr121.h ****     }
 5655              		.loc 2 66 40 is_stmt 0 view .LVU1217
 5656 0b98 0223     		movs	r3, #2
 5657 0b9a FFF7FEFF 		bl	_ZN5daisy9I2CHandle16TransmitBlockingEtPhtm
 5658              	.LVL270:
  66:../libs/libDaisy/src/dev/mpr121.h ****     }
 5659              		.loc 2 66 40 view .LVU1218
 5660              	.LBE2009:
 5661              	.LBE2015:
 5662              	.LBB2016:
 5663              	.LBI2016:
 5664              		.loc 2 343 10 is_stmt 1 view .LVU1219
 5665              	.LBE2016:
 5666              	.LBE2025:
 5667              	.LBE2034:
 5668              	.LBB2035:
 5669              	.LBB2036:
 5670              	.LBB2037:
 5671              	.LBB2038:
  66:../libs/libDaisy/src/dev/mpr121.h ****     }
 5672              		.loc 2 66 40 is_stmt 0 view .LVU1220
 5673 0b9e 0097     		str	r7, [sp]
 5674              	.LBE2038:
 5675              	.LBE2037:
 5676              	.LBE2036:
 5677              	.LBE2035:
 5678              	.LBB2122:
 5679              	.LBB2026:
 5680              	.LBB2020:
 5681              	.LBB2017:
 5682              		.loc 2 343 55 view .LVU1221
 5683 0ba0 94F84C30 		ldrb	r3, [r4, #76]	@ zero_extendqisi2
 5684              	.LBE2017:
ARM GAS  C:\Users\matte\AppData\Local\Temp\ccgZTizB.s 			page 126


 5685              	.LBE2020:
 5686              	.LBE2026:
 5687              	.LBE2122:
 5688              	.LBB2123:
 5689              	.LBB2116:
 5690              	.LBB2043:
 5691              	.LBB2039:
  66:../libs/libDaisy/src/dev/mpr121.h ****     }
 5692              		.loc 2 66 40 view .LVU1222
 5693 0ba4 09AA     		add	r2, sp, #36
 5694 0ba6 94F84810 		ldrb	r1, [r4, #72]	@ zero_extendqisi2
 5695              	.LBE2039:
 5696              	.LBE2043:
 5697              	.LBE2116:
 5698              	.LBE2123:
 5699              	.LBB2124:
 5700              	.LBB2027:
 5701              	.LBB2021:
 5702              	.LBB2018:
 5703              		.loc 2 343 55 view .LVU1223
 5704 0baa 4845     		cmp	r0, r9
 5705 0bac 18BF     		it	ne
 5706 0bae 43F00103 		orrne	r3, r3, #1
 5707              	.LBE2018:
 5708              	.LBE2021:
 5709              	.LBE2027:
 5710              	.LBE2124:
 5711              	.LBB2125:
 5712              	.LBB2117:
 5713              	.LBB2044:
 5714              	.LBB2040:
  66:../libs/libDaisy/src/dev/mpr121.h ****     }
 5715              		.loc 2 66 40 view .LVU1224
 5716 0bb2 2846     		mov	r0, r5
 5717              	.LVL271:
  66:../libs/libDaisy/src/dev/mpr121.h ****     }
 5718              		.loc 2 66 40 view .LVU1225
 5719              	.LBE2040:
 5720              	.LBE2044:
 264:../libs/libDaisy/src/dev/mpr121.h **** 
 5721              		.loc 2 264 17 view .LVU1226
 5722 0bb4 8DF82590 		strb	r9, [sp, #37]
 5723              	.LBE2117:
 5724              	.LBE2125:
 5725              	.LBB2126:
 5726              	.LBB2028:
 5727              	.LBB2022:
 5728              	.LBB2019:
 5729              		.loc 2 343 55 view .LVU1227
 5730 0bb8 84F84C30 		strb	r3, [r4, #76]
 5731              	.LVL272:
 5732              		.loc 2 343 55 view .LVU1228
 5733              	.LBE2019:
 5734              	.LBE2022:
 5735              	.LBE2028:
 5736              	.LBE2126:
 5737              	.LBB2127:
ARM GAS  C:\Users\matte\AppData\Local\Temp\ccgZTizB.s 			page 127


 5738              	.LBI2035:
 257:../libs/libDaisy/src/dev/mpr121.h ****     {
 5739              		.loc 2 257 10 is_stmt 1 view .LVU1229
 5740              	.LBB2118:
 5741              	.LBB2045:
 5742              	.LBI2037:
  63:../libs/libDaisy/src/dev/mpr121.h ****     {
 5743              		.loc 2 63 10 view .LVU1230
 5744              	.LBB2041:
  65:../libs/libDaisy/src/dev/mpr121.h ****                != i2c_.TransmitBlocking(config_.dev_addr, data, size, 10);
 5745              		.loc 2 65 9 view .LVU1231
  66:../libs/libDaisy/src/dev/mpr121.h ****     }
 5746              		.loc 2 66 40 is_stmt 0 view .LVU1232
 5747 0bbc 3346     		mov	r3, r6
 5748              	.LBE2041:
 5749              	.LBE2045:
 264:../libs/libDaisy/src/dev/mpr121.h **** 
 5750              		.loc 2 264 17 view .LVU1233
 5751 0bbe 8DF82480 		strb	r8, [sp, #36]
 5752              	.LBB2046:
 5753              	.LBB2042:
  66:../libs/libDaisy/src/dev/mpr121.h ****     }
 5754              		.loc 2 66 40 view .LVU1234
 5755 0bc2 FFF7FEFF 		bl	_ZN5daisy9I2CHandle16TransmitBlockingEtPhtm
 5756              	.LVL273:
  66:../libs/libDaisy/src/dev/mpr121.h ****     }
 5757              		.loc 2 66 40 view .LVU1235
 5758              	.LBE2042:
 5759              	.LBE2046:
 5760              	.LBB2047:
 5761              	.LBI2047:
 5762              		.loc 2 343 10 is_stmt 1 view .LVU1236
 5763              	.LBE2047:
 5764              	.LBB2051:
 5765              	.LBB2052:
  73:../libs/libDaisy/src/dev/mpr121.h ****     }
 5766              		.loc 2 73 39 is_stmt 0 view .LVU1237
 5767 0bc6 0097     		str	r7, [sp]
 5768 0bc8 04AA     		add	r2, sp, #16
 5769              	.LBE2052:
 5770              	.LBE2051:
 5771              	.LBB2056:
 5772              	.LBB2048:
 5773              		.loc 2 343 55 view .LVU1238
 5774 0bca 94F84C30 		ldrb	r3, [r4, #76]	@ zero_extendqisi2
 5775              	.LBE2048:
 5776              	.LBE2056:
 5777              	.LBB2057:
 5778              	.LBB2053:
  73:../libs/libDaisy/src/dev/mpr121.h ****     }
 5779              		.loc 2 73 39 view .LVU1239
 5780 0bce 94F84810 		ldrb	r1, [r4, #72]	@ zero_extendqisi2
 5781              	.LBE2053:
 5782              	.LBE2057:
 5783              	.LBB2058:
 5784              	.LBB2049:
 5785              		.loc 2 343 55 view .LVU1240
ARM GAS  C:\Users\matte\AppData\Local\Temp\ccgZTizB.s 			page 128


 5786 0bd2 4845     		cmp	r0, r9
 5787 0bd4 18BF     		it	ne
 5788 0bd6 43F00103 		orrne	r3, r3, #1
 5789              	.LBE2049:
 5790              	.LBE2058:
 5791              	.LBB2059:
 5792              	.LBB2054:
  73:../libs/libDaisy/src/dev/mpr121.h ****     }
 5793              		.loc 2 73 39 view .LVU1241
 5794 0bda 2846     		mov	r0, r5
 5795              	.LVL274:
  73:../libs/libDaisy/src/dev/mpr121.h ****     }
 5796              		.loc 2 73 39 view .LVU1242
 5797              	.LBE2054:
 5798              	.LBE2059:
 5799              	.LBB2060:
 5800              	.LBB2050:
 5801              		.loc 2 343 55 view .LVU1243
 5802 0bdc 84F84C30 		strb	r3, [r4, #76]
 5803              	.LVL275:
 5804              		.loc 2 343 55 view .LVU1244
 5805              	.LBE2050:
 5806              	.LBE2060:
 5807              	.LBB2061:
 5808              	.LBI2051:
  70:../libs/libDaisy/src/dev/mpr121.h ****     {
 5809              		.loc 2 70 10 is_stmt 1 view .LVU1245
 5810              	.LBB2055:
  72:../libs/libDaisy/src/dev/mpr121.h ****                != i2c_.ReceiveBlocking(config_.dev_addr, data, size, 10);
 5811              		.loc 2 72 9 view .LVU1246
  73:../libs/libDaisy/src/dev/mpr121.h ****     }
 5812              		.loc 2 73 39 is_stmt 0 view .LVU1247
 5813 0be0 3346     		mov	r3, r6
 5814 0be2 FFF7FEFF 		bl	_ZN5daisy9I2CHandle15ReceiveBlockingEtPhtm
 5815              	.LVL276:
  73:../libs/libDaisy/src/dev/mpr121.h ****     }
 5816              		.loc 2 73 39 view .LVU1248
 5817              	.LBE2055:
 5818              	.LBE2061:
 5819              	.LBB2062:
 5820              	.LBI2062:
 5821              		.loc 2 343 10 is_stmt 1 view .LVU1249
 5822              	.LBE2062:
 5823              	.LBB2066:
 5824              	.LBB2067:
  66:../libs/libDaisy/src/dev/mpr121.h ****     }
 5825              		.loc 2 66 40 is_stmt 0 view .LVU1250
 5826 0be6 0097     		str	r7, [sp]
 5827              	.LBE2067:
 5828              	.LBE2066:
 5829              	.LBB2071:
 5830              	.LBB2063:
 5831              		.loc 2 343 55 view .LVU1251
 5832 0be8 94F84C30 		ldrb	r3, [r4, #76]	@ zero_extendqisi2
 5833              	.LBE2063:
 5834              	.LBE2071:
 5835              	.LBB2072:
ARM GAS  C:\Users\matte\AppData\Local\Temp\ccgZTizB.s 			page 129


 5836              	.LBB2068:
  66:../libs/libDaisy/src/dev/mpr121.h ****     }
 5837              		.loc 2 66 40 view .LVU1252
 5838 0bec 09AA     		add	r2, sp, #36
 5839 0bee 94F84810 		ldrb	r1, [r4, #72]	@ zero_extendqisi2
 5840              	.LBE2068:
 5841              	.LBE2072:
 5842              	.LBB2073:
 5843              	.LBB2064:
 5844              		.loc 2 343 55 view .LVU1253
 5845 0bf2 4845     		cmp	r0, r9
 5846 0bf4 18BF     		it	ne
 5847 0bf6 43F00103 		orrne	r3, r3, #1
 5848              	.LBE2064:
 5849              	.LBE2073:
 5850              	.LBB2074:
 5851              	.LBB2069:
  66:../libs/libDaisy/src/dev/mpr121.h ****     }
 5852              		.loc 2 66 40 view .LVU1254
 5853 0bfa 2846     		mov	r0, r5
 5854              	.LVL277:
  66:../libs/libDaisy/src/dev/mpr121.h ****     }
 5855              		.loc 2 66 40 view .LVU1255
 5856              	.LBE2069:
 5857              	.LBE2074:
 5858              	.LBB2075:
 5859              	.LBB2065:
 5860              		.loc 2 343 55 view .LVU1256
 5861 0bfc 84F84C30 		strb	r3, [r4, #76]
 5862              	.LVL278:
 5863              		.loc 2 343 55 view .LVU1257
 5864              	.LBE2065:
 5865              	.LBE2075:
 5866              	.LBB2076:
 5867              	.LBI2066:
  63:../libs/libDaisy/src/dev/mpr121.h ****     {
 5868              		.loc 2 63 10 is_stmt 1 view .LVU1258
 5869              	.LBB2070:
  65:../libs/libDaisy/src/dev/mpr121.h ****                != i2c_.TransmitBlocking(config_.dev_addr, data, size, 10);
 5870              		.loc 2 65 9 view .LVU1259
  66:../libs/libDaisy/src/dev/mpr121.h ****     }
 5871              		.loc 2 66 40 is_stmt 0 view .LVU1260
 5872 0c00 0223     		movs	r3, #2
 5873 0c02 FFF7FEFF 		bl	_ZN5daisy9I2CHandle16TransmitBlockingEtPhtm
 5874              	.LVL279:
  66:../libs/libDaisy/src/dev/mpr121.h ****     }
 5875              		.loc 2 66 40 view .LVU1261
 5876              	.LBE2070:
 5877              	.LBE2076:
 5878              	.LBB2077:
 5879              	.LBI2077:
 5880              		.loc 2 343 10 is_stmt 1 view .LVU1262
 5881              	.LBE2077:
 5882              	.LBB2081:
 5883              	.LBB2082:
  66:../libs/libDaisy/src/dev/mpr121.h ****     }
 5884              		.loc 2 66 40 is_stmt 0 view .LVU1263
ARM GAS  C:\Users\matte\AppData\Local\Temp\ccgZTizB.s 			page 130


 5885 0c06 0097     		str	r7, [sp]
 5886              	.LBE2082:
 5887              	.LBE2081:
 5888              	.LBB2087:
 5889              	.LBB2078:
 5890              		.loc 2 343 55 view .LVU1264
 5891 0c08 94F84C30 		ldrb	r3, [r4, #76]	@ zero_extendqisi2
 5892              	.LBE2078:
 5893              	.LBE2087:
 5894              	.LBB2088:
 5895              	.LBB2083:
  66:../libs/libDaisy/src/dev/mpr121.h ****     }
 5896              		.loc 2 66 40 view .LVU1265
 5897 0c0c 09AA     		add	r2, sp, #36
 5898 0c0e 94F84810 		ldrb	r1, [r4, #72]	@ zero_extendqisi2
 5899              	.LBE2083:
 5900              	.LBE2088:
 5901              	.LBB2089:
 5902              	.LBB2079:
 5903              		.loc 2 343 55 view .LVU1266
 5904 0c12 4845     		cmp	r0, r9
 5905 0c14 18BF     		it	ne
 5906 0c16 43F00103 		orrne	r3, r3, #1
 5907              	.LBE2079:
 5908              	.LBE2089:
 5909              	.LBB2090:
 5910              	.LBB2084:
  66:../libs/libDaisy/src/dev/mpr121.h ****     }
 5911              		.loc 2 66 40 view .LVU1267
 5912 0c1a 2846     		mov	r0, r5
 5913              	.LVL280:
  66:../libs/libDaisy/src/dev/mpr121.h ****     }
 5914              		.loc 2 66 40 view .LVU1268
 5915              	.LBE2084:
 5916              	.LBE2090:
 282:../libs/libDaisy/src/dev/mpr121.h ****         SetTransportErr(transport_.Write(buff, 2));
 5917              		.loc 2 282 17 view .LVU1269
 5918 0c1c 8DF82590 		strb	r9, [sp, #37]
 5919              	.LBB2091:
 5920              	.LBB2080:
 5921              		.loc 2 343 55 view .LVU1270
 5922 0c20 84F84C30 		strb	r3, [r4, #76]
 5923              	.LVL281:
 5924              		.loc 2 343 55 view .LVU1271
 5925              	.LBE2080:
 5926              	.LBE2091:
 5927              	.LBB2092:
 5928              	.LBI2081:
  63:../libs/libDaisy/src/dev/mpr121.h ****     {
 5929              		.loc 2 63 10 is_stmt 1 view .LVU1272
 5930              	.LBB2085:
  65:../libs/libDaisy/src/dev/mpr121.h ****                != i2c_.TransmitBlocking(config_.dev_addr, data, size, 10);
 5931              		.loc 2 65 9 view .LVU1273
 5932              	.LBE2085:
 5933              	.LBE2092:
 281:../libs/libDaisy/src/dev/mpr121.h ****         buff[1] = value;
 5934              		.loc 2 281 17 is_stmt 0 view .LVU1274
ARM GAS  C:\Users\matte\AppData\Local\Temp\ccgZTizB.s 			page 131


 5935 0c24 5B23     		movs	r3, #91
 5936 0c26 8DF82430 		strb	r3, [sp, #36]
 5937              	.LBB2093:
 5938              	.LBB2086:
  66:../libs/libDaisy/src/dev/mpr121.h ****     }
 5939              		.loc 2 66 40 view .LVU1275
 5940 0c2a 0223     		movs	r3, #2
 5941 0c2c FFF7FEFF 		bl	_ZN5daisy9I2CHandle16TransmitBlockingEtPhtm
 5942              	.LVL282:
  66:../libs/libDaisy/src/dev/mpr121.h ****     }
 5943              		.loc 2 66 40 view .LVU1276
 5944              	.LBE2086:
 5945              	.LBE2093:
 5946              	.LBB2094:
 5947              	.LBI2094:
 5948              		.loc 2 343 10 is_stmt 1 view .LVU1277
 5949              	.LBE2094:
 5950              	.LBB2098:
 5951              	.LBB2099:
  66:../libs/libDaisy/src/dev/mpr121.h ****     }
 5952              		.loc 2 66 40 is_stmt 0 view .LVU1278
 5953 0c30 0097     		str	r7, [sp]
 5954              	.LBE2099:
 5955              	.LBE2098:
 5956              	.LBB2103:
 5957              	.LBB2095:
 5958              		.loc 2 343 55 view .LVU1279
 5959 0c32 94F84C30 		ldrb	r3, [r4, #76]	@ zero_extendqisi2
 5960              	.LBE2095:
 5961              	.LBE2103:
 5962              	.LBB2104:
 5963              	.LBB2100:
  66:../libs/libDaisy/src/dev/mpr121.h ****     }
 5964              		.loc 2 66 40 view .LVU1280
 5965 0c36 09AA     		add	r2, sp, #36
 5966 0c38 94F84810 		ldrb	r1, [r4, #72]	@ zero_extendqisi2
 5967              	.LBE2100:
 5968              	.LBE2104:
 5969              	.LBB2105:
 5970              	.LBB2096:
 5971              		.loc 2 343 55 view .LVU1281
 5972 0c3c 4845     		cmp	r0, r9
 5973 0c3e 18BF     		it	ne
 5974 0c40 43F00103 		orrne	r3, r3, #1
 5975              	.LBE2096:
 5976              	.LBE2105:
 5977              	.LBB2106:
 5978              	.LBB2101:
  66:../libs/libDaisy/src/dev/mpr121.h ****     }
 5979              		.loc 2 66 40 view .LVU1282
 5980 0c44 2846     		mov	r0, r5
 5981              	.LVL283:
  66:../libs/libDaisy/src/dev/mpr121.h ****     }
 5982              		.loc 2 66 40 view .LVU1283
 5983              	.LBE2101:
 5984              	.LBE2106:
 288:../libs/libDaisy/src/dev/mpr121.h ****             buff[1] = ecr_backup;
ARM GAS  C:\Users\matte\AppData\Local\Temp\ccgZTizB.s 			page 132


 5985              		.loc 2 288 21 view .LVU1284
 5986 0c46 8DF82480 		strb	r8, [sp, #36]
 5987              	.LBB2107:
 5988              	.LBB2097:
 5989              		.loc 2 343 55 view .LVU1285
 5990 0c4a 84F84C30 		strb	r3, [r4, #76]
 5991              	.LVL284:
 5992              		.loc 2 343 55 view .LVU1286
 5993              	.LBE2097:
 5994              	.LBE2107:
 289:../libs/libDaisy/src/dev/mpr121.h ****             SetTransportErr(transport_.Write(buff, 2));
 5995              		.loc 2 289 21 view .LVU1287
 5996 0c4e 9DF81030 		ldrb	r3, [sp, #16]	@ zero_extendqisi2
 5997 0c52 8DF82530 		strb	r3, [sp, #37]
 5998              	.LVL285:
 5999              	.LBB2108:
 6000              	.LBI2098:
  63:../libs/libDaisy/src/dev/mpr121.h ****     {
 6001              		.loc 2 63 10 is_stmt 1 view .LVU1288
 6002              	.LBB2102:
  65:../libs/libDaisy/src/dev/mpr121.h ****                != i2c_.TransmitBlocking(config_.dev_addr, data, size, 10);
 6003              		.loc 2 65 9 view .LVU1289
  66:../libs/libDaisy/src/dev/mpr121.h ****     }
 6004              		.loc 2 66 40 is_stmt 0 view .LVU1290
 6005 0c56 0223     		movs	r3, #2
 6006 0c58 FFF7FEFF 		bl	_ZN5daisy9I2CHandle16TransmitBlockingEtPhtm
 6007              	.LVL286:
  66:../libs/libDaisy/src/dev/mpr121.h ****     }
 6008              		.loc 2 66 40 view .LVU1291
 6009              	.LBE2102:
 6010              	.LBE2108:
 6011              	.LBB2109:
 6012              	.LBI2109:
 6013              		.loc 2 343 10 is_stmt 1 view .LVU1292
 6014              	.LBE2109:
 6015              	.LBE2118:
 6016              	.LBE2127:
 6017              	.LBB2128:
 6018              	.LBB2129:
 6019              	.LBB2130:
 6020              	.LBB2131:
  66:../libs/libDaisy/src/dev/mpr121.h ****     }
 6021              		.loc 2 66 40 is_stmt 0 view .LVU1293
 6022 0c5c 0097     		str	r7, [sp]
 6023              	.LBE2131:
 6024              	.LBE2130:
 6025              	.LBE2129:
 6026              	.LBE2128:
 6027              	.LBB2213:
 6028              	.LBB2119:
 6029              	.LBB2113:
 6030              	.LBB2110:
 6031              		.loc 2 343 55 view .LVU1294
 6032 0c5e 94F84C30 		ldrb	r3, [r4, #76]	@ zero_extendqisi2
 6033              	.LBE2110:
 6034              	.LBE2113:
 6035              	.LBE2119:
ARM GAS  C:\Users\matte\AppData\Local\Temp\ccgZTizB.s 			page 133


 6036              	.LBE2213:
 6037              	.LBB2214:
 6038              	.LBB2207:
 6039              	.LBB2136:
 6040              	.LBB2132:
  66:../libs/libDaisy/src/dev/mpr121.h ****     }
 6041              		.loc 2 66 40 view .LVU1295
 6042 0c62 09AA     		add	r2, sp, #36
 6043 0c64 94F84810 		ldrb	r1, [r4, #72]	@ zero_extendqisi2
 6044              	.LBE2132:
 6045              	.LBE2136:
 6046              	.LBE2207:
 6047              	.LBE2214:
 6048              	.LBB2215:
 6049              	.LBB2120:
 6050              	.LBB2114:
 6051              	.LBB2111:
 6052              		.loc 2 343 55 view .LVU1296
 6053 0c68 4845     		cmp	r0, r9
 6054 0c6a 18BF     		it	ne
 6055 0c6c 43F00103 		orrne	r3, r3, #1
 6056              	.LBE2111:
 6057              	.LBE2114:
 6058              	.LBE2120:
 6059              	.LBE2215:
 6060              	.LBB2216:
 6061              	.LBB2208:
 6062              	.LBB2137:
 6063              	.LBB2133:
  66:../libs/libDaisy/src/dev/mpr121.h ****     }
 6064              		.loc 2 66 40 view .LVU1297
 6065 0c70 2846     		mov	r0, r5
 6066              	.LVL287:
  66:../libs/libDaisy/src/dev/mpr121.h ****     }
 6067              		.loc 2 66 40 view .LVU1298
 6068              	.LBE2133:
 6069              	.LBE2137:
 264:../libs/libDaisy/src/dev/mpr121.h **** 
 6070              		.loc 2 264 17 view .LVU1299
 6071 0c72 8DF82590 		strb	r9, [sp, #37]
 6072              	.LBE2208:
 6073              	.LBE2216:
 6074              	.LBB2217:
 6075              	.LBB2121:
 6076              	.LBB2115:
 6077              	.LBB2112:
 6078              		.loc 2 343 55 view .LVU1300
 6079 0c76 84F84C30 		strb	r3, [r4, #76]
 6080              	.LVL288:
 6081              		.loc 2 343 55 view .LVU1301
 6082              	.LBE2112:
 6083              	.LBE2115:
 6084              	.LBE2121:
 6085              	.LBE2217:
 6086              	.LBB2218:
 6087              	.LBI2128:
 257:../libs/libDaisy/src/dev/mpr121.h ****     {
ARM GAS  C:\Users\matte\AppData\Local\Temp\ccgZTizB.s 			page 134


 6088              		.loc 2 257 10 is_stmt 1 view .LVU1302
 6089              	.LBB2209:
 6090              	.LBB2138:
 6091              	.LBI2130:
  63:../libs/libDaisy/src/dev/mpr121.h ****     {
 6092              		.loc 2 63 10 view .LVU1303
 6093              	.LBB2134:
  65:../libs/libDaisy/src/dev/mpr121.h ****                != i2c_.TransmitBlocking(config_.dev_addr, data, size, 10);
 6094              		.loc 2 65 9 view .LVU1304
  66:../libs/libDaisy/src/dev/mpr121.h ****     }
 6095              		.loc 2 66 40 is_stmt 0 view .LVU1305
 6096 0c7a 3346     		mov	r3, r6
 6097              	.LBE2134:
 6098              	.LBE2138:
 264:../libs/libDaisy/src/dev/mpr121.h **** 
 6099              		.loc 2 264 17 view .LVU1306
 6100 0c7c 8DF82480 		strb	r8, [sp, #36]
 6101              	.LBB2139:
 6102              	.LBB2135:
  66:../libs/libDaisy/src/dev/mpr121.h ****     }
 6103              		.loc 2 66 40 view .LVU1307
 6104 0c80 FFF7FEFF 		bl	_ZN5daisy9I2CHandle16TransmitBlockingEtPhtm
 6105              	.LVL289:
  66:../libs/libDaisy/src/dev/mpr121.h ****     }
 6106              		.loc 2 66 40 view .LVU1308
 6107              	.LBE2135:
 6108              	.LBE2139:
 6109              	.LBB2140:
 6110              	.LBI2140:
 6111              		.loc 2 343 10 is_stmt 1 view .LVU1309
 6112              	.LBE2140:
 6113              	.LBB2144:
 6114              	.LBB2145:
  73:../libs/libDaisy/src/dev/mpr121.h ****     }
 6115              		.loc 2 73 39 is_stmt 0 view .LVU1310
 6116 0c84 0097     		str	r7, [sp]
 6117 0c86 04AA     		add	r2, sp, #16
 6118              	.LBE2145:
 6119              	.LBE2144:
 6120              	.LBB2149:
 6121              	.LBB2141:
 6122              		.loc 2 343 55 view .LVU1311
 6123 0c88 94F84C30 		ldrb	r3, [r4, #76]	@ zero_extendqisi2
 6124              	.LBE2141:
 6125              	.LBE2149:
 6126              	.LBB2150:
 6127              	.LBB2146:
  73:../libs/libDaisy/src/dev/mpr121.h ****     }
 6128              		.loc 2 73 39 view .LVU1312
 6129 0c8c 94F84810 		ldrb	r1, [r4, #72]	@ zero_extendqisi2
 6130              	.LBE2146:
 6131              	.LBE2150:
 6132              	.LBB2151:
 6133              	.LBB2142:
 6134              		.loc 2 343 55 view .LVU1313
 6135 0c90 4845     		cmp	r0, r9
 6136 0c92 18BF     		it	ne
ARM GAS  C:\Users\matte\AppData\Local\Temp\ccgZTizB.s 			page 135


 6137 0c94 43F00103 		orrne	r3, r3, #1
 6138              	.LBE2142:
 6139              	.LBE2151:
 6140              	.LBB2152:
 6141              	.LBB2147:
  73:../libs/libDaisy/src/dev/mpr121.h ****     }
 6142              		.loc 2 73 39 view .LVU1314
 6143 0c98 2846     		mov	r0, r5
 6144              	.LVL290:
  73:../libs/libDaisy/src/dev/mpr121.h ****     }
 6145              		.loc 2 73 39 view .LVU1315
 6146              	.LBE2147:
 6147              	.LBE2152:
 6148              	.LBB2153:
 6149              	.LBB2143:
 6150              		.loc 2 343 55 view .LVU1316
 6151 0c9a 84F84C30 		strb	r3, [r4, #76]
 6152              	.LVL291:
 6153              		.loc 2 343 55 view .LVU1317
 6154              	.LBE2143:
 6155              	.LBE2153:
 6156              	.LBB2154:
 6157              	.LBI2144:
  70:../libs/libDaisy/src/dev/mpr121.h ****     {
 6158              		.loc 2 70 10 is_stmt 1 view .LVU1318
 6159              	.LBB2148:
  72:../libs/libDaisy/src/dev/mpr121.h ****                != i2c_.ReceiveBlocking(config_.dev_addr, data, size, 10);
 6160              		.loc 2 72 9 view .LVU1319
  73:../libs/libDaisy/src/dev/mpr121.h ****     }
 6161              		.loc 2 73 39 is_stmt 0 view .LVU1320
 6162 0c9e 3346     		mov	r3, r6
 6163 0ca0 FFF7FEFF 		bl	_ZN5daisy9I2CHandle15ReceiveBlockingEtPhtm
 6164              	.LVL292:
  73:../libs/libDaisy/src/dev/mpr121.h ****     }
 6165              		.loc 2 73 39 view .LVU1321
 6166              	.LBE2148:
 6167              	.LBE2154:
 6168              	.LBB2155:
 6169              	.LBI2155:
 6170              		.loc 2 343 10 is_stmt 1 view .LVU1322
 6171              	.LBE2155:
 6172              	.LBB2159:
 6173              	.LBB2160:
  66:../libs/libDaisy/src/dev/mpr121.h ****     }
 6174              		.loc 2 66 40 is_stmt 0 view .LVU1323
 6175 0ca4 0097     		str	r7, [sp]
 6176              	.LBE2160:
 6177              	.LBE2159:
 6178              	.LBB2164:
 6179              	.LBB2156:
 6180              		.loc 2 343 55 view .LVU1324
 6181 0ca6 94F84C30 		ldrb	r3, [r4, #76]	@ zero_extendqisi2
 6182              	.LBE2156:
 6183              	.LBE2164:
 6184              	.LBB2165:
 6185              	.LBB2161:
  66:../libs/libDaisy/src/dev/mpr121.h ****     }
ARM GAS  C:\Users\matte\AppData\Local\Temp\ccgZTizB.s 			page 136


 6186              		.loc 2 66 40 view .LVU1325
 6187 0caa 09AA     		add	r2, sp, #36
 6188 0cac 94F84810 		ldrb	r1, [r4, #72]	@ zero_extendqisi2
 6189              	.LBE2161:
 6190              	.LBE2165:
 6191              	.LBB2166:
 6192              	.LBB2157:
 6193              		.loc 2 343 55 view .LVU1326
 6194 0cb0 4845     		cmp	r0, r9
 6195 0cb2 18BF     		it	ne
 6196 0cb4 43F00103 		orrne	r3, r3, #1
 6197              	.LBE2157:
 6198              	.LBE2166:
 6199              	.LBB2167:
 6200              	.LBB2162:
  66:../libs/libDaisy/src/dev/mpr121.h ****     }
 6201              		.loc 2 66 40 view .LVU1327
 6202 0cb8 2846     		mov	r0, r5
 6203              	.LVL293:
  66:../libs/libDaisy/src/dev/mpr121.h ****     }
 6204              		.loc 2 66 40 view .LVU1328
 6205              	.LBE2162:
 6206              	.LBE2167:
 6207              	.LBB2168:
 6208              	.LBB2158:
 6209              		.loc 2 343 55 view .LVU1329
 6210 0cba 84F84C30 		strb	r3, [r4, #76]
 6211              	.LVL294:
 6212              		.loc 2 343 55 view .LVU1330
 6213              	.LBE2158:
 6214              	.LBE2168:
 6215              	.LBB2169:
 6216              	.LBI2159:
  63:../libs/libDaisy/src/dev/mpr121.h ****     {
 6217              		.loc 2 63 10 is_stmt 1 view .LVU1331
 6218              	.LBB2163:
  65:../libs/libDaisy/src/dev/mpr121.h ****                != i2c_.TransmitBlocking(config_.dev_addr, data, size, 10);
 6219              		.loc 2 65 9 view .LVU1332
  66:../libs/libDaisy/src/dev/mpr121.h ****     }
 6220              		.loc 2 66 40 is_stmt 0 view .LVU1333
 6221 0cbe 0223     		movs	r3, #2
 6222 0cc0 FFF7FEFF 		bl	_ZN5daisy9I2CHandle16TransmitBlockingEtPhtm
 6223              	.LVL295:
  66:../libs/libDaisy/src/dev/mpr121.h ****     }
 6224              		.loc 2 66 40 view .LVU1334
 6225              	.LBE2163:
 6226              	.LBE2169:
 6227              	.LBB2170:
 6228              	.LBI2170:
 6229              		.loc 2 343 10 is_stmt 1 view .LVU1335
 6230              	.LBE2170:
 6231              	.LBB2174:
 6232              	.LBB2175:
  66:../libs/libDaisy/src/dev/mpr121.h ****     }
 6233              		.loc 2 66 40 is_stmt 0 view .LVU1336
 6234 0cc4 0097     		str	r7, [sp]
 6235              	.LBE2175:
ARM GAS  C:\Users\matte\AppData\Local\Temp\ccgZTizB.s 			page 137


 6236              	.LBE2174:
 6237              	.LBB2179:
 6238              	.LBB2171:
 6239              		.loc 2 343 55 view .LVU1337
 6240 0cc6 94F84C30 		ldrb	r3, [r4, #76]	@ zero_extendqisi2
 6241              	.LBE2171:
 6242              	.LBE2179:
 6243              	.LBB2180:
 6244              	.LBB2176:
  66:../libs/libDaisy/src/dev/mpr121.h ****     }
 6245              		.loc 2 66 40 view .LVU1338
 6246 0cca 09AA     		add	r2, sp, #36
 6247 0ccc 94F84810 		ldrb	r1, [r4, #72]	@ zero_extendqisi2
 6248              	.LBE2176:
 6249              	.LBE2180:
 6250              	.LBB2181:
 6251              	.LBB2172:
 6252              		.loc 2 343 55 view .LVU1339
 6253 0cd0 4845     		cmp	r0, r9
 6254 0cd2 18BF     		it	ne
 6255 0cd4 43F00103 		orrne	r3, r3, #1
 6256              	.LBE2172:
 6257              	.LBE2181:
 6258              	.LBB2182:
 6259              	.LBB2177:
  66:../libs/libDaisy/src/dev/mpr121.h ****     }
 6260              		.loc 2 66 40 view .LVU1340
 6261 0cd8 2846     		mov	r0, r5
 6262              	.LVL296:
  66:../libs/libDaisy/src/dev/mpr121.h ****     }
 6263              		.loc 2 66 40 view .LVU1341
 6264              	.LBE2177:
 6265              	.LBE2182:
 6266              	.LBB2183:
 6267              	.LBB2173:
 6268              		.loc 2 343 55 view .LVU1342
 6269 0cda 84F84C30 		strb	r3, [r4, #76]
 6270              	.LVL297:
 6271              		.loc 2 343 55 view .LVU1343
 6272              	.LBE2173:
 6273              	.LBE2183:
 281:../libs/libDaisy/src/dev/mpr121.h ****         buff[1] = value;
 6274              		.loc 2 281 17 view .LVU1344
 6275 0cde 5C23     		movs	r3, #92
 6276 0ce0 8DF82430 		strb	r3, [sp, #36]
 282:../libs/libDaisy/src/dev/mpr121.h ****         SetTransportErr(transport_.Write(buff, 2));
 6277              		.loc 2 282 17 view .LVU1345
 6278 0ce4 1023     		movs	r3, #16
 6279 0ce6 8DF82530 		strb	r3, [sp, #37]
 6280              	.LVL298:
 6281              	.LBB2184:
 6282              	.LBI2174:
  63:../libs/libDaisy/src/dev/mpr121.h ****     {
 6283              		.loc 2 63 10 is_stmt 1 view .LVU1346
 6284              	.LBB2178:
  65:../libs/libDaisy/src/dev/mpr121.h ****                != i2c_.TransmitBlocking(config_.dev_addr, data, size, 10);
 6285              		.loc 2 65 9 view .LVU1347
ARM GAS  C:\Users\matte\AppData\Local\Temp\ccgZTizB.s 			page 138


  66:../libs/libDaisy/src/dev/mpr121.h ****     }
 6286              		.loc 2 66 40 is_stmt 0 view .LVU1348
 6287 0cea 0223     		movs	r3, #2
 6288 0cec FFF7FEFF 		bl	_ZN5daisy9I2CHandle16TransmitBlockingEtPhtm
 6289              	.LVL299:
  66:../libs/libDaisy/src/dev/mpr121.h ****     }
 6290              		.loc 2 66 40 view .LVU1349
 6291              	.LBE2178:
 6292              	.LBE2184:
 6293              	.LBB2185:
 6294              	.LBI2185:
 6295              		.loc 2 343 10 is_stmt 1 view .LVU1350
 6296              	.LBE2185:
 6297              	.LBB2189:
 6298              	.LBB2190:
  66:../libs/libDaisy/src/dev/mpr121.h ****     }
 6299              		.loc 2 66 40 is_stmt 0 view .LVU1351
 6300 0cf0 0097     		str	r7, [sp]
 6301              	.LBE2190:
 6302              	.LBE2189:
 6303              	.LBB2194:
 6304              	.LBB2186:
 6305              		.loc 2 343 55 view .LVU1352
 6306 0cf2 94F84C30 		ldrb	r3, [r4, #76]	@ zero_extendqisi2
 6307              	.LBE2186:
 6308              	.LBE2194:
 6309              	.LBB2195:
 6310              	.LBB2191:
  66:../libs/libDaisy/src/dev/mpr121.h ****     }
 6311              		.loc 2 66 40 view .LVU1353
 6312 0cf6 09AA     		add	r2, sp, #36
 6313 0cf8 94F84810 		ldrb	r1, [r4, #72]	@ zero_extendqisi2
 6314              	.LBE2191:
 6315              	.LBE2195:
 6316              	.LBB2196:
 6317              	.LBB2187:
 6318              		.loc 2 343 55 view .LVU1354
 6319 0cfc 4845     		cmp	r0, r9
 6320 0cfe 18BF     		it	ne
 6321 0d00 43F00103 		orrne	r3, r3, #1
 6322              	.LBE2187:
 6323              	.LBE2196:
 6324              	.LBB2197:
 6325              	.LBB2192:
  66:../libs/libDaisy/src/dev/mpr121.h ****     }
 6326              		.loc 2 66 40 view .LVU1355
 6327 0d04 2846     		mov	r0, r5
 6328              	.LVL300:
  66:../libs/libDaisy/src/dev/mpr121.h ****     }
 6329              		.loc 2 66 40 view .LVU1356
 6330              	.LBE2192:
 6331              	.LBE2197:
 288:../libs/libDaisy/src/dev/mpr121.h ****             buff[1] = ecr_backup;
 6332              		.loc 2 288 21 view .LVU1357
 6333 0d06 8DF82480 		strb	r8, [sp, #36]
 6334              	.LBB2198:
 6335              	.LBB2188:
ARM GAS  C:\Users\matte\AppData\Local\Temp\ccgZTizB.s 			page 139


 6336              		.loc 2 343 55 view .LVU1358
 6337 0d0a 84F84C30 		strb	r3, [r4, #76]
 6338              	.LVL301:
 6339              		.loc 2 343 55 view .LVU1359
 6340              	.LBE2188:
 6341              	.LBE2198:
 289:../libs/libDaisy/src/dev/mpr121.h ****             SetTransportErr(transport_.Write(buff, 2));
 6342              		.loc 2 289 21 view .LVU1360
 6343 0d0e 9DF81030 		ldrb	r3, [sp, #16]	@ zero_extendqisi2
 6344 0d12 8DF82530 		strb	r3, [sp, #37]
 6345              	.LVL302:
 6346              	.LBB2199:
 6347              	.LBI2189:
  63:../libs/libDaisy/src/dev/mpr121.h ****     {
 6348              		.loc 2 63 10 is_stmt 1 view .LVU1361
 6349              	.LBB2193:
  65:../libs/libDaisy/src/dev/mpr121.h ****                != i2c_.TransmitBlocking(config_.dev_addr, data, size, 10);
 6350              		.loc 2 65 9 view .LVU1362
  66:../libs/libDaisy/src/dev/mpr121.h ****     }
 6351              		.loc 2 66 40 is_stmt 0 view .LVU1363
 6352 0d16 0223     		movs	r3, #2
 6353 0d18 FFF7FEFF 		bl	_ZN5daisy9I2CHandle16TransmitBlockingEtPhtm
 6354              	.LVL303:
  66:../libs/libDaisy/src/dev/mpr121.h ****     }
 6355              		.loc 2 66 40 view .LVU1364
 6356              	.LBE2193:
 6357              	.LBE2199:
 6358              	.LBB2200:
 6359              	.LBI2200:
 6360              		.loc 2 343 10 is_stmt 1 view .LVU1365
 6361              	.LBE2200:
 6362              	.LBE2209:
 6363              	.LBE2218:
 6364              	.LBB2219:
 6365              	.LBB2220:
 6366              	.LBB2221:
 6367              	.LBB2222:
  66:../libs/libDaisy/src/dev/mpr121.h ****     }
 6368              		.loc 2 66 40 is_stmt 0 view .LVU1366
 6369 0d1c 0097     		str	r7, [sp]
 6370              	.LBE2222:
 6371              	.LBE2221:
 6372              	.LBE2220:
 6373              	.LBE2219:
 6374              	.LBB2304:
 6375              	.LBB2210:
 6376              	.LBB2204:
 6377              	.LBB2201:
 6378              		.loc 2 343 55 view .LVU1367
 6379 0d1e 94F84C30 		ldrb	r3, [r4, #76]	@ zero_extendqisi2
 6380              	.LBE2201:
 6381              	.LBE2204:
 6382              	.LBE2210:
 6383              	.LBE2304:
 6384              	.LBB2305:
 6385              	.LBB2298:
 6386              	.LBB2227:
ARM GAS  C:\Users\matte\AppData\Local\Temp\ccgZTizB.s 			page 140


 6387              	.LBB2223:
  66:../libs/libDaisy/src/dev/mpr121.h ****     }
 6388              		.loc 2 66 40 view .LVU1368
 6389 0d22 09AA     		add	r2, sp, #36
 6390 0d24 94F84810 		ldrb	r1, [r4, #72]	@ zero_extendqisi2
 6391              	.LBE2223:
 6392              	.LBE2227:
 6393              	.LBE2298:
 6394              	.LBE2305:
 6395              	.LBB2306:
 6396              	.LBB2211:
 6397              	.LBB2205:
 6398              	.LBB2202:
 6399              		.loc 2 343 55 view .LVU1369
 6400 0d28 4845     		cmp	r0, r9
 6401 0d2a 18BF     		it	ne
 6402 0d2c 43F00103 		orrne	r3, r3, #1
 6403              	.LBE2202:
 6404              	.LBE2205:
 6405              	.LBE2211:
 6406              	.LBE2306:
 6407              	.LBB2307:
 6408              	.LBB2299:
 6409              	.LBB2228:
 6410              	.LBB2224:
  66:../libs/libDaisy/src/dev/mpr121.h ****     }
 6411              		.loc 2 66 40 view .LVU1370
 6412 0d30 2846     		mov	r0, r5
 6413              	.LVL304:
  66:../libs/libDaisy/src/dev/mpr121.h ****     }
 6414              		.loc 2 66 40 view .LVU1371
 6415              	.LBE2224:
 6416              	.LBE2228:
 264:../libs/libDaisy/src/dev/mpr121.h **** 
 6417              		.loc 2 264 17 view .LVU1372
 6418 0d32 8DF82590 		strb	r9, [sp, #37]
 6419              	.LBE2299:
 6420              	.LBE2307:
 6421              	.LBB2308:
 6422              	.LBB2212:
 6423              	.LBB2206:
 6424              	.LBB2203:
 6425              		.loc 2 343 55 view .LVU1373
 6426 0d36 84F84C30 		strb	r3, [r4, #76]
 6427              	.LVL305:
 6428              		.loc 2 343 55 view .LVU1374
 6429              	.LBE2203:
 6430              	.LBE2206:
 6431              	.LBE2212:
 6432              	.LBE2308:
 6433              	.LBB2309:
 6434              	.LBI2219:
 257:../libs/libDaisy/src/dev/mpr121.h ****     {
 6435              		.loc 2 257 10 is_stmt 1 view .LVU1375
 6436              	.LBB2300:
 6437              	.LBB2229:
 6438              	.LBI2221:
ARM GAS  C:\Users\matte\AppData\Local\Temp\ccgZTizB.s 			page 141


  63:../libs/libDaisy/src/dev/mpr121.h ****     {
 6439              		.loc 2 63 10 view .LVU1376
 6440              	.LBB2225:
  65:../libs/libDaisy/src/dev/mpr121.h ****                != i2c_.TransmitBlocking(config_.dev_addr, data, size, 10);
 6441              		.loc 2 65 9 view .LVU1377
  66:../libs/libDaisy/src/dev/mpr121.h ****     }
 6442              		.loc 2 66 40 is_stmt 0 view .LVU1378
 6443 0d3a 3346     		mov	r3, r6
 6444              	.LBE2225:
 6445              	.LBE2229:
 264:../libs/libDaisy/src/dev/mpr121.h **** 
 6446              		.loc 2 264 17 view .LVU1379
 6447 0d3c 8DF82480 		strb	r8, [sp, #36]
 6448              	.LBB2230:
 6449              	.LBB2226:
  66:../libs/libDaisy/src/dev/mpr121.h ****     }
 6450              		.loc 2 66 40 view .LVU1380
 6451 0d40 FFF7FEFF 		bl	_ZN5daisy9I2CHandle16TransmitBlockingEtPhtm
 6452              	.LVL306:
  66:../libs/libDaisy/src/dev/mpr121.h ****     }
 6453              		.loc 2 66 40 view .LVU1381
 6454              	.LBE2226:
 6455              	.LBE2230:
 6456              	.LBB2231:
 6457              	.LBI2231:
 6458              		.loc 2 343 10 is_stmt 1 view .LVU1382
 6459              	.LBE2231:
 6460              	.LBB2235:
 6461              	.LBB2236:
  73:../libs/libDaisy/src/dev/mpr121.h ****     }
 6462              		.loc 2 73 39 is_stmt 0 view .LVU1383
 6463 0d44 0097     		str	r7, [sp]
 6464 0d46 04AA     		add	r2, sp, #16
 6465              	.LBE2236:
 6466              	.LBE2235:
 6467              	.LBB2240:
 6468              	.LBB2232:
 6469              		.loc 2 343 55 view .LVU1384
 6470 0d48 94F84C30 		ldrb	r3, [r4, #76]	@ zero_extendqisi2
 6471              	.LBE2232:
 6472              	.LBE2240:
 6473              	.LBB2241:
 6474              	.LBB2237:
  73:../libs/libDaisy/src/dev/mpr121.h ****     }
 6475              		.loc 2 73 39 view .LVU1385
 6476 0d4c 94F84810 		ldrb	r1, [r4, #72]	@ zero_extendqisi2
 6477              	.LBE2237:
 6478              	.LBE2241:
 6479              	.LBB2242:
 6480              	.LBB2233:
 6481              		.loc 2 343 55 view .LVU1386
 6482 0d50 4845     		cmp	r0, r9
 6483 0d52 18BF     		it	ne
 6484 0d54 43F00103 		orrne	r3, r3, #1
 6485              	.LBE2233:
 6486              	.LBE2242:
 6487              	.LBB2243:
ARM GAS  C:\Users\matte\AppData\Local\Temp\ccgZTizB.s 			page 142


 6488              	.LBB2238:
  73:../libs/libDaisy/src/dev/mpr121.h ****     }
 6489              		.loc 2 73 39 view .LVU1387
 6490 0d58 2846     		mov	r0, r5
 6491              	.LVL307:
  73:../libs/libDaisy/src/dev/mpr121.h ****     }
 6492              		.loc 2 73 39 view .LVU1388
 6493              	.LBE2238:
 6494              	.LBE2243:
 6495              	.LBB2244:
 6496              	.LBB2234:
 6497              		.loc 2 343 55 view .LVU1389
 6498 0d5a 84F84C30 		strb	r3, [r4, #76]
 6499              	.LVL308:
 6500              		.loc 2 343 55 view .LVU1390
 6501              	.LBE2234:
 6502              	.LBE2244:
 6503              	.LBB2245:
 6504              	.LBI2235:
  70:../libs/libDaisy/src/dev/mpr121.h ****     {
 6505              		.loc 2 70 10 is_stmt 1 view .LVU1391
 6506              	.LBB2239:
  72:../libs/libDaisy/src/dev/mpr121.h ****                != i2c_.ReceiveBlocking(config_.dev_addr, data, size, 10);
 6507              		.loc 2 72 9 view .LVU1392
  73:../libs/libDaisy/src/dev/mpr121.h ****     }
 6508              		.loc 2 73 39 is_stmt 0 view .LVU1393
 6509 0d5e 3346     		mov	r3, r6
 6510 0d60 FFF7FEFF 		bl	_ZN5daisy9I2CHandle15ReceiveBlockingEtPhtm
 6511              	.LVL309:
  73:../libs/libDaisy/src/dev/mpr121.h ****     }
 6512              		.loc 2 73 39 view .LVU1394
 6513              	.LBE2239:
 6514              	.LBE2245:
 6515              	.LBB2246:
 6516              	.LBI2246:
 6517              		.loc 2 343 10 is_stmt 1 view .LVU1395
 6518              	.LBE2246:
 6519              	.LBB2250:
 6520              	.LBB2251:
  66:../libs/libDaisy/src/dev/mpr121.h ****     }
 6521              		.loc 2 66 40 is_stmt 0 view .LVU1396
 6522 0d64 0097     		str	r7, [sp]
 6523              	.LBE2251:
 6524              	.LBE2250:
 6525              	.LBB2255:
 6526              	.LBB2247:
 6527              		.loc 2 343 55 view .LVU1397
 6528 0d66 94F84C30 		ldrb	r3, [r4, #76]	@ zero_extendqisi2
 6529              	.LBE2247:
 6530              	.LBE2255:
 6531              	.LBB2256:
 6532              	.LBB2252:
  66:../libs/libDaisy/src/dev/mpr121.h ****     }
 6533              		.loc 2 66 40 view .LVU1398
 6534 0d6a 09AA     		add	r2, sp, #36
 6535 0d6c 94F84810 		ldrb	r1, [r4, #72]	@ zero_extendqisi2
 6536              	.LBE2252:
ARM GAS  C:\Users\matte\AppData\Local\Temp\ccgZTizB.s 			page 143


 6537              	.LBE2256:
 6538              	.LBB2257:
 6539              	.LBB2248:
 6540              		.loc 2 343 55 view .LVU1399
 6541 0d70 4845     		cmp	r0, r9
 6542 0d72 18BF     		it	ne
 6543 0d74 43F00103 		orrne	r3, r3, #1
 6544              	.LBE2248:
 6545              	.LBE2257:
 6546              	.LBB2258:
 6547              	.LBB2253:
  66:../libs/libDaisy/src/dev/mpr121.h ****     }
 6548              		.loc 2 66 40 view .LVU1400
 6549 0d78 2846     		mov	r0, r5
 6550              	.LVL310:
  66:../libs/libDaisy/src/dev/mpr121.h ****     }
 6551              		.loc 2 66 40 view .LVU1401
 6552              	.LBE2253:
 6553              	.LBE2258:
 6554              	.LBB2259:
 6555              	.LBB2249:
 6556              		.loc 2 343 55 view .LVU1402
 6557 0d7a 84F84C30 		strb	r3, [r4, #76]
 6558              	.LVL311:
 6559              		.loc 2 343 55 view .LVU1403
 6560              	.LBE2249:
 6561              	.LBE2259:
 6562              	.LBB2260:
 6563              	.LBI2250:
  63:../libs/libDaisy/src/dev/mpr121.h ****     {
 6564              		.loc 2 63 10 is_stmt 1 view .LVU1404
 6565              	.LBB2254:
  65:../libs/libDaisy/src/dev/mpr121.h ****                != i2c_.TransmitBlocking(config_.dev_addr, data, size, 10);
 6566              		.loc 2 65 9 view .LVU1405
  66:../libs/libDaisy/src/dev/mpr121.h ****     }
 6567              		.loc 2 66 40 is_stmt 0 view .LVU1406
 6568 0d7e 0223     		movs	r3, #2
 6569 0d80 FFF7FEFF 		bl	_ZN5daisy9I2CHandle16TransmitBlockingEtPhtm
 6570              	.LVL312:
  66:../libs/libDaisy/src/dev/mpr121.h ****     }
 6571              		.loc 2 66 40 view .LVU1407
 6572              	.LBE2254:
 6573              	.LBE2260:
 6574              	.LBB2261:
 6575              	.LBI2261:
 6576              		.loc 2 343 10 is_stmt 1 view .LVU1408
 6577              	.LBE2261:
 6578              	.LBB2265:
 6579              	.LBB2266:
  66:../libs/libDaisy/src/dev/mpr121.h ****     }
 6580              		.loc 2 66 40 is_stmt 0 view .LVU1409
 6581 0d84 0097     		str	r7, [sp]
 6582              	.LBE2266:
 6583              	.LBE2265:
 6584              	.LBB2270:
 6585              	.LBB2262:
 6586              		.loc 2 343 55 view .LVU1410
ARM GAS  C:\Users\matte\AppData\Local\Temp\ccgZTizB.s 			page 144


 6587 0d86 94F84C30 		ldrb	r3, [r4, #76]	@ zero_extendqisi2
 6588              	.LBE2262:
 6589              	.LBE2270:
 6590              	.LBB2271:
 6591              	.LBB2267:
  66:../libs/libDaisy/src/dev/mpr121.h ****     }
 6592              		.loc 2 66 40 view .LVU1411
 6593 0d8a 09AA     		add	r2, sp, #36
 6594 0d8c 94F84810 		ldrb	r1, [r4, #72]	@ zero_extendqisi2
 6595              	.LBE2267:
 6596              	.LBE2271:
 6597              	.LBB2272:
 6598              	.LBB2263:
 6599              		.loc 2 343 55 view .LVU1412
 6600 0d90 4845     		cmp	r0, r9
 6601 0d92 18BF     		it	ne
 6602 0d94 43F00103 		orrne	r3, r3, #1
 6603              	.LBE2263:
 6604              	.LBE2272:
 6605              	.LBB2273:
 6606              	.LBB2268:
  66:../libs/libDaisy/src/dev/mpr121.h ****     }
 6607              		.loc 2 66 40 view .LVU1413
 6608 0d98 2846     		mov	r0, r5
 6609              	.LVL313:
  66:../libs/libDaisy/src/dev/mpr121.h ****     }
 6610              		.loc 2 66 40 view .LVU1414
 6611              	.LBE2268:
 6612              	.LBE2273:
 6613              	.LBB2274:
 6614              	.LBB2264:
 6615              		.loc 2 343 55 view .LVU1415
 6616 0d9a 84F84C30 		strb	r3, [r4, #76]
 6617              	.LVL314:
 6618              		.loc 2 343 55 view .LVU1416
 6619              	.LBE2264:
 6620              	.LBE2274:
 281:../libs/libDaisy/src/dev/mpr121.h ****         buff[1] = value;
 6621              		.loc 2 281 17 view .LVU1417
 6622 0d9e 5D23     		movs	r3, #93
 6623 0da0 8DF82430 		strb	r3, [sp, #36]
 282:../libs/libDaisy/src/dev/mpr121.h ****         SetTransportErr(transport_.Write(buff, 2));
 6624              		.loc 2 282 17 view .LVU1418
 6625 0da4 2023     		movs	r3, #32
 6626 0da6 8DF82530 		strb	r3, [sp, #37]
 6627              	.LVL315:
 6628              	.LBB2275:
 6629              	.LBI2265:
  63:../libs/libDaisy/src/dev/mpr121.h ****     {
 6630              		.loc 2 63 10 is_stmt 1 view .LVU1419
 6631              	.LBB2269:
  65:../libs/libDaisy/src/dev/mpr121.h ****                != i2c_.TransmitBlocking(config_.dev_addr, data, size, 10);
 6632              		.loc 2 65 9 view .LVU1420
  66:../libs/libDaisy/src/dev/mpr121.h ****     }
 6633              		.loc 2 66 40 is_stmt 0 view .LVU1421
 6634 0daa 0223     		movs	r3, #2
 6635 0dac FFF7FEFF 		bl	_ZN5daisy9I2CHandle16TransmitBlockingEtPhtm
ARM GAS  C:\Users\matte\AppData\Local\Temp\ccgZTizB.s 			page 145


 6636              	.LVL316:
  66:../libs/libDaisy/src/dev/mpr121.h ****     }
 6637              		.loc 2 66 40 view .LVU1422
 6638              	.LBE2269:
 6639              	.LBE2275:
 6640              	.LBB2276:
 6641              	.LBI2276:
 6642              		.loc 2 343 10 is_stmt 1 view .LVU1423
 6643              	.LBE2276:
 6644              	.LBB2280:
 6645              	.LBB2281:
  66:../libs/libDaisy/src/dev/mpr121.h ****     }
 6646              		.loc 2 66 40 is_stmt 0 view .LVU1424
 6647 0db0 0097     		str	r7, [sp]
 6648              	.LBE2281:
 6649              	.LBE2280:
 6650              	.LBB2285:
 6651              	.LBB2277:
 6652              		.loc 2 343 55 view .LVU1425
 6653 0db2 94F84C30 		ldrb	r3, [r4, #76]	@ zero_extendqisi2
 6654              	.LBE2277:
 6655              	.LBE2285:
 6656              	.LBB2286:
 6657              	.LBB2282:
  66:../libs/libDaisy/src/dev/mpr121.h ****     }
 6658              		.loc 2 66 40 view .LVU1426
 6659 0db6 09AA     		add	r2, sp, #36
 6660 0db8 94F84810 		ldrb	r1, [r4, #72]	@ zero_extendqisi2
 6661              	.LBE2282:
 6662              	.LBE2286:
 6663              	.LBB2287:
 6664              	.LBB2278:
 6665              		.loc 2 343 55 view .LVU1427
 6666 0dbc 4845     		cmp	r0, r9
 6667 0dbe 18BF     		it	ne
 6668 0dc0 43F00103 		orrne	r3, r3, #1
 6669              	.LBE2278:
 6670              	.LBE2287:
 6671              	.LBB2288:
 6672              	.LBB2283:
  66:../libs/libDaisy/src/dev/mpr121.h ****     }
 6673              		.loc 2 66 40 view .LVU1428
 6674 0dc4 2846     		mov	r0, r5
 6675              	.LVL317:
  66:../libs/libDaisy/src/dev/mpr121.h ****     }
 6676              		.loc 2 66 40 view .LVU1429
 6677              	.LBE2283:
 6678              	.LBE2288:
 288:../libs/libDaisy/src/dev/mpr121.h ****             buff[1] = ecr_backup;
 6679              		.loc 2 288 21 view .LVU1430
 6680 0dc6 8DF82480 		strb	r8, [sp, #36]
 6681              	.LBB2289:
 6682              	.LBB2279:
 6683              		.loc 2 343 55 view .LVU1431
 6684 0dca 84F84C30 		strb	r3, [r4, #76]
 6685              	.LVL318:
 6686              		.loc 2 343 55 view .LVU1432
ARM GAS  C:\Users\matte\AppData\Local\Temp\ccgZTizB.s 			page 146


 6687              	.LBE2279:
 6688              	.LBE2289:
 289:../libs/libDaisy/src/dev/mpr121.h ****             SetTransportErr(transport_.Write(buff, 2));
 6689              		.loc 2 289 21 view .LVU1433
 6690 0dce 9DF81030 		ldrb	r3, [sp, #16]	@ zero_extendqisi2
 6691 0dd2 8DF82530 		strb	r3, [sp, #37]
 6692              	.LVL319:
 6693              	.LBB2290:
 6694              	.LBI2280:
  63:../libs/libDaisy/src/dev/mpr121.h ****     {
 6695              		.loc 2 63 10 is_stmt 1 view .LVU1434
 6696              	.LBB2284:
  65:../libs/libDaisy/src/dev/mpr121.h ****                != i2c_.TransmitBlocking(config_.dev_addr, data, size, 10);
 6697              		.loc 2 65 9 view .LVU1435
  66:../libs/libDaisy/src/dev/mpr121.h ****     }
 6698              		.loc 2 66 40 is_stmt 0 view .LVU1436
 6699 0dd6 0223     		movs	r3, #2
 6700 0dd8 FFF7FEFF 		bl	_ZN5daisy9I2CHandle16TransmitBlockingEtPhtm
 6701              	.LVL320:
  66:../libs/libDaisy/src/dev/mpr121.h ****     }
 6702              		.loc 2 66 40 view .LVU1437
 6703              	.LBE2284:
 6704              	.LBE2290:
 6705              	.LBB2291:
 6706              	.LBI2291:
 6707              		.loc 2 343 10 is_stmt 1 view .LVU1438
 6708              	.LBE2291:
 6709              	.LBE2300:
 6710              	.LBE2309:
 6711              	.LBB2310:
 6712              	.LBB2311:
 6713              	.LBB2312:
 6714              	.LBB2313:
  66:../libs/libDaisy/src/dev/mpr121.h ****     }
 6715              		.loc 2 66 40 is_stmt 0 view .LVU1439
 6716 0ddc 0097     		str	r7, [sp]
 6717              	.LBE2313:
 6718              	.LBE2312:
 6719              	.LBE2311:
 6720              	.LBE2310:
 6721              	.LBB2358:
 6722              	.LBB2301:
 6723              	.LBB2295:
 6724              	.LBB2292:
 6725              		.loc 2 343 55 view .LVU1440
 6726 0dde 94F84C30 		ldrb	r3, [r4, #76]	@ zero_extendqisi2
 6727              	.LBE2292:
 6728              	.LBE2295:
 6729              	.LBE2301:
 6730              	.LBE2358:
 6731              	.LBB2359:
 6732              	.LBB2355:
 6733              	.LBB2318:
 6734              	.LBB2314:
  66:../libs/libDaisy/src/dev/mpr121.h ****     }
 6735              		.loc 2 66 40 view .LVU1441
 6736 0de2 09AA     		add	r2, sp, #36
ARM GAS  C:\Users\matte\AppData\Local\Temp\ccgZTizB.s 			page 147


 6737 0de4 94F84810 		ldrb	r1, [r4, #72]	@ zero_extendqisi2
 6738              	.LBE2314:
 6739              	.LBE2318:
 6740              	.LBE2355:
 6741              	.LBE2359:
 6742              	.LBB2360:
 6743              	.LBB2302:
 6744              	.LBB2296:
 6745              	.LBB2293:
 6746              		.loc 2 343 55 view .LVU1442
 6747 0de8 4845     		cmp	r0, r9
 6748 0dea 18BF     		it	ne
 6749 0dec 43F00103 		orrne	r3, r3, #1
 6750              	.LBE2293:
 6751              	.LBE2296:
 6752              	.LBE2302:
 6753              	.LBE2360:
 6754              	.LBB2361:
 6755              	.LBB2356:
 6756              	.LBB2319:
 6757              	.LBB2315:
  66:../libs/libDaisy/src/dev/mpr121.h ****     }
 6758              		.loc 2 66 40 view .LVU1443
 6759 0df0 2846     		mov	r0, r5
 6760              	.LVL321:
  66:../libs/libDaisy/src/dev/mpr121.h ****     }
 6761              		.loc 2 66 40 view .LVU1444
 6762              	.LBE2315:
 6763              	.LBE2319:
 264:../libs/libDaisy/src/dev/mpr121.h **** 
 6764              		.loc 2 264 17 view .LVU1445
 6765 0df2 8DF82590 		strb	r9, [sp, #37]
 6766              	.LBE2356:
 6767              	.LBE2361:
 6768              	.LBB2362:
 6769              	.LBB2303:
 6770              	.LBB2297:
 6771              	.LBB2294:
 6772              		.loc 2 343 55 view .LVU1446
 6773 0df6 84F84C30 		strb	r3, [r4, #76]
 6774              	.LVL322:
 6775              		.loc 2 343 55 view .LVU1447
 6776              	.LBE2294:
 6777              	.LBE2297:
 6778              	.LBE2303:
 6779              	.LBE2362:
 6780              	.LBB2363:
 6781              	.LBI2310:
 257:../libs/libDaisy/src/dev/mpr121.h ****     {
 6782              		.loc 2 257 10 is_stmt 1 view .LVU1448
 6783              	.LBB2357:
 6784              	.LBB2320:
 6785              	.LBI2312:
  63:../libs/libDaisy/src/dev/mpr121.h ****     {
 6786              		.loc 2 63 10 view .LVU1449
 6787              	.LBB2316:
  65:../libs/libDaisy/src/dev/mpr121.h ****                != i2c_.TransmitBlocking(config_.dev_addr, data, size, 10);
ARM GAS  C:\Users\matte\AppData\Local\Temp\ccgZTizB.s 			page 148


 6788              		.loc 2 65 9 view .LVU1450
  66:../libs/libDaisy/src/dev/mpr121.h ****     }
 6789              		.loc 2 66 40 is_stmt 0 view .LVU1451
 6790 0dfa 3346     		mov	r3, r6
 6791              	.LBE2316:
 6792              	.LBE2320:
 264:../libs/libDaisy/src/dev/mpr121.h **** 
 6793              		.loc 2 264 17 view .LVU1452
 6794 0dfc 8DF82480 		strb	r8, [sp, #36]
 6795              	.LBB2321:
 6796              	.LBB2317:
  66:../libs/libDaisy/src/dev/mpr121.h ****     }
 6797              		.loc 2 66 40 view .LVU1453
 6798 0e00 FFF7FEFF 		bl	_ZN5daisy9I2CHandle16TransmitBlockingEtPhtm
 6799              	.LVL323:
  66:../libs/libDaisy/src/dev/mpr121.h ****     }
 6800              		.loc 2 66 40 view .LVU1454
 6801              	.LBE2317:
 6802              	.LBE2321:
 6803              	.LBB2322:
 6804              	.LBI2322:
 6805              		.loc 2 343 10 is_stmt 1 view .LVU1455
 6806              	.LBE2322:
 6807              	.LBB2326:
 6808              	.LBB2327:
  73:../libs/libDaisy/src/dev/mpr121.h ****     }
 6809              		.loc 2 73 39 is_stmt 0 view .LVU1456
 6810 0e04 0097     		str	r7, [sp]
 6811 0e06 04AA     		add	r2, sp, #16
 6812              	.LBE2327:
 6813              	.LBE2326:
 6814              	.LBB2332:
 6815              	.LBB2323:
 6816              		.loc 2 343 55 view .LVU1457
 6817 0e08 94F84C30 		ldrb	r3, [r4, #76]	@ zero_extendqisi2
 6818              	.LBE2323:
 6819              	.LBE2332:
 6820              	.LBB2333:
 6821              	.LBB2328:
  73:../libs/libDaisy/src/dev/mpr121.h ****     }
 6822              		.loc 2 73 39 view .LVU1458
 6823 0e0c 94F84810 		ldrb	r1, [r4, #72]	@ zero_extendqisi2
 6824              	.LBE2328:
 6825              	.LBE2333:
 6826              	.LBB2334:
 6827              	.LBB2324:
 6828              		.loc 2 343 55 view .LVU1459
 6829 0e10 4845     		cmp	r0, r9
 6830 0e12 18BF     		it	ne
 6831 0e14 43F00103 		orrne	r3, r3, #1
 6832              	.LBE2324:
 6833              	.LBE2334:
 6834              	.LBB2335:
 6835              	.LBB2329:
  73:../libs/libDaisy/src/dev/mpr121.h ****     }
 6836              		.loc 2 73 39 view .LVU1460
 6837 0e18 2846     		mov	r0, r5
ARM GAS  C:\Users\matte\AppData\Local\Temp\ccgZTizB.s 			page 149


 6838              	.LVL324:
  73:../libs/libDaisy/src/dev/mpr121.h ****     }
 6839              		.loc 2 73 39 view .LVU1461
 6840              	.LBE2329:
 6841              	.LBE2335:
 6842              	.LBB2336:
 6843              	.LBB2325:
 6844              		.loc 2 343 55 view .LVU1462
 6845 0e1a 84F84C30 		strb	r3, [r4, #76]
 6846              	.LVL325:
 6847              		.loc 2 343 55 view .LVU1463
 6848              	.LBE2325:
 6849              	.LBE2336:
 6850              	.LBB2337:
 6851              	.LBI2326:
  70:../libs/libDaisy/src/dev/mpr121.h ****     {
 6852              		.loc 2 70 10 is_stmt 1 view .LVU1464
 6853              	.LBB2330:
  72:../libs/libDaisy/src/dev/mpr121.h ****                != i2c_.ReceiveBlocking(config_.dev_addr, data, size, 10);
 6854              		.loc 2 72 9 view .LVU1465
  73:../libs/libDaisy/src/dev/mpr121.h ****     }
 6855              		.loc 2 73 39 is_stmt 0 view .LVU1466
 6856 0e1e 3346     		mov	r3, r6
 6857 0e20 FFF7FEFF 		bl	_ZN5daisy9I2CHandle15ReceiveBlockingEtPhtm
 6858              	.LVL326:
  73:../libs/libDaisy/src/dev/mpr121.h ****     }
 6859              		.loc 2 73 39 view .LVU1467
 6860              	.LBE2330:
 6861              	.LBE2337:
 6862              	.LBB2338:
 6863              	.LBB2339:
  66:../libs/libDaisy/src/dev/mpr121.h ****     }
 6864              		.loc 2 66 40 view .LVU1468
 6865 0e24 0097     		str	r7, [sp]
 6866              	.LBE2339:
 6867              	.LBE2338:
 6868              	.LBB2343:
 6869              	.LBB2331:
  73:../libs/libDaisy/src/dev/mpr121.h ****     }
 6870              		.loc 2 73 39 view .LVU1469
 6871 0e26 0146     		mov	r1, r0
 6872              	.LVL327:
  73:../libs/libDaisy/src/dev/mpr121.h ****     }
 6873              		.loc 2 73 39 view .LVU1470
 6874              	.LBE2331:
 6875              	.LBE2343:
 6876              	.LBB2344:
 6877              	.LBI2344:
 6878              		.loc 2 343 10 is_stmt 1 view .LVU1471
 6879              	.LBB2345:
 6880              		.loc 2 343 55 is_stmt 0 view .LVU1472
 6881 0e28 94F84C30 		ldrb	r3, [r4, #76]	@ zero_extendqisi2
 6882              	.LBE2345:
 6883              	.LBE2344:
 6884              	.LBB2348:
 6885              	.LBB2340:
  66:../libs/libDaisy/src/dev/mpr121.h ****     }
ARM GAS  C:\Users\matte\AppData\Local\Temp\ccgZTizB.s 			page 150


 6886              		.loc 2 66 40 view .LVU1473
 6887 0e2c 09AA     		add	r2, sp, #36
 6888 0e2e 2846     		mov	r0, r5
 6889              	.LVL328:
  66:../libs/libDaisy/src/dev/mpr121.h ****     }
 6890              		.loc 2 66 40 view .LVU1474
 6891              	.LBE2340:
 6892              	.LBE2348:
 6893              	.LBB2349:
 6894              	.LBB2346:
 6895              		.loc 2 343 55 view .LVU1475
 6896 0e30 4945     		cmp	r1, r9
 6897 0e32 18BF     		it	ne
 6898 0e34 43F00103 		orrne	r3, r3, #1
 6899              	.LBE2346:
 6900              	.LBE2349:
 6901              	.LBB2350:
 6902              	.LBB2341:
  66:../libs/libDaisy/src/dev/mpr121.h ****     }
 6903              		.loc 2 66 40 view .LVU1476
 6904 0e38 94F84810 		ldrb	r1, [r4, #72]	@ zero_extendqisi2
 6905              	.LVL329:
  66:../libs/libDaisy/src/dev/mpr121.h ****     }
 6906              		.loc 2 66 40 view .LVU1477
 6907              	.LBE2341:
 6908              	.LBE2350:
 281:../libs/libDaisy/src/dev/mpr121.h ****         buff[1] = value;
 6909              		.loc 2 281 17 view .LVU1478
 6910 0e3c 8DF82480 		strb	r8, [sp, #36]
 6911              	.LBB2351:
 6912              	.LBB2347:
 6913              		.loc 2 343 55 view .LVU1479
 6914 0e40 84F84C30 		strb	r3, [r4, #76]
 6915              	.LVL330:
 6916              		.loc 2 343 55 view .LVU1480
 6917              	.LBE2347:
 6918              	.LBE2351:
 282:../libs/libDaisy/src/dev/mpr121.h ****         SetTransportErr(transport_.Write(buff, 2));
 6919              		.loc 2 282 17 view .LVU1481
 6920 0e44 8C23     		movs	r3, #140
 6921 0e46 8DF82530 		strb	r3, [sp, #37]
 6922              	.LVL331:
 6923              	.LBB2352:
 6924              	.LBI2338:
  63:../libs/libDaisy/src/dev/mpr121.h ****     {
 6925              		.loc 2 63 10 is_stmt 1 view .LVU1482
 6926              	.LBB2342:
  65:../libs/libDaisy/src/dev/mpr121.h ****                != i2c_.TransmitBlocking(config_.dev_addr, data, size, 10);
 6927              		.loc 2 65 9 view .LVU1483
  66:../libs/libDaisy/src/dev/mpr121.h ****     }
 6928              		.loc 2 66 40 is_stmt 0 view .LVU1484
 6929 0e4a 0223     		movs	r3, #2
 6930 0e4c FFF7FEFF 		bl	_ZN5daisy9I2CHandle16TransmitBlockingEtPhtm
 6931              	.LVL332:
  66:../libs/libDaisy/src/dev/mpr121.h ****     }
 6932              		.loc 2 66 40 view .LVU1485
 6933              	.LBE2342:
ARM GAS  C:\Users\matte\AppData\Local\Temp\ccgZTizB.s 			page 151


 6934              	.LBE2352:
 6935              	.LBB2353:
 6936              	.LBI2353:
 6937              		.loc 2 343 10 is_stmt 1 view .LVU1486
 6938              	.LBB2354:
 6939              		.loc 2 343 55 is_stmt 0 view .LVU1487
 6940 0e50 94F84C30 		ldrb	r3, [r4, #76]	@ zero_extendqisi2
 6941 0e54 4845     		cmp	r0, r9
 6942 0e56 18BF     		it	ne
 6943 0e58 43F00103 		orrne	r3, r3, #1
 6944              	.LVL333:
 6945              		.loc 2 343 55 view .LVU1488
 6946              	.LBE2354:
 6947              	.LBE2353:
 6948              	.LBE2357:
 6949              	.LBE2363:
 6950              	.LBB2364:
 6951              	.LBI2364:
 344:../libs/libDaisy/src/dev/mpr121.h **** 
 345:../libs/libDaisy/src/dev/mpr121.h ****     /** Get the global transport_error_ bool (as a Result), then reset it */
 346:../libs/libDaisy/src/dev/mpr121.h ****     Result GetTransportErr()
 6952              		.loc 2 346 12 is_stmt 1 view .LVU1489
 6953              	.LBB2365:
 347:../libs/libDaisy/src/dev/mpr121.h ****     {
 348:../libs/libDaisy/src/dev/mpr121.h ****         Result ret       = transport_error_ ? ERR : OK;
 6954              		.loc 2 348 45 is_stmt 0 view .LVU1490
 6955 0e5c 93B1     		cbz	r3, .L10
 6956              	.LVL334:
 349:../libs/libDaisy/src/dev/mpr121.h ****         transport_error_ = false;
 6957              		.loc 2 349 26 view .LVU1491
 6958 0e5e 84F84C90 		strb	r9, [r4, #76]
 6959              	.LVL335:
 6960              	.L11:
 6961              		.loc 2 349 26 view .LVU1492
 6962              	.LBE2365:
 6963              	.LBE2364:
 6964              	.LBE2368:
 6965              	.LBE716:
  15:PSP/PlantConditioner.cpp ****     {
  16:PSP/PlantConditioner.cpp ****         while (1) {
 6966              		.loc 1 16 9 is_stmt 1 discriminator 1 view .LVU1493
  17:PSP/PlantConditioner.cpp ****             _hw->SetLed(true); _hw->DelayMs(100);
 6967              		.loc 1 17 13 discriminator 1 view .LVU1494
 6968              		.loc 1 17 24 is_stmt 0 discriminator 1 view .LVU1495
 6969 0e62 2068     		ldr	r0, [r4]
 6970 0e64 0121     		movs	r1, #1
 6971 0e66 FFF7FEFF 		bl	_ZN5daisy9DaisySeed6SetLedEb
 6972              	.LVL336:
 6973              		.loc 1 17 32 is_stmt 1 discriminator 1 view .LVU1496
 6974              		.loc 1 17 44 is_stmt 0 discriminator 1 view .LVU1497
 6975 0e6a 2068     		ldr	r0, [r4]
 6976 0e6c 6421     		movs	r1, #100
 6977 0e6e FFF7FEFF 		bl	_ZN5daisy9DaisySeed7DelayMsEj
 6978              	.LVL337:
  18:PSP/PlantConditioner.cpp ****             _hw->SetLed(false); _hw->DelayMs(100);
 6979              		.loc 1 18 13 is_stmt 1 discriminator 1 view .LVU1498
 6980              		.loc 1 18 24 is_stmt 0 discriminator 1 view .LVU1499
ARM GAS  C:\Users\matte\AppData\Local\Temp\ccgZTizB.s 			page 152


 6981 0e72 2068     		ldr	r0, [r4]
 6982 0e74 0021     		movs	r1, #0
 6983 0e76 FFF7FEFF 		bl	_ZN5daisy9DaisySeed6SetLedEb
 6984              	.LVL338:
 6985              		.loc 1 18 33 is_stmt 1 discriminator 1 view .LVU1500
 6986              		.loc 1 18 45 is_stmt 0 discriminator 1 view .LVU1501
 6987 0e7a 6421     		movs	r1, #100
 6988 0e7c 2068     		ldr	r0, [r4]
 6989 0e7e FFF7FEFF 		bl	_ZN5daisy9DaisySeed7DelayMsEj
 6990              	.LVL339:
  16:PSP/PlantConditioner.cpp ****             _hw->SetLed(true); _hw->DelayMs(100);
 6991              		.loc 1 16 9 is_stmt 1 discriminator 1 view .LVU1502
 6992 0e82 EEE7     		b	.L11
 6993              	.LVL340:
 6994              	.L10:
  19:PSP/PlantConditioner.cpp ****         }
  20:PSP/PlantConditioner.cpp ****     }
  21:PSP/PlantConditioner.cpp ****     _hw->SetLed(true);
 6995              		.loc 1 21 16 is_stmt 0 view .LVU1503
 6996 0e84 2546     		mov	r5, r4
 6997              	.LBB2370:
 6998              	.LBB2369:
 6999              	.LBB2367:
 7000              	.LBB2366:
 7001              		.loc 2 349 26 view .LVU1504
 7002 0e86 84F84C30 		strb	r3, [r4, #76]
 7003              	.LVL341:
 7004              		.loc 2 349 26 view .LVU1505
 7005              	.LBE2366:
 7006              	.LBE2367:
 7007              	.LBE2369:
 7008              	.LBE2370:
 7009              		.loc 1 21 5 is_stmt 1 view .LVU1506
 7010              		.loc 1 21 16 is_stmt 0 view .LVU1507
 7011 0e8a 0121     		movs	r1, #1
 7012 0e8c 55F8540B 		ldr	r0, [r5], #84
 7013 0e90 FFF7FEFF 		bl	_ZN5daisy9DaisySeed6SetLedEb
 7014              	.LVL342:
  22:PSP/PlantConditioner.cpp **** 
  23:PSP/PlantConditioner.cpp **** 
  24:PSP/PlantConditioner.cpp **** 
  25:PSP/PlantConditioner.cpp ****     _deltaFilter.Init(filter_type);
 7015              		.loc 1 25 5 is_stmt 1 view .LVU1508
 7016              		.loc 1 25 22 is_stmt 0 view .LVU1509
 7017 0e94 0399     		ldr	r1, [sp, #12]
 7018 0e96 2846     		mov	r0, r5
 7019 0e98 FFF7FEFF 		bl	_ZN3IIR4InitENS_10FilterTypeE
 7020              	.LVL343:
  26:PSP/PlantConditioner.cpp ****     _deltaFilterMF.Init();
 7021              		.loc 1 26 5 is_stmt 1 view .LVU1510
 7022              		.loc 1 26 24 is_stmt 0 view .LVU1511
 7023 0e9c 04F19C00 		add	r0, r4, #156
 7024 0ea0 FFF7FEFF 		bl	_ZN2MF4InitEv
 7025              	.LVL344:
  27:PSP/PlantConditioner.cpp ****     _delta = 0;
 7026              		.loc 1 27 5 is_stmt 1 view .LVU1512
 7027              		.loc 1 27 12 is_stmt 0 view .LVU1513
ARM GAS  C:\Users\matte\AppData\Local\Temp\ccgZTizB.s 			page 153


 7028 0ea4 0023     		movs	r3, #0
  28:PSP/PlantConditioner.cpp ****     _deltaFilt = 0;
  29:PSP/PlantConditioner.cpp ****     _octave = 4;
 7029              		.loc 1 29 13 view .LVU1514
 7030 0ea6 0420     		movs	r0, #4
  30:PSP/PlantConditioner.cpp ****     _lastFreq = 440.0f;
 7031              		.loc 1 30 15 view .LVU1515
 7032 0ea8 0749     		ldr	r1, .L15
  31:PSP/PlantConditioner.cpp ****     _lastNoteIndex = -1; // Reset indice nota
 7033              		.loc 1 31 20 view .LVU1516
 7034 0eaa 4FF0FF32 		mov	r2, #-1
  27:PSP/PlantConditioner.cpp ****     _deltaFilt = 0;
 7035              		.loc 1 27 12 view .LVU1517
 7036 0eae C4F8D830 		str	r3, [r4, #216]	@ float
  28:PSP/PlantConditioner.cpp ****     _octave = 4;
 7037              		.loc 1 28 5 is_stmt 1 view .LVU1518
  28:PSP/PlantConditioner.cpp ****     _octave = 4;
 7038              		.loc 1 28 16 is_stmt 0 view .LVU1519
 7039 0eb2 C4F8DC30 		str	r3, [r4, #220]	@ float
  29:PSP/PlantConditioner.cpp ****     _lastFreq = 440.0f;
 7040              		.loc 1 29 5 is_stmt 1 view .LVU1520
  29:PSP/PlantConditioner.cpp ****     _lastFreq = 440.0f;
 7041              		.loc 1 29 13 is_stmt 0 view .LVU1521
 7042 0eb6 84F8C800 		strb	r0, [r4, #200]
  30:PSP/PlantConditioner.cpp ****     _lastNoteIndex = -1; // Reset indice nota
 7043              		.loc 1 30 5 is_stmt 1 view .LVU1522
  30:PSP/PlantConditioner.cpp ****     _lastNoteIndex = -1; // Reset indice nota
 7044              		.loc 1 30 15 is_stmt 0 view .LVU1523
 7045 0eba C4F8BC10 		str	r1, [r4, #188]	@ float
 7046              		.loc 1 31 5 is_stmt 1 view .LVU1524
 7047              		.loc 1 31 20 is_stmt 0 view .LVU1525
 7048 0ebe C4F8B820 		str	r2, [r4, #184]
  32:PSP/PlantConditioner.cpp **** }
 7049              		.loc 1 32 1 view .LVU1526
 7050 0ec2 15B0     		add	sp, sp, #84
 7051              		.cfi_def_cfa_offset 36
 7052              		@ sp needed
 7053 0ec4 BDE8F08F 		pop	{r4, r5, r6, r7, r8, r9, r10, fp, pc}
 7054              	.LVL345:
 7055              	.L16:
 7056              		.loc 1 32 1 view .LVU1527
 7057              		.align	2
 7058              	.L15:
 7059 0ec8 0000DC43 		.word	1138491392
 7060              		.cfi_endproc
 7061              	.LFE4990:
 7063              		.section	.text._ZN16PlantConditioner8setScaleENS_5NotesENS_9ScaleTypeE,"ax",%progbits
 7064              		.align	1
 7065              		.p2align 2,,3
 7066              		.global	_ZN16PlantConditioner8setScaleENS_5NotesENS_9ScaleTypeE
 7067              		.syntax unified
 7068              		.thumb
 7069              		.thumb_func
 7070              		.fpu fpv5-d16
 7072              	_ZN16PlantConditioner8setScaleENS_5NotesENS_9ScaleTypeE:
 7073              	.LVL346:
 7074              	.LFB4991:
ARM GAS  C:\Users\matte\AppData\Local\Temp\ccgZTizB.s 			page 154


  33:PSP/PlantConditioner.cpp **** 
  34:PSP/PlantConditioner.cpp **** void PlantConditioner::setScale(enum Notes root_note, enum ScaleType scale_type) {
 7075              		.loc 1 34 82 is_stmt 1 view -0
 7076              		.cfi_startproc
 7077              		@ args = 0, pretend = 0, frame = 0
 7078              		@ frame_needed = 0, uses_anonymous_args = 0
  35:PSP/PlantConditioner.cpp ****     // Copia della scala base
  36:PSP/PlantConditioner.cpp ****     switch (scale_type) 
 7079              		.loc 1 36 5 view .LVU1529
  34:PSP/PlantConditioner.cpp ****     // Copia della scala base
 7080              		.loc 1 34 82 is_stmt 0 view .LVU1530
 7081 0000 70B5     		push	{r4, r5, r6, lr}
 7082              		.cfi_def_cfa_offset 16
 7083              		.cfi_offset 4, -16
 7084              		.cfi_offset 5, -12
 7085              		.cfi_offset 6, -8
 7086              		.cfi_offset 14, -4
 7087 0002 07EE901A 		vmov	s15, r1	@ int
 7088 0006 0446     		mov	r4, r0
 7089 0008 2DED028B 		vpush.64	{d8}
 7090              		.cfi_def_cfa_offset 24
 7091              		.cfi_offset 80, -24
 7092              		.cfi_offset 81, -20
 7093 000c 062A     		cmp	r2, #6
 7094 000e 27D8     		bhi	.L18
 7095 0010 DFE812F0 		tbh	[pc, r2, lsl #1]
 7096              	.L20:
 7097 0014 2600     		.2byte	(.L18-.L20)/2
 7098 0016 9E00     		.2byte	(.L25-.L20)/2
 7099 0018 C000     		.2byte	(.L24-.L20)/2
 7100 001a E200     		.2byte	(.L23-.L20)/2
 7101 001c 0401     		.2byte	(.L22-.L20)/2
 7102 001e 0700     		.2byte	(.L21-.L20)/2
 7103 0020 8000     		.2byte	(.L19-.L20)/2
 7104              		.p2align 1
 7105              	.L21:
 7106              	.LBB2386:
  37:PSP/PlantConditioner.cpp ****     {
  38:PSP/PlantConditioner.cpp ****     case Major:
  39:PSP/PlantConditioner.cpp ****         _scaleLength = 7;
  40:PSP/PlantConditioner.cpp ****         for (int i = 0; i < 7; i++) _scale[i] = _majorScale[i];
  41:PSP/PlantConditioner.cpp ****         break;
  42:PSP/PlantConditioner.cpp ****     case MinorNat:
  43:PSP/PlantConditioner.cpp ****         _scaleLength = 7;
  44:PSP/PlantConditioner.cpp ****         for (int i = 0; i < 7; i++) _scale[i] = _minorNScale[i];
  45:PSP/PlantConditioner.cpp ****         break;
  46:PSP/PlantConditioner.cpp ****     case MinorArm:
  47:PSP/PlantConditioner.cpp ****         _scaleLength = 7;
  48:PSP/PlantConditioner.cpp ****         for (int i = 0; i < 7; i++) _scale[i] = _minorAScale[i];
  49:PSP/PlantConditioner.cpp ****         break;
  50:PSP/PlantConditioner.cpp ****     case MinorMel:
  51:PSP/PlantConditioner.cpp ****         _scaleLength = 7;
  52:PSP/PlantConditioner.cpp ****         for (int i = 0; i < 7; i++) _scale[i] = _minorMScale[i];
  53:PSP/PlantConditioner.cpp ****         break;
  54:PSP/PlantConditioner.cpp ****     case Pentatonic:
  55:PSP/PlantConditioner.cpp ****         _scaleLength = 5;
  56:PSP/PlantConditioner.cpp ****         for (int i = 0; i < 5; i++) _scale[i] = _pentatonicScale[i];
ARM GAS  C:\Users\matte\AppData\Local\Temp\ccgZTizB.s 			page 155


  57:PSP/PlantConditioner.cpp ****         break;
  58:PSP/PlantConditioner.cpp ****     case Chromatic:
 7107              		.loc 1 58 5 is_stmt 1 view .LVU1531
  59:PSP/PlantConditioner.cpp ****         _scaleLength = 12;
 7108              		.loc 1 59 9 view .LVU1532
 7109              	.LBB2387:
  60:PSP/PlantConditioner.cpp ****         for (int i = 0; i < 12; i++) _scale[i] = _chromaticScale[i];
 7110              		.loc 1 60 48 is_stmt 0 view .LVU1533
 7111 0022 00F58A75 		add	r5, r0, #276
 7112              	.LBE2387:
  59:PSP/PlantConditioner.cpp ****         _scaleLength = 12;
 7113              		.loc 1 59 22 view .LVU1534
 7114 0026 0C21     		movs	r1, #12
 7115              	.LVL347:
 7116              	.LBB2388:
 7117              		.loc 1 60 48 view .LVU1535
 7118 0028 00F5E473 		add	r3, r0, #456
 7119 002c 00F5FC7E 		add	lr, r0, #504
 7120 0030 2A46     		mov	r2, r5
 7121              	.LVL348:
 7122              		.loc 1 60 48 view .LVU1536
 7123              	.LBE2388:
  59:PSP/PlantConditioner.cpp ****         _scaleLength = 12;
 7124              		.loc 1 59 22 view .LVU1537
 7125 0032 80F8C910 		strb	r1, [r0, #201]
 7126              		.loc 1 60 9 is_stmt 1 view .LVU1538
 7127              	.LVL349:
 7128              	.LBB2389:
 7129              		.loc 1 60 27 view .LVU1539
 7130              	.L28:
 7131              		.loc 1 60 48 is_stmt 0 view .LVU1540
 7132 0036 D3F800C0 		ldr	ip, [r3]	@ unaligned
 7133 003a 1033     		adds	r3, r3, #16
 7134 003c 53F80C6C 		ldr	r6, [r3, #-12]	@ unaligned
 7135 0040 1032     		adds	r2, r2, #16
 7136 0042 53F8080C 		ldr	r0, [r3, #-8]	@ unaligned
 7137 0046 53F8041C 		ldr	r1, [r3, #-4]	@ unaligned
 7138 004a 7345     		cmp	r3, lr
 7139 004c 42F810CC 		str	ip, [r2, #-16]	@ unaligned
 7140 0050 42F80C6C 		str	r6, [r2, #-12]	@ unaligned
 7141 0054 42F8080C 		str	r0, [r2, #-8]	@ unaligned
 7142 0058 42F8041C 		str	r1, [r2, #-4]	@ unaligned
 7143 005c EBD1     		bne	.L28
 7144 005e 20E0     		b	.L27
 7145              	.LVL350:
 7146              	.L18:
 7147              		.loc 1 60 48 view .LVU1541
 7148              	.LBE2389:
  61:PSP/PlantConditioner.cpp ****         break;
  62:PSP/PlantConditioner.cpp ****     case Esatonic:
  63:PSP/PlantConditioner.cpp ****         _scaleLength = 6;
  64:PSP/PlantConditioner.cpp ****         for (int i = 0; i < 6; i++) _scale[i] = _esatonic[i];
  65:PSP/PlantConditioner.cpp ****         break;
  66:PSP/PlantConditioner.cpp ****     default:
 7149              		.loc 1 66 5 is_stmt 1 view .LVU1542
  67:PSP/PlantConditioner.cpp ****         _scaleLength = 7;
 7150              		.loc 1 67 9 view .LVU1543
ARM GAS  C:\Users\matte\AppData\Local\Temp\ccgZTizB.s 			page 156


 7151              	.LBB2390:
  68:PSP/PlantConditioner.cpp ****         for (int i = 0; i < 7; i++) _scale[i] = _majorScale[i];
 7152              		.loc 1 68 47 is_stmt 0 view .LVU1544
 7153 0060 D0F84C31 		ldr	r3, [r0, #332]	@ unaligned
 7154 0064 04F58A75 		add	r5, r4, #276
 7155 0068 D0F84411 		ldr	r1, [r0, #324]	@ unaligned
 7156              	.LVL351:
 7157              		.loc 1 68 47 view .LVU1545
 7158 006c D0F84821 		ldr	r2, [r0, #328]	@ unaligned
 7159              	.LVL352:
 7160              		.loc 1 68 47 view .LVU1546
 7161              	.LBE2390:
  67:PSP/PlantConditioner.cpp ****         _scaleLength = 7;
 7162              		.loc 1 67 22 view .LVU1547
 7163 0070 0720     		movs	r0, #7
 7164              	.LVL353:
 7165              	.LBB2391:
 7166              		.loc 1 68 47 view .LVU1548
 7167 0072 C4F81C31 		str	r3, [r4, #284]	@ unaligned
 7168 0076 D4F85031 		ldr	r3, [r4, #336]	@ unaligned
 7169 007a C4F81411 		str	r1, [r4, #276]	@ unaligned
 7170 007e C4F81821 		str	r2, [r4, #280]	@ unaligned
 7171 0082 D4F85411 		ldr	r1, [r4, #340]	@ unaligned
 7172 0086 D4F85821 		ldr	r2, [r4, #344]	@ unaligned
 7173 008a C4F82031 		str	r3, [r4, #288]	@ unaligned
 7174 008e D4F85C31 		ldr	r3, [r4, #348]	@ unaligned
 7175              	.LBE2391:
  67:PSP/PlantConditioner.cpp ****         _scaleLength = 7;
 7176              		.loc 1 67 22 view .LVU1549
 7177 0092 84F8C900 		strb	r0, [r4, #201]
 7178              		.loc 1 68 9 is_stmt 1 view .LVU1550
 7179              	.LVL354:
 7180              	.LBB2392:
 7181              		.loc 1 68 27 view .LVU1551
 7182              		.loc 1 68 47 is_stmt 0 view .LVU1552
 7183 0096 C4F82411 		str	r1, [r4, #292]	@ unaligned
 7184 009a C4F82821 		str	r2, [r4, #296]	@ unaligned
 7185 009e C4F82C31 		str	r3, [r4, #300]	@ unaligned
 7186              	.LVL355:
 7187              	.L27:
 7188              		.loc 1 68 47 view .LVU1553
 7189              	.LBE2392:
 7190              	.LBE2386:
  69:PSP/PlantConditioner.cpp ****         break;
  70:PSP/PlantConditioner.cpp ****     }
  71:PSP/PlantConditioner.cpp **** 
  72:PSP/PlantConditioner.cpp ****     // Trasposizione (Pitch Shifting) in base alla nota fondamentale
  73:PSP/PlantConditioner.cpp ****     // powf(2, n/12) calcola il rapporto semitonale
  74:PSP/PlantConditioner.cpp ****     float transposition = powf(2.0f, (float)root_note / 12.0f);
 7191              		.loc 1 74 5 is_stmt 1 view .LVU1554
 7192              		.loc 1 74 38 is_stmt 0 view .LVU1555
 7193 00a2 F8EE677A 		vcvt.f32.u32	s15, s15
 7194              		.loc 1 74 31 view .LVU1556
 7195 00a6 F2EE080A 		vmov.f32	s1, #1.2e+1
 7196 00aa B0EE000A 		vmov.f32	s0, #2.0e+0
 7197 00ae C7EEA00A 		vdiv.f32	s1, s15, s1
 7198 00b2 FFF7FEFF 		bl	powf
ARM GAS  C:\Users\matte\AppData\Local\Temp\ccgZTizB.s 			page 157


 7199              	.LVL356:
 7200              	.LBB2408:
  75:PSP/PlantConditioner.cpp ****     for (int i = 0; i < _scaleLength; i++) {
 7201              		.loc 1 75 25 view .LVU1557
 7202 00b6 94F8C930 		ldrb	r3, [r4, #201]	@ zero_extendqisi2
 7203              	.LVL357:
 7204              		.loc 1 75 25 view .LVU1558
 7205              	.LBE2408:
 7206              		.loc 1 75 5 is_stmt 1 view .LVU1559
 7207              	.LBB2409:
 7208              		.loc 1 75 23 view .LVU1560
 7209 00ba 53B1     		cbz	r3, .L31
 7210 00bc 2A46     		mov	r2, r5
 7211 00be 05EB8301 		add	r1, r5, r3, lsl #2
 7212              	.LVL358:
 7213              	.L32:
  76:PSP/PlantConditioner.cpp ****         _scale[i] = _scale[i] * transposition; 
 7214              		.loc 1 76 9 discriminator 2 view .LVU1561
 7215              		.loc 1 76 29 is_stmt 0 discriminator 2 view .LVU1562
 7216 00c2 D2ED007A 		vldr.32	s15, [r2]
 7217              		.loc 1 76 31 discriminator 2 view .LVU1563
 7218 00c6 67EE807A 		vmul.f32	s15, s15, s0
 7219              		.loc 1 76 19 discriminator 2 view .LVU1564
 7220 00ca E2EC017A 		vstmia.32	r2!, {s15}
  75:PSP/PlantConditioner.cpp ****     for (int i = 0; i < _scaleLength; i++) {
 7221              		.loc 1 75 5 is_stmt 1 discriminator 2 view .LVU1565
  75:PSP/PlantConditioner.cpp ****     for (int i = 0; i < _scaleLength; i++) {
 7222              		.loc 1 75 23 discriminator 2 view .LVU1566
 7223 00ce 8A42     		cmp	r2, r1
 7224 00d0 F7D1     		bne	.L32
 7225              	.L31:
  75:PSP/PlantConditioner.cpp ****     for (int i = 0; i < _scaleLength; i++) {
 7226              		.loc 1 75 23 is_stmt 0 discriminator 2 view .LVU1567
 7227 00d2 04F1E006 		add	r6, r4, #224
 7228              	.LBE2409:
 7229              	.LBB2410:
 7230              	.LBB2411:
  77:PSP/PlantConditioner.cpp ****     }
  78:PSP/PlantConditioner.cpp ****     updateThresholds();
  79:PSP/PlantConditioner.cpp **** }
  80:PSP/PlantConditioner.cpp **** 
  81:PSP/PlantConditioner.cpp **** void PlantConditioner::setOctave(uint8_t octave) {
  82:PSP/PlantConditioner.cpp ****     _octave = octave;
  83:PSP/PlantConditioner.cpp **** }
  84:PSP/PlantConditioner.cpp **** 
  85:PSP/PlantConditioner.cpp **** PlantConditioner::PlantState PlantConditioner::Process() {
  86:PSP/PlantConditioner.cpp ****     float out = _lastFreq;
  87:PSP/PlantConditioner.cpp ****     if (_cap.Touched() & _BV(0))
  88:PSP/PlantConditioner.cpp ****     {
  89:PSP/PlantConditioner.cpp ****         if (!_isTouched) _isTouched = true; // New touch detected
  90:PSP/PlantConditioner.cpp ****         
  91:PSP/PlantConditioner.cpp ****         // Computation of filtered and clamped delta
  92:PSP/PlantConditioner.cpp ****         _delta = _cap.BaselineData(0) - _cap.FilteredData(0) - (float)_touchThreshold;
  93:PSP/PlantConditioner.cpp ****         _deltaFilt = _deltaFilter.Process(_deltaFilterMF.Process(_delta));
  94:PSP/PlantConditioner.cpp ****         _deltaFilt = fclamp(_deltaFilt, _deltaMin, _deltaMax - 0.001f);
  95:PSP/PlantConditioner.cpp ****         
  96:PSP/PlantConditioner.cpp ****         // ---------------------------------------------------------
ARM GAS  C:\Users\matte\AppData\Local\Temp\ccgZTizB.s 			page 158


  97:PSP/PlantConditioner.cpp ****         // STICKY CHECK (Current Note has the priority)
  98:PSP/PlantConditioner.cpp ****         // Controlliamo subito se possiamo rimanere sulla nota attuale
  99:PSP/PlantConditioner.cpp ****         // ---------------------------------------------------------
 100:PSP/PlantConditioner.cpp ****         if (_lastNoteIndex >= 0 && _lastNoteIndex < _scaleLength) {
 101:PSP/PlantConditioner.cpp ****             int i = _lastNoteIndex;
 102:PSP/PlantConditioner.cpp ****             
 103:PSP/PlantConditioner.cpp ****             float lower = _noteThresholds[i];
 104:PSP/PlantConditioner.cpp ****             float upper = _noteThresholds[i+1];
 105:PSP/PlantConditioner.cpp ****             
 106:PSP/PlantConditioner.cpp ****             // L'isteresi può essere una percentuale fissa del range totale
 107:PSP/PlantConditioner.cpp ****             float hyst = _histeresis * (_range / 100.0f); 
 108:PSP/PlantConditioner.cpp **** 
 109:PSP/PlantConditioner.cpp ****             if (_deltaFilt >= (lower - hyst) && _deltaFilt < (upper + hyst)) {
 110:PSP/PlantConditioner.cpp ****                 return {out, _isTouched}; 
 111:PSP/PlantConditioner.cpp ****             }
 112:PSP/PlantConditioner.cpp ****         }
 113:PSP/PlantConditioner.cpp **** 
 114:PSP/PlantConditioner.cpp ****         // ---------------------------------------------------------
 115:PSP/PlantConditioner.cpp ****         // NEW NOTE CHECK
 116:PSP/PlantConditioner.cpp ****         // ---------------------------------------------------------
 117:PSP/PlantConditioner.cpp ****         for (int i = 0; i < _scaleLength; i++) {
 118:PSP/PlantConditioner.cpp ****             float lower = _noteThresholds[i];
 119:PSP/PlantConditioner.cpp ****             float upper = _noteThresholds[i+1];
 120:PSP/PlantConditioner.cpp ****             
 121:PSP/PlantConditioner.cpp ****             // Controllo standard + sicurezza per l'ultimo bin
 122:PSP/PlantConditioner.cpp ****             if ((_deltaFilt >= lower && _deltaFilt < upper) || (i == _scaleLength - 1 && _deltaFilt
 123:PSP/PlantConditioner.cpp ****                 out = _scale[i] * (1 << _octave);
 124:PSP/PlantConditioner.cpp ****                 _lastNoteIndex = i; 
 125:PSP/PlantConditioner.cpp ****                 _lastFreq = out;    
 126:PSP/PlantConditioner.cpp ****                 break;
 127:PSP/PlantConditioner.cpp ****             }
 128:PSP/PlantConditioner.cpp ****         }
 129:PSP/PlantConditioner.cpp ****     } else {
 130:PSP/PlantConditioner.cpp ****         if (_isTouched) _isTouched = false; 
 131:PSP/PlantConditioner.cpp ****     }
 132:PSP/PlantConditioner.cpp **** 
 133:PSP/PlantConditioner.cpp ****     return {out, _isTouched};
 134:PSP/PlantConditioner.cpp **** }
 135:PSP/PlantConditioner.cpp **** 
 136:PSP/PlantConditioner.cpp **** void PlantConditioner::setCurve(float curve_type) {
 137:PSP/PlantConditioner.cpp ****     _curveType = curve_type;
 138:PSP/PlantConditioner.cpp ****     updateThresholds();
 139:PSP/PlantConditioner.cpp **** }
 140:PSP/PlantConditioner.cpp **** 
 141:PSP/PlantConditioner.cpp **** void PlantConditioner::setDelta(float delta_max) {
 142:PSP/PlantConditioner.cpp ****     if (delta_max <= _deltaMin) delta_max = _deltaMin + 1.0f;
 143:PSP/PlantConditioner.cpp ****     _deltaMax = delta_max;
 144:PSP/PlantConditioner.cpp ****     _range = _deltaMax - _deltaMin;
 145:PSP/PlantConditioner.cpp ****     updateThresholds();
 146:PSP/PlantConditioner.cpp **** }
 147:PSP/PlantConditioner.cpp **** 
 148:PSP/PlantConditioner.cpp **** void PlantConditioner::updateThresholds() {
 149:PSP/PlantConditioner.cpp ****     for (int i = 0; i <= _scaleLength; i++) {
 7231              		.loc 1 149 14 view .LVU1568
 7232 00d6 0025     		movs	r5, #0
 7233              	.LVL359:
 7234              	.L30:
ARM GAS  C:\Users\matte\AppData\Local\Temp\ccgZTizB.s 			page 159


 7235              	.LBB2412:
 150:PSP/PlantConditioner.cpp ****         float pct = (float)i / _scaleLength;
 7236              		.loc 1 150 9 is_stmt 1 view .LVU1569
 151:PSP/PlantConditioner.cpp ****         _noteThresholds[i] = _deltaMin + _range * powf(pct, _curveType);
 7237              		.loc 1 151 9 view .LVU1570
 150:PSP/PlantConditioner.cpp ****         float pct = (float)i / _scaleLength;
 7238              		.loc 1 150 30 is_stmt 0 view .LVU1571
 7239 00d8 07EE903A 		vmov	s15, r3	@ int
 150:PSP/PlantConditioner.cpp ****         float pct = (float)i / _scaleLength;
 7240              		.loc 1 150 21 view .LVU1572
 7241 00dc 07EE105A 		vmov	s14, r5	@ int
 7242              		.loc 1 151 30 view .LVU1573
 7243 00e0 94ED338A 		vldr.32	s16, [r4, #204]
 7244              	.LBE2412:
 149:PSP/PlantConditioner.cpp ****         float pct = (float)i / _scaleLength;
 7245              		.loc 1 149 5 view .LVU1574
 7246 00e4 0135     		adds	r5, r5, #1
 7247              	.LVL360:
 7248              	.LBB2413:
 150:PSP/PlantConditioner.cpp ****         float pct = (float)i / _scaleLength;
 7249              		.loc 1 150 30 view .LVU1575
 7250 00e6 F8EEE77A 		vcvt.f32.s32	s15, s15
 7251              		.loc 1 151 42 view .LVU1576
 7252 00ea D4ED358A 		vldr.32	s17, [r4, #212]
 150:PSP/PlantConditioner.cpp ****         float pct = (float)i / _scaleLength;
 7253              		.loc 1 150 21 view .LVU1577
 7254 00ee B8EEC70A 		vcvt.f32.s32	s0, s14
 7255              		.loc 1 151 55 view .LVU1578
 7256 00f2 D4ED310A 		vldr.32	s1, [r4, #196]
 7257 00f6 80EE270A 		vdiv.f32	s0, s0, s15
 7258              	.LVL361:
 7259              		.loc 1 151 55 view .LVU1579
 7260 00fa FFF7FEFF 		bl	powf
 7261              	.LVL362:
 7262              		.loc 1 151 40 view .LVU1580
 7263 00fe A8EE808A 		vfma.f32	s16, s17, s0
 7264              		.loc 1 151 28 view .LVU1581
 7265 0102 A6EC018A 		vstmia.32	r6!, {s16}
 7266              	.LBE2413:
 149:PSP/PlantConditioner.cpp ****         float pct = (float)i / _scaleLength;
 7267              		.loc 1 149 5 is_stmt 1 view .LVU1582
 7268              	.LVL363:
 149:PSP/PlantConditioner.cpp ****         float pct = (float)i / _scaleLength;
 7269              		.loc 1 149 23 view .LVU1583
 149:PSP/PlantConditioner.cpp ****         float pct = (float)i / _scaleLength;
 7270              		.loc 1 149 26 is_stmt 0 view .LVU1584
 7271 0106 94F8C930 		ldrb	r3, [r4, #201]	@ zero_extendqisi2
 149:PSP/PlantConditioner.cpp ****         float pct = (float)i / _scaleLength;
 7272              		.loc 1 149 23 view .LVU1585
 7273 010a AB42     		cmp	r3, r5
 7274 010c E4DA     		bge	.L30
 7275              	.LBE2411:
 7276              	.LBE2410:
  79:PSP/PlantConditioner.cpp **** 
 7277              		.loc 1 79 1 view .LVU1586
 7278 010e BDEC028B 		vldm	sp!, {d8}
 7279              		.cfi_remember_state
ARM GAS  C:\Users\matte\AppData\Local\Temp\ccgZTizB.s 			page 160


 7280              		.cfi_restore 80
 7281              		.cfi_restore 81
 7282              		.cfi_def_cfa_offset 16
 7283 0112 70BD     		pop	{r4, r5, r6, pc}
 7284              	.LVL364:
 7285              	.L19:
 7286              		.cfi_restore_state
 7287              	.LBB2414:
  62:PSP/PlantConditioner.cpp ****         _scaleLength = 6;
 7288              		.loc 1 62 5 is_stmt 1 view .LVU1587
  63:PSP/PlantConditioner.cpp ****         for (int i = 0; i < 6; i++) _scale[i] = _esatonic[i];
 7289              		.loc 1 63 9 view .LVU1588
 7290              	.LBB2393:
  64:PSP/PlantConditioner.cpp ****         break;
 7291              		.loc 1 64 47 is_stmt 0 view .LVU1589
 7292 0114 D0F8F821 		ldr	r2, [r0, #504]	@ unaligned
 7293              	.LVL365:
  64:PSP/PlantConditioner.cpp ****         break;
 7294              		.loc 1 64 47 view .LVU1590
 7295 0118 04F58A75 		add	r5, r4, #276
 7296 011c D0F8FC31 		ldr	r3, [r0, #508]	@ unaligned
 7297              	.LBE2393:
  63:PSP/PlantConditioner.cpp ****         for (int i = 0; i < 6; i++) _scale[i] = _esatonic[i];
 7298              		.loc 1 63 22 view .LVU1591
 7299 0120 0620     		movs	r0, #6
 7300              	.LVL366:
 7301              	.LBB2394:
  64:PSP/PlantConditioner.cpp ****         break;
 7302              		.loc 1 64 47 view .LVU1592
 7303 0122 D4F80062 		ldr	r6, [r4, #512]	@ unaligned
 7304 0126 D4F80412 		ldr	r1, [r4, #516]	@ unaligned
 7305              	.LVL367:
  64:PSP/PlantConditioner.cpp ****         break;
 7306              		.loc 1 64 47 view .LVU1593
 7307 012a C4F81421 		str	r2, [r4, #276]	@ unaligned
 7308 012e C4F81831 		str	r3, [r4, #280]	@ unaligned
 7309 0132 D4F80822 		ldr	r2, [r4, #520]	@ unaligned
 7310 0136 D4F80C32 		ldr	r3, [r4, #524]	@ unaligned
 7311 013a C4F82421 		str	r2, [r4, #292]	@ unaligned
 7312 013e C4F81C61 		str	r6, [r4, #284]	@ unaligned
 7313              	.LBE2394:
  63:PSP/PlantConditioner.cpp ****         for (int i = 0; i < 6; i++) _scale[i] = _esatonic[i];
 7314              		.loc 1 63 22 view .LVU1594
 7315 0142 84F8C900 		strb	r0, [r4, #201]
  64:PSP/PlantConditioner.cpp ****         break;
 7316              		.loc 1 64 9 is_stmt 1 view .LVU1595
 7317              	.LVL368:
 7318              	.LBB2395:
  64:PSP/PlantConditioner.cpp ****         break;
 7319              		.loc 1 64 27 view .LVU1596
  64:PSP/PlantConditioner.cpp ****         break;
 7320              		.loc 1 64 47 is_stmt 0 view .LVU1597
 7321 0146 C4F82011 		str	r1, [r4, #288]	@ unaligned
 7322 014a C4F82831 		str	r3, [r4, #296]	@ unaligned
 7323 014e A8E7     		b	.L27
 7324              	.LVL369:
 7325              	.L25:
ARM GAS  C:\Users\matte\AppData\Local\Temp\ccgZTizB.s 			page 161


  64:PSP/PlantConditioner.cpp ****         break;
 7326              		.loc 1 64 47 view .LVU1598
 7327              	.LBE2395:
  42:PSP/PlantConditioner.cpp ****         _scaleLength = 7;
 7328              		.loc 1 42 5 is_stmt 1 view .LVU1599
  43:PSP/PlantConditioner.cpp ****         for (int i = 0; i < 7; i++) _scale[i] = _minorNScale[i];
 7329              		.loc 1 43 9 view .LVU1600
 7330              	.LBB2396:
  44:PSP/PlantConditioner.cpp ****         break;
 7331              		.loc 1 44 47 is_stmt 0 view .LVU1601
 7332 0150 D0F86831 		ldr	r3, [r0, #360]	@ unaligned
 7333 0154 04F58A75 		add	r5, r4, #276
 7334 0158 D0F86011 		ldr	r1, [r0, #352]	@ unaligned
 7335              	.LVL370:
  44:PSP/PlantConditioner.cpp ****         break;
 7336              		.loc 1 44 47 view .LVU1602
 7337 015c D0F86421 		ldr	r2, [r0, #356]	@ unaligned
 7338              	.LVL371:
  44:PSP/PlantConditioner.cpp ****         break;
 7339              		.loc 1 44 47 view .LVU1603
 7340              	.LBE2396:
  43:PSP/PlantConditioner.cpp ****         for (int i = 0; i < 7; i++) _scale[i] = _minorNScale[i];
 7341              		.loc 1 43 22 view .LVU1604
 7342 0160 0720     		movs	r0, #7
 7343              	.LVL372:
 7344              	.LBB2397:
  44:PSP/PlantConditioner.cpp ****         break;
 7345              		.loc 1 44 47 view .LVU1605
 7346 0162 C4F81C31 		str	r3, [r4, #284]	@ unaligned
 7347 0166 D4F86C31 		ldr	r3, [r4, #364]	@ unaligned
 7348 016a C4F81411 		str	r1, [r4, #276]	@ unaligned
 7349 016e C4F81821 		str	r2, [r4, #280]	@ unaligned
 7350 0172 D4F87011 		ldr	r1, [r4, #368]	@ unaligned
 7351 0176 D4F87421 		ldr	r2, [r4, #372]	@ unaligned
 7352 017a C4F82031 		str	r3, [r4, #288]	@ unaligned
 7353 017e D4F87831 		ldr	r3, [r4, #376]	@ unaligned
 7354              	.LBE2397:
  43:PSP/PlantConditioner.cpp ****         for (int i = 0; i < 7; i++) _scale[i] = _minorNScale[i];
 7355              		.loc 1 43 22 view .LVU1606
 7356 0182 84F8C900 		strb	r0, [r4, #201]
  44:PSP/PlantConditioner.cpp ****         break;
 7357              		.loc 1 44 9 is_stmt 1 view .LVU1607
 7358              	.LVL373:
 7359              	.LBB2398:
  44:PSP/PlantConditioner.cpp ****         break;
 7360              		.loc 1 44 27 view .LVU1608
  44:PSP/PlantConditioner.cpp ****         break;
 7361              		.loc 1 44 47 is_stmt 0 view .LVU1609
 7362 0186 C4F82411 		str	r1, [r4, #292]	@ unaligned
 7363 018a C4F82821 		str	r2, [r4, #296]	@ unaligned
 7364 018e C4F82C31 		str	r3, [r4, #300]	@ unaligned
 7365 0192 86E7     		b	.L27
 7366              	.LVL374:
 7367              	.L24:
  44:PSP/PlantConditioner.cpp ****         break;
 7368              		.loc 1 44 47 view .LVU1610
 7369              	.LBE2398:
ARM GAS  C:\Users\matte\AppData\Local\Temp\ccgZTizB.s 			page 162


  46:PSP/PlantConditioner.cpp ****         _scaleLength = 7;
 7370              		.loc 1 46 5 is_stmt 1 view .LVU1611
  47:PSP/PlantConditioner.cpp ****         for (int i = 0; i < 7; i++) _scale[i] = _minorAScale[i];
 7371              		.loc 1 47 9 view .LVU1612
 7372              	.LBB2399:
  48:PSP/PlantConditioner.cpp ****         break;
 7373              		.loc 1 48 47 is_stmt 0 view .LVU1613
 7374 0194 D0F88431 		ldr	r3, [r0, #388]	@ unaligned
 7375 0198 04F58A75 		add	r5, r4, #276
 7376 019c D0F87C11 		ldr	r1, [r0, #380]	@ unaligned
 7377              	.LVL375:
  48:PSP/PlantConditioner.cpp ****         break;
 7378              		.loc 1 48 47 view .LVU1614
 7379 01a0 D0F88021 		ldr	r2, [r0, #384]	@ unaligned
 7380              	.LVL376:
  48:PSP/PlantConditioner.cpp ****         break;
 7381              		.loc 1 48 47 view .LVU1615
 7382              	.LBE2399:
  47:PSP/PlantConditioner.cpp ****         for (int i = 0; i < 7; i++) _scale[i] = _minorAScale[i];
 7383              		.loc 1 47 22 view .LVU1616
 7384 01a4 0720     		movs	r0, #7
 7385              	.LVL377:
 7386              	.LBB2400:
  48:PSP/PlantConditioner.cpp ****         break;
 7387              		.loc 1 48 47 view .LVU1617
 7388 01a6 C4F81C31 		str	r3, [r4, #284]	@ unaligned
 7389 01aa D4F88831 		ldr	r3, [r4, #392]	@ unaligned
 7390 01ae C4F81411 		str	r1, [r4, #276]	@ unaligned
 7391 01b2 C4F81821 		str	r2, [r4, #280]	@ unaligned
 7392 01b6 D4F88C11 		ldr	r1, [r4, #396]	@ unaligned
 7393 01ba D4F89021 		ldr	r2, [r4, #400]	@ unaligned
 7394 01be C4F82031 		str	r3, [r4, #288]	@ unaligned
 7395 01c2 D4F89431 		ldr	r3, [r4, #404]	@ unaligned
 7396              	.LBE2400:
  47:PSP/PlantConditioner.cpp ****         for (int i = 0; i < 7; i++) _scale[i] = _minorAScale[i];
 7397              		.loc 1 47 22 view .LVU1618
 7398 01c6 84F8C900 		strb	r0, [r4, #201]
  48:PSP/PlantConditioner.cpp ****         break;
 7399              		.loc 1 48 9 is_stmt 1 view .LVU1619
 7400              	.LVL378:
 7401              	.LBB2401:
  48:PSP/PlantConditioner.cpp ****         break;
 7402              		.loc 1 48 27 view .LVU1620
  48:PSP/PlantConditioner.cpp ****         break;
 7403              		.loc 1 48 47 is_stmt 0 view .LVU1621
 7404 01ca C4F82411 		str	r1, [r4, #292]	@ unaligned
 7405 01ce C4F82821 		str	r2, [r4, #296]	@ unaligned
 7406 01d2 C4F82C31 		str	r3, [r4, #300]	@ unaligned
 7407 01d6 64E7     		b	.L27
 7408              	.LVL379:
 7409              	.L23:
  48:PSP/PlantConditioner.cpp ****         break;
 7410              		.loc 1 48 47 view .LVU1622
 7411              	.LBE2401:
  50:PSP/PlantConditioner.cpp ****         _scaleLength = 7;
 7412              		.loc 1 50 5 is_stmt 1 view .LVU1623
  51:PSP/PlantConditioner.cpp ****         for (int i = 0; i < 7; i++) _scale[i] = _minorMScale[i];
ARM GAS  C:\Users\matte\AppData\Local\Temp\ccgZTizB.s 			page 163


 7413              		.loc 1 51 9 view .LVU1624
 7414              	.LBB2402:
  52:PSP/PlantConditioner.cpp ****         break;
 7415              		.loc 1 52 47 is_stmt 0 view .LVU1625
 7416 01d8 D0F8A031 		ldr	r3, [r0, #416]	@ unaligned
 7417 01dc 04F58A75 		add	r5, r4, #276
 7418 01e0 D0F89811 		ldr	r1, [r0, #408]	@ unaligned
 7419              	.LVL380:
  52:PSP/PlantConditioner.cpp ****         break;
 7420              		.loc 1 52 47 view .LVU1626
 7421 01e4 D0F89C21 		ldr	r2, [r0, #412]	@ unaligned
 7422              	.LVL381:
  52:PSP/PlantConditioner.cpp ****         break;
 7423              		.loc 1 52 47 view .LVU1627
 7424              	.LBE2402:
  51:PSP/PlantConditioner.cpp ****         for (int i = 0; i < 7; i++) _scale[i] = _minorMScale[i];
 7425              		.loc 1 51 22 view .LVU1628
 7426 01e8 0720     		movs	r0, #7
 7427              	.LVL382:
 7428              	.LBB2403:
  52:PSP/PlantConditioner.cpp ****         break;
 7429              		.loc 1 52 47 view .LVU1629
 7430 01ea C4F81C31 		str	r3, [r4, #284]	@ unaligned
 7431 01ee D4F8A431 		ldr	r3, [r4, #420]	@ unaligned
 7432 01f2 C4F81411 		str	r1, [r4, #276]	@ unaligned
 7433 01f6 C4F81821 		str	r2, [r4, #280]	@ unaligned
 7434 01fa D4F8A811 		ldr	r1, [r4, #424]	@ unaligned
 7435 01fe D4F8AC21 		ldr	r2, [r4, #428]	@ unaligned
 7436 0202 C4F82031 		str	r3, [r4, #288]	@ unaligned
 7437 0206 D4F8B031 		ldr	r3, [r4, #432]	@ unaligned
 7438              	.LBE2403:
  51:PSP/PlantConditioner.cpp ****         for (int i = 0; i < 7; i++) _scale[i] = _minorMScale[i];
 7439              		.loc 1 51 22 view .LVU1630
 7440 020a 84F8C900 		strb	r0, [r4, #201]
  52:PSP/PlantConditioner.cpp ****         break;
 7441              		.loc 1 52 9 is_stmt 1 view .LVU1631
 7442              	.LVL383:
 7443              	.LBB2404:
  52:PSP/PlantConditioner.cpp ****         break;
 7444              		.loc 1 52 27 view .LVU1632
  52:PSP/PlantConditioner.cpp ****         break;
 7445              		.loc 1 52 47 is_stmt 0 view .LVU1633
 7446 020e C4F82411 		str	r1, [r4, #292]	@ unaligned
 7447 0212 C4F82821 		str	r2, [r4, #296]	@ unaligned
 7448 0216 C4F82C31 		str	r3, [r4, #300]	@ unaligned
 7449 021a 42E7     		b	.L27
 7450              	.LVL384:
 7451              	.L22:
  52:PSP/PlantConditioner.cpp ****         break;
 7452              		.loc 1 52 47 view .LVU1634
 7453              	.LBE2404:
  54:PSP/PlantConditioner.cpp ****         _scaleLength = 5;
 7454              		.loc 1 54 5 is_stmt 1 view .LVU1635
  55:PSP/PlantConditioner.cpp ****         for (int i = 0; i < 5; i++) _scale[i] = _pentatonicScale[i];
 7455              		.loc 1 55 9 view .LVU1636
 7456              	.LBB2405:
  56:PSP/PlantConditioner.cpp ****         break;
ARM GAS  C:\Users\matte\AppData\Local\Temp\ccgZTizB.s 			page 164


 7457              		.loc 1 56 47 is_stmt 0 view .LVU1637
 7458 021c D0F8B431 		ldr	r3, [r0, #436]	@ unaligned
 7459              	.LBE2405:
  55:PSP/PlantConditioner.cpp ****         for (int i = 0; i < 5; i++) _scale[i] = _pentatonicScale[i];
 7460              		.loc 1 55 22 view .LVU1638
 7461 0220 0521     		movs	r1, #5
 7462              	.LVL385:
 7463              	.LBB2406:
  56:PSP/PlantConditioner.cpp ****         break;
 7464              		.loc 1 56 47 view .LVU1639
 7465 0222 04F58A75 		add	r5, r4, #276
 7466 0226 C0F81431 		str	r3, [r0, #276]	@ unaligned
 7467 022a D4F8BC31 		ldr	r3, [r4, #444]	@ unaligned
 7468 022e D0F8B801 		ldr	r0, [r0, #440]	@ unaligned
 7469              	.LVL386:
  56:PSP/PlantConditioner.cpp ****         break;
 7470              		.loc 1 56 47 view .LVU1640
 7471 0232 D4F8C021 		ldr	r2, [r4, #448]	@ unaligned
 7472              	.LVL387:
  56:PSP/PlantConditioner.cpp ****         break;
 7473              		.loc 1 56 47 view .LVU1641
 7474 0236 C4F81C31 		str	r3, [r4, #284]	@ unaligned
 7475 023a D4F8C431 		ldr	r3, [r4, #452]	@ unaligned
 7476 023e C4F81801 		str	r0, [r4, #280]	@ unaligned
 7477              	.LBE2406:
  55:PSP/PlantConditioner.cpp ****         for (int i = 0; i < 5; i++) _scale[i] = _pentatonicScale[i];
 7478              		.loc 1 55 22 view .LVU1642
 7479 0242 84F8C910 		strb	r1, [r4, #201]
  56:PSP/PlantConditioner.cpp ****         break;
 7480              		.loc 1 56 9 is_stmt 1 view .LVU1643
 7481              	.LVL388:
 7482              	.LBB2407:
  56:PSP/PlantConditioner.cpp ****         break;
 7483              		.loc 1 56 27 view .LVU1644
  56:PSP/PlantConditioner.cpp ****         break;
 7484              		.loc 1 56 47 is_stmt 0 view .LVU1645
 7485 0246 C4F82021 		str	r2, [r4, #288]	@ unaligned
 7486 024a C4F82431 		str	r3, [r4, #292]	@ unaligned
 7487 024e 28E7     		b	.L27
 7488              	.LBE2407:
 7489              	.LBE2414:
 7490              		.cfi_endproc
 7491              	.LFE4991:
 7493              		.section	.text._ZN16PlantConditioner9setOctaveEh,"ax",%progbits
 7494              		.align	1
 7495              		.p2align 2,,3
 7496              		.global	_ZN16PlantConditioner9setOctaveEh
 7497              		.syntax unified
 7498              		.thumb
 7499              		.thumb_func
 7500              		.fpu fpv5-d16
 7502              	_ZN16PlantConditioner9setOctaveEh:
 7503              	.LVL389:
 7504              	.LFB4992:
  81:PSP/PlantConditioner.cpp ****     _octave = octave;
 7505              		.loc 1 81 50 is_stmt 1 view -0
 7506              		.cfi_startproc
ARM GAS  C:\Users\matte\AppData\Local\Temp\ccgZTizB.s 			page 165


 7507              		@ args = 0, pretend = 0, frame = 0
 7508              		@ frame_needed = 0, uses_anonymous_args = 0
 7509              		@ link register save eliminated.
  82:PSP/PlantConditioner.cpp **** }
 7510              		.loc 1 82 5 view .LVU1647
  82:PSP/PlantConditioner.cpp **** }
 7511              		.loc 1 82 13 is_stmt 0 view .LVU1648
 7512 0000 80F8C810 		strb	r1, [r0, #200]
  83:PSP/PlantConditioner.cpp **** 
 7513              		.loc 1 83 1 view .LVU1649
 7514 0004 7047     		bx	lr
 7515              		.cfi_endproc
 7516              	.LFE4992:
 7518 0006 00BF     		.section	.text._ZN16PlantConditioner7ProcessEv,"ax",%progbits
 7519              		.align	1
 7520              		.p2align 2,,3
 7521              		.global	_ZN16PlantConditioner7ProcessEv
 7522              		.syntax unified
 7523              		.thumb
 7524              		.thumb_func
 7525              		.fpu fpv5-d16
 7527              	_ZN16PlantConditioner7ProcessEv:
 7528              	.LVL390:
 7529              	.LFB4993:
  85:PSP/PlantConditioner.cpp ****     float out = _lastFreq;
 7530              		.loc 1 85 58 is_stmt 1 view -0
 7531              		.cfi_startproc
 7532              		@ args = 0, pretend = 0, frame = 8
 7533              		@ frame_needed = 0, uses_anonymous_args = 0
  86:PSP/PlantConditioner.cpp ****     if (_cap.Touched() & _BV(0))
 7534              		.loc 1 86 5 view .LVU1651
  85:PSP/PlantConditioner.cpp ****     float out = _lastFreq;
 7535              		.loc 1 85 58 is_stmt 0 view .LVU1652
 7536 0000 2DE9F041 		push	{r4, r5, r6, r7, r8, lr}
 7537              		.cfi_def_cfa_offset 24
 7538              		.cfi_offset 4, -24
 7539              		.cfi_offset 5, -20
 7540              		.cfi_offset 6, -16
 7541              		.cfi_offset 7, -12
 7542              		.cfi_offset 8, -8
 7543              		.cfi_offset 14, -4
 7544 0004 0023     		movs	r3, #0
 7545              	.LBB2466:
 7546              	.LBB2467:
 7547              	.LBB2468:
 7548              	.LBB2469:
 7549              	.LBB2470:
 7550              	.LBB2471:
 7551              	.LBB2472:
  66:../libs/libDaisy/src/dev/mpr121.h ****     }
 7552              		.loc 2 66 40 view .LVU1653
 7553 0006 01F13406 		add	r6, r1, #52
 7554 000a 0A27     		movs	r7, #10
 7555              	.LBE2472:
 7556              	.LBE2471:
 7557              	.LBE2470:
 7558              	.LBE2469:
ARM GAS  C:\Users\matte\AppData\Local\Temp\ccgZTizB.s 			page 166


 7559              	.LBE2468:
 7560              	.LBE2467:
 7561              	.LBE2466:
  85:PSP/PlantConditioner.cpp ****     float out = _lastFreq;
 7562              		.loc 1 85 58 view .LVU1654
 7563 000c 0C46     		mov	r4, r1
 7564 000e 0546     		mov	r5, r0
 7565              	.LBB2647:
 7566              	.LBB2505:
 7567              	.LBB2502:
 7568              	.LBB2499:
 7569              	.LBB2496:
 7570              	.LBB2476:
 7571              	.LBB2473:
  66:../libs/libDaisy/src/dev/mpr121.h ****     }
 7572              		.loc 2 66 40 view .LVU1655
 7573 0010 3046     		mov	r0, r6
 7574              	.LVL391:
  66:../libs/libDaisy/src/dev/mpr121.h ****     }
 7575              		.loc 2 66 40 view .LVU1656
 7576              	.LBE2473:
 7577              	.LBE2476:
 7578              	.LBE2496:
 7579              	.LBE2499:
 7580              	.LBE2502:
 7581              	.LBE2505:
 7582              	.LBE2647:
  85:PSP/PlantConditioner.cpp ****     float out = _lastFreq;
 7583              		.loc 1 85 58 view .LVU1657
 7584 0012 2DED028B 		vpush.64	{d8}
 7585              		.cfi_def_cfa_offset 32
 7586              		.cfi_offset 80, -32
 7587              		.cfi_offset 81, -28
 7588 0016 84B0     		sub	sp, sp, #16
 7589              		.cfi_def_cfa_offset 48
 7590              	.LBB2648:
 7591              	.LBB2506:
 7592              	.LBB2503:
 7593              	.LBB2500:
 7594              	.LBB2497:
 7595              	.LBB2477:
 7596              	.LBB2474:
  66:../libs/libDaisy/src/dev/mpr121.h ****     }
 7597              		.loc 2 66 40 view .LVU1658
 7598 0018 0097     		str	r7, [sp]
 7599 001a 0DF10D02 		add	r2, sp, #13
 7600              	.LBE2474:
 7601              	.LBE2477:
 7602              	.LBE2497:
 7603              	.LBE2500:
 7604              	.LBE2503:
 7605              	.LBE2506:
 7606              	.LBE2648:
  86:PSP/PlantConditioner.cpp ****     if (_cap.Touched() & _BV(0))
 7607              		.loc 1 86 11 view .LVU1659
 7608 001e 91ED2F8A 		vldr.32	s16, [r1, #188]
 7609              	.LVL392:
ARM GAS  C:\Users\matte\AppData\Local\Temp\ccgZTizB.s 			page 167


  87:PSP/PlantConditioner.cpp ****     {
 7610              		.loc 1 87 5 is_stmt 1 view .LVU1660
 7611              	.LBB2649:
 7612              	.LBB2507:
 7613              	.LBI2467:
 221:../libs/libDaisy/src/dev/mpr121.h ****     {
 7614              		.loc 2 221 14 view .LVU1661
 221:../libs/libDaisy/src/dev/mpr121.h ****     {
 7615              		.loc 2 221 14 is_stmt 0 view .LVU1662
 7616 0022 8DF80D30 		strb	r3, [sp, #13]
 7617              	.LVL393:
 7618              	.LBB2504:
 7619              	.LBB2501:
 7620              	.LBI2469:
 244:../libs/libDaisy/src/dev/mpr121.h ****     {
 7621              		.loc 2 244 14 is_stmt 1 view .LVU1663
 7622              	.LBB2498:
 7623              	.LBB2478:
 7624              	.LBI2471:
  63:../libs/libDaisy/src/dev/mpr121.h ****     {
 7625              		.loc 2 63 10 view .LVU1664
 7626              	.LBB2475:
  65:../libs/libDaisy/src/dev/mpr121.h ****                != i2c_.TransmitBlocking(config_.dev_addr, data, size, 10);
 7627              		.loc 2 65 9 view .LVU1665
  66:../libs/libDaisy/src/dev/mpr121.h ****     }
 7628              		.loc 2 66 40 is_stmt 0 view .LVU1666
 7629 0026 0123     		movs	r3, #1
 7630              	.LVL394:
  66:../libs/libDaisy/src/dev/mpr121.h ****     }
 7631              		.loc 2 66 40 view .LVU1667
 7632 0028 91F84810 		ldrb	r1, [r1, #72]	@ zero_extendqisi2
 7633              	.LVL395:
  66:../libs/libDaisy/src/dev/mpr121.h ****     }
 7634              		.loc 2 66 40 view .LVU1668
 7635 002c FFF7FEFF 		bl	_ZN5daisy9I2CHandle16TransmitBlockingEtPhtm
 7636              	.LVL396:
  66:../libs/libDaisy/src/dev/mpr121.h ****     }
 7637              		.loc 2 66 40 view .LVU1669
 7638              	.LBE2475:
 7639              	.LBE2478:
 7640              	.LBB2479:
 7641              	.LBI2479:
 343:../libs/libDaisy/src/dev/mpr121.h **** 
 7642              		.loc 2 343 10 is_stmt 1 view .LVU1670
 7643              	.LBE2479:
 7644              	.LBB2483:
 7645              	.LBB2484:
  73:../libs/libDaisy/src/dev/mpr121.h ****     }
 7646              		.loc 2 73 39 is_stmt 0 view .LVU1671
 7647 0030 0097     		str	r7, [sp]
 7648              	.LBE2484:
 7649              	.LBE2483:
 7650              	.LBB2488:
 7651              	.LBB2480:
 343:../libs/libDaisy/src/dev/mpr121.h **** 
 7652              		.loc 2 343 55 view .LVU1672
 7653 0032 94F84C30 		ldrb	r3, [r4, #76]	@ zero_extendqisi2
ARM GAS  C:\Users\matte\AppData\Local\Temp\ccgZTizB.s 			page 168


 7654              	.LBE2480:
 7655              	.LBE2488:
 7656              	.LBB2489:
 7657              	.LBB2485:
  73:../libs/libDaisy/src/dev/mpr121.h ****     }
 7658              		.loc 2 73 39 view .LVU1673
 7659 0036 0DF10E02 		add	r2, sp, #14
 7660 003a 94F84810 		ldrb	r1, [r4, #72]	@ zero_extendqisi2
 7661              	.LBE2485:
 7662              	.LBE2489:
 7663              	.LBB2490:
 7664              	.LBB2481:
 343:../libs/libDaisy/src/dev/mpr121.h **** 
 7665              		.loc 2 343 55 view .LVU1674
 7666 003e 0028     		cmp	r0, #0
 7667 0040 18BF     		it	ne
 7668 0042 43F00103 		orrne	r3, r3, #1
 7669              	.LBE2481:
 7670              	.LBE2490:
 7671              	.LBB2491:
 7672              	.LBB2486:
  73:../libs/libDaisy/src/dev/mpr121.h ****     }
 7673              		.loc 2 73 39 view .LVU1675
 7674 0046 3046     		mov	r0, r6
 7675              	.LVL397:
  73:../libs/libDaisy/src/dev/mpr121.h ****     }
 7676              		.loc 2 73 39 view .LVU1676
 7677              	.LBE2486:
 7678              	.LBE2491:
 7679              	.LBB2492:
 7680              	.LBB2482:
 343:../libs/libDaisy/src/dev/mpr121.h **** 
 7681              		.loc 2 343 55 view .LVU1677
 7682 0048 84F84C30 		strb	r3, [r4, #76]
 7683              	.LVL398:
 343:../libs/libDaisy/src/dev/mpr121.h **** 
 7684              		.loc 2 343 55 view .LVU1678
 7685              	.LBE2482:
 7686              	.LBE2492:
 7687              	.LBB2493:
 7688              	.LBI2483:
  70:../libs/libDaisy/src/dev/mpr121.h ****     {
 7689              		.loc 2 70 10 is_stmt 1 view .LVU1679
 7690              	.LBB2487:
  72:../libs/libDaisy/src/dev/mpr121.h ****                != i2c_.ReceiveBlocking(config_.dev_addr, data, size, 10);
 7691              		.loc 2 72 9 view .LVU1680
  73:../libs/libDaisy/src/dev/mpr121.h ****     }
 7692              		.loc 2 73 39 is_stmt 0 view .LVU1681
 7693 004c 0223     		movs	r3, #2
 7694 004e FFF7FEFF 		bl	_ZN5daisy9I2CHandle15ReceiveBlockingEtPhtm
 7695              	.LVL399:
  73:../libs/libDaisy/src/dev/mpr121.h ****     }
 7696              		.loc 2 73 39 view .LVU1682
 7697              	.LBE2487:
 7698              	.LBE2493:
 7699              	.LBB2494:
 7700              	.LBI2494:
ARM GAS  C:\Users\matte\AppData\Local\Temp\ccgZTizB.s 			page 169


 343:../libs/libDaisy/src/dev/mpr121.h **** 
 7701              		.loc 2 343 10 is_stmt 1 view .LVU1683
 7702              	.LBB2495:
 343:../libs/libDaisy/src/dev/mpr121.h **** 
 7703              		.loc 2 343 55 is_stmt 0 view .LVU1684
 7704 0052 94F84C30 		ldrb	r3, [r4, #76]	@ zero_extendqisi2
 7705 0056 0028     		cmp	r0, #0
 7706 0058 18BF     		it	ne
 7707 005a 43F00103 		orrne	r3, r3, #1
 7708 005e 84F84C30 		strb	r3, [r4, #76]
 7709              	.LVL400:
 343:../libs/libDaisy/src/dev/mpr121.h **** 
 7710              		.loc 2 343 55 view .LVU1685
 7711              	.LBE2495:
 7712              	.LBE2494:
 250:../libs/libDaisy/src/dev/mpr121.h ****     }
 7713              		.loc 2 250 16 view .LVU1686
 7714 0062 BDF80E30 		ldrh	r3, [sp, #14]
 7715              	.LVL401:
 250:../libs/libDaisy/src/dev/mpr121.h ****     }
 7716              		.loc 2 250 16 view .LVU1687
 7717              	.LBE2498:
 7718              	.LBE2501:
 7719              	.LBE2504:
 7720              	.LBE2507:
  87:PSP/PlantConditioner.cpp ****     {
 7721              		.loc 1 87 5 view .LVU1688
 7722 0066 13F00103 		ands	r3, r3, #1
 7723 006a 00F0C380 		beq	.L39
 7724              	.LBB2508:
  89:PSP/PlantConditioner.cpp ****         
 7725              		.loc 1 89 9 is_stmt 1 view .LVU1689
 7726 006e 94F8B430 		ldrb	r3, [r4, #180]	@ zero_extendqisi2
 7727 0072 13B9     		cbnz	r3, .L40
  89:PSP/PlantConditioner.cpp ****         
 7728              		.loc 1 89 26 discriminator 1 view .LVU1690
  89:PSP/PlantConditioner.cpp ****         
 7729              		.loc 1 89 37 is_stmt 0 discriminator 1 view .LVU1691
 7730 0074 0123     		movs	r3, #1
 7731 0076 84F8B430 		strb	r3, [r4, #180]
 7732              	.L40:
  92:PSP/PlantConditioner.cpp ****         _deltaFilt = _deltaFilter.Process(_deltaFilterMF.Process(_delta));
 7733              		.loc 1 92 9 is_stmt 1 view .LVU1692
 7734              	.LVL402:
 7735              	.LBB2509:
 7736              	.LBI2509:
 208:../libs/libDaisy/src/dev/mpr121.h ****     {
 7737              		.loc 2 208 14 view .LVU1693
 7738              	.LBB2510:
 7739              	.LBB2511:
 7740              	.LBI2511:
 208:../libs/libDaisy/src/dev/mpr121.h ****     {
 7741              		.loc 2 208 14 view .LVU1694
 7742              	.LBB2512:
 7743              	.LBB2513:
 7744              	.LBB2514:
 7745              	.LBB2515:
ARM GAS  C:\Users\matte\AppData\Local\Temp\ccgZTizB.s 			page 170


 7746              	.LBB2516:
  66:../libs/libDaisy/src/dev/mpr121.h ****     }
 7747              		.loc 2 66 40 is_stmt 0 view .LVU1695
 7748 007a 0A27     		movs	r7, #10
 7749 007c 1E23     		movs	r3, #30
 7750 007e 0DF10D02 		add	r2, sp, #13
 7751 0082 3046     		mov	r0, r6
 7752 0084 0097     		str	r7, [sp]
 7753 0086 8DF80D30 		strb	r3, [sp, #13]
 7754              	.LVL403:
  66:../libs/libDaisy/src/dev/mpr121.h ****     }
 7755              		.loc 2 66 40 view .LVU1696
 7756              	.LBE2516:
 7757              	.LBE2515:
 7758              	.LBE2514:
 7759              	.LBI2513:
 231:../libs/libDaisy/src/dev/mpr121.h ****     {
 7760              		.loc 2 231 13 is_stmt 1 view .LVU1697
 7761              	.LBB2541:
 7762              	.LBB2518:
 7763              	.LBI2515:
  63:../libs/libDaisy/src/dev/mpr121.h ****     {
 7764              		.loc 2 63 10 view .LVU1698
 7765              	.LBB2517:
  65:../libs/libDaisy/src/dev/mpr121.h ****                != i2c_.TransmitBlocking(config_.dev_addr, data, size, 10);
 7766              		.loc 2 65 9 view .LVU1699
  66:../libs/libDaisy/src/dev/mpr121.h ****     }
 7767              		.loc 2 66 40 is_stmt 0 view .LVU1700
 7768 008a 0123     		movs	r3, #1
 7769              	.LVL404:
  66:../libs/libDaisy/src/dev/mpr121.h ****     }
 7770              		.loc 2 66 40 view .LVU1701
 7771 008c 94F84810 		ldrb	r1, [r4, #72]	@ zero_extendqisi2
 7772 0090 FFF7FEFF 		bl	_ZN5daisy9I2CHandle16TransmitBlockingEtPhtm
 7773              	.LVL405:
  66:../libs/libDaisy/src/dev/mpr121.h ****     }
 7774              		.loc 2 66 40 view .LVU1702
 7775              	.LBE2517:
 7776              	.LBE2518:
 7777              	.LBB2519:
 7778              	.LBI2519:
 343:../libs/libDaisy/src/dev/mpr121.h **** 
 7779              		.loc 2 343 10 is_stmt 1 view .LVU1703
 7780              	.LBE2519:
 7781              	.LBB2523:
 7782              	.LBB2524:
  73:../libs/libDaisy/src/dev/mpr121.h ****     }
 7783              		.loc 2 73 39 is_stmt 0 view .LVU1704
 7784 0094 0097     		str	r7, [sp]
 7785              	.LBE2524:
 7786              	.LBE2523:
 7787              	.LBB2528:
 7788              	.LBB2520:
 343:../libs/libDaisy/src/dev/mpr121.h **** 
 7789              		.loc 2 343 55 view .LVU1705
 7790 0096 94F84C30 		ldrb	r3, [r4, #76]	@ zero_extendqisi2
 7791              	.LBE2520:
ARM GAS  C:\Users\matte\AppData\Local\Temp\ccgZTizB.s 			page 171


 7792              	.LBE2528:
 7793              	.LBB2529:
 7794              	.LBB2525:
  73:../libs/libDaisy/src/dev/mpr121.h ****     }
 7795              		.loc 2 73 39 view .LVU1706
 7796 009a 0DF10E02 		add	r2, sp, #14
 7797 009e 94F84810 		ldrb	r1, [r4, #72]	@ zero_extendqisi2
 7798              	.LBE2525:
 7799              	.LBE2529:
 7800              	.LBB2530:
 7801              	.LBB2521:
 343:../libs/libDaisy/src/dev/mpr121.h **** 
 7802              		.loc 2 343 55 view .LVU1707
 7803 00a2 0028     		cmp	r0, #0
 7804 00a4 18BF     		it	ne
 7805 00a6 43F00103 		orrne	r3, r3, #1
 7806              	.LBE2521:
 7807              	.LBE2530:
 7808              	.LBB2531:
 7809              	.LBB2526:
  73:../libs/libDaisy/src/dev/mpr121.h ****     }
 7810              		.loc 2 73 39 view .LVU1708
 7811 00aa 3046     		mov	r0, r6
 7812              	.LVL406:
  73:../libs/libDaisy/src/dev/mpr121.h ****     }
 7813              		.loc 2 73 39 view .LVU1709
 7814              	.LBE2526:
 7815              	.LBE2531:
 7816              	.LBB2532:
 7817              	.LBB2522:
 343:../libs/libDaisy/src/dev/mpr121.h **** 
 7818              		.loc 2 343 55 view .LVU1710
 7819 00ac 84F84C30 		strb	r3, [r4, #76]
 7820              	.LVL407:
 343:../libs/libDaisy/src/dev/mpr121.h **** 
 7821              		.loc 2 343 55 view .LVU1711
 7822              	.LBE2522:
 7823              	.LBE2532:
 7824              	.LBB2533:
 7825              	.LBI2523:
  70:../libs/libDaisy/src/dev/mpr121.h ****     {
 7826              		.loc 2 70 10 is_stmt 1 view .LVU1712
 7827              	.LBB2527:
  72:../libs/libDaisy/src/dev/mpr121.h ****                != i2c_.ReceiveBlocking(config_.dev_addr, data, size, 10);
 7828              		.loc 2 72 9 view .LVU1713
  73:../libs/libDaisy/src/dev/mpr121.h ****     }
 7829              		.loc 2 73 39 is_stmt 0 view .LVU1714
 7830 00b0 0123     		movs	r3, #1
 7831 00b2 FFF7FEFF 		bl	_ZN5daisy9I2CHandle15ReceiveBlockingEtPhtm
 7832              	.LVL408:
  73:../libs/libDaisy/src/dev/mpr121.h ****     }
 7833              		.loc 2 73 39 view .LVU1715
 7834              	.LBE2527:
 7835              	.LBE2533:
 7836              	.LBB2534:
 7837              	.LBI2534:
 343:../libs/libDaisy/src/dev/mpr121.h **** 
ARM GAS  C:\Users\matte\AppData\Local\Temp\ccgZTizB.s 			page 172


 7838              		.loc 2 343 10 is_stmt 1 view .LVU1716
 7839              	.LBE2534:
 7840              	.LBE2541:
 7841              	.LBE2513:
 7842              	.LBE2512:
 7843              	.LBE2511:
 7844              	.LBE2510:
 7845              	.LBE2509:
 7846              	.LBB2557:
 7847              	.LBB2558:
 7848              	.LBB2559:
 7849              	.LBB2560:
 7850              	.LBB2561:
 7851              	.LBB2562:
 7852              	.LBB2563:
  66:../libs/libDaisy/src/dev/mpr121.h ****     }
 7853              		.loc 2 66 40 is_stmt 0 view .LVU1717
 7854 00b6 0097     		str	r7, [sp]
 7855              	.LBE2563:
 7856              	.LBE2562:
 7857              	.LBE2561:
 7858              	.LBE2560:
 7859              	.LBE2559:
 7860              	.LBE2558:
 7861              	.LBE2557:
 7862              	.LBB2613:
 7863              	.LBB2554:
 7864              	.LBB2551:
 7865              	.LBB2548:
 7866              	.LBB2545:
 7867              	.LBB2542:
 7868              	.LBB2538:
 7869              	.LBB2535:
 343:../libs/libDaisy/src/dev/mpr121.h **** 
 7870              		.loc 2 343 55 view .LVU1718
 7871 00b8 94F84C30 		ldrb	r3, [r4, #76]	@ zero_extendqisi2
 7872              	.LBE2535:
 7873              	.LBE2538:
 7874              	.LBE2542:
 7875              	.LBE2545:
 7876              	.LBE2548:
 7877              	.LBE2551:
 7878              	.LBE2554:
 7879              	.LBE2613:
 7880              	.LBB2614:
 7881              	.LBB2608:
 7882              	.LBB2603:
 7883              	.LBB2598:
 7884              	.LBB2593:
 7885              	.LBB2568:
 7886              	.LBB2564:
  66:../libs/libDaisy/src/dev/mpr121.h ****     }
 7887              		.loc 2 66 40 view .LVU1719
 7888 00bc 0DF10D02 		add	r2, sp, #13
 7889 00c0 94F84810 		ldrb	r1, [r4, #72]	@ zero_extendqisi2
 7890              	.LBE2564:
 7891              	.LBE2568:
ARM GAS  C:\Users\matte\AppData\Local\Temp\ccgZTizB.s 			page 173


 7892              	.LBE2593:
 7893              	.LBE2598:
 7894              	.LBE2603:
 7895              	.LBE2608:
 7896              	.LBE2614:
 7897              	.LBB2615:
 7898              	.LBB2555:
 7899              	.LBB2552:
 7900              	.LBB2549:
 7901              	.LBB2546:
 7902              	.LBB2543:
 7903              	.LBB2539:
 7904              	.LBB2536:
 343:../libs/libDaisy/src/dev/mpr121.h **** 
 7905              		.loc 2 343 55 view .LVU1720
 7906 00c4 0028     		cmp	r0, #0
 7907 00c6 18BF     		it	ne
 7908 00c8 43F00103 		orrne	r3, r3, #1
 7909              	.LBE2536:
 7910              	.LBE2539:
 7911              	.LBE2543:
 7912              	.LBE2546:
 7913              	.LBE2549:
 7914              	.LBE2552:
 7915              	.LBE2555:
 7916              	.LBE2615:
 7917              	.LBB2616:
 7918              	.LBB2609:
 7919              	.LBB2604:
 7920              	.LBB2599:
 7921              	.LBB2594:
 7922              	.LBB2569:
 7923              	.LBB2565:
  66:../libs/libDaisy/src/dev/mpr121.h ****     }
 7924              		.loc 2 66 40 view .LVU1721
 7925 00cc 3046     		mov	r0, r6
 7926              	.LVL409:
  66:../libs/libDaisy/src/dev/mpr121.h ****     }
 7927              		.loc 2 66 40 view .LVU1722
 7928              	.LBE2565:
 7929              	.LBE2569:
 7930              	.LBE2594:
 7931              	.LBE2599:
 7932              	.LBE2604:
 7933              	.LBE2609:
 7934              	.LBE2616:
 7935              	.LBB2617:
 7936              	.LBB2556:
 7937              	.LBB2553:
 7938              	.LBB2550:
 7939              	.LBB2547:
 7940              	.LBB2544:
 237:../libs/libDaisy/src/dev/mpr121.h ****     }
 7941              		.loc 2 237 16 view .LVU1723
 7942 00ce 9DF80E80 		ldrb	r8, [sp, #14]	@ zero_extendqisi2
 7943              	.LBB2540:
 7944              	.LBB2537:
ARM GAS  C:\Users\matte\AppData\Local\Temp\ccgZTizB.s 			page 174


 343:../libs/libDaisy/src/dev/mpr121.h **** 
 7945              		.loc 2 343 55 view .LVU1724
 7946 00d2 84F84C30 		strb	r3, [r4, #76]
 7947              	.LVL410:
 343:../libs/libDaisy/src/dev/mpr121.h **** 
 7948              		.loc 2 343 55 view .LVU1725
 7949              	.LBE2537:
 7950              	.LBE2540:
 7951              	.LBE2544:
 7952              	.LBE2547:
 7953              	.LBE2550:
 7954              	.LBE2553:
 7955              	.LBE2556:
 7956              	.LBE2617:
 7957              	.LBB2618:
 7958              	.LBI2557:
 195:../libs/libDaisy/src/dev/mpr121.h ****     {
 7959              		.loc 2 195 14 is_stmt 1 view .LVU1726
 7960              	.LBB2610:
 7961              	.LBI2558:
 195:../libs/libDaisy/src/dev/mpr121.h ****     {
 7962              		.loc 2 195 14 view .LVU1727
 7963              	.LBB2605:
 7964              	.LBB2600:
 7965              	.LBI2560:
 244:../libs/libDaisy/src/dev/mpr121.h ****     {
 7966              		.loc 2 244 14 view .LVU1728
 7967              	.LBB2595:
 7968              	.LBB2570:
 7969              	.LBI2562:
  63:../libs/libDaisy/src/dev/mpr121.h ****     {
 7970              		.loc 2 63 10 view .LVU1729
 7971              	.LBB2566:
  65:../libs/libDaisy/src/dev/mpr121.h ****                != i2c_.TransmitBlocking(config_.dev_addr, data, size, 10);
 7972              		.loc 2 65 9 view .LVU1730
 7973 00d6 0423     		movs	r3, #4
 7974 00d8 8DF80D30 		strb	r3, [sp, #13]
 7975              	.LVL411:
  66:../libs/libDaisy/src/dev/mpr121.h ****     }
 7976              		.loc 2 66 40 is_stmt 0 view .LVU1731
 7977 00dc 0123     		movs	r3, #1
 7978 00de FFF7FEFF 		bl	_ZN5daisy9I2CHandle16TransmitBlockingEtPhtm
 7979              	.LVL412:
  66:../libs/libDaisy/src/dev/mpr121.h ****     }
 7980              		.loc 2 66 40 view .LVU1732
 7981              	.LBE2566:
 7982              	.LBE2570:
 7983              	.LBB2571:
 7984              	.LBB2572:
  73:../libs/libDaisy/src/dev/mpr121.h ****     }
 7985              		.loc 2 73 39 view .LVU1733
 7986 00e2 0097     		str	r7, [sp]
 7987              	.LBE2572:
 7988              	.LBE2571:
 7989              	.LBB2576:
 7990              	.LBB2567:
  66:../libs/libDaisy/src/dev/mpr121.h ****     }
ARM GAS  C:\Users\matte\AppData\Local\Temp\ccgZTizB.s 			page 175


 7991              		.loc 2 66 40 view .LVU1734
 7992 00e4 0146     		mov	r1, r0
 7993              	.LVL413:
  66:../libs/libDaisy/src/dev/mpr121.h ****     }
 7994              		.loc 2 66 40 view .LVU1735
 7995              	.LBE2567:
 7996              	.LBE2576:
 7997              	.LBB2577:
 7998              	.LBI2577:
 343:../libs/libDaisy/src/dev/mpr121.h **** 
 7999              		.loc 2 343 10 is_stmt 1 view .LVU1736
 8000              	.LBB2578:
 343:../libs/libDaisy/src/dev/mpr121.h **** 
 8001              		.loc 2 343 55 is_stmt 0 view .LVU1737
 8002 00e6 94F84C30 		ldrb	r3, [r4, #76]	@ zero_extendqisi2
 8003              	.LBE2578:
 8004              	.LBE2577:
 8005              	.LBB2581:
 8006              	.LBB2573:
  73:../libs/libDaisy/src/dev/mpr121.h ****     }
 8007              		.loc 2 73 39 view .LVU1738
 8008 00ea 0DF10E02 		add	r2, sp, #14
 8009 00ee 3046     		mov	r0, r6
 8010              	.LVL414:
  73:../libs/libDaisy/src/dev/mpr121.h ****     }
 8011              		.loc 2 73 39 view .LVU1739
 8012              	.LBE2573:
 8013              	.LBE2581:
 8014              	.LBB2582:
 8015              	.LBB2579:
 343:../libs/libDaisy/src/dev/mpr121.h **** 
 8016              		.loc 2 343 55 view .LVU1740
 8017 00f0 0029     		cmp	r1, #0
 8018 00f2 18BF     		it	ne
 8019 00f4 43F00103 		orrne	r3, r3, #1
 8020              	.LBE2579:
 8021              	.LBE2582:
 8022              	.LBB2583:
 8023              	.LBB2574:
  73:../libs/libDaisy/src/dev/mpr121.h ****     }
 8024              		.loc 2 73 39 view .LVU1741
 8025 00f8 94F84810 		ldrb	r1, [r4, #72]	@ zero_extendqisi2
 8026              	.LVL415:
  73:../libs/libDaisy/src/dev/mpr121.h ****     }
 8027              		.loc 2 73 39 view .LVU1742
 8028              	.LBE2574:
 8029              	.LBE2583:
 8030              	.LBB2584:
 8031              	.LBB2580:
 343:../libs/libDaisy/src/dev/mpr121.h **** 
 8032              		.loc 2 343 55 view .LVU1743
 8033 00fc 84F84C30 		strb	r3, [r4, #76]
 8034              	.LVL416:
 343:../libs/libDaisy/src/dev/mpr121.h **** 
 8035              		.loc 2 343 55 view .LVU1744
 8036              	.LBE2580:
 8037              	.LBE2584:
ARM GAS  C:\Users\matte\AppData\Local\Temp\ccgZTizB.s 			page 176


 8038              	.LBB2585:
 8039              	.LBI2571:
  70:../libs/libDaisy/src/dev/mpr121.h ****     {
 8040              		.loc 2 70 10 is_stmt 1 view .LVU1745
 8041              	.LBB2575:
  72:../libs/libDaisy/src/dev/mpr121.h ****                != i2c_.ReceiveBlocking(config_.dev_addr, data, size, 10);
 8042              		.loc 2 72 9 view .LVU1746
  73:../libs/libDaisy/src/dev/mpr121.h ****     }
 8043              		.loc 2 73 39 is_stmt 0 view .LVU1747
 8044 0100 0223     		movs	r3, #2
 8045 0102 FFF7FEFF 		bl	_ZN5daisy9I2CHandle15ReceiveBlockingEtPhtm
 8046              	.LVL417:
  73:../libs/libDaisy/src/dev/mpr121.h ****     }
 8047              		.loc 2 73 39 view .LVU1748
 8048              	.LBE2575:
 8049              	.LBE2585:
 8050              	.LBB2586:
 8051              	.LBI2586:
 343:../libs/libDaisy/src/dev/mpr121.h **** 
 8052              		.loc 2 343 10 is_stmt 1 view .LVU1749
 8053              	.LBE2586:
 250:../libs/libDaisy/src/dev/mpr121.h ****     }
 8054              		.loc 2 250 16 is_stmt 0 view .LVU1750
 8055 0106 BDF80E30 		ldrh	r3, [sp, #14]
 8056              	.LBB2590:
 8057              	.LBB2587:
 343:../libs/libDaisy/src/dev/mpr121.h **** 
 8058              		.loc 2 343 55 view .LVU1751
 8059 010a 94F84C20 		ldrb	r2, [r4, #76]	@ zero_extendqisi2
 8060              	.LBE2587:
 8061              	.LBE2590:
 8062              	.LBE2595:
 8063              	.LBE2600:
 8064              	.LBE2605:
 8065              	.LBE2610:
 8066              	.LBE2618:
  92:PSP/PlantConditioner.cpp ****         _deltaFilt = _deltaFilter.Process(_deltaFilterMF.Process(_delta));
 8067              		.loc 1 92 39 view .LVU1752
 8068 010e C3EB8803 		rsb	r3, r3, r8, lsl #2
 8069              	.LBB2619:
 8070              	.LBB2611:
 8071              	.LBB2606:
 8072              	.LBB2601:
 8073              	.LBB2596:
 8074              	.LBB2591:
 8075              	.LBB2588:
 343:../libs/libDaisy/src/dev/mpr121.h **** 
 8076              		.loc 2 343 55 view .LVU1753
 8077 0112 0028     		cmp	r0, #0
 8078 0114 18BF     		it	ne
 8079 0116 42F00102 		orrne	r2, r2, #1
 8080              	.LBE2588:
 8081              	.LBE2591:
 8082              	.LBE2596:
 8083              	.LBE2601:
 8084              	.LBE2606:
 8085              	.LBE2611:
ARM GAS  C:\Users\matte\AppData\Local\Temp\ccgZTizB.s 			page 177


 8086              	.LBE2619:
  93:PSP/PlantConditioner.cpp ****         _deltaFilt = fclamp(_deltaFilt, _deltaMin, _deltaMax - 0.001f);
 8087              		.loc 1 93 42 view .LVU1754
 8088 011a 04F19C00 		add	r0, r4, #156
 8089              	.LVL418:
  92:PSP/PlantConditioner.cpp ****         _deltaFilt = _deltaFilter.Process(_deltaFilterMF.Process(_delta));
 8090              		.loc 1 92 39 view .LVU1755
 8091 011e 00EE103A 		vmov	s0, r3	@ int
  92:PSP/PlantConditioner.cpp ****         _deltaFilt = _deltaFilter.Process(_deltaFilterMF.Process(_delta));
 8092              		.loc 1 92 64 view .LVU1756
 8093 0122 94F85030 		ldrb	r3, [r4, #80]	@ zero_extendqisi2
 8094              	.LBB2620:
 8095              	.LBB2612:
 8096              	.LBB2607:
 8097              	.LBB2602:
 8098              	.LBB2597:
 8099              	.LBB2592:
 8100              	.LBB2589:
 343:../libs/libDaisy/src/dev/mpr121.h **** 
 8101              		.loc 2 343 55 view .LVU1757
 8102 0126 84F84C20 		strb	r2, [r4, #76]
 8103              	.LVL419:
 343:../libs/libDaisy/src/dev/mpr121.h **** 
 8104              		.loc 2 343 55 view .LVU1758
 8105              	.LBE2589:
 8106              	.LBE2592:
 8107              	.LBE2597:
 8108              	.LBE2602:
 8109              	.LBE2607:
 8110              	.LBE2612:
 8111              	.LBE2620:
  92:PSP/PlantConditioner.cpp ****         _deltaFilt = _deltaFilter.Process(_deltaFilterMF.Process(_delta));
 8112              		.loc 1 92 64 view .LVU1759
 8113 012a 07EE103A 		vmov	s14, r3	@ int
  92:PSP/PlantConditioner.cpp ****         _deltaFilt = _deltaFilter.Process(_deltaFilterMF.Process(_delta));
 8114              		.loc 1 92 62 view .LVU1760
 8115 012e F8EEC07A 		vcvt.f32.s32	s15, s0
  92:PSP/PlantConditioner.cpp ****         _deltaFilt = _deltaFilter.Process(_deltaFilterMF.Process(_delta));
 8116              		.loc 1 92 64 view .LVU1761
 8117 0132 B8EE470A 		vcvt.f32.u32	s0, s14
  92:PSP/PlantConditioner.cpp ****         _deltaFilt = _deltaFilter.Process(_deltaFilterMF.Process(_delta));
 8118              		.loc 1 92 62 view .LVU1762
 8119 0136 37EEC00A 		vsub.f32	s0, s15, s0
  92:PSP/PlantConditioner.cpp ****         _deltaFilt = _deltaFilter.Process(_deltaFilterMF.Process(_delta));
 8120              		.loc 1 92 16 view .LVU1763
 8121 013a 84ED360A 		vstr.32	s0, [r4, #216]
  93:PSP/PlantConditioner.cpp ****         _deltaFilt = fclamp(_deltaFilt, _deltaMin, _deltaMax - 0.001f);
 8122              		.loc 1 93 9 is_stmt 1 view .LVU1764
  93:PSP/PlantConditioner.cpp ****         _deltaFilt = fclamp(_deltaFilt, _deltaMin, _deltaMax - 0.001f);
 8123              		.loc 1 93 42 is_stmt 0 view .LVU1765
 8124 013e FFF7FEFF 		bl	_ZN2MF7ProcessEf
 8125              	.LVL420:
 8126 0142 04F15400 		add	r0, r4, #84
 8127 0146 FFF7FEFF 		bl	_ZN3IIR7ProcessEf
 8128              	.LVL421:
  94:PSP/PlantConditioner.cpp ****         
 8129              		.loc 1 94 9 is_stmt 1 view .LVU1766
ARM GAS  C:\Users\matte\AppData\Local\Temp\ccgZTizB.s 			page 178


 8130              	.LBB2621:
 8131              	.LBI2621:
 8132              		.file 5 "../libs/DaisySP/Source/Utility/dsp.h"
   1:../libs/DaisySP/Source/Utility/dsp.h **** /*
   2:../libs/DaisySP/Source/Utility/dsp.h **** Copyright (c) 2020 Electrosmith, Corp, Emilie Gillet
   3:../libs/DaisySP/Source/Utility/dsp.h **** 
   4:../libs/DaisySP/Source/Utility/dsp.h **** Use of this source code is governed by an MIT-style
   5:../libs/DaisySP/Source/Utility/dsp.h **** license that can be found in the LICENSE file or at
   6:../libs/DaisySP/Source/Utility/dsp.h **** https://opensource.org/licenses/MIT.
   7:../libs/DaisySP/Source/Utility/dsp.h **** */
   8:../libs/DaisySP/Source/Utility/dsp.h **** 
   9:../libs/DaisySP/Source/Utility/dsp.h **** /** Helpful defines, functions, and other utilities for use in/with daisysp modules.
  10:../libs/DaisySP/Source/Utility/dsp.h **** */
  11:../libs/DaisySP/Source/Utility/dsp.h **** #pragma once
  12:../libs/DaisySP/Source/Utility/dsp.h **** #ifndef DSY_CORE_DSP
  13:../libs/DaisySP/Source/Utility/dsp.h **** #define DSY_CORE_DSP
  14:../libs/DaisySP/Source/Utility/dsp.h **** #include <cassert>
  15:../libs/DaisySP/Source/Utility/dsp.h **** #include <cstdint>
  16:../libs/DaisySP/Source/Utility/dsp.h **** #include <random>
  17:../libs/DaisySP/Source/Utility/dsp.h **** #include <cmath>
  18:../libs/DaisySP/Source/Utility/dsp.h **** 
  19:../libs/DaisySP/Source/Utility/dsp.h **** /** PIs
  20:../libs/DaisySP/Source/Utility/dsp.h **** */
  21:../libs/DaisySP/Source/Utility/dsp.h **** #define PI_F 3.1415927410125732421875f
  22:../libs/DaisySP/Source/Utility/dsp.h **** #define TWOPI_F (2.0f * PI_F)
  23:../libs/DaisySP/Source/Utility/dsp.h **** #define HALFPI_F (PI_F * 0.5f)
  24:../libs/DaisySP/Source/Utility/dsp.h **** #define DSY_MIN(in, mn) (in < mn ? in : mn)
  25:../libs/DaisySP/Source/Utility/dsp.h **** #define DSY_MAX(in, mx) (in > mx ? in : mx)
  26:../libs/DaisySP/Source/Utility/dsp.h **** #define DSY_CLAMP(in, mn, mx) (DSY_MIN(DSY_MAX(in, mn), mx))
  27:../libs/DaisySP/Source/Utility/dsp.h **** #define DSY_COUNTOF(_arr) (sizeof(_arr) / sizeof(_arr[0]))
  28:../libs/DaisySP/Source/Utility/dsp.h **** 
  29:../libs/DaisySP/Source/Utility/dsp.h **** namespace daisysp
  30:../libs/DaisySP/Source/Utility/dsp.h **** {
  31:../libs/DaisySP/Source/Utility/dsp.h **** //Avoids division for random floats. e.g. rand() * kRandFrac
  32:../libs/DaisySP/Source/Utility/dsp.h **** static constexpr float kRandFrac = 1.f / (float)RAND_MAX;
  33:../libs/DaisySP/Source/Utility/dsp.h **** 
  34:../libs/DaisySP/Source/Utility/dsp.h **** //Convert from semitones to other units. e.g. 2 ^ (kOneTwelfth * x)
  35:../libs/DaisySP/Source/Utility/dsp.h **** static constexpr float kOneTwelfth = 1.f / 12.f;
  36:../libs/DaisySP/Source/Utility/dsp.h **** 
  37:../libs/DaisySP/Source/Utility/dsp.h **** /** efficient floating point min/max
  38:../libs/DaisySP/Source/Utility/dsp.h **** c/o stephen mccaul
  39:../libs/DaisySP/Source/Utility/dsp.h **** */
  40:../libs/DaisySP/Source/Utility/dsp.h **** inline float fmax(float a, float b)
  41:../libs/DaisySP/Source/Utility/dsp.h **** {
  42:../libs/DaisySP/Source/Utility/dsp.h ****     float r;
  43:../libs/DaisySP/Source/Utility/dsp.h **** #ifdef __arm__
  44:../libs/DaisySP/Source/Utility/dsp.h ****     asm("vmaxnm.f32 %[d], %[n], %[m]" : [d] "=t"(r) : [n] "t"(a), [m] "t"(b) :);
  45:../libs/DaisySP/Source/Utility/dsp.h **** #else
  46:../libs/DaisySP/Source/Utility/dsp.h ****     r = (a > b) ? a : b;
  47:../libs/DaisySP/Source/Utility/dsp.h **** #endif // __arm__
  48:../libs/DaisySP/Source/Utility/dsp.h ****     return r;
  49:../libs/DaisySP/Source/Utility/dsp.h **** }
  50:../libs/DaisySP/Source/Utility/dsp.h **** 
  51:../libs/DaisySP/Source/Utility/dsp.h **** inline float fmin(float a, float b)
  52:../libs/DaisySP/Source/Utility/dsp.h **** {
  53:../libs/DaisySP/Source/Utility/dsp.h ****     float r;
  54:../libs/DaisySP/Source/Utility/dsp.h **** #ifdef __arm__
ARM GAS  C:\Users\matte\AppData\Local\Temp\ccgZTizB.s 			page 179


  55:../libs/DaisySP/Source/Utility/dsp.h ****     asm("vminnm.f32 %[d], %[n], %[m]" : [d] "=t"(r) : [n] "t"(a), [m] "t"(b) :);
  56:../libs/DaisySP/Source/Utility/dsp.h **** #else
  57:../libs/DaisySP/Source/Utility/dsp.h ****     r = (a < b) ? a : b;
  58:../libs/DaisySP/Source/Utility/dsp.h **** #endif // __arm__
  59:../libs/DaisySP/Source/Utility/dsp.h ****     return r;
  60:../libs/DaisySP/Source/Utility/dsp.h **** }
  61:../libs/DaisySP/Source/Utility/dsp.h **** 
  62:../libs/DaisySP/Source/Utility/dsp.h **** /** quick fp clamp
  63:../libs/DaisySP/Source/Utility/dsp.h **** */
  64:../libs/DaisySP/Source/Utility/dsp.h **** inline float fclamp(float in, float min, float max)
 8133              		.loc 5 64 14 view .LVU1767
 8134              	.LBE2621:
 8135              	.LBE2508:
 8136              	.LBE2649:
  65:../libs/DaisySP/Source/Utility/dsp.h **** {
  66:../libs/DaisySP/Source/Utility/dsp.h ****     return fmin(fmax(in, min), max);
 8137              		.loc 5 66 5 view .LVU1768
 8138              	.LBB2650:
 8139              	.LBB2644:
 8140              	.LBB2630:
 8141              	.LBB2622:
 8142              	.LBI2622:
  40:../libs/DaisySP/Source/Utility/dsp.h **** {
 8143              		.loc 5 40 14 view .LVU1769
 8144              	.LBB2623:
  42:../libs/DaisySP/Source/Utility/dsp.h **** #ifdef __arm__
 8145              		.loc 5 42 5 view .LVU1770
  44:../libs/DaisySP/Source/Utility/dsp.h **** #else
 8146              		.loc 5 44 5 view .LVU1771
 8147              	.LBE2623:
 8148              	.LBE2622:
 8149              	.LBE2630:
 8150              	.LBB2631:
 100:PSP/PlantConditioner.cpp ****             int i = _lastNoteIndex;
 8151              		.loc 1 100 13 is_stmt 0 view .LVU1772
 8152 014a D4F8B830 		ldr	r3, [r4, #184]
 8153              	.LBE2631:
  94:PSP/PlantConditioner.cpp ****         
 8154              		.loc 1 94 28 view .LVU1773
 8155 014e D4ED347A 		vldr.32	s15, [r4, #208]
 8156 0152 DFED406A 		vldr.32	s13, .L63
 8157              	.LBB2633:
 100:PSP/PlantConditioner.cpp ****             int i = _lastNoteIndex;
 8158              		.loc 1 100 9 view .LVU1774
 8159 0156 002B     		cmp	r3, #0
 8160              	.LBE2633:
 8161              	.LBB2634:
 8162              	.LBB2626:
 8163              	.LBB2624:
  44:../libs/DaisySP/Source/Utility/dsp.h **** #else
 8164              		.loc 5 44 5 view .LVU1775
 8165 0158 94ED337A 		vldr.32	s14, [r4, #204]
 8166              	.LBE2624:
 8167              	.LBE2626:
 8168              	.LBE2634:
  94:PSP/PlantConditioner.cpp ****         
 8169              		.loc 1 94 28 view .LVU1776
ARM GAS  C:\Users\matte\AppData\Local\Temp\ccgZTizB.s 			page 180


 8170 015c 77EEE67A 		vsub.f32	s15, s15, s13
 8171              	.LVL422:
 8172              	.LBB2635:
 100:PSP/PlantConditioner.cpp ****             int i = _lastNoteIndex;
 8173              		.loc 1 100 53 view .LVU1777
 8174 0160 94F8C920 		ldrb	r2, [r4, #201]	@ zero_extendqisi2
 8175              	.LBE2635:
 8176              	.LBB2636:
 8177              	.LBB2627:
 8178              	.LBB2625:
  44:../libs/DaisySP/Source/Utility/dsp.h **** #else
 8179              		.loc 5 44 5 view .LVU1778
 8180              		.syntax unified
 8181              	@ 44 "../libs/DaisySP/Source/Utility/dsp.h" 1
 8182 0164 80FE070A 		vmaxnm.f32 s0, s0, s14
 8183              	@ 0 "" 2
 8184              	.LVL423:
  48:../libs/DaisySP/Source/Utility/dsp.h **** }
 8185              		.loc 5 48 5 is_stmt 1 view .LVU1779
  48:../libs/DaisySP/Source/Utility/dsp.h **** }
 8186              		.loc 5 48 5 is_stmt 0 view .LVU1780
 8187              		.thumb
 8188              		.syntax unified
 8189              	.LBE2625:
 8190              	.LBE2627:
 8191              	.LBB2628:
 8192              	.LBI2628:
  51:../libs/DaisySP/Source/Utility/dsp.h **** {
 8193              		.loc 5 51 14 is_stmt 1 view .LVU1781
 8194              	.LBB2629:
  53:../libs/DaisySP/Source/Utility/dsp.h **** #ifdef __arm__
 8195              		.loc 5 53 5 view .LVU1782
  55:../libs/DaisySP/Source/Utility/dsp.h **** #else
 8196              		.loc 5 55 5 view .LVU1783
 8197              		.syntax unified
 8198              	@ 55 "../libs/DaisySP/Source/Utility/dsp.h" 1
 8199 0168 80FE670A 		vminnm.f32 s0, s0, s15
 8200              	@ 0 "" 2
 8201              	.LVL424:
  59:../libs/DaisySP/Source/Utility/dsp.h **** }
 8202              		.loc 5 59 5 view .LVU1784
  59:../libs/DaisySP/Source/Utility/dsp.h **** }
 8203              		.loc 5 59 5 is_stmt 0 view .LVU1785
 8204              		.thumb
 8205              		.syntax unified
 8206              	.LBE2629:
 8207              	.LBE2628:
 8208              	.LBE2636:
  94:PSP/PlantConditioner.cpp ****         
 8209              		.loc 1 94 20 view .LVU1786
 8210 016c 84ED370A 		vstr.32	s0, [r4, #220]
 100:PSP/PlantConditioner.cpp ****             int i = _lastNoteIndex;
 8211              		.loc 1 100 9 is_stmt 1 view .LVU1787
 8212              	.LBB2637:
 8213 0170 01DB     		blt	.L42
 100:PSP/PlantConditioner.cpp ****             int i = _lastNoteIndex;
 8214              		.loc 1 100 33 is_stmt 0 discriminator 1 view .LVU1788
ARM GAS  C:\Users\matte\AppData\Local\Temp\ccgZTizB.s 			page 181


 8215 0172 9342     		cmp	r3, r2
 8216 0174 49DB     		blt	.L62
 8217              	.L42:
 8218              	.LVL425:
 100:PSP/PlantConditioner.cpp ****             int i = _lastNoteIndex;
 8219              		.loc 1 100 33 discriminator 1 view .LVU1789
 8220              	.LBE2637:
 8221              	.LBB2638:
 117:PSP/PlantConditioner.cpp ****             float lower = _noteThresholds[i];
 8222              		.loc 1 117 27 is_stmt 1 discriminator 1 view .LVU1790
 8223 0176 002A     		cmp	r2, #0
 8224 0178 44D0     		beq	.L61
 8225              	.LVL426:
 8226              	.L44:
 8227              	.LBB2639:
 118:PSP/PlantConditioner.cpp ****             float upper = _noteThresholds[i+1];
 8228              		.loc 1 118 19 is_stmt 0 view .LVU1791
 8229 017a D4ED387A 		vldr.32	s15, [r4, #224]
 8230 017e 04F1E401 		add	r1, r4, #228
 8231 0182 0023     		movs	r3, #0
 8232 0184 02E0     		b	.L48
 8233              	.LVL427:
 8234              	.L52:
 118:PSP/PlantConditioner.cpp ****             float upper = _noteThresholds[i+1];
 8235              		.loc 1 118 19 view .LVU1792
 8236              	.LBE2639:
 117:PSP/PlantConditioner.cpp ****             float lower = _noteThresholds[i];
 8237              		.loc 1 117 27 discriminator 1 view .LVU1793
 8238 0186 0133     		adds	r3, r3, #1
 8239              	.LVL428:
 117:PSP/PlantConditioner.cpp ****             float lower = _noteThresholds[i];
 8240              		.loc 1 117 27 discriminator 1 view .LVU1794
 8241 0188 9342     		cmp	r3, r2
 8242 018a 3BDA     		bge	.L61
 8243              	.LVL429:
 8244              	.L48:
 117:PSP/PlantConditioner.cpp ****             float lower = _noteThresholds[i];
 8245              		.loc 1 117 27 is_stmt 1 view .LVU1795
 8246              	.LBB2640:
 118:PSP/PlantConditioner.cpp ****             float upper = _noteThresholds[i+1];
 8247              		.loc 1 118 13 view .LVU1796
 119:PSP/PlantConditioner.cpp ****             
 8248              		.loc 1 119 13 view .LVU1797
 8249 018c B0EE677A 		vmov.f32	s14, s15
 122:PSP/PlantConditioner.cpp ****                 out = _scale[i] * (1 << _octave);
 8250              		.loc 1 122 83 is_stmt 0 view .LVU1798
 8251 0190 02F1FF3C 		add	ip, r2, #-1
 119:PSP/PlantConditioner.cpp ****             
 8252              		.loc 1 119 19 view .LVU1799
 8253 0194 F1EC017A 		vldmia.32	r1!, {s15}
 8254              	.LVL430:
 122:PSP/PlantConditioner.cpp ****                 out = _scale[i] * (1 << _octave);
 8255              		.loc 1 122 13 is_stmt 1 view .LVU1800
 8256 0198 B4EEC70A 		vcmpe.f32	s0, s14
 8257 019c F1EE10FA 		vmrs	APSR_nzcv, FPSCR
 8258 01a0 04DB     		blt	.L49
 122:PSP/PlantConditioner.cpp ****                 out = _scale[i] * (1 << _octave);
ARM GAS  C:\Users\matte\AppData\Local\Temp\ccgZTizB.s 			page 182


 8259              		.loc 1 122 38 is_stmt 0 discriminator 1 view .LVU1801
 8260 01a2 F4EEC07A 		vcmpe.f32	s15, s0
 8261 01a6 F1EE10FA 		vmrs	APSR_nzcv, FPSCR
 8262 01aa 06DC     		bgt	.L51
 8263              	.L49:
 122:PSP/PlantConditioner.cpp ****                 out = _scale[i] * (1 << _octave);
 8264              		.loc 1 122 61 discriminator 3 view .LVU1802
 8265 01ac 9C45     		cmp	ip, r3
 8266 01ae EAD1     		bne	.L52
 122:PSP/PlantConditioner.cpp ****                 out = _scale[i] * (1 << _octave);
 8267              		.loc 1 122 87 discriminator 4 view .LVU1803
 8268 01b0 F4EEC07A 		vcmpe.f32	s15, s0
 8269 01b4 F1EE10FA 		vmrs	APSR_nzcv, FPSCR
 8270 01b8 E5D8     		bhi	.L52
 8271              	.L51:
 123:PSP/PlantConditioner.cpp ****                 _lastNoteIndex = i; 
 8272              		.loc 1 123 17 is_stmt 1 view .LVU1804
 123:PSP/PlantConditioner.cpp ****                 _lastNoteIndex = i; 
 8273              		.loc 1 123 41 is_stmt 0 view .LVU1805
 8274 01ba 94F8C810 		ldrb	r1, [r4, #200]	@ zero_extendqisi2
 123:PSP/PlantConditioner.cpp ****                 _lastNoteIndex = i; 
 8275              		.loc 1 123 38 view .LVU1806
 8276 01be 0122     		movs	r2, #1
 8277 01c0 8A40     		lsls	r2, r2, r1
 8278 01c2 08EE102A 		vmov	s16, r2	@ int
 8279              	.LVL431:
 123:PSP/PlantConditioner.cpp ****                 _lastNoteIndex = i; 
 8280              		.loc 1 123 31 view .LVU1807
 8281 01c6 04EB8302 		add	r2, r4, r3, lsl #2
 123:PSP/PlantConditioner.cpp ****                 _lastNoteIndex = i; 
 8282              		.loc 1 123 33 view .LVU1808
 8283 01ca B8EEC88A 		vcvt.f32.s32	s16, s16
 123:PSP/PlantConditioner.cpp ****                 _lastNoteIndex = i; 
 8284              		.loc 1 123 21 view .LVU1809
 8285 01ce D2ED457A 		vldr.32	s15, [r2, #276]
 8286              	.LVL432:
 123:PSP/PlantConditioner.cpp ****                 _lastNoteIndex = i; 
 8287              		.loc 1 123 21 view .LVU1810
 8288              	.LBE2640:
 8289              	.LBE2638:
 8290              	.LBE2644:
 8291              	.LBE2650:
 133:PSP/PlantConditioner.cpp **** }
 8292              		.loc 1 133 18 view .LVU1811
 8293 01d2 94F8B420 		ldrb	r2, [r4, #180]	@ zero_extendqisi2
 8294              	.LBB2651:
 8295              	.LBB2645:
 8296              	.LBB2642:
 8297              	.LBB2641:
 124:PSP/PlantConditioner.cpp ****                 _lastFreq = out;    
 8298              		.loc 1 124 32 view .LVU1812
 8299 01d6 C4F8B830 		str	r3, [r4, #184]
 123:PSP/PlantConditioner.cpp ****                 _lastNoteIndex = i; 
 8300              		.loc 1 123 21 view .LVU1813
 8301 01da 28EE278A 		vmul.f32	s16, s16, s15
 8302              	.LVL433:
 124:PSP/PlantConditioner.cpp ****                 _lastFreq = out;    
ARM GAS  C:\Users\matte\AppData\Local\Temp\ccgZTizB.s 			page 183


 8303              		.loc 1 124 17 is_stmt 1 view .LVU1814
 125:PSP/PlantConditioner.cpp ****                 break;
 8304              		.loc 1 125 17 view .LVU1815
 125:PSP/PlantConditioner.cpp ****                 break;
 8305              		.loc 1 125 27 is_stmt 0 view .LVU1816
 8306 01de 84ED2F8A 		vstr.32	s16, [r4, #188]
 126:PSP/PlantConditioner.cpp ****             }
 8307              		.loc 1 126 17 is_stmt 1 view .LVU1817
 8308              	.LVL434:
 8309              	.L45:
 126:PSP/PlantConditioner.cpp ****             }
 8310              		.loc 1 126 17 is_stmt 0 view .LVU1818
 8311              	.LBE2641:
 8312              	.LBE2642:
 8313              	.LBE2645:
 8314              	.LBE2651:
 133:PSP/PlantConditioner.cpp **** }
 8315              		.loc 1 133 5 is_stmt 1 view .LVU1819
 133:PSP/PlantConditioner.cpp **** }
 8316              		.loc 1 133 28 is_stmt 0 view .LVU1820
 8317 01e2 85ED008A 		vstr.32	s16, [r5]
 8318 01e6 2A71     		strb	r2, [r5, #4]
 8319              	.L38:
 134:PSP/PlantConditioner.cpp **** 
 8320              		.loc 1 134 1 view .LVU1821
 8321 01e8 2846     		mov	r0, r5
 8322 01ea 04B0     		add	sp, sp, #16
 8323              		.cfi_remember_state
 8324              		.cfi_def_cfa_offset 32
 8325              		@ sp needed
 8326 01ec BDEC028B 		vldm	sp!, {d8}
 8327              		.cfi_restore 80
 8328              		.cfi_restore 81
 8329              		.cfi_def_cfa_offset 24
 8330              	.LVL435:
 134:PSP/PlantConditioner.cpp **** 
 8331              		.loc 1 134 1 view .LVU1822
 8332 01f0 BDE8F081 		pop	{r4, r5, r6, r7, r8, pc}
 8333              	.LVL436:
 8334              	.L39:
 8335              		.cfi_restore_state
 8336              	.LBB2652:
 130:PSP/PlantConditioner.cpp ****     }
 8337              		.loc 1 130 9 is_stmt 1 view .LVU1823
 130:PSP/PlantConditioner.cpp ****     }
 8338              		.loc 1 130 13 is_stmt 0 view .LVU1824
 8339 01f4 94F8B420 		ldrb	r2, [r4, #180]	@ zero_extendqisi2
 130:PSP/PlantConditioner.cpp ****     }
 8340              		.loc 1 130 9 view .LVU1825
 8341 01f8 002A     		cmp	r2, #0
 8342 01fa F2D0     		beq	.L45
 130:PSP/PlantConditioner.cpp ****     }
 8343              		.loc 1 130 25 is_stmt 1 discriminator 1 view .LVU1826
 8344 01fc 1A46     		mov	r2, r3
 130:PSP/PlantConditioner.cpp ****     }
 8345              		.loc 1 130 36 is_stmt 0 discriminator 1 view .LVU1827
 8346 01fe 84F8B430 		strb	r3, [r4, #180]
ARM GAS  C:\Users\matte\AppData\Local\Temp\ccgZTizB.s 			page 184


 8347 0202 EEE7     		b	.L45
 8348              	.L61:
 130:PSP/PlantConditioner.cpp ****     }
 8349              		.loc 1 130 36 discriminator 1 view .LVU1828
 8350              	.LBE2652:
 133:PSP/PlantConditioner.cpp **** }
 8351              		.loc 1 133 18 view .LVU1829
 8352 0204 94F8B420 		ldrb	r2, [r4, #180]	@ zero_extendqisi2
 8353 0208 EBE7     		b	.L45
 8354              	.L62:
 8355              	.LBB2653:
 8356              	.LBB2646:
 8357              	.LBB2643:
 8358              	.LBB2632:
 101:PSP/PlantConditioner.cpp ****             
 8359              		.loc 1 101 13 is_stmt 1 view .LVU1830
 8360              	.LVL437:
 103:PSP/PlantConditioner.cpp ****             float upper = _noteThresholds[i+1];
 8361              		.loc 1 103 13 view .LVU1831
 107:PSP/PlantConditioner.cpp **** 
 8362              		.loc 1 107 48 is_stmt 0 view .LVU1832
 8363 020a 9FED137A 		vldr.32	s14, .L63+4
 8364 020e 04EB8303 		add	r3, r4, r3, lsl #2
 8365              	.LVL438:
 104:PSP/PlantConditioner.cpp ****             
 8366              		.loc 1 104 13 is_stmt 1 view .LVU1833
 107:PSP/PlantConditioner.cpp **** 
 8367              		.loc 1 107 13 view .LVU1834
 107:PSP/PlantConditioner.cpp **** 
 8368              		.loc 1 107 48 is_stmt 0 view .LVU1835
 8369 0212 94ED356A 		vldr.32	s12, [r4, #212]
 107:PSP/PlantConditioner.cpp **** 
 8370              		.loc 1 107 19 view .LVU1836
 8371 0216 D4ED306A 		vldr.32	s13, [r4, #192]
 107:PSP/PlantConditioner.cpp **** 
 8372              		.loc 1 107 48 view .LVU1837
 8373 021a C6EE077A 		vdiv.f32	s15, s12, s14
 109:PSP/PlantConditioner.cpp ****                 return {out, _isTouched}; 
 8374              		.loc 1 109 38 view .LVU1838
 8375 021e 93ED387A 		vldr.32	s14, [r3, #224]
 107:PSP/PlantConditioner.cpp **** 
 8376              		.loc 1 107 19 view .LVU1839
 8377 0222 67EEA67A 		vmul.f32	s15, s15, s13
 8378              	.LVL439:
 109:PSP/PlantConditioner.cpp ****                 return {out, _isTouched}; 
 8379              		.loc 1 109 13 is_stmt 1 view .LVU1840
 109:PSP/PlantConditioner.cpp ****                 return {out, _isTouched}; 
 8380              		.loc 1 109 38 is_stmt 0 view .LVU1841
 8381 0226 37EE677A 		vsub.f32	s14, s14, s15
 109:PSP/PlantConditioner.cpp ****                 return {out, _isTouched}; 
 8382              		.loc 1 109 13 view .LVU1842
 8383 022a B4EEC07A 		vcmpe.f32	s14, s0
 8384 022e F1EE10FA 		vmrs	APSR_nzcv, FPSCR
 8385 0232 A2D8     		bhi	.L44
 109:PSP/PlantConditioner.cpp ****                 return {out, _isTouched}; 
 8386              		.loc 1 109 69 discriminator 1 view .LVU1843
 8387 0234 93ED397A 		vldr.32	s14, [r3, #228]
ARM GAS  C:\Users\matte\AppData\Local\Temp\ccgZTizB.s 			page 185


 8388 0238 77EE877A 		vadd.f32	s15, s15, s14
 8389              	.LVL440:
 109:PSP/PlantConditioner.cpp ****                 return {out, _isTouched}; 
 8390              		.loc 1 109 46 discriminator 1 view .LVU1844
 8391 023c F4EEC07A 		vcmpe.f32	s15, s0
 8392 0240 F1EE10FA 		vmrs	APSR_nzcv, FPSCR
 8393 0244 99DD     		ble	.L44
 110:PSP/PlantConditioner.cpp ****             }
 8394              		.loc 1 110 17 is_stmt 1 view .LVU1845
 110:PSP/PlantConditioner.cpp ****             }
 8395              		.loc 1 110 40 is_stmt 0 view .LVU1846
 8396 0246 94F8B430 		ldrb	r3, [r4, #180]	@ zero_extendqisi2
 8397              	.LVL441:
 110:PSP/PlantConditioner.cpp ****             }
 8398              		.loc 1 110 40 view .LVU1847
 8399 024a 85ED008A 		vstr.32	s16, [r5]
 8400 024e 2B71     		strb	r3, [r5, #4]
 8401 0250 CAE7     		b	.L38
 8402              	.L64:
 8403 0252 00BF     		.align	2
 8404              	.L63:
 8405 0254 6F12833A 		.word	981668463
 8406 0258 0000C842 		.word	1120403456
 8407              	.LBE2632:
 8408              	.LBE2643:
 8409              	.LBE2646:
 8410              	.LBE2653:
 8411              		.cfi_endproc
 8412              	.LFE4993:
 8414              		.section	.text._ZN16PlantConditioner8setCurveEf,"ax",%progbits
 8415              		.align	1
 8416              		.p2align 2,,3
 8417              		.global	_ZN16PlantConditioner8setCurveEf
 8418              		.syntax unified
 8419              		.thumb
 8420              		.thumb_func
 8421              		.fpu fpv5-d16
 8423              	_ZN16PlantConditioner8setCurveEf:
 8424              	.LVL442:
 8425              	.LFB4994:
 136:PSP/PlantConditioner.cpp ****     _curveType = curve_type;
 8426              		.loc 1 136 51 is_stmt 1 view -0
 8427              		.cfi_startproc
 8428              		@ args = 0, pretend = 0, frame = 0
 8429              		@ frame_needed = 0, uses_anonymous_args = 0
 137:PSP/PlantConditioner.cpp ****     updateThresholds();
 8430              		.loc 1 137 5 view .LVU1849
 136:PSP/PlantConditioner.cpp ****     _curveType = curve_type;
 8431              		.loc 1 136 51 is_stmt 0 view .LVU1850
 8432 0000 70B5     		push	{r4, r5, r6, lr}
 8433              		.cfi_def_cfa_offset 16
 8434              		.cfi_offset 4, -16
 8435              		.cfi_offset 5, -12
 8436              		.cfi_offset 6, -8
 8437              		.cfi_offset 14, -4
 8438 0002 F0EE400A 		vmov.f32	s1, s0
 8439              	.LBB2658:
ARM GAS  C:\Users\matte\AppData\Local\Temp\ccgZTizB.s 			page 186


 8440              	.LBB2659:
 149:PSP/PlantConditioner.cpp ****         float pct = (float)i / _scaleLength;
 8441              		.loc 1 149 14 view .LVU1851
 8442 0006 0025     		movs	r5, #0
 8443              	.LBE2659:
 8444              	.LBE2658:
 136:PSP/PlantConditioner.cpp ****     _curveType = curve_type;
 8445              		.loc 1 136 51 view .LVU1852
 8446 0008 0446     		mov	r4, r0
 8447              	.LBB2665:
 8448              	.LBB2662:
 149:PSP/PlantConditioner.cpp ****         float pct = (float)i / _scaleLength;
 8449              		.loc 1 149 26 view .LVU1853
 8450 000a 90F8C930 		ldrb	r3, [r0, #201]	@ zero_extendqisi2
 8451 000e 00F1E006 		add	r6, r0, #224
 8452              	.LBE2662:
 8453              	.LBE2665:
 137:PSP/PlantConditioner.cpp ****     updateThresholds();
 8454              		.loc 1 137 16 view .LVU1854
 8455 0012 80ED310A 		vstr.32	s0, [r0, #196]
 138:PSP/PlantConditioner.cpp **** }
 8456              		.loc 1 138 5 is_stmt 1 view .LVU1855
 8457              	.LVL443:
 8458              	.LBB2666:
 8459              	.LBI2658:
 148:PSP/PlantConditioner.cpp ****     for (int i = 0; i <= _scaleLength; i++) {
 8460              		.loc 1 148 6 view .LVU1856
 8461              	.LBE2666:
 149:PSP/PlantConditioner.cpp ****         float pct = (float)i / _scaleLength;
 8462              		.loc 1 149 5 view .LVU1857
 8463              	.LBB2667:
 8464              	.LBB2663:
 149:PSP/PlantConditioner.cpp ****         float pct = (float)i / _scaleLength;
 8465              		.loc 1 149 23 view .LVU1858
 8466              	.LBE2663:
 8467              	.LBE2667:
 136:PSP/PlantConditioner.cpp ****     _curveType = curve_type;
 8468              		.loc 1 136 51 is_stmt 0 view .LVU1859
 8469 0016 2DED028B 		vpush.64	{d8}
 8470              		.cfi_def_cfa_offset 24
 8471              		.cfi_offset 80, -24
 8472              		.cfi_offset 81, -20
 8473 001a 01E0     		b	.L67
 8474              	.LVL444:
 8475              	.L69:
 8476              	.LBB2668:
 8477              	.LBB2664:
 8478              	.LBB2660:
 8479              		.loc 1 151 55 view .LVU1860
 8480 001c D4ED310A 		vldr.32	s1, [r4, #196]
 8481              	.LVL445:
 8482              	.L67:
 150:PSP/PlantConditioner.cpp ****         _noteThresholds[i] = _deltaMin + _range * powf(pct, _curveType);
 8483              		.loc 1 150 9 is_stmt 1 view .LVU1861
 8484              		.loc 1 151 9 view .LVU1862
 150:PSP/PlantConditioner.cpp ****         _noteThresholds[i] = _deltaMin + _range * powf(pct, _curveType);
 8485              		.loc 1 150 30 is_stmt 0 view .LVU1863
ARM GAS  C:\Users\matte\AppData\Local\Temp\ccgZTizB.s 			page 187


 8486 0020 07EE903A 		vmov	s15, r3	@ int
 150:PSP/PlantConditioner.cpp ****         _noteThresholds[i] = _deltaMin + _range * powf(pct, _curveType);
 8487              		.loc 1 150 21 view .LVU1864
 8488 0024 07EE105A 		vmov	s14, r5	@ int
 8489              		.loc 1 151 30 view .LVU1865
 8490 0028 94ED338A 		vldr.32	s16, [r4, #204]
 8491              	.LBE2660:
 149:PSP/PlantConditioner.cpp ****         float pct = (float)i / _scaleLength;
 8492              		.loc 1 149 5 view .LVU1866
 8493 002c 0135     		adds	r5, r5, #1
 8494              	.LVL446:
 8495              	.LBB2661:
 150:PSP/PlantConditioner.cpp ****         _noteThresholds[i] = _deltaMin + _range * powf(pct, _curveType);
 8496              		.loc 1 150 30 view .LVU1867
 8497 002e F8EEE77A 		vcvt.f32.s32	s15, s15
 8498              		.loc 1 151 42 view .LVU1868
 8499 0032 D4ED358A 		vldr.32	s17, [r4, #212]
 150:PSP/PlantConditioner.cpp ****         _noteThresholds[i] = _deltaMin + _range * powf(pct, _curveType);
 8500              		.loc 1 150 21 view .LVU1869
 8501 0036 B8EEC70A 		vcvt.f32.s32	s0, s14
 8502              		.loc 1 151 55 view .LVU1870
 8503 003a 80EE270A 		vdiv.f32	s0, s0, s15
 8504              	.LVL447:
 8505              		.loc 1 151 55 view .LVU1871
 8506 003e FFF7FEFF 		bl	powf
 8507              	.LVL448:
 8508              		.loc 1 151 40 view .LVU1872
 8509 0042 A8EE808A 		vfma.f32	s16, s17, s0
 8510              		.loc 1 151 28 view .LVU1873
 8511 0046 A6EC018A 		vstmia.32	r6!, {s16}
 8512              	.LBE2661:
 149:PSP/PlantConditioner.cpp ****         float pct = (float)i / _scaleLength;
 8513              		.loc 1 149 5 is_stmt 1 view .LVU1874
 8514              	.LVL449:
 149:PSP/PlantConditioner.cpp ****         float pct = (float)i / _scaleLength;
 8515              		.loc 1 149 23 view .LVU1875
 149:PSP/PlantConditioner.cpp ****         float pct = (float)i / _scaleLength;
 8516              		.loc 1 149 26 is_stmt 0 view .LVU1876
 8517 004a 94F8C930 		ldrb	r3, [r4, #201]	@ zero_extendqisi2
 149:PSP/PlantConditioner.cpp ****         float pct = (float)i / _scaleLength;
 8518              		.loc 1 149 23 view .LVU1877
 8519 004e AB42     		cmp	r3, r5
 8520 0050 E4DA     		bge	.L69
 8521              	.LBE2664:
 8522              	.LBE2668:
 139:PSP/PlantConditioner.cpp **** 
 8523              		.loc 1 139 1 view .LVU1878
 8524 0052 BDEC028B 		vldm	sp!, {d8}
 8525              		.cfi_restore 80
 8526              		.cfi_restore 81
 8527              		.cfi_def_cfa_offset 16
 8528 0056 70BD     		pop	{r4, r5, r6, pc}
 139:PSP/PlantConditioner.cpp **** 
 8529              		.loc 1 139 1 view .LVU1879
 8530              		.cfi_endproc
 8531              	.LFE4994:
 8533              		.section	.text._ZN16PlantConditioner8setDeltaEf,"ax",%progbits
ARM GAS  C:\Users\matte\AppData\Local\Temp\ccgZTizB.s 			page 188


 8534              		.align	1
 8535              		.p2align 2,,3
 8536              		.global	_ZN16PlantConditioner8setDeltaEf
 8537              		.syntax unified
 8538              		.thumb
 8539              		.thumb_func
 8540              		.fpu fpv5-d16
 8542              	_ZN16PlantConditioner8setDeltaEf:
 8543              	.LVL450:
 8544              	.LFB4995:
 141:PSP/PlantConditioner.cpp ****     if (delta_max <= _deltaMin) delta_max = _deltaMin + 1.0f;
 8545              		.loc 1 141 50 is_stmt 1 view -0
 8546              		.cfi_startproc
 8547              		@ args = 0, pretend = 0, frame = 0
 8548              		@ frame_needed = 0, uses_anonymous_args = 0
 142:PSP/PlantConditioner.cpp ****     _deltaMax = delta_max;
 8549              		.loc 1 142 5 view .LVU1881
 141:PSP/PlantConditioner.cpp ****     if (delta_max <= _deltaMin) delta_max = _deltaMin + 1.0f;
 8550              		.loc 1 141 50 is_stmt 0 view .LVU1882
 8551 0000 70B5     		push	{r4, r5, r6, lr}
 8552              		.cfi_def_cfa_offset 16
 8553              		.cfi_offset 4, -16
 8554              		.cfi_offset 5, -12
 8555              		.cfi_offset 6, -8
 8556              		.cfi_offset 14, -4
 8557 0002 2DED028B 		vpush.64	{d8}
 8558              		.cfi_def_cfa_offset 24
 8559              		.cfi_offset 80, -24
 8560              		.cfi_offset 81, -20
 142:PSP/PlantConditioner.cpp ****     _deltaMax = delta_max;
 8561              		.loc 1 142 22 view .LVU1883
 8562 0006 90ED338A 		vldr.32	s16, [r0, #204]
 141:PSP/PlantConditioner.cpp ****     if (delta_max <= _deltaMin) delta_max = _deltaMin + 1.0f;
 8563              		.loc 1 141 50 view .LVU1884
 8564 000a 0446     		mov	r4, r0
 142:PSP/PlantConditioner.cpp ****     _deltaMax = delta_max;
 8565              		.loc 1 142 5 view .LVU1885
 8566 000c B4EEC08A 		vcmpe.f32	s16, s0
 8567 0010 F1EE10FA 		vmrs	APSR_nzcv, FPSCR
 8568 0014 03DB     		blt	.L71
 142:PSP/PlantConditioner.cpp ****     _deltaMax = delta_max;
 8569              		.loc 1 142 33 is_stmt 1 discriminator 1 view .LVU1886
 142:PSP/PlantConditioner.cpp ****     _deltaMax = delta_max;
 8570              		.loc 1 142 43 is_stmt 0 discriminator 1 view .LVU1887
 8571 0016 B7EE000A 		vmov.f32	s0, #1.0e+0
 8572              	.LVL451:
 142:PSP/PlantConditioner.cpp ****     _deltaMax = delta_max;
 8573              		.loc 1 142 43 discriminator 1 view .LVU1888
 8574 001a 38EE000A 		vadd.f32	s0, s16, s0
 8575              	.LVL452:
 8576              	.L71:
 143:PSP/PlantConditioner.cpp ****     _range = _deltaMax - _deltaMin;
 8577              		.loc 1 143 5 is_stmt 1 view .LVU1889
 144:PSP/PlantConditioner.cpp ****     updateThresholds();
 8578              		.loc 1 144 24 is_stmt 0 view .LVU1890
 8579 001e 70EE488A 		vsub.f32	s17, s0, s16
 8580              	.LBB2673:
ARM GAS  C:\Users\matte\AppData\Local\Temp\ccgZTizB.s 			page 189


 8581              	.LBB2674:
 149:PSP/PlantConditioner.cpp ****         float pct = (float)i / _scaleLength;
 8582              		.loc 1 149 26 view .LVU1891
 8583 0022 94F8C930 		ldrb	r3, [r4, #201]	@ zero_extendqisi2
 8584 0026 04F1E006 		add	r6, r4, #224
 149:PSP/PlantConditioner.cpp ****         float pct = (float)i / _scaleLength;
 8585              		.loc 1 149 14 view .LVU1892
 8586 002a 0025     		movs	r5, #0
 8587              	.LBE2674:
 8588              	.LBE2673:
 143:PSP/PlantConditioner.cpp ****     _range = _deltaMax - _deltaMin;
 8589              		.loc 1 143 15 view .LVU1893
 8590 002c 84ED340A 		vstr.32	s0, [r4, #208]
 144:PSP/PlantConditioner.cpp ****     updateThresholds();
 8591              		.loc 1 144 5 is_stmt 1 view .LVU1894
 144:PSP/PlantConditioner.cpp ****     updateThresholds();
 8592              		.loc 1 144 12 is_stmt 0 view .LVU1895
 8593 0030 C4ED358A 		vstr.32	s17, [r4, #212]
 145:PSP/PlantConditioner.cpp **** }
 8594              		.loc 1 145 5 is_stmt 1 view .LVU1896
 8595              	.LVL453:
 8596              	.LBB2678:
 8597              	.LBI2673:
 148:PSP/PlantConditioner.cpp ****     for (int i = 0; i <= _scaleLength; i++) {
 8598              		.loc 1 148 6 view .LVU1897
 8599              	.LBE2678:
 149:PSP/PlantConditioner.cpp ****         float pct = (float)i / _scaleLength;
 8600              		.loc 1 149 5 view .LVU1898
 8601              	.LBB2679:
 8602              	.LBB2677:
 149:PSP/PlantConditioner.cpp ****         float pct = (float)i / _scaleLength;
 8603              		.loc 1 149 23 view .LVU1899
 8604 0034 03E0     		b	.L74
 8605              	.LVL454:
 8606              	.L77:
 8607              	.LBB2675:
 8608              		.loc 1 151 30 is_stmt 0 view .LVU1900
 8609 0036 94ED338A 		vldr.32	s16, [r4, #204]
 8610              		.loc 1 151 42 view .LVU1901
 8611 003a D4ED358A 		vldr.32	s17, [r4, #212]
 8612              	.LVL455:
 8613              	.L74:
 150:PSP/PlantConditioner.cpp ****         _noteThresholds[i] = _deltaMin + _range * powf(pct, _curveType);
 8614              		.loc 1 150 9 is_stmt 1 view .LVU1902
 8615              		.loc 1 151 9 view .LVU1903
 150:PSP/PlantConditioner.cpp ****         _noteThresholds[i] = _deltaMin + _range * powf(pct, _curveType);
 8616              		.loc 1 150 30 is_stmt 0 view .LVU1904
 8617 003e 07EE903A 		vmov	s15, r3	@ int
 150:PSP/PlantConditioner.cpp ****         _noteThresholds[i] = _deltaMin + _range * powf(pct, _curveType);
 8618              		.loc 1 150 21 view .LVU1905
 8619 0042 07EE105A 		vmov	s14, r5	@ int
 8620              		.loc 1 151 55 view .LVU1906
 8621 0046 D4ED310A 		vldr.32	s1, [r4, #196]
 8622              	.LBE2675:
 149:PSP/PlantConditioner.cpp ****         float pct = (float)i / _scaleLength;
 8623              		.loc 1 149 5 view .LVU1907
 8624 004a 0135     		adds	r5, r5, #1
ARM GAS  C:\Users\matte\AppData\Local\Temp\ccgZTizB.s 			page 190


 8625              	.LVL456:
 8626              	.LBB2676:
 150:PSP/PlantConditioner.cpp ****         _noteThresholds[i] = _deltaMin + _range * powf(pct, _curveType);
 8627              		.loc 1 150 30 view .LVU1908
 8628 004c F8EEE77A 		vcvt.f32.s32	s15, s15
 150:PSP/PlantConditioner.cpp ****         _noteThresholds[i] = _deltaMin + _range * powf(pct, _curveType);
 8629              		.loc 1 150 21 view .LVU1909
 8630 0050 B8EEC70A 		vcvt.f32.s32	s0, s14
 8631              		.loc 1 151 55 view .LVU1910
 8632 0054 80EE270A 		vdiv.f32	s0, s0, s15
 8633              	.LVL457:
 8634              		.loc 1 151 55 view .LVU1911
 8635 0058 FFF7FEFF 		bl	powf
 8636              	.LVL458:
 8637              		.loc 1 151 40 view .LVU1912
 8638 005c A0EE288A 		vfma.f32	s16, s0, s17
 8639              		.loc 1 151 28 view .LVU1913
 8640 0060 A6EC018A 		vstmia.32	r6!, {s16}
 8641              	.LBE2676:
 149:PSP/PlantConditioner.cpp ****         float pct = (float)i / _scaleLength;
 8642              		.loc 1 149 5 is_stmt 1 view .LVU1914
 8643              	.LVL459:
 149:PSP/PlantConditioner.cpp ****         float pct = (float)i / _scaleLength;
 8644              		.loc 1 149 23 view .LVU1915
 149:PSP/PlantConditioner.cpp ****         float pct = (float)i / _scaleLength;
 8645              		.loc 1 149 26 is_stmt 0 view .LVU1916
 8646 0064 94F8C930 		ldrb	r3, [r4, #201]	@ zero_extendqisi2
 149:PSP/PlantConditioner.cpp ****         float pct = (float)i / _scaleLength;
 8647              		.loc 1 149 23 view .LVU1917
 8648 0068 AB42     		cmp	r3, r5
 8649 006a E4DA     		bge	.L77
 8650              	.LBE2677:
 8651              	.LBE2679:
 146:PSP/PlantConditioner.cpp **** 
 8652              		.loc 1 146 1 view .LVU1918
 8653 006c BDEC028B 		vldm	sp!, {d8}
 8654              		.cfi_restore 80
 8655              		.cfi_restore 81
 8656              		.cfi_def_cfa_offset 16
 8657 0070 70BD     		pop	{r4, r5, r6, pc}
 146:PSP/PlantConditioner.cpp **** 
 8658              		.loc 1 146 1 view .LVU1919
 8659              		.cfi_endproc
 8660              	.LFE4995:
 8662 0072 00BF     		.section	.text._ZN16PlantConditioner16updateThresholdsEv,"ax",%progbits
 8663              		.align	1
 8664              		.p2align 2,,3
 8665              		.global	_ZN16PlantConditioner16updateThresholdsEv
 8666              		.syntax unified
 8667              		.thumb
 8668              		.thumb_func
 8669              		.fpu fpv5-d16
 8671              	_ZN16PlantConditioner16updateThresholdsEv:
 8672              	.LVL460:
 8673              	.LFB4996:
 148:PSP/PlantConditioner.cpp ****     for (int i = 0; i <= _scaleLength; i++) {
 8674              		.loc 1 148 43 is_stmt 1 view -0
ARM GAS  C:\Users\matte\AppData\Local\Temp\ccgZTizB.s 			page 191


 8675              		.cfi_startproc
 8676              		@ args = 0, pretend = 0, frame = 0
 8677              		@ frame_needed = 0, uses_anonymous_args = 0
 149:PSP/PlantConditioner.cpp ****         float pct = (float)i / _scaleLength;
 8678              		.loc 1 149 5 view .LVU1921
 8679              	.LBB2682:
 149:PSP/PlantConditioner.cpp ****         float pct = (float)i / _scaleLength;
 8680              		.loc 1 149 23 view .LVU1922
 8681              	.LBE2682:
 148:PSP/PlantConditioner.cpp ****     for (int i = 0; i <= _scaleLength; i++) {
 8682              		.loc 1 148 43 is_stmt 0 view .LVU1923
 8683 0000 70B5     		push	{r4, r5, r6, lr}
 8684              		.cfi_def_cfa_offset 16
 8685              		.cfi_offset 4, -16
 8686              		.cfi_offset 5, -12
 8687              		.cfi_offset 6, -8
 8688              		.cfi_offset 14, -4
 8689              	.LBB2685:
 149:PSP/PlantConditioner.cpp ****         float pct = (float)i / _scaleLength;
 8690              		.loc 1 149 26 view .LVU1924
 8691 0002 90F8C930 		ldrb	r3, [r0, #201]	@ zero_extendqisi2
 149:PSP/PlantConditioner.cpp ****         float pct = (float)i / _scaleLength;
 8692              		.loc 1 149 14 view .LVU1925
 8693 0006 0025     		movs	r5, #0
 8694              	.LBE2685:
 148:PSP/PlantConditioner.cpp ****     for (int i = 0; i <= _scaleLength; i++) {
 8695              		.loc 1 148 43 view .LVU1926
 8696 0008 0446     		mov	r4, r0
 8697 000a 00F1E006 		add	r6, r0, #224
 8698 000e 2DED028B 		vpush.64	{d8}
 8699              		.cfi_def_cfa_offset 24
 8700              		.cfi_offset 80, -24
 8701              		.cfi_offset 81, -20
 8702              	.LVL461:
 8703              	.L79:
 8704              	.LBB2686:
 8705              	.LBB2683:
 150:PSP/PlantConditioner.cpp ****         _noteThresholds[i] = _deltaMin + _range * powf(pct, _curveType);
 8706              		.loc 1 150 9 is_stmt 1 discriminator 2 view .LVU1927
 8707              		.loc 1 151 9 discriminator 2 view .LVU1928
 150:PSP/PlantConditioner.cpp ****         _noteThresholds[i] = _deltaMin + _range * powf(pct, _curveType);
 8708              		.loc 1 150 30 is_stmt 0 discriminator 2 view .LVU1929
 8709 0012 07EE903A 		vmov	s15, r3	@ int
 150:PSP/PlantConditioner.cpp ****         _noteThresholds[i] = _deltaMin + _range * powf(pct, _curveType);
 8710              		.loc 1 150 21 discriminator 2 view .LVU1930
 8711 0016 07EE105A 		vmov	s14, r5	@ int
 8712              		.loc 1 151 30 discriminator 2 view .LVU1931
 8713 001a 94ED338A 		vldr.32	s16, [r4, #204]
 8714              	.LBE2683:
 149:PSP/PlantConditioner.cpp ****         float pct = (float)i / _scaleLength;
 8715              		.loc 1 149 5 discriminator 2 view .LVU1932
 8716 001e 0135     		adds	r5, r5, #1
 8717              	.LVL462:
 8718              	.LBB2684:
 150:PSP/PlantConditioner.cpp ****         _noteThresholds[i] = _deltaMin + _range * powf(pct, _curveType);
 8719              		.loc 1 150 30 discriminator 2 view .LVU1933
 8720 0020 F8EEE77A 		vcvt.f32.s32	s15, s15
ARM GAS  C:\Users\matte\AppData\Local\Temp\ccgZTizB.s 			page 192


 8721              		.loc 1 151 42 discriminator 2 view .LVU1934
 8722 0024 D4ED358A 		vldr.32	s17, [r4, #212]
 150:PSP/PlantConditioner.cpp ****         _noteThresholds[i] = _deltaMin + _range * powf(pct, _curveType);
 8723              		.loc 1 150 21 discriminator 2 view .LVU1935
 8724 0028 B8EEC70A 		vcvt.f32.s32	s0, s14
 8725              		.loc 1 151 55 discriminator 2 view .LVU1936
 8726 002c D4ED310A 		vldr.32	s1, [r4, #196]
 8727 0030 80EE270A 		vdiv.f32	s0, s0, s15
 8728              	.LVL463:
 8729              		.loc 1 151 55 discriminator 2 view .LVU1937
 8730 0034 FFF7FEFF 		bl	powf
 8731              	.LVL464:
 8732              		.loc 1 151 40 discriminator 2 view .LVU1938
 8733 0038 A8EE808A 		vfma.f32	s16, s17, s0
 8734              		.loc 1 151 28 discriminator 2 view .LVU1939
 8735 003c A6EC018A 		vstmia.32	r6!, {s16}
 8736              	.LBE2684:
 149:PSP/PlantConditioner.cpp ****         float pct = (float)i / _scaleLength;
 8737              		.loc 1 149 5 is_stmt 1 discriminator 2 view .LVU1940
 8738              	.LVL465:
 149:PSP/PlantConditioner.cpp ****         float pct = (float)i / _scaleLength;
 8739              		.loc 1 149 23 discriminator 2 view .LVU1941
 149:PSP/PlantConditioner.cpp ****         float pct = (float)i / _scaleLength;
 8740              		.loc 1 149 26 is_stmt 0 discriminator 2 view .LVU1942
 8741 0040 94F8C930 		ldrb	r3, [r4, #201]	@ zero_extendqisi2
 149:PSP/PlantConditioner.cpp ****         float pct = (float)i / _scaleLength;
 8742              		.loc 1 149 23 discriminator 2 view .LVU1943
 8743 0044 AB42     		cmp	r3, r5
 8744 0046 E4DA     		bge	.L79
 8745              	.LBE2686:
 152:PSP/PlantConditioner.cpp ****     }
 153:PSP/PlantConditioner.cpp **** }
 8746              		.loc 1 153 1 view .LVU1944
 8747 0048 BDEC028B 		vldm	sp!, {d8}
 8748              		.cfi_restore 80
 8749              		.cfi_restore 81
 8750              		.cfi_def_cfa_offset 16
 8751 004c 70BD     		pop	{r4, r5, r6, pc}
 8752              		.loc 1 153 1 view .LVU1945
 8753              		.cfi_endproc
 8754              	.LFE4996:
 8756 004e 00BF     		.section	.text._ZN16PlantConditioner13setHisteresisEf,"ax",%progbits
 8757              		.align	1
 8758              		.p2align 2,,3
 8759              		.global	_ZN16PlantConditioner13setHisteresisEf
 8760              		.syntax unified
 8761              		.thumb
 8762              		.thumb_func
 8763              		.fpu fpv5-d16
 8765              	_ZN16PlantConditioner13setHisteresisEf:
 8766              	.LVL466:
 8767              	.LFB4997:
 154:PSP/PlantConditioner.cpp **** 
 155:PSP/PlantConditioner.cpp **** void PlantConditioner::setHisteresis(float histeresis) {
 8768              		.loc 1 155 56 is_stmt 1 view -0
 8769              		.cfi_startproc
 8770              		@ args = 0, pretend = 0, frame = 0
ARM GAS  C:\Users\matte\AppData\Local\Temp\ccgZTizB.s 			page 193


 8771              		@ frame_needed = 0, uses_anonymous_args = 0
 156:PSP/PlantConditioner.cpp ****     _histeresis = histeresis; updateThresholds(); 
 8772              		.loc 1 156 5 view .LVU1947
 155:PSP/PlantConditioner.cpp ****     _histeresis = histeresis; updateThresholds(); 
 8773              		.loc 1 155 56 is_stmt 0 view .LVU1948
 8774 0000 70B5     		push	{r4, r5, r6, lr}
 8775              		.cfi_def_cfa_offset 16
 8776              		.cfi_offset 4, -16
 8777              		.cfi_offset 5, -12
 8778              		.cfi_offset 6, -8
 8779              		.cfi_offset 14, -4
 8780              	.LBB2691:
 8781              	.LBB2692:
 149:PSP/PlantConditioner.cpp ****         float pct = (float)i / _scaleLength;
 8782              		.loc 1 149 26 view .LVU1949
 8783 0002 90F8C930 		ldrb	r3, [r0, #201]	@ zero_extendqisi2
 149:PSP/PlantConditioner.cpp ****         float pct = (float)i / _scaleLength;
 8784              		.loc 1 149 14 view .LVU1950
 8785 0006 0025     		movs	r5, #0
 8786              	.LBE2692:
 8787              	.LBE2691:
 155:PSP/PlantConditioner.cpp ****     _histeresis = histeresis; updateThresholds(); 
 8788              		.loc 1 155 56 view .LVU1951
 8789 0008 0446     		mov	r4, r0
 8790 000a 00F1E006 		add	r6, r0, #224
 8791              		.loc 1 156 17 view .LVU1952
 8792 000e 80ED300A 		vstr.32	s0, [r0, #192]
 8793              		.loc 1 156 31 is_stmt 1 view .LVU1953
 8794              	.LVL467:
 8795              	.LBB2697:
 8796              	.LBI2691:
 148:PSP/PlantConditioner.cpp ****     for (int i = 0; i <= _scaleLength; i++) {
 8797              		.loc 1 148 6 view .LVU1954
 8798              	.LBB2695:
 149:PSP/PlantConditioner.cpp ****         float pct = (float)i / _scaleLength;
 8799              		.loc 1 149 23 view .LVU1955
 8800              	.LBE2695:
 8801              	.LBE2697:
 155:PSP/PlantConditioner.cpp ****     _histeresis = histeresis; updateThresholds(); 
 8802              		.loc 1 155 56 is_stmt 0 view .LVU1956
 8803 0012 2DED028B 		vpush.64	{d8}
 8804              		.cfi_def_cfa_offset 24
 8805              		.cfi_offset 80, -24
 8806              		.cfi_offset 81, -20
 8807              	.LVL468:
 8808              	.L83:
 8809              	.LBB2698:
 8810              	.LBB2696:
 8811              	.LBB2693:
 150:PSP/PlantConditioner.cpp ****         _noteThresholds[i] = _deltaMin + _range * powf(pct, _curveType);
 8812              		.loc 1 150 9 is_stmt 1 view .LVU1957
 151:PSP/PlantConditioner.cpp ****     }
 8813              		.loc 1 151 9 view .LVU1958
 150:PSP/PlantConditioner.cpp ****         _noteThresholds[i] = _deltaMin + _range * powf(pct, _curveType);
 8814              		.loc 1 150 30 is_stmt 0 view .LVU1959
 8815 0016 07EE903A 		vmov	s15, r3	@ int
 150:PSP/PlantConditioner.cpp ****         _noteThresholds[i] = _deltaMin + _range * powf(pct, _curveType);
ARM GAS  C:\Users\matte\AppData\Local\Temp\ccgZTizB.s 			page 194


 8816              		.loc 1 150 21 view .LVU1960
 8817 001a 07EE105A 		vmov	s14, r5	@ int
 151:PSP/PlantConditioner.cpp ****     }
 8818              		.loc 1 151 30 view .LVU1961
 8819 001e 94ED338A 		vldr.32	s16, [r4, #204]
 8820              	.LBE2693:
 149:PSP/PlantConditioner.cpp ****         float pct = (float)i / _scaleLength;
 8821              		.loc 1 149 5 view .LVU1962
 8822 0022 0135     		adds	r5, r5, #1
 8823              	.LVL469:
 8824              	.LBB2694:
 150:PSP/PlantConditioner.cpp ****         _noteThresholds[i] = _deltaMin + _range * powf(pct, _curveType);
 8825              		.loc 1 150 30 view .LVU1963
 8826 0024 F8EEE77A 		vcvt.f32.s32	s15, s15
 151:PSP/PlantConditioner.cpp ****     }
 8827              		.loc 1 151 42 view .LVU1964
 8828 0028 D4ED358A 		vldr.32	s17, [r4, #212]
 150:PSP/PlantConditioner.cpp ****         _noteThresholds[i] = _deltaMin + _range * powf(pct, _curveType);
 8829              		.loc 1 150 21 view .LVU1965
 8830 002c B8EEC70A 		vcvt.f32.s32	s0, s14
 151:PSP/PlantConditioner.cpp ****     }
 8831              		.loc 1 151 55 view .LVU1966
 8832 0030 D4ED310A 		vldr.32	s1, [r4, #196]
 8833 0034 80EE270A 		vdiv.f32	s0, s0, s15
 8834              	.LVL470:
 151:PSP/PlantConditioner.cpp ****     }
 8835              		.loc 1 151 55 view .LVU1967
 8836 0038 FFF7FEFF 		bl	powf
 8837              	.LVL471:
 151:PSP/PlantConditioner.cpp ****     }
 8838              		.loc 1 151 40 view .LVU1968
 8839 003c A8EE808A 		vfma.f32	s16, s17, s0
 151:PSP/PlantConditioner.cpp ****     }
 8840              		.loc 1 151 28 view .LVU1969
 8841 0040 A6EC018A 		vstmia.32	r6!, {s16}
 8842              	.LBE2694:
 149:PSP/PlantConditioner.cpp ****         float pct = (float)i / _scaleLength;
 8843              		.loc 1 149 5 is_stmt 1 view .LVU1970
 8844              	.LVL472:
 149:PSP/PlantConditioner.cpp ****         float pct = (float)i / _scaleLength;
 8845              		.loc 1 149 23 view .LVU1971
 149:PSP/PlantConditioner.cpp ****         float pct = (float)i / _scaleLength;
 8846              		.loc 1 149 26 is_stmt 0 view .LVU1972
 8847 0044 94F8C930 		ldrb	r3, [r4, #201]	@ zero_extendqisi2
 149:PSP/PlantConditioner.cpp ****         float pct = (float)i / _scaleLength;
 8848              		.loc 1 149 23 view .LVU1973
 8849 0048 AB42     		cmp	r3, r5
 8850 004a E4DA     		bge	.L83
 8851              	.LBE2696:
 8852              	.LBE2698:
 157:PSP/PlantConditioner.cpp **** }
 8853              		.loc 1 157 1 view .LVU1974
 8854 004c BDEC028B 		vldm	sp!, {d8}
 8855              		.cfi_restore 80
 8856              		.cfi_restore 81
 8857              		.cfi_def_cfa_offset 16
 8858 0050 70BD     		pop	{r4, r5, r6, pc}
ARM GAS  C:\Users\matte\AppData\Local\Temp\ccgZTizB.s 			page 195


 8859              		.loc 1 157 1 view .LVU1975
 8860              		.cfi_endproc
 8861              	.LFE4997:
 8863 0052 00BF     		.section	.rodata
 8864              		.align	2
 8865              		.set	.LANCHOR0,. + 0
 8866              	.LC0:
 8867 0000 CDCC8241 		.word	1099091149
 8868 0004 CDCC9241 		.word	1100139725
 8869 0008 CDCCA441 		.word	1101319373
 8870 000c D7A3AE41 		.word	1101964247
 8871 0010 0000C441 		.word	1103364096
 8872 0014 0000DC41 		.word	1104936960
 8873 0018 C3F5F641 		.word	1106703811
 8874              	.LC1:
 8875 001c CDCC8241 		.word	1099091149
 8876 0020 CDCC9241 		.word	1100139725
 8877 0024 9A999B41 		.word	1100716442
 8878 0028 D7A3AE41 		.word	1101964247
 8879 002c 0000C441 		.word	1103364096
 8880 0030 14AECF41 		.word	1104129556
 8881 0034 B81EE941 		.word	1105796792
 8882              	.LC2:
 8883 0038 CDCC8241 		.word	1099091149
 8884 003c CDCC9241 		.word	1100139725
 8885 0040 9A999B41 		.word	1100716442
 8886 0044 D7A3AE41 		.word	1101964247
 8887 0048 0000C441 		.word	1103364096
 8888 004c 14AECF41 		.word	1104129556
 8889 0050 C3F5F641 		.word	1106703811
 8890              	.LC3:
 8891 0054 CDCC8241 		.word	1099091149
 8892 0058 CDCC9241 		.word	1100139725
 8893 005c 9A999B41 		.word	1100716442
 8894 0060 D7A3AE41 		.word	1101964247
 8895 0064 C3F5B841 		.word	1102640579
 8896 0068 0000DC41 		.word	1104936960
 8897 006c C3F5F641 		.word	1106703811
 8898              	.LC4:
 8899 0070 CDCC8241 		.word	1099091149
 8900 0074 CDCC9241 		.word	1100139725
 8901 0078 D7A3AE41 		.word	1101964247
 8902 007c 0000C441 		.word	1103364096
 8903 0080 0000DC41 		.word	1104936960
 8904              	.LC5:
 8905 0084 CDCC8241 		.word	1099091149
 8906 0088 5C8F8A41 		.word	1099599708
 8907 008c CDCC9241 		.word	1100139725
 8908 0090 9A999B41 		.word	1100716442
 8909 0094 CDCCA441 		.word	1101319373
 8910 0098 D7A3AE41 		.word	1101964247
 8911 009c C3F5B841 		.word	1102640579
 8912 00a0 0000C441 		.word	1103364096
 8913 00a4 14AECF41 		.word	1104129556
 8914 00a8 0000DC41 		.word	1104936960
 8915 00ac B81EE941 		.word	1105796792
 8916 00b0 C3F5F641 		.word	1106703811
ARM GAS  C:\Users\matte\AppData\Local\Temp\ccgZTizB.s 			page 196


 8917              	.LC6:
 8918 00b4 CDCC8241 		.word	1099091149
 8919 00b8 CDCC9241 		.word	1100139725
 8920 00bc CDCCA441 		.word	1101319373
 8921 00c0 D7A3AE41 		.word	1101964247
 8922 00c4 0000C441 		.word	1103364096
 8923 00c8 0000DC41 		.word	1104936960
 8924              		.text
 8925              	.Letext0:
 8926              		.file 6 "c:\\program files\\daisytoolchain\\arm-none-eabi\\include\\machine\\_default_types.h"
 8927              		.file 7 "c:\\program files\\daisytoolchain\\arm-none-eabi\\include\\sys\\_stdint.h"
 8928              		.file 8 "c:\\program files\\daisytoolchain\\arm-none-eabi\\include\\stdint.h"
 8929              		.file 9 "c:\\program files\\daisytoolchain\\lib\\gcc\\arm-none-eabi\\10.2.1\\include\\stddef.h"
 8930              		.file 10 "c:\\program files\\daisytoolchain\\arm-none-eabi\\include\\c++\\10.2.1\\cmath"
 8931              		.file 11 "c:\\program files\\daisytoolchain\\arm-none-eabi\\include\\c++\\10.2.1\\bits\\std_abs.h"
 8932              		.file 12 "c:\\program files\\daisytoolchain\\arm-none-eabi\\include\\c++\\10.2.1\\cstdint"
 8933              		.file 13 "c:\\program files\\daisytoolchain\\arm-none-eabi\\include\\c++\\10.2.1\\cstdlib"
 8934              		.file 14 "c:\\program files\\daisytoolchain\\arm-none-eabi\\include\\c++\\10.2.1\\type_traits"
 8935              		.file 15 "c:\\program files\\daisytoolchain\\arm-none-eabi\\include\\c++\\10.2.1\\debug\\debug.h"
 8936              		.file 16 "c:\\program files\\daisytoolchain\\arm-none-eabi\\include\\c++\\10.2.1\\cwchar"
 8937              		.file 17 "c:\\program files\\daisytoolchain\\arm-none-eabi\\include\\c++\\10.2.1\\bits\\stl_pair.h
 8938              		.file 18 "c:\\program files\\daisytoolchain\\arm-none-eabi\\include\\c++\\10.2.1\\bits\\exception_
 8939              		.file 19 "c:\\program files\\daisytoolchain\\arm-none-eabi\\include\\c++\\10.2.1\\arm-none-eabi\\t
 8940              		.file 20 "c:\\program files\\daisytoolchain\\arm-none-eabi\\include\\c++\\10.2.1\\clocale"
 8941              		.file 21 "c:\\program files\\daisytoolchain\\arm-none-eabi\\include\\c++\\10.2.1\\cstdio"
 8942              		.file 22 "c:\\program files\\daisytoolchain\\arm-none-eabi\\include\\c++\\10.2.1\\bits\\basic_stri
 8943              		.file 23 "c:\\program files\\daisytoolchain\\arm-none-eabi\\include\\c++\\10.2.1\\bits\\charconv.h
 8944              		.file 24 "c:\\program files\\daisytoolchain\\arm-none-eabi\\include\\c++\\10.2.1\\bits\\algorithmf
 8945              		.file 25 "c:\\program files\\daisytoolchain\\arm-none-eabi\\include\\c++\\10.2.1\\cstring"
 8946              		.file 26 "c:\\program files\\daisytoolchain\\arm-none-eabi\\include\\c++\\10.2.1\\cstdarg"
 8947              		.file 27 "c:\\program files\\daisytoolchain\\arm-none-eabi\\include\\c++\\10.2.1\\bits\\predefined
 8948              		.file 28 "c:\\program files\\daisytoolchain\\arm-none-eabi\\include\\sys\\_types.h"
 8949              		.file 29 "c:\\program files\\daisytoolchain\\arm-none-eabi\\include\\sys\\reent.h"
 8950              		.file 30 "c:\\program files\\daisytoolchain\\arm-none-eabi\\include\\sys\\lock.h"
 8951              		.file 31 "c:\\program files\\daisytoolchain\\arm-none-eabi\\include\\math.h"
 8952              		.file 32 "c:\\program files\\daisytoolchain\\arm-none-eabi\\include\\stdlib.h"
 8953              		.file 33 "c:\\program files\\daisytoolchain\\arm-none-eabi\\include\\c++\\10.2.1\\math.h"
 8954              		.file 34 "../libs/DaisySP/Source/Control/adenv.h"
 8955              		.file 35 "c:\\program files\\daisytoolchain\\lib\\gcc\\arm-none-eabi\\10.2.1\\include\\stdarg.h"
 8956              		.file 36 "c:\\program files\\daisytoolchain\\arm-none-eabi\\include\\wchar.h"
 8957              		.file 37 "c:\\program files\\daisytoolchain\\arm-none-eabi\\include\\locale.h"
 8958              		.file 38 "c:\\program files\\daisytoolchain\\arm-none-eabi\\include\\stdio.h"
 8959              		.file 39 "c:\\program files\\daisytoolchain\\arm-none-eabi\\include\\c++\\10.2.1\\stdlib.h"
 8960              		.file 40 "c:\\program files\\daisytoolchain\\arm-none-eabi\\include\\string.h"
 8961              		.file 41 "../libs/libDaisy/src/per/tim.h"
 8962              		.file 42 "../libs/libDaisy/src/sys/system.h"
 8963              		.file 43 "../libs/libDaisy/src/per/qspi.h"
 8964              		.file 44 "../libs/libDaisy/src/per/dac.h"
 8965              		.file 45 "../libs/libDaisy/src/per/gpio.h"
 8966              		.file 46 "../libs/libDaisy/src/per/sai.h"
 8967              		.file 47 "../libs/libDaisy/src/hid/audio.h"
 8968              		.file 48 "../libs/libDaisy/src/per/adc.h"
 8969              		.file 49 "../libs/libDaisy/src/hid/usb.h"
 8970              		.file 50 "../libs/libDaisy/src/util/wav_format.h"
 8971              		.file 51 "../libs/libDaisy/src/dev/sr_595.h"
 8972              		.file 52 "../libs/libDaisy/src/dev/codec_ak4556.h"
 8973              		.file 53 "../libs/libDaisy/src/dev/max11300.h"
ARM GAS  C:\Users\matte\AppData\Local\Temp\ccgZTizB.s 			page 197


 8974              		.file 54 "../libs/libDaisy/src/daisy_seed.h"
 8975              		.file 55 "../libs/libDaisy/src/dev/sdram.h"
 8976              		.file 56 "PSP/../../libs/PoliTeKDSP/Utilities/DataFilter/IIR/iir.h"
 8977              		.file 57 "PSP/../../libs/PoliTeKDSP/Utilities/DataFilter/MF/MF.h"
 8978              		.file 58 "PSP/PlantConditioner.h"
 8979              		.file 59 "<built-in>"
ARM GAS  C:\Users\matte\AppData\Local\Temp\ccgZTizB.s 			page 198


DEFINED SYMBOLS
                            *ABS*:00000000 PlantConditioner.cpp
C:\Users\matte\AppData\Local\Temp\ccgZTizB.s:17     .text._ZN16PlantConditionerC2Ev:00000000 $t
C:\Users\matte\AppData\Local\Temp\ccgZTizB.s:26     .text._ZN16PlantConditionerC2Ev:00000000 _ZN16PlantConditionerC2Ev
C:\Users\matte\AppData\Local\Temp\ccgZTizB.s:413    .text._ZN16PlantConditionerC2Ev:00000150 $d
C:\Users\matte\AppData\Local\Temp\ccgZTizB.s:26     .text._ZN16PlantConditionerC2Ev:00000000 _ZN16PlantConditionerC1Ev
C:\Users\matte\AppData\Local\Temp\ccgZTizB.s:422    .text._ZN16PlantConditionerD2Ev:00000000 $t
C:\Users\matte\AppData\Local\Temp\ccgZTizB.s:430    .text._ZN16PlantConditionerD2Ev:00000000 _ZN16PlantConditionerD2Ev
C:\Users\matte\AppData\Local\Temp\ccgZTizB.s:430    .text._ZN16PlantConditionerD2Ev:00000000 _ZN16PlantConditionerD1Ev
C:\Users\matte\AppData\Local\Temp\ccgZTizB.s:474    .text._ZN16PlantConditioner4InitEN3IIR10FilterTypeEPN5daisy9DaisySeedE:00000000 $t
C:\Users\matte\AppData\Local\Temp\ccgZTizB.s:482    .text._ZN16PlantConditioner4InitEN3IIR10FilterTypeEPN5daisy9DaisySeedE:00000000 _ZN16PlantConditioner4InitEN3IIR10FilterTypeEPN5daisy9DaisySeedE
C:\Users\matte\AppData\Local\Temp\ccgZTizB.s:7059   .text._ZN16PlantConditioner4InitEN3IIR10FilterTypeEPN5daisy9DaisySeedE:00000ec8 $d
C:\Users\matte\AppData\Local\Temp\ccgZTizB.s:7064   .text._ZN16PlantConditioner8setScaleENS_5NotesENS_9ScaleTypeE:00000000 $t
C:\Users\matte\AppData\Local\Temp\ccgZTizB.s:7072   .text._ZN16PlantConditioner8setScaleENS_5NotesENS_9ScaleTypeE:00000000 _ZN16PlantConditioner8setScaleENS_5NotesENS_9ScaleTypeE
C:\Users\matte\AppData\Local\Temp\ccgZTizB.s:7097   .text._ZN16PlantConditioner8setScaleENS_5NotesENS_9ScaleTypeE:00000014 $d
C:\Users\matte\AppData\Local\Temp\ccgZTizB.s:7104   .text._ZN16PlantConditioner8setScaleENS_5NotesENS_9ScaleTypeE:00000022 $t
C:\Users\matte\AppData\Local\Temp\ccgZTizB.s:7494   .text._ZN16PlantConditioner9setOctaveEh:00000000 $t
C:\Users\matte\AppData\Local\Temp\ccgZTizB.s:7502   .text._ZN16PlantConditioner9setOctaveEh:00000000 _ZN16PlantConditioner9setOctaveEh
C:\Users\matte\AppData\Local\Temp\ccgZTizB.s:7519   .text._ZN16PlantConditioner7ProcessEv:00000000 $t
C:\Users\matte\AppData\Local\Temp\ccgZTizB.s:7527   .text._ZN16PlantConditioner7ProcessEv:00000000 _ZN16PlantConditioner7ProcessEv
C:\Users\matte\AppData\Local\Temp\ccgZTizB.s:8405   .text._ZN16PlantConditioner7ProcessEv:00000254 $d
C:\Users\matte\AppData\Local\Temp\ccgZTizB.s:8415   .text._ZN16PlantConditioner8setCurveEf:00000000 $t
C:\Users\matte\AppData\Local\Temp\ccgZTizB.s:8423   .text._ZN16PlantConditioner8setCurveEf:00000000 _ZN16PlantConditioner8setCurveEf
C:\Users\matte\AppData\Local\Temp\ccgZTizB.s:8534   .text._ZN16PlantConditioner8setDeltaEf:00000000 $t
C:\Users\matte\AppData\Local\Temp\ccgZTizB.s:8542   .text._ZN16PlantConditioner8setDeltaEf:00000000 _ZN16PlantConditioner8setDeltaEf
C:\Users\matte\AppData\Local\Temp\ccgZTizB.s:8663   .text._ZN16PlantConditioner16updateThresholdsEv:00000000 $t
C:\Users\matte\AppData\Local\Temp\ccgZTizB.s:8671   .text._ZN16PlantConditioner16updateThresholdsEv:00000000 _ZN16PlantConditioner16updateThresholdsEv
C:\Users\matte\AppData\Local\Temp\ccgZTizB.s:8757   .text._ZN16PlantConditioner13setHisteresisEf:00000000 $t
C:\Users\matte\AppData\Local\Temp\ccgZTizB.s:8765   .text._ZN16PlantConditioner13setHisteresisEf:00000000 _ZN16PlantConditioner13setHisteresisEf
C:\Users\matte\AppData\Local\Temp\ccgZTizB.s:8864   .rodata:00000000 $d

UNDEFINED SYMBOLS
_ZN3IIRC1Ev
_ZN2MFC1Ev
_ZN2MFD1Ev
_ZN3IIRD1Ev
_ZN5daisy9I2CHandle4InitERKNS0_6ConfigE
_ZN5daisy9I2CHandle16TransmitBlockingEtPhtm
_ZN5daisy9I2CHandle15ReceiveBlockingEtPhtm
_ZN5daisy6System5DelayEm
_ZN5daisy9DaisySeed6SetLedEb
_ZN5daisy9DaisySeed7DelayMsEj
_ZN3IIR4InitENS_10FilterTypeE
_ZN2MF4InitEv
powf
_ZN2MF7ProcessEf
_ZN3IIR7ProcessEf
