ARM GAS  C:\Users\39351\AppData\Local\Temp\cccegpNG.s 			page 1


   1              		.cpu cortex-m7
   2              		.eabi_attribute 28, 1
   3              		.eabi_attribute 20, 1
   4              		.eabi_attribute 21, 1
   5              		.eabi_attribute 23, 3
   6              		.eabi_attribute 24, 1
   7              		.eabi_attribute 25, 1
   8              		.eabi_attribute 26, 1
   9              		.eabi_attribute 30, 2
  10              		.eabi_attribute 34, 1
  11              		.eabi_attribute 18, 4
  12              		.file	"PlantConditioner.cpp"
  13              		.text
  14              	.Ltext0:
  15              		.cfi_sections	.debug_frame
  16              		.section	.text._ZN16PlantConditionerC2Ev,"ax",%progbits
  17              		.align	1
  18              		.p2align 2,,3
  19              		.global	_ZN16PlantConditionerC2Ev
  20              		.arch armv7e-m
  21              		.syntax unified
  22              		.thumb
  23              		.thumb_func
  24              		.fpu fpv5-d16
  26              	_ZN16PlantConditionerC2Ev:
  27              	.LVL0:
  28              	.LFB4907:
  29              		.file 1 "PSP/PlantConditioner.cpp"
   1:PSP/PlantConditioner.cpp **** #include "PlantConditioner.h"
   2:PSP/PlantConditioner.cpp **** 
   3:PSP/PlantConditioner.cpp **** 
   4:PSP/PlantConditioner.cpp **** using namespace daisysp;
   5:PSP/PlantConditioner.cpp **** 
   6:PSP/PlantConditioner.cpp **** PlantConditioner::PlantConditioner() {}
  30              		.loc 1 6 1 view -0
  31              		.cfi_startproc
  32              		@ args = 0, pretend = 0, frame = 24
  33              		@ frame_needed = 0, uses_anonymous_args = 0
  34              		.loc 1 6 1 is_stmt 0 view .LVU1
  35 0000 2DE9F04F 		push	{r4, r5, r6, r7, r8, r9, r10, fp, lr}
  36              		.cfi_def_cfa_offset 36
  37              		.cfi_offset 4, -36
  38              		.cfi_offset 5, -32
  39              		.cfi_offset 6, -28
  40              		.cfi_offset 7, -24
  41              		.cfi_offset 8, -20
  42              		.cfi_offset 9, -16
  43              		.cfi_offset 10, -12
  44              		.cfi_offset 11, -8
  45              		.cfi_offset 14, -4
  46              	.LBB192:
  47              	.LBB193:
  48              	.LBB194:
  49              	.LBB195:
  50              	.LBB196:
  51              	.LBB197:
  52              		.file 2 "../libs/PoliTeKDSP/libs/libDaisy/src/dev/mpr121.h"
ARM GAS  C:\Users\39351\AppData\Local\Temp\cccegpNG.s 			page 2


   1:../libs/PoliTeKDSP/libs/libDaisy/src/dev/mpr121.h **** #pragma once
   2:../libs/PoliTeKDSP/libs/libDaisy/src/dev/mpr121.h **** #ifndef DSY_MPR121_H
   3:../libs/PoliTeKDSP/libs/libDaisy/src/dev/mpr121.h **** #define DSY_MPR121_H
   4:../libs/PoliTeKDSP/libs/libDaisy/src/dev/mpr121.h **** 
   5:../libs/PoliTeKDSP/libs/libDaisy/src/dev/mpr121.h **** // The default I2C address
   6:../libs/PoliTeKDSP/libs/libDaisy/src/dev/mpr121.h **** #define MPR121_I2CADDR_DEFAULT 0x5A        ///< default I2C address
   7:../libs/PoliTeKDSP/libs/libDaisy/src/dev/mpr121.h **** #define MPR121_TOUCH_THRESHOLD_DEFAULT 12  ///< default touch threshold value
   8:../libs/PoliTeKDSP/libs/libDaisy/src/dev/mpr121.h **** #define MPR121_RELEASE_THRESHOLD_DEFAULT 6 ///< default relese threshold value
   9:../libs/PoliTeKDSP/libs/libDaisy/src/dev/mpr121.h **** 
  10:../libs/PoliTeKDSP/libs/libDaisy/src/dev/mpr121.h **** namespace daisy
  11:../libs/PoliTeKDSP/libs/libDaisy/src/dev/mpr121.h **** {
  12:../libs/PoliTeKDSP/libs/libDaisy/src/dev/mpr121.h **** /** @addtogroup external 
  13:../libs/PoliTeKDSP/libs/libDaisy/src/dev/mpr121.h ****     @{ 
  14:../libs/PoliTeKDSP/libs/libDaisy/src/dev/mpr121.h **** */
  15:../libs/PoliTeKDSP/libs/libDaisy/src/dev/mpr121.h **** 
  16:../libs/PoliTeKDSP/libs/libDaisy/src/dev/mpr121.h **** /** I2C Transport for MPR121 */
  17:../libs/PoliTeKDSP/libs/libDaisy/src/dev/mpr121.h **** class Mpr121I2CTransport
  18:../libs/PoliTeKDSP/libs/libDaisy/src/dev/mpr121.h **** {
  19:../libs/PoliTeKDSP/libs/libDaisy/src/dev/mpr121.h ****   public:
  20:../libs/PoliTeKDSP/libs/libDaisy/src/dev/mpr121.h ****     Mpr121I2CTransport() {}
  21:../libs/PoliTeKDSP/libs/libDaisy/src/dev/mpr121.h ****     ~Mpr121I2CTransport() {}
  22:../libs/PoliTeKDSP/libs/libDaisy/src/dev/mpr121.h **** 
  23:../libs/PoliTeKDSP/libs/libDaisy/src/dev/mpr121.h ****     struct Config
  24:../libs/PoliTeKDSP/libs/libDaisy/src/dev/mpr121.h ****     {
  25:../libs/PoliTeKDSP/libs/libDaisy/src/dev/mpr121.h ****         I2CHandle::Config::Peripheral periph;
  26:../libs/PoliTeKDSP/libs/libDaisy/src/dev/mpr121.h ****         I2CHandle::Config::Speed      speed;
  27:../libs/PoliTeKDSP/libs/libDaisy/src/dev/mpr121.h ****         Pin                           scl;
  28:../libs/PoliTeKDSP/libs/libDaisy/src/dev/mpr121.h ****         Pin                           sda;
  29:../libs/PoliTeKDSP/libs/libDaisy/src/dev/mpr121.h **** 
  30:../libs/PoliTeKDSP/libs/libDaisy/src/dev/mpr121.h ****         I2CHandle::Config::Mode mode;
  31:../libs/PoliTeKDSP/libs/libDaisy/src/dev/mpr121.h **** 
  32:../libs/PoliTeKDSP/libs/libDaisy/src/dev/mpr121.h ****         uint8_t dev_addr;
  33:../libs/PoliTeKDSP/libs/libDaisy/src/dev/mpr121.h **** 
  34:../libs/PoliTeKDSP/libs/libDaisy/src/dev/mpr121.h ****         Config()
  35:../libs/PoliTeKDSP/libs/libDaisy/src/dev/mpr121.h ****         {
  36:../libs/PoliTeKDSP/libs/libDaisy/src/dev/mpr121.h ****             periph = I2CHandle::Config::Peripheral::I2C_1;
  53              		.loc 2 36 20 view .LVU2
  54 0004 0023     		movs	r3, #0
  37:../libs/PoliTeKDSP/libs/libDaisy/src/dev/mpr121.h ****             speed  = I2CHandle::Config::Speed::I2C_400KHZ;
  55              		.loc 2 37 20 view .LVU3
  56 0006 0124     		movs	r4, #1
  57              	.LBE197:
  58              	.LBE196:
  59              	.LBE195:
  60              	.LBE194:
  61              	.LBE193:
  62              	.LBE192:
  63              		.loc 1 6 1 view .LVU4
  64 0008 0546     		mov	r5, r0
  65              	.LVL1:
  66              	.LBB267:
  67              	.LBB239:
  68              	.LBI193:
  38:../libs/PoliTeKDSP/libs/libDaisy/src/dev/mpr121.h **** 
  39:../libs/PoliTeKDSP/libs/libDaisy/src/dev/mpr121.h ****             scl = Pin(PORTB, 8);
  40:../libs/PoliTeKDSP/libs/libDaisy/src/dev/mpr121.h ****             sda = Pin(PORTB, 9);
  41:../libs/PoliTeKDSP/libs/libDaisy/src/dev/mpr121.h **** 
ARM GAS  C:\Users\39351\AppData\Local\Temp\cccegpNG.s 			page 3


  42:../libs/PoliTeKDSP/libs/libDaisy/src/dev/mpr121.h ****             dev_addr = MPR121_I2CADDR_DEFAULT;
  43:../libs/PoliTeKDSP/libs/libDaisy/src/dev/mpr121.h ****         }
  44:../libs/PoliTeKDSP/libs/libDaisy/src/dev/mpr121.h ****     };
  45:../libs/PoliTeKDSP/libs/libDaisy/src/dev/mpr121.h **** 
  46:../libs/PoliTeKDSP/libs/libDaisy/src/dev/mpr121.h ****     /** \return Did the transaction error? i.e. Return true if error, false if ok */
  47:../libs/PoliTeKDSP/libs/libDaisy/src/dev/mpr121.h ****     inline bool Init(Config config)
  48:../libs/PoliTeKDSP/libs/libDaisy/src/dev/mpr121.h ****     {
  49:../libs/PoliTeKDSP/libs/libDaisy/src/dev/mpr121.h ****         config_ = config;
  50:../libs/PoliTeKDSP/libs/libDaisy/src/dev/mpr121.h **** 
  51:../libs/PoliTeKDSP/libs/libDaisy/src/dev/mpr121.h ****         I2CHandle::Config i2c_conf;
  52:../libs/PoliTeKDSP/libs/libDaisy/src/dev/mpr121.h ****         i2c_conf.mode   = I2CHandle::Config::Mode::I2C_MASTER;
  53:../libs/PoliTeKDSP/libs/libDaisy/src/dev/mpr121.h ****         i2c_conf.periph = config.periph;
  54:../libs/PoliTeKDSP/libs/libDaisy/src/dev/mpr121.h ****         i2c_conf.speed  = config.speed;
  55:../libs/PoliTeKDSP/libs/libDaisy/src/dev/mpr121.h **** 
  56:../libs/PoliTeKDSP/libs/libDaisy/src/dev/mpr121.h ****         i2c_conf.pin_config.scl = config.scl;
  57:../libs/PoliTeKDSP/libs/libDaisy/src/dev/mpr121.h ****         i2c_conf.pin_config.sda = config.sda;
  58:../libs/PoliTeKDSP/libs/libDaisy/src/dev/mpr121.h **** 
  59:../libs/PoliTeKDSP/libs/libDaisy/src/dev/mpr121.h ****         return I2CHandle::Result::OK != i2c_.Init(i2c_conf);
  60:../libs/PoliTeKDSP/libs/libDaisy/src/dev/mpr121.h ****     }
  61:../libs/PoliTeKDSP/libs/libDaisy/src/dev/mpr121.h **** 
  62:../libs/PoliTeKDSP/libs/libDaisy/src/dev/mpr121.h ****     /** \return Did the transaction error? i.e. Return true if error, false if ok */
  63:../libs/PoliTeKDSP/libs/libDaisy/src/dev/mpr121.h ****     bool ReadDataAtAddress(uint8_t address, uint8_t *data, uint16_t size)
  64:../libs/PoliTeKDSP/libs/libDaisy/src/dev/mpr121.h ****     {
  65:../libs/PoliTeKDSP/libs/libDaisy/src/dev/mpr121.h ****         return I2CHandle::Result::OK
  66:../libs/PoliTeKDSP/libs/libDaisy/src/dev/mpr121.h ****                != i2c_.ReadDataAtAddress(
  67:../libs/PoliTeKDSP/libs/libDaisy/src/dev/mpr121.h ****                    config_.dev_addr, address, 1, data, size, 10);
  68:../libs/PoliTeKDSP/libs/libDaisy/src/dev/mpr121.h ****     }
  69:../libs/PoliTeKDSP/libs/libDaisy/src/dev/mpr121.h **** 
  70:../libs/PoliTeKDSP/libs/libDaisy/src/dev/mpr121.h ****     /** \return Did the transaction error? i.e. Return true if error, false if ok */
  71:../libs/PoliTeKDSP/libs/libDaisy/src/dev/mpr121.h ****     bool WriteDataAtAddress(uint8_t address, uint8_t *data, uint16_t size)
  72:../libs/PoliTeKDSP/libs/libDaisy/src/dev/mpr121.h ****     {
  73:../libs/PoliTeKDSP/libs/libDaisy/src/dev/mpr121.h ****         return I2CHandle::Result::OK
  74:../libs/PoliTeKDSP/libs/libDaisy/src/dev/mpr121.h ****                != i2c_.WriteDataAtAddress(
  75:../libs/PoliTeKDSP/libs/libDaisy/src/dev/mpr121.h ****                    config_.dev_addr, address, 1, data, size, 10);
  76:../libs/PoliTeKDSP/libs/libDaisy/src/dev/mpr121.h ****     }
  77:../libs/PoliTeKDSP/libs/libDaisy/src/dev/mpr121.h **** 
  78:../libs/PoliTeKDSP/libs/libDaisy/src/dev/mpr121.h ****   private:
  79:../libs/PoliTeKDSP/libs/libDaisy/src/dev/mpr121.h ****     I2CHandle i2c_;
  80:../libs/PoliTeKDSP/libs/libDaisy/src/dev/mpr121.h ****     Config    config_;
  81:../libs/PoliTeKDSP/libs/libDaisy/src/dev/mpr121.h **** };
  82:../libs/PoliTeKDSP/libs/libDaisy/src/dev/mpr121.h **** 
  83:../libs/PoliTeKDSP/libs/libDaisy/src/dev/mpr121.h **** 
  84:../libs/PoliTeKDSP/libs/libDaisy/src/dev/mpr121.h **** /** @brief Device support for MPR121 12x Capacitive Touch Sensor
  85:../libs/PoliTeKDSP/libs/libDaisy/src/dev/mpr121.h ****     @author beserge
  86:../libs/PoliTeKDSP/libs/libDaisy/src/dev/mpr121.h ****     @date December 2021
  87:../libs/PoliTeKDSP/libs/libDaisy/src/dev/mpr121.h **** */
  88:../libs/PoliTeKDSP/libs/libDaisy/src/dev/mpr121.h **** template <typename Transport>
  89:../libs/PoliTeKDSP/libs/libDaisy/src/dev/mpr121.h **** class Mpr121
  90:../libs/PoliTeKDSP/libs/libDaisy/src/dev/mpr121.h **** {
  91:../libs/PoliTeKDSP/libs/libDaisy/src/dev/mpr121.h ****   public:
  92:../libs/PoliTeKDSP/libs/libDaisy/src/dev/mpr121.h ****     Mpr121() {}
  69              		.loc 2 92 5 is_stmt 1 view .LVU5
  70              	.LBB216:
  71              	.LBI194:
  93:../libs/PoliTeKDSP/libs/libDaisy/src/dev/mpr121.h ****     ~Mpr121() {}
  94:../libs/PoliTeKDSP/libs/libDaisy/src/dev/mpr121.h **** 
  95:../libs/PoliTeKDSP/libs/libDaisy/src/dev/mpr121.h ****     struct Config
ARM GAS  C:\Users\39351\AppData\Local\Temp\cccegpNG.s 			page 4


  96:../libs/PoliTeKDSP/libs/libDaisy/src/dev/mpr121.h ****     {
  97:../libs/PoliTeKDSP/libs/libDaisy/src/dev/mpr121.h ****         typename Transport::Config transport_config;
  98:../libs/PoliTeKDSP/libs/libDaisy/src/dev/mpr121.h ****         uint8_t                    touch_threshold;
  99:../libs/PoliTeKDSP/libs/libDaisy/src/dev/mpr121.h ****         uint8_t                    release_threshold;
 100:../libs/PoliTeKDSP/libs/libDaisy/src/dev/mpr121.h **** 
 101:../libs/PoliTeKDSP/libs/libDaisy/src/dev/mpr121.h ****         Config()
  72              		.loc 2 101 9 view .LVU6
  73              	.LBB210:
  74              	.LBB206:
  75              	.LBI196:
  34:../libs/PoliTeKDSP/libs/libDaisy/src/dev/mpr121.h ****         {
  76              		.loc 2 34 9 view .LVU7
  77              	.LBB202:
  78              	.LBB198:
  79              	.LBI198:
  80              		.file 3 "../libs/PoliTeKDSP/libs/libDaisy/src/daisy_core.h"
   1:../libs/PoliTeKDSP/libs/libDaisy/src/daisy_core.h **** #pragma once
   2:../libs/PoliTeKDSP/libs/libDaisy/src/daisy_core.h **** #ifndef DSY_CORE_HW_H
   3:../libs/PoliTeKDSP/libs/libDaisy/src/daisy_core.h **** #define DSY_CORE_HW_H /**< & */
   4:../libs/PoliTeKDSP/libs/libDaisy/src/daisy_core.h **** #include <stdint.h>
   5:../libs/PoliTeKDSP/libs/libDaisy/src/daisy_core.h **** #include <stdlib.h>
   6:../libs/PoliTeKDSP/libs/libDaisy/src/daisy_core.h **** 
   7:../libs/PoliTeKDSP/libs/libDaisy/src/daisy_core.h **** #if defined(_MSC_VER)
   8:../libs/PoliTeKDSP/libs/libDaisy/src/daisy_core.h **** #define FORCE_INLINE __forceinline /**< & */
   9:../libs/PoliTeKDSP/libs/libDaisy/src/daisy_core.h **** #elif defined(__clang__)
  10:../libs/PoliTeKDSP/libs/libDaisy/src/daisy_core.h **** #define FORCE_INLINE inline __attribute__((always_inline)) /**< & */
  11:../libs/PoliTeKDSP/libs/libDaisy/src/daisy_core.h **** #pragma clang diagnostic ignored "-Wduplicate-decl-specifier"
  12:../libs/PoliTeKDSP/libs/libDaisy/src/daisy_core.h **** #elif defined(__GNUC__)
  13:../libs/PoliTeKDSP/libs/libDaisy/src/daisy_core.h **** #define FORCE_INLINE inline __attribute__((always_inline)) /**< & */
  14:../libs/PoliTeKDSP/libs/libDaisy/src/daisy_core.h **** #else
  15:../libs/PoliTeKDSP/libs/libDaisy/src/daisy_core.h **** #error unknown compiler
  16:../libs/PoliTeKDSP/libs/libDaisy/src/daisy_core.h **** #endif
  17:../libs/PoliTeKDSP/libs/libDaisy/src/daisy_core.h **** 
  18:../libs/PoliTeKDSP/libs/libDaisy/src/daisy_core.h **** /** @addtogroup utility
  19:../libs/PoliTeKDSP/libs/libDaisy/src/daisy_core.h ****     @{
  20:../libs/PoliTeKDSP/libs/libDaisy/src/daisy_core.h **** */
  21:../libs/PoliTeKDSP/libs/libDaisy/src/daisy_core.h **** 
  22:../libs/PoliTeKDSP/libs/libDaisy/src/daisy_core.h **** /** Macro for area of memory that is configured as cacheless
  23:../libs/PoliTeKDSP/libs/libDaisy/src/daisy_core.h **** This should be used primarily for DMA buffers, and the like.
  24:../libs/PoliTeKDSP/libs/libDaisy/src/daisy_core.h **** */
  25:../libs/PoliTeKDSP/libs/libDaisy/src/daisy_core.h **** #define DMA_BUFFER_MEM_SECTION __attribute__((section(".sram1_bss")))
  26:../libs/PoliTeKDSP/libs/libDaisy/src/daisy_core.h **** /** 
  27:../libs/PoliTeKDSP/libs/libDaisy/src/daisy_core.h **** THE DTCM RAM section is also non-cached. However, is not suitable 
  28:../libs/PoliTeKDSP/libs/libDaisy/src/daisy_core.h **** for DMA transfers. Performance is on par with internal SRAM w/ 
  29:../libs/PoliTeKDSP/libs/libDaisy/src/daisy_core.h **** cache enabled.
  30:../libs/PoliTeKDSP/libs/libDaisy/src/daisy_core.h **** */
  31:../libs/PoliTeKDSP/libs/libDaisy/src/daisy_core.h **** #define DTCM_MEM_SECTION __attribute__((section(".dtcmram_bss")))
  32:../libs/PoliTeKDSP/libs/libDaisy/src/daisy_core.h **** 
  33:../libs/PoliTeKDSP/libs/libDaisy/src/daisy_core.h **** #define FBIPMAX 0.999985f             /**< close to 1.0f-LSB at 16 bit */
  34:../libs/PoliTeKDSP/libs/libDaisy/src/daisy_core.h **** #define FBIPMIN (-FBIPMAX)            /**< - (1 - LSB) */
  35:../libs/PoliTeKDSP/libs/libDaisy/src/daisy_core.h **** #define U82F_SCALE 0.0078740f         /**< 1 / 127 */
  36:../libs/PoliTeKDSP/libs/libDaisy/src/daisy_core.h **** #define F2U8_SCALE 127.0f             /**< 128 - 1 */
  37:../libs/PoliTeKDSP/libs/libDaisy/src/daisy_core.h **** #define S82F_SCALE 0.0078125f         /**< 1 / (2**7) */
  38:../libs/PoliTeKDSP/libs/libDaisy/src/daisy_core.h **** #define F2S8_SCALE 127.0f             /**< (2 ** 7) - 1 */
  39:../libs/PoliTeKDSP/libs/libDaisy/src/daisy_core.h **** #define S162F_SCALE 3.0517578125e-05f /**< 1 / (2** 15) */
  40:../libs/PoliTeKDSP/libs/libDaisy/src/daisy_core.h **** #define F2S16_SCALE 32767.0f          /**< (2 ** 15) - 1 */
  41:../libs/PoliTeKDSP/libs/libDaisy/src/daisy_core.h **** #define F2S24_SCALE 8388608.0f        /**< 2 ** 23 */
ARM GAS  C:\Users\39351\AppData\Local\Temp\cccegpNG.s 			page 5


  42:../libs/PoliTeKDSP/libs/libDaisy/src/daisy_core.h **** #define S242F_SCALE 1.192092896e-07f  /**< 1 / (2 ** 23) */
  43:../libs/PoliTeKDSP/libs/libDaisy/src/daisy_core.h **** #define S24SIGN 0x800000              /**< 2 ** 23 */
  44:../libs/PoliTeKDSP/libs/libDaisy/src/daisy_core.h **** #define S322F_SCALE 4.6566129e-10f    /**< 1 / (2** 31) */
  45:../libs/PoliTeKDSP/libs/libDaisy/src/daisy_core.h **** #define F2S32_SCALE 2147483647.f      /**< (2 ** 31) - 1 */
  46:../libs/PoliTeKDSP/libs/libDaisy/src/daisy_core.h **** 
  47:../libs/PoliTeKDSP/libs/libDaisy/src/daisy_core.h **** 
  48:../libs/PoliTeKDSP/libs/libDaisy/src/daisy_core.h **** /** shorthand macro for simplifying the reading of the left 
  49:../libs/PoliTeKDSP/libs/libDaisy/src/daisy_core.h ****  *  channel of a non-interleaved output buffer named out */
  50:../libs/PoliTeKDSP/libs/libDaisy/src/daisy_core.h **** #define OUT_L out[0]
  51:../libs/PoliTeKDSP/libs/libDaisy/src/daisy_core.h **** 
  52:../libs/PoliTeKDSP/libs/libDaisy/src/daisy_core.h **** /** shorthand macro for simplifying the reading of the right 
  53:../libs/PoliTeKDSP/libs/libDaisy/src/daisy_core.h ****  *  channel of a non-interleaved output buffer named out */
  54:../libs/PoliTeKDSP/libs/libDaisy/src/daisy_core.h **** #define OUT_R out[1]
  55:../libs/PoliTeKDSP/libs/libDaisy/src/daisy_core.h **** 
  56:../libs/PoliTeKDSP/libs/libDaisy/src/daisy_core.h **** /** shorthand macro for simplifying the reading of the left 
  57:../libs/PoliTeKDSP/libs/libDaisy/src/daisy_core.h ****  *  channel of a non-interleaved input buffer named in */
  58:../libs/PoliTeKDSP/libs/libDaisy/src/daisy_core.h **** #define IN_L in[0]
  59:../libs/PoliTeKDSP/libs/libDaisy/src/daisy_core.h **** 
  60:../libs/PoliTeKDSP/libs/libDaisy/src/daisy_core.h **** /** shorthand macro for simplifying the reading of the right 
  61:../libs/PoliTeKDSP/libs/libDaisy/src/daisy_core.h ****  *  channel of a non-interleaved input buffer named in */
  62:../libs/PoliTeKDSP/libs/libDaisy/src/daisy_core.h **** #define IN_R in[1]
  63:../libs/PoliTeKDSP/libs/libDaisy/src/daisy_core.h **** 
  64:../libs/PoliTeKDSP/libs/libDaisy/src/daisy_core.h **** /** 
  65:../libs/PoliTeKDSP/libs/libDaisy/src/daisy_core.h ****     Computes cube.
  66:../libs/PoliTeKDSP/libs/libDaisy/src/daisy_core.h ****     \param x Number to be cubed
  67:../libs/PoliTeKDSP/libs/libDaisy/src/daisy_core.h ****     \return x ^ 3
  68:../libs/PoliTeKDSP/libs/libDaisy/src/daisy_core.h **** */
  69:../libs/PoliTeKDSP/libs/libDaisy/src/daisy_core.h **** FORCE_INLINE float cube(float x)
  70:../libs/PoliTeKDSP/libs/libDaisy/src/daisy_core.h **** {
  71:../libs/PoliTeKDSP/libs/libDaisy/src/daisy_core.h ****     return (x * x) * x;
  72:../libs/PoliTeKDSP/libs/libDaisy/src/daisy_core.h **** }
  73:../libs/PoliTeKDSP/libs/libDaisy/src/daisy_core.h **** 
  74:../libs/PoliTeKDSP/libs/libDaisy/src/daisy_core.h **** /** 
  75:../libs/PoliTeKDSP/libs/libDaisy/src/daisy_core.h ****     Converts unsigned 8-bit to float
  76:../libs/PoliTeKDSP/libs/libDaisy/src/daisy_core.h ****     \param x Number to be scaled.
  77:../libs/PoliTeKDSP/libs/libDaisy/src/daisy_core.h ****     \return Scaled number.
  78:../libs/PoliTeKDSP/libs/libDaisy/src/daisy_core.h **** */
  79:../libs/PoliTeKDSP/libs/libDaisy/src/daisy_core.h **** FORCE_INLINE float u82f(uint8_t x)
  80:../libs/PoliTeKDSP/libs/libDaisy/src/daisy_core.h **** {
  81:../libs/PoliTeKDSP/libs/libDaisy/src/daisy_core.h ****     return ((float)x - 127.f) * U82F_SCALE;
  82:../libs/PoliTeKDSP/libs/libDaisy/src/daisy_core.h **** }
  83:../libs/PoliTeKDSP/libs/libDaisy/src/daisy_core.h **** 
  84:../libs/PoliTeKDSP/libs/libDaisy/src/daisy_core.h **** /**
  85:../libs/PoliTeKDSP/libs/libDaisy/src/daisy_core.h ****     Converts float to unsigned 8-bit
  86:../libs/PoliTeKDSP/libs/libDaisy/src/daisy_core.h **** */
  87:../libs/PoliTeKDSP/libs/libDaisy/src/daisy_core.h **** FORCE_INLINE uint8_t f2u8(float x)
  88:../libs/PoliTeKDSP/libs/libDaisy/src/daisy_core.h **** {
  89:../libs/PoliTeKDSP/libs/libDaisy/src/daisy_core.h ****     x = x <= FBIPMIN ? FBIPMIN : x;
  90:../libs/PoliTeKDSP/libs/libDaisy/src/daisy_core.h ****     x = x >= FBIPMAX ? FBIPMAX : x;
  91:../libs/PoliTeKDSP/libs/libDaisy/src/daisy_core.h ****     return (uint8_t)((x * F2U8_SCALE) + F2U8_SCALE);
  92:../libs/PoliTeKDSP/libs/libDaisy/src/daisy_core.h **** }
  93:../libs/PoliTeKDSP/libs/libDaisy/src/daisy_core.h **** 
  94:../libs/PoliTeKDSP/libs/libDaisy/src/daisy_core.h **** 
  95:../libs/PoliTeKDSP/libs/libDaisy/src/daisy_core.h **** /** 
  96:../libs/PoliTeKDSP/libs/libDaisy/src/daisy_core.h ****     Converts Signed 8-bit to float
  97:../libs/PoliTeKDSP/libs/libDaisy/src/daisy_core.h ****     \param x Number to be scaled.
  98:../libs/PoliTeKDSP/libs/libDaisy/src/daisy_core.h ****     \return Scaled number.
ARM GAS  C:\Users\39351\AppData\Local\Temp\cccegpNG.s 			page 6


  99:../libs/PoliTeKDSP/libs/libDaisy/src/daisy_core.h **** */
 100:../libs/PoliTeKDSP/libs/libDaisy/src/daisy_core.h **** FORCE_INLINE float s82f(int8_t x)
 101:../libs/PoliTeKDSP/libs/libDaisy/src/daisy_core.h **** {
 102:../libs/PoliTeKDSP/libs/libDaisy/src/daisy_core.h ****     return (float)x * S82F_SCALE;
 103:../libs/PoliTeKDSP/libs/libDaisy/src/daisy_core.h **** }
 104:../libs/PoliTeKDSP/libs/libDaisy/src/daisy_core.h **** 
 105:../libs/PoliTeKDSP/libs/libDaisy/src/daisy_core.h **** /**
 106:../libs/PoliTeKDSP/libs/libDaisy/src/daisy_core.h ****     Converts float to Signed 8-bit
 107:../libs/PoliTeKDSP/libs/libDaisy/src/daisy_core.h **** */
 108:../libs/PoliTeKDSP/libs/libDaisy/src/daisy_core.h **** FORCE_INLINE int8_t f2s8(float x)
 109:../libs/PoliTeKDSP/libs/libDaisy/src/daisy_core.h **** {
 110:../libs/PoliTeKDSP/libs/libDaisy/src/daisy_core.h ****     x = x <= FBIPMIN ? FBIPMIN : x;
 111:../libs/PoliTeKDSP/libs/libDaisy/src/daisy_core.h ****     x = x >= FBIPMAX ? FBIPMAX : x;
 112:../libs/PoliTeKDSP/libs/libDaisy/src/daisy_core.h ****     return (int32_t)(x * F2S8_SCALE);
 113:../libs/PoliTeKDSP/libs/libDaisy/src/daisy_core.h **** }
 114:../libs/PoliTeKDSP/libs/libDaisy/src/daisy_core.h **** 
 115:../libs/PoliTeKDSP/libs/libDaisy/src/daisy_core.h **** /** 
 116:../libs/PoliTeKDSP/libs/libDaisy/src/daisy_core.h ****     Converts Signed 16-bit to float
 117:../libs/PoliTeKDSP/libs/libDaisy/src/daisy_core.h ****     \param x Number to be scaled.
 118:../libs/PoliTeKDSP/libs/libDaisy/src/daisy_core.h ****     \return Scaled number.
 119:../libs/PoliTeKDSP/libs/libDaisy/src/daisy_core.h **** */
 120:../libs/PoliTeKDSP/libs/libDaisy/src/daisy_core.h **** FORCE_INLINE float s162f(int16_t x)
 121:../libs/PoliTeKDSP/libs/libDaisy/src/daisy_core.h **** {
 122:../libs/PoliTeKDSP/libs/libDaisy/src/daisy_core.h ****     return (float)x * S162F_SCALE;
 123:../libs/PoliTeKDSP/libs/libDaisy/src/daisy_core.h **** }
 124:../libs/PoliTeKDSP/libs/libDaisy/src/daisy_core.h **** 
 125:../libs/PoliTeKDSP/libs/libDaisy/src/daisy_core.h **** /**
 126:../libs/PoliTeKDSP/libs/libDaisy/src/daisy_core.h ****     Converts float to Signed 16-bit
 127:../libs/PoliTeKDSP/libs/libDaisy/src/daisy_core.h **** */
 128:../libs/PoliTeKDSP/libs/libDaisy/src/daisy_core.h **** FORCE_INLINE int16_t f2s16(float x)
 129:../libs/PoliTeKDSP/libs/libDaisy/src/daisy_core.h **** {
 130:../libs/PoliTeKDSP/libs/libDaisy/src/daisy_core.h ****     x = x <= FBIPMIN ? FBIPMIN : x;
 131:../libs/PoliTeKDSP/libs/libDaisy/src/daisy_core.h ****     x = x >= FBIPMAX ? FBIPMAX : x;
 132:../libs/PoliTeKDSP/libs/libDaisy/src/daisy_core.h ****     return (int32_t)(x * F2S16_SCALE);
 133:../libs/PoliTeKDSP/libs/libDaisy/src/daisy_core.h **** }
 134:../libs/PoliTeKDSP/libs/libDaisy/src/daisy_core.h **** 
 135:../libs/PoliTeKDSP/libs/libDaisy/src/daisy_core.h **** /**
 136:../libs/PoliTeKDSP/libs/libDaisy/src/daisy_core.h ****     Converts Signed 24-bit to float
 137:../libs/PoliTeKDSP/libs/libDaisy/src/daisy_core.h ****  */
 138:../libs/PoliTeKDSP/libs/libDaisy/src/daisy_core.h **** FORCE_INLINE float s242f(int32_t x)
 139:../libs/PoliTeKDSP/libs/libDaisy/src/daisy_core.h **** {
 140:../libs/PoliTeKDSP/libs/libDaisy/src/daisy_core.h ****     x = (x ^ S24SIGN) - S24SIGN; //sign extend aka ((x<<8)>>8)
 141:../libs/PoliTeKDSP/libs/libDaisy/src/daisy_core.h ****     return (float)x * S242F_SCALE;
 142:../libs/PoliTeKDSP/libs/libDaisy/src/daisy_core.h **** }
 143:../libs/PoliTeKDSP/libs/libDaisy/src/daisy_core.h **** /**
 144:../libs/PoliTeKDSP/libs/libDaisy/src/daisy_core.h ****     Converts float to Signed 24-bit
 145:../libs/PoliTeKDSP/libs/libDaisy/src/daisy_core.h ****  */
 146:../libs/PoliTeKDSP/libs/libDaisy/src/daisy_core.h **** FORCE_INLINE int32_t f2s24(float x)
 147:../libs/PoliTeKDSP/libs/libDaisy/src/daisy_core.h **** {
 148:../libs/PoliTeKDSP/libs/libDaisy/src/daisy_core.h ****     x = x <= FBIPMIN ? FBIPMIN : x;
 149:../libs/PoliTeKDSP/libs/libDaisy/src/daisy_core.h ****     x = x >= FBIPMAX ? FBIPMAX : x;
 150:../libs/PoliTeKDSP/libs/libDaisy/src/daisy_core.h ****     return (int32_t)(x * F2S24_SCALE);
 151:../libs/PoliTeKDSP/libs/libDaisy/src/daisy_core.h **** }
 152:../libs/PoliTeKDSP/libs/libDaisy/src/daisy_core.h **** 
 153:../libs/PoliTeKDSP/libs/libDaisy/src/daisy_core.h **** /**
 154:../libs/PoliTeKDSP/libs/libDaisy/src/daisy_core.h ****     Converts Signed 32-bit to float
 155:../libs/PoliTeKDSP/libs/libDaisy/src/daisy_core.h ****  */
ARM GAS  C:\Users\39351\AppData\Local\Temp\cccegpNG.s 			page 7


 156:../libs/PoliTeKDSP/libs/libDaisy/src/daisy_core.h **** FORCE_INLINE float s322f(int32_t x)
 157:../libs/PoliTeKDSP/libs/libDaisy/src/daisy_core.h **** {
 158:../libs/PoliTeKDSP/libs/libDaisy/src/daisy_core.h ****     return (float)x * S322F_SCALE;
 159:../libs/PoliTeKDSP/libs/libDaisy/src/daisy_core.h **** }
 160:../libs/PoliTeKDSP/libs/libDaisy/src/daisy_core.h **** /**
 161:../libs/PoliTeKDSP/libs/libDaisy/src/daisy_core.h ****     Converts float to Signed 24-bit
 162:../libs/PoliTeKDSP/libs/libDaisy/src/daisy_core.h ****  */
 163:../libs/PoliTeKDSP/libs/libDaisy/src/daisy_core.h **** FORCE_INLINE int32_t f2s32(float x)
 164:../libs/PoliTeKDSP/libs/libDaisy/src/daisy_core.h **** {
 165:../libs/PoliTeKDSP/libs/libDaisy/src/daisy_core.h ****     x = x <= FBIPMIN ? FBIPMIN : x;
 166:../libs/PoliTeKDSP/libs/libDaisy/src/daisy_core.h ****     x = x >= FBIPMAX ? FBIPMAX : x;
 167:../libs/PoliTeKDSP/libs/libDaisy/src/daisy_core.h ****     return (int32_t)(x * F2S32_SCALE);
 168:../libs/PoliTeKDSP/libs/libDaisy/src/daisy_core.h **** }
 169:../libs/PoliTeKDSP/libs/libDaisy/src/daisy_core.h **** 
 170:../libs/PoliTeKDSP/libs/libDaisy/src/daisy_core.h **** #ifdef __cplusplus
 171:../libs/PoliTeKDSP/libs/libDaisy/src/daisy_core.h **** 
 172:../libs/PoliTeKDSP/libs/libDaisy/src/daisy_core.h **** namespace daisy
 173:../libs/PoliTeKDSP/libs/libDaisy/src/daisy_core.h **** {
 174:../libs/PoliTeKDSP/libs/libDaisy/src/daisy_core.h **** /** @brief GPIO Port names */
 175:../libs/PoliTeKDSP/libs/libDaisy/src/daisy_core.h **** enum GPIOPort
 176:../libs/PoliTeKDSP/libs/libDaisy/src/daisy_core.h **** {
 177:../libs/PoliTeKDSP/libs/libDaisy/src/daisy_core.h ****     PORTA, /**< Port A */
 178:../libs/PoliTeKDSP/libs/libDaisy/src/daisy_core.h ****     PORTB, /**< Port B */
 179:../libs/PoliTeKDSP/libs/libDaisy/src/daisy_core.h ****     PORTC, /**< Port C */
 180:../libs/PoliTeKDSP/libs/libDaisy/src/daisy_core.h ****     PORTD, /**< Port D */
 181:../libs/PoliTeKDSP/libs/libDaisy/src/daisy_core.h ****     PORTE, /**< Port E */
 182:../libs/PoliTeKDSP/libs/libDaisy/src/daisy_core.h ****     PORTF, /**< Port F */
 183:../libs/PoliTeKDSP/libs/libDaisy/src/daisy_core.h ****     PORTG, /**< Port G */
 184:../libs/PoliTeKDSP/libs/libDaisy/src/daisy_core.h ****     PORTH, /**< Port H */
 185:../libs/PoliTeKDSP/libs/libDaisy/src/daisy_core.h ****     PORTI, /**< Port I */
 186:../libs/PoliTeKDSP/libs/libDaisy/src/daisy_core.h ****     PORTJ, /**< Port J */
 187:../libs/PoliTeKDSP/libs/libDaisy/src/daisy_core.h ****     PORTK, /**< Port K */
 188:../libs/PoliTeKDSP/libs/libDaisy/src/daisy_core.h ****     PORTX, /**< Used as a dummy port to signal an invalid pin. */
 189:../libs/PoliTeKDSP/libs/libDaisy/src/daisy_core.h **** };
 190:../libs/PoliTeKDSP/libs/libDaisy/src/daisy_core.h **** 
 191:../libs/PoliTeKDSP/libs/libDaisy/src/daisy_core.h **** /** @brief representation of hardware port/pin combination */
 192:../libs/PoliTeKDSP/libs/libDaisy/src/daisy_core.h **** struct Pin
 193:../libs/PoliTeKDSP/libs/libDaisy/src/daisy_core.h **** {
 194:../libs/PoliTeKDSP/libs/libDaisy/src/daisy_core.h ****     GPIOPort port;
 195:../libs/PoliTeKDSP/libs/libDaisy/src/daisy_core.h ****     uint8_t  pin;
 196:../libs/PoliTeKDSP/libs/libDaisy/src/daisy_core.h **** 
 197:../libs/PoliTeKDSP/libs/libDaisy/src/daisy_core.h ****     /** @brief Constructor creates a valid pin. 
 198:../libs/PoliTeKDSP/libs/libDaisy/src/daisy_core.h ****      *  @param pt GPIOPort between PA, and PK corresponding to STM32 Port.
 199:../libs/PoliTeKDSP/libs/libDaisy/src/daisy_core.h ****      *  @param pn pin number in range of 0-15
 200:../libs/PoliTeKDSP/libs/libDaisy/src/daisy_core.h ****     */
 201:../libs/PoliTeKDSP/libs/libDaisy/src/daisy_core.h ****     constexpr Pin(const GPIOPort pt, const uint8_t pn) : port(pt), pin(pn) {}
 202:../libs/PoliTeKDSP/libs/libDaisy/src/daisy_core.h **** 
 203:../libs/PoliTeKDSP/libs/libDaisy/src/daisy_core.h ****     /** @brief Basic Constructor creates an invalid Pin object */
 204:../libs/PoliTeKDSP/libs/libDaisy/src/daisy_core.h ****     constexpr Pin() : port(PORTX), pin(255) {}
  81              		.loc 3 204 15 view .LVU8
  82              		.loc 3 204 15 is_stmt 0 view .LVU9
  83              	.LBE198:
  84              	.LBB199:
  85              	.LBI199:
  86              		.loc 3 204 15 is_stmt 1 view .LVU10
  87              		.loc 3 204 15 is_stmt 0 view .LVU11
  88              	.LBE199:
ARM GAS  C:\Users\39351\AppData\Local\Temp\cccegpNG.s 			page 8


  36:../libs/PoliTeKDSP/libs/libDaisy/src/dev/mpr121.h ****             speed  = I2CHandle::Config::Speed::I2C_400KHZ;
  89              		.loc 2 36 13 is_stmt 1 view .LVU12
  37:../libs/PoliTeKDSP/libs/libDaisy/src/dev/mpr121.h **** 
  90              		.loc 2 37 13 view .LVU13
  39:../libs/PoliTeKDSP/libs/libDaisy/src/dev/mpr121.h ****             sda = Pin(PORTB, 9);
  91              		.loc 2 39 13 view .LVU14
  92              	.LBB200:
  93              	.LBI200:
 201:../libs/PoliTeKDSP/libs/libDaisy/src/daisy_core.h **** 
  94              		.loc 3 201 15 view .LVU15
 201:../libs/PoliTeKDSP/libs/libDaisy/src/daisy_core.h **** 
  95              		.loc 3 201 15 is_stmt 0 view .LVU16
  96              	.LBE200:
  40:../libs/PoliTeKDSP/libs/libDaisy/src/dev/mpr121.h **** 
  97              		.loc 2 40 13 is_stmt 1 view .LVU17
  98              	.LBB201:
  99              	.LBI201:
 201:../libs/PoliTeKDSP/libs/libDaisy/src/daisy_core.h **** 
 100              		.loc 3 201 15 view .LVU18
 201:../libs/PoliTeKDSP/libs/libDaisy/src/daisy_core.h **** 
 101              		.loc 3 201 15 is_stmt 0 view .LVU19
 102              	.LBE201:
  39:../libs/PoliTeKDSP/libs/libDaisy/src/dev/mpr121.h ****             sda = Pin(PORTB, 9);
 103              		.loc 2 39 17 view .LVU20
 104 000a 5749     		ldr	r1, .L4
  42:../libs/PoliTeKDSP/libs/libDaisy/src/dev/mpr121.h ****         }
 105              		.loc 2 42 22 view .LVU21
 106 000c 5A22     		movs	r2, #90
 107              	.LBE202:
 108              	.LBE206:
 109              	.LBE210:
 110              	.LBE216:
 111              	.LBE239:
 112              	.LBB240:
 113              	.LBB241:
 114              	.LBB242:
 115              	.LBB243:
  36:../libs/PoliTeKDSP/libs/libDaisy/src/dev/mpr121.h ****             speed  = I2CHandle::Config::Speed::I2C_400KHZ;
 116              		.loc 2 36 20 view .LVU22
 117 000e 4363     		str	r3, [r0, #52]
 118              	.LBE243:
 119              	.LBE242:
 120              	.LBE241:
 121              	.LBE240:
 122              	.LBB257:
 123              	.LBB217:
 124              	.LBB211:
 125              	.LBB207:
 126              	.LBB203:
  39:../libs/PoliTeKDSP/libs/libDaisy/src/dev/mpr121.h ****             sda = Pin(PORTB, 9);
 127              		.loc 2 39 17 view .LVU23
 128 0010 8160     		str	r1, [r0, #8]
  42:../libs/PoliTeKDSP/libs/libDaisy/src/dev/mpr121.h ****         }
 129              		.loc 2 42 13 is_stmt 1 view .LVU24
 130              	.LBE203:
 131              	.LBE207:
 132              	.LBE211:
ARM GAS  C:\Users\39351\AppData\Local\Temp\cccegpNG.s 			page 9


 133              	.LBE217:
 134              	.LBE257:
 135              	.LBE267:
 136              		.loc 1 6 1 is_stmt 0 view .LVU25
 137 0012 87B0     		sub	sp, sp, #28
 138              		.cfi_def_cfa_offset 64
 139              	.LBB268:
 140              	.LBB258:
 141              	.LBB218:
 142              	.LBB212:
 143              	.LBB208:
 144              	.LBB204:
  42:../libs/PoliTeKDSP/libs/libDaisy/src/dev/mpr121.h ****         }
 145              		.loc 2 42 22 view .LVU26
 146 0014 0274     		strb	r2, [r0, #16]
 147              	.LVL2:
  42:../libs/PoliTeKDSP/libs/libDaisy/src/dev/mpr121.h ****         }
 148              		.loc 2 42 22 view .LVU27
 149              	.LBE204:
 150              	.LBE208:
 151              	.LBE212:
 152              	.LBE218:
 153              	.LBE258:
 154              		.loc 1 6 36 view .LVU28
 155 0016 05F6440A 		addw	r10, r5, #2116
 156              	.LBB259:
 157              	.LBB219:
 158              	.LBB220:
 159              	.LBB221:
  42:../libs/PoliTeKDSP/libs/libDaisy/src/dev/mpr121.h ****         }
 160              		.loc 2 42 22 view .LVU29
 161 001a 80F82C20 		strb	r2, [r0, #44]
 162              	.LBE221:
 163              	.LBE220:
 164              	.LBE219:
 165              	.LBE259:
 166              		.loc 1 6 36 view .LVU30
 167 001e 05F50668 		add	r8, r5, #2144
 168 0022 05F67C06 		addw	r6, r5, #2172
 169              	.LBB260:
 170              	.LBB233:
 171              	.LBB213:
 172              	.LBB209:
 173              	.LBB205:
  37:../libs/PoliTeKDSP/libs/libDaisy/src/dev/mpr121.h **** 
 174              		.loc 2 37 20 view .LVU31
 175 0026 C0E90034 		strd	r3, r4, [r0]
 176              	.LBE205:
 177              	.LBE209:
 178              	.LBE213:
 179              	.LBE233:
 180              	.LBB234:
 181              	.LBB229:
 182              	.LBB226:
  36:../libs/PoliTeKDSP/libs/libDaisy/src/dev/mpr121.h ****             speed  = I2CHandle::Config::Speed::I2C_400KHZ;
 183              		.loc 2 36 20 view .LVU32
 184 002a C0E90633 		strd	r3, r3, [r0, #24]
ARM GAS  C:\Users\39351\AppData\Local\Temp\cccegpNG.s 			page 10


 185              	.LBE226:
 186              	.LBE229:
 187              	.LBE234:
 188              	.LBE260:
 189              		.loc 1 6 36 view .LVU33
 190 002e 0C23     		movs	r3, #12
 191              	.LBB261:
 192              	.LBB235:
 193              	.LBB230:
 194              	.LBB227:
  39:../libs/PoliTeKDSP/libs/libDaisy/src/dev/mpr121.h ****             sda = Pin(PORTB, 9);
 195              		.loc 2 39 17 view .LVU34
 196 0030 C0E90841 		strd	r4, r1, [r0, #32]
 197              	.LBE227:
 198              	.LBE230:
 199              	.LBE235:
 200              	.LBE261:
 201              	.LBB262:
 202              	.LBB254:
 203              	.LBB251:
 204              	.LBB248:
 205 0034 C0E90E41 		strd	r4, r1, [r0, #56]
 206              	.LBE248:
 207              	.LBE251:
 208              	.LBE254:
 209              	.LBE262:
 210              		.loc 1 6 36 view .LVU35
 211 0038 85F85030 		strb	r3, [r5, #80]
 212              	.LBB263:
 213              	.LBB236:
 214              	.LBB214:
 102:../libs/PoliTeKDSP/libs/libDaisy/src/dev/mpr121.h ****         {
 103:../libs/PoliTeKDSP/libs/libDaisy/src/dev/mpr121.h ****             touch_threshold   = MPR121_TOUCH_THRESHOLD_DEFAULT;
 215              		.loc 2 103 31 view .LVU36
 216 003c 40F20C63 		movw	r3, #1548
 217              	.LBE214:
 218              	.LBE236:
 219              	.LBE263:
 220              	.LBB264:
 221              	.LBB255:
 222              	.LBB252:
 223              	.LBB249:
  42:../libs/PoliTeKDSP/libs/libDaisy/src/dev/mpr121.h ****         }
 224              		.loc 2 42 22 view .LVU37
 225 0040 85F84420 		strb	r2, [r5, #68]
 226              	.LBE249:
 227              	.LBE252:
 228              	.LBE255:
 229              	.LBE264:
 230              		.loc 1 6 36 view .LVU38
 231 0044 5430     		adds	r0, r0, #84
 232              	.LVL3:
 233              	.LBB265:
 234              	.LBB237:
 235              	.LBB215:
 236              		.loc 2 103 31 view .LVU39
 237 0046 AB82     		strh	r3, [r5, #20]	@ movhi
ARM GAS  C:\Users\39351\AppData\Local\Temp\cccegpNG.s 			page 11


 238              	.LVL4:
 239              		.loc 2 103 31 view .LVU40
 240              	.LBE215:
 241              	.LBE237:
 242              	.LBB238:
 243              	.LBI219:
  20:../libs/PoliTeKDSP/libs/libDaisy/src/dev/mpr121.h ****     ~Mpr121I2CTransport() {}
 244              		.loc 2 20 5 is_stmt 1 view .LVU41
 245              	.LBB231:
 246              	.LBI231:
 247              		.file 4 "../libs/PoliTeKDSP/libs/libDaisy/src/per/i2c.h"
   1:../libs/PoliTeKDSP/libs/libDaisy/src/per/i2c.h **** #pragma once
   2:../libs/PoliTeKDSP/libs/libDaisy/src/per/i2c.h **** #include "util/hal_map.h"
   3:../libs/PoliTeKDSP/libs/libDaisy/src/per/i2c.h **** #include "daisy_core.h"
   4:../libs/PoliTeKDSP/libs/libDaisy/src/per/i2c.h **** 
   5:../libs/PoliTeKDSP/libs/libDaisy/src/per/i2c.h **** namespace daisy
   6:../libs/PoliTeKDSP/libs/libDaisy/src/per/i2c.h **** {
   7:../libs/PoliTeKDSP/libs/libDaisy/src/per/i2c.h **** /** A handle for interacting with an I2C peripheral. This is a dumb
   8:../libs/PoliTeKDSP/libs/libDaisy/src/per/i2c.h ****  *  gateway that internally points to one of the four I2C peripherals
   9:../libs/PoliTeKDSP/libs/libDaisy/src/per/i2c.h ****  *  after it was initialised. It can then be copied and passed around.
  10:../libs/PoliTeKDSP/libs/libDaisy/src/per/i2c.h ****  *  Use an I2CHandle like this:
  11:../libs/PoliTeKDSP/libs/libDaisy/src/per/i2c.h ****  *  
  12:../libs/PoliTeKDSP/libs/libDaisy/src/per/i2c.h ****  *      // setup the configuration
  13:../libs/PoliTeKDSP/libs/libDaisy/src/per/i2c.h ****  *      I2CHandle::Config i2c_conf;
  14:../libs/PoliTeKDSP/libs/libDaisy/src/per/i2c.h ****  *      i2c_conf.periph = I2CHandle::Config::Peripheral::I2C_1;
  15:../libs/PoliTeKDSP/libs/libDaisy/src/per/i2c.h ****  *      i2c_conf.speed  = I2CHandle::Config::Speed::I2C_400KHZ;
  16:../libs/PoliTeKDSP/libs/libDaisy/src/per/i2c.h ****  *      i2c_conf.mode   = I2CHandle::Config::Mode::Master;
  17:../libs/PoliTeKDSP/libs/libDaisy/src/per/i2c.h ****  *      i2c_conf.pin_config.scl  = {DSY_GPIOB, 8};
  18:../libs/PoliTeKDSP/libs/libDaisy/src/per/i2c.h ****  *      i2c_conf.pin_config.sda  = {DSY_GPIOB, 9};
  19:../libs/PoliTeKDSP/libs/libDaisy/src/per/i2c.h ****  *      // initialise the peripheral
  20:../libs/PoliTeKDSP/libs/libDaisy/src/per/i2c.h ****  *      I2CHandle i2c;
  21:../libs/PoliTeKDSP/libs/libDaisy/src/per/i2c.h ****  *      i2c.Init(i2c_conf);
  22:../libs/PoliTeKDSP/libs/libDaisy/src/per/i2c.h ****  *      // now i2c points to the corresponding peripheral and can be used.
  23:../libs/PoliTeKDSP/libs/libDaisy/src/per/i2c.h ****  *      i2c.TransmitBlocking( ... );
  24:../libs/PoliTeKDSP/libs/libDaisy/src/per/i2c.h ****  */
  25:../libs/PoliTeKDSP/libs/libDaisy/src/per/i2c.h **** class I2CHandle
  26:../libs/PoliTeKDSP/libs/libDaisy/src/per/i2c.h **** {
  27:../libs/PoliTeKDSP/libs/libDaisy/src/per/i2c.h ****   public:
  28:../libs/PoliTeKDSP/libs/libDaisy/src/per/i2c.h ****     /** Contains settings for initialising an I2C interface. */
  29:../libs/PoliTeKDSP/libs/libDaisy/src/per/i2c.h ****     struct Config
  30:../libs/PoliTeKDSP/libs/libDaisy/src/per/i2c.h ****     {
  31:../libs/PoliTeKDSP/libs/libDaisy/src/per/i2c.h ****         /** Specifies whether the interface will operate in master or slave mode. */
  32:../libs/PoliTeKDSP/libs/libDaisy/src/per/i2c.h ****         enum class Mode
  33:../libs/PoliTeKDSP/libs/libDaisy/src/per/i2c.h ****         {
  34:../libs/PoliTeKDSP/libs/libDaisy/src/per/i2c.h ****             I2C_MASTER,
  35:../libs/PoliTeKDSP/libs/libDaisy/src/per/i2c.h ****             I2C_SLAVE,
  36:../libs/PoliTeKDSP/libs/libDaisy/src/per/i2c.h ****         };
  37:../libs/PoliTeKDSP/libs/libDaisy/src/per/i2c.h **** 
  38:../libs/PoliTeKDSP/libs/libDaisy/src/per/i2c.h ****         /** Specifices the internal peripheral to use (these are mapped to different pins on the ha
  39:../libs/PoliTeKDSP/libs/libDaisy/src/per/i2c.h ****         enum class Peripheral
  40:../libs/PoliTeKDSP/libs/libDaisy/src/per/i2c.h ****         {
  41:../libs/PoliTeKDSP/libs/libDaisy/src/per/i2c.h ****             I2C_1 = 0, /**< & */
  42:../libs/PoliTeKDSP/libs/libDaisy/src/per/i2c.h ****             I2C_2,     /**< & */
  43:../libs/PoliTeKDSP/libs/libDaisy/src/per/i2c.h ****             I2C_3,     /**< & */
  44:../libs/PoliTeKDSP/libs/libDaisy/src/per/i2c.h ****             I2C_4,     /**< & */
  45:../libs/PoliTeKDSP/libs/libDaisy/src/per/i2c.h ****         };
  46:../libs/PoliTeKDSP/libs/libDaisy/src/per/i2c.h **** 
ARM GAS  C:\Users\39351\AppData\Local\Temp\cccegpNG.s 			page 12


  47:../libs/PoliTeKDSP/libs/libDaisy/src/per/i2c.h ****         /** Rate at which the clock/data will be sent/received. The device being used will have max
  48:../libs/PoliTeKDSP/libs/libDaisy/src/per/i2c.h ****          *  1MHZ Mode is currently 886kHz
  49:../libs/PoliTeKDSP/libs/libDaisy/src/per/i2c.h ****          */
  50:../libs/PoliTeKDSP/libs/libDaisy/src/per/i2c.h ****         enum class Speed
  51:../libs/PoliTeKDSP/libs/libDaisy/src/per/i2c.h ****         {
  52:../libs/PoliTeKDSP/libs/libDaisy/src/per/i2c.h ****             I2C_100KHZ, /**< & */
  53:../libs/PoliTeKDSP/libs/libDaisy/src/per/i2c.h ****             I2C_400KHZ, /**< & */
  54:../libs/PoliTeKDSP/libs/libDaisy/src/per/i2c.h ****             I2C_1MHZ,   /**< & */
  55:../libs/PoliTeKDSP/libs/libDaisy/src/per/i2c.h ****         };
  56:../libs/PoliTeKDSP/libs/libDaisy/src/per/i2c.h **** 
  57:../libs/PoliTeKDSP/libs/libDaisy/src/per/i2c.h ****         Peripheral periph; /**< & */
  58:../libs/PoliTeKDSP/libs/libDaisy/src/per/i2c.h ****         struct
  59:../libs/PoliTeKDSP/libs/libDaisy/src/per/i2c.h ****         {
  60:../libs/PoliTeKDSP/libs/libDaisy/src/per/i2c.h ****             Pin scl;  /**< & */
  61:../libs/PoliTeKDSP/libs/libDaisy/src/per/i2c.h ****             Pin sda;  /**< & */
  62:../libs/PoliTeKDSP/libs/libDaisy/src/per/i2c.h ****         } pin_config; /**< & */
  63:../libs/PoliTeKDSP/libs/libDaisy/src/per/i2c.h **** 
  64:../libs/PoliTeKDSP/libs/libDaisy/src/per/i2c.h ****         Speed speed; /**< & */
  65:../libs/PoliTeKDSP/libs/libDaisy/src/per/i2c.h ****         Mode  mode;  /**< & */
  66:../libs/PoliTeKDSP/libs/libDaisy/src/per/i2c.h ****         // 0x10 is chosen as a default to avoid conflicts with reserved addresses
  67:../libs/PoliTeKDSP/libs/libDaisy/src/per/i2c.h ****         uint8_t address = 0x10; /**< & */
  68:../libs/PoliTeKDSP/libs/libDaisy/src/per/i2c.h ****     };
  69:../libs/PoliTeKDSP/libs/libDaisy/src/per/i2c.h **** 
  70:../libs/PoliTeKDSP/libs/libDaisy/src/per/i2c.h ****     /** Return values for I2C functions. */
  71:../libs/PoliTeKDSP/libs/libDaisy/src/per/i2c.h ****     enum class Result
  72:../libs/PoliTeKDSP/libs/libDaisy/src/per/i2c.h ****     {
  73:../libs/PoliTeKDSP/libs/libDaisy/src/per/i2c.h ****         OK, /**< & */
  74:../libs/PoliTeKDSP/libs/libDaisy/src/per/i2c.h ****         ERR /**< & */
  75:../libs/PoliTeKDSP/libs/libDaisy/src/per/i2c.h ****     };
  76:../libs/PoliTeKDSP/libs/libDaisy/src/per/i2c.h **** 
  77:../libs/PoliTeKDSP/libs/libDaisy/src/per/i2c.h ****     enum class Direction
  78:../libs/PoliTeKDSP/libs/libDaisy/src/per/i2c.h ****     {
  79:../libs/PoliTeKDSP/libs/libDaisy/src/per/i2c.h ****         TRANSMIT, /**< & */
  80:../libs/PoliTeKDSP/libs/libDaisy/src/per/i2c.h ****         RECEIVE,  /**< & */
  81:../libs/PoliTeKDSP/libs/libDaisy/src/per/i2c.h ****     };
  82:../libs/PoliTeKDSP/libs/libDaisy/src/per/i2c.h **** 
  83:../libs/PoliTeKDSP/libs/libDaisy/src/per/i2c.h ****     I2CHandle() : pimpl_(nullptr) {}
 248              		.loc 4 83 5 view .LVU42
 249              		.loc 4 83 5 is_stmt 0 view .LVU43
 250              	.LBE231:
 251              	.LBB232:
 252              	.LBI220:
  34:../libs/PoliTeKDSP/libs/libDaisy/src/dev/mpr121.h ****         {
 253              		.loc 2 34 9 is_stmt 1 view .LVU44
 254              	.LBB228:
 255              	.LBB222:
 256              	.LBI222:
 257              		.loc 3 204 15 view .LVU45
 258              		.loc 3 204 15 is_stmt 0 view .LVU46
 259              	.LBE222:
 260              	.LBB223:
 261              	.LBI223:
 262              		.loc 3 204 15 is_stmt 1 view .LVU47
 263              		.loc 3 204 15 is_stmt 0 view .LVU48
 264              	.LBE223:
  36:../libs/PoliTeKDSP/libs/libDaisy/src/dev/mpr121.h ****             speed  = I2CHandle::Config::Speed::I2C_400KHZ;
 265              		.loc 2 36 13 is_stmt 1 view .LVU49
ARM GAS  C:\Users\39351\AppData\Local\Temp\cccegpNG.s 			page 13


  37:../libs/PoliTeKDSP/libs/libDaisy/src/dev/mpr121.h **** 
 266              		.loc 2 37 13 view .LVU50
  39:../libs/PoliTeKDSP/libs/libDaisy/src/dev/mpr121.h ****             sda = Pin(PORTB, 9);
 267              		.loc 2 39 13 view .LVU51
 268              	.LBB224:
 269              	.LBI224:
 201:../libs/PoliTeKDSP/libs/libDaisy/src/daisy_core.h **** 
 270              		.loc 3 201 15 view .LVU52
 201:../libs/PoliTeKDSP/libs/libDaisy/src/daisy_core.h **** 
 271              		.loc 3 201 15 is_stmt 0 view .LVU53
 272              	.LBE224:
  40:../libs/PoliTeKDSP/libs/libDaisy/src/dev/mpr121.h **** 
 273              		.loc 2 40 13 is_stmt 1 view .LVU54
 274              	.LBB225:
 275              	.LBI225:
 201:../libs/PoliTeKDSP/libs/libDaisy/src/daisy_core.h **** 
 276              		.loc 3 201 15 view .LVU55
 201:../libs/PoliTeKDSP/libs/libDaisy/src/daisy_core.h **** 
 277              		.loc 3 201 15 is_stmt 0 view .LVU56
 278              	.LBE225:
  42:../libs/PoliTeKDSP/libs/libDaisy/src/dev/mpr121.h ****         }
 279              		.loc 2 42 13 is_stmt 1 view .LVU57
  42:../libs/PoliTeKDSP/libs/libDaisy/src/dev/mpr121.h ****         }
 280              		.loc 2 42 13 is_stmt 0 view .LVU58
 281              	.LBE228:
 282              	.LBE232:
 283              	.LBE238:
 284              	.LBE265:
 285              	.LBB266:
 286              	.LBI240:
 101:../libs/PoliTeKDSP/libs/libDaisy/src/dev/mpr121.h ****         {
 287              		.loc 2 101 9 is_stmt 1 view .LVU59
 288              	.LBB256:
 289              	.LBB253:
 290              	.LBI242:
  34:../libs/PoliTeKDSP/libs/libDaisy/src/dev/mpr121.h ****         {
 291              		.loc 2 34 9 view .LVU60
 292              	.LBB250:
 293              	.LBB244:
 294              	.LBI244:
 295              		.loc 3 204 15 view .LVU61
 296              		.loc 3 204 15 is_stmt 0 view .LVU62
 297              	.LBE244:
 298              	.LBB245:
 299              	.LBI245:
 300              		.loc 3 204 15 is_stmt 1 view .LVU63
 301              		.loc 3 204 15 is_stmt 0 view .LVU64
 302              	.LBE245:
  36:../libs/PoliTeKDSP/libs/libDaisy/src/dev/mpr121.h ****             speed  = I2CHandle::Config::Speed::I2C_400KHZ;
 303              		.loc 2 36 13 is_stmt 1 view .LVU65
  37:../libs/PoliTeKDSP/libs/libDaisy/src/dev/mpr121.h **** 
 304              		.loc 2 37 13 view .LVU66
  39:../libs/PoliTeKDSP/libs/libDaisy/src/dev/mpr121.h ****             sda = Pin(PORTB, 9);
 305              		.loc 2 39 13 view .LVU67
 306              	.LBB246:
 307              	.LBI246:
 201:../libs/PoliTeKDSP/libs/libDaisy/src/daisy_core.h **** 
ARM GAS  C:\Users\39351\AppData\Local\Temp\cccegpNG.s 			page 14


 308              		.loc 3 201 15 view .LVU68
 201:../libs/PoliTeKDSP/libs/libDaisy/src/daisy_core.h **** 
 309              		.loc 3 201 15 is_stmt 0 view .LVU69
 310              	.LBE246:
  40:../libs/PoliTeKDSP/libs/libDaisy/src/dev/mpr121.h **** 
 311              		.loc 2 40 13 is_stmt 1 view .LVU70
 312              	.LBB247:
 313              	.LBI247:
 201:../libs/PoliTeKDSP/libs/libDaisy/src/daisy_core.h **** 
 314              		.loc 3 201 15 view .LVU71
 201:../libs/PoliTeKDSP/libs/libDaisy/src/daisy_core.h **** 
 315              		.loc 3 201 15 is_stmt 0 view .LVU72
 316              	.LBE247:
  42:../libs/PoliTeKDSP/libs/libDaisy/src/dev/mpr121.h ****         }
 317              		.loc 2 42 13 is_stmt 1 view .LVU73
  42:../libs/PoliTeKDSP/libs/libDaisy/src/dev/mpr121.h ****         }
 318              		.loc 2 42 13 is_stmt 0 view .LVU74
 319              	.LBE250:
 320              	.LBE253:
 321              		.loc 2 103 31 view .LVU75
 322 0048 A5F84830 		strh	r3, [r5, #72]	@ movhi
 323              	.LVL5:
 324              		.loc 2 103 31 view .LVU76
 325              	.LBE256:
 326              	.LBE266:
 327              		.loc 1 6 36 view .LVU77
 328 004c FFF7FEFF 		bl	_ZN3IIRC1Ev
 329              	.LVL6:
 330 0050 05F19C00 		add	r0, r5, #156
 331 0054 FFF7FEFF 		bl	_ZN2MFC1Ev
 332              	.LVL7:
 333 0058 05F1B400 		add	r0, r5, #180
 334 005c FFF7FEFF 		bl	_ZN6CapFirC1Ev
 335              	.LVL8:
 336 0060 05F58760 		add	r0, r5, #1080
 337 0064 FFF7FEFF 		bl	_ZN6CapFirC1Ev
 338              	.LVL9:
 339 0068 05F2BC72 		addw	r2, r5, #1980
 340 006c 4FF08040 		mov	r0, #1073741824
 341 0070 0023     		movs	r3, #0
 342 0072 4FF07E51 		mov	r1, #1065353216
 343 0076 3D4C     		ldr	r4, .L4+4
 344 0078 1060     		str	r0, [r2]	@ float
 345 007a 4FF0FF32 		mov	r2, #-1
 346 007e 04F1B400 		add	r0, r4, #180
 347 0082 04F11C09 		add	r9, r4, #28
 348 0086 C5F8C027 		str	r2, [r5, #1984]
 349 008a 05F2C472 		addw	r2, r5, #1988
 350 008e 0590     		str	r0, [sp, #20]
 351 0090 04F13807 		add	r7, r4, #56
 352 0094 1360     		str	r3, [r2]	@ float
 353 0096 05F5F962 		add	r2, r5, #1992
 354 009a 04F1700B 		add	fp, r4, #112
 355 009e 04F1840E 		add	lr, r4, #132
 356 00a2 1360     		str	r3, [r2]	@ float
 357 00a4 40F20472 		movw	r2, #1796
 358 00a8 05F6C80C 		addw	ip, r5, #2248
ARM GAS  C:\Users\39351\AppData\Local\Temp\cccegpNG.s 			page 15


 359 00ac A5F8CC27 		strh	r2, [r5, #1996]	@ movhi
 360 00b0 05F5FA62 		add	r2, r5, #2000
 361 00b4 1160     		str	r1, [r2]	@ float
 362 00b6 05F2D472 		addw	r2, r5, #2004
 363 00ba 2D49     		ldr	r1, .L4+8
 364 00bc 1160     		str	r1, [r2]	@ float
 365 00be 05F5FB62 		add	r2, r5, #2008
 366 00c2 2C49     		ldr	r1, .L4+12
 367 00c4 1160     		str	r1, [r2]	@ float
 368 00c6 05F2DC72 		addw	r2, r5, #2012
 369 00ca 05F6B401 		addw	r1, r5, #2228
 370 00ce 1360     		str	r3, [r2]	@ float
 371 00d0 05F5FC62 		add	r2, r5, #2016
 372 00d4 0391     		str	r1, [sp, #12]
 373 00d6 1360     		str	r3, [r2]	@ float
 374 00d8 05F69802 		addw	r2, r5, #2200
 375 00dc 04F15403 		add	r3, r4, #84
 376 00e0 0192     		str	r2, [sp, #4]
 377 00e2 05F6F802 		addw	r2, r5, #2296
 378 00e6 0293     		str	r3, [sp, #8]
 379 00e8 0492     		str	r2, [sp, #16]
 380 00ea 0FCC     		ldmia	r4!, {r0, r1, r2, r3}
 381 00ec AAE80F00 		stmia	r10!, {r0, r1, r2, r3}
 382 00f0 94E80700 		ldm	r4, {r0, r1, r2}
 383 00f4 8AE80700 		stm	r10, {r0, r1, r2}
 384 00f8 B9E80F00 		ldmia	r9!, {r0, r1, r2, r3}
 385 00fc A8E80F00 		stmia	r8!, {r0, r1, r2, r3}
 386 0100 99E80700 		ldm	r9, {r0, r1, r2}
 387 0104 88E80700 		stm	r8, {r0, r1, r2}
 388 0108 0FCF     		ldmia	r7!, {r0, r1, r2, r3}
 389 010a 0FC6     		stmia	r6!, {r0, r1, r2, r3}
 390 010c 97E80700 		ldm	r7, {r0, r1, r2}
 391 0110 029B     		ldr	r3, [sp, #8]
 392 0112 019C     		ldr	r4, [sp, #4]
 393 0114 86E80700 		stm	r6, {r0, r1, r2}
 394 0118 1E46     		mov	r6, r3
 395 011a 2746     		mov	r7, r4
 396 011c 0FCE     		ldmia	r6!, {r0, r1, r2, r3}
 397 011e 0FC7     		stmia	r7!, {r0, r1, r2, r3}
 398 0120 96E80700 		ldm	r6, {r0, r1, r2}
 399 0124 039C     		ldr	r4, [sp, #12]
 400 0126 87E80700 		stm	r7, {r0, r1, r2}
 401 012a BBE80F00 		ldmia	fp!, {r0, r1, r2, r3}
 402 012e 0FC4     		stmia	r4!, {r0, r1, r2, r3}
 403 0130 DBF80030 		ldr	r3, [fp]
 404 0134 2360     		str	r3, [r4]
 405 0136 BEE80F00 		ldmia	lr!, {r0, r1, r2, r3}
 406 013a ACE80F00 		stmia	ip!, {r0, r1, r2, r3}
 407 013e BEE80F00 		ldmia	lr!, {r0, r1, r2, r3}
 408 0142 ACE80F00 		stmia	ip!, {r0, r1, r2, r3}
 409 0146 9EE80F00 		ldm	lr, {r0, r1, r2, r3}
 410 014a 8CE80F00 		stm	ip, {r0, r1, r2, r3}
 411 014e 0598     		ldr	r0, [sp, #20]
 412 0150 049C     		ldr	r4, [sp, #16]
 413 0152 0646     		mov	r6, r0
 414 0154 0FCE     		ldmia	r6!, {r0, r1, r2, r3}
 415 0156 0FC4     		stmia	r4!, {r0, r1, r2, r3}
ARM GAS  C:\Users\39351\AppData\Local\Temp\cccegpNG.s 			page 16


 416 0158 96E80300 		ldm	r6, {r0, r1}
 417 015c 84E80300 		stm	r4, {r0, r1}
 418              	.LBE268:
 419              		.loc 1 6 39 view .LVU78
 420 0160 2846     		mov	r0, r5
 421 0162 07B0     		add	sp, sp, #28
 422              		.cfi_def_cfa_offset 36
 423              		@ sp needed
 424 0164 BDE8F08F 		pop	{r4, r5, r6, r7, r8, r9, r10, fp, pc}
 425              	.LVL10:
 426              	.L5:
 427              		.loc 1 6 39 view .LVU79
 428              		.align	2
 429              	.L4:
 430 0168 01080109 		.word	151062529
 431 016c 00000000 		.word	.LANCHOR0
 432 0170 00004842 		.word	1112014848
 433 0174 0000C642 		.word	1120272384
 434              		.cfi_endproc
 435              	.LFE4907:
 437              		.global	_ZN16PlantConditionerC1Ev
 438              		.thumb_set _ZN16PlantConditionerC1Ev,_ZN16PlantConditionerC2Ev
 439              		.section	.text._ZN16PlantConditionerD2Ev,"ax",%progbits
 440              		.align	1
 441              		.p2align 2,,3
 442              		.global	_ZN16PlantConditionerD2Ev
 443              		.syntax unified
 444              		.thumb
 445              		.thumb_func
 446              		.fpu fpv5-d16
 448              	_ZN16PlantConditionerD2Ev:
 449              	.LVL11:
 450              	.LFB4910:
   7:PSP/PlantConditioner.cpp **** PlantConditioner::~PlantConditioner() {}
 451              		.loc 1 7 1 is_stmt 1 view -0
 452              		.cfi_startproc
 453              		@ args = 0, pretend = 0, frame = 0
 454              		@ frame_needed = 0, uses_anonymous_args = 0
 455              		.loc 1 7 1 is_stmt 0 view .LVU81
 456 0000 10B5     		push	{r4, lr}
 457              		.cfi_def_cfa_offset 8
 458              		.cfi_offset 4, -8
 459              		.cfi_offset 14, -4
 460              		.loc 1 7 1 view .LVU82
 461 0002 0446     		mov	r4, r0
 462              	.LBB269:
 463              		.loc 1 7 37 view .LVU83
 464 0004 00F58760 		add	r0, r0, #1080
 465              	.LVL12:
 466              		.loc 1 7 37 view .LVU84
 467 0008 FFF7FEFF 		bl	_ZN6CapFirD1Ev
 468              	.LVL13:
 469 000c 04F1B400 		add	r0, r4, #180
 470 0010 FFF7FEFF 		bl	_ZN6CapFirD1Ev
 471              	.LVL14:
 472 0014 04F19C00 		add	r0, r4, #156
 473 0018 FFF7FEFF 		bl	_ZN2MFD1Ev
ARM GAS  C:\Users\39351\AppData\Local\Temp\cccegpNG.s 			page 17


 474              	.LVL15:
 475 001c 04F15400 		add	r0, r4, #84
 476 0020 FFF7FEFF 		bl	_ZN3IIRD1Ev
 477              	.LVL16:
 478              	.LBB270:
 479              	.LBI270:
  93:../libs/PoliTeKDSP/libs/libDaisy/src/dev/mpr121.h **** 
 480              		.loc 2 93 5 is_stmt 1 view .LVU85
 481              	.LBB271:
 482              	.LBI271:
  21:../libs/PoliTeKDSP/libs/libDaisy/src/dev/mpr121.h **** 
 483              		.loc 2 21 5 view .LVU86
  21:../libs/PoliTeKDSP/libs/libDaisy/src/dev/mpr121.h **** 
 484              		.loc 2 21 5 is_stmt 0 view .LVU87
 485              	.LBE271:
 486              	.LBE270:
 487              	.LBE269:
 488              		.loc 1 7 40 view .LVU88
 489 0024 2046     		mov	r0, r4
 490 0026 10BD     		pop	{r4, pc}
 491              		.loc 1 7 40 view .LVU89
 492              		.cfi_endproc
 493              	.LFE4910:
 495              		.global	_ZN16PlantConditionerD1Ev
 496              		.thumb_set _ZN16PlantConditionerD1Ev,_ZN16PlantConditionerD2Ev
 497              		.section	.text._ZN16PlantConditioner4InitEN3IIR10FilterTypeEPN5daisy9DaisySeedE,"ax",%progbits
 498              		.align	1
 499              		.p2align 2,,3
 500              		.global	_ZN16PlantConditioner4InitEN3IIR10FilterTypeEPN5daisy9DaisySeedE
 501              		.syntax unified
 502              		.thumb
 503              		.thumb_func
 504              		.fpu fpv5-d16
 506              	_ZN16PlantConditioner4InitEN3IIR10FilterTypeEPN5daisy9DaisySeedE:
 507              	.LVL17:
 508              	.LFB4912:
   8:PSP/PlantConditioner.cpp **** 
   9:PSP/PlantConditioner.cpp **** void PlantConditioner::Init(IIR::FilterType filter_type, daisy::DaisySeed* hw) {
 509              		.loc 1 9 80 is_stmt 1 view -0
 510              		.cfi_startproc
 511              		@ args = 0, pretend = 0, frame = 88
 512              		@ frame_needed = 0, uses_anonymous_args = 0
  10:PSP/PlantConditioner.cpp ****     _hw = hw;
 513              		.loc 1 10 5 view .LVU91
   9:PSP/PlantConditioner.cpp ****     _hw = hw;
 514              		.loc 1 9 80 is_stmt 0 view .LVU92
 515 0000 2DE9F04F 		push	{r4, r5, r6, r7, r8, r9, r10, fp, lr}
 516              		.cfi_def_cfa_offset 36
 517              		.cfi_offset 4, -36
 518              		.cfi_offset 5, -32
 519              		.cfi_offset 6, -28
 520              		.cfi_offset 7, -24
 521              		.cfi_offset 8, -20
 522              		.cfi_offset 9, -16
 523              		.cfi_offset 10, -12
 524              		.cfi_offset 11, -8
 525              		.cfi_offset 14, -4
ARM GAS  C:\Users\39351\AppData\Local\Temp\cccegpNG.s 			page 18


 526 0004 0446     		mov	r4, r0
 527 0006 9BB0     		sub	sp, sp, #108
 528              		.cfi_def_cfa_offset 144
  11:PSP/PlantConditioner.cpp **** 
  12:PSP/PlantConditioner.cpp ****     _mpr121ObjConf.transport_config.speed = daisy::I2CHandle::Config::Speed::I2C_400KHZ;
 529              		.loc 1 12 43 view .LVU93
 530 0008 0127     		movs	r7, #1
  10:PSP/PlantConditioner.cpp **** 
 531              		.loc 1 10 9 view .LVU94
 532 000a C264     		str	r2, [r0, #76]
 533              		.loc 1 12 5 is_stmt 1 view .LVU95
  13:PSP/PlantConditioner.cpp ****     if (_cap.Init(_mpr121ObjConf) != daisy::Mpr121I2C::Result::OK)
 534              		.loc 1 13 5 view .LVU96
 535              	.LVL18:
   9:PSP/PlantConditioner.cpp ****     _hw = hw;
 536              		.loc 1 9 80 is_stmt 0 view .LVU97
 537 000c 0791     		str	r1, [sp, #28]
 538 000e 14AD     		add	r5, sp, #80
  12:PSP/PlantConditioner.cpp ****     if (_cap.Init(_mpr121ObjConf) != daisy::Mpr121I2C::Result::OK)
 539              		.loc 1 12 43 view .LVU98
 540 0010 8763     		str	r7, [r0, #56]
 541              	.LBB714:
 542              	.LBB715:
 104:../libs/PoliTeKDSP/libs/libDaisy/src/dev/mpr121.h ****             release_threshold = MPR121_RELEASE_THRESHOLD_DEFAULT;
 105:../libs/PoliTeKDSP/libs/libDaisy/src/dev/mpr121.h ****         }
 106:../libs/PoliTeKDSP/libs/libDaisy/src/dev/mpr121.h ****     };
 107:../libs/PoliTeKDSP/libs/libDaisy/src/dev/mpr121.h **** 
 108:../libs/PoliTeKDSP/libs/libDaisy/src/dev/mpr121.h ****     enum Result
 109:../libs/PoliTeKDSP/libs/libDaisy/src/dev/mpr121.h ****     {
 110:../libs/PoliTeKDSP/libs/libDaisy/src/dev/mpr121.h ****         OK = 0,
 111:../libs/PoliTeKDSP/libs/libDaisy/src/dev/mpr121.h ****         ERR
 112:../libs/PoliTeKDSP/libs/libDaisy/src/dev/mpr121.h ****     };
 113:../libs/PoliTeKDSP/libs/libDaisy/src/dev/mpr121.h **** 
 114:../libs/PoliTeKDSP/libs/libDaisy/src/dev/mpr121.h ****     /** Initialize the MPR121 device
 115:../libs/PoliTeKDSP/libs/libDaisy/src/dev/mpr121.h ****         \param config Configuration settings
 116:../libs/PoliTeKDSP/libs/libDaisy/src/dev/mpr121.h ****     */
 117:../libs/PoliTeKDSP/libs/libDaisy/src/dev/mpr121.h ****     Result Init(Config config)
 118:../libs/PoliTeKDSP/libs/libDaisy/src/dev/mpr121.h ****     {
 119:../libs/PoliTeKDSP/libs/libDaisy/src/dev/mpr121.h ****         config_ = config;
 543              		.loc 2 119 9 view .LVU99
 544 0012 0DF15009 		add	r9, sp, #80
 545 0016 406B     		ldr	r0, [r0, #52]	@ unaligned
 546              	.LVL19:
 547              		.loc 2 119 9 view .LVU100
 548 0018 A646     		mov	lr, r4
 549 001a A16B     		ldr	r1, [r4, #56]	@ unaligned
 550              	.LVL20:
 551              		.loc 2 119 9 view .LVU101
 552 001c 0DF1280C 		add	ip, sp, #40
 553 0020 E26B     		ldr	r2, [r4, #60]	@ unaligned
 554              	.LVL21:
 555              	.LBB716:
 556              	.LBB717:
  59:../libs/PoliTeKDSP/libs/libDaisy/src/dev/mpr121.h ****     }
 557              		.loc 2 59 50 view .LVU102
 558 0022 0FAE     		add	r6, sp, #60
 559 0024 236C     		ldr	r3, [r4, #64]	@ unaligned
ARM GAS  C:\Users\39351\AppData\Local\Temp\cccegpNG.s 			page 19


  49:../libs/PoliTeKDSP/libs/libDaisy/src/dev/mpr121.h **** 
 560              		.loc 2 49 17 view .LVU103
 561 0026 E246     		mov	r10, ip
 562              	.LBE717:
 563              	.LBE716:
 564              	.LBB729:
 565              	.LBB730:
 566              	.LBB731:
 567              	.LBB732:
  74:../libs/PoliTeKDSP/libs/libDaisy/src/dev/mpr121.h ****                    config_.dev_addr, address, 1, data, size, 10);
 568              		.loc 2 74 42 view .LVU104
 569 0028 E346     		mov	fp, ip
 570              	.LBE732:
 571              	.LBE731:
 572              	.LBB737:
 573              	.LBB738:
 574              	.LBB739:
 575              	.LBB740:
 576              	.LBB741:
  66:../libs/PoliTeKDSP/libs/libDaisy/src/dev/mpr121.h ****                    config_.dev_addr, address, 1, data, size, 10);
 577              		.loc 2 66 41 view .LVU105
 578 002a 4FF00A08 		mov	r8, #10
 579 002e 0FC5     		stmia	r5!, {r0, r1, r2, r3}
 580 0030 B4F84830 		ldrh	r3, [r4, #72]	@ unaligned
 581 0034 606C     		ldr	r0, [r4, #68]	@ unaligned
 582 0036 AB80     		strh	r3, [r5, #4]	@ unaligned
 583              	.LBE741:
 584              	.LBE740:
 585              	.LBE739:
 586              	.LBE738:
 587              	.LBE737:
 588              	.LBE730:
 589              	.LBE729:
 590              	.LBE715:
 591              	.LBI714:
 117:../libs/PoliTeKDSP/libs/libDaisy/src/dev/mpr121.h ****     {
 592              		.loc 2 117 12 is_stmt 1 view .LVU106
 593              	.LBB2434:
 594              		.loc 2 119 9 is_stmt 0 view .LVU107
 595 0038 AB88     		ldrh	r3, [r5, #4]	@ unaligned
 596 003a 2860     		str	r0, [r5]
 120:../libs/PoliTeKDSP/libs/libDaisy/src/dev/mpr121.h **** 
 121:../libs/PoliTeKDSP/libs/libDaisy/src/dev/mpr121.h ****         SetTransportErr(transport_.Init(config_.transport_config));
 597              		.loc 2 121 24 view .LVU108
 598 003c 04F11805 		add	r5, r4, #24
 599              	.LVL22:
 119:../libs/PoliTeKDSP/libs/libDaisy/src/dev/mpr121.h **** 
 600              		.loc 2 119 9 view .LVU109
 601 0040 2061     		str	r0, [r4, #16]	@ unaligned
 602 0042 A382     		strh	r3, [r4, #20]	@ unaligned
 603 0044 B9E80F00 		ldmia	r9!, {r0, r1, r2, r3}
 604 0048 2060     		str	r0, [r4]	@ unaligned
 605              	.LBB825:
 606              	.LBB819:
 607              	.LBB788:
 122:../libs/PoliTeKDSP/libs/libDaisy/src/dev/mpr121.h **** 
 123:../libs/PoliTeKDSP/libs/libDaisy/src/dev/mpr121.h ****         // soft reset
ARM GAS  C:\Users\39351\AppData\Local\Temp\cccegpNG.s 			page 20


 124:../libs/PoliTeKDSP/libs/libDaisy/src/dev/mpr121.h ****         WriteRegister(MPR121_SOFTRESET, 0x63);
 125:../libs/PoliTeKDSP/libs/libDaisy/src/dev/mpr121.h ****         System::Delay(1);
 126:../libs/PoliTeKDSP/libs/libDaisy/src/dev/mpr121.h **** 
 127:../libs/PoliTeKDSP/libs/libDaisy/src/dev/mpr121.h ****         WriteRegister(MPR121_ECR, 0x0);
 128:../libs/PoliTeKDSP/libs/libDaisy/src/dev/mpr121.h **** 
 129:../libs/PoliTeKDSP/libs/libDaisy/src/dev/mpr121.h ****         uint8_t c = ReadRegister8(MPR121_CONFIG2);
 130:../libs/PoliTeKDSP/libs/libDaisy/src/dev/mpr121.h **** 
 131:../libs/PoliTeKDSP/libs/libDaisy/src/dev/mpr121.h ****         if(c != 0x24)
 132:../libs/PoliTeKDSP/libs/libDaisy/src/dev/mpr121.h ****             return ERR;
 133:../libs/PoliTeKDSP/libs/libDaisy/src/dev/mpr121.h **** 
 134:../libs/PoliTeKDSP/libs/libDaisy/src/dev/mpr121.h ****         SetThresholds(config_.touch_threshold, config_.release_threshold);
 135:../libs/PoliTeKDSP/libs/libDaisy/src/dev/mpr121.h ****         WriteRegister(MPR121_MHDR, 0x01);
 136:../libs/PoliTeKDSP/libs/libDaisy/src/dev/mpr121.h ****         WriteRegister(MPR121_NHDR, 0x01);
 137:../libs/PoliTeKDSP/libs/libDaisy/src/dev/mpr121.h ****         WriteRegister(MPR121_NCLR, 0x0E);
 138:../libs/PoliTeKDSP/libs/libDaisy/src/dev/mpr121.h ****         WriteRegister(MPR121_FDLR, 0x00);
 139:../libs/PoliTeKDSP/libs/libDaisy/src/dev/mpr121.h **** 
 140:../libs/PoliTeKDSP/libs/libDaisy/src/dev/mpr121.h ****         WriteRegister(MPR121_MHDF, 0x01);
 141:../libs/PoliTeKDSP/libs/libDaisy/src/dev/mpr121.h ****         WriteRegister(MPR121_NHDF, 0x05);
 142:../libs/PoliTeKDSP/libs/libDaisy/src/dev/mpr121.h ****         WriteRegister(MPR121_NCLF, 0x01);
 143:../libs/PoliTeKDSP/libs/libDaisy/src/dev/mpr121.h ****         WriteRegister(MPR121_FDLF, 0x00);
 144:../libs/PoliTeKDSP/libs/libDaisy/src/dev/mpr121.h **** 
 145:../libs/PoliTeKDSP/libs/libDaisy/src/dev/mpr121.h ****         WriteRegister(MPR121_NHDT, 0x00);
 146:../libs/PoliTeKDSP/libs/libDaisy/src/dev/mpr121.h ****         WriteRegister(MPR121_NCLT, 0x00);
 147:../libs/PoliTeKDSP/libs/libDaisy/src/dev/mpr121.h ****         WriteRegister(MPR121_FDLT, 0x00);
 148:../libs/PoliTeKDSP/libs/libDaisy/src/dev/mpr121.h **** 
 149:../libs/PoliTeKDSP/libs/libDaisy/src/dev/mpr121.h ****         WriteRegister(MPR121_DEBOUNCE, 0);
 150:../libs/PoliTeKDSP/libs/libDaisy/src/dev/mpr121.h ****         WriteRegister(MPR121_CONFIG1, 0x10); // default, 16uA charge current
 151:../libs/PoliTeKDSP/libs/libDaisy/src/dev/mpr121.h ****         WriteRegister(MPR121_CONFIG2, 0x20); // 0.5uS encoding, 1ms period
 152:../libs/PoliTeKDSP/libs/libDaisy/src/dev/mpr121.h **** 
 153:../libs/PoliTeKDSP/libs/libDaisy/src/dev/mpr121.h ****         // autoconfig
 154:../libs/PoliTeKDSP/libs/libDaisy/src/dev/mpr121.h ****         // WriteRegister(MPR121_AUTOCONFIG0, 0x0B);
 155:../libs/PoliTeKDSP/libs/libDaisy/src/dev/mpr121.h **** 
 156:../libs/PoliTeKDSP/libs/libDaisy/src/dev/mpr121.h ****         // correct values for Vdd = 3.3V
 157:../libs/PoliTeKDSP/libs/libDaisy/src/dev/mpr121.h ****         // WriteRegister(MPR121_UPLIMIT, 200);     // ((Vdd - 0.7)/Vdd) * 256
 158:../libs/PoliTeKDSP/libs/libDaisy/src/dev/mpr121.h ****         // WriteRegister(MPR121_TARGETLIMIT, 180); // UPLIMIT * 0.9
 159:../libs/PoliTeKDSP/libs/libDaisy/src/dev/mpr121.h ****         // WriteRegister(MPR121_LOWLIMIT, 130);    // UPLIMIT * 0.65
 160:../libs/PoliTeKDSP/libs/libDaisy/src/dev/mpr121.h ****         // autoconfig
 161:../libs/PoliTeKDSP/libs/libDaisy/src/dev/mpr121.h **** 
 162:../libs/PoliTeKDSP/libs/libDaisy/src/dev/mpr121.h ****         // enable X electrodes and start MPR121
 163:../libs/PoliTeKDSP/libs/libDaisy/src/dev/mpr121.h ****         uint8_t ECR_SETTING
 164:../libs/PoliTeKDSP/libs/libDaisy/src/dev/mpr121.h ****             = 0x80
 165:../libs/PoliTeKDSP/libs/libDaisy/src/dev/mpr121.h ****               + 12; // enable baseline tracking (10) & disable proximity (00) + X
 166:../libs/PoliTeKDSP/libs/libDaisy/src/dev/mpr121.h ****                     // amount of electrodes running (12)
 167:../libs/PoliTeKDSP/libs/libDaisy/src/dev/mpr121.h ****         WriteRegister(MPR121_ECR,
 168:../libs/PoliTeKDSP/libs/libDaisy/src/dev/mpr121.h ****                       ECR_SETTING); // start with above ECR setting
 169:../libs/PoliTeKDSP/libs/libDaisy/src/dev/mpr121.h **** 
 170:../libs/PoliTeKDSP/libs/libDaisy/src/dev/mpr121.h ****         return GetTransportErr();
 171:../libs/PoliTeKDSP/libs/libDaisy/src/dev/mpr121.h ****     }
 172:../libs/PoliTeKDSP/libs/libDaisy/src/dev/mpr121.h **** 
 173:../libs/PoliTeKDSP/libs/libDaisy/src/dev/mpr121.h ****     /** Set the touch and release thresholds for all 13 channels on the
 174:../libs/PoliTeKDSP/libs/libDaisy/src/dev/mpr121.h ****         device to the passed values.
 175:../libs/PoliTeKDSP/libs/libDaisy/src/dev/mpr121.h ****         \param      touch The touch threshold value from 0 to 255.
 176:../libs/PoliTeKDSP/libs/libDaisy/src/dev/mpr121.h ****         \param      release The release threshold from 0 to 255.
 177:../libs/PoliTeKDSP/libs/libDaisy/src/dev/mpr121.h ****     */
 178:../libs/PoliTeKDSP/libs/libDaisy/src/dev/mpr121.h ****     void SetThresholds(uint8_t touch, uint8_t release)
 179:../libs/PoliTeKDSP/libs/libDaisy/src/dev/mpr121.h ****     {
 180:../libs/PoliTeKDSP/libs/libDaisy/src/dev/mpr121.h ****         // set all thresholds (the same)
ARM GAS  C:\Users\39351\AppData\Local\Temp\cccegpNG.s 			page 21


 181:../libs/PoliTeKDSP/libs/libDaisy/src/dev/mpr121.h ****         for(uint8_t i = 0; i < 12; i++)
 182:../libs/PoliTeKDSP/libs/libDaisy/src/dev/mpr121.h ****         {
 183:../libs/PoliTeKDSP/libs/libDaisy/src/dev/mpr121.h ****             WriteRegister(MPR121_TOUCHTH_0 + 2 * i, touch);
 184:../libs/PoliTeKDSP/libs/libDaisy/src/dev/mpr121.h ****             WriteRegister(MPR121_RELEASETH_0 + 2 * i, release);
 185:../libs/PoliTeKDSP/libs/libDaisy/src/dev/mpr121.h ****         }
 186:../libs/PoliTeKDSP/libs/libDaisy/src/dev/mpr121.h ****     }
 187:../libs/PoliTeKDSP/libs/libDaisy/src/dev/mpr121.h **** 
 188:../libs/PoliTeKDSP/libs/libDaisy/src/dev/mpr121.h **** 
 189:../libs/PoliTeKDSP/libs/libDaisy/src/dev/mpr121.h ****     /** Read the filtered data from channel t. The ADC raw data outputs
 190:../libs/PoliTeKDSP/libs/libDaisy/src/dev/mpr121.h ****         run through 3 levels of digital filtering to filter out the high
 191:../libs/PoliTeKDSP/libs/libDaisy/src/dev/mpr121.h ****         frequency and low frequency noise encountered. For detailed information on
 192:../libs/PoliTeKDSP/libs/libDaisy/src/dev/mpr121.h ****         this filtering see page 6 of the device datasheet.
 193:../libs/PoliTeKDSP/libs/libDaisy/src/dev/mpr121.h ****         \param      t the channel to read
 194:../libs/PoliTeKDSP/libs/libDaisy/src/dev/mpr121.h ****         \returns    the filtered reading as a 10 bit unsigned value
 195:../libs/PoliTeKDSP/libs/libDaisy/src/dev/mpr121.h ****     */
 196:../libs/PoliTeKDSP/libs/libDaisy/src/dev/mpr121.h ****     uint16_t FilteredData(uint8_t t)
 197:../libs/PoliTeKDSP/libs/libDaisy/src/dev/mpr121.h ****     {
 198:../libs/PoliTeKDSP/libs/libDaisy/src/dev/mpr121.h ****         if(t > 12)
 199:../libs/PoliTeKDSP/libs/libDaisy/src/dev/mpr121.h ****             return 0;
 200:../libs/PoliTeKDSP/libs/libDaisy/src/dev/mpr121.h ****         return ReadRegister16(MPR121_FILTDATA_0L + t * 2);
 201:../libs/PoliTeKDSP/libs/libDaisy/src/dev/mpr121.h ****     }
 202:../libs/PoliTeKDSP/libs/libDaisy/src/dev/mpr121.h **** 
 203:../libs/PoliTeKDSP/libs/libDaisy/src/dev/mpr121.h ****     /** Read the baseline value for the channel. The 3rd level filtered
 204:../libs/PoliTeKDSP/libs/libDaisy/src/dev/mpr121.h ****         result is internally 10bit but only high 8 bits are readable
 205:../libs/PoliTeKDSP/libs/libDaisy/src/dev/mpr121.h ****         from registers 0x1E~0x2A as the baseline value output for each channel.
 206:../libs/PoliTeKDSP/libs/libDaisy/src/dev/mpr121.h ****         \param      t the channel to read.
 207:../libs/PoliTeKDSP/libs/libDaisy/src/dev/mpr121.h ****         \returns    the baseline data that was read
 208:../libs/PoliTeKDSP/libs/libDaisy/src/dev/mpr121.h ****     */
 209:../libs/PoliTeKDSP/libs/libDaisy/src/dev/mpr121.h ****     uint16_t BaselineData(uint8_t t)
 210:../libs/PoliTeKDSP/libs/libDaisy/src/dev/mpr121.h ****     {
 211:../libs/PoliTeKDSP/libs/libDaisy/src/dev/mpr121.h ****         if(t > 12)
 212:../libs/PoliTeKDSP/libs/libDaisy/src/dev/mpr121.h ****             return 0;
 213:../libs/PoliTeKDSP/libs/libDaisy/src/dev/mpr121.h ****         uint16_t bl = ReadRegister8(MPR121_BASELINE_0 + t);
 214:../libs/PoliTeKDSP/libs/libDaisy/src/dev/mpr121.h ****         return (bl << 2);
 215:../libs/PoliTeKDSP/libs/libDaisy/src/dev/mpr121.h ****     }
 216:../libs/PoliTeKDSP/libs/libDaisy/src/dev/mpr121.h **** 
 217:../libs/PoliTeKDSP/libs/libDaisy/src/dev/mpr121.h ****     /** Read the touch status of all 13 channels as bit values in a 12 bit integer.
 218:../libs/PoliTeKDSP/libs/libDaisy/src/dev/mpr121.h ****         \returns    a 12 bit integer with each bit corresponding to the touch status
 219:../libs/PoliTeKDSP/libs/libDaisy/src/dev/mpr121.h ****         of a sensor. For example, if bit 0 is set then channel 0 of the
 220:../libs/PoliTeKDSP/libs/libDaisy/src/dev/mpr121.h ****         device is currently deemed to be touched.
 221:../libs/PoliTeKDSP/libs/libDaisy/src/dev/mpr121.h ****     */
 222:../libs/PoliTeKDSP/libs/libDaisy/src/dev/mpr121.h ****     uint16_t Touched()
 223:../libs/PoliTeKDSP/libs/libDaisy/src/dev/mpr121.h ****     {
 224:../libs/PoliTeKDSP/libs/libDaisy/src/dev/mpr121.h ****         uint16_t t = ReadRegister16(MPR121_TOUCHSTATUS_L);
 225:../libs/PoliTeKDSP/libs/libDaisy/src/dev/mpr121.h ****         return t & 0x0FFF;
 226:../libs/PoliTeKDSP/libs/libDaisy/src/dev/mpr121.h ****     }
 227:../libs/PoliTeKDSP/libs/libDaisy/src/dev/mpr121.h **** 
 228:../libs/PoliTeKDSP/libs/libDaisy/src/dev/mpr121.h ****     /** Read the contents of an 8 bit device register.
 229:../libs/PoliTeKDSP/libs/libDaisy/src/dev/mpr121.h ****         \param      reg the register address to read from
 230:../libs/PoliTeKDSP/libs/libDaisy/src/dev/mpr121.h ****         \returns    the 8 bit value that was read.
 231:../libs/PoliTeKDSP/libs/libDaisy/src/dev/mpr121.h ****     */
 232:../libs/PoliTeKDSP/libs/libDaisy/src/dev/mpr121.h ****     uint8_t ReadRegister8(uint8_t reg)
 233:../libs/PoliTeKDSP/libs/libDaisy/src/dev/mpr121.h ****     {
 234:../libs/PoliTeKDSP/libs/libDaisy/src/dev/mpr121.h ****         uint8_t buff;
 235:../libs/PoliTeKDSP/libs/libDaisy/src/dev/mpr121.h ****         SetTransportErr(transport_.ReadDataAtAddress(reg, &buff, 1));
 236:../libs/PoliTeKDSP/libs/libDaisy/src/dev/mpr121.h **** 
 237:../libs/PoliTeKDSP/libs/libDaisy/src/dev/mpr121.h ****         return buff;
ARM GAS  C:\Users\39351\AppData\Local\Temp\cccegpNG.s 			page 22


 238:../libs/PoliTeKDSP/libs/libDaisy/src/dev/mpr121.h ****     }
 239:../libs/PoliTeKDSP/libs/libDaisy/src/dev/mpr121.h **** 
 240:../libs/PoliTeKDSP/libs/libDaisy/src/dev/mpr121.h ****     /** Read the contents of a 16 bit device register.
 241:../libs/PoliTeKDSP/libs/libDaisy/src/dev/mpr121.h ****         \param      reg the register address to read from
 242:../libs/PoliTeKDSP/libs/libDaisy/src/dev/mpr121.h ****         \returns    the 16 bit value that was read.
 243:../libs/PoliTeKDSP/libs/libDaisy/src/dev/mpr121.h ****     */
 244:../libs/PoliTeKDSP/libs/libDaisy/src/dev/mpr121.h ****     uint16_t ReadRegister16(uint8_t reg)
 245:../libs/PoliTeKDSP/libs/libDaisy/src/dev/mpr121.h ****     {
 246:../libs/PoliTeKDSP/libs/libDaisy/src/dev/mpr121.h ****         uint16_t buff;
 247:../libs/PoliTeKDSP/libs/libDaisy/src/dev/mpr121.h ****         SetTransportErr(
 248:../libs/PoliTeKDSP/libs/libDaisy/src/dev/mpr121.h ****             transport_.ReadDataAtAddress(reg, (uint8_t *)(&buff), 2));
 249:../libs/PoliTeKDSP/libs/libDaisy/src/dev/mpr121.h **** 
 250:../libs/PoliTeKDSP/libs/libDaisy/src/dev/mpr121.h ****         return buff;
 251:../libs/PoliTeKDSP/libs/libDaisy/src/dev/mpr121.h ****     }
 252:../libs/PoliTeKDSP/libs/libDaisy/src/dev/mpr121.h **** 
 253:../libs/PoliTeKDSP/libs/libDaisy/src/dev/mpr121.h ****     /** Writes 8-bits to the specified destination register
 254:../libs/PoliTeKDSP/libs/libDaisy/src/dev/mpr121.h ****         \param  reg the register address to write to
 255:../libs/PoliTeKDSP/libs/libDaisy/src/dev/mpr121.h ****         \param  value the value to write
 256:../libs/PoliTeKDSP/libs/libDaisy/src/dev/mpr121.h ****     */
 257:../libs/PoliTeKDSP/libs/libDaisy/src/dev/mpr121.h ****     void WriteRegister(uint8_t reg, uint8_t value)
 258:../libs/PoliTeKDSP/libs/libDaisy/src/dev/mpr121.h ****     {
 259:../libs/PoliTeKDSP/libs/libDaisy/src/dev/mpr121.h ****         // MPR121 must be put in Stop Mode to write to most registers
 260:../libs/PoliTeKDSP/libs/libDaisy/src/dev/mpr121.h ****         bool stop_required = true;
 261:../libs/PoliTeKDSP/libs/libDaisy/src/dev/mpr121.h ****         if((reg == MPR121_ECR) || ((0x73 <= reg) && (reg <= 0x7A)))
 262:../libs/PoliTeKDSP/libs/libDaisy/src/dev/mpr121.h ****         {
 263:../libs/PoliTeKDSP/libs/libDaisy/src/dev/mpr121.h ****             stop_required = false;
 264:../libs/PoliTeKDSP/libs/libDaisy/src/dev/mpr121.h ****         }
 265:../libs/PoliTeKDSP/libs/libDaisy/src/dev/mpr121.h **** 
 266:../libs/PoliTeKDSP/libs/libDaisy/src/dev/mpr121.h ****         uint8_t ecr_backup;
 267:../libs/PoliTeKDSP/libs/libDaisy/src/dev/mpr121.h **** 
 268:../libs/PoliTeKDSP/libs/libDaisy/src/dev/mpr121.h ****         if(stop_required)
 269:../libs/PoliTeKDSP/libs/libDaisy/src/dev/mpr121.h ****         {
 270:../libs/PoliTeKDSP/libs/libDaisy/src/dev/mpr121.h ****             ecr_backup   = ReadRegister8(MPR121_ECR);
 271:../libs/PoliTeKDSP/libs/libDaisy/src/dev/mpr121.h ****             uint8_t zero = 0x00;
 608              		.loc 2 271 21 view .LVU110
 609 004a 4FF00009 		mov	r9, #0
 610              	.LBE788:
 611              	.LBE819:
 612              	.LBE825:
 119:../libs/PoliTeKDSP/libs/libDaisy/src/dev/mpr121.h **** 
 613              		.loc 2 119 9 view .LVU111
 614 004e 6160     		str	r1, [r4, #4]	@ unaligned
 615 0050 A260     		str	r2, [r4, #8]	@ unaligned
 616 0052 E360     		str	r3, [r4, #12]	@ unaligned
 617 0054 BEE80F00 		ldmia	lr!, {r0, r1, r2, r3}
 618 0058 ACE80F00 		stmia	ip!, {r0, r1, r2, r3}
 619              	.LBB826:
 620              	.LBB727:
 621              	.LBB718:
 622              	.LBB719:
  29:../libs/PoliTeKDSP/libs/libDaisy/src/per/i2c.h ****     {
 623              		.loc 4 29 12 view .LVU112
 624 005c 4FF01003 		mov	r3, #16
 625              	.LBE719:
 626              	.LBE718:
  53:../libs/PoliTeKDSP/libs/libDaisy/src/dev/mpr121.h ****         i2c_conf.speed  = config.speed;
 627              		.loc 2 53 25 view .LVU113
ARM GAS  C:\Users\39351\AppData\Local\Temp\cccegpNG.s 			page 23


 628 0060 0F90     		str	r0, [sp, #60]
 629              	.LBB725:
 630              	.LBB723:
  29:../libs/PoliTeKDSP/libs/libDaisy/src/per/i2c.h ****     {
 631              		.loc 4 29 12 view .LVU114
 632 0062 8DF84C30 		strb	r3, [sp, #76]
 633 0066 DEF80030 		ldr	r3, [lr]
 634 006a CCF80030 		str	r3, [ip]
 635              	.LBE723:
 636              	.LBE725:
  49:../libs/PoliTeKDSP/libs/libDaisy/src/dev/mpr121.h **** 
 637              		.loc 2 49 17 view .LVU115
 638 006e 84F82C30 		strb	r3, [r4, #44]
 639              	.LVL23:
  49:../libs/PoliTeKDSP/libs/libDaisy/src/dev/mpr121.h **** 
 640              		.loc 2 49 17 view .LVU116
 641              	.LBE727:
 642              	.LBI716:
  47:../libs/PoliTeKDSP/libs/libDaisy/src/dev/mpr121.h ****     {
 643              		.loc 2 47 17 is_stmt 1 view .LVU117
 644              	.LBB728:
  49:../libs/PoliTeKDSP/libs/libDaisy/src/dev/mpr121.h **** 
 645              		.loc 2 49 9 view .LVU118
  51:../libs/PoliTeKDSP/libs/libDaisy/src/dev/mpr121.h ****         i2c_conf.mode   = I2CHandle::Config::Mode::I2C_MASTER;
 646              		.loc 2 51 9 view .LVU119
 647              	.LBB726:
 648              	.LBI718:
  29:../libs/PoliTeKDSP/libs/libDaisy/src/per/i2c.h ****     {
 649              		.loc 4 29 12 view .LVU120
 650              	.LBB724:
 651              	.LBB720:
 652              	.LBI720:
  59:../libs/PoliTeKDSP/libs/libDaisy/src/per/i2c.h ****             Pin scl;  /**< & */
 653              		.loc 4 59 9 view .LVU121
 654              	.LBB721:
 655              	.LBI721:
 656              		.loc 3 204 15 view .LVU122
 657              		.loc 3 204 15 is_stmt 0 view .LVU123
 658              	.LBE721:
 659              	.LBB722:
 660              	.LBI722:
 661              		.loc 3 204 15 is_stmt 1 view .LVU124
 662              		.loc 3 204 15 is_stmt 0 view .LVU125
 663              	.LBE722:
 664              	.LBE720:
 665              	.LBE724:
 666              	.LBE726:
  52:../libs/PoliTeKDSP/libs/libDaisy/src/dev/mpr121.h ****         i2c_conf.periph = config.periph;
 667              		.loc 2 52 9 is_stmt 1 view .LVU126
  54:../libs/PoliTeKDSP/libs/libDaisy/src/dev/mpr121.h **** 
 668              		.loc 2 54 9 view .LVU127
  56:../libs/PoliTeKDSP/libs/libDaisy/src/dev/mpr121.h ****         i2c_conf.pin_config.sda = config.sda;
 669              		.loc 2 56 9 view .LVU128
  52:../libs/PoliTeKDSP/libs/libDaisy/src/dev/mpr121.h ****         i2c_conf.periph = config.periph;
 670              		.loc 2 52 25 is_stmt 0 view .LVU129
 671 0072 0023     		movs	r3, #0
  49:../libs/PoliTeKDSP/libs/libDaisy/src/dev/mpr121.h **** 
ARM GAS  C:\Users\39351\AppData\Local\Temp\cccegpNG.s 			page 24


 672              		.loc 2 49 17 view .LVU130
 673 0074 0A90     		str	r0, [sp, #40]
  54:../libs/PoliTeKDSP/libs/libDaisy/src/dev/mpr121.h **** 
 674              		.loc 2 54 25 view .LVU131
 675 0076 CDE91173 		strd	r7, r3, [sp, #68]
  56:../libs/PoliTeKDSP/libs/libDaisy/src/dev/mpr121.h ****         i2c_conf.pin_config.sda = config.sda;
 676              		.loc 2 56 33 view .LVU132
 677 007a BDF83030 		ldrh	r3, [sp, #48]
 678 007e ADF84030 		strh	r3, [sp, #64]	@ movhi
  57:../libs/PoliTeKDSP/libs/libDaisy/src/dev/mpr121.h **** 
 679              		.loc 2 57 9 is_stmt 1 view .LVU133
  57:../libs/PoliTeKDSP/libs/libDaisy/src/dev/mpr121.h **** 
 680              		.loc 2 57 33 is_stmt 0 view .LVU134
 681 0082 BDF83230 		ldrh	r3, [sp, #50]
 682 0086 ADF84230 		strh	r3, [sp, #66]	@ movhi
  59:../libs/PoliTeKDSP/libs/libDaisy/src/dev/mpr121.h ****     }
 683              		.loc 2 59 9 is_stmt 1 view .LVU135
  49:../libs/PoliTeKDSP/libs/libDaisy/src/dev/mpr121.h **** 
 684              		.loc 2 49 17 is_stmt 0 view .LVU136
 685 008a BAE80F00 		ldmia	r10!, {r0, r1, r2, r3}
  49:../libs/PoliTeKDSP/libs/libDaisy/src/dev/mpr121.h **** 
 686              		.loc 2 49 17 view .LVU137
 687 008e E061     		str	r0, [r4, #28]	@ unaligned
  59:../libs/PoliTeKDSP/libs/libDaisy/src/dev/mpr121.h ****     }
 688              		.loc 2 59 50 view .LVU138
 689 0090 2846     		mov	r0, r5
 690              	.LVL24:
  49:../libs/PoliTeKDSP/libs/libDaisy/src/dev/mpr121.h **** 
 691              		.loc 2 49 17 view .LVU139
 692 0092 2162     		str	r1, [r4, #32]	@ unaligned
  59:../libs/PoliTeKDSP/libs/libDaisy/src/dev/mpr121.h ****     }
 693              		.loc 2 59 50 view .LVU140
 694 0094 3146     		mov	r1, r6
  49:../libs/PoliTeKDSP/libs/libDaisy/src/dev/mpr121.h **** 
 695              		.loc 2 49 17 view .LVU141
 696 0096 6262     		str	r2, [r4, #36]	@ unaligned
 697 0098 A362     		str	r3, [r4, #40]	@ unaligned
  59:../libs/PoliTeKDSP/libs/libDaisy/src/dev/mpr121.h ****     }
 698              		.loc 2 59 50 view .LVU142
 699 009a FFF7FEFF 		bl	_ZN5daisy9I2CHandle4InitERKNS0_6ConfigE
 700              	.LVL25:
  59:../libs/PoliTeKDSP/libs/libDaisy/src/dev/mpr121.h ****     }
 701              		.loc 2 59 50 view .LVU143
 702              	.LBE728:
 703              	.LBE826:
 704              	.LBB827:
 705              	.LBI827:
 272:../libs/PoliTeKDSP/libs/libDaisy/src/dev/mpr121.h ****             // clear this register to set stop mode
 273:../libs/PoliTeKDSP/libs/libDaisy/src/dev/mpr121.h ****             SetTransportErr(
 274:../libs/PoliTeKDSP/libs/libDaisy/src/dev/mpr121.h ****                 transport_.WriteDataAtAddress(MPR121_ECR, &zero, 1));
 275:../libs/PoliTeKDSP/libs/libDaisy/src/dev/mpr121.h ****         }
 276:../libs/PoliTeKDSP/libs/libDaisy/src/dev/mpr121.h **** 
 277:../libs/PoliTeKDSP/libs/libDaisy/src/dev/mpr121.h ****         SetTransportErr(transport_.WriteDataAtAddress(reg, &value, 1));
 278:../libs/PoliTeKDSP/libs/libDaisy/src/dev/mpr121.h **** 
 279:../libs/PoliTeKDSP/libs/libDaisy/src/dev/mpr121.h ****         if(stop_required)
 280:../libs/PoliTeKDSP/libs/libDaisy/src/dev/mpr121.h ****         {
 281:../libs/PoliTeKDSP/libs/libDaisy/src/dev/mpr121.h ****             // write back the previous set ECR settings
ARM GAS  C:\Users\39351\AppData\Local\Temp\cccegpNG.s 			page 25


 282:../libs/PoliTeKDSP/libs/libDaisy/src/dev/mpr121.h ****             SetTransportErr(
 283:../libs/PoliTeKDSP/libs/libDaisy/src/dev/mpr121.h ****                 transport_.WriteDataAtAddress(MPR121_ECR, &ecr_backup, 1));
 284:../libs/PoliTeKDSP/libs/libDaisy/src/dev/mpr121.h ****         }
 285:../libs/PoliTeKDSP/libs/libDaisy/src/dev/mpr121.h ****     }
 286:../libs/PoliTeKDSP/libs/libDaisy/src/dev/mpr121.h **** 
 287:../libs/PoliTeKDSP/libs/libDaisy/src/dev/mpr121.h ****     /** Device register map */
 288:../libs/PoliTeKDSP/libs/libDaisy/src/dev/mpr121.h ****     enum RegMap
 289:../libs/PoliTeKDSP/libs/libDaisy/src/dev/mpr121.h ****     {
 290:../libs/PoliTeKDSP/libs/libDaisy/src/dev/mpr121.h ****         MPR121_TOUCHSTATUS_L = 0x00,
 291:../libs/PoliTeKDSP/libs/libDaisy/src/dev/mpr121.h ****         MPR121_TOUCHSTATUS_H = 0x01,
 292:../libs/PoliTeKDSP/libs/libDaisy/src/dev/mpr121.h ****         MPR121_FILTDATA_0L   = 0x04,
 293:../libs/PoliTeKDSP/libs/libDaisy/src/dev/mpr121.h ****         MPR121_FILTDATA_0H   = 0x05,
 294:../libs/PoliTeKDSP/libs/libDaisy/src/dev/mpr121.h ****         MPR121_BASELINE_0    = 0x1E,
 295:../libs/PoliTeKDSP/libs/libDaisy/src/dev/mpr121.h ****         MPR121_MHDR          = 0x2B,
 296:../libs/PoliTeKDSP/libs/libDaisy/src/dev/mpr121.h ****         MPR121_NHDR          = 0x2C,
 297:../libs/PoliTeKDSP/libs/libDaisy/src/dev/mpr121.h ****         MPR121_NCLR          = 0x2D,
 298:../libs/PoliTeKDSP/libs/libDaisy/src/dev/mpr121.h ****         MPR121_FDLR          = 0x2E,
 299:../libs/PoliTeKDSP/libs/libDaisy/src/dev/mpr121.h ****         MPR121_MHDF          = 0x2F,
 300:../libs/PoliTeKDSP/libs/libDaisy/src/dev/mpr121.h ****         MPR121_NHDF          = 0x30,
 301:../libs/PoliTeKDSP/libs/libDaisy/src/dev/mpr121.h ****         MPR121_NCLF          = 0x31,
 302:../libs/PoliTeKDSP/libs/libDaisy/src/dev/mpr121.h ****         MPR121_FDLF          = 0x32,
 303:../libs/PoliTeKDSP/libs/libDaisy/src/dev/mpr121.h ****         MPR121_NHDT          = 0x33,
 304:../libs/PoliTeKDSP/libs/libDaisy/src/dev/mpr121.h ****         MPR121_NCLT          = 0x34,
 305:../libs/PoliTeKDSP/libs/libDaisy/src/dev/mpr121.h ****         MPR121_FDLT          = 0x35,
 306:../libs/PoliTeKDSP/libs/libDaisy/src/dev/mpr121.h **** 
 307:../libs/PoliTeKDSP/libs/libDaisy/src/dev/mpr121.h ****         MPR121_TOUCHTH_0    = 0x41,
 308:../libs/PoliTeKDSP/libs/libDaisy/src/dev/mpr121.h ****         MPR121_RELEASETH_0  = 0x42,
 309:../libs/PoliTeKDSP/libs/libDaisy/src/dev/mpr121.h ****         MPR121_DEBOUNCE     = 0x5B,
 310:../libs/PoliTeKDSP/libs/libDaisy/src/dev/mpr121.h ****         MPR121_CONFIG1      = 0x5C,
 311:../libs/PoliTeKDSP/libs/libDaisy/src/dev/mpr121.h ****         MPR121_CONFIG2      = 0x5D,
 312:../libs/PoliTeKDSP/libs/libDaisy/src/dev/mpr121.h ****         MPR121_CHARGECURR_0 = 0x5F,
 313:../libs/PoliTeKDSP/libs/libDaisy/src/dev/mpr121.h ****         MPR121_CHARGETIME_1 = 0x6C,
 314:../libs/PoliTeKDSP/libs/libDaisy/src/dev/mpr121.h ****         MPR121_ECR          = 0x5E,
 315:../libs/PoliTeKDSP/libs/libDaisy/src/dev/mpr121.h ****         MPR121_AUTOCONFIG0  = 0x7B,
 316:../libs/PoliTeKDSP/libs/libDaisy/src/dev/mpr121.h ****         MPR121_AUTOCONFIG1  = 0x7C,
 317:../libs/PoliTeKDSP/libs/libDaisy/src/dev/mpr121.h ****         MPR121_UPLIMIT      = 0x7D,
 318:../libs/PoliTeKDSP/libs/libDaisy/src/dev/mpr121.h ****         MPR121_LOWLIMIT     = 0x7E,
 319:../libs/PoliTeKDSP/libs/libDaisy/src/dev/mpr121.h ****         MPR121_TARGETLIMIT  = 0x7F,
 320:../libs/PoliTeKDSP/libs/libDaisy/src/dev/mpr121.h **** 
 321:../libs/PoliTeKDSP/libs/libDaisy/src/dev/mpr121.h ****         MPR121_GPIODIR    = 0x76,
 322:../libs/PoliTeKDSP/libs/libDaisy/src/dev/mpr121.h ****         MPR121_GPIOEN     = 0x77,
 323:../libs/PoliTeKDSP/libs/libDaisy/src/dev/mpr121.h ****         MPR121_GPIOSET    = 0x78,
 324:../libs/PoliTeKDSP/libs/libDaisy/src/dev/mpr121.h ****         MPR121_GPIOCLR    = 0x79,
 325:../libs/PoliTeKDSP/libs/libDaisy/src/dev/mpr121.h ****         MPR121_GPIOTOGGLE = 0x7A,
 326:../libs/PoliTeKDSP/libs/libDaisy/src/dev/mpr121.h **** 
 327:../libs/PoliTeKDSP/libs/libDaisy/src/dev/mpr121.h ****         MPR121_SOFTRESET = 0x80,
 328:../libs/PoliTeKDSP/libs/libDaisy/src/dev/mpr121.h ****     };
 329:../libs/PoliTeKDSP/libs/libDaisy/src/dev/mpr121.h **** 
 330:../libs/PoliTeKDSP/libs/libDaisy/src/dev/mpr121.h ****   private:
 331:../libs/PoliTeKDSP/libs/libDaisy/src/dev/mpr121.h ****     Config    config_;
 332:../libs/PoliTeKDSP/libs/libDaisy/src/dev/mpr121.h ****     Transport transport_;
 333:../libs/PoliTeKDSP/libs/libDaisy/src/dev/mpr121.h ****     bool      transport_error_;
 334:../libs/PoliTeKDSP/libs/libDaisy/src/dev/mpr121.h **** 
 335:../libs/PoliTeKDSP/libs/libDaisy/src/dev/mpr121.h ****     /** Set the global transport_error_ bool */
 336:../libs/PoliTeKDSP/libs/libDaisy/src/dev/mpr121.h ****     void SetTransportErr(bool err) { transport_error_ |= err; }
 706              		.loc 2 336 10 is_stmt 1 view .LVU144
 707              	.LBE827:
ARM GAS  C:\Users\39351\AppData\Local\Temp\cccegpNG.s 			page 26


 708              	.LBB831:
 709              	.LBB820:
 710              	.LBB789:
 711              	.LBB764:
 712              	.LBB757:
 713              	.LBB746:
 714              	.LBB742:
  66:../libs/PoliTeKDSP/libs/libDaisy/src/dev/mpr121.h ****                    config_.dev_addr, address, 1, data, size, 10);
 715              		.loc 2 66 41 is_stmt 0 view .LVU145
 716 009e 0096     		str	r6, [sp]
 717 00a0 5E22     		movs	r2, #94
 718 00a2 CDE90178 		strd	r7, r8, [sp, #4]
 719              	.LBE742:
 720              	.LBE746:
 721              	.LBE757:
 722              	.LBE764:
 723              	.LBE789:
 724              	.LBE820:
 725              	.LBE831:
 726              	.LBB832:
 727              	.LBB828:
 728              		.loc 2 336 55 view .LVU146
 729 00a6 94F83030 		ldrb	r3, [r4, #48]	@ zero_extendqisi2
 730              	.LBE828:
 731              	.LBE832:
 732              	.LBB833:
 733              	.LBB821:
 734              	.LBB790:
 735              	.LBB765:
 736              	.LBB758:
 737              	.LBB747:
 738              	.LBB743:
  66:../libs/PoliTeKDSP/libs/libDaisy/src/dev/mpr121.h ****                    config_.dev_addr, address, 1, data, size, 10);
 739              		.loc 2 66 41 view .LVU147
 740 00aa 94F82C10 		ldrb	r1, [r4, #44]	@ zero_extendqisi2
 741              	.LBE743:
 742              	.LBE747:
 743              	.LBE758:
 744              	.LBE765:
 745              	.LBE790:
 746              	.LBE821:
 747              	.LBE833:
 748              	.LBB834:
 749              	.LBB829:
 750              		.loc 2 336 55 view .LVU148
 751 00ae 0028     		cmp	r0, #0
 752 00b0 18BF     		it	ne
 753 00b2 43F00103 		orrne	r3, r3, #1
 754              	.LBE829:
 755              	.LBE834:
 756              	.LBB835:
 757              	.LBB822:
 758              	.LBB791:
 759              	.LBB766:
 760              	.LBB759:
 761              	.LBB748:
 762              	.LBB744:
ARM GAS  C:\Users\39351\AppData\Local\Temp\cccegpNG.s 			page 27


  66:../libs/PoliTeKDSP/libs/libDaisy/src/dev/mpr121.h ****                    config_.dev_addr, address, 1, data, size, 10);
 763              		.loc 2 66 41 view .LVU149
 764 00b6 2846     		mov	r0, r5
 765              	.LVL26:
  66:../libs/PoliTeKDSP/libs/libDaisy/src/dev/mpr121.h ****                    config_.dev_addr, address, 1, data, size, 10);
 766              		.loc 2 66 41 view .LVU150
 767              	.LBE744:
 768              	.LBE748:
 769              	.LBE759:
 770              	.LBE766:
 771              	.LBE791:
 772              	.LBE822:
 773              	.LBE835:
 774              	.LBB836:
 775              	.LBB830:
 776              		.loc 2 336 55 view .LVU151
 777 00b8 84F83030 		strb	r3, [r4, #48]
 778              	.LVL27:
 779              		.loc 2 336 55 view .LVU152
 780 00bc 6323     		movs	r3, #99
 781 00be 8DF82730 		strb	r3, [sp, #39]
 782              	.LVL28:
 783              		.loc 2 336 55 view .LVU153
 784              	.LBE830:
 785              	.LBE836:
 786              	.LBB837:
 787              	.LBI729:
 257:../libs/PoliTeKDSP/libs/libDaisy/src/dev/mpr121.h ****     {
 788              		.loc 2 257 10 is_stmt 1 view .LVU154
 789              	.LBB823:
 790              	.LBB792:
 791              	.LBB767:
 792              	.LBI738:
 232:../libs/PoliTeKDSP/libs/libDaisy/src/dev/mpr121.h ****     {
 793              		.loc 2 232 13 view .LVU155
 794              	.LBB760:
 795              	.LBB749:
 796              	.LBI740:
  63:../libs/PoliTeKDSP/libs/libDaisy/src/dev/mpr121.h ****     {
 797              		.loc 2 63 10 view .LVU156
 798              	.LBB745:
  65:../libs/PoliTeKDSP/libs/libDaisy/src/dev/mpr121.h ****                != i2c_.ReadDataAtAddress(
 799              		.loc 2 65 9 view .LVU157
  66:../libs/PoliTeKDSP/libs/libDaisy/src/dev/mpr121.h ****                    config_.dev_addr, address, 1, data, size, 10);
 800              		.loc 2 66 41 is_stmt 0 view .LVU158
 801 00c2 3B46     		mov	r3, r7
 802              	.LVL29:
  66:../libs/PoliTeKDSP/libs/libDaisy/src/dev/mpr121.h ****                    config_.dev_addr, address, 1, data, size, 10);
 803              		.loc 2 66 41 view .LVU159
 804 00c4 FFF7FEFF 		bl	_ZN5daisy9I2CHandle17ReadDataAtAddressEtttPhtm
 805              	.LVL30:
  66:../libs/PoliTeKDSP/libs/libDaisy/src/dev/mpr121.h ****                    config_.dev_addr, address, 1, data, size, 10);
 806              		.loc 2 66 41 view .LVU160
 807              	.LBE745:
 808              	.LBE749:
 809              	.LBB750:
 810              	.LBI750:
ARM GAS  C:\Users\39351\AppData\Local\Temp\cccegpNG.s 			page 28


 811              		.loc 2 336 10 is_stmt 1 view .LVU161
 812              	.LBE750:
 813              	.LBE760:
 814              	.LBE767:
 815              	.LBB768:
 816              	.LBB769:
  74:../libs/PoliTeKDSP/libs/libDaisy/src/dev/mpr121.h ****                    config_.dev_addr, address, 1, data, size, 10);
 817              		.loc 2 74 42 is_stmt 0 view .LVU162
 818 00c8 0096     		str	r6, [sp]
 819 00ca 5E22     		movs	r2, #94
 820 00cc CDE90178 		strd	r7, r8, [sp, #4]
 821              	.LBE769:
 822              	.LBE768:
 823              	.LBB774:
 824              	.LBB761:
 825              	.LBB754:
 826              	.LBB751:
 827              		.loc 2 336 55 view .LVU163
 828 00d0 94F83030 		ldrb	r3, [r4, #48]	@ zero_extendqisi2
 829              	.LBE751:
 830              	.LBE754:
 831              	.LBE761:
 832              	.LBE774:
 833              	.LBB775:
 834              	.LBB770:
  74:../libs/PoliTeKDSP/libs/libDaisy/src/dev/mpr121.h ****                    config_.dev_addr, address, 1, data, size, 10);
 835              		.loc 2 74 42 view .LVU164
 836 00d4 94F82C10 		ldrb	r1, [r4, #44]	@ zero_extendqisi2
 837              	.LBE770:
 838              	.LBE775:
 839              	.LBB776:
 840              	.LBB762:
 841              	.LBB755:
 842              	.LBB752:
 843              		.loc 2 336 55 view .LVU165
 844 00d8 0028     		cmp	r0, #0
 845 00da 18BF     		it	ne
 846 00dc 43F00103 		orrne	r3, r3, #1
 847              	.LBE752:
 848              	.LBE755:
 849              	.LBE762:
 850              	.LBE776:
 851              	.LBB777:
 852              	.LBB771:
  74:../libs/PoliTeKDSP/libs/libDaisy/src/dev/mpr121.h ****                    config_.dev_addr, address, 1, data, size, 10);
 853              		.loc 2 74 42 view .LVU166
 854 00e0 2846     		mov	r0, r5
 855              	.LVL31:
  74:../libs/PoliTeKDSP/libs/libDaisy/src/dev/mpr121.h ****                    config_.dev_addr, address, 1, data, size, 10);
 856              		.loc 2 74 42 view .LVU167
 857              	.LBE771:
 858              	.LBE777:
 859              	.LBB778:
 860              	.LBB763:
 861              	.LBB756:
 862              	.LBB753:
 863              		.loc 2 336 55 view .LVU168
ARM GAS  C:\Users\39351\AppData\Local\Temp\cccegpNG.s 			page 29


 864 00e2 84F83030 		strb	r3, [r4, #48]
 865              	.LVL32:
 866              		.loc 2 336 55 view .LVU169
 867              	.LBE753:
 868              	.LBE756:
 237:../libs/PoliTeKDSP/libs/libDaisy/src/dev/mpr121.h ****     }
 869              		.loc 2 237 16 view .LVU170
 870 00e6 9DF83C30 		ldrb	r3, [sp, #60]	@ zero_extendqisi2
 871              	.LVL33:
 237:../libs/PoliTeKDSP/libs/libDaisy/src/dev/mpr121.h ****     }
 872              		.loc 2 237 16 view .LVU171
 873              	.LBE763:
 874              	.LBE778:
 271:../libs/PoliTeKDSP/libs/libDaisy/src/dev/mpr121.h ****             // clear this register to set stop mode
 875              		.loc 2 271 21 view .LVU172
 876 00ea 8DF83C90 		strb	r9, [sp, #60]
 877              	.LVL34:
 878              	.LBB779:
 879              	.LBI768:
  71:../libs/PoliTeKDSP/libs/libDaisy/src/dev/mpr121.h ****     {
 880              		.loc 2 71 10 is_stmt 1 view .LVU173
 881              	.LBB772:
  73:../libs/PoliTeKDSP/libs/libDaisy/src/dev/mpr121.h ****                != i2c_.WriteDataAtAddress(
 882              		.loc 2 73 9 view .LVU174
 883              	.LBE772:
 884              	.LBE779:
 270:../libs/PoliTeKDSP/libs/libDaisy/src/dev/mpr121.h ****             uint8_t zero = 0x00;
 885              		.loc 2 270 26 is_stmt 0 view .LVU175
 886 00ee 8DF82830 		strb	r3, [sp, #40]
 887              	.LBB780:
 888              	.LBB773:
  74:../libs/PoliTeKDSP/libs/libDaisy/src/dev/mpr121.h ****                    config_.dev_addr, address, 1, data, size, 10);
 889              		.loc 2 74 42 view .LVU176
 890 00f2 3B46     		mov	r3, r7
 891 00f4 FFF7FEFF 		bl	_ZN5daisy9I2CHandle18WriteDataAtAddressEtttPhtm
 892              	.LVL35:
  74:../libs/PoliTeKDSP/libs/libDaisy/src/dev/mpr121.h ****                    config_.dev_addr, address, 1, data, size, 10);
 893              		.loc 2 74 42 view .LVU177
 894              	.LBE773:
 895              	.LBE780:
 896              	.LBB781:
 897              	.LBI781:
 898              		.loc 2 336 10 is_stmt 1 view .LVU178
 899              	.LBE781:
 900              	.LBE792:
 901              	.LBB793:
 902              	.LBB794:
  74:../libs/PoliTeKDSP/libs/libDaisy/src/dev/mpr121.h ****                    config_.dev_addr, address, 1, data, size, 10);
 903              		.loc 2 74 42 is_stmt 0 view .LVU179
 904 00f8 0DF12703 		add	r3, sp, #39
 905 00fc 8022     		movs	r2, #128
 906 00fe 0093     		str	r3, [sp]
 907 0100 CDE90178 		strd	r7, r8, [sp, #4]
 908              	.LBE794:
 909              	.LBE793:
 910              	.LBB798:
 911              	.LBB785:
ARM GAS  C:\Users\39351\AppData\Local\Temp\cccegpNG.s 			page 30


 912              	.LBB782:
 913              		.loc 2 336 55 view .LVU180
 914 0104 94F83030 		ldrb	r3, [r4, #48]	@ zero_extendqisi2
 915              	.LBE782:
 916              	.LBE785:
 917              	.LBE798:
 918              	.LBB799:
 919              	.LBB795:
  74:../libs/PoliTeKDSP/libs/libDaisy/src/dev/mpr121.h ****                    config_.dev_addr, address, 1, data, size, 10);
 920              		.loc 2 74 42 view .LVU181
 921 0108 94F82C10 		ldrb	r1, [r4, #44]	@ zero_extendqisi2
 922              	.LBE795:
 923              	.LBE799:
 924              	.LBB800:
 925              	.LBB786:
 926              	.LBB783:
 927              		.loc 2 336 55 view .LVU182
 928 010c 0028     		cmp	r0, #0
 929 010e 18BF     		it	ne
 930 0110 43F00103 		orrne	r3, r3, #1
 931              	.LBE783:
 932              	.LBE786:
 933              	.LBE800:
 934              	.LBB801:
 935              	.LBB796:
  74:../libs/PoliTeKDSP/libs/libDaisy/src/dev/mpr121.h ****                    config_.dev_addr, address, 1, data, size, 10);
 936              		.loc 2 74 42 view .LVU183
 937 0114 2846     		mov	r0, r5
 938              	.LVL36:
  74:../libs/PoliTeKDSP/libs/libDaisy/src/dev/mpr121.h ****                    config_.dev_addr, address, 1, data, size, 10);
 939              		.loc 2 74 42 view .LVU184
 940              	.LBE796:
 941              	.LBE801:
 942              	.LBB802:
 943              	.LBB787:
 944              	.LBB784:
 945              		.loc 2 336 55 view .LVU185
 946 0116 84F83030 		strb	r3, [r4, #48]
 947              	.LVL37:
 948              		.loc 2 336 55 view .LVU186
 949              	.LBE784:
 950              	.LBE787:
 951              	.LBE802:
 952              	.LBB803:
 953              	.LBI793:
  71:../libs/PoliTeKDSP/libs/libDaisy/src/dev/mpr121.h ****     {
 954              		.loc 2 71 10 is_stmt 1 view .LVU187
 955              	.LBB797:
  73:../libs/PoliTeKDSP/libs/libDaisy/src/dev/mpr121.h ****                != i2c_.WriteDataAtAddress(
 956              		.loc 2 73 9 view .LVU188
  74:../libs/PoliTeKDSP/libs/libDaisy/src/dev/mpr121.h ****                    config_.dev_addr, address, 1, data, size, 10);
 957              		.loc 2 74 42 is_stmt 0 view .LVU189
 958 011a 3B46     		mov	r3, r7
 959 011c FFF7FEFF 		bl	_ZN5daisy9I2CHandle18WriteDataAtAddressEtttPhtm
 960              	.LVL38:
  74:../libs/PoliTeKDSP/libs/libDaisy/src/dev/mpr121.h ****                    config_.dev_addr, address, 1, data, size, 10);
 961              		.loc 2 74 42 view .LVU190
ARM GAS  C:\Users\39351\AppData\Local\Temp\cccegpNG.s 			page 31


 962              	.LBE797:
 963              	.LBE803:
 964              	.LBB804:
 965              	.LBI804:
 966              		.loc 2 336 10 is_stmt 1 view .LVU191
 967              	.LBE804:
 968              	.LBB808:
 969              	.LBB733:
  74:../libs/PoliTeKDSP/libs/libDaisy/src/dev/mpr121.h ****                    config_.dev_addr, address, 1, data, size, 10);
 970              		.loc 2 74 42 is_stmt 0 view .LVU192
 971 0120 CDF800B0 		str	fp, [sp]
 972 0124 5E22     		movs	r2, #94
 973 0126 CDE90178 		strd	r7, r8, [sp, #4]
 974              	.LBE733:
 975              	.LBE808:
 976              	.LBB809:
 977              	.LBB805:
 978              		.loc 2 336 55 view .LVU193
 979 012a 94F83030 		ldrb	r3, [r4, #48]	@ zero_extendqisi2
 980              	.LBE805:
 981              	.LBE809:
 982              	.LBB810:
 983              	.LBB734:
  74:../libs/PoliTeKDSP/libs/libDaisy/src/dev/mpr121.h ****                    config_.dev_addr, address, 1, data, size, 10);
 984              		.loc 2 74 42 view .LVU194
 985 012e 94F82C10 		ldrb	r1, [r4, #44]	@ zero_extendqisi2
 986              	.LBE734:
 987              	.LBE810:
 988              	.LBB811:
 989              	.LBB806:
 990              		.loc 2 336 55 view .LVU195
 991 0132 0028     		cmp	r0, #0
 992 0134 18BF     		it	ne
 993 0136 43F00103 		orrne	r3, r3, #1
 994              	.LBE806:
 995              	.LBE811:
 996              	.LBB812:
 997              	.LBB735:
  74:../libs/PoliTeKDSP/libs/libDaisy/src/dev/mpr121.h ****                    config_.dev_addr, address, 1, data, size, 10);
 998              		.loc 2 74 42 view .LVU196
 999 013a 2846     		mov	r0, r5
 1000              	.LVL39:
  74:../libs/PoliTeKDSP/libs/libDaisy/src/dev/mpr121.h ****                    config_.dev_addr, address, 1, data, size, 10);
 1001              		.loc 2 74 42 view .LVU197
 1002              	.LBE735:
 1003              	.LBE812:
 1004              	.LBB813:
 1005              	.LBB807:
 1006              		.loc 2 336 55 view .LVU198
 1007 013c 84F83030 		strb	r3, [r4, #48]
 1008              	.LVL40:
 1009              		.loc 2 336 55 view .LVU199
 1010              	.LBE807:
 1011              	.LBE813:
 1012              	.LBB814:
 1013              	.LBI731:
  71:../libs/PoliTeKDSP/libs/libDaisy/src/dev/mpr121.h ****     {
ARM GAS  C:\Users\39351\AppData\Local\Temp\cccegpNG.s 			page 32


 1014              		.loc 2 71 10 is_stmt 1 view .LVU200
 1015              	.LBB736:
  73:../libs/PoliTeKDSP/libs/libDaisy/src/dev/mpr121.h ****                != i2c_.WriteDataAtAddress(
 1016              		.loc 2 73 9 view .LVU201
  74:../libs/PoliTeKDSP/libs/libDaisy/src/dev/mpr121.h ****                    config_.dev_addr, address, 1, data, size, 10);
 1017              		.loc 2 74 42 is_stmt 0 view .LVU202
 1018 0140 3B46     		mov	r3, r7
 1019 0142 FFF7FEFF 		bl	_ZN5daisy9I2CHandle18WriteDataAtAddressEtttPhtm
 1020              	.LVL41:
  74:../libs/PoliTeKDSP/libs/libDaisy/src/dev/mpr121.h ****                    config_.dev_addr, address, 1, data, size, 10);
 1021              		.loc 2 74 42 view .LVU203
 1022              	.LBE736:
 1023              	.LBE814:
 1024              	.LBB815:
 1025              	.LBI815:
 1026              		.loc 2 336 10 is_stmt 1 view .LVU204
 1027              	.LBB816:
 1028              		.loc 2 336 55 is_stmt 0 view .LVU205
 1029 0146 94F83030 		ldrb	r3, [r4, #48]	@ zero_extendqisi2
 1030 014a 0028     		cmp	r0, #0
 1031 014c 18BF     		it	ne
 1032 014e 43F00103 		orrne	r3, r3, #1
 1033              	.LBE816:
 1034              	.LBE815:
 1035              	.LBE823:
 1036              	.LBE837:
 125:../libs/PoliTeKDSP/libs/libDaisy/src/dev/mpr121.h **** 
 1037              		.loc 2 125 22 view .LVU206
 1038 0152 3846     		mov	r0, r7
 1039              	.LVL42:
 1040              	.LBB838:
 1041              	.LBB824:
 1042              	.LBB818:
 1043              	.LBB817:
 1044              		.loc 2 336 55 view .LVU207
 1045 0154 84F83030 		strb	r3, [r4, #48]
 1046              	.LVL43:
 1047              		.loc 2 336 55 view .LVU208
 1048              	.LBE817:
 1049              	.LBE818:
 1050              	.LBE824:
 1051              	.LBE838:
 125:../libs/PoliTeKDSP/libs/libDaisy/src/dev/mpr121.h **** 
 1052              		.loc 2 125 22 view .LVU209
 1053 0158 FFF7FEFF 		bl	_ZN5daisy6System5DelayEm
 1054              	.LVL44:
 1055              	.LBB839:
 1056              	.LBB840:
 1057              	.LBB841:
 1058              	.LBB842:
  74:../libs/PoliTeKDSP/libs/libDaisy/src/dev/mpr121.h ****                    config_.dev_addr, address, 1, data, size, 10);
 1059              		.loc 2 74 42 view .LVU210
 1060 015c 3B46     		mov	r3, r7
 1061 015e 5E22     		movs	r2, #94
 1062 0160 0096     		str	r6, [sp]
 1063 0162 2846     		mov	r0, r5
 1064 0164 8DF83C90 		strb	r9, [sp, #60]
ARM GAS  C:\Users\39351\AppData\Local\Temp\cccegpNG.s 			page 33


 1065              	.LVL45:
  74:../libs/PoliTeKDSP/libs/libDaisy/src/dev/mpr121.h ****                    config_.dev_addr, address, 1, data, size, 10);
 1066              		.loc 2 74 42 view .LVU211
 1067              	.LBE842:
 1068              	.LBE841:
 1069              	.LBE840:
 1070              	.LBI839:
 257:../libs/PoliTeKDSP/libs/libDaisy/src/dev/mpr121.h ****     {
 1071              		.loc 2 257 10 is_stmt 1 view .LVU212
 1072              	.LBB852:
 1073              	.LBB844:
 1074              	.LBI841:
  71:../libs/PoliTeKDSP/libs/libDaisy/src/dev/mpr121.h ****     {
 1075              		.loc 2 71 10 view .LVU213
 1076              	.LBB843:
  73:../libs/PoliTeKDSP/libs/libDaisy/src/dev/mpr121.h ****                != i2c_.WriteDataAtAddress(
 1077              		.loc 2 73 9 view .LVU214
  74:../libs/PoliTeKDSP/libs/libDaisy/src/dev/mpr121.h ****                    config_.dev_addr, address, 1, data, size, 10);
 1078              		.loc 2 74 42 is_stmt 0 view .LVU215
 1079 0168 CDE90178 		strd	r7, r8, [sp, #4]
 1080 016c 94F82C10 		ldrb	r1, [r4, #44]	@ zero_extendqisi2
 1081 0170 FFF7FEFF 		bl	_ZN5daisy9I2CHandle18WriteDataAtAddressEtttPhtm
 1082              	.LVL46:
  74:../libs/PoliTeKDSP/libs/libDaisy/src/dev/mpr121.h ****                    config_.dev_addr, address, 1, data, size, 10);
 1083              		.loc 2 74 42 view .LVU216
 1084              	.LBE843:
 1085              	.LBE844:
 1086              	.LBB845:
 1087              	.LBI845:
 1088              		.loc 2 336 10 is_stmt 1 view .LVU217
 1089              	.LBE845:
 1090              	.LBE852:
 1091              	.LBE839:
 1092              	.LBB856:
 1093              	.LBB857:
 1094              	.LBB858:
 1095              	.LBB859:
  66:../libs/PoliTeKDSP/libs/libDaisy/src/dev/mpr121.h ****                    config_.dev_addr, address, 1, data, size, 10);
 1096              		.loc 2 66 41 is_stmt 0 view .LVU218
 1097 0174 0096     		str	r6, [sp]
 1098 0176 3B46     		mov	r3, r7
 1099 0178 CDE90178 		strd	r7, r8, [sp, #4]
 1100              	.LBE859:
 1101              	.LBE858:
 1102              	.LBE857:
 1103              	.LBE856:
 1104              	.LBB871:
 1105              	.LBB853:
 1106              	.LBB849:
 1107              	.LBB846:
 1108              		.loc 2 336 55 view .LVU219
 1109 017c 94F83020 		ldrb	r2, [r4, #48]	@ zero_extendqisi2
 1110              	.LBE846:
 1111              	.LBE849:
 1112              	.LBE853:
 1113              	.LBE871:
 1114              	.LBB872:
ARM GAS  C:\Users\39351\AppData\Local\Temp\cccegpNG.s 			page 34


 1115              	.LBB868:
 1116              	.LBB863:
 1117              	.LBB860:
  66:../libs/PoliTeKDSP/libs/libDaisy/src/dev/mpr121.h ****                    config_.dev_addr, address, 1, data, size, 10);
 1118              		.loc 2 66 41 view .LVU220
 1119 0180 94F82C10 		ldrb	r1, [r4, #44]	@ zero_extendqisi2
 1120              	.LBE860:
 1121              	.LBE863:
 1122              	.LBE868:
 1123              	.LBE872:
 1124              	.LBB873:
 1125              	.LBB854:
 1126              	.LBB850:
 1127              	.LBB847:
 1128              		.loc 2 336 55 view .LVU221
 1129 0184 0028     		cmp	r0, #0
 1130 0186 18BF     		it	ne
 1131 0188 42F00102 		orrne	r2, r2, #1
 1132              	.LBE847:
 1133              	.LBE850:
 1134              	.LBE854:
 1135              	.LBE873:
 1136              	.LBB874:
 1137              	.LBB869:
 1138              	.LBB864:
 1139              	.LBB861:
  66:../libs/PoliTeKDSP/libs/libDaisy/src/dev/mpr121.h ****                    config_.dev_addr, address, 1, data, size, 10);
 1140              		.loc 2 66 41 view .LVU222
 1141 018c 2846     		mov	r0, r5
 1142              	.LVL47:
  66:../libs/PoliTeKDSP/libs/libDaisy/src/dev/mpr121.h ****                    config_.dev_addr, address, 1, data, size, 10);
 1143              		.loc 2 66 41 view .LVU223
 1144              	.LBE861:
 1145              	.LBE864:
 1146              	.LBE869:
 1147              	.LBE874:
 1148              	.LBB875:
 1149              	.LBB855:
 1150              	.LBB851:
 1151              	.LBB848:
 1152              		.loc 2 336 55 view .LVU224
 1153 018e 84F83020 		strb	r2, [r4, #48]
 1154              	.LVL48:
 1155              		.loc 2 336 55 view .LVU225
 1156              	.LBE848:
 1157              	.LBE851:
 1158              	.LBE855:
 1159              	.LBE875:
 1160              	.LBB876:
 1161              	.LBI856:
 232:../libs/PoliTeKDSP/libs/libDaisy/src/dev/mpr121.h ****     {
 1162              		.loc 2 232 13 is_stmt 1 view .LVU226
 1163              	.LBB870:
 1164              	.LBB865:
 1165              	.LBI858:
  63:../libs/PoliTeKDSP/libs/libDaisy/src/dev/mpr121.h ****     {
 1166              		.loc 2 63 10 view .LVU227
ARM GAS  C:\Users\39351\AppData\Local\Temp\cccegpNG.s 			page 35


 1167              	.LBB862:
  65:../libs/PoliTeKDSP/libs/libDaisy/src/dev/mpr121.h ****                != i2c_.ReadDataAtAddress(
 1168              		.loc 2 65 9 view .LVU228
  66:../libs/PoliTeKDSP/libs/libDaisy/src/dev/mpr121.h ****                    config_.dev_addr, address, 1, data, size, 10);
 1169              		.loc 2 66 41 is_stmt 0 view .LVU229
 1170 0192 5D22     		movs	r2, #93
 1171 0194 FFF7FEFF 		bl	_ZN5daisy9I2CHandle17ReadDataAtAddressEtttPhtm
 1172              	.LVL49:
  66:../libs/PoliTeKDSP/libs/libDaisy/src/dev/mpr121.h ****                    config_.dev_addr, address, 1, data, size, 10);
 1173              		.loc 2 66 41 view .LVU230
 1174              	.LBE862:
 1175              	.LBE865:
 1176              	.LBB866:
 1177              	.LBI866:
 1178              		.loc 2 336 10 is_stmt 1 view .LVU231
 1179              	.LBB867:
 1180              		.loc 2 336 55 is_stmt 0 view .LVU232
 1181 0198 94F83030 		ldrb	r3, [r4, #48]	@ zero_extendqisi2
 1182 019c 0028     		cmp	r0, #0
 1183 019e 18BF     		it	ne
 1184 01a0 43F00103 		orrne	r3, r3, #1
 1185 01a4 84F83030 		strb	r3, [r4, #48]
 1186              	.LVL50:
 1187              		.loc 2 336 55 view .LVU233
 1188              	.LBE867:
 1189              	.LBE866:
 237:../libs/PoliTeKDSP/libs/libDaisy/src/dev/mpr121.h ****     }
 1190              		.loc 2 237 16 view .LVU234
 1191 01a8 9DF83C30 		ldrb	r3, [sp, #60]	@ zero_extendqisi2
 1192              	.LVL51:
 237:../libs/PoliTeKDSP/libs/libDaisy/src/dev/mpr121.h ****     }
 1193              		.loc 2 237 16 view .LVU235
 1194              	.LBE870:
 1195              	.LBE876:
 131:../libs/PoliTeKDSP/libs/libDaisy/src/dev/mpr121.h ****             return ERR;
 1196              		.loc 2 131 9 view .LVU236
 1197 01ac 242B     		cmp	r3, #36
 1198 01ae 10D0     		beq	.L18
 1199              	.LVL52:
 1200              	.L13:
 131:../libs/PoliTeKDSP/libs/libDaisy/src/dev/mpr121.h ****             return ERR;
 1201              		.loc 2 131 9 view .LVU237
 1202              	.LBE2434:
 1203              	.LBE714:
  14:PSP/PlantConditioner.cpp ****     {
  15:PSP/PlantConditioner.cpp ****         while (1) {
 1204              		.loc 1 15 9 is_stmt 1 discriminator 1 view .LVU238
  16:PSP/PlantConditioner.cpp ****             _hw->SetLed(true); _hw->DelayMs(100);
 1205              		.loc 1 16 13 discriminator 1 view .LVU239
 1206              		.loc 1 16 24 is_stmt 0 discriminator 1 view .LVU240
 1207 01b0 E06C     		ldr	r0, [r4, #76]
 1208 01b2 0121     		movs	r1, #1
 1209 01b4 FFF7FEFF 		bl	_ZN5daisy9DaisySeed6SetLedEb
 1210              	.LVL53:
 1211              		.loc 1 16 32 is_stmt 1 discriminator 1 view .LVU241
 1212              		.loc 1 16 44 is_stmt 0 discriminator 1 view .LVU242
 1213 01b8 E06C     		ldr	r0, [r4, #76]
ARM GAS  C:\Users\39351\AppData\Local\Temp\cccegpNG.s 			page 36


 1214 01ba 6421     		movs	r1, #100
 1215 01bc FFF7FEFF 		bl	_ZN5daisy9DaisySeed7DelayMsEj
 1216              	.LVL54:
  17:PSP/PlantConditioner.cpp ****             _hw->SetLed(false); _hw->DelayMs(100);
 1217              		.loc 1 17 13 is_stmt 1 discriminator 1 view .LVU243
 1218              		.loc 1 17 24 is_stmt 0 discriminator 1 view .LVU244
 1219 01c0 E06C     		ldr	r0, [r4, #76]
 1220 01c2 0021     		movs	r1, #0
 1221 01c4 FFF7FEFF 		bl	_ZN5daisy9DaisySeed6SetLedEb
 1222              	.LVL55:
 1223              		.loc 1 17 33 is_stmt 1 discriminator 1 view .LVU245
 1224              		.loc 1 17 45 is_stmt 0 discriminator 1 view .LVU246
 1225 01c8 6421     		movs	r1, #100
 1226 01ca E06C     		ldr	r0, [r4, #76]
 1227 01cc FFF7FEFF 		bl	_ZN5daisy9DaisySeed7DelayMsEj
 1228              	.LVL56:
  15:PSP/PlantConditioner.cpp ****             _hw->SetLed(true); _hw->DelayMs(100);
 1229              		.loc 1 15 9 is_stmt 1 discriminator 1 view .LVU247
 1230 01d0 EEE7     		b	.L13
 1231              	.LVL57:
 1232              	.L18:
 1233              	.LBB2436:
 1234              	.LBB2435:
 134:../libs/PoliTeKDSP/libs/libDaisy/src/dev/mpr121.h ****         WriteRegister(MPR121_MHDR, 0x01);
 1235              		.loc 2 134 22 is_stmt 0 view .LVU248
 1236 01d2 237D     		ldrb	r3, [r4, #20]	@ zero_extendqisi2
 1237              	.LVL58:
 134:../libs/PoliTeKDSP/libs/libDaisy/src/dev/mpr121.h ****         WriteRegister(MPR121_MHDR, 0x01);
 1238              		.loc 2 134 22 view .LVU249
 1239 01d4 4FF04109 		mov	r9, #65
 1240 01d8 0593     		str	r3, [sp, #20]
 1241 01da 637D     		ldrb	r3, [r4, #21]	@ zero_extendqisi2
 1242 01dc 0693     		str	r3, [sp, #24]
 1243              	.LVL59:
 1244              	.LBB877:
 1245              	.LBI877:
 178:../libs/PoliTeKDSP/libs/libDaisy/src/dev/mpr121.h ****     {
 1246              		.loc 2 178 10 is_stmt 1 view .LVU250
 1247              	.LBB878:
 181:../libs/PoliTeKDSP/libs/libDaisy/src/dev/mpr121.h ****         {
 1248              		.loc 2 181 30 view .LVU251
 1249              	.L11:
 1250              	.LBB879:
 1251              	.LBB880:
 1252              	.LBB881:
 1253              	.LBB882:
 1254              	.LBB883:
 1255              	.LBB884:
 1256              	.LBB885:
  66:../libs/PoliTeKDSP/libs/libDaisy/src/dev/mpr121.h ****                    config_.dev_addr, address, 1, data, size, 10);
 1257              		.loc 2 66 41 is_stmt 0 view .LVU252
 1258 01de 0127     		movs	r7, #1
 1259 01e0 4FF00A08 		mov	r8, #10
 1260 01e4 059B     		ldr	r3, [sp, #20]
 1261 01e6 5E22     		movs	r2, #94
 1262 01e8 0096     		str	r6, [sp]
 1263 01ea 2846     		mov	r0, r5
ARM GAS  C:\Users\39351\AppData\Local\Temp\cccegpNG.s 			page 37


 1264 01ec 8DF82730 		strb	r3, [sp, #39]
 1265              	.LVL60:
  66:../libs/PoliTeKDSP/libs/libDaisy/src/dev/mpr121.h ****                    config_.dev_addr, address, 1, data, size, 10);
 1266              		.loc 2 66 41 view .LVU253
 1267              	.LBE885:
 1268              	.LBE884:
 1269              	.LBE883:
 1270              	.LBE882:
 1271              	.LBE881:
 1272              	.LBE880:
 1273              	.LBI879:
 257:../libs/PoliTeKDSP/libs/libDaisy/src/dev/mpr121.h ****     {
 1274              		.loc 2 257 10 is_stmt 1 view .LVU254
 1275              	.LBB958:
 1276              	.LBB924:
 1277              	.LBB902:
 1278              	.LBI882:
 232:../libs/PoliTeKDSP/libs/libDaisy/src/dev/mpr121.h ****     {
 1279              		.loc 2 232 13 view .LVU255
 1280              	.LBB897:
 1281              	.LBB888:
 1282              	.LBI884:
  63:../libs/PoliTeKDSP/libs/libDaisy/src/dev/mpr121.h ****     {
 1283              		.loc 2 63 10 view .LVU256
 1284              	.LBB886:
  65:../libs/PoliTeKDSP/libs/libDaisy/src/dev/mpr121.h ****                != i2c_.ReadDataAtAddress(
 1285              		.loc 2 65 9 view .LVU257
  66:../libs/PoliTeKDSP/libs/libDaisy/src/dev/mpr121.h ****                    config_.dev_addr, address, 1, data, size, 10);
 1286              		.loc 2 66 41 is_stmt 0 view .LVU258
 1287 01f0 3B46     		mov	r3, r7
 1288              	.LVL61:
  66:../libs/PoliTeKDSP/libs/libDaisy/src/dev/mpr121.h ****                    config_.dev_addr, address, 1, data, size, 10);
 1289              		.loc 2 66 41 view .LVU259
 1290              	.LBE886:
 1291              	.LBE888:
 1292              	.LBE897:
 1293              	.LBE902:
 271:../libs/PoliTeKDSP/libs/libDaisy/src/dev/mpr121.h ****             // clear this register to set stop mode
 1294              		.loc 2 271 21 view .LVU260
 1295 01f2 4FF0000A 		mov	r10, #0
 1296              	.LBB903:
 1297              	.LBB898:
 1298              	.LBB889:
 1299              	.LBB887:
  66:../libs/PoliTeKDSP/libs/libDaisy/src/dev/mpr121.h ****                    config_.dev_addr, address, 1, data, size, 10);
 1300              		.loc 2 66 41 view .LVU261
 1301 01f6 CDE90178 		strd	r7, r8, [sp, #4]
 1302 01fa 94F82C10 		ldrb	r1, [r4, #44]	@ zero_extendqisi2
 1303 01fe FFF7FEFF 		bl	_ZN5daisy9I2CHandle17ReadDataAtAddressEtttPhtm
 1304              	.LVL62:
  66:../libs/PoliTeKDSP/libs/libDaisy/src/dev/mpr121.h ****                    config_.dev_addr, address, 1, data, size, 10);
 1305              		.loc 2 66 41 view .LVU262
 1306              	.LBE887:
 1307              	.LBE889:
 1308              	.LBB890:
 1309              	.LBI890:
 1310              		.loc 2 336 10 is_stmt 1 view .LVU263
ARM GAS  C:\Users\39351\AppData\Local\Temp\cccegpNG.s 			page 38


 1311              	.LBE890:
 1312              	.LBE898:
 1313              	.LBE903:
 1314              	.LBB904:
 1315              	.LBB905:
  74:../libs/PoliTeKDSP/libs/libDaisy/src/dev/mpr121.h ****                    config_.dev_addr, address, 1, data, size, 10);
 1316              		.loc 2 74 42 is_stmt 0 view .LVU264
 1317 0202 0096     		str	r6, [sp]
 1318 0204 5E22     		movs	r2, #94
 1319 0206 CDE90178 		strd	r7, r8, [sp, #4]
 1320              	.LBE905:
 1321              	.LBE904:
 1322              	.LBB910:
 1323              	.LBB899:
 1324              	.LBB894:
 1325              	.LBB891:
 1326              		.loc 2 336 55 view .LVU265
 1327 020a 94F83030 		ldrb	r3, [r4, #48]	@ zero_extendqisi2
 1328              	.LBE891:
 1329              	.LBE894:
 1330              	.LBE899:
 1331              	.LBE910:
 1332              	.LBB911:
 1333              	.LBB906:
  74:../libs/PoliTeKDSP/libs/libDaisy/src/dev/mpr121.h ****                    config_.dev_addr, address, 1, data, size, 10);
 1334              		.loc 2 74 42 view .LVU266
 1335 020e 94F82C10 		ldrb	r1, [r4, #44]	@ zero_extendqisi2
 1336              	.LBE906:
 1337              	.LBE911:
 1338              	.LBB912:
 1339              	.LBB900:
 1340              	.LBB895:
 1341              	.LBB892:
 1342              		.loc 2 336 55 view .LVU267
 1343 0212 0028     		cmp	r0, #0
 1344 0214 18BF     		it	ne
 1345 0216 43F00103 		orrne	r3, r3, #1
 1346              	.LBE892:
 1347              	.LBE895:
 1348              	.LBE900:
 1349              	.LBE912:
 1350              	.LBB913:
 1351              	.LBB907:
  74:../libs/PoliTeKDSP/libs/libDaisy/src/dev/mpr121.h ****                    config_.dev_addr, address, 1, data, size, 10);
 1352              		.loc 2 74 42 view .LVU268
 1353 021a 2846     		mov	r0, r5
 1354              	.LVL63:
  74:../libs/PoliTeKDSP/libs/libDaisy/src/dev/mpr121.h ****                    config_.dev_addr, address, 1, data, size, 10);
 1355              		.loc 2 74 42 view .LVU269
 1356              	.LBE907:
 1357              	.LBE913:
 1358              	.LBB914:
 1359              	.LBB901:
 1360              	.LBB896:
 1361              	.LBB893:
 1362              		.loc 2 336 55 view .LVU270
 1363 021c 84F83030 		strb	r3, [r4, #48]
ARM GAS  C:\Users\39351\AppData\Local\Temp\cccegpNG.s 			page 39


 1364              	.LVL64:
 1365              		.loc 2 336 55 view .LVU271
 1366              	.LBE893:
 1367              	.LBE896:
 237:../libs/PoliTeKDSP/libs/libDaisy/src/dev/mpr121.h ****     }
 1368              		.loc 2 237 16 view .LVU272
 1369 0220 9DF83C30 		ldrb	r3, [sp, #60]	@ zero_extendqisi2
 1370              	.LVL65:
 237:../libs/PoliTeKDSP/libs/libDaisy/src/dev/mpr121.h ****     }
 1371              		.loc 2 237 16 view .LVU273
 1372              	.LBE901:
 1373              	.LBE914:
 271:../libs/PoliTeKDSP/libs/libDaisy/src/dev/mpr121.h ****             // clear this register to set stop mode
 1374              		.loc 2 271 21 view .LVU274
 1375 0224 8DF83CA0 		strb	r10, [sp, #60]
 1376              	.LVL66:
 1377              	.LBB915:
 1378              	.LBI904:
  71:../libs/PoliTeKDSP/libs/libDaisy/src/dev/mpr121.h ****     {
 1379              		.loc 2 71 10 is_stmt 1 view .LVU275
 1380              	.LBB908:
  73:../libs/PoliTeKDSP/libs/libDaisy/src/dev/mpr121.h ****                != i2c_.WriteDataAtAddress(
 1381              		.loc 2 73 9 view .LVU276
 1382              	.LBE908:
 1383              	.LBE915:
 270:../libs/PoliTeKDSP/libs/libDaisy/src/dev/mpr121.h ****             uint8_t zero = 0x00;
 1384              		.loc 2 270 26 is_stmt 0 view .LVU277
 1385 0228 8DF82830 		strb	r3, [sp, #40]
 1386              	.LBB916:
 1387              	.LBB909:
  74:../libs/PoliTeKDSP/libs/libDaisy/src/dev/mpr121.h ****                    config_.dev_addr, address, 1, data, size, 10);
 1388              		.loc 2 74 42 view .LVU278
 1389 022c 3B46     		mov	r3, r7
 1390 022e FFF7FEFF 		bl	_ZN5daisy9I2CHandle18WriteDataAtAddressEtttPhtm
 1391              	.LVL67:
  74:../libs/PoliTeKDSP/libs/libDaisy/src/dev/mpr121.h ****                    config_.dev_addr, address, 1, data, size, 10);
 1392              		.loc 2 74 42 view .LVU279
 1393              	.LBE909:
 1394              	.LBE916:
 1395              	.LBB917:
 1396              	.LBI917:
 1397              		.loc 2 336 10 is_stmt 1 view .LVU280
 1398              	.LBE917:
 1399              	.LBE924:
 1400              	.LBB925:
 1401              	.LBB926:
  74:../libs/PoliTeKDSP/libs/libDaisy/src/dev/mpr121.h ****                    config_.dev_addr, address, 1, data, size, 10);
 1402              		.loc 2 74 42 is_stmt 0 view .LVU281
 1403 0232 0DF12703 		add	r3, sp, #39
 1404 0236 4A46     		mov	r2, r9
 1405 0238 0093     		str	r3, [sp]
 1406 023a CDE90178 		strd	r7, r8, [sp, #4]
 1407              	.LBE926:
 1408              	.LBE925:
 1409              	.LBB930:
 1410              	.LBB921:
 1411              	.LBB918:
ARM GAS  C:\Users\39351\AppData\Local\Temp\cccegpNG.s 			page 40


 1412              		.loc 2 336 55 view .LVU282
 1413 023e 94F83030 		ldrb	r3, [r4, #48]	@ zero_extendqisi2
 1414              	.LBE918:
 1415              	.LBE921:
 1416              	.LBE930:
 1417              	.LBB931:
 1418              	.LBB927:
  74:../libs/PoliTeKDSP/libs/libDaisy/src/dev/mpr121.h ****                    config_.dev_addr, address, 1, data, size, 10);
 1419              		.loc 2 74 42 view .LVU283
 1420 0242 94F82C10 		ldrb	r1, [r4, #44]	@ zero_extendqisi2
 1421              	.LBE927:
 1422              	.LBE931:
 1423              	.LBB932:
 1424              	.LBB922:
 1425              	.LBB919:
 1426              		.loc 2 336 55 view .LVU284
 1427 0246 5045     		cmp	r0, r10
 1428 0248 18BF     		it	ne
 1429 024a 43F00103 		orrne	r3, r3, #1
 1430              	.LBE919:
 1431              	.LBE922:
 1432              	.LBE932:
 1433              	.LBB933:
 1434              	.LBB928:
  74:../libs/PoliTeKDSP/libs/libDaisy/src/dev/mpr121.h ****                    config_.dev_addr, address, 1, data, size, 10);
 1435              		.loc 2 74 42 view .LVU285
 1436 024e 2846     		mov	r0, r5
 1437              	.LVL68:
  74:../libs/PoliTeKDSP/libs/libDaisy/src/dev/mpr121.h ****                    config_.dev_addr, address, 1, data, size, 10);
 1438              		.loc 2 74 42 view .LVU286
 1439              	.LBE928:
 1440              	.LBE933:
 1441              	.LBB934:
 1442              	.LBB923:
 1443              	.LBB920:
 1444              		.loc 2 336 55 view .LVU287
 1445 0250 84F83030 		strb	r3, [r4, #48]
 1446              	.LVL69:
 1447              		.loc 2 336 55 view .LVU288
 1448              	.LBE920:
 1449              	.LBE923:
 1450              	.LBE934:
 1451              	.LBB935:
 1452              	.LBI925:
  71:../libs/PoliTeKDSP/libs/libDaisy/src/dev/mpr121.h ****     {
 1453              		.loc 2 71 10 is_stmt 1 view .LVU289
 1454              	.LBB929:
  73:../libs/PoliTeKDSP/libs/libDaisy/src/dev/mpr121.h ****                != i2c_.WriteDataAtAddress(
 1455              		.loc 2 73 9 view .LVU290
  74:../libs/PoliTeKDSP/libs/libDaisy/src/dev/mpr121.h ****                    config_.dev_addr, address, 1, data, size, 10);
 1456              		.loc 2 74 42 is_stmt 0 view .LVU291
 1457 0254 3B46     		mov	r3, r7
 1458 0256 FFF7FEFF 		bl	_ZN5daisy9I2CHandle18WriteDataAtAddressEtttPhtm
 1459              	.LVL70:
  74:../libs/PoliTeKDSP/libs/libDaisy/src/dev/mpr121.h ****                    config_.dev_addr, address, 1, data, size, 10);
 1460              		.loc 2 74 42 view .LVU292
 1461              	.LBE929:
ARM GAS  C:\Users\39351\AppData\Local\Temp\cccegpNG.s 			page 41


 1462              	.LBE935:
 1463              	.LBB936:
 1464              	.LBI936:
 1465              		.loc 2 336 10 is_stmt 1 view .LVU293
 1466              	.LBE936:
 1467              	.LBB940:
 1468              	.LBB941:
  74:../libs/PoliTeKDSP/libs/libDaisy/src/dev/mpr121.h ****                    config_.dev_addr, address, 1, data, size, 10);
 1469              		.loc 2 74 42 is_stmt 0 view .LVU294
 1470 025a CDF800B0 		str	fp, [sp]
 1471 025e 5E22     		movs	r2, #94
 1472 0260 CDE90178 		strd	r7, r8, [sp, #4]
 1473              	.LBE941:
 1474              	.LBE940:
 1475              	.LBB945:
 1476              	.LBB937:
 1477              		.loc 2 336 55 view .LVU295
 1478 0264 94F83030 		ldrb	r3, [r4, #48]	@ zero_extendqisi2
 1479              	.LBE937:
 1480              	.LBE945:
 1481              	.LBB946:
 1482              	.LBB942:
  74:../libs/PoliTeKDSP/libs/libDaisy/src/dev/mpr121.h ****                    config_.dev_addr, address, 1, data, size, 10);
 1483              		.loc 2 74 42 view .LVU296
 1484 0268 94F82C10 		ldrb	r1, [r4, #44]	@ zero_extendqisi2
 1485              	.LBE942:
 1486              	.LBE946:
 1487              	.LBB947:
 1488              	.LBB938:
 1489              		.loc 2 336 55 view .LVU297
 1490 026c 5045     		cmp	r0, r10
 1491 026e 18BF     		it	ne
 1492 0270 43F00103 		orrne	r3, r3, #1
 1493              	.LBE938:
 1494              	.LBE947:
 1495              	.LBB948:
 1496              	.LBB943:
  74:../libs/PoliTeKDSP/libs/libDaisy/src/dev/mpr121.h ****                    config_.dev_addr, address, 1, data, size, 10);
 1497              		.loc 2 74 42 view .LVU298
 1498 0274 2846     		mov	r0, r5
 1499              	.LVL71:
  74:../libs/PoliTeKDSP/libs/libDaisy/src/dev/mpr121.h ****                    config_.dev_addr, address, 1, data, size, 10);
 1500              		.loc 2 74 42 view .LVU299
 1501              	.LBE943:
 1502              	.LBE948:
 1503              	.LBB949:
 1504              	.LBB939:
 1505              		.loc 2 336 55 view .LVU300
 1506 0276 84F83030 		strb	r3, [r4, #48]
 1507              	.LVL72:
 1508              		.loc 2 336 55 view .LVU301
 1509              	.LBE939:
 1510              	.LBE949:
 1511              	.LBB950:
 1512              	.LBI940:
  71:../libs/PoliTeKDSP/libs/libDaisy/src/dev/mpr121.h ****     {
 1513              		.loc 2 71 10 is_stmt 1 view .LVU302
ARM GAS  C:\Users\39351\AppData\Local\Temp\cccegpNG.s 			page 42


 1514              	.LBB944:
  73:../libs/PoliTeKDSP/libs/libDaisy/src/dev/mpr121.h ****                != i2c_.WriteDataAtAddress(
 1515              		.loc 2 73 9 view .LVU303
  74:../libs/PoliTeKDSP/libs/libDaisy/src/dev/mpr121.h ****                    config_.dev_addr, address, 1, data, size, 10);
 1516              		.loc 2 74 42 is_stmt 0 view .LVU304
 1517 027a 3B46     		mov	r3, r7
 1518 027c FFF7FEFF 		bl	_ZN5daisy9I2CHandle18WriteDataAtAddressEtttPhtm
 1519              	.LVL73:
  74:../libs/PoliTeKDSP/libs/libDaisy/src/dev/mpr121.h ****                    config_.dev_addr, address, 1, data, size, 10);
 1520              		.loc 2 74 42 view .LVU305
 1521              	.LBE944:
 1522              	.LBE950:
 1523              	.LBB951:
 1524              	.LBI951:
 1525              		.loc 2 336 10 is_stmt 1 view .LVU306
 1526 0280 069B     		ldr	r3, [sp, #24]
 1527              	.LBE951:
 1528              	.LBE958:
 1529              	.LBE879:
 1530              	.LBB962:
 1531              	.LBB963:
 1532              	.LBB964:
 1533              	.LBB965:
 1534              	.LBB966:
 1535              	.LBB967:
 1536              	.LBB968:
  66:../libs/PoliTeKDSP/libs/libDaisy/src/dev/mpr121.h ****                    config_.dev_addr, address, 1, data, size, 10);
 1537              		.loc 2 66 41 is_stmt 0 view .LVU307
 1538 0282 0096     		str	r6, [sp]
 1539 0284 5E22     		movs	r2, #94
 1540 0286 8DF82730 		strb	r3, [sp, #39]
 1541 028a CDE90178 		strd	r7, r8, [sp, #4]
 1542              	.LBE968:
 1543              	.LBE967:
 1544              	.LBE966:
 1545              	.LBE965:
 1546              	.LBE964:
 1547              	.LBE963:
 1548              	.LBE962:
 1549              	.LBB1054:
 1550              	.LBB959:
 1551              	.LBB955:
 1552              	.LBB952:
 1553              		.loc 2 336 55 view .LVU308
 1554 028e 94F83030 		ldrb	r3, [r4, #48]	@ zero_extendqisi2
 1555              	.LBE952:
 1556              	.LBE955:
 1557              	.LBE959:
 1558              	.LBE1054:
 1559              	.LBB1055:
 1560              	.LBB1048:
 1561              	.LBB1011:
 1562              	.LBB988:
 1563              	.LBB982:
 1564              	.LBB972:
 1565              	.LBB969:
  66:../libs/PoliTeKDSP/libs/libDaisy/src/dev/mpr121.h ****                    config_.dev_addr, address, 1, data, size, 10);
ARM GAS  C:\Users\39351\AppData\Local\Temp\cccegpNG.s 			page 43


 1566              		.loc 2 66 41 view .LVU309
 1567 0292 94F82C10 		ldrb	r1, [r4, #44]	@ zero_extendqisi2
 1568              	.LBE969:
 1569              	.LBE972:
 1570              	.LBE982:
 1571              	.LBE988:
 1572              	.LBE1011:
 1573              	.LBE1048:
 1574              	.LBE1055:
 1575              	.LBB1056:
 1576              	.LBB960:
 1577              	.LBB956:
 1578              	.LBB953:
 1579              		.loc 2 336 55 view .LVU310
 1580 0296 5045     		cmp	r0, r10
 1581 0298 18BF     		it	ne
 1582 029a 43F00103 		orrne	r3, r3, #1
 1583              	.LBE953:
 1584              	.LBE956:
 1585              	.LBE960:
 1586              	.LBE1056:
 1587              	.LBB1057:
 1588              	.LBB1049:
 1589              	.LBB1012:
 1590              	.LBB989:
 1591              	.LBB983:
 1592              	.LBB973:
 1593              	.LBB970:
  66:../libs/PoliTeKDSP/libs/libDaisy/src/dev/mpr121.h ****                    config_.dev_addr, address, 1, data, size, 10);
 1594              		.loc 2 66 41 view .LVU311
 1595 029e 2846     		mov	r0, r5
 1596              	.LVL74:
  66:../libs/PoliTeKDSP/libs/libDaisy/src/dev/mpr121.h ****                    config_.dev_addr, address, 1, data, size, 10);
 1597              		.loc 2 66 41 view .LVU312
 1598              	.LBE970:
 1599              	.LBE973:
 1600              	.LBE983:
 1601              	.LBE989:
 1602              	.LBE1012:
 1603              	.LBE1049:
 1604              	.LBE1057:
 1605              	.LBB1058:
 1606              	.LBB961:
 1607              	.LBB957:
 1608              	.LBB954:
 1609              		.loc 2 336 55 view .LVU313
 1610 02a0 84F83030 		strb	r3, [r4, #48]
 1611              	.LVL75:
 1612              		.loc 2 336 55 view .LVU314
 1613              	.LBE954:
 1614              	.LBE957:
 1615              	.LBE961:
 1616              	.LBE1058:
 1617              	.LBB1059:
 1618              	.LBI962:
 257:../libs/PoliTeKDSP/libs/libDaisy/src/dev/mpr121.h ****     {
 1619              		.loc 2 257 10 is_stmt 1 view .LVU315
ARM GAS  C:\Users\39351\AppData\Local\Temp\cccegpNG.s 			page 44


 1620              	.LBB1050:
 1621              	.LBB1013:
 1622              	.LBB990:
 1623              	.LBI965:
 232:../libs/PoliTeKDSP/libs/libDaisy/src/dev/mpr121.h ****     {
 1624              		.loc 2 232 13 view .LVU316
 1625              	.LBB984:
 1626              	.LBB974:
 1627              	.LBI967:
  63:../libs/PoliTeKDSP/libs/libDaisy/src/dev/mpr121.h ****     {
 1628              		.loc 2 63 10 view .LVU317
 1629              	.LBB971:
  65:../libs/PoliTeKDSP/libs/libDaisy/src/dev/mpr121.h ****                != i2c_.ReadDataAtAddress(
 1630              		.loc 2 65 9 view .LVU318
  66:../libs/PoliTeKDSP/libs/libDaisy/src/dev/mpr121.h ****                    config_.dev_addr, address, 1, data, size, 10);
 1631              		.loc 2 66 41 is_stmt 0 view .LVU319
 1632 02a4 3B46     		mov	r3, r7
 1633 02a6 FFF7FEFF 		bl	_ZN5daisy9I2CHandle17ReadDataAtAddressEtttPhtm
 1634              	.LVL76:
  66:../libs/PoliTeKDSP/libs/libDaisy/src/dev/mpr121.h ****                    config_.dev_addr, address, 1, data, size, 10);
 1635              		.loc 2 66 41 view .LVU320
 1636              	.LBE971:
 1637              	.LBE974:
 1638              	.LBB975:
 1639              	.LBI975:
 1640              		.loc 2 336 10 is_stmt 1 view .LVU321
 1641              	.LBE975:
 1642              	.LBE984:
 1643              	.LBE990:
 1644              	.LBB991:
 1645              	.LBB992:
  74:../libs/PoliTeKDSP/libs/libDaisy/src/dev/mpr121.h ****                    config_.dev_addr, address, 1, data, size, 10);
 1646              		.loc 2 74 42 is_stmt 0 view .LVU322
 1647 02aa 0096     		str	r6, [sp]
 1648 02ac 5E22     		movs	r2, #94
 1649 02ae CDE90178 		strd	r7, r8, [sp, #4]
 1650              	.LBE992:
 1651              	.LBE991:
 1652              	.LBB997:
 1653              	.LBB985:
 1654              	.LBB979:
 1655              	.LBB976:
 1656              		.loc 2 336 55 view .LVU323
 1657 02b2 94F83030 		ldrb	r3, [r4, #48]	@ zero_extendqisi2
 1658              	.LBE976:
 1659              	.LBE979:
 1660              	.LBE985:
 1661              	.LBE997:
 1662              	.LBB998:
 1663              	.LBB993:
  74:../libs/PoliTeKDSP/libs/libDaisy/src/dev/mpr121.h ****                    config_.dev_addr, address, 1, data, size, 10);
 1664              		.loc 2 74 42 view .LVU324
 1665 02b6 94F82C10 		ldrb	r1, [r4, #44]	@ zero_extendqisi2
 1666              	.LBE993:
 1667              	.LBE998:
 1668              	.LBB999:
 1669              	.LBB986:
ARM GAS  C:\Users\39351\AppData\Local\Temp\cccegpNG.s 			page 45


 1670              	.LBB980:
 1671              	.LBB977:
 1672              		.loc 2 336 55 view .LVU325
 1673 02ba 5045     		cmp	r0, r10
 1674 02bc 18BF     		it	ne
 1675 02be 43F00103 		orrne	r3, r3, #1
 1676              	.LBE977:
 1677              	.LBE980:
 1678              	.LBE986:
 1679              	.LBE999:
 1680              	.LBB1000:
 1681              	.LBB994:
  74:../libs/PoliTeKDSP/libs/libDaisy/src/dev/mpr121.h ****                    config_.dev_addr, address, 1, data, size, 10);
 1682              		.loc 2 74 42 view .LVU326
 1683 02c2 2846     		mov	r0, r5
 1684              	.LVL77:
  74:../libs/PoliTeKDSP/libs/libDaisy/src/dev/mpr121.h ****                    config_.dev_addr, address, 1, data, size, 10);
 1685              		.loc 2 74 42 view .LVU327
 1686              	.LBE994:
 1687              	.LBE1000:
 1688              	.LBB1001:
 1689              	.LBB987:
 1690              	.LBB981:
 1691              	.LBB978:
 1692              		.loc 2 336 55 view .LVU328
 1693 02c4 84F83030 		strb	r3, [r4, #48]
 1694              	.LVL78:
 1695              		.loc 2 336 55 view .LVU329
 1696              	.LBE978:
 1697              	.LBE981:
 237:../libs/PoliTeKDSP/libs/libDaisy/src/dev/mpr121.h ****     }
 1698              		.loc 2 237 16 view .LVU330
 1699 02c8 9DF83C30 		ldrb	r3, [sp, #60]	@ zero_extendqisi2
 1700              	.LVL79:
 237:../libs/PoliTeKDSP/libs/libDaisy/src/dev/mpr121.h ****     }
 1701              		.loc 2 237 16 view .LVU331
 1702              	.LBE987:
 1703              	.LBE1001:
 271:../libs/PoliTeKDSP/libs/libDaisy/src/dev/mpr121.h ****             // clear this register to set stop mode
 1704              		.loc 2 271 21 view .LVU332
 1705 02cc 8DF83CA0 		strb	r10, [sp, #60]
 1706              	.LVL80:
 1707              	.LBB1002:
 1708              	.LBI991:
  71:../libs/PoliTeKDSP/libs/libDaisy/src/dev/mpr121.h ****     {
 1709              		.loc 2 71 10 is_stmt 1 view .LVU333
 1710              	.LBB995:
  73:../libs/PoliTeKDSP/libs/libDaisy/src/dev/mpr121.h ****                != i2c_.WriteDataAtAddress(
 1711              		.loc 2 73 9 view .LVU334
 1712              	.LBE995:
 1713              	.LBE1002:
 270:../libs/PoliTeKDSP/libs/libDaisy/src/dev/mpr121.h ****             uint8_t zero = 0x00;
 1714              		.loc 2 270 26 is_stmt 0 view .LVU335
 1715 02d0 8DF82830 		strb	r3, [sp, #40]
 1716              	.LBB1003:
 1717              	.LBB996:
  74:../libs/PoliTeKDSP/libs/libDaisy/src/dev/mpr121.h ****                    config_.dev_addr, address, 1, data, size, 10);
ARM GAS  C:\Users\39351\AppData\Local\Temp\cccegpNG.s 			page 46


 1718              		.loc 2 74 42 view .LVU336
 1719 02d4 3B46     		mov	r3, r7
 1720 02d6 FFF7FEFF 		bl	_ZN5daisy9I2CHandle18WriteDataAtAddressEtttPhtm
 1721              	.LVL81:
  74:../libs/PoliTeKDSP/libs/libDaisy/src/dev/mpr121.h ****                    config_.dev_addr, address, 1, data, size, 10);
 1722              		.loc 2 74 42 view .LVU337
 1723              	.LBE996:
 1724              	.LBE1003:
 1725              	.LBB1004:
 1726              	.LBI1004:
 1727              		.loc 2 336 10 is_stmt 1 view .LVU338
 1728              	.LBE1004:
 1729              	.LBE1013:
 1730              	.LBB1014:
 1731              	.LBB1015:
  74:../libs/PoliTeKDSP/libs/libDaisy/src/dev/mpr121.h ****                    config_.dev_addr, address, 1, data, size, 10);
 1732              		.loc 2 74 42 is_stmt 0 view .LVU339
 1733 02da 0DF12703 		add	r3, sp, #39
 1734 02de 09EB0702 		add	r2, r9, r7
 1735              	.LBE1015:
 1736              	.LBE1014:
 1737              	.LBE1050:
 1738              	.LBE1059:
 181:../libs/PoliTeKDSP/libs/libDaisy/src/dev/mpr121.h ****         {
 1739              		.loc 2 181 30 view .LVU340
 1740 02e2 09F10209 		add	r9, r9, #2
 1741              	.LVL82:
 1742              	.LBB1060:
 1743              	.LBB1051:
 1744              	.LBB1021:
 1745              	.LBB1016:
  74:../libs/PoliTeKDSP/libs/libDaisy/src/dev/mpr121.h ****                    config_.dev_addr, address, 1, data, size, 10);
 1746              		.loc 2 74 42 view .LVU341
 1747 02e6 0093     		str	r3, [sp]
 1748 02e8 92B2     		uxth	r2, r2
 1749              	.LBE1016:
 1750              	.LBE1021:
 1751              	.LBE1051:
 1752              	.LBE1060:
 181:../libs/PoliTeKDSP/libs/libDaisy/src/dev/mpr121.h ****         {
 1753              		.loc 2 181 30 view .LVU342
 1754 02ea 1FFA89F9 		uxth	r9, r9
 1755              	.LBB1061:
 1756              	.LBB1052:
 1757              	.LBB1022:
 1758              	.LBB1017:
  74:../libs/PoliTeKDSP/libs/libDaisy/src/dev/mpr121.h ****                    config_.dev_addr, address, 1, data, size, 10);
 1759              		.loc 2 74 42 view .LVU343
 1760 02ee CDE90178 		strd	r7, r8, [sp, #4]
 1761              	.LBE1017:
 1762              	.LBE1022:
 1763              	.LBB1023:
 1764              	.LBB1008:
 1765              	.LBB1005:
 1766              		.loc 2 336 55 view .LVU344
 1767 02f2 94F83030 		ldrb	r3, [r4, #48]	@ zero_extendqisi2
 1768              	.LBE1005:
ARM GAS  C:\Users\39351\AppData\Local\Temp\cccegpNG.s 			page 47


 1769              	.LBE1008:
 1770              	.LBE1023:
 1771              	.LBB1024:
 1772              	.LBB1018:
  74:../libs/PoliTeKDSP/libs/libDaisy/src/dev/mpr121.h ****                    config_.dev_addr, address, 1, data, size, 10);
 1773              		.loc 2 74 42 view .LVU345
 1774 02f6 94F82C10 		ldrb	r1, [r4, #44]	@ zero_extendqisi2
 1775              	.LBE1018:
 1776              	.LBE1024:
 1777              	.LBB1025:
 1778              	.LBB1009:
 1779              	.LBB1006:
 1780              		.loc 2 336 55 view .LVU346
 1781 02fa 5045     		cmp	r0, r10
 1782 02fc 18BF     		it	ne
 1783 02fe 43F00103 		orrne	r3, r3, #1
 1784              	.LBE1006:
 1785              	.LBE1009:
 1786              	.LBE1025:
 1787              	.LBB1026:
 1788              	.LBB1019:
  74:../libs/PoliTeKDSP/libs/libDaisy/src/dev/mpr121.h ****                    config_.dev_addr, address, 1, data, size, 10);
 1789              		.loc 2 74 42 view .LVU347
 1790 0302 2846     		mov	r0, r5
 1791              	.LVL83:
  74:../libs/PoliTeKDSP/libs/libDaisy/src/dev/mpr121.h ****                    config_.dev_addr, address, 1, data, size, 10);
 1792              		.loc 2 74 42 view .LVU348
 1793              	.LBE1019:
 1794              	.LBE1026:
 1795              	.LBB1027:
 1796              	.LBB1010:
 1797              	.LBB1007:
 1798              		.loc 2 336 55 view .LVU349
 1799 0304 84F83030 		strb	r3, [r4, #48]
 1800              	.LVL84:
 1801              		.loc 2 336 55 view .LVU350
 1802              	.LBE1007:
 1803              	.LBE1010:
 1804              	.LBE1027:
 1805              	.LBB1028:
 1806              	.LBI1014:
  71:../libs/PoliTeKDSP/libs/libDaisy/src/dev/mpr121.h ****     {
 1807              		.loc 2 71 10 is_stmt 1 view .LVU351
 1808              	.LBB1020:
  73:../libs/PoliTeKDSP/libs/libDaisy/src/dev/mpr121.h ****                != i2c_.WriteDataAtAddress(
 1809              		.loc 2 73 9 view .LVU352
  74:../libs/PoliTeKDSP/libs/libDaisy/src/dev/mpr121.h ****                    config_.dev_addr, address, 1, data, size, 10);
 1810              		.loc 2 74 42 is_stmt 0 view .LVU353
 1811 0308 3B46     		mov	r3, r7
 1812 030a FFF7FEFF 		bl	_ZN5daisy9I2CHandle18WriteDataAtAddressEtttPhtm
 1813              	.LVL85:
  74:../libs/PoliTeKDSP/libs/libDaisy/src/dev/mpr121.h ****                    config_.dev_addr, address, 1, data, size, 10);
 1814              		.loc 2 74 42 view .LVU354
 1815              	.LBE1020:
 1816              	.LBE1028:
 1817              	.LBB1029:
 1818              	.LBI1029:
ARM GAS  C:\Users\39351\AppData\Local\Temp\cccegpNG.s 			page 48


 1819              		.loc 2 336 10 is_stmt 1 view .LVU355
 1820              	.LBE1029:
 1821              	.LBB1033:
 1822              	.LBB1034:
  74:../libs/PoliTeKDSP/libs/libDaisy/src/dev/mpr121.h ****                    config_.dev_addr, address, 1, data, size, 10);
 1823              		.loc 2 74 42 is_stmt 0 view .LVU356
 1824 030e CDF800B0 		str	fp, [sp]
 1825 0312 5E22     		movs	r2, #94
 1826 0314 CDE90178 		strd	r7, r8, [sp, #4]
 1827              	.LBE1034:
 1828              	.LBE1033:
 1829              	.LBB1038:
 1830              	.LBB1030:
 1831              		.loc 2 336 55 view .LVU357
 1832 0318 94F83030 		ldrb	r3, [r4, #48]	@ zero_extendqisi2
 1833              	.LBE1030:
 1834              	.LBE1038:
 1835              	.LBB1039:
 1836              	.LBB1035:
  74:../libs/PoliTeKDSP/libs/libDaisy/src/dev/mpr121.h ****                    config_.dev_addr, address, 1, data, size, 10);
 1837              		.loc 2 74 42 view .LVU358
 1838 031c 94F82C10 		ldrb	r1, [r4, #44]	@ zero_extendqisi2
 1839              	.LBE1035:
 1840              	.LBE1039:
 1841              	.LBB1040:
 1842              	.LBB1031:
 1843              		.loc 2 336 55 view .LVU359
 1844 0320 5045     		cmp	r0, r10
 1845 0322 18BF     		it	ne
 1846 0324 43F00103 		orrne	r3, r3, #1
 1847              	.LBE1031:
 1848              	.LBE1040:
 1849              	.LBB1041:
 1850              	.LBB1036:
  74:../libs/PoliTeKDSP/libs/libDaisy/src/dev/mpr121.h ****                    config_.dev_addr, address, 1, data, size, 10);
 1851              		.loc 2 74 42 view .LVU360
 1852 0328 2846     		mov	r0, r5
 1853              	.LVL86:
  74:../libs/PoliTeKDSP/libs/libDaisy/src/dev/mpr121.h ****                    config_.dev_addr, address, 1, data, size, 10);
 1854              		.loc 2 74 42 view .LVU361
 1855              	.LBE1036:
 1856              	.LBE1041:
 1857              	.LBB1042:
 1858              	.LBB1032:
 1859              		.loc 2 336 55 view .LVU362
 1860 032a 84F83030 		strb	r3, [r4, #48]
 1861              	.LVL87:
 1862              		.loc 2 336 55 view .LVU363
 1863              	.LBE1032:
 1864              	.LBE1042:
 1865              	.LBB1043:
 1866              	.LBI1033:
  71:../libs/PoliTeKDSP/libs/libDaisy/src/dev/mpr121.h ****     {
 1867              		.loc 2 71 10 is_stmt 1 view .LVU364
 1868              	.LBB1037:
  73:../libs/PoliTeKDSP/libs/libDaisy/src/dev/mpr121.h ****                != i2c_.WriteDataAtAddress(
 1869              		.loc 2 73 9 view .LVU365
ARM GAS  C:\Users\39351\AppData\Local\Temp\cccegpNG.s 			page 49


  74:../libs/PoliTeKDSP/libs/libDaisy/src/dev/mpr121.h ****                    config_.dev_addr, address, 1, data, size, 10);
 1870              		.loc 2 74 42 is_stmt 0 view .LVU366
 1871 032e 3B46     		mov	r3, r7
 1872 0330 FFF7FEFF 		bl	_ZN5daisy9I2CHandle18WriteDataAtAddressEtttPhtm
 1873              	.LVL88:
  74:../libs/PoliTeKDSP/libs/libDaisy/src/dev/mpr121.h ****                    config_.dev_addr, address, 1, data, size, 10);
 1874              		.loc 2 74 42 view .LVU367
 1875              	.LBE1037:
 1876              	.LBE1043:
 1877              	.LBB1044:
 1878              	.LBI1044:
 1879              		.loc 2 336 10 is_stmt 1 view .LVU368
 1880              	.LBB1045:
 1881              		.loc 2 336 55 is_stmt 0 view .LVU369
 1882 0334 94F83030 		ldrb	r3, [r4, #48]	@ zero_extendqisi2
 1883 0338 5045     		cmp	r0, r10
 1884 033a 18BF     		it	ne
 1885 033c 43F00103 		orrne	r3, r3, #1
 1886              	.LBE1045:
 1887              	.LBE1044:
 1888              	.LBE1052:
 1889              	.LBE1061:
 181:../libs/PoliTeKDSP/libs/libDaisy/src/dev/mpr121.h ****         {
 1890              		.loc 2 181 30 view .LVU370
 1891 0340 B9F1590F 		cmp	r9, #89
 1892              	.LBB1062:
 1893              	.LBB1053:
 1894              	.LBB1047:
 1895              	.LBB1046:
 1896              		.loc 2 336 55 view .LVU371
 1897 0344 84F83030 		strb	r3, [r4, #48]
 1898              	.LVL89:
 1899              		.loc 2 336 55 view .LVU372
 1900              	.LBE1046:
 1901              	.LBE1047:
 1902              	.LBE1053:
 1903              	.LBE1062:
 181:../libs/PoliTeKDSP/libs/libDaisy/src/dev/mpr121.h ****         {
 1904              		.loc 2 181 9 is_stmt 1 view .LVU373
 181:../libs/PoliTeKDSP/libs/libDaisy/src/dev/mpr121.h ****         {
 1905              		.loc 2 181 30 view .LVU374
 1906 0348 7FF449AF 		bne	.L11
 1907              	.LVL90:
 181:../libs/PoliTeKDSP/libs/libDaisy/src/dev/mpr121.h ****         {
 1908              		.loc 2 181 30 is_stmt 0 view .LVU375
 1909              	.LBE878:
 1910              	.LBE877:
 1911              	.LBB1063:
 1912              	.LBB1064:
 1913              	.LBB1065:
 1914              	.LBB1066:
 1915              	.LBB1067:
 1916              	.LBB1068:
 1917              	.LBB1069:
  66:../libs/PoliTeKDSP/libs/libDaisy/src/dev/mpr121.h ****                    config_.dev_addr, address, 1, data, size, 10);
 1918              		.loc 2 66 41 view .LVU376
 1919 034c 3B46     		mov	r3, r7
ARM GAS  C:\Users\39351\AppData\Local\Temp\cccegpNG.s 			page 50


 1920 034e 5E22     		movs	r2, #94
 1921 0350 0096     		str	r6, [sp]
 1922 0352 2846     		mov	r0, r5
 1923 0354 8DF82770 		strb	r7, [sp, #39]
 1924              	.LVL91:
  66:../libs/PoliTeKDSP/libs/libDaisy/src/dev/mpr121.h ****                    config_.dev_addr, address, 1, data, size, 10);
 1925              		.loc 2 66 41 view .LVU377
 1926              	.LBE1069:
 1927              	.LBE1068:
 1928              	.LBE1067:
 1929              	.LBE1066:
 1930              	.LBE1065:
 1931              	.LBE1064:
 1932              	.LBI1063:
 257:../libs/PoliTeKDSP/libs/libDaisy/src/dev/mpr121.h ****     {
 1933              		.loc 2 257 10 is_stmt 1 view .LVU378
 1934              	.LBB1138:
 1935              	.LBB1104:
 1936              	.LBB1083:
 1937              	.LBI1066:
 232:../libs/PoliTeKDSP/libs/libDaisy/src/dev/mpr121.h ****     {
 1938              		.loc 2 232 13 view .LVU379
 1939              	.LBB1079:
 1940              	.LBB1071:
 1941              	.LBI1068:
  63:../libs/PoliTeKDSP/libs/libDaisy/src/dev/mpr121.h ****     {
 1942              		.loc 2 63 10 view .LVU380
 1943              	.LBB1070:
  65:../libs/PoliTeKDSP/libs/libDaisy/src/dev/mpr121.h ****                != i2c_.ReadDataAtAddress(
 1944              		.loc 2 65 9 view .LVU381
  66:../libs/PoliTeKDSP/libs/libDaisy/src/dev/mpr121.h ****                    config_.dev_addr, address, 1, data, size, 10);
 1945              		.loc 2 66 41 is_stmt 0 view .LVU382
 1946 0358 CDE90178 		strd	r7, r8, [sp, #4]
 1947 035c 94F82C10 		ldrb	r1, [r4, #44]	@ zero_extendqisi2
 1948 0360 FFF7FEFF 		bl	_ZN5daisy9I2CHandle17ReadDataAtAddressEtttPhtm
 1949              	.LVL92:
  66:../libs/PoliTeKDSP/libs/libDaisy/src/dev/mpr121.h ****                    config_.dev_addr, address, 1, data, size, 10);
 1950              		.loc 2 66 41 view .LVU383
 1951              	.LBE1070:
 1952              	.LBE1071:
 1953              	.LBB1072:
 1954              	.LBI1072:
 1955              		.loc 2 336 10 is_stmt 1 view .LVU384
 1956              	.LBE1072:
 1957              	.LBE1079:
 1958              	.LBE1083:
 1959              	.LBB1084:
 1960              	.LBB1085:
  74:../libs/PoliTeKDSP/libs/libDaisy/src/dev/mpr121.h ****                    config_.dev_addr, address, 1, data, size, 10);
 1961              		.loc 2 74 42 is_stmt 0 view .LVU385
 1962 0364 0096     		str	r6, [sp]
 1963 0366 5E22     		movs	r2, #94
 1964 0368 CDE90178 		strd	r7, r8, [sp, #4]
 1965              	.LBE1085:
 1966              	.LBE1084:
 1967              	.LBB1090:
 1968              	.LBB1080:
ARM GAS  C:\Users\39351\AppData\Local\Temp\cccegpNG.s 			page 51


 1969              	.LBB1076:
 1970              	.LBB1073:
 1971              		.loc 2 336 55 view .LVU386
 1972 036c 94F83030 		ldrb	r3, [r4, #48]	@ zero_extendqisi2
 1973              	.LBE1073:
 1974              	.LBE1076:
 1975              	.LBE1080:
 1976              	.LBE1090:
 1977              	.LBB1091:
 1978              	.LBB1086:
  74:../libs/PoliTeKDSP/libs/libDaisy/src/dev/mpr121.h ****                    config_.dev_addr, address, 1, data, size, 10);
 1979              		.loc 2 74 42 view .LVU387
 1980 0370 94F82C10 		ldrb	r1, [r4, #44]	@ zero_extendqisi2
 1981              	.LBE1086:
 1982              	.LBE1091:
 1983              	.LBB1092:
 1984              	.LBB1081:
 1985              	.LBB1077:
 1986              	.LBB1074:
 1987              		.loc 2 336 55 view .LVU388
 1988 0374 5045     		cmp	r0, r10
 1989 0376 18BF     		it	ne
 1990 0378 43F00103 		orrne	r3, r3, #1
 1991              	.LBE1074:
 1992              	.LBE1077:
 1993              	.LBE1081:
 1994              	.LBE1092:
 1995              	.LBB1093:
 1996              	.LBB1087:
  74:../libs/PoliTeKDSP/libs/libDaisy/src/dev/mpr121.h ****                    config_.dev_addr, address, 1, data, size, 10);
 1997              		.loc 2 74 42 view .LVU389
 1998 037c 2846     		mov	r0, r5
 1999              	.LVL93:
  74:../libs/PoliTeKDSP/libs/libDaisy/src/dev/mpr121.h ****                    config_.dev_addr, address, 1, data, size, 10);
 2000              		.loc 2 74 42 view .LVU390
 2001              	.LBE1087:
 2002              	.LBE1093:
 2003              	.LBB1094:
 2004              	.LBB1082:
 2005              	.LBB1078:
 2006              	.LBB1075:
 2007              		.loc 2 336 55 view .LVU391
 2008 037e 84F83030 		strb	r3, [r4, #48]
 2009              	.LVL94:
 2010              		.loc 2 336 55 view .LVU392
 2011              	.LBE1075:
 2012              	.LBE1078:
 237:../libs/PoliTeKDSP/libs/libDaisy/src/dev/mpr121.h ****     }
 2013              		.loc 2 237 16 view .LVU393
 2014 0382 9DF83C30 		ldrb	r3, [sp, #60]	@ zero_extendqisi2
 2015              	.LVL95:
 237:../libs/PoliTeKDSP/libs/libDaisy/src/dev/mpr121.h ****     }
 2016              		.loc 2 237 16 view .LVU394
 2017              	.LBE1082:
 2018              	.LBE1094:
 271:../libs/PoliTeKDSP/libs/libDaisy/src/dev/mpr121.h ****             // clear this register to set stop mode
 2019              		.loc 2 271 21 view .LVU395
ARM GAS  C:\Users\39351\AppData\Local\Temp\cccegpNG.s 			page 52


 2020 0386 8DF83CA0 		strb	r10, [sp, #60]
 2021              	.LVL96:
 2022              	.LBB1095:
 2023              	.LBI1084:
  71:../libs/PoliTeKDSP/libs/libDaisy/src/dev/mpr121.h ****     {
 2024              		.loc 2 71 10 is_stmt 1 view .LVU396
 2025              	.LBB1088:
  73:../libs/PoliTeKDSP/libs/libDaisy/src/dev/mpr121.h ****                != i2c_.WriteDataAtAddress(
 2026              		.loc 2 73 9 view .LVU397
 2027              	.LBE1088:
 2028              	.LBE1095:
 270:../libs/PoliTeKDSP/libs/libDaisy/src/dev/mpr121.h ****             uint8_t zero = 0x00;
 2029              		.loc 2 270 26 is_stmt 0 view .LVU398
 2030 038a 8DF82830 		strb	r3, [sp, #40]
 2031              	.LBB1096:
 2032              	.LBB1089:
  74:../libs/PoliTeKDSP/libs/libDaisy/src/dev/mpr121.h ****                    config_.dev_addr, address, 1, data, size, 10);
 2033              		.loc 2 74 42 view .LVU399
 2034 038e 3B46     		mov	r3, r7
 2035 0390 FFF7FEFF 		bl	_ZN5daisy9I2CHandle18WriteDataAtAddressEtttPhtm
 2036              	.LVL97:
  74:../libs/PoliTeKDSP/libs/libDaisy/src/dev/mpr121.h ****                    config_.dev_addr, address, 1, data, size, 10);
 2037              		.loc 2 74 42 view .LVU400
 2038              	.LBE1089:
 2039              	.LBE1096:
 2040              	.LBB1097:
 2041              	.LBI1097:
 2042              		.loc 2 336 10 is_stmt 1 view .LVU401
 2043              	.LBE1097:
 2044              	.LBE1104:
 2045              	.LBB1105:
 2046              	.LBB1106:
  74:../libs/PoliTeKDSP/libs/libDaisy/src/dev/mpr121.h ****                    config_.dev_addr, address, 1, data, size, 10);
 2047              		.loc 2 74 42 is_stmt 0 view .LVU402
 2048 0394 0DF12703 		add	r3, sp, #39
 2049 0398 2B22     		movs	r2, #43
 2050 039a 0093     		str	r3, [sp]
 2051 039c CDE90178 		strd	r7, r8, [sp, #4]
 2052              	.LBE1106:
 2053              	.LBE1105:
 2054              	.LBB1110:
 2055              	.LBB1101:
 2056              	.LBB1098:
 2057              		.loc 2 336 55 view .LVU403
 2058 03a0 94F83030 		ldrb	r3, [r4, #48]	@ zero_extendqisi2
 2059              	.LBE1098:
 2060              	.LBE1101:
 2061              	.LBE1110:
 2062              	.LBB1111:
 2063              	.LBB1107:
  74:../libs/PoliTeKDSP/libs/libDaisy/src/dev/mpr121.h ****                    config_.dev_addr, address, 1, data, size, 10);
 2064              		.loc 2 74 42 view .LVU404
 2065 03a4 94F82C10 		ldrb	r1, [r4, #44]	@ zero_extendqisi2
 2066              	.LBE1107:
 2067              	.LBE1111:
 2068              	.LBB1112:
 2069              	.LBB1102:
ARM GAS  C:\Users\39351\AppData\Local\Temp\cccegpNG.s 			page 53


 2070              	.LBB1099:
 2071              		.loc 2 336 55 view .LVU405
 2072 03a8 5045     		cmp	r0, r10
 2073 03aa 18BF     		it	ne
 2074 03ac 43F00103 		orrne	r3, r3, #1
 2075              	.LBE1099:
 2076              	.LBE1102:
 2077              	.LBE1112:
 2078              	.LBB1113:
 2079              	.LBB1108:
  74:../libs/PoliTeKDSP/libs/libDaisy/src/dev/mpr121.h ****                    config_.dev_addr, address, 1, data, size, 10);
 2080              		.loc 2 74 42 view .LVU406
 2081 03b0 2846     		mov	r0, r5
 2082              	.LVL98:
  74:../libs/PoliTeKDSP/libs/libDaisy/src/dev/mpr121.h ****                    config_.dev_addr, address, 1, data, size, 10);
 2083              		.loc 2 74 42 view .LVU407
 2084              	.LBE1108:
 2085              	.LBE1113:
 2086              	.LBB1114:
 2087              	.LBB1103:
 2088              	.LBB1100:
 2089              		.loc 2 336 55 view .LVU408
 2090 03b2 84F83030 		strb	r3, [r4, #48]
 2091              	.LVL99:
 2092              		.loc 2 336 55 view .LVU409
 2093              	.LBE1100:
 2094              	.LBE1103:
 2095              	.LBE1114:
 2096              	.LBB1115:
 2097              	.LBI1105:
  71:../libs/PoliTeKDSP/libs/libDaisy/src/dev/mpr121.h ****     {
 2098              		.loc 2 71 10 is_stmt 1 view .LVU410
 2099              	.LBB1109:
  73:../libs/PoliTeKDSP/libs/libDaisy/src/dev/mpr121.h ****                != i2c_.WriteDataAtAddress(
 2100              		.loc 2 73 9 view .LVU411
  74:../libs/PoliTeKDSP/libs/libDaisy/src/dev/mpr121.h ****                    config_.dev_addr, address, 1, data, size, 10);
 2101              		.loc 2 74 42 is_stmt 0 view .LVU412
 2102 03b6 3B46     		mov	r3, r7
 2103 03b8 FFF7FEFF 		bl	_ZN5daisy9I2CHandle18WriteDataAtAddressEtttPhtm
 2104              	.LVL100:
  74:../libs/PoliTeKDSP/libs/libDaisy/src/dev/mpr121.h ****                    config_.dev_addr, address, 1, data, size, 10);
 2105              		.loc 2 74 42 view .LVU413
 2106              	.LBE1109:
 2107              	.LBE1115:
 2108              	.LBB1116:
 2109              	.LBI1116:
 2110              		.loc 2 336 10 is_stmt 1 view .LVU414
 2111              	.LBE1116:
 2112              	.LBB1120:
 2113              	.LBB1121:
  74:../libs/PoliTeKDSP/libs/libDaisy/src/dev/mpr121.h ****                    config_.dev_addr, address, 1, data, size, 10);
 2114              		.loc 2 74 42 is_stmt 0 view .LVU415
 2115 03bc CDF800B0 		str	fp, [sp]
 2116 03c0 5E22     		movs	r2, #94
 2117 03c2 CDE90178 		strd	r7, r8, [sp, #4]
 2118              	.LBE1121:
 2119              	.LBE1120:
ARM GAS  C:\Users\39351\AppData\Local\Temp\cccegpNG.s 			page 54


 2120              	.LBB1125:
 2121              	.LBB1117:
 2122              		.loc 2 336 55 view .LVU416
 2123 03c6 94F83030 		ldrb	r3, [r4, #48]	@ zero_extendqisi2
 2124              	.LBE1117:
 2125              	.LBE1125:
 2126              	.LBB1126:
 2127              	.LBB1122:
  74:../libs/PoliTeKDSP/libs/libDaisy/src/dev/mpr121.h ****                    config_.dev_addr, address, 1, data, size, 10);
 2128              		.loc 2 74 42 view .LVU417
 2129 03ca 94F82C10 		ldrb	r1, [r4, #44]	@ zero_extendqisi2
 2130              	.LBE1122:
 2131              	.LBE1126:
 2132              	.LBB1127:
 2133              	.LBB1118:
 2134              		.loc 2 336 55 view .LVU418
 2135 03ce 5045     		cmp	r0, r10
 2136 03d0 18BF     		it	ne
 2137 03d2 43F00103 		orrne	r3, r3, #1
 2138              	.LBE1118:
 2139              	.LBE1127:
 2140              	.LBB1128:
 2141              	.LBB1123:
  74:../libs/PoliTeKDSP/libs/libDaisy/src/dev/mpr121.h ****                    config_.dev_addr, address, 1, data, size, 10);
 2142              		.loc 2 74 42 view .LVU419
 2143 03d6 2846     		mov	r0, r5
 2144              	.LVL101:
  74:../libs/PoliTeKDSP/libs/libDaisy/src/dev/mpr121.h ****                    config_.dev_addr, address, 1, data, size, 10);
 2145              		.loc 2 74 42 view .LVU420
 2146              	.LBE1123:
 2147              	.LBE1128:
 2148              	.LBB1129:
 2149              	.LBB1119:
 2150              		.loc 2 336 55 view .LVU421
 2151 03d8 84F83030 		strb	r3, [r4, #48]
 2152              	.LVL102:
 2153              		.loc 2 336 55 view .LVU422
 2154              	.LBE1119:
 2155              	.LBE1129:
 2156              	.LBB1130:
 2157              	.LBI1120:
  71:../libs/PoliTeKDSP/libs/libDaisy/src/dev/mpr121.h ****     {
 2158              		.loc 2 71 10 is_stmt 1 view .LVU423
 2159              	.LBB1124:
  73:../libs/PoliTeKDSP/libs/libDaisy/src/dev/mpr121.h ****                != i2c_.WriteDataAtAddress(
 2160              		.loc 2 73 9 view .LVU424
  74:../libs/PoliTeKDSP/libs/libDaisy/src/dev/mpr121.h ****                    config_.dev_addr, address, 1, data, size, 10);
 2161              		.loc 2 74 42 is_stmt 0 view .LVU425
 2162 03dc 3B46     		mov	r3, r7
 2163 03de FFF7FEFF 		bl	_ZN5daisy9I2CHandle18WriteDataAtAddressEtttPhtm
 2164              	.LVL103:
  74:../libs/PoliTeKDSP/libs/libDaisy/src/dev/mpr121.h ****                    config_.dev_addr, address, 1, data, size, 10);
 2165              		.loc 2 74 42 view .LVU426
 2166              	.LBE1124:
 2167              	.LBE1130:
 2168              	.LBB1131:
 2169              	.LBI1131:
ARM GAS  C:\Users\39351\AppData\Local\Temp\cccegpNG.s 			page 55


 2170              		.loc 2 336 10 is_stmt 1 view .LVU427
 2171              	.LBE1131:
 2172              	.LBE1138:
 2173              	.LBE1063:
 2174              	.LBB1142:
 2175              	.LBB1143:
 2176              	.LBB1144:
 2177              	.LBB1145:
 2178              	.LBB1146:
 2179              	.LBB1147:
 2180              	.LBB1148:
  66:../libs/PoliTeKDSP/libs/libDaisy/src/dev/mpr121.h ****                    config_.dev_addr, address, 1, data, size, 10);
 2181              		.loc 2 66 41 is_stmt 0 view .LVU428
 2182 03e2 0096     		str	r6, [sp]
 2183 03e4 5E22     		movs	r2, #94
 2184 03e6 8DF82770 		strb	r7, [sp, #39]
 2185 03ea CDE90178 		strd	r7, r8, [sp, #4]
 2186              	.LBE1148:
 2187              	.LBE1147:
 2188              	.LBE1146:
 2189              	.LBE1145:
 2190              	.LBE1144:
 2191              	.LBE1143:
 2192              	.LBE1142:
 2193              	.LBB1233:
 2194              	.LBB1139:
 2195              	.LBB1135:
 2196              	.LBB1132:
 2197              		.loc 2 336 55 view .LVU429
 2198 03ee 94F83030 		ldrb	r3, [r4, #48]	@ zero_extendqisi2
 2199              	.LBE1132:
 2200              	.LBE1135:
 2201              	.LBE1139:
 2202              	.LBE1233:
 2203              	.LBB1234:
 2204              	.LBB1227:
 2205              	.LBB1191:
 2206              	.LBB1168:
 2207              	.LBB1162:
 2208              	.LBB1152:
 2209              	.LBB1149:
  66:../libs/PoliTeKDSP/libs/libDaisy/src/dev/mpr121.h ****                    config_.dev_addr, address, 1, data, size, 10);
 2210              		.loc 2 66 41 view .LVU430
 2211 03f2 94F82C10 		ldrb	r1, [r4, #44]	@ zero_extendqisi2
 2212              	.LBE1149:
 2213              	.LBE1152:
 2214              	.LBE1162:
 2215              	.LBE1168:
 2216              	.LBE1191:
 2217              	.LBE1227:
 2218              	.LBE1234:
 2219              	.LBB1235:
 2220              	.LBB1140:
 2221              	.LBB1136:
 2222              	.LBB1133:
 2223              		.loc 2 336 55 view .LVU431
 2224 03f6 5045     		cmp	r0, r10
ARM GAS  C:\Users\39351\AppData\Local\Temp\cccegpNG.s 			page 56


 2225 03f8 18BF     		it	ne
 2226 03fa 43F00103 		orrne	r3, r3, #1
 2227              	.LBE1133:
 2228              	.LBE1136:
 2229              	.LBE1140:
 2230              	.LBE1235:
 2231              	.LBB1236:
 2232              	.LBB1228:
 2233              	.LBB1192:
 2234              	.LBB1169:
 2235              	.LBB1163:
 2236              	.LBB1153:
 2237              	.LBB1150:
  66:../libs/PoliTeKDSP/libs/libDaisy/src/dev/mpr121.h ****                    config_.dev_addr, address, 1, data, size, 10);
 2238              		.loc 2 66 41 view .LVU432
 2239 03fe 2846     		mov	r0, r5
 2240              	.LVL104:
  66:../libs/PoliTeKDSP/libs/libDaisy/src/dev/mpr121.h ****                    config_.dev_addr, address, 1, data, size, 10);
 2241              		.loc 2 66 41 view .LVU433
 2242              	.LBE1150:
 2243              	.LBE1153:
 2244              	.LBE1163:
 2245              	.LBE1169:
 2246              	.LBE1192:
 2247              	.LBE1228:
 2248              	.LBE1236:
 2249              	.LBB1237:
 2250              	.LBB1141:
 2251              	.LBB1137:
 2252              	.LBB1134:
 2253              		.loc 2 336 55 view .LVU434
 2254 0400 84F83030 		strb	r3, [r4, #48]
 2255              	.LVL105:
 2256              		.loc 2 336 55 view .LVU435
 2257              	.LBE1134:
 2258              	.LBE1137:
 2259              	.LBE1141:
 2260              	.LBE1237:
 2261              	.LBB1238:
 2262              	.LBI1142:
 257:../libs/PoliTeKDSP/libs/libDaisy/src/dev/mpr121.h ****     {
 2263              		.loc 2 257 10 is_stmt 1 view .LVU436
 2264              	.LBB1229:
 2265              	.LBB1193:
 2266              	.LBB1170:
 2267              	.LBI1145:
 232:../libs/PoliTeKDSP/libs/libDaisy/src/dev/mpr121.h ****     {
 2268              		.loc 2 232 13 view .LVU437
 2269              	.LBB1164:
 2270              	.LBB1154:
 2271              	.LBI1147:
  63:../libs/PoliTeKDSP/libs/libDaisy/src/dev/mpr121.h ****     {
 2272              		.loc 2 63 10 view .LVU438
 2273              	.LBB1151:
  65:../libs/PoliTeKDSP/libs/libDaisy/src/dev/mpr121.h ****                != i2c_.ReadDataAtAddress(
 2274              		.loc 2 65 9 view .LVU439
  66:../libs/PoliTeKDSP/libs/libDaisy/src/dev/mpr121.h ****                    config_.dev_addr, address, 1, data, size, 10);
ARM GAS  C:\Users\39351\AppData\Local\Temp\cccegpNG.s 			page 57


 2275              		.loc 2 66 41 is_stmt 0 view .LVU440
 2276 0404 3B46     		mov	r3, r7
 2277 0406 FFF7FEFF 		bl	_ZN5daisy9I2CHandle17ReadDataAtAddressEtttPhtm
 2278              	.LVL106:
  66:../libs/PoliTeKDSP/libs/libDaisy/src/dev/mpr121.h ****                    config_.dev_addr, address, 1, data, size, 10);
 2279              		.loc 2 66 41 view .LVU441
 2280              	.LBE1151:
 2281              	.LBE1154:
 2282              	.LBB1155:
 2283              	.LBI1155:
 2284              		.loc 2 336 10 is_stmt 1 view .LVU442
 2285              	.LBE1155:
 2286              	.LBE1164:
 2287              	.LBE1170:
 2288              	.LBB1171:
 2289              	.LBB1172:
  74:../libs/PoliTeKDSP/libs/libDaisy/src/dev/mpr121.h ****                    config_.dev_addr, address, 1, data, size, 10);
 2290              		.loc 2 74 42 is_stmt 0 view .LVU443
 2291 040a 0096     		str	r6, [sp]
 2292 040c 5E22     		movs	r2, #94
 2293 040e CDE90178 		strd	r7, r8, [sp, #4]
 2294              	.LBE1172:
 2295              	.LBE1171:
 2296              	.LBB1177:
 2297              	.LBB1165:
 2298              	.LBB1159:
 2299              	.LBB1156:
 2300              		.loc 2 336 55 view .LVU444
 2301 0412 94F83030 		ldrb	r3, [r4, #48]	@ zero_extendqisi2
 2302              	.LBE1156:
 2303              	.LBE1159:
 2304              	.LBE1165:
 2305              	.LBE1177:
 2306              	.LBB1178:
 2307              	.LBB1173:
  74:../libs/PoliTeKDSP/libs/libDaisy/src/dev/mpr121.h ****                    config_.dev_addr, address, 1, data, size, 10);
 2308              		.loc 2 74 42 view .LVU445
 2309 0416 94F82C10 		ldrb	r1, [r4, #44]	@ zero_extendqisi2
 2310              	.LBE1173:
 2311              	.LBE1178:
 2312              	.LBB1179:
 2313              	.LBB1166:
 2314              	.LBB1160:
 2315              	.LBB1157:
 2316              		.loc 2 336 55 view .LVU446
 2317 041a 5045     		cmp	r0, r10
 2318 041c 18BF     		it	ne
 2319 041e 43F00103 		orrne	r3, r3, #1
 2320              	.LBE1157:
 2321              	.LBE1160:
 2322              	.LBE1166:
 2323              	.LBE1179:
 2324              	.LBB1180:
 2325              	.LBB1174:
  74:../libs/PoliTeKDSP/libs/libDaisy/src/dev/mpr121.h ****                    config_.dev_addr, address, 1, data, size, 10);
 2326              		.loc 2 74 42 view .LVU447
 2327 0422 2846     		mov	r0, r5
ARM GAS  C:\Users\39351\AppData\Local\Temp\cccegpNG.s 			page 58


 2328              	.LVL107:
  74:../libs/PoliTeKDSP/libs/libDaisy/src/dev/mpr121.h ****                    config_.dev_addr, address, 1, data, size, 10);
 2329              		.loc 2 74 42 view .LVU448
 2330              	.LBE1174:
 2331              	.LBE1180:
 2332              	.LBB1181:
 2333              	.LBB1167:
 2334              	.LBB1161:
 2335              	.LBB1158:
 2336              		.loc 2 336 55 view .LVU449
 2337 0424 84F83030 		strb	r3, [r4, #48]
 2338              	.LVL108:
 2339              		.loc 2 336 55 view .LVU450
 2340              	.LBE1158:
 2341              	.LBE1161:
 237:../libs/PoliTeKDSP/libs/libDaisy/src/dev/mpr121.h ****     }
 2342              		.loc 2 237 16 view .LVU451
 2343 0428 9DF83C30 		ldrb	r3, [sp, #60]	@ zero_extendqisi2
 2344              	.LVL109:
 237:../libs/PoliTeKDSP/libs/libDaisy/src/dev/mpr121.h ****     }
 2345              		.loc 2 237 16 view .LVU452
 2346              	.LBE1167:
 2347              	.LBE1181:
 271:../libs/PoliTeKDSP/libs/libDaisy/src/dev/mpr121.h ****             // clear this register to set stop mode
 2348              		.loc 2 271 21 view .LVU453
 2349 042c 8DF83CA0 		strb	r10, [sp, #60]
 2350              	.LVL110:
 2351              	.LBB1182:
 2352              	.LBI1171:
  71:../libs/PoliTeKDSP/libs/libDaisy/src/dev/mpr121.h ****     {
 2353              		.loc 2 71 10 is_stmt 1 view .LVU454
 2354              	.LBB1175:
  73:../libs/PoliTeKDSP/libs/libDaisy/src/dev/mpr121.h ****                != i2c_.WriteDataAtAddress(
 2355              		.loc 2 73 9 view .LVU455
 2356              	.LBE1175:
 2357              	.LBE1182:
 270:../libs/PoliTeKDSP/libs/libDaisy/src/dev/mpr121.h ****             uint8_t zero = 0x00;
 2358              		.loc 2 270 26 is_stmt 0 view .LVU456
 2359 0430 8DF82830 		strb	r3, [sp, #40]
 2360              	.LBB1183:
 2361              	.LBB1176:
  74:../libs/PoliTeKDSP/libs/libDaisy/src/dev/mpr121.h ****                    config_.dev_addr, address, 1, data, size, 10);
 2362              		.loc 2 74 42 view .LVU457
 2363 0434 3B46     		mov	r3, r7
 2364 0436 FFF7FEFF 		bl	_ZN5daisy9I2CHandle18WriteDataAtAddressEtttPhtm
 2365              	.LVL111:
  74:../libs/PoliTeKDSP/libs/libDaisy/src/dev/mpr121.h ****                    config_.dev_addr, address, 1, data, size, 10);
 2366              		.loc 2 74 42 view .LVU458
 2367              	.LBE1176:
 2368              	.LBE1183:
 2369              	.LBB1184:
 2370              	.LBI1184:
 2371              		.loc 2 336 10 is_stmt 1 view .LVU459
 2372              	.LBE1184:
 2373              	.LBE1193:
 2374              	.LBB1194:
 2375              	.LBB1195:
ARM GAS  C:\Users\39351\AppData\Local\Temp\cccegpNG.s 			page 59


  74:../libs/PoliTeKDSP/libs/libDaisy/src/dev/mpr121.h ****                    config_.dev_addr, address, 1, data, size, 10);
 2376              		.loc 2 74 42 is_stmt 0 view .LVU460
 2377 043a 0DF12703 		add	r3, sp, #39
 2378 043e 2C22     		movs	r2, #44
 2379 0440 0093     		str	r3, [sp]
 2380 0442 CDE90178 		strd	r7, r8, [sp, #4]
 2381              	.LBE1195:
 2382              	.LBE1194:
 2383              	.LBB1199:
 2384              	.LBB1188:
 2385              	.LBB1185:
 2386              		.loc 2 336 55 view .LVU461
 2387 0446 94F83030 		ldrb	r3, [r4, #48]	@ zero_extendqisi2
 2388              	.LBE1185:
 2389              	.LBE1188:
 2390              	.LBE1199:
 2391              	.LBB1200:
 2392              	.LBB1196:
  74:../libs/PoliTeKDSP/libs/libDaisy/src/dev/mpr121.h ****                    config_.dev_addr, address, 1, data, size, 10);
 2393              		.loc 2 74 42 view .LVU462
 2394 044a 94F82C10 		ldrb	r1, [r4, #44]	@ zero_extendqisi2
 2395              	.LBE1196:
 2396              	.LBE1200:
 2397              	.LBB1201:
 2398              	.LBB1189:
 2399              	.LBB1186:
 2400              		.loc 2 336 55 view .LVU463
 2401 044e 5045     		cmp	r0, r10
 2402 0450 18BF     		it	ne
 2403 0452 43F00103 		orrne	r3, r3, #1
 2404              	.LBE1186:
 2405              	.LBE1189:
 2406              	.LBE1201:
 2407              	.LBB1202:
 2408              	.LBB1197:
  74:../libs/PoliTeKDSP/libs/libDaisy/src/dev/mpr121.h ****                    config_.dev_addr, address, 1, data, size, 10);
 2409              		.loc 2 74 42 view .LVU464
 2410 0456 2846     		mov	r0, r5
 2411              	.LVL112:
  74:../libs/PoliTeKDSP/libs/libDaisy/src/dev/mpr121.h ****                    config_.dev_addr, address, 1, data, size, 10);
 2412              		.loc 2 74 42 view .LVU465
 2413              	.LBE1197:
 2414              	.LBE1202:
 2415              	.LBB1203:
 2416              	.LBB1190:
 2417              	.LBB1187:
 2418              		.loc 2 336 55 view .LVU466
 2419 0458 84F83030 		strb	r3, [r4, #48]
 2420              	.LVL113:
 2421              		.loc 2 336 55 view .LVU467
 2422              	.LBE1187:
 2423              	.LBE1190:
 2424              	.LBE1203:
 2425              	.LBB1204:
 2426              	.LBI1194:
  71:../libs/PoliTeKDSP/libs/libDaisy/src/dev/mpr121.h ****     {
 2427              		.loc 2 71 10 is_stmt 1 view .LVU468
ARM GAS  C:\Users\39351\AppData\Local\Temp\cccegpNG.s 			page 60


 2428              	.LBB1198:
  73:../libs/PoliTeKDSP/libs/libDaisy/src/dev/mpr121.h ****                != i2c_.WriteDataAtAddress(
 2429              		.loc 2 73 9 view .LVU469
  74:../libs/PoliTeKDSP/libs/libDaisy/src/dev/mpr121.h ****                    config_.dev_addr, address, 1, data, size, 10);
 2430              		.loc 2 74 42 is_stmt 0 view .LVU470
 2431 045c 3B46     		mov	r3, r7
 2432 045e FFF7FEFF 		bl	_ZN5daisy9I2CHandle18WriteDataAtAddressEtttPhtm
 2433              	.LVL114:
  74:../libs/PoliTeKDSP/libs/libDaisy/src/dev/mpr121.h ****                    config_.dev_addr, address, 1, data, size, 10);
 2434              		.loc 2 74 42 view .LVU471
 2435              	.LBE1198:
 2436              	.LBE1204:
 2437              	.LBB1205:
 2438              	.LBI1205:
 2439              		.loc 2 336 10 is_stmt 1 view .LVU472
 2440              	.LBE1205:
 2441              	.LBB1209:
 2442              	.LBB1210:
  74:../libs/PoliTeKDSP/libs/libDaisy/src/dev/mpr121.h ****                    config_.dev_addr, address, 1, data, size, 10);
 2443              		.loc 2 74 42 is_stmt 0 view .LVU473
 2444 0462 CDF800B0 		str	fp, [sp]
 2445 0466 5E22     		movs	r2, #94
 2446 0468 CDE90178 		strd	r7, r8, [sp, #4]
 2447              	.LBE1210:
 2448              	.LBE1209:
 2449              	.LBB1214:
 2450              	.LBB1206:
 2451              		.loc 2 336 55 view .LVU474
 2452 046c 94F83030 		ldrb	r3, [r4, #48]	@ zero_extendqisi2
 2453              	.LBE1206:
 2454              	.LBE1214:
 2455              	.LBB1215:
 2456              	.LBB1211:
  74:../libs/PoliTeKDSP/libs/libDaisy/src/dev/mpr121.h ****                    config_.dev_addr, address, 1, data, size, 10);
 2457              		.loc 2 74 42 view .LVU475
 2458 0470 94F82C10 		ldrb	r1, [r4, #44]	@ zero_extendqisi2
 2459              	.LBE1211:
 2460              	.LBE1215:
 2461              	.LBB1216:
 2462              	.LBB1207:
 2463              		.loc 2 336 55 view .LVU476
 2464 0474 5045     		cmp	r0, r10
 2465 0476 18BF     		it	ne
 2466 0478 43F00103 		orrne	r3, r3, #1
 2467              	.LBE1207:
 2468              	.LBE1216:
 2469              	.LBB1217:
 2470              	.LBB1212:
  74:../libs/PoliTeKDSP/libs/libDaisy/src/dev/mpr121.h ****                    config_.dev_addr, address, 1, data, size, 10);
 2471              		.loc 2 74 42 view .LVU477
 2472 047c 2846     		mov	r0, r5
 2473              	.LVL115:
  74:../libs/PoliTeKDSP/libs/libDaisy/src/dev/mpr121.h ****                    config_.dev_addr, address, 1, data, size, 10);
 2474              		.loc 2 74 42 view .LVU478
 2475              	.LBE1212:
 2476              	.LBE1217:
 2477              	.LBB1218:
ARM GAS  C:\Users\39351\AppData\Local\Temp\cccegpNG.s 			page 61


 2478              	.LBB1208:
 2479              		.loc 2 336 55 view .LVU479
 2480 047e 84F83030 		strb	r3, [r4, #48]
 2481              	.LVL116:
 2482              		.loc 2 336 55 view .LVU480
 2483              	.LBE1208:
 2484              	.LBE1218:
 2485              	.LBB1219:
 2486              	.LBI1209:
  71:../libs/PoliTeKDSP/libs/libDaisy/src/dev/mpr121.h ****     {
 2487              		.loc 2 71 10 is_stmt 1 view .LVU481
 2488              	.LBB1213:
  73:../libs/PoliTeKDSP/libs/libDaisy/src/dev/mpr121.h ****                != i2c_.WriteDataAtAddress(
 2489              		.loc 2 73 9 view .LVU482
  74:../libs/PoliTeKDSP/libs/libDaisy/src/dev/mpr121.h ****                    config_.dev_addr, address, 1, data, size, 10);
 2490              		.loc 2 74 42 is_stmt 0 view .LVU483
 2491 0482 3B46     		mov	r3, r7
 2492 0484 FFF7FEFF 		bl	_ZN5daisy9I2CHandle18WriteDataAtAddressEtttPhtm
 2493              	.LVL117:
  74:../libs/PoliTeKDSP/libs/libDaisy/src/dev/mpr121.h ****                    config_.dev_addr, address, 1, data, size, 10);
 2494              		.loc 2 74 42 view .LVU484
 2495              	.LBE1213:
 2496              	.LBE1219:
 2497              	.LBB1220:
 2498              	.LBI1220:
 2499              		.loc 2 336 10 is_stmt 1 view .LVU485
 2500              	.LBE1220:
 2501              	.LBE1229:
 2502              	.LBE1238:
 2503              	.LBB1239:
 2504              	.LBB1240:
 2505              	.LBB1241:
 2506              	.LBB1242:
 2507              	.LBB1243:
 2508              	.LBB1244:
 2509              	.LBB1245:
  66:../libs/PoliTeKDSP/libs/libDaisy/src/dev/mpr121.h ****                    config_.dev_addr, address, 1, data, size, 10);
 2510              		.loc 2 66 41 is_stmt 0 view .LVU486
 2511 0488 0096     		str	r6, [sp]
 2512 048a 5E22     		movs	r2, #94
 2513 048c CDE90178 		strd	r7, r8, [sp, #4]
 2514              	.LBE1245:
 2515              	.LBE1244:
 2516              	.LBE1243:
 2517              	.LBE1242:
 2518              	.LBE1241:
 2519              	.LBE1240:
 2520              	.LBE1239:
 2521              	.LBB1330:
 2522              	.LBB1230:
 2523              	.LBB1224:
 2524              	.LBB1221:
 2525              		.loc 2 336 55 view .LVU487
 2526 0490 94F83030 		ldrb	r3, [r4, #48]	@ zero_extendqisi2
 2527              	.LBE1221:
 2528              	.LBE1224:
 2529              	.LBE1230:
ARM GAS  C:\Users\39351\AppData\Local\Temp\cccegpNG.s 			page 62


 2530              	.LBE1330:
 2531              	.LBB1331:
 2532              	.LBB1324:
 2533              	.LBB1288:
 2534              	.LBB1265:
 2535              	.LBB1259:
 2536              	.LBB1249:
 2537              	.LBB1246:
  66:../libs/PoliTeKDSP/libs/libDaisy/src/dev/mpr121.h ****                    config_.dev_addr, address, 1, data, size, 10);
 2538              		.loc 2 66 41 view .LVU488
 2539 0494 94F82C10 		ldrb	r1, [r4, #44]	@ zero_extendqisi2
 2540              	.LBE1246:
 2541              	.LBE1249:
 2542              	.LBE1259:
 2543              	.LBE1265:
 2544              	.LBE1288:
 2545              	.LBE1324:
 2546              	.LBE1331:
 2547              	.LBB1332:
 2548              	.LBB1231:
 2549              	.LBB1225:
 2550              	.LBB1222:
 2551              		.loc 2 336 55 view .LVU489
 2552 0498 5045     		cmp	r0, r10
 2553 049a 18BF     		it	ne
 2554 049c 43F00103 		orrne	r3, r3, #1
 2555              	.LBE1222:
 2556              	.LBE1225:
 2557              	.LBE1231:
 2558              	.LBE1332:
 2559              	.LBB1333:
 2560              	.LBB1325:
 2561              	.LBB1289:
 2562              	.LBB1266:
 2563              	.LBB1260:
 2564              	.LBB1250:
 2565              	.LBB1247:
  66:../libs/PoliTeKDSP/libs/libDaisy/src/dev/mpr121.h ****                    config_.dev_addr, address, 1, data, size, 10);
 2566              		.loc 2 66 41 view .LVU490
 2567 04a0 2846     		mov	r0, r5
 2568              	.LVL118:
  66:../libs/PoliTeKDSP/libs/libDaisy/src/dev/mpr121.h ****                    config_.dev_addr, address, 1, data, size, 10);
 2569              		.loc 2 66 41 view .LVU491
 2570              	.LBE1247:
 2571              	.LBE1250:
 2572              	.LBE1260:
 2573              	.LBE1266:
 2574              	.LBE1289:
 2575              	.LBE1325:
 2576              	.LBE1333:
 2577              	.LBB1334:
 2578              	.LBB1232:
 2579              	.LBB1226:
 2580              	.LBB1223:
 2581              		.loc 2 336 55 view .LVU492
 2582 04a2 84F83030 		strb	r3, [r4, #48]
 2583              	.LVL119:
ARM GAS  C:\Users\39351\AppData\Local\Temp\cccegpNG.s 			page 63


 2584              		.loc 2 336 55 view .LVU493
 2585 04a6 0E23     		movs	r3, #14
 2586 04a8 8DF82730 		strb	r3, [sp, #39]
 2587              	.LVL120:
 2588              		.loc 2 336 55 view .LVU494
 2589              	.LBE1223:
 2590              	.LBE1226:
 2591              	.LBE1232:
 2592              	.LBE1334:
 2593              	.LBB1335:
 2594              	.LBI1239:
 257:../libs/PoliTeKDSP/libs/libDaisy/src/dev/mpr121.h ****     {
 2595              		.loc 2 257 10 is_stmt 1 view .LVU495
 2596              	.LBB1326:
 2597              	.LBB1290:
 2598              	.LBB1267:
 2599              	.LBI1242:
 232:../libs/PoliTeKDSP/libs/libDaisy/src/dev/mpr121.h ****     {
 2600              		.loc 2 232 13 view .LVU496
 2601              	.LBB1261:
 2602              	.LBB1251:
 2603              	.LBI1244:
  63:../libs/PoliTeKDSP/libs/libDaisy/src/dev/mpr121.h ****     {
 2604              		.loc 2 63 10 view .LVU497
 2605              	.LBB1248:
  65:../libs/PoliTeKDSP/libs/libDaisy/src/dev/mpr121.h ****                != i2c_.ReadDataAtAddress(
 2606              		.loc 2 65 9 view .LVU498
  66:../libs/PoliTeKDSP/libs/libDaisy/src/dev/mpr121.h ****                    config_.dev_addr, address, 1, data, size, 10);
 2607              		.loc 2 66 41 is_stmt 0 view .LVU499
 2608 04ac 3B46     		mov	r3, r7
 2609              	.LVL121:
  66:../libs/PoliTeKDSP/libs/libDaisy/src/dev/mpr121.h ****                    config_.dev_addr, address, 1, data, size, 10);
 2610              		.loc 2 66 41 view .LVU500
 2611 04ae FFF7FEFF 		bl	_ZN5daisy9I2CHandle17ReadDataAtAddressEtttPhtm
 2612              	.LVL122:
  66:../libs/PoliTeKDSP/libs/libDaisy/src/dev/mpr121.h ****                    config_.dev_addr, address, 1, data, size, 10);
 2613              		.loc 2 66 41 view .LVU501
 2614              	.LBE1248:
 2615              	.LBE1251:
 2616              	.LBB1252:
 2617              	.LBI1252:
 2618              		.loc 2 336 10 is_stmt 1 view .LVU502
 2619              	.LBE1252:
 2620              	.LBE1261:
 2621              	.LBE1267:
 2622              	.LBB1268:
 2623              	.LBB1269:
  74:../libs/PoliTeKDSP/libs/libDaisy/src/dev/mpr121.h ****                    config_.dev_addr, address, 1, data, size, 10);
 2624              		.loc 2 74 42 is_stmt 0 view .LVU503
 2625 04b2 0096     		str	r6, [sp]
 2626 04b4 5E22     		movs	r2, #94
 2627 04b6 CDE90178 		strd	r7, r8, [sp, #4]
 2628              	.LBE1269:
 2629              	.LBE1268:
 2630              	.LBB1274:
 2631              	.LBB1262:
 2632              	.LBB1256:
ARM GAS  C:\Users\39351\AppData\Local\Temp\cccegpNG.s 			page 64


 2633              	.LBB1253:
 2634              		.loc 2 336 55 view .LVU504
 2635 04ba 94F83030 		ldrb	r3, [r4, #48]	@ zero_extendqisi2
 2636              	.LBE1253:
 2637              	.LBE1256:
 2638              	.LBE1262:
 2639              	.LBE1274:
 2640              	.LBB1275:
 2641              	.LBB1270:
  74:../libs/PoliTeKDSP/libs/libDaisy/src/dev/mpr121.h ****                    config_.dev_addr, address, 1, data, size, 10);
 2642              		.loc 2 74 42 view .LVU505
 2643 04be 94F82C10 		ldrb	r1, [r4, #44]	@ zero_extendqisi2
 2644              	.LBE1270:
 2645              	.LBE1275:
 2646              	.LBB1276:
 2647              	.LBB1263:
 2648              	.LBB1257:
 2649              	.LBB1254:
 2650              		.loc 2 336 55 view .LVU506
 2651 04c2 5045     		cmp	r0, r10
 2652 04c4 18BF     		it	ne
 2653 04c6 43F00103 		orrne	r3, r3, #1
 2654              	.LBE1254:
 2655              	.LBE1257:
 2656              	.LBE1263:
 2657              	.LBE1276:
 2658              	.LBB1277:
 2659              	.LBB1271:
  74:../libs/PoliTeKDSP/libs/libDaisy/src/dev/mpr121.h ****                    config_.dev_addr, address, 1, data, size, 10);
 2660              		.loc 2 74 42 view .LVU507
 2661 04ca 2846     		mov	r0, r5
 2662              	.LVL123:
  74:../libs/PoliTeKDSP/libs/libDaisy/src/dev/mpr121.h ****                    config_.dev_addr, address, 1, data, size, 10);
 2663              		.loc 2 74 42 view .LVU508
 2664              	.LBE1271:
 2665              	.LBE1277:
 2666              	.LBB1278:
 2667              	.LBB1264:
 2668              	.LBB1258:
 2669              	.LBB1255:
 2670              		.loc 2 336 55 view .LVU509
 2671 04cc 84F83030 		strb	r3, [r4, #48]
 2672              	.LVL124:
 2673              		.loc 2 336 55 view .LVU510
 2674              	.LBE1255:
 2675              	.LBE1258:
 237:../libs/PoliTeKDSP/libs/libDaisy/src/dev/mpr121.h ****     }
 2676              		.loc 2 237 16 view .LVU511
 2677 04d0 9DF83C30 		ldrb	r3, [sp, #60]	@ zero_extendqisi2
 2678              	.LVL125:
 237:../libs/PoliTeKDSP/libs/libDaisy/src/dev/mpr121.h ****     }
 2679              		.loc 2 237 16 view .LVU512
 2680              	.LBE1264:
 2681              	.LBE1278:
 271:../libs/PoliTeKDSP/libs/libDaisy/src/dev/mpr121.h ****             // clear this register to set stop mode
 2682              		.loc 2 271 21 view .LVU513
 2683 04d4 8DF83CA0 		strb	r10, [sp, #60]
ARM GAS  C:\Users\39351\AppData\Local\Temp\cccegpNG.s 			page 65


 2684              	.LVL126:
 2685              	.LBB1279:
 2686              	.LBI1268:
  71:../libs/PoliTeKDSP/libs/libDaisy/src/dev/mpr121.h ****     {
 2687              		.loc 2 71 10 is_stmt 1 view .LVU514
 2688              	.LBB1272:
  73:../libs/PoliTeKDSP/libs/libDaisy/src/dev/mpr121.h ****                != i2c_.WriteDataAtAddress(
 2689              		.loc 2 73 9 view .LVU515
 2690              	.LBE1272:
 2691              	.LBE1279:
 270:../libs/PoliTeKDSP/libs/libDaisy/src/dev/mpr121.h ****             uint8_t zero = 0x00;
 2692              		.loc 2 270 26 is_stmt 0 view .LVU516
 2693 04d8 8DF82830 		strb	r3, [sp, #40]
 2694              	.LBB1280:
 2695              	.LBB1273:
  74:../libs/PoliTeKDSP/libs/libDaisy/src/dev/mpr121.h ****                    config_.dev_addr, address, 1, data, size, 10);
 2696              		.loc 2 74 42 view .LVU517
 2697 04dc 3B46     		mov	r3, r7
 2698 04de FFF7FEFF 		bl	_ZN5daisy9I2CHandle18WriteDataAtAddressEtttPhtm
 2699              	.LVL127:
  74:../libs/PoliTeKDSP/libs/libDaisy/src/dev/mpr121.h ****                    config_.dev_addr, address, 1, data, size, 10);
 2700              		.loc 2 74 42 view .LVU518
 2701              	.LBE1273:
 2702              	.LBE1280:
 2703              	.LBB1281:
 2704              	.LBI1281:
 2705              		.loc 2 336 10 is_stmt 1 view .LVU519
 2706              	.LBE1281:
 2707              	.LBE1290:
 2708              	.LBB1291:
 2709              	.LBB1292:
  74:../libs/PoliTeKDSP/libs/libDaisy/src/dev/mpr121.h ****                    config_.dev_addr, address, 1, data, size, 10);
 2710              		.loc 2 74 42 is_stmt 0 view .LVU520
 2711 04e2 0DF12703 		add	r3, sp, #39
 2712 04e6 2D22     		movs	r2, #45
 2713 04e8 0093     		str	r3, [sp]
 2714 04ea CDE90178 		strd	r7, r8, [sp, #4]
 2715              	.LBE1292:
 2716              	.LBE1291:
 2717              	.LBB1296:
 2718              	.LBB1285:
 2719              	.LBB1282:
 2720              		.loc 2 336 55 view .LVU521
 2721 04ee 94F83030 		ldrb	r3, [r4, #48]	@ zero_extendqisi2
 2722              	.LBE1282:
 2723              	.LBE1285:
 2724              	.LBE1296:
 2725              	.LBB1297:
 2726              	.LBB1293:
  74:../libs/PoliTeKDSP/libs/libDaisy/src/dev/mpr121.h ****                    config_.dev_addr, address, 1, data, size, 10);
 2727              		.loc 2 74 42 view .LVU522
 2728 04f2 94F82C10 		ldrb	r1, [r4, #44]	@ zero_extendqisi2
 2729              	.LBE1293:
 2730              	.LBE1297:
 2731              	.LBB1298:
 2732              	.LBB1286:
 2733              	.LBB1283:
ARM GAS  C:\Users\39351\AppData\Local\Temp\cccegpNG.s 			page 66


 2734              		.loc 2 336 55 view .LVU523
 2735 04f6 5045     		cmp	r0, r10
 2736 04f8 18BF     		it	ne
 2737 04fa 43F00103 		orrne	r3, r3, #1
 2738              	.LBE1283:
 2739              	.LBE1286:
 2740              	.LBE1298:
 2741              	.LBB1299:
 2742              	.LBB1294:
  74:../libs/PoliTeKDSP/libs/libDaisy/src/dev/mpr121.h ****                    config_.dev_addr, address, 1, data, size, 10);
 2743              		.loc 2 74 42 view .LVU524
 2744 04fe 2846     		mov	r0, r5
 2745              	.LVL128:
  74:../libs/PoliTeKDSP/libs/libDaisy/src/dev/mpr121.h ****                    config_.dev_addr, address, 1, data, size, 10);
 2746              		.loc 2 74 42 view .LVU525
 2747              	.LBE1294:
 2748              	.LBE1299:
 2749              	.LBB1300:
 2750              	.LBB1287:
 2751              	.LBB1284:
 2752              		.loc 2 336 55 view .LVU526
 2753 0500 84F83030 		strb	r3, [r4, #48]
 2754              	.LVL129:
 2755              		.loc 2 336 55 view .LVU527
 2756              	.LBE1284:
 2757              	.LBE1287:
 2758              	.LBE1300:
 2759              	.LBB1301:
 2760              	.LBI1291:
  71:../libs/PoliTeKDSP/libs/libDaisy/src/dev/mpr121.h ****     {
 2761              		.loc 2 71 10 is_stmt 1 view .LVU528
 2762              	.LBB1295:
  73:../libs/PoliTeKDSP/libs/libDaisy/src/dev/mpr121.h ****                != i2c_.WriteDataAtAddress(
 2763              		.loc 2 73 9 view .LVU529
  74:../libs/PoliTeKDSP/libs/libDaisy/src/dev/mpr121.h ****                    config_.dev_addr, address, 1, data, size, 10);
 2764              		.loc 2 74 42 is_stmt 0 view .LVU530
 2765 0504 3B46     		mov	r3, r7
 2766 0506 FFF7FEFF 		bl	_ZN5daisy9I2CHandle18WriteDataAtAddressEtttPhtm
 2767              	.LVL130:
  74:../libs/PoliTeKDSP/libs/libDaisy/src/dev/mpr121.h ****                    config_.dev_addr, address, 1, data, size, 10);
 2768              		.loc 2 74 42 view .LVU531
 2769              	.LBE1295:
 2770              	.LBE1301:
 2771              	.LBB1302:
 2772              	.LBI1302:
 2773              		.loc 2 336 10 is_stmt 1 view .LVU532
 2774              	.LBE1302:
 2775              	.LBB1306:
 2776              	.LBB1307:
  74:../libs/PoliTeKDSP/libs/libDaisy/src/dev/mpr121.h ****                    config_.dev_addr, address, 1, data, size, 10);
 2777              		.loc 2 74 42 is_stmt 0 view .LVU533
 2778 050a CDF800B0 		str	fp, [sp]
 2779 050e 5E22     		movs	r2, #94
 2780 0510 CDE90178 		strd	r7, r8, [sp, #4]
 2781              	.LBE1307:
 2782              	.LBE1306:
 2783              	.LBB1311:
ARM GAS  C:\Users\39351\AppData\Local\Temp\cccegpNG.s 			page 67


 2784              	.LBB1303:
 2785              		.loc 2 336 55 view .LVU534
 2786 0514 94F83030 		ldrb	r3, [r4, #48]	@ zero_extendqisi2
 2787              	.LBE1303:
 2788              	.LBE1311:
 2789              	.LBB1312:
 2790              	.LBB1308:
  74:../libs/PoliTeKDSP/libs/libDaisy/src/dev/mpr121.h ****                    config_.dev_addr, address, 1, data, size, 10);
 2791              		.loc 2 74 42 view .LVU535
 2792 0518 94F82C10 		ldrb	r1, [r4, #44]	@ zero_extendqisi2
 2793              	.LBE1308:
 2794              	.LBE1312:
 2795              	.LBB1313:
 2796              	.LBB1304:
 2797              		.loc 2 336 55 view .LVU536
 2798 051c 5045     		cmp	r0, r10
 2799 051e 18BF     		it	ne
 2800 0520 43F00103 		orrne	r3, r3, #1
 2801              	.LBE1304:
 2802              	.LBE1313:
 2803              	.LBB1314:
 2804              	.LBB1309:
  74:../libs/PoliTeKDSP/libs/libDaisy/src/dev/mpr121.h ****                    config_.dev_addr, address, 1, data, size, 10);
 2805              		.loc 2 74 42 view .LVU537
 2806 0524 2846     		mov	r0, r5
 2807              	.LVL131:
  74:../libs/PoliTeKDSP/libs/libDaisy/src/dev/mpr121.h ****                    config_.dev_addr, address, 1, data, size, 10);
 2808              		.loc 2 74 42 view .LVU538
 2809              	.LBE1309:
 2810              	.LBE1314:
 2811              	.LBB1315:
 2812              	.LBB1305:
 2813              		.loc 2 336 55 view .LVU539
 2814 0526 84F83030 		strb	r3, [r4, #48]
 2815              	.LVL132:
 2816              		.loc 2 336 55 view .LVU540
 2817              	.LBE1305:
 2818              	.LBE1315:
 2819              	.LBB1316:
 2820              	.LBI1306:
  71:../libs/PoliTeKDSP/libs/libDaisy/src/dev/mpr121.h ****     {
 2821              		.loc 2 71 10 is_stmt 1 view .LVU541
 2822              	.LBB1310:
  73:../libs/PoliTeKDSP/libs/libDaisy/src/dev/mpr121.h ****                != i2c_.WriteDataAtAddress(
 2823              		.loc 2 73 9 view .LVU542
  74:../libs/PoliTeKDSP/libs/libDaisy/src/dev/mpr121.h ****                    config_.dev_addr, address, 1, data, size, 10);
 2824              		.loc 2 74 42 is_stmt 0 view .LVU543
 2825 052a 3B46     		mov	r3, r7
 2826 052c FFF7FEFF 		bl	_ZN5daisy9I2CHandle18WriteDataAtAddressEtttPhtm
 2827              	.LVL133:
  74:../libs/PoliTeKDSP/libs/libDaisy/src/dev/mpr121.h ****                    config_.dev_addr, address, 1, data, size, 10);
 2828              		.loc 2 74 42 view .LVU544
 2829              	.LBE1310:
 2830              	.LBE1316:
 2831              	.LBB1317:
 2832              	.LBI1317:
 2833              		.loc 2 336 10 is_stmt 1 view .LVU545
ARM GAS  C:\Users\39351\AppData\Local\Temp\cccegpNG.s 			page 68


 2834              	.LBE1317:
 2835              	.LBE1326:
 2836              	.LBE1335:
 2837              	.LBB1336:
 2838              	.LBB1337:
 2839              	.LBB1338:
 2840              	.LBB1339:
 2841              	.LBB1340:
 2842              	.LBB1341:
 2843              	.LBB1342:
  66:../libs/PoliTeKDSP/libs/libDaisy/src/dev/mpr121.h ****                    config_.dev_addr, address, 1, data, size, 10);
 2844              		.loc 2 66 41 is_stmt 0 view .LVU546
 2845 0530 0096     		str	r6, [sp]
 2846 0532 5E22     		movs	r2, #94
 2847 0534 8DF827A0 		strb	r10, [sp, #39]
 2848 0538 CDE90178 		strd	r7, r8, [sp, #4]
 2849              	.LBE1342:
 2850              	.LBE1341:
 2851              	.LBE1340:
 2852              	.LBE1339:
 2853              	.LBE1338:
 2854              	.LBE1337:
 2855              	.LBE1336:
 2856              	.LBB1427:
 2857              	.LBB1327:
 2858              	.LBB1321:
 2859              	.LBB1318:
 2860              		.loc 2 336 55 view .LVU547
 2861 053c 94F83030 		ldrb	r3, [r4, #48]	@ zero_extendqisi2
 2862              	.LBE1318:
 2863              	.LBE1321:
 2864              	.LBE1327:
 2865              	.LBE1427:
 2866              	.LBB1428:
 2867              	.LBB1421:
 2868              	.LBB1385:
 2869              	.LBB1362:
 2870              	.LBB1356:
 2871              	.LBB1346:
 2872              	.LBB1343:
  66:../libs/PoliTeKDSP/libs/libDaisy/src/dev/mpr121.h ****                    config_.dev_addr, address, 1, data, size, 10);
 2873              		.loc 2 66 41 view .LVU548
 2874 0540 94F82C10 		ldrb	r1, [r4, #44]	@ zero_extendqisi2
 2875              	.LBE1343:
 2876              	.LBE1346:
 2877              	.LBE1356:
 2878              	.LBE1362:
 2879              	.LBE1385:
 2880              	.LBE1421:
 2881              	.LBE1428:
 2882              	.LBB1429:
 2883              	.LBB1328:
 2884              	.LBB1322:
 2885              	.LBB1319:
 2886              		.loc 2 336 55 view .LVU549
 2887 0544 5045     		cmp	r0, r10
 2888 0546 18BF     		it	ne
ARM GAS  C:\Users\39351\AppData\Local\Temp\cccegpNG.s 			page 69


 2889 0548 43F00103 		orrne	r3, r3, #1
 2890              	.LBE1319:
 2891              	.LBE1322:
 2892              	.LBE1328:
 2893              	.LBE1429:
 2894              	.LBB1430:
 2895              	.LBB1422:
 2896              	.LBB1386:
 2897              	.LBB1363:
 2898              	.LBB1357:
 2899              	.LBB1347:
 2900              	.LBB1344:
  66:../libs/PoliTeKDSP/libs/libDaisy/src/dev/mpr121.h ****                    config_.dev_addr, address, 1, data, size, 10);
 2901              		.loc 2 66 41 view .LVU550
 2902 054c 2846     		mov	r0, r5
 2903              	.LVL134:
  66:../libs/PoliTeKDSP/libs/libDaisy/src/dev/mpr121.h ****                    config_.dev_addr, address, 1, data, size, 10);
 2904              		.loc 2 66 41 view .LVU551
 2905              	.LBE1344:
 2906              	.LBE1347:
 2907              	.LBE1357:
 2908              	.LBE1363:
 2909              	.LBE1386:
 2910              	.LBE1422:
 2911              	.LBE1430:
 2912              	.LBB1431:
 2913              	.LBB1329:
 2914              	.LBB1323:
 2915              	.LBB1320:
 2916              		.loc 2 336 55 view .LVU552
 2917 054e 84F83030 		strb	r3, [r4, #48]
 2918              	.LVL135:
 2919              		.loc 2 336 55 view .LVU553
 2920              	.LBE1320:
 2921              	.LBE1323:
 2922              	.LBE1329:
 2923              	.LBE1431:
 2924              	.LBB1432:
 2925              	.LBI1336:
 257:../libs/PoliTeKDSP/libs/libDaisy/src/dev/mpr121.h ****     {
 2926              		.loc 2 257 10 is_stmt 1 view .LVU554
 2927              	.LBB1423:
 2928              	.LBB1387:
 2929              	.LBB1364:
 2930              	.LBI1339:
 232:../libs/PoliTeKDSP/libs/libDaisy/src/dev/mpr121.h ****     {
 2931              		.loc 2 232 13 view .LVU555
 2932              	.LBB1358:
 2933              	.LBB1348:
 2934              	.LBI1341:
  63:../libs/PoliTeKDSP/libs/libDaisy/src/dev/mpr121.h ****     {
 2935              		.loc 2 63 10 view .LVU556
 2936              	.LBB1345:
  65:../libs/PoliTeKDSP/libs/libDaisy/src/dev/mpr121.h ****                != i2c_.ReadDataAtAddress(
 2937              		.loc 2 65 9 view .LVU557
  66:../libs/PoliTeKDSP/libs/libDaisy/src/dev/mpr121.h ****                    config_.dev_addr, address, 1, data, size, 10);
 2938              		.loc 2 66 41 is_stmt 0 view .LVU558
ARM GAS  C:\Users\39351\AppData\Local\Temp\cccegpNG.s 			page 70


 2939 0552 3B46     		mov	r3, r7
 2940 0554 FFF7FEFF 		bl	_ZN5daisy9I2CHandle17ReadDataAtAddressEtttPhtm
 2941              	.LVL136:
  66:../libs/PoliTeKDSP/libs/libDaisy/src/dev/mpr121.h ****                    config_.dev_addr, address, 1, data, size, 10);
 2942              		.loc 2 66 41 view .LVU559
 2943              	.LBE1345:
 2944              	.LBE1348:
 2945              	.LBB1349:
 2946              	.LBI1349:
 2947              		.loc 2 336 10 is_stmt 1 view .LVU560
 2948              	.LBE1349:
 2949              	.LBE1358:
 2950              	.LBE1364:
 2951              	.LBB1365:
 2952              	.LBB1366:
  74:../libs/PoliTeKDSP/libs/libDaisy/src/dev/mpr121.h ****                    config_.dev_addr, address, 1, data, size, 10);
 2953              		.loc 2 74 42 is_stmt 0 view .LVU561
 2954 0558 0096     		str	r6, [sp]
 2955 055a 5E22     		movs	r2, #94
 2956 055c CDE90178 		strd	r7, r8, [sp, #4]
 2957              	.LBE1366:
 2958              	.LBE1365:
 2959              	.LBB1371:
 2960              	.LBB1359:
 2961              	.LBB1353:
 2962              	.LBB1350:
 2963              		.loc 2 336 55 view .LVU562
 2964 0560 94F83030 		ldrb	r3, [r4, #48]	@ zero_extendqisi2
 2965              	.LBE1350:
 2966              	.LBE1353:
 2967              	.LBE1359:
 2968              	.LBE1371:
 2969              	.LBB1372:
 2970              	.LBB1367:
  74:../libs/PoliTeKDSP/libs/libDaisy/src/dev/mpr121.h ****                    config_.dev_addr, address, 1, data, size, 10);
 2971              		.loc 2 74 42 view .LVU563
 2972 0564 94F82C10 		ldrb	r1, [r4, #44]	@ zero_extendqisi2
 2973              	.LBE1367:
 2974              	.LBE1372:
 2975              	.LBB1373:
 2976              	.LBB1360:
 2977              	.LBB1354:
 2978              	.LBB1351:
 2979              		.loc 2 336 55 view .LVU564
 2980 0568 5045     		cmp	r0, r10
 2981 056a 18BF     		it	ne
 2982 056c 43F00103 		orrne	r3, r3, #1
 2983              	.LBE1351:
 2984              	.LBE1354:
 2985              	.LBE1360:
 2986              	.LBE1373:
 2987              	.LBB1374:
 2988              	.LBB1368:
  74:../libs/PoliTeKDSP/libs/libDaisy/src/dev/mpr121.h ****                    config_.dev_addr, address, 1, data, size, 10);
 2989              		.loc 2 74 42 view .LVU565
 2990 0570 2846     		mov	r0, r5
 2991              	.LVL137:
ARM GAS  C:\Users\39351\AppData\Local\Temp\cccegpNG.s 			page 71


  74:../libs/PoliTeKDSP/libs/libDaisy/src/dev/mpr121.h ****                    config_.dev_addr, address, 1, data, size, 10);
 2992              		.loc 2 74 42 view .LVU566
 2993              	.LBE1368:
 2994              	.LBE1374:
 2995              	.LBB1375:
 2996              	.LBB1361:
 2997              	.LBB1355:
 2998              	.LBB1352:
 2999              		.loc 2 336 55 view .LVU567
 3000 0572 84F83030 		strb	r3, [r4, #48]
 3001              	.LVL138:
 3002              		.loc 2 336 55 view .LVU568
 3003              	.LBE1352:
 3004              	.LBE1355:
 237:../libs/PoliTeKDSP/libs/libDaisy/src/dev/mpr121.h ****     }
 3005              		.loc 2 237 16 view .LVU569
 3006 0576 9DF83C30 		ldrb	r3, [sp, #60]	@ zero_extendqisi2
 3007              	.LVL139:
 237:../libs/PoliTeKDSP/libs/libDaisy/src/dev/mpr121.h ****     }
 3008              		.loc 2 237 16 view .LVU570
 3009              	.LBE1361:
 3010              	.LBE1375:
 271:../libs/PoliTeKDSP/libs/libDaisy/src/dev/mpr121.h ****             // clear this register to set stop mode
 3011              		.loc 2 271 21 view .LVU571
 3012 057a 8DF83CA0 		strb	r10, [sp, #60]
 3013              	.LVL140:
 3014              	.LBB1376:
 3015              	.LBI1365:
  71:../libs/PoliTeKDSP/libs/libDaisy/src/dev/mpr121.h ****     {
 3016              		.loc 2 71 10 is_stmt 1 view .LVU572
 3017              	.LBB1369:
  73:../libs/PoliTeKDSP/libs/libDaisy/src/dev/mpr121.h ****                != i2c_.WriteDataAtAddress(
 3018              		.loc 2 73 9 view .LVU573
 3019              	.LBE1369:
 3020              	.LBE1376:
 270:../libs/PoliTeKDSP/libs/libDaisy/src/dev/mpr121.h ****             uint8_t zero = 0x00;
 3021              		.loc 2 270 26 is_stmt 0 view .LVU574
 3022 057e 8DF82830 		strb	r3, [sp, #40]
 3023              	.LBB1377:
 3024              	.LBB1370:
  74:../libs/PoliTeKDSP/libs/libDaisy/src/dev/mpr121.h ****                    config_.dev_addr, address, 1, data, size, 10);
 3025              		.loc 2 74 42 view .LVU575
 3026 0582 3B46     		mov	r3, r7
 3027 0584 FFF7FEFF 		bl	_ZN5daisy9I2CHandle18WriteDataAtAddressEtttPhtm
 3028              	.LVL141:
  74:../libs/PoliTeKDSP/libs/libDaisy/src/dev/mpr121.h ****                    config_.dev_addr, address, 1, data, size, 10);
 3029              		.loc 2 74 42 view .LVU576
 3030              	.LBE1370:
 3031              	.LBE1377:
 3032              	.LBB1378:
 3033              	.LBI1378:
 3034              		.loc 2 336 10 is_stmt 1 view .LVU577
 3035              	.LBE1378:
 3036              	.LBE1387:
 3037              	.LBB1388:
 3038              	.LBB1389:
  74:../libs/PoliTeKDSP/libs/libDaisy/src/dev/mpr121.h ****                    config_.dev_addr, address, 1, data, size, 10);
ARM GAS  C:\Users\39351\AppData\Local\Temp\cccegpNG.s 			page 72


 3039              		.loc 2 74 42 is_stmt 0 view .LVU578
 3040 0588 0DF12703 		add	r3, sp, #39
 3041 058c 2E22     		movs	r2, #46
 3042 058e 0093     		str	r3, [sp]
 3043 0590 CDE90178 		strd	r7, r8, [sp, #4]
 3044              	.LBE1389:
 3045              	.LBE1388:
 3046              	.LBB1393:
 3047              	.LBB1382:
 3048              	.LBB1379:
 3049              		.loc 2 336 55 view .LVU579
 3050 0594 94F83030 		ldrb	r3, [r4, #48]	@ zero_extendqisi2
 3051              	.LBE1379:
 3052              	.LBE1382:
 3053              	.LBE1393:
 3054              	.LBB1394:
 3055              	.LBB1390:
  74:../libs/PoliTeKDSP/libs/libDaisy/src/dev/mpr121.h ****                    config_.dev_addr, address, 1, data, size, 10);
 3056              		.loc 2 74 42 view .LVU580
 3057 0598 94F82C10 		ldrb	r1, [r4, #44]	@ zero_extendqisi2
 3058              	.LBE1390:
 3059              	.LBE1394:
 3060              	.LBB1395:
 3061              	.LBB1383:
 3062              	.LBB1380:
 3063              		.loc 2 336 55 view .LVU581
 3064 059c 5045     		cmp	r0, r10
 3065 059e 18BF     		it	ne
 3066 05a0 43F00103 		orrne	r3, r3, #1
 3067              	.LBE1380:
 3068              	.LBE1383:
 3069              	.LBE1395:
 3070              	.LBB1396:
 3071              	.LBB1391:
  74:../libs/PoliTeKDSP/libs/libDaisy/src/dev/mpr121.h ****                    config_.dev_addr, address, 1, data, size, 10);
 3072              		.loc 2 74 42 view .LVU582
 3073 05a4 2846     		mov	r0, r5
 3074              	.LVL142:
  74:../libs/PoliTeKDSP/libs/libDaisy/src/dev/mpr121.h ****                    config_.dev_addr, address, 1, data, size, 10);
 3075              		.loc 2 74 42 view .LVU583
 3076              	.LBE1391:
 3077              	.LBE1396:
 3078              	.LBB1397:
 3079              	.LBB1384:
 3080              	.LBB1381:
 3081              		.loc 2 336 55 view .LVU584
 3082 05a6 84F83030 		strb	r3, [r4, #48]
 3083              	.LVL143:
 3084              		.loc 2 336 55 view .LVU585
 3085              	.LBE1381:
 3086              	.LBE1384:
 3087              	.LBE1397:
 3088              	.LBB1398:
 3089              	.LBI1388:
  71:../libs/PoliTeKDSP/libs/libDaisy/src/dev/mpr121.h ****     {
 3090              		.loc 2 71 10 is_stmt 1 view .LVU586
 3091              	.LBB1392:
ARM GAS  C:\Users\39351\AppData\Local\Temp\cccegpNG.s 			page 73


  73:../libs/PoliTeKDSP/libs/libDaisy/src/dev/mpr121.h ****                != i2c_.WriteDataAtAddress(
 3092              		.loc 2 73 9 view .LVU587
  74:../libs/PoliTeKDSP/libs/libDaisy/src/dev/mpr121.h ****                    config_.dev_addr, address, 1, data, size, 10);
 3093              		.loc 2 74 42 is_stmt 0 view .LVU588
 3094 05aa 3B46     		mov	r3, r7
 3095 05ac FFF7FEFF 		bl	_ZN5daisy9I2CHandle18WriteDataAtAddressEtttPhtm
 3096              	.LVL144:
  74:../libs/PoliTeKDSP/libs/libDaisy/src/dev/mpr121.h ****                    config_.dev_addr, address, 1, data, size, 10);
 3097              		.loc 2 74 42 view .LVU589
 3098              	.LBE1392:
 3099              	.LBE1398:
 3100              	.LBB1399:
 3101              	.LBI1399:
 3102              		.loc 2 336 10 is_stmt 1 view .LVU590
 3103              	.LBE1399:
 3104              	.LBB1403:
 3105              	.LBB1404:
  74:../libs/PoliTeKDSP/libs/libDaisy/src/dev/mpr121.h ****                    config_.dev_addr, address, 1, data, size, 10);
 3106              		.loc 2 74 42 is_stmt 0 view .LVU591
 3107 05b0 CDF800B0 		str	fp, [sp]
 3108 05b4 5E22     		movs	r2, #94
 3109 05b6 CDE90178 		strd	r7, r8, [sp, #4]
 3110              	.LBE1404:
 3111              	.LBE1403:
 3112              	.LBB1408:
 3113              	.LBB1400:
 3114              		.loc 2 336 55 view .LVU592
 3115 05ba 94F83030 		ldrb	r3, [r4, #48]	@ zero_extendqisi2
 3116              	.LBE1400:
 3117              	.LBE1408:
 3118              	.LBB1409:
 3119              	.LBB1405:
  74:../libs/PoliTeKDSP/libs/libDaisy/src/dev/mpr121.h ****                    config_.dev_addr, address, 1, data, size, 10);
 3120              		.loc 2 74 42 view .LVU593
 3121 05be 94F82C10 		ldrb	r1, [r4, #44]	@ zero_extendqisi2
 3122              	.LBE1405:
 3123              	.LBE1409:
 3124              	.LBB1410:
 3125              	.LBB1401:
 3126              		.loc 2 336 55 view .LVU594
 3127 05c2 5045     		cmp	r0, r10
 3128 05c4 18BF     		it	ne
 3129 05c6 43F00103 		orrne	r3, r3, #1
 3130              	.LBE1401:
 3131              	.LBE1410:
 3132              	.LBB1411:
 3133              	.LBB1406:
  74:../libs/PoliTeKDSP/libs/libDaisy/src/dev/mpr121.h ****                    config_.dev_addr, address, 1, data, size, 10);
 3134              		.loc 2 74 42 view .LVU595
 3135 05ca 2846     		mov	r0, r5
 3136              	.LVL145:
  74:../libs/PoliTeKDSP/libs/libDaisy/src/dev/mpr121.h ****                    config_.dev_addr, address, 1, data, size, 10);
 3137              		.loc 2 74 42 view .LVU596
 3138              	.LBE1406:
 3139              	.LBE1411:
 3140              	.LBB1412:
 3141              	.LBB1402:
ARM GAS  C:\Users\39351\AppData\Local\Temp\cccegpNG.s 			page 74


 3142              		.loc 2 336 55 view .LVU597
 3143 05cc 84F83030 		strb	r3, [r4, #48]
 3144              	.LVL146:
 3145              		.loc 2 336 55 view .LVU598
 3146              	.LBE1402:
 3147              	.LBE1412:
 3148              	.LBB1413:
 3149              	.LBI1403:
  71:../libs/PoliTeKDSP/libs/libDaisy/src/dev/mpr121.h ****     {
 3150              		.loc 2 71 10 is_stmt 1 view .LVU599
 3151              	.LBB1407:
  73:../libs/PoliTeKDSP/libs/libDaisy/src/dev/mpr121.h ****                != i2c_.WriteDataAtAddress(
 3152              		.loc 2 73 9 view .LVU600
  74:../libs/PoliTeKDSP/libs/libDaisy/src/dev/mpr121.h ****                    config_.dev_addr, address, 1, data, size, 10);
 3153              		.loc 2 74 42 is_stmt 0 view .LVU601
 3154 05d0 3B46     		mov	r3, r7
 3155 05d2 FFF7FEFF 		bl	_ZN5daisy9I2CHandle18WriteDataAtAddressEtttPhtm
 3156              	.LVL147:
  74:../libs/PoliTeKDSP/libs/libDaisy/src/dev/mpr121.h ****                    config_.dev_addr, address, 1, data, size, 10);
 3157              		.loc 2 74 42 view .LVU602
 3158              	.LBE1407:
 3159              	.LBE1413:
 3160              	.LBB1414:
 3161              	.LBI1414:
 3162              		.loc 2 336 10 is_stmt 1 view .LVU603
 3163              	.LBE1414:
 3164              	.LBE1423:
 3165              	.LBE1432:
 3166              	.LBB1433:
 3167              	.LBB1434:
 3168              	.LBB1435:
 3169              	.LBB1436:
 3170              	.LBB1437:
 3171              	.LBB1438:
 3172              	.LBB1439:
  66:../libs/PoliTeKDSP/libs/libDaisy/src/dev/mpr121.h ****                    config_.dev_addr, address, 1, data, size, 10);
 3173              		.loc 2 66 41 is_stmt 0 view .LVU604
 3174 05d6 0096     		str	r6, [sp]
 3175 05d8 5E22     		movs	r2, #94
 3176 05da 8DF82770 		strb	r7, [sp, #39]
 3177 05de CDE90178 		strd	r7, r8, [sp, #4]
 3178              	.LBE1439:
 3179              	.LBE1438:
 3180              	.LBE1437:
 3181              	.LBE1436:
 3182              	.LBE1435:
 3183              	.LBE1434:
 3184              	.LBE1433:
 3185              	.LBB1524:
 3186              	.LBB1424:
 3187              	.LBB1418:
 3188              	.LBB1415:
 3189              		.loc 2 336 55 view .LVU605
 3190 05e2 94F83030 		ldrb	r3, [r4, #48]	@ zero_extendqisi2
 3191              	.LBE1415:
 3192              	.LBE1418:
 3193              	.LBE1424:
ARM GAS  C:\Users\39351\AppData\Local\Temp\cccegpNG.s 			page 75


 3194              	.LBE1524:
 3195              	.LBB1525:
 3196              	.LBB1518:
 3197              	.LBB1482:
 3198              	.LBB1459:
 3199              	.LBB1453:
 3200              	.LBB1443:
 3201              	.LBB1440:
  66:../libs/PoliTeKDSP/libs/libDaisy/src/dev/mpr121.h ****                    config_.dev_addr, address, 1, data, size, 10);
 3202              		.loc 2 66 41 view .LVU606
 3203 05e6 94F82C10 		ldrb	r1, [r4, #44]	@ zero_extendqisi2
 3204              	.LBE1440:
 3205              	.LBE1443:
 3206              	.LBE1453:
 3207              	.LBE1459:
 3208              	.LBE1482:
 3209              	.LBE1518:
 3210              	.LBE1525:
 3211              	.LBB1526:
 3212              	.LBB1425:
 3213              	.LBB1419:
 3214              	.LBB1416:
 3215              		.loc 2 336 55 view .LVU607
 3216 05ea 5045     		cmp	r0, r10
 3217 05ec 18BF     		it	ne
 3218 05ee 43F00103 		orrne	r3, r3, #1
 3219              	.LBE1416:
 3220              	.LBE1419:
 3221              	.LBE1425:
 3222              	.LBE1526:
 3223              	.LBB1527:
 3224              	.LBB1519:
 3225              	.LBB1483:
 3226              	.LBB1460:
 3227              	.LBB1454:
 3228              	.LBB1444:
 3229              	.LBB1441:
  66:../libs/PoliTeKDSP/libs/libDaisy/src/dev/mpr121.h ****                    config_.dev_addr, address, 1, data, size, 10);
 3230              		.loc 2 66 41 view .LVU608
 3231 05f2 2846     		mov	r0, r5
 3232              	.LVL148:
  66:../libs/PoliTeKDSP/libs/libDaisy/src/dev/mpr121.h ****                    config_.dev_addr, address, 1, data, size, 10);
 3233              		.loc 2 66 41 view .LVU609
 3234              	.LBE1441:
 3235              	.LBE1444:
 3236              	.LBE1454:
 3237              	.LBE1460:
 3238              	.LBE1483:
 3239              	.LBE1519:
 3240              	.LBE1527:
 3241              	.LBB1528:
 3242              	.LBB1426:
 3243              	.LBB1420:
 3244              	.LBB1417:
 3245              		.loc 2 336 55 view .LVU610
 3246 05f4 84F83030 		strb	r3, [r4, #48]
 3247              	.LVL149:
ARM GAS  C:\Users\39351\AppData\Local\Temp\cccegpNG.s 			page 76


 3248              		.loc 2 336 55 view .LVU611
 3249              	.LBE1417:
 3250              	.LBE1420:
 3251              	.LBE1426:
 3252              	.LBE1528:
 3253              	.LBB1529:
 3254              	.LBI1433:
 257:../libs/PoliTeKDSP/libs/libDaisy/src/dev/mpr121.h ****     {
 3255              		.loc 2 257 10 is_stmt 1 view .LVU612
 3256              	.LBB1520:
 3257              	.LBB1484:
 3258              	.LBB1461:
 3259              	.LBI1436:
 232:../libs/PoliTeKDSP/libs/libDaisy/src/dev/mpr121.h ****     {
 3260              		.loc 2 232 13 view .LVU613
 3261              	.LBB1455:
 3262              	.LBB1445:
 3263              	.LBI1438:
  63:../libs/PoliTeKDSP/libs/libDaisy/src/dev/mpr121.h ****     {
 3264              		.loc 2 63 10 view .LVU614
 3265              	.LBB1442:
  65:../libs/PoliTeKDSP/libs/libDaisy/src/dev/mpr121.h ****                != i2c_.ReadDataAtAddress(
 3266              		.loc 2 65 9 view .LVU615
  66:../libs/PoliTeKDSP/libs/libDaisy/src/dev/mpr121.h ****                    config_.dev_addr, address, 1, data, size, 10);
 3267              		.loc 2 66 41 is_stmt 0 view .LVU616
 3268 05f8 3B46     		mov	r3, r7
 3269 05fa FFF7FEFF 		bl	_ZN5daisy9I2CHandle17ReadDataAtAddressEtttPhtm
 3270              	.LVL150:
  66:../libs/PoliTeKDSP/libs/libDaisy/src/dev/mpr121.h ****                    config_.dev_addr, address, 1, data, size, 10);
 3271              		.loc 2 66 41 view .LVU617
 3272              	.LBE1442:
 3273              	.LBE1445:
 3274              	.LBB1446:
 3275              	.LBI1446:
 3276              		.loc 2 336 10 is_stmt 1 view .LVU618
 3277              	.LBE1446:
 3278              	.LBE1455:
 3279              	.LBE1461:
 3280              	.LBB1462:
 3281              	.LBB1463:
  74:../libs/PoliTeKDSP/libs/libDaisy/src/dev/mpr121.h ****                    config_.dev_addr, address, 1, data, size, 10);
 3282              		.loc 2 74 42 is_stmt 0 view .LVU619
 3283 05fe 0096     		str	r6, [sp]
 3284 0600 5E22     		movs	r2, #94
 3285 0602 CDE90178 		strd	r7, r8, [sp, #4]
 3286              	.LBE1463:
 3287              	.LBE1462:
 3288              	.LBB1468:
 3289              	.LBB1456:
 3290              	.LBB1450:
 3291              	.LBB1447:
 3292              		.loc 2 336 55 view .LVU620
 3293 0606 94F83030 		ldrb	r3, [r4, #48]	@ zero_extendqisi2
 3294              	.LBE1447:
 3295              	.LBE1450:
 3296              	.LBE1456:
 3297              	.LBE1468:
ARM GAS  C:\Users\39351\AppData\Local\Temp\cccegpNG.s 			page 77


 3298              	.LBB1469:
 3299              	.LBB1464:
  74:../libs/PoliTeKDSP/libs/libDaisy/src/dev/mpr121.h ****                    config_.dev_addr, address, 1, data, size, 10);
 3300              		.loc 2 74 42 view .LVU621
 3301 060a 94F82C10 		ldrb	r1, [r4, #44]	@ zero_extendqisi2
 3302              	.LBE1464:
 3303              	.LBE1469:
 3304              	.LBB1470:
 3305              	.LBB1457:
 3306              	.LBB1451:
 3307              	.LBB1448:
 3308              		.loc 2 336 55 view .LVU622
 3309 060e 5045     		cmp	r0, r10
 3310 0610 18BF     		it	ne
 3311 0612 43F00103 		orrne	r3, r3, #1
 3312              	.LBE1448:
 3313              	.LBE1451:
 3314              	.LBE1457:
 3315              	.LBE1470:
 3316              	.LBB1471:
 3317              	.LBB1465:
  74:../libs/PoliTeKDSP/libs/libDaisy/src/dev/mpr121.h ****                    config_.dev_addr, address, 1, data, size, 10);
 3318              		.loc 2 74 42 view .LVU623
 3319 0616 2846     		mov	r0, r5
 3320              	.LVL151:
  74:../libs/PoliTeKDSP/libs/libDaisy/src/dev/mpr121.h ****                    config_.dev_addr, address, 1, data, size, 10);
 3321              		.loc 2 74 42 view .LVU624
 3322              	.LBE1465:
 3323              	.LBE1471:
 3324              	.LBB1472:
 3325              	.LBB1458:
 3326              	.LBB1452:
 3327              	.LBB1449:
 3328              		.loc 2 336 55 view .LVU625
 3329 0618 84F83030 		strb	r3, [r4, #48]
 3330              	.LVL152:
 3331              		.loc 2 336 55 view .LVU626
 3332              	.LBE1449:
 3333              	.LBE1452:
 237:../libs/PoliTeKDSP/libs/libDaisy/src/dev/mpr121.h ****     }
 3334              		.loc 2 237 16 view .LVU627
 3335 061c 9DF83C30 		ldrb	r3, [sp, #60]	@ zero_extendqisi2
 3336              	.LVL153:
 237:../libs/PoliTeKDSP/libs/libDaisy/src/dev/mpr121.h ****     }
 3337              		.loc 2 237 16 view .LVU628
 3338              	.LBE1458:
 3339              	.LBE1472:
 271:../libs/PoliTeKDSP/libs/libDaisy/src/dev/mpr121.h ****             // clear this register to set stop mode
 3340              		.loc 2 271 21 view .LVU629
 3341 0620 8DF83CA0 		strb	r10, [sp, #60]
 3342              	.LVL154:
 3343              	.LBB1473:
 3344              	.LBI1462:
  71:../libs/PoliTeKDSP/libs/libDaisy/src/dev/mpr121.h ****     {
 3345              		.loc 2 71 10 is_stmt 1 view .LVU630
 3346              	.LBB1466:
  73:../libs/PoliTeKDSP/libs/libDaisy/src/dev/mpr121.h ****                != i2c_.WriteDataAtAddress(
ARM GAS  C:\Users\39351\AppData\Local\Temp\cccegpNG.s 			page 78


 3347              		.loc 2 73 9 view .LVU631
 3348              	.LBE1466:
 3349              	.LBE1473:
 270:../libs/PoliTeKDSP/libs/libDaisy/src/dev/mpr121.h ****             uint8_t zero = 0x00;
 3350              		.loc 2 270 26 is_stmt 0 view .LVU632
 3351 0624 8DF82830 		strb	r3, [sp, #40]
 3352              	.LBB1474:
 3353              	.LBB1467:
  74:../libs/PoliTeKDSP/libs/libDaisy/src/dev/mpr121.h ****                    config_.dev_addr, address, 1, data, size, 10);
 3354              		.loc 2 74 42 view .LVU633
 3355 0628 3B46     		mov	r3, r7
 3356 062a FFF7FEFF 		bl	_ZN5daisy9I2CHandle18WriteDataAtAddressEtttPhtm
 3357              	.LVL155:
  74:../libs/PoliTeKDSP/libs/libDaisy/src/dev/mpr121.h ****                    config_.dev_addr, address, 1, data, size, 10);
 3358              		.loc 2 74 42 view .LVU634
 3359              	.LBE1467:
 3360              	.LBE1474:
 3361              	.LBB1475:
 3362              	.LBI1475:
 3363              		.loc 2 336 10 is_stmt 1 view .LVU635
 3364              	.LBE1475:
 3365              	.LBE1484:
 3366              	.LBB1485:
 3367              	.LBB1486:
  74:../libs/PoliTeKDSP/libs/libDaisy/src/dev/mpr121.h ****                    config_.dev_addr, address, 1, data, size, 10);
 3368              		.loc 2 74 42 is_stmt 0 view .LVU636
 3369 062e 0DF12703 		add	r3, sp, #39
 3370 0632 2F22     		movs	r2, #47
 3371 0634 0093     		str	r3, [sp]
 3372 0636 CDE90178 		strd	r7, r8, [sp, #4]
 3373              	.LBE1486:
 3374              	.LBE1485:
 3375              	.LBB1490:
 3376              	.LBB1479:
 3377              	.LBB1476:
 3378              		.loc 2 336 55 view .LVU637
 3379 063a 94F83030 		ldrb	r3, [r4, #48]	@ zero_extendqisi2
 3380              	.LBE1476:
 3381              	.LBE1479:
 3382              	.LBE1490:
 3383              	.LBB1491:
 3384              	.LBB1487:
  74:../libs/PoliTeKDSP/libs/libDaisy/src/dev/mpr121.h ****                    config_.dev_addr, address, 1, data, size, 10);
 3385              		.loc 2 74 42 view .LVU638
 3386 063e 94F82C10 		ldrb	r1, [r4, #44]	@ zero_extendqisi2
 3387              	.LBE1487:
 3388              	.LBE1491:
 3389              	.LBB1492:
 3390              	.LBB1480:
 3391              	.LBB1477:
 3392              		.loc 2 336 55 view .LVU639
 3393 0642 5045     		cmp	r0, r10
 3394 0644 18BF     		it	ne
 3395 0646 43F00103 		orrne	r3, r3, #1
 3396              	.LBE1477:
 3397              	.LBE1480:
 3398              	.LBE1492:
ARM GAS  C:\Users\39351\AppData\Local\Temp\cccegpNG.s 			page 79


 3399              	.LBB1493:
 3400              	.LBB1488:
  74:../libs/PoliTeKDSP/libs/libDaisy/src/dev/mpr121.h ****                    config_.dev_addr, address, 1, data, size, 10);
 3401              		.loc 2 74 42 view .LVU640
 3402 064a 2846     		mov	r0, r5
 3403              	.LVL156:
  74:../libs/PoliTeKDSP/libs/libDaisy/src/dev/mpr121.h ****                    config_.dev_addr, address, 1, data, size, 10);
 3404              		.loc 2 74 42 view .LVU641
 3405              	.LBE1488:
 3406              	.LBE1493:
 3407              	.LBB1494:
 3408              	.LBB1481:
 3409              	.LBB1478:
 3410              		.loc 2 336 55 view .LVU642
 3411 064c 84F83030 		strb	r3, [r4, #48]
 3412              	.LVL157:
 3413              		.loc 2 336 55 view .LVU643
 3414              	.LBE1478:
 3415              	.LBE1481:
 3416              	.LBE1494:
 3417              	.LBB1495:
 3418              	.LBI1485:
  71:../libs/PoliTeKDSP/libs/libDaisy/src/dev/mpr121.h ****     {
 3419              		.loc 2 71 10 is_stmt 1 view .LVU644
 3420              	.LBB1489:
  73:../libs/PoliTeKDSP/libs/libDaisy/src/dev/mpr121.h ****                != i2c_.WriteDataAtAddress(
 3421              		.loc 2 73 9 view .LVU645
  74:../libs/PoliTeKDSP/libs/libDaisy/src/dev/mpr121.h ****                    config_.dev_addr, address, 1, data, size, 10);
 3422              		.loc 2 74 42 is_stmt 0 view .LVU646
 3423 0650 3B46     		mov	r3, r7
 3424 0652 FFF7FEFF 		bl	_ZN5daisy9I2CHandle18WriteDataAtAddressEtttPhtm
 3425              	.LVL158:
  74:../libs/PoliTeKDSP/libs/libDaisy/src/dev/mpr121.h ****                    config_.dev_addr, address, 1, data, size, 10);
 3426              		.loc 2 74 42 view .LVU647
 3427              	.LBE1489:
 3428              	.LBE1495:
 3429              	.LBB1496:
 3430              	.LBI1496:
 3431              		.loc 2 336 10 is_stmt 1 view .LVU648
 3432              	.LBE1496:
 3433              	.LBB1500:
 3434              	.LBB1501:
  74:../libs/PoliTeKDSP/libs/libDaisy/src/dev/mpr121.h ****                    config_.dev_addr, address, 1, data, size, 10);
 3435              		.loc 2 74 42 is_stmt 0 view .LVU649
 3436 0656 CDF800B0 		str	fp, [sp]
 3437 065a 5E22     		movs	r2, #94
 3438 065c CDE90178 		strd	r7, r8, [sp, #4]
 3439              	.LBE1501:
 3440              	.LBE1500:
 3441              	.LBB1505:
 3442              	.LBB1497:
 3443              		.loc 2 336 55 view .LVU650
 3444 0660 94F83030 		ldrb	r3, [r4, #48]	@ zero_extendqisi2
 3445              	.LBE1497:
 3446              	.LBE1505:
 3447              	.LBB1506:
 3448              	.LBB1502:
ARM GAS  C:\Users\39351\AppData\Local\Temp\cccegpNG.s 			page 80


  74:../libs/PoliTeKDSP/libs/libDaisy/src/dev/mpr121.h ****                    config_.dev_addr, address, 1, data, size, 10);
 3449              		.loc 2 74 42 view .LVU651
 3450 0664 94F82C10 		ldrb	r1, [r4, #44]	@ zero_extendqisi2
 3451              	.LBE1502:
 3452              	.LBE1506:
 3453              	.LBB1507:
 3454              	.LBB1498:
 3455              		.loc 2 336 55 view .LVU652
 3456 0668 5045     		cmp	r0, r10
 3457 066a 18BF     		it	ne
 3458 066c 43F00103 		orrne	r3, r3, #1
 3459              	.LBE1498:
 3460              	.LBE1507:
 3461              	.LBB1508:
 3462              	.LBB1503:
  74:../libs/PoliTeKDSP/libs/libDaisy/src/dev/mpr121.h ****                    config_.dev_addr, address, 1, data, size, 10);
 3463              		.loc 2 74 42 view .LVU653
 3464 0670 2846     		mov	r0, r5
 3465              	.LVL159:
  74:../libs/PoliTeKDSP/libs/libDaisy/src/dev/mpr121.h ****                    config_.dev_addr, address, 1, data, size, 10);
 3466              		.loc 2 74 42 view .LVU654
 3467              	.LBE1503:
 3468              	.LBE1508:
 3469              	.LBB1509:
 3470              	.LBB1499:
 3471              		.loc 2 336 55 view .LVU655
 3472 0672 84F83030 		strb	r3, [r4, #48]
 3473              	.LVL160:
 3474              		.loc 2 336 55 view .LVU656
 3475              	.LBE1499:
 3476              	.LBE1509:
 3477              	.LBB1510:
 3478              	.LBI1500:
  71:../libs/PoliTeKDSP/libs/libDaisy/src/dev/mpr121.h ****     {
 3479              		.loc 2 71 10 is_stmt 1 view .LVU657
 3480              	.LBB1504:
  73:../libs/PoliTeKDSP/libs/libDaisy/src/dev/mpr121.h ****                != i2c_.WriteDataAtAddress(
 3481              		.loc 2 73 9 view .LVU658
  74:../libs/PoliTeKDSP/libs/libDaisy/src/dev/mpr121.h ****                    config_.dev_addr, address, 1, data, size, 10);
 3482              		.loc 2 74 42 is_stmt 0 view .LVU659
 3483 0676 3B46     		mov	r3, r7
 3484 0678 FFF7FEFF 		bl	_ZN5daisy9I2CHandle18WriteDataAtAddressEtttPhtm
 3485              	.LVL161:
  74:../libs/PoliTeKDSP/libs/libDaisy/src/dev/mpr121.h ****                    config_.dev_addr, address, 1, data, size, 10);
 3486              		.loc 2 74 42 view .LVU660
 3487              	.LBE1504:
 3488              	.LBE1510:
 3489              	.LBB1511:
 3490              	.LBI1511:
 3491              		.loc 2 336 10 is_stmt 1 view .LVU661
 3492              	.LBE1511:
 3493              	.LBE1520:
 3494              	.LBE1529:
 3495              	.LBB1530:
 3496              	.LBB1531:
 3497              	.LBB1532:
 3498              	.LBB1533:
ARM GAS  C:\Users\39351\AppData\Local\Temp\cccegpNG.s 			page 81


 3499              	.LBB1534:
 3500              	.LBB1535:
 3501              	.LBB1536:
  66:../libs/PoliTeKDSP/libs/libDaisy/src/dev/mpr121.h ****                    config_.dev_addr, address, 1, data, size, 10);
 3502              		.loc 2 66 41 is_stmt 0 view .LVU662
 3503 067c 0096     		str	r6, [sp]
 3504 067e 5E22     		movs	r2, #94
 3505 0680 CDE90178 		strd	r7, r8, [sp, #4]
 3506              	.LBE1536:
 3507              	.LBE1535:
 3508              	.LBE1534:
 3509              	.LBE1533:
 3510              	.LBE1532:
 3511              	.LBE1531:
 3512              	.LBE1530:
 3513              	.LBB1621:
 3514              	.LBB1521:
 3515              	.LBB1515:
 3516              	.LBB1512:
 3517              		.loc 2 336 55 view .LVU663
 3518 0684 94F83030 		ldrb	r3, [r4, #48]	@ zero_extendqisi2
 3519              	.LBE1512:
 3520              	.LBE1515:
 3521              	.LBE1521:
 3522              	.LBE1621:
 3523              	.LBB1622:
 3524              	.LBB1615:
 3525              	.LBB1579:
 3526              	.LBB1556:
 3527              	.LBB1550:
 3528              	.LBB1540:
 3529              	.LBB1537:
  66:../libs/PoliTeKDSP/libs/libDaisy/src/dev/mpr121.h ****                    config_.dev_addr, address, 1, data, size, 10);
 3530              		.loc 2 66 41 view .LVU664
 3531 0688 94F82C10 		ldrb	r1, [r4, #44]	@ zero_extendqisi2
 3532              	.LBE1537:
 3533              	.LBE1540:
 3534              	.LBE1550:
 3535              	.LBE1556:
 3536              	.LBE1579:
 3537              	.LBE1615:
 3538              	.LBE1622:
 3539              	.LBB1623:
 3540              	.LBB1522:
 3541              	.LBB1516:
 3542              	.LBB1513:
 3543              		.loc 2 336 55 view .LVU665
 3544 068c 5045     		cmp	r0, r10
 3545 068e 18BF     		it	ne
 3546 0690 43F00103 		orrne	r3, r3, #1
 3547              	.LBE1513:
 3548              	.LBE1516:
 3549              	.LBE1522:
 3550              	.LBE1623:
 3551              	.LBB1624:
 3552              	.LBB1616:
 3553              	.LBB1580:
ARM GAS  C:\Users\39351\AppData\Local\Temp\cccegpNG.s 			page 82


 3554              	.LBB1557:
 3555              	.LBB1551:
 3556              	.LBB1541:
 3557              	.LBB1538:
  66:../libs/PoliTeKDSP/libs/libDaisy/src/dev/mpr121.h ****                    config_.dev_addr, address, 1, data, size, 10);
 3558              		.loc 2 66 41 view .LVU666
 3559 0694 2846     		mov	r0, r5
 3560              	.LVL162:
  66:../libs/PoliTeKDSP/libs/libDaisy/src/dev/mpr121.h ****                    config_.dev_addr, address, 1, data, size, 10);
 3561              		.loc 2 66 41 view .LVU667
 3562              	.LBE1538:
 3563              	.LBE1541:
 3564              	.LBE1551:
 3565              	.LBE1557:
 3566              	.LBE1580:
 3567              	.LBE1616:
 3568              	.LBE1624:
 3569              	.LBB1625:
 3570              	.LBB1523:
 3571              	.LBB1517:
 3572              	.LBB1514:
 3573              		.loc 2 336 55 view .LVU668
 3574 0696 84F83030 		strb	r3, [r4, #48]
 3575              	.LVL163:
 3576              		.loc 2 336 55 view .LVU669
 3577 069a 0523     		movs	r3, #5
 3578 069c 8DF82730 		strb	r3, [sp, #39]
 3579              	.LVL164:
 3580              		.loc 2 336 55 view .LVU670
 3581              	.LBE1514:
 3582              	.LBE1517:
 3583              	.LBE1523:
 3584              	.LBE1625:
 3585              	.LBB1626:
 3586              	.LBI1530:
 257:../libs/PoliTeKDSP/libs/libDaisy/src/dev/mpr121.h ****     {
 3587              		.loc 2 257 10 is_stmt 1 view .LVU671
 3588              	.LBB1617:
 3589              	.LBB1581:
 3590              	.LBB1558:
 3591              	.LBI1533:
 232:../libs/PoliTeKDSP/libs/libDaisy/src/dev/mpr121.h ****     {
 3592              		.loc 2 232 13 view .LVU672
 3593              	.LBB1552:
 3594              	.LBB1542:
 3595              	.LBI1535:
  63:../libs/PoliTeKDSP/libs/libDaisy/src/dev/mpr121.h ****     {
 3596              		.loc 2 63 10 view .LVU673
 3597              	.LBB1539:
  65:../libs/PoliTeKDSP/libs/libDaisy/src/dev/mpr121.h ****                != i2c_.ReadDataAtAddress(
 3598              		.loc 2 65 9 view .LVU674
  66:../libs/PoliTeKDSP/libs/libDaisy/src/dev/mpr121.h ****                    config_.dev_addr, address, 1, data, size, 10);
 3599              		.loc 2 66 41 is_stmt 0 view .LVU675
 3600 06a0 3B46     		mov	r3, r7
 3601              	.LVL165:
  66:../libs/PoliTeKDSP/libs/libDaisy/src/dev/mpr121.h ****                    config_.dev_addr, address, 1, data, size, 10);
 3602              		.loc 2 66 41 view .LVU676
ARM GAS  C:\Users\39351\AppData\Local\Temp\cccegpNG.s 			page 83


 3603 06a2 FFF7FEFF 		bl	_ZN5daisy9I2CHandle17ReadDataAtAddressEtttPhtm
 3604              	.LVL166:
  66:../libs/PoliTeKDSP/libs/libDaisy/src/dev/mpr121.h ****                    config_.dev_addr, address, 1, data, size, 10);
 3605              		.loc 2 66 41 view .LVU677
 3606              	.LBE1539:
 3607              	.LBE1542:
 3608              	.LBB1543:
 3609              	.LBI1543:
 3610              		.loc 2 336 10 is_stmt 1 view .LVU678
 3611              	.LBE1543:
 3612              	.LBE1552:
 3613              	.LBE1558:
 3614              	.LBB1559:
 3615              	.LBB1560:
  74:../libs/PoliTeKDSP/libs/libDaisy/src/dev/mpr121.h ****                    config_.dev_addr, address, 1, data, size, 10);
 3616              		.loc 2 74 42 is_stmt 0 view .LVU679
 3617 06a6 0096     		str	r6, [sp]
 3618 06a8 5E22     		movs	r2, #94
 3619 06aa CDE90178 		strd	r7, r8, [sp, #4]
 3620              	.LBE1560:
 3621              	.LBE1559:
 3622              	.LBB1565:
 3623              	.LBB1553:
 3624              	.LBB1547:
 3625              	.LBB1544:
 3626              		.loc 2 336 55 view .LVU680
 3627 06ae 94F83030 		ldrb	r3, [r4, #48]	@ zero_extendqisi2
 3628              	.LBE1544:
 3629              	.LBE1547:
 3630              	.LBE1553:
 3631              	.LBE1565:
 3632              	.LBB1566:
 3633              	.LBB1561:
  74:../libs/PoliTeKDSP/libs/libDaisy/src/dev/mpr121.h ****                    config_.dev_addr, address, 1, data, size, 10);
 3634              		.loc 2 74 42 view .LVU681
 3635 06b2 94F82C10 		ldrb	r1, [r4, #44]	@ zero_extendqisi2
 3636              	.LBE1561:
 3637              	.LBE1566:
 3638              	.LBB1567:
 3639              	.LBB1554:
 3640              	.LBB1548:
 3641              	.LBB1545:
 3642              		.loc 2 336 55 view .LVU682
 3643 06b6 5045     		cmp	r0, r10
 3644 06b8 18BF     		it	ne
 3645 06ba 43F00103 		orrne	r3, r3, #1
 3646              	.LBE1545:
 3647              	.LBE1548:
 3648              	.LBE1554:
 3649              	.LBE1567:
 3650              	.LBB1568:
 3651              	.LBB1562:
  74:../libs/PoliTeKDSP/libs/libDaisy/src/dev/mpr121.h ****                    config_.dev_addr, address, 1, data, size, 10);
 3652              		.loc 2 74 42 view .LVU683
 3653 06be 2846     		mov	r0, r5
 3654              	.LVL167:
  74:../libs/PoliTeKDSP/libs/libDaisy/src/dev/mpr121.h ****                    config_.dev_addr, address, 1, data, size, 10);
ARM GAS  C:\Users\39351\AppData\Local\Temp\cccegpNG.s 			page 84


 3655              		.loc 2 74 42 view .LVU684
 3656              	.LBE1562:
 3657              	.LBE1568:
 3658              	.LBB1569:
 3659              	.LBB1555:
 3660              	.LBB1549:
 3661              	.LBB1546:
 3662              		.loc 2 336 55 view .LVU685
 3663 06c0 84F83030 		strb	r3, [r4, #48]
 3664              	.LVL168:
 3665              		.loc 2 336 55 view .LVU686
 3666              	.LBE1546:
 3667              	.LBE1549:
 237:../libs/PoliTeKDSP/libs/libDaisy/src/dev/mpr121.h ****     }
 3668              		.loc 2 237 16 view .LVU687
 3669 06c4 9DF83C30 		ldrb	r3, [sp, #60]	@ zero_extendqisi2
 3670              	.LVL169:
 237:../libs/PoliTeKDSP/libs/libDaisy/src/dev/mpr121.h ****     }
 3671              		.loc 2 237 16 view .LVU688
 3672              	.LBE1555:
 3673              	.LBE1569:
 271:../libs/PoliTeKDSP/libs/libDaisy/src/dev/mpr121.h ****             // clear this register to set stop mode
 3674              		.loc 2 271 21 view .LVU689
 3675 06c8 8DF83CA0 		strb	r10, [sp, #60]
 3676              	.LVL170:
 3677              	.LBB1570:
 3678              	.LBI1559:
  71:../libs/PoliTeKDSP/libs/libDaisy/src/dev/mpr121.h ****     {
 3679              		.loc 2 71 10 is_stmt 1 view .LVU690
 3680              	.LBB1563:
  73:../libs/PoliTeKDSP/libs/libDaisy/src/dev/mpr121.h ****                != i2c_.WriteDataAtAddress(
 3681              		.loc 2 73 9 view .LVU691
 3682              	.LBE1563:
 3683              	.LBE1570:
 270:../libs/PoliTeKDSP/libs/libDaisy/src/dev/mpr121.h ****             uint8_t zero = 0x00;
 3684              		.loc 2 270 26 is_stmt 0 view .LVU692
 3685 06cc 8DF82830 		strb	r3, [sp, #40]
 3686              	.LBB1571:
 3687              	.LBB1564:
  74:../libs/PoliTeKDSP/libs/libDaisy/src/dev/mpr121.h ****                    config_.dev_addr, address, 1, data, size, 10);
 3688              		.loc 2 74 42 view .LVU693
 3689 06d0 3B46     		mov	r3, r7
 3690 06d2 FFF7FEFF 		bl	_ZN5daisy9I2CHandle18WriteDataAtAddressEtttPhtm
 3691              	.LVL171:
  74:../libs/PoliTeKDSP/libs/libDaisy/src/dev/mpr121.h ****                    config_.dev_addr, address, 1, data, size, 10);
 3692              		.loc 2 74 42 view .LVU694
 3693              	.LBE1564:
 3694              	.LBE1571:
 3695              	.LBB1572:
 3696              	.LBI1572:
 3697              		.loc 2 336 10 is_stmt 1 view .LVU695
 3698              	.LBE1572:
 3699              	.LBE1581:
 3700              	.LBB1582:
 3701              	.LBB1583:
  74:../libs/PoliTeKDSP/libs/libDaisy/src/dev/mpr121.h ****                    config_.dev_addr, address, 1, data, size, 10);
 3702              		.loc 2 74 42 is_stmt 0 view .LVU696
ARM GAS  C:\Users\39351\AppData\Local\Temp\cccegpNG.s 			page 85


 3703 06d6 0DF12703 		add	r3, sp, #39
 3704 06da 3022     		movs	r2, #48
 3705 06dc 0093     		str	r3, [sp]
 3706 06de CDE90178 		strd	r7, r8, [sp, #4]
 3707              	.LBE1583:
 3708              	.LBE1582:
 3709              	.LBB1587:
 3710              	.LBB1576:
 3711              	.LBB1573:
 3712              		.loc 2 336 55 view .LVU697
 3713 06e2 94F83030 		ldrb	r3, [r4, #48]	@ zero_extendqisi2
 3714              	.LBE1573:
 3715              	.LBE1576:
 3716              	.LBE1587:
 3717              	.LBB1588:
 3718              	.LBB1584:
  74:../libs/PoliTeKDSP/libs/libDaisy/src/dev/mpr121.h ****                    config_.dev_addr, address, 1, data, size, 10);
 3719              		.loc 2 74 42 view .LVU698
 3720 06e6 94F82C10 		ldrb	r1, [r4, #44]	@ zero_extendqisi2
 3721              	.LBE1584:
 3722              	.LBE1588:
 3723              	.LBB1589:
 3724              	.LBB1577:
 3725              	.LBB1574:
 3726              		.loc 2 336 55 view .LVU699
 3727 06ea 5045     		cmp	r0, r10
 3728 06ec 18BF     		it	ne
 3729 06ee 43F00103 		orrne	r3, r3, #1
 3730              	.LBE1574:
 3731              	.LBE1577:
 3732              	.LBE1589:
 3733              	.LBB1590:
 3734              	.LBB1585:
  74:../libs/PoliTeKDSP/libs/libDaisy/src/dev/mpr121.h ****                    config_.dev_addr, address, 1, data, size, 10);
 3735              		.loc 2 74 42 view .LVU700
 3736 06f2 2846     		mov	r0, r5
 3737              	.LVL172:
  74:../libs/PoliTeKDSP/libs/libDaisy/src/dev/mpr121.h ****                    config_.dev_addr, address, 1, data, size, 10);
 3738              		.loc 2 74 42 view .LVU701
 3739              	.LBE1585:
 3740              	.LBE1590:
 3741              	.LBB1591:
 3742              	.LBB1578:
 3743              	.LBB1575:
 3744              		.loc 2 336 55 view .LVU702
 3745 06f4 84F83030 		strb	r3, [r4, #48]
 3746              	.LVL173:
 3747              		.loc 2 336 55 view .LVU703
 3748              	.LBE1575:
 3749              	.LBE1578:
 3750              	.LBE1591:
 3751              	.LBB1592:
 3752              	.LBI1582:
  71:../libs/PoliTeKDSP/libs/libDaisy/src/dev/mpr121.h ****     {
 3753              		.loc 2 71 10 is_stmt 1 view .LVU704
 3754              	.LBB1586:
  73:../libs/PoliTeKDSP/libs/libDaisy/src/dev/mpr121.h ****                != i2c_.WriteDataAtAddress(
ARM GAS  C:\Users\39351\AppData\Local\Temp\cccegpNG.s 			page 86


 3755              		.loc 2 73 9 view .LVU705
  74:../libs/PoliTeKDSP/libs/libDaisy/src/dev/mpr121.h ****                    config_.dev_addr, address, 1, data, size, 10);
 3756              		.loc 2 74 42 is_stmt 0 view .LVU706
 3757 06f8 3B46     		mov	r3, r7
 3758 06fa FFF7FEFF 		bl	_ZN5daisy9I2CHandle18WriteDataAtAddressEtttPhtm
 3759              	.LVL174:
  74:../libs/PoliTeKDSP/libs/libDaisy/src/dev/mpr121.h ****                    config_.dev_addr, address, 1, data, size, 10);
 3760              		.loc 2 74 42 view .LVU707
 3761              	.LBE1586:
 3762              	.LBE1592:
 3763              	.LBB1593:
 3764              	.LBI1593:
 3765              		.loc 2 336 10 is_stmt 1 view .LVU708
 3766              	.LBE1593:
 3767              	.LBB1597:
 3768              	.LBB1598:
  74:../libs/PoliTeKDSP/libs/libDaisy/src/dev/mpr121.h ****                    config_.dev_addr, address, 1, data, size, 10);
 3769              		.loc 2 74 42 is_stmt 0 view .LVU709
 3770 06fe CDF800B0 		str	fp, [sp]
 3771 0702 5E22     		movs	r2, #94
 3772 0704 CDE90178 		strd	r7, r8, [sp, #4]
 3773              	.LBE1598:
 3774              	.LBE1597:
 3775              	.LBB1602:
 3776              	.LBB1594:
 3777              		.loc 2 336 55 view .LVU710
 3778 0708 94F83030 		ldrb	r3, [r4, #48]	@ zero_extendqisi2
 3779              	.LBE1594:
 3780              	.LBE1602:
 3781              	.LBB1603:
 3782              	.LBB1599:
  74:../libs/PoliTeKDSP/libs/libDaisy/src/dev/mpr121.h ****                    config_.dev_addr, address, 1, data, size, 10);
 3783              		.loc 2 74 42 view .LVU711
 3784 070c 94F82C10 		ldrb	r1, [r4, #44]	@ zero_extendqisi2
 3785              	.LBE1599:
 3786              	.LBE1603:
 3787              	.LBB1604:
 3788              	.LBB1595:
 3789              		.loc 2 336 55 view .LVU712
 3790 0710 5045     		cmp	r0, r10
 3791 0712 18BF     		it	ne
 3792 0714 43F00103 		orrne	r3, r3, #1
 3793              	.LBE1595:
 3794              	.LBE1604:
 3795              	.LBB1605:
 3796              	.LBB1600:
  74:../libs/PoliTeKDSP/libs/libDaisy/src/dev/mpr121.h ****                    config_.dev_addr, address, 1, data, size, 10);
 3797              		.loc 2 74 42 view .LVU713
 3798 0718 2846     		mov	r0, r5
 3799              	.LVL175:
  74:../libs/PoliTeKDSP/libs/libDaisy/src/dev/mpr121.h ****                    config_.dev_addr, address, 1, data, size, 10);
 3800              		.loc 2 74 42 view .LVU714
 3801              	.LBE1600:
 3802              	.LBE1605:
 3803              	.LBB1606:
 3804              	.LBB1596:
 3805              		.loc 2 336 55 view .LVU715
ARM GAS  C:\Users\39351\AppData\Local\Temp\cccegpNG.s 			page 87


 3806 071a 84F83030 		strb	r3, [r4, #48]
 3807              	.LVL176:
 3808              		.loc 2 336 55 view .LVU716
 3809              	.LBE1596:
 3810              	.LBE1606:
 3811              	.LBB1607:
 3812              	.LBI1597:
  71:../libs/PoliTeKDSP/libs/libDaisy/src/dev/mpr121.h ****     {
 3813              		.loc 2 71 10 is_stmt 1 view .LVU717
 3814              	.LBB1601:
  73:../libs/PoliTeKDSP/libs/libDaisy/src/dev/mpr121.h ****                != i2c_.WriteDataAtAddress(
 3815              		.loc 2 73 9 view .LVU718
  74:../libs/PoliTeKDSP/libs/libDaisy/src/dev/mpr121.h ****                    config_.dev_addr, address, 1, data, size, 10);
 3816              		.loc 2 74 42 is_stmt 0 view .LVU719
 3817 071e 3B46     		mov	r3, r7
 3818 0720 FFF7FEFF 		bl	_ZN5daisy9I2CHandle18WriteDataAtAddressEtttPhtm
 3819              	.LVL177:
  74:../libs/PoliTeKDSP/libs/libDaisy/src/dev/mpr121.h ****                    config_.dev_addr, address, 1, data, size, 10);
 3820              		.loc 2 74 42 view .LVU720
 3821              	.LBE1601:
 3822              	.LBE1607:
 3823              	.LBB1608:
 3824              	.LBI1608:
 3825              		.loc 2 336 10 is_stmt 1 view .LVU721
 3826              	.LBE1608:
 3827              	.LBE1617:
 3828              	.LBE1626:
 3829              	.LBB1627:
 3830              	.LBB1628:
 3831              	.LBB1629:
 3832              	.LBB1630:
 3833              	.LBB1631:
 3834              	.LBB1632:
 3835              	.LBB1633:
  66:../libs/PoliTeKDSP/libs/libDaisy/src/dev/mpr121.h ****                    config_.dev_addr, address, 1, data, size, 10);
 3836              		.loc 2 66 41 is_stmt 0 view .LVU722
 3837 0724 0096     		str	r6, [sp]
 3838 0726 5E22     		movs	r2, #94
 3839 0728 8DF82770 		strb	r7, [sp, #39]
 3840 072c CDE90178 		strd	r7, r8, [sp, #4]
 3841              	.LBE1633:
 3842              	.LBE1632:
 3843              	.LBE1631:
 3844              	.LBE1630:
 3845              	.LBE1629:
 3846              	.LBE1628:
 3847              	.LBE1627:
 3848              	.LBB1718:
 3849              	.LBB1618:
 3850              	.LBB1612:
 3851              	.LBB1609:
 3852              		.loc 2 336 55 view .LVU723
 3853 0730 94F83030 		ldrb	r3, [r4, #48]	@ zero_extendqisi2
 3854              	.LBE1609:
 3855              	.LBE1612:
 3856              	.LBE1618:
 3857              	.LBE1718:
ARM GAS  C:\Users\39351\AppData\Local\Temp\cccegpNG.s 			page 88


 3858              	.LBB1719:
 3859              	.LBB1712:
 3860              	.LBB1676:
 3861              	.LBB1653:
 3862              	.LBB1647:
 3863              	.LBB1637:
 3864              	.LBB1634:
  66:../libs/PoliTeKDSP/libs/libDaisy/src/dev/mpr121.h ****                    config_.dev_addr, address, 1, data, size, 10);
 3865              		.loc 2 66 41 view .LVU724
 3866 0734 94F82C10 		ldrb	r1, [r4, #44]	@ zero_extendqisi2
 3867              	.LBE1634:
 3868              	.LBE1637:
 3869              	.LBE1647:
 3870              	.LBE1653:
 3871              	.LBE1676:
 3872              	.LBE1712:
 3873              	.LBE1719:
 3874              	.LBB1720:
 3875              	.LBB1619:
 3876              	.LBB1613:
 3877              	.LBB1610:
 3878              		.loc 2 336 55 view .LVU725
 3879 0738 5045     		cmp	r0, r10
 3880 073a 18BF     		it	ne
 3881 073c 43F00103 		orrne	r3, r3, #1
 3882              	.LBE1610:
 3883              	.LBE1613:
 3884              	.LBE1619:
 3885              	.LBE1720:
 3886              	.LBB1721:
 3887              	.LBB1713:
 3888              	.LBB1677:
 3889              	.LBB1654:
 3890              	.LBB1648:
 3891              	.LBB1638:
 3892              	.LBB1635:
  66:../libs/PoliTeKDSP/libs/libDaisy/src/dev/mpr121.h ****                    config_.dev_addr, address, 1, data, size, 10);
 3893              		.loc 2 66 41 view .LVU726
 3894 0740 2846     		mov	r0, r5
 3895              	.LVL178:
  66:../libs/PoliTeKDSP/libs/libDaisy/src/dev/mpr121.h ****                    config_.dev_addr, address, 1, data, size, 10);
 3896              		.loc 2 66 41 view .LVU727
 3897              	.LBE1635:
 3898              	.LBE1638:
 3899              	.LBE1648:
 3900              	.LBE1654:
 3901              	.LBE1677:
 3902              	.LBE1713:
 3903              	.LBE1721:
 3904              	.LBB1722:
 3905              	.LBB1620:
 3906              	.LBB1614:
 3907              	.LBB1611:
 3908              		.loc 2 336 55 view .LVU728
 3909 0742 84F83030 		strb	r3, [r4, #48]
 3910              	.LVL179:
 3911              		.loc 2 336 55 view .LVU729
ARM GAS  C:\Users\39351\AppData\Local\Temp\cccegpNG.s 			page 89


 3912              	.LBE1611:
 3913              	.LBE1614:
 3914              	.LBE1620:
 3915              	.LBE1722:
 3916              	.LBB1723:
 3917              	.LBI1627:
 257:../libs/PoliTeKDSP/libs/libDaisy/src/dev/mpr121.h ****     {
 3918              		.loc 2 257 10 is_stmt 1 view .LVU730
 3919              	.LBB1714:
 3920              	.LBB1678:
 3921              	.LBB1655:
 3922              	.LBI1630:
 232:../libs/PoliTeKDSP/libs/libDaisy/src/dev/mpr121.h ****     {
 3923              		.loc 2 232 13 view .LVU731
 3924              	.LBB1649:
 3925              	.LBB1639:
 3926              	.LBI1632:
  63:../libs/PoliTeKDSP/libs/libDaisy/src/dev/mpr121.h ****     {
 3927              		.loc 2 63 10 view .LVU732
 3928              	.LBB1636:
  65:../libs/PoliTeKDSP/libs/libDaisy/src/dev/mpr121.h ****                != i2c_.ReadDataAtAddress(
 3929              		.loc 2 65 9 view .LVU733
  66:../libs/PoliTeKDSP/libs/libDaisy/src/dev/mpr121.h ****                    config_.dev_addr, address, 1, data, size, 10);
 3930              		.loc 2 66 41 is_stmt 0 view .LVU734
 3931 0746 3B46     		mov	r3, r7
 3932 0748 FFF7FEFF 		bl	_ZN5daisy9I2CHandle17ReadDataAtAddressEtttPhtm
 3933              	.LVL180:
  66:../libs/PoliTeKDSP/libs/libDaisy/src/dev/mpr121.h ****                    config_.dev_addr, address, 1, data, size, 10);
 3934              		.loc 2 66 41 view .LVU735
 3935              	.LBE1636:
 3936              	.LBE1639:
 3937              	.LBB1640:
 3938              	.LBI1640:
 3939              		.loc 2 336 10 is_stmt 1 view .LVU736
 3940              	.LBE1640:
 3941              	.LBE1649:
 3942              	.LBE1655:
 3943              	.LBB1656:
 3944              	.LBB1657:
  74:../libs/PoliTeKDSP/libs/libDaisy/src/dev/mpr121.h ****                    config_.dev_addr, address, 1, data, size, 10);
 3945              		.loc 2 74 42 is_stmt 0 view .LVU737
 3946 074c 0096     		str	r6, [sp]
 3947 074e 5E22     		movs	r2, #94
 3948 0750 CDE90178 		strd	r7, r8, [sp, #4]
 3949              	.LBE1657:
 3950              	.LBE1656:
 3951              	.LBB1662:
 3952              	.LBB1650:
 3953              	.LBB1644:
 3954              	.LBB1641:
 3955              		.loc 2 336 55 view .LVU738
 3956 0754 94F83030 		ldrb	r3, [r4, #48]	@ zero_extendqisi2
 3957              	.LBE1641:
 3958              	.LBE1644:
 3959              	.LBE1650:
 3960              	.LBE1662:
 3961              	.LBB1663:
ARM GAS  C:\Users\39351\AppData\Local\Temp\cccegpNG.s 			page 90


 3962              	.LBB1658:
  74:../libs/PoliTeKDSP/libs/libDaisy/src/dev/mpr121.h ****                    config_.dev_addr, address, 1, data, size, 10);
 3963              		.loc 2 74 42 view .LVU739
 3964 0758 94F82C10 		ldrb	r1, [r4, #44]	@ zero_extendqisi2
 3965              	.LBE1658:
 3966              	.LBE1663:
 3967              	.LBB1664:
 3968              	.LBB1651:
 3969              	.LBB1645:
 3970              	.LBB1642:
 3971              		.loc 2 336 55 view .LVU740
 3972 075c 5045     		cmp	r0, r10
 3973 075e 18BF     		it	ne
 3974 0760 43F00103 		orrne	r3, r3, #1
 3975              	.LBE1642:
 3976              	.LBE1645:
 3977              	.LBE1651:
 3978              	.LBE1664:
 3979              	.LBB1665:
 3980              	.LBB1659:
  74:../libs/PoliTeKDSP/libs/libDaisy/src/dev/mpr121.h ****                    config_.dev_addr, address, 1, data, size, 10);
 3981              		.loc 2 74 42 view .LVU741
 3982 0764 2846     		mov	r0, r5
 3983              	.LVL181:
  74:../libs/PoliTeKDSP/libs/libDaisy/src/dev/mpr121.h ****                    config_.dev_addr, address, 1, data, size, 10);
 3984              		.loc 2 74 42 view .LVU742
 3985              	.LBE1659:
 3986              	.LBE1665:
 3987              	.LBB1666:
 3988              	.LBB1652:
 3989              	.LBB1646:
 3990              	.LBB1643:
 3991              		.loc 2 336 55 view .LVU743
 3992 0766 84F83030 		strb	r3, [r4, #48]
 3993              	.LVL182:
 3994              		.loc 2 336 55 view .LVU744
 3995              	.LBE1643:
 3996              	.LBE1646:
 237:../libs/PoliTeKDSP/libs/libDaisy/src/dev/mpr121.h ****     }
 3997              		.loc 2 237 16 view .LVU745
 3998 076a 9DF83C30 		ldrb	r3, [sp, #60]	@ zero_extendqisi2
 3999              	.LVL183:
 237:../libs/PoliTeKDSP/libs/libDaisy/src/dev/mpr121.h ****     }
 4000              		.loc 2 237 16 view .LVU746
 4001              	.LBE1652:
 4002              	.LBE1666:
 271:../libs/PoliTeKDSP/libs/libDaisy/src/dev/mpr121.h ****             // clear this register to set stop mode
 4003              		.loc 2 271 21 view .LVU747
 4004 076e 8DF83CA0 		strb	r10, [sp, #60]
 4005              	.LVL184:
 4006              	.LBB1667:
 4007              	.LBI1656:
  71:../libs/PoliTeKDSP/libs/libDaisy/src/dev/mpr121.h ****     {
 4008              		.loc 2 71 10 is_stmt 1 view .LVU748
 4009              	.LBB1660:
  73:../libs/PoliTeKDSP/libs/libDaisy/src/dev/mpr121.h ****                != i2c_.WriteDataAtAddress(
 4010              		.loc 2 73 9 view .LVU749
ARM GAS  C:\Users\39351\AppData\Local\Temp\cccegpNG.s 			page 91


 4011              	.LBE1660:
 4012              	.LBE1667:
 270:../libs/PoliTeKDSP/libs/libDaisy/src/dev/mpr121.h ****             uint8_t zero = 0x00;
 4013              		.loc 2 270 26 is_stmt 0 view .LVU750
 4014 0772 8DF82830 		strb	r3, [sp, #40]
 4015              	.LBB1668:
 4016              	.LBB1661:
  74:../libs/PoliTeKDSP/libs/libDaisy/src/dev/mpr121.h ****                    config_.dev_addr, address, 1, data, size, 10);
 4017              		.loc 2 74 42 view .LVU751
 4018 0776 3B46     		mov	r3, r7
 4019 0778 FFF7FEFF 		bl	_ZN5daisy9I2CHandle18WriteDataAtAddressEtttPhtm
 4020              	.LVL185:
  74:../libs/PoliTeKDSP/libs/libDaisy/src/dev/mpr121.h ****                    config_.dev_addr, address, 1, data, size, 10);
 4021              		.loc 2 74 42 view .LVU752
 4022              	.LBE1661:
 4023              	.LBE1668:
 4024              	.LBB1669:
 4025              	.LBI1669:
 4026              		.loc 2 336 10 is_stmt 1 view .LVU753
 4027              	.LBE1669:
 4028              	.LBE1678:
 4029              	.LBB1679:
 4030              	.LBB1680:
  74:../libs/PoliTeKDSP/libs/libDaisy/src/dev/mpr121.h ****                    config_.dev_addr, address, 1, data, size, 10);
 4031              		.loc 2 74 42 is_stmt 0 view .LVU754
 4032 077c 0DF12703 		add	r3, sp, #39
 4033 0780 3122     		movs	r2, #49
 4034 0782 0093     		str	r3, [sp]
 4035 0784 CDE90178 		strd	r7, r8, [sp, #4]
 4036              	.LBE1680:
 4037              	.LBE1679:
 4038              	.LBB1684:
 4039              	.LBB1673:
 4040              	.LBB1670:
 4041              		.loc 2 336 55 view .LVU755
 4042 0788 94F83030 		ldrb	r3, [r4, #48]	@ zero_extendqisi2
 4043              	.LBE1670:
 4044              	.LBE1673:
 4045              	.LBE1684:
 4046              	.LBB1685:
 4047              	.LBB1681:
  74:../libs/PoliTeKDSP/libs/libDaisy/src/dev/mpr121.h ****                    config_.dev_addr, address, 1, data, size, 10);
 4048              		.loc 2 74 42 view .LVU756
 4049 078c 94F82C10 		ldrb	r1, [r4, #44]	@ zero_extendqisi2
 4050              	.LBE1681:
 4051              	.LBE1685:
 4052              	.LBB1686:
 4053              	.LBB1674:
 4054              	.LBB1671:
 4055              		.loc 2 336 55 view .LVU757
 4056 0790 5045     		cmp	r0, r10
 4057 0792 18BF     		it	ne
 4058 0794 43F00103 		orrne	r3, r3, #1
 4059              	.LBE1671:
 4060              	.LBE1674:
 4061              	.LBE1686:
 4062              	.LBB1687:
ARM GAS  C:\Users\39351\AppData\Local\Temp\cccegpNG.s 			page 92


 4063              	.LBB1682:
  74:../libs/PoliTeKDSP/libs/libDaisy/src/dev/mpr121.h ****                    config_.dev_addr, address, 1, data, size, 10);
 4064              		.loc 2 74 42 view .LVU758
 4065 0798 2846     		mov	r0, r5
 4066              	.LVL186:
  74:../libs/PoliTeKDSP/libs/libDaisy/src/dev/mpr121.h ****                    config_.dev_addr, address, 1, data, size, 10);
 4067              		.loc 2 74 42 view .LVU759
 4068              	.LBE1682:
 4069              	.LBE1687:
 4070              	.LBB1688:
 4071              	.LBB1675:
 4072              	.LBB1672:
 4073              		.loc 2 336 55 view .LVU760
 4074 079a 84F83030 		strb	r3, [r4, #48]
 4075              	.LVL187:
 4076              		.loc 2 336 55 view .LVU761
 4077              	.LBE1672:
 4078              	.LBE1675:
 4079              	.LBE1688:
 4080              	.LBB1689:
 4081              	.LBI1679:
  71:../libs/PoliTeKDSP/libs/libDaisy/src/dev/mpr121.h ****     {
 4082              		.loc 2 71 10 is_stmt 1 view .LVU762
 4083              	.LBB1683:
  73:../libs/PoliTeKDSP/libs/libDaisy/src/dev/mpr121.h ****                != i2c_.WriteDataAtAddress(
 4084              		.loc 2 73 9 view .LVU763
  74:../libs/PoliTeKDSP/libs/libDaisy/src/dev/mpr121.h ****                    config_.dev_addr, address, 1, data, size, 10);
 4085              		.loc 2 74 42 is_stmt 0 view .LVU764
 4086 079e 3B46     		mov	r3, r7
 4087 07a0 FFF7FEFF 		bl	_ZN5daisy9I2CHandle18WriteDataAtAddressEtttPhtm
 4088              	.LVL188:
  74:../libs/PoliTeKDSP/libs/libDaisy/src/dev/mpr121.h ****                    config_.dev_addr, address, 1, data, size, 10);
 4089              		.loc 2 74 42 view .LVU765
 4090              	.LBE1683:
 4091              	.LBE1689:
 4092              	.LBB1690:
 4093              	.LBI1690:
 4094              		.loc 2 336 10 is_stmt 1 view .LVU766
 4095              	.LBE1690:
 4096              	.LBB1694:
 4097              	.LBB1695:
  74:../libs/PoliTeKDSP/libs/libDaisy/src/dev/mpr121.h ****                    config_.dev_addr, address, 1, data, size, 10);
 4098              		.loc 2 74 42 is_stmt 0 view .LVU767
 4099 07a4 CDF800B0 		str	fp, [sp]
 4100 07a8 5E22     		movs	r2, #94
 4101 07aa CDE90178 		strd	r7, r8, [sp, #4]
 4102              	.LBE1695:
 4103              	.LBE1694:
 4104              	.LBB1699:
 4105              	.LBB1691:
 4106              		.loc 2 336 55 view .LVU768
 4107 07ae 94F83030 		ldrb	r3, [r4, #48]	@ zero_extendqisi2
 4108              	.LBE1691:
 4109              	.LBE1699:
 4110              	.LBB1700:
 4111              	.LBB1696:
  74:../libs/PoliTeKDSP/libs/libDaisy/src/dev/mpr121.h ****                    config_.dev_addr, address, 1, data, size, 10);
ARM GAS  C:\Users\39351\AppData\Local\Temp\cccegpNG.s 			page 93


 4112              		.loc 2 74 42 view .LVU769
 4113 07b2 94F82C10 		ldrb	r1, [r4, #44]	@ zero_extendqisi2
 4114              	.LBE1696:
 4115              	.LBE1700:
 4116              	.LBB1701:
 4117              	.LBB1692:
 4118              		.loc 2 336 55 view .LVU770
 4119 07b6 5045     		cmp	r0, r10
 4120 07b8 18BF     		it	ne
 4121 07ba 43F00103 		orrne	r3, r3, #1
 4122              	.LBE1692:
 4123              	.LBE1701:
 4124              	.LBB1702:
 4125              	.LBB1697:
  74:../libs/PoliTeKDSP/libs/libDaisy/src/dev/mpr121.h ****                    config_.dev_addr, address, 1, data, size, 10);
 4126              		.loc 2 74 42 view .LVU771
 4127 07be 2846     		mov	r0, r5
 4128              	.LVL189:
  74:../libs/PoliTeKDSP/libs/libDaisy/src/dev/mpr121.h ****                    config_.dev_addr, address, 1, data, size, 10);
 4129              		.loc 2 74 42 view .LVU772
 4130              	.LBE1697:
 4131              	.LBE1702:
 4132              	.LBB1703:
 4133              	.LBB1693:
 4134              		.loc 2 336 55 view .LVU773
 4135 07c0 84F83030 		strb	r3, [r4, #48]
 4136              	.LVL190:
 4137              		.loc 2 336 55 view .LVU774
 4138              	.LBE1693:
 4139              	.LBE1703:
 4140              	.LBB1704:
 4141              	.LBI1694:
  71:../libs/PoliTeKDSP/libs/libDaisy/src/dev/mpr121.h ****     {
 4142              		.loc 2 71 10 is_stmt 1 view .LVU775
 4143              	.LBB1698:
  73:../libs/PoliTeKDSP/libs/libDaisy/src/dev/mpr121.h ****                != i2c_.WriteDataAtAddress(
 4144              		.loc 2 73 9 view .LVU776
  74:../libs/PoliTeKDSP/libs/libDaisy/src/dev/mpr121.h ****                    config_.dev_addr, address, 1, data, size, 10);
 4145              		.loc 2 74 42 is_stmt 0 view .LVU777
 4146 07c4 3B46     		mov	r3, r7
 4147 07c6 FFF7FEFF 		bl	_ZN5daisy9I2CHandle18WriteDataAtAddressEtttPhtm
 4148              	.LVL191:
  74:../libs/PoliTeKDSP/libs/libDaisy/src/dev/mpr121.h ****                    config_.dev_addr, address, 1, data, size, 10);
 4149              		.loc 2 74 42 view .LVU778
 4150              	.LBE1698:
 4151              	.LBE1704:
 4152              	.LBB1705:
 4153              	.LBI1705:
 4154              		.loc 2 336 10 is_stmt 1 view .LVU779
 4155              	.LBE1705:
 4156              	.LBE1714:
 4157              	.LBE1723:
 4158              	.LBB1724:
 4159              	.LBB1725:
 4160              	.LBB1726:
 4161              	.LBB1727:
 4162              	.LBB1728:
ARM GAS  C:\Users\39351\AppData\Local\Temp\cccegpNG.s 			page 94


 4163              	.LBB1729:
 4164              	.LBB1730:
  66:../libs/PoliTeKDSP/libs/libDaisy/src/dev/mpr121.h ****                    config_.dev_addr, address, 1, data, size, 10);
 4165              		.loc 2 66 41 is_stmt 0 view .LVU780
 4166 07ca 0096     		str	r6, [sp]
 4167 07cc 5E22     		movs	r2, #94
 4168 07ce 8DF827A0 		strb	r10, [sp, #39]
 4169 07d2 CDE90178 		strd	r7, r8, [sp, #4]
 4170              	.LBE1730:
 4171              	.LBE1729:
 4172              	.LBE1728:
 4173              	.LBE1727:
 4174              	.LBE1726:
 4175              	.LBE1725:
 4176              	.LBE1724:
 4177              	.LBB1815:
 4178              	.LBB1715:
 4179              	.LBB1709:
 4180              	.LBB1706:
 4181              		.loc 2 336 55 view .LVU781
 4182 07d6 94F83030 		ldrb	r3, [r4, #48]	@ zero_extendqisi2
 4183              	.LBE1706:
 4184              	.LBE1709:
 4185              	.LBE1715:
 4186              	.LBE1815:
 4187              	.LBB1816:
 4188              	.LBB1809:
 4189              	.LBB1773:
 4190              	.LBB1750:
 4191              	.LBB1744:
 4192              	.LBB1734:
 4193              	.LBB1731:
  66:../libs/PoliTeKDSP/libs/libDaisy/src/dev/mpr121.h ****                    config_.dev_addr, address, 1, data, size, 10);
 4194              		.loc 2 66 41 view .LVU782
 4195 07da 94F82C10 		ldrb	r1, [r4, #44]	@ zero_extendqisi2
 4196              	.LBE1731:
 4197              	.LBE1734:
 4198              	.LBE1744:
 4199              	.LBE1750:
 4200              	.LBE1773:
 4201              	.LBE1809:
 4202              	.LBE1816:
 4203              	.LBB1817:
 4204              	.LBB1716:
 4205              	.LBB1710:
 4206              	.LBB1707:
 4207              		.loc 2 336 55 view .LVU783
 4208 07de 5045     		cmp	r0, r10
 4209 07e0 18BF     		it	ne
 4210 07e2 43F00103 		orrne	r3, r3, #1
 4211              	.LBE1707:
 4212              	.LBE1710:
 4213              	.LBE1716:
 4214              	.LBE1817:
 4215              	.LBB1818:
 4216              	.LBB1810:
 4217              	.LBB1774:
ARM GAS  C:\Users\39351\AppData\Local\Temp\cccegpNG.s 			page 95


 4218              	.LBB1751:
 4219              	.LBB1745:
 4220              	.LBB1735:
 4221              	.LBB1732:
  66:../libs/PoliTeKDSP/libs/libDaisy/src/dev/mpr121.h ****                    config_.dev_addr, address, 1, data, size, 10);
 4222              		.loc 2 66 41 view .LVU784
 4223 07e6 2846     		mov	r0, r5
 4224              	.LVL192:
  66:../libs/PoliTeKDSP/libs/libDaisy/src/dev/mpr121.h ****                    config_.dev_addr, address, 1, data, size, 10);
 4225              		.loc 2 66 41 view .LVU785
 4226              	.LBE1732:
 4227              	.LBE1735:
 4228              	.LBE1745:
 4229              	.LBE1751:
 4230              	.LBE1774:
 4231              	.LBE1810:
 4232              	.LBE1818:
 4233              	.LBB1819:
 4234              	.LBB1717:
 4235              	.LBB1711:
 4236              	.LBB1708:
 4237              		.loc 2 336 55 view .LVU786
 4238 07e8 84F83030 		strb	r3, [r4, #48]
 4239              	.LVL193:
 4240              		.loc 2 336 55 view .LVU787
 4241              	.LBE1708:
 4242              	.LBE1711:
 4243              	.LBE1717:
 4244              	.LBE1819:
 4245              	.LBB1820:
 4246              	.LBI1724:
 257:../libs/PoliTeKDSP/libs/libDaisy/src/dev/mpr121.h ****     {
 4247              		.loc 2 257 10 is_stmt 1 view .LVU788
 4248              	.LBB1811:
 4249              	.LBB1775:
 4250              	.LBB1752:
 4251              	.LBI1727:
 232:../libs/PoliTeKDSP/libs/libDaisy/src/dev/mpr121.h ****     {
 4252              		.loc 2 232 13 view .LVU789
 4253              	.LBB1746:
 4254              	.LBB1736:
 4255              	.LBI1729:
  63:../libs/PoliTeKDSP/libs/libDaisy/src/dev/mpr121.h ****     {
 4256              		.loc 2 63 10 view .LVU790
 4257              	.LBB1733:
  65:../libs/PoliTeKDSP/libs/libDaisy/src/dev/mpr121.h ****                != i2c_.ReadDataAtAddress(
 4258              		.loc 2 65 9 view .LVU791
  66:../libs/PoliTeKDSP/libs/libDaisy/src/dev/mpr121.h ****                    config_.dev_addr, address, 1, data, size, 10);
 4259              		.loc 2 66 41 is_stmt 0 view .LVU792
 4260 07ec 3B46     		mov	r3, r7
 4261 07ee FFF7FEFF 		bl	_ZN5daisy9I2CHandle17ReadDataAtAddressEtttPhtm
 4262              	.LVL194:
  66:../libs/PoliTeKDSP/libs/libDaisy/src/dev/mpr121.h ****                    config_.dev_addr, address, 1, data, size, 10);
 4263              		.loc 2 66 41 view .LVU793
 4264              	.LBE1733:
 4265              	.LBE1736:
 4266              	.LBB1737:
ARM GAS  C:\Users\39351\AppData\Local\Temp\cccegpNG.s 			page 96


 4267              	.LBI1737:
 4268              		.loc 2 336 10 is_stmt 1 view .LVU794
 4269              	.LBE1737:
 4270              	.LBE1746:
 4271              	.LBE1752:
 4272              	.LBB1753:
 4273              	.LBB1754:
  74:../libs/PoliTeKDSP/libs/libDaisy/src/dev/mpr121.h ****                    config_.dev_addr, address, 1, data, size, 10);
 4274              		.loc 2 74 42 is_stmt 0 view .LVU795
 4275 07f2 0096     		str	r6, [sp]
 4276 07f4 5E22     		movs	r2, #94
 4277 07f6 CDE90178 		strd	r7, r8, [sp, #4]
 4278              	.LBE1754:
 4279              	.LBE1753:
 4280              	.LBB1759:
 4281              	.LBB1747:
 4282              	.LBB1741:
 4283              	.LBB1738:
 4284              		.loc 2 336 55 view .LVU796
 4285 07fa 94F83030 		ldrb	r3, [r4, #48]	@ zero_extendqisi2
 4286              	.LBE1738:
 4287              	.LBE1741:
 4288              	.LBE1747:
 4289              	.LBE1759:
 4290              	.LBB1760:
 4291              	.LBB1755:
  74:../libs/PoliTeKDSP/libs/libDaisy/src/dev/mpr121.h ****                    config_.dev_addr, address, 1, data, size, 10);
 4292              		.loc 2 74 42 view .LVU797
 4293 07fe 94F82C10 		ldrb	r1, [r4, #44]	@ zero_extendqisi2
 4294              	.LBE1755:
 4295              	.LBE1760:
 4296              	.LBB1761:
 4297              	.LBB1748:
 4298              	.LBB1742:
 4299              	.LBB1739:
 4300              		.loc 2 336 55 view .LVU798
 4301 0802 5045     		cmp	r0, r10
 4302 0804 18BF     		it	ne
 4303 0806 43F00103 		orrne	r3, r3, #1
 4304              	.LBE1739:
 4305              	.LBE1742:
 4306              	.LBE1748:
 4307              	.LBE1761:
 4308              	.LBB1762:
 4309              	.LBB1756:
  74:../libs/PoliTeKDSP/libs/libDaisy/src/dev/mpr121.h ****                    config_.dev_addr, address, 1, data, size, 10);
 4310              		.loc 2 74 42 view .LVU799
 4311 080a 2846     		mov	r0, r5
 4312              	.LVL195:
  74:../libs/PoliTeKDSP/libs/libDaisy/src/dev/mpr121.h ****                    config_.dev_addr, address, 1, data, size, 10);
 4313              		.loc 2 74 42 view .LVU800
 4314              	.LBE1756:
 4315              	.LBE1762:
 4316              	.LBB1763:
 4317              	.LBB1749:
 4318              	.LBB1743:
 4319              	.LBB1740:
ARM GAS  C:\Users\39351\AppData\Local\Temp\cccegpNG.s 			page 97


 4320              		.loc 2 336 55 view .LVU801
 4321 080c 84F83030 		strb	r3, [r4, #48]
 4322              	.LVL196:
 4323              		.loc 2 336 55 view .LVU802
 4324              	.LBE1740:
 4325              	.LBE1743:
 237:../libs/PoliTeKDSP/libs/libDaisy/src/dev/mpr121.h ****     }
 4326              		.loc 2 237 16 view .LVU803
 4327 0810 9DF83C30 		ldrb	r3, [sp, #60]	@ zero_extendqisi2
 4328              	.LVL197:
 237:../libs/PoliTeKDSP/libs/libDaisy/src/dev/mpr121.h ****     }
 4329              		.loc 2 237 16 view .LVU804
 4330              	.LBE1749:
 4331              	.LBE1763:
 271:../libs/PoliTeKDSP/libs/libDaisy/src/dev/mpr121.h ****             // clear this register to set stop mode
 4332              		.loc 2 271 21 view .LVU805
 4333 0814 8DF83CA0 		strb	r10, [sp, #60]
 4334              	.LVL198:
 4335              	.LBB1764:
 4336              	.LBI1753:
  71:../libs/PoliTeKDSP/libs/libDaisy/src/dev/mpr121.h ****     {
 4337              		.loc 2 71 10 is_stmt 1 view .LVU806
 4338              	.LBB1757:
  73:../libs/PoliTeKDSP/libs/libDaisy/src/dev/mpr121.h ****                != i2c_.WriteDataAtAddress(
 4339              		.loc 2 73 9 view .LVU807
 4340              	.LBE1757:
 4341              	.LBE1764:
 270:../libs/PoliTeKDSP/libs/libDaisy/src/dev/mpr121.h ****             uint8_t zero = 0x00;
 4342              		.loc 2 270 26 is_stmt 0 view .LVU808
 4343 0818 8DF82830 		strb	r3, [sp, #40]
 4344              	.LBB1765:
 4345              	.LBB1758:
  74:../libs/PoliTeKDSP/libs/libDaisy/src/dev/mpr121.h ****                    config_.dev_addr, address, 1, data, size, 10);
 4346              		.loc 2 74 42 view .LVU809
 4347 081c 3B46     		mov	r3, r7
 4348 081e FFF7FEFF 		bl	_ZN5daisy9I2CHandle18WriteDataAtAddressEtttPhtm
 4349              	.LVL199:
  74:../libs/PoliTeKDSP/libs/libDaisy/src/dev/mpr121.h ****                    config_.dev_addr, address, 1, data, size, 10);
 4350              		.loc 2 74 42 view .LVU810
 4351              	.LBE1758:
 4352              	.LBE1765:
 4353              	.LBB1766:
 4354              	.LBI1766:
 4355              		.loc 2 336 10 is_stmt 1 view .LVU811
 4356              	.LBE1766:
 4357              	.LBE1775:
 4358              	.LBB1776:
 4359              	.LBB1777:
  74:../libs/PoliTeKDSP/libs/libDaisy/src/dev/mpr121.h ****                    config_.dev_addr, address, 1, data, size, 10);
 4360              		.loc 2 74 42 is_stmt 0 view .LVU812
 4361 0822 0DF12703 		add	r3, sp, #39
 4362 0826 3222     		movs	r2, #50
 4363 0828 0093     		str	r3, [sp]
 4364 082a CDE90178 		strd	r7, r8, [sp, #4]
 4365              	.LBE1777:
 4366              	.LBE1776:
 4367              	.LBB1781:
ARM GAS  C:\Users\39351\AppData\Local\Temp\cccegpNG.s 			page 98


 4368              	.LBB1770:
 4369              	.LBB1767:
 4370              		.loc 2 336 55 view .LVU813
 4371 082e 94F83030 		ldrb	r3, [r4, #48]	@ zero_extendqisi2
 4372              	.LBE1767:
 4373              	.LBE1770:
 4374              	.LBE1781:
 4375              	.LBB1782:
 4376              	.LBB1778:
  74:../libs/PoliTeKDSP/libs/libDaisy/src/dev/mpr121.h ****                    config_.dev_addr, address, 1, data, size, 10);
 4377              		.loc 2 74 42 view .LVU814
 4378 0832 94F82C10 		ldrb	r1, [r4, #44]	@ zero_extendqisi2
 4379              	.LBE1778:
 4380              	.LBE1782:
 4381              	.LBB1783:
 4382              	.LBB1771:
 4383              	.LBB1768:
 4384              		.loc 2 336 55 view .LVU815
 4385 0836 5045     		cmp	r0, r10
 4386 0838 18BF     		it	ne
 4387 083a 43F00103 		orrne	r3, r3, #1
 4388              	.LBE1768:
 4389              	.LBE1771:
 4390              	.LBE1783:
 4391              	.LBB1784:
 4392              	.LBB1779:
  74:../libs/PoliTeKDSP/libs/libDaisy/src/dev/mpr121.h ****                    config_.dev_addr, address, 1, data, size, 10);
 4393              		.loc 2 74 42 view .LVU816
 4394 083e 2846     		mov	r0, r5
 4395              	.LVL200:
  74:../libs/PoliTeKDSP/libs/libDaisy/src/dev/mpr121.h ****                    config_.dev_addr, address, 1, data, size, 10);
 4396              		.loc 2 74 42 view .LVU817
 4397              	.LBE1779:
 4398              	.LBE1784:
 4399              	.LBB1785:
 4400              	.LBB1772:
 4401              	.LBB1769:
 4402              		.loc 2 336 55 view .LVU818
 4403 0840 84F83030 		strb	r3, [r4, #48]
 4404              	.LVL201:
 4405              		.loc 2 336 55 view .LVU819
 4406              	.LBE1769:
 4407              	.LBE1772:
 4408              	.LBE1785:
 4409              	.LBB1786:
 4410              	.LBI1776:
  71:../libs/PoliTeKDSP/libs/libDaisy/src/dev/mpr121.h ****     {
 4411              		.loc 2 71 10 is_stmt 1 view .LVU820
 4412              	.LBB1780:
  73:../libs/PoliTeKDSP/libs/libDaisy/src/dev/mpr121.h ****                != i2c_.WriteDataAtAddress(
 4413              		.loc 2 73 9 view .LVU821
  74:../libs/PoliTeKDSP/libs/libDaisy/src/dev/mpr121.h ****                    config_.dev_addr, address, 1, data, size, 10);
 4414              		.loc 2 74 42 is_stmt 0 view .LVU822
 4415 0844 3B46     		mov	r3, r7
 4416 0846 FFF7FEFF 		bl	_ZN5daisy9I2CHandle18WriteDataAtAddressEtttPhtm
 4417              	.LVL202:
  74:../libs/PoliTeKDSP/libs/libDaisy/src/dev/mpr121.h ****                    config_.dev_addr, address, 1, data, size, 10);
ARM GAS  C:\Users\39351\AppData\Local\Temp\cccegpNG.s 			page 99


 4418              		.loc 2 74 42 view .LVU823
 4419              	.LBE1780:
 4420              	.LBE1786:
 4421              	.LBB1787:
 4422              	.LBI1787:
 4423              		.loc 2 336 10 is_stmt 1 view .LVU824
 4424              	.LBE1787:
 4425              	.LBB1791:
 4426              	.LBB1792:
  74:../libs/PoliTeKDSP/libs/libDaisy/src/dev/mpr121.h ****                    config_.dev_addr, address, 1, data, size, 10);
 4427              		.loc 2 74 42 is_stmt 0 view .LVU825
 4428 084a CDF800B0 		str	fp, [sp]
 4429 084e 5E22     		movs	r2, #94
 4430 0850 CDE90178 		strd	r7, r8, [sp, #4]
 4431              	.LBE1792:
 4432              	.LBE1791:
 4433              	.LBB1796:
 4434              	.LBB1788:
 4435              		.loc 2 336 55 view .LVU826
 4436 0854 94F83030 		ldrb	r3, [r4, #48]	@ zero_extendqisi2
 4437              	.LBE1788:
 4438              	.LBE1796:
 4439              	.LBB1797:
 4440              	.LBB1793:
  74:../libs/PoliTeKDSP/libs/libDaisy/src/dev/mpr121.h ****                    config_.dev_addr, address, 1, data, size, 10);
 4441              		.loc 2 74 42 view .LVU827
 4442 0858 94F82C10 		ldrb	r1, [r4, #44]	@ zero_extendqisi2
 4443              	.LBE1793:
 4444              	.LBE1797:
 4445              	.LBB1798:
 4446              	.LBB1789:
 4447              		.loc 2 336 55 view .LVU828
 4448 085c 5045     		cmp	r0, r10
 4449 085e 18BF     		it	ne
 4450 0860 43F00103 		orrne	r3, r3, #1
 4451              	.LBE1789:
 4452              	.LBE1798:
 4453              	.LBB1799:
 4454              	.LBB1794:
  74:../libs/PoliTeKDSP/libs/libDaisy/src/dev/mpr121.h ****                    config_.dev_addr, address, 1, data, size, 10);
 4455              		.loc 2 74 42 view .LVU829
 4456 0864 2846     		mov	r0, r5
 4457              	.LVL203:
  74:../libs/PoliTeKDSP/libs/libDaisy/src/dev/mpr121.h ****                    config_.dev_addr, address, 1, data, size, 10);
 4458              		.loc 2 74 42 view .LVU830
 4459              	.LBE1794:
 4460              	.LBE1799:
 4461              	.LBB1800:
 4462              	.LBB1790:
 4463              		.loc 2 336 55 view .LVU831
 4464 0866 84F83030 		strb	r3, [r4, #48]
 4465              	.LVL204:
 4466              		.loc 2 336 55 view .LVU832
 4467              	.LBE1790:
 4468              	.LBE1800:
 4469              	.LBB1801:
 4470              	.LBI1791:
ARM GAS  C:\Users\39351\AppData\Local\Temp\cccegpNG.s 			page 100


  71:../libs/PoliTeKDSP/libs/libDaisy/src/dev/mpr121.h ****     {
 4471              		.loc 2 71 10 is_stmt 1 view .LVU833
 4472              	.LBB1795:
  73:../libs/PoliTeKDSP/libs/libDaisy/src/dev/mpr121.h ****                != i2c_.WriteDataAtAddress(
 4473              		.loc 2 73 9 view .LVU834
  74:../libs/PoliTeKDSP/libs/libDaisy/src/dev/mpr121.h ****                    config_.dev_addr, address, 1, data, size, 10);
 4474              		.loc 2 74 42 is_stmt 0 view .LVU835
 4475 086a 3B46     		mov	r3, r7
 4476 086c FFF7FEFF 		bl	_ZN5daisy9I2CHandle18WriteDataAtAddressEtttPhtm
 4477              	.LVL205:
  74:../libs/PoliTeKDSP/libs/libDaisy/src/dev/mpr121.h ****                    config_.dev_addr, address, 1, data, size, 10);
 4478              		.loc 2 74 42 view .LVU836
 4479              	.LBE1795:
 4480              	.LBE1801:
 4481              	.LBB1802:
 4482              	.LBI1802:
 4483              		.loc 2 336 10 is_stmt 1 view .LVU837
 4484              	.LBE1802:
 4485              	.LBE1811:
 4486              	.LBE1820:
 4487              	.LBB1821:
 4488              	.LBB1822:
 4489              	.LBB1823:
 4490              	.LBB1824:
 4491              	.LBB1825:
 4492              	.LBB1826:
 4493              	.LBB1827:
  66:../libs/PoliTeKDSP/libs/libDaisy/src/dev/mpr121.h ****                    config_.dev_addr, address, 1, data, size, 10);
 4494              		.loc 2 66 41 is_stmt 0 view .LVU838
 4495 0870 0096     		str	r6, [sp]
 4496 0872 5E22     		movs	r2, #94
 4497 0874 8DF827A0 		strb	r10, [sp, #39]
 4498 0878 CDE90178 		strd	r7, r8, [sp, #4]
 4499              	.LBE1827:
 4500              	.LBE1826:
 4501              	.LBE1825:
 4502              	.LBE1824:
 4503              	.LBE1823:
 4504              	.LBE1822:
 4505              	.LBE1821:
 4506              	.LBB1912:
 4507              	.LBB1812:
 4508              	.LBB1806:
 4509              	.LBB1803:
 4510              		.loc 2 336 55 view .LVU839
 4511 087c 94F83030 		ldrb	r3, [r4, #48]	@ zero_extendqisi2
 4512              	.LBE1803:
 4513              	.LBE1806:
 4514              	.LBE1812:
 4515              	.LBE1912:
 4516              	.LBB1913:
 4517              	.LBB1906:
 4518              	.LBB1870:
 4519              	.LBB1847:
 4520              	.LBB1841:
 4521              	.LBB1831:
 4522              	.LBB1828:
ARM GAS  C:\Users\39351\AppData\Local\Temp\cccegpNG.s 			page 101


  66:../libs/PoliTeKDSP/libs/libDaisy/src/dev/mpr121.h ****                    config_.dev_addr, address, 1, data, size, 10);
 4523              		.loc 2 66 41 view .LVU840
 4524 0880 94F82C10 		ldrb	r1, [r4, #44]	@ zero_extendqisi2
 4525              	.LBE1828:
 4526              	.LBE1831:
 4527              	.LBE1841:
 4528              	.LBE1847:
 4529              	.LBE1870:
 4530              	.LBE1906:
 4531              	.LBE1913:
 4532              	.LBB1914:
 4533              	.LBB1813:
 4534              	.LBB1807:
 4535              	.LBB1804:
 4536              		.loc 2 336 55 view .LVU841
 4537 0884 5045     		cmp	r0, r10
 4538 0886 18BF     		it	ne
 4539 0888 43F00103 		orrne	r3, r3, #1
 4540              	.LBE1804:
 4541              	.LBE1807:
 4542              	.LBE1813:
 4543              	.LBE1914:
 4544              	.LBB1915:
 4545              	.LBB1907:
 4546              	.LBB1871:
 4547              	.LBB1848:
 4548              	.LBB1842:
 4549              	.LBB1832:
 4550              	.LBB1829:
  66:../libs/PoliTeKDSP/libs/libDaisy/src/dev/mpr121.h ****                    config_.dev_addr, address, 1, data, size, 10);
 4551              		.loc 2 66 41 view .LVU842
 4552 088c 2846     		mov	r0, r5
 4553              	.LVL206:
  66:../libs/PoliTeKDSP/libs/libDaisy/src/dev/mpr121.h ****                    config_.dev_addr, address, 1, data, size, 10);
 4554              		.loc 2 66 41 view .LVU843
 4555              	.LBE1829:
 4556              	.LBE1832:
 4557              	.LBE1842:
 4558              	.LBE1848:
 4559              	.LBE1871:
 4560              	.LBE1907:
 4561              	.LBE1915:
 4562              	.LBB1916:
 4563              	.LBB1814:
 4564              	.LBB1808:
 4565              	.LBB1805:
 4566              		.loc 2 336 55 view .LVU844
 4567 088e 84F83030 		strb	r3, [r4, #48]
 4568              	.LVL207:
 4569              		.loc 2 336 55 view .LVU845
 4570              	.LBE1805:
 4571              	.LBE1808:
 4572              	.LBE1814:
 4573              	.LBE1916:
 4574              	.LBB1917:
 4575              	.LBI1821:
 257:../libs/PoliTeKDSP/libs/libDaisy/src/dev/mpr121.h ****     {
ARM GAS  C:\Users\39351\AppData\Local\Temp\cccegpNG.s 			page 102


 4576              		.loc 2 257 10 is_stmt 1 view .LVU846
 4577              	.LBB1908:
 4578              	.LBB1872:
 4579              	.LBB1849:
 4580              	.LBI1824:
 232:../libs/PoliTeKDSP/libs/libDaisy/src/dev/mpr121.h ****     {
 4581              		.loc 2 232 13 view .LVU847
 4582              	.LBB1843:
 4583              	.LBB1833:
 4584              	.LBI1826:
  63:../libs/PoliTeKDSP/libs/libDaisy/src/dev/mpr121.h ****     {
 4585              		.loc 2 63 10 view .LVU848
 4586              	.LBB1830:
  65:../libs/PoliTeKDSP/libs/libDaisy/src/dev/mpr121.h ****                != i2c_.ReadDataAtAddress(
 4587              		.loc 2 65 9 view .LVU849
  66:../libs/PoliTeKDSP/libs/libDaisy/src/dev/mpr121.h ****                    config_.dev_addr, address, 1, data, size, 10);
 4588              		.loc 2 66 41 is_stmt 0 view .LVU850
 4589 0892 3B46     		mov	r3, r7
 4590 0894 FFF7FEFF 		bl	_ZN5daisy9I2CHandle17ReadDataAtAddressEtttPhtm
 4591              	.LVL208:
  66:../libs/PoliTeKDSP/libs/libDaisy/src/dev/mpr121.h ****                    config_.dev_addr, address, 1, data, size, 10);
 4592              		.loc 2 66 41 view .LVU851
 4593              	.LBE1830:
 4594              	.LBE1833:
 4595              	.LBB1834:
 4596              	.LBI1834:
 4597              		.loc 2 336 10 is_stmt 1 view .LVU852
 4598              	.LBE1834:
 4599              	.LBE1843:
 4600              	.LBE1849:
 4601              	.LBB1850:
 4602              	.LBB1851:
  74:../libs/PoliTeKDSP/libs/libDaisy/src/dev/mpr121.h ****                    config_.dev_addr, address, 1, data, size, 10);
 4603              		.loc 2 74 42 is_stmt 0 view .LVU853
 4604 0898 0096     		str	r6, [sp]
 4605 089a 5E22     		movs	r2, #94
 4606 089c CDE90178 		strd	r7, r8, [sp, #4]
 4607              	.LBE1851:
 4608              	.LBE1850:
 4609              	.LBB1856:
 4610              	.LBB1844:
 4611              	.LBB1838:
 4612              	.LBB1835:
 4613              		.loc 2 336 55 view .LVU854
 4614 08a0 94F83030 		ldrb	r3, [r4, #48]	@ zero_extendqisi2
 4615              	.LBE1835:
 4616              	.LBE1838:
 4617              	.LBE1844:
 4618              	.LBE1856:
 4619              	.LBB1857:
 4620              	.LBB1852:
  74:../libs/PoliTeKDSP/libs/libDaisy/src/dev/mpr121.h ****                    config_.dev_addr, address, 1, data, size, 10);
 4621              		.loc 2 74 42 view .LVU855
 4622 08a4 94F82C10 		ldrb	r1, [r4, #44]	@ zero_extendqisi2
 4623              	.LBE1852:
 4624              	.LBE1857:
 4625              	.LBB1858:
ARM GAS  C:\Users\39351\AppData\Local\Temp\cccegpNG.s 			page 103


 4626              	.LBB1845:
 4627              	.LBB1839:
 4628              	.LBB1836:
 4629              		.loc 2 336 55 view .LVU856
 4630 08a8 5045     		cmp	r0, r10
 4631 08aa 18BF     		it	ne
 4632 08ac 43F00103 		orrne	r3, r3, #1
 4633              	.LBE1836:
 4634              	.LBE1839:
 4635              	.LBE1845:
 4636              	.LBE1858:
 4637              	.LBB1859:
 4638              	.LBB1853:
  74:../libs/PoliTeKDSP/libs/libDaisy/src/dev/mpr121.h ****                    config_.dev_addr, address, 1, data, size, 10);
 4639              		.loc 2 74 42 view .LVU857
 4640 08b0 2846     		mov	r0, r5
 4641              	.LVL209:
  74:../libs/PoliTeKDSP/libs/libDaisy/src/dev/mpr121.h ****                    config_.dev_addr, address, 1, data, size, 10);
 4642              		.loc 2 74 42 view .LVU858
 4643              	.LBE1853:
 4644              	.LBE1859:
 4645              	.LBB1860:
 4646              	.LBB1846:
 4647              	.LBB1840:
 4648              	.LBB1837:
 4649              		.loc 2 336 55 view .LVU859
 4650 08b2 84F83030 		strb	r3, [r4, #48]
 4651              	.LVL210:
 4652              		.loc 2 336 55 view .LVU860
 4653              	.LBE1837:
 4654              	.LBE1840:
 237:../libs/PoliTeKDSP/libs/libDaisy/src/dev/mpr121.h ****     }
 4655              		.loc 2 237 16 view .LVU861
 4656 08b6 9DF83C30 		ldrb	r3, [sp, #60]	@ zero_extendqisi2
 4657              	.LVL211:
 237:../libs/PoliTeKDSP/libs/libDaisy/src/dev/mpr121.h ****     }
 4658              		.loc 2 237 16 view .LVU862
 4659              	.LBE1846:
 4660              	.LBE1860:
 271:../libs/PoliTeKDSP/libs/libDaisy/src/dev/mpr121.h ****             // clear this register to set stop mode
 4661              		.loc 2 271 21 view .LVU863
 4662 08ba 8DF83CA0 		strb	r10, [sp, #60]
 4663              	.LVL212:
 4664              	.LBB1861:
 4665              	.LBI1850:
  71:../libs/PoliTeKDSP/libs/libDaisy/src/dev/mpr121.h ****     {
 4666              		.loc 2 71 10 is_stmt 1 view .LVU864
 4667              	.LBB1854:
  73:../libs/PoliTeKDSP/libs/libDaisy/src/dev/mpr121.h ****                != i2c_.WriteDataAtAddress(
 4668              		.loc 2 73 9 view .LVU865
 4669              	.LBE1854:
 4670              	.LBE1861:
 270:../libs/PoliTeKDSP/libs/libDaisy/src/dev/mpr121.h ****             uint8_t zero = 0x00;
 4671              		.loc 2 270 26 is_stmt 0 view .LVU866
 4672 08be 8DF82830 		strb	r3, [sp, #40]
 4673              	.LBB1862:
 4674              	.LBB1855:
ARM GAS  C:\Users\39351\AppData\Local\Temp\cccegpNG.s 			page 104


  74:../libs/PoliTeKDSP/libs/libDaisy/src/dev/mpr121.h ****                    config_.dev_addr, address, 1, data, size, 10);
 4675              		.loc 2 74 42 view .LVU867
 4676 08c2 3B46     		mov	r3, r7
 4677 08c4 FFF7FEFF 		bl	_ZN5daisy9I2CHandle18WriteDataAtAddressEtttPhtm
 4678              	.LVL213:
  74:../libs/PoliTeKDSP/libs/libDaisy/src/dev/mpr121.h ****                    config_.dev_addr, address, 1, data, size, 10);
 4679              		.loc 2 74 42 view .LVU868
 4680              	.LBE1855:
 4681              	.LBE1862:
 4682              	.LBB1863:
 4683              	.LBI1863:
 4684              		.loc 2 336 10 is_stmt 1 view .LVU869
 4685              	.LBE1863:
 4686              	.LBE1872:
 4687              	.LBB1873:
 4688              	.LBB1874:
  74:../libs/PoliTeKDSP/libs/libDaisy/src/dev/mpr121.h ****                    config_.dev_addr, address, 1, data, size, 10);
 4689              		.loc 2 74 42 is_stmt 0 view .LVU870
 4690 08c8 0DF12703 		add	r3, sp, #39
 4691 08cc 3322     		movs	r2, #51
 4692 08ce 0093     		str	r3, [sp]
 4693 08d0 CDE90178 		strd	r7, r8, [sp, #4]
 4694              	.LBE1874:
 4695              	.LBE1873:
 4696              	.LBB1878:
 4697              	.LBB1867:
 4698              	.LBB1864:
 4699              		.loc 2 336 55 view .LVU871
 4700 08d4 94F83030 		ldrb	r3, [r4, #48]	@ zero_extendqisi2
 4701              	.LBE1864:
 4702              	.LBE1867:
 4703              	.LBE1878:
 4704              	.LBB1879:
 4705              	.LBB1875:
  74:../libs/PoliTeKDSP/libs/libDaisy/src/dev/mpr121.h ****                    config_.dev_addr, address, 1, data, size, 10);
 4706              		.loc 2 74 42 view .LVU872
 4707 08d8 94F82C10 		ldrb	r1, [r4, #44]	@ zero_extendqisi2
 4708              	.LBE1875:
 4709              	.LBE1879:
 4710              	.LBB1880:
 4711              	.LBB1868:
 4712              	.LBB1865:
 4713              		.loc 2 336 55 view .LVU873
 4714 08dc 5045     		cmp	r0, r10
 4715 08de 18BF     		it	ne
 4716 08e0 43F00103 		orrne	r3, r3, #1
 4717              	.LBE1865:
 4718              	.LBE1868:
 4719              	.LBE1880:
 4720              	.LBB1881:
 4721              	.LBB1876:
  74:../libs/PoliTeKDSP/libs/libDaisy/src/dev/mpr121.h ****                    config_.dev_addr, address, 1, data, size, 10);
 4722              		.loc 2 74 42 view .LVU874
 4723 08e4 2846     		mov	r0, r5
 4724              	.LVL214:
  74:../libs/PoliTeKDSP/libs/libDaisy/src/dev/mpr121.h ****                    config_.dev_addr, address, 1, data, size, 10);
 4725              		.loc 2 74 42 view .LVU875
ARM GAS  C:\Users\39351\AppData\Local\Temp\cccegpNG.s 			page 105


 4726              	.LBE1876:
 4727              	.LBE1881:
 4728              	.LBB1882:
 4729              	.LBB1869:
 4730              	.LBB1866:
 4731              		.loc 2 336 55 view .LVU876
 4732 08e6 84F83030 		strb	r3, [r4, #48]
 4733              	.LVL215:
 4734              		.loc 2 336 55 view .LVU877
 4735              	.LBE1866:
 4736              	.LBE1869:
 4737              	.LBE1882:
 4738              	.LBB1883:
 4739              	.LBI1873:
  71:../libs/PoliTeKDSP/libs/libDaisy/src/dev/mpr121.h ****     {
 4740              		.loc 2 71 10 is_stmt 1 view .LVU878
 4741              	.LBB1877:
  73:../libs/PoliTeKDSP/libs/libDaisy/src/dev/mpr121.h ****                != i2c_.WriteDataAtAddress(
 4742              		.loc 2 73 9 view .LVU879
  74:../libs/PoliTeKDSP/libs/libDaisy/src/dev/mpr121.h ****                    config_.dev_addr, address, 1, data, size, 10);
 4743              		.loc 2 74 42 is_stmt 0 view .LVU880
 4744 08ea 3B46     		mov	r3, r7
 4745 08ec FFF7FEFF 		bl	_ZN5daisy9I2CHandle18WriteDataAtAddressEtttPhtm
 4746              	.LVL216:
  74:../libs/PoliTeKDSP/libs/libDaisy/src/dev/mpr121.h ****                    config_.dev_addr, address, 1, data, size, 10);
 4747              		.loc 2 74 42 view .LVU881
 4748              	.LBE1877:
 4749              	.LBE1883:
 4750              	.LBB1884:
 4751              	.LBI1884:
 4752              		.loc 2 336 10 is_stmt 1 view .LVU882
 4753              	.LBE1884:
 4754              	.LBB1888:
 4755              	.LBB1889:
  74:../libs/PoliTeKDSP/libs/libDaisy/src/dev/mpr121.h ****                    config_.dev_addr, address, 1, data, size, 10);
 4756              		.loc 2 74 42 is_stmt 0 view .LVU883
 4757 08f0 CDF800B0 		str	fp, [sp]
 4758 08f4 5E22     		movs	r2, #94
 4759 08f6 CDE90178 		strd	r7, r8, [sp, #4]
 4760              	.LBE1889:
 4761              	.LBE1888:
 4762              	.LBB1893:
 4763              	.LBB1885:
 4764              		.loc 2 336 55 view .LVU884
 4765 08fa 94F83030 		ldrb	r3, [r4, #48]	@ zero_extendqisi2
 4766              	.LBE1885:
 4767              	.LBE1893:
 4768              	.LBB1894:
 4769              	.LBB1890:
  74:../libs/PoliTeKDSP/libs/libDaisy/src/dev/mpr121.h ****                    config_.dev_addr, address, 1, data, size, 10);
 4770              		.loc 2 74 42 view .LVU885
 4771 08fe 94F82C10 		ldrb	r1, [r4, #44]	@ zero_extendqisi2
 4772              	.LBE1890:
 4773              	.LBE1894:
 4774              	.LBB1895:
 4775              	.LBB1886:
 4776              		.loc 2 336 55 view .LVU886
ARM GAS  C:\Users\39351\AppData\Local\Temp\cccegpNG.s 			page 106


 4777 0902 5045     		cmp	r0, r10
 4778 0904 18BF     		it	ne
 4779 0906 43F00103 		orrne	r3, r3, #1
 4780              	.LBE1886:
 4781              	.LBE1895:
 4782              	.LBB1896:
 4783              	.LBB1891:
  74:../libs/PoliTeKDSP/libs/libDaisy/src/dev/mpr121.h ****                    config_.dev_addr, address, 1, data, size, 10);
 4784              		.loc 2 74 42 view .LVU887
 4785 090a 2846     		mov	r0, r5
 4786              	.LVL217:
  74:../libs/PoliTeKDSP/libs/libDaisy/src/dev/mpr121.h ****                    config_.dev_addr, address, 1, data, size, 10);
 4787              		.loc 2 74 42 view .LVU888
 4788              	.LBE1891:
 4789              	.LBE1896:
 4790              	.LBB1897:
 4791              	.LBB1887:
 4792              		.loc 2 336 55 view .LVU889
 4793 090c 84F83030 		strb	r3, [r4, #48]
 4794              	.LVL218:
 4795              		.loc 2 336 55 view .LVU890
 4796              	.LBE1887:
 4797              	.LBE1897:
 4798              	.LBB1898:
 4799              	.LBI1888:
  71:../libs/PoliTeKDSP/libs/libDaisy/src/dev/mpr121.h ****     {
 4800              		.loc 2 71 10 is_stmt 1 view .LVU891
 4801              	.LBB1892:
  73:../libs/PoliTeKDSP/libs/libDaisy/src/dev/mpr121.h ****                != i2c_.WriteDataAtAddress(
 4802              		.loc 2 73 9 view .LVU892
  74:../libs/PoliTeKDSP/libs/libDaisy/src/dev/mpr121.h ****                    config_.dev_addr, address, 1, data, size, 10);
 4803              		.loc 2 74 42 is_stmt 0 view .LVU893
 4804 0910 3B46     		mov	r3, r7
 4805 0912 FFF7FEFF 		bl	_ZN5daisy9I2CHandle18WriteDataAtAddressEtttPhtm
 4806              	.LVL219:
  74:../libs/PoliTeKDSP/libs/libDaisy/src/dev/mpr121.h ****                    config_.dev_addr, address, 1, data, size, 10);
 4807              		.loc 2 74 42 view .LVU894
 4808              	.LBE1892:
 4809              	.LBE1898:
 4810              	.LBB1899:
 4811              	.LBI1899:
 4812              		.loc 2 336 10 is_stmt 1 view .LVU895
 4813              	.LBE1899:
 4814              	.LBE1908:
 4815              	.LBE1917:
 4816              	.LBB1918:
 4817              	.LBB1919:
 4818              	.LBB1920:
 4819              	.LBB1921:
 4820              	.LBB1922:
 4821              	.LBB1923:
 4822              	.LBB1924:
  66:../libs/PoliTeKDSP/libs/libDaisy/src/dev/mpr121.h ****                    config_.dev_addr, address, 1, data, size, 10);
 4823              		.loc 2 66 41 is_stmt 0 view .LVU896
 4824 0916 0096     		str	r6, [sp]
 4825 0918 5E22     		movs	r2, #94
 4826 091a 8DF827A0 		strb	r10, [sp, #39]
ARM GAS  C:\Users\39351\AppData\Local\Temp\cccegpNG.s 			page 107


 4827 091e CDE90178 		strd	r7, r8, [sp, #4]
 4828              	.LBE1924:
 4829              	.LBE1923:
 4830              	.LBE1922:
 4831              	.LBE1921:
 4832              	.LBE1920:
 4833              	.LBE1919:
 4834              	.LBE1918:
 4835              	.LBB2009:
 4836              	.LBB1909:
 4837              	.LBB1903:
 4838              	.LBB1900:
 4839              		.loc 2 336 55 view .LVU897
 4840 0922 94F83030 		ldrb	r3, [r4, #48]	@ zero_extendqisi2
 4841              	.LBE1900:
 4842              	.LBE1903:
 4843              	.LBE1909:
 4844              	.LBE2009:
 4845              	.LBB2010:
 4846              	.LBB2003:
 4847              	.LBB1967:
 4848              	.LBB1944:
 4849              	.LBB1938:
 4850              	.LBB1928:
 4851              	.LBB1925:
  66:../libs/PoliTeKDSP/libs/libDaisy/src/dev/mpr121.h ****                    config_.dev_addr, address, 1, data, size, 10);
 4852              		.loc 2 66 41 view .LVU898
 4853 0926 94F82C10 		ldrb	r1, [r4, #44]	@ zero_extendqisi2
 4854              	.LBE1925:
 4855              	.LBE1928:
 4856              	.LBE1938:
 4857              	.LBE1944:
 4858              	.LBE1967:
 4859              	.LBE2003:
 4860              	.LBE2010:
 4861              	.LBB2011:
 4862              	.LBB1910:
 4863              	.LBB1904:
 4864              	.LBB1901:
 4865              		.loc 2 336 55 view .LVU899
 4866 092a 5045     		cmp	r0, r10
 4867 092c 18BF     		it	ne
 4868 092e 43F00103 		orrne	r3, r3, #1
 4869              	.LBE1901:
 4870              	.LBE1904:
 4871              	.LBE1910:
 4872              	.LBE2011:
 4873              	.LBB2012:
 4874              	.LBB2004:
 4875              	.LBB1968:
 4876              	.LBB1945:
 4877              	.LBB1939:
 4878              	.LBB1929:
 4879              	.LBB1926:
  66:../libs/PoliTeKDSP/libs/libDaisy/src/dev/mpr121.h ****                    config_.dev_addr, address, 1, data, size, 10);
 4880              		.loc 2 66 41 view .LVU900
 4881 0932 2846     		mov	r0, r5
ARM GAS  C:\Users\39351\AppData\Local\Temp\cccegpNG.s 			page 108


 4882              	.LVL220:
  66:../libs/PoliTeKDSP/libs/libDaisy/src/dev/mpr121.h ****                    config_.dev_addr, address, 1, data, size, 10);
 4883              		.loc 2 66 41 view .LVU901
 4884              	.LBE1926:
 4885              	.LBE1929:
 4886              	.LBE1939:
 4887              	.LBE1945:
 4888              	.LBE1968:
 4889              	.LBE2004:
 4890              	.LBE2012:
 4891              	.LBB2013:
 4892              	.LBB1911:
 4893              	.LBB1905:
 4894              	.LBB1902:
 4895              		.loc 2 336 55 view .LVU902
 4896 0934 84F83030 		strb	r3, [r4, #48]
 4897              	.LVL221:
 4898              		.loc 2 336 55 view .LVU903
 4899              	.LBE1902:
 4900              	.LBE1905:
 4901              	.LBE1911:
 4902              	.LBE2013:
 4903              	.LBB2014:
 4904              	.LBI1918:
 257:../libs/PoliTeKDSP/libs/libDaisy/src/dev/mpr121.h ****     {
 4905              		.loc 2 257 10 is_stmt 1 view .LVU904
 4906              	.LBB2005:
 4907              	.LBB1969:
 4908              	.LBB1946:
 4909              	.LBI1921:
 232:../libs/PoliTeKDSP/libs/libDaisy/src/dev/mpr121.h ****     {
 4910              		.loc 2 232 13 view .LVU905
 4911              	.LBB1940:
 4912              	.LBB1930:
 4913              	.LBI1923:
  63:../libs/PoliTeKDSP/libs/libDaisy/src/dev/mpr121.h ****     {
 4914              		.loc 2 63 10 view .LVU906
 4915              	.LBB1927:
  65:../libs/PoliTeKDSP/libs/libDaisy/src/dev/mpr121.h ****                != i2c_.ReadDataAtAddress(
 4916              		.loc 2 65 9 view .LVU907
  66:../libs/PoliTeKDSP/libs/libDaisy/src/dev/mpr121.h ****                    config_.dev_addr, address, 1, data, size, 10);
 4917              		.loc 2 66 41 is_stmt 0 view .LVU908
 4918 0938 3B46     		mov	r3, r7
 4919 093a FFF7FEFF 		bl	_ZN5daisy9I2CHandle17ReadDataAtAddressEtttPhtm
 4920              	.LVL222:
  66:../libs/PoliTeKDSP/libs/libDaisy/src/dev/mpr121.h ****                    config_.dev_addr, address, 1, data, size, 10);
 4921              		.loc 2 66 41 view .LVU909
 4922              	.LBE1927:
 4923              	.LBE1930:
 4924              	.LBB1931:
 4925              	.LBI1931:
 4926              		.loc 2 336 10 is_stmt 1 view .LVU910
 4927              	.LBE1931:
 4928              	.LBE1940:
 4929              	.LBE1946:
 4930              	.LBB1947:
 4931              	.LBB1948:
ARM GAS  C:\Users\39351\AppData\Local\Temp\cccegpNG.s 			page 109


  74:../libs/PoliTeKDSP/libs/libDaisy/src/dev/mpr121.h ****                    config_.dev_addr, address, 1, data, size, 10);
 4932              		.loc 2 74 42 is_stmt 0 view .LVU911
 4933 093e 0096     		str	r6, [sp]
 4934 0940 5E22     		movs	r2, #94
 4935 0942 CDE90178 		strd	r7, r8, [sp, #4]
 4936              	.LBE1948:
 4937              	.LBE1947:
 4938              	.LBB1953:
 4939              	.LBB1941:
 4940              	.LBB1935:
 4941              	.LBB1932:
 4942              		.loc 2 336 55 view .LVU912
 4943 0946 94F83030 		ldrb	r3, [r4, #48]	@ zero_extendqisi2
 4944              	.LBE1932:
 4945              	.LBE1935:
 4946              	.LBE1941:
 4947              	.LBE1953:
 4948              	.LBB1954:
 4949              	.LBB1949:
  74:../libs/PoliTeKDSP/libs/libDaisy/src/dev/mpr121.h ****                    config_.dev_addr, address, 1, data, size, 10);
 4950              		.loc 2 74 42 view .LVU913
 4951 094a 94F82C10 		ldrb	r1, [r4, #44]	@ zero_extendqisi2
 4952              	.LBE1949:
 4953              	.LBE1954:
 4954              	.LBB1955:
 4955              	.LBB1942:
 4956              	.LBB1936:
 4957              	.LBB1933:
 4958              		.loc 2 336 55 view .LVU914
 4959 094e 5045     		cmp	r0, r10
 4960 0950 18BF     		it	ne
 4961 0952 43F00103 		orrne	r3, r3, #1
 4962              	.LBE1933:
 4963              	.LBE1936:
 4964              	.LBE1942:
 4965              	.LBE1955:
 4966              	.LBB1956:
 4967              	.LBB1950:
  74:../libs/PoliTeKDSP/libs/libDaisy/src/dev/mpr121.h ****                    config_.dev_addr, address, 1, data, size, 10);
 4968              		.loc 2 74 42 view .LVU915
 4969 0956 2846     		mov	r0, r5
 4970              	.LVL223:
  74:../libs/PoliTeKDSP/libs/libDaisy/src/dev/mpr121.h ****                    config_.dev_addr, address, 1, data, size, 10);
 4971              		.loc 2 74 42 view .LVU916
 4972              	.LBE1950:
 4973              	.LBE1956:
 4974              	.LBB1957:
 4975              	.LBB1943:
 4976              	.LBB1937:
 4977              	.LBB1934:
 4978              		.loc 2 336 55 view .LVU917
 4979 0958 84F83030 		strb	r3, [r4, #48]
 4980              	.LVL224:
 4981              		.loc 2 336 55 view .LVU918
 4982              	.LBE1934:
 4983              	.LBE1937:
 237:../libs/PoliTeKDSP/libs/libDaisy/src/dev/mpr121.h ****     }
ARM GAS  C:\Users\39351\AppData\Local\Temp\cccegpNG.s 			page 110


 4984              		.loc 2 237 16 view .LVU919
 4985 095c 9DF83C30 		ldrb	r3, [sp, #60]	@ zero_extendqisi2
 4986              	.LVL225:
 237:../libs/PoliTeKDSP/libs/libDaisy/src/dev/mpr121.h ****     }
 4987              		.loc 2 237 16 view .LVU920
 4988              	.LBE1943:
 4989              	.LBE1957:
 271:../libs/PoliTeKDSP/libs/libDaisy/src/dev/mpr121.h ****             // clear this register to set stop mode
 4990              		.loc 2 271 21 view .LVU921
 4991 0960 8DF83CA0 		strb	r10, [sp, #60]
 4992              	.LVL226:
 4993              	.LBB1958:
 4994              	.LBI1947:
  71:../libs/PoliTeKDSP/libs/libDaisy/src/dev/mpr121.h ****     {
 4995              		.loc 2 71 10 is_stmt 1 view .LVU922
 4996              	.LBB1951:
  73:../libs/PoliTeKDSP/libs/libDaisy/src/dev/mpr121.h ****                != i2c_.WriteDataAtAddress(
 4997              		.loc 2 73 9 view .LVU923
 4998              	.LBE1951:
 4999              	.LBE1958:
 270:../libs/PoliTeKDSP/libs/libDaisy/src/dev/mpr121.h ****             uint8_t zero = 0x00;
 5000              		.loc 2 270 26 is_stmt 0 view .LVU924
 5001 0964 8DF82830 		strb	r3, [sp, #40]
 5002              	.LBB1959:
 5003              	.LBB1952:
  74:../libs/PoliTeKDSP/libs/libDaisy/src/dev/mpr121.h ****                    config_.dev_addr, address, 1, data, size, 10);
 5004              		.loc 2 74 42 view .LVU925
 5005 0968 3B46     		mov	r3, r7
 5006 096a FFF7FEFF 		bl	_ZN5daisy9I2CHandle18WriteDataAtAddressEtttPhtm
 5007              	.LVL227:
  74:../libs/PoliTeKDSP/libs/libDaisy/src/dev/mpr121.h ****                    config_.dev_addr, address, 1, data, size, 10);
 5008              		.loc 2 74 42 view .LVU926
 5009              	.LBE1952:
 5010              	.LBE1959:
 5011              	.LBB1960:
 5012              	.LBI1960:
 5013              		.loc 2 336 10 is_stmt 1 view .LVU927
 5014              	.LBE1960:
 5015              	.LBE1969:
 5016              	.LBB1970:
 5017              	.LBB1971:
  74:../libs/PoliTeKDSP/libs/libDaisy/src/dev/mpr121.h ****                    config_.dev_addr, address, 1, data, size, 10);
 5018              		.loc 2 74 42 is_stmt 0 view .LVU928
 5019 096e 0DF12703 		add	r3, sp, #39
 5020 0972 3422     		movs	r2, #52
 5021 0974 0093     		str	r3, [sp]
 5022 0976 CDE90178 		strd	r7, r8, [sp, #4]
 5023              	.LBE1971:
 5024              	.LBE1970:
 5025              	.LBB1975:
 5026              	.LBB1964:
 5027              	.LBB1961:
 5028              		.loc 2 336 55 view .LVU929
 5029 097a 94F83030 		ldrb	r3, [r4, #48]	@ zero_extendqisi2
 5030              	.LBE1961:
 5031              	.LBE1964:
 5032              	.LBE1975:
ARM GAS  C:\Users\39351\AppData\Local\Temp\cccegpNG.s 			page 111


 5033              	.LBB1976:
 5034              	.LBB1972:
  74:../libs/PoliTeKDSP/libs/libDaisy/src/dev/mpr121.h ****                    config_.dev_addr, address, 1, data, size, 10);
 5035              		.loc 2 74 42 view .LVU930
 5036 097e 94F82C10 		ldrb	r1, [r4, #44]	@ zero_extendqisi2
 5037              	.LBE1972:
 5038              	.LBE1976:
 5039              	.LBB1977:
 5040              	.LBB1965:
 5041              	.LBB1962:
 5042              		.loc 2 336 55 view .LVU931
 5043 0982 5045     		cmp	r0, r10
 5044 0984 18BF     		it	ne
 5045 0986 43F00103 		orrne	r3, r3, #1
 5046              	.LBE1962:
 5047              	.LBE1965:
 5048              	.LBE1977:
 5049              	.LBB1978:
 5050              	.LBB1973:
  74:../libs/PoliTeKDSP/libs/libDaisy/src/dev/mpr121.h ****                    config_.dev_addr, address, 1, data, size, 10);
 5051              		.loc 2 74 42 view .LVU932
 5052 098a 2846     		mov	r0, r5
 5053              	.LVL228:
  74:../libs/PoliTeKDSP/libs/libDaisy/src/dev/mpr121.h ****                    config_.dev_addr, address, 1, data, size, 10);
 5054              		.loc 2 74 42 view .LVU933
 5055              	.LBE1973:
 5056              	.LBE1978:
 5057              	.LBB1979:
 5058              	.LBB1966:
 5059              	.LBB1963:
 5060              		.loc 2 336 55 view .LVU934
 5061 098c 84F83030 		strb	r3, [r4, #48]
 5062              	.LVL229:
 5063              		.loc 2 336 55 view .LVU935
 5064              	.LBE1963:
 5065              	.LBE1966:
 5066              	.LBE1979:
 5067              	.LBB1980:
 5068              	.LBI1970:
  71:../libs/PoliTeKDSP/libs/libDaisy/src/dev/mpr121.h ****     {
 5069              		.loc 2 71 10 is_stmt 1 view .LVU936
 5070              	.LBB1974:
  73:../libs/PoliTeKDSP/libs/libDaisy/src/dev/mpr121.h ****                != i2c_.WriteDataAtAddress(
 5071              		.loc 2 73 9 view .LVU937
  74:../libs/PoliTeKDSP/libs/libDaisy/src/dev/mpr121.h ****                    config_.dev_addr, address, 1, data, size, 10);
 5072              		.loc 2 74 42 is_stmt 0 view .LVU938
 5073 0990 3B46     		mov	r3, r7
 5074 0992 FFF7FEFF 		bl	_ZN5daisy9I2CHandle18WriteDataAtAddressEtttPhtm
 5075              	.LVL230:
  74:../libs/PoliTeKDSP/libs/libDaisy/src/dev/mpr121.h ****                    config_.dev_addr, address, 1, data, size, 10);
 5076              		.loc 2 74 42 view .LVU939
 5077              	.LBE1974:
 5078              	.LBE1980:
 5079              	.LBB1981:
 5080              	.LBI1981:
 5081              		.loc 2 336 10 is_stmt 1 view .LVU940
 5082              	.LBE1981:
ARM GAS  C:\Users\39351\AppData\Local\Temp\cccegpNG.s 			page 112


 5083              	.LBB1985:
 5084              	.LBB1986:
  74:../libs/PoliTeKDSP/libs/libDaisy/src/dev/mpr121.h ****                    config_.dev_addr, address, 1, data, size, 10);
 5085              		.loc 2 74 42 is_stmt 0 view .LVU941
 5086 0996 CDF800B0 		str	fp, [sp]
 5087 099a 5E22     		movs	r2, #94
 5088 099c CDE90178 		strd	r7, r8, [sp, #4]
 5089              	.LBE1986:
 5090              	.LBE1985:
 5091              	.LBB1990:
 5092              	.LBB1982:
 5093              		.loc 2 336 55 view .LVU942
 5094 09a0 94F83030 		ldrb	r3, [r4, #48]	@ zero_extendqisi2
 5095              	.LBE1982:
 5096              	.LBE1990:
 5097              	.LBB1991:
 5098              	.LBB1987:
  74:../libs/PoliTeKDSP/libs/libDaisy/src/dev/mpr121.h ****                    config_.dev_addr, address, 1, data, size, 10);
 5099              		.loc 2 74 42 view .LVU943
 5100 09a4 94F82C10 		ldrb	r1, [r4, #44]	@ zero_extendqisi2
 5101              	.LBE1987:
 5102              	.LBE1991:
 5103              	.LBB1992:
 5104              	.LBB1983:
 5105              		.loc 2 336 55 view .LVU944
 5106 09a8 5045     		cmp	r0, r10
 5107 09aa 18BF     		it	ne
 5108 09ac 43F00103 		orrne	r3, r3, #1
 5109              	.LBE1983:
 5110              	.LBE1992:
 5111              	.LBB1993:
 5112              	.LBB1988:
  74:../libs/PoliTeKDSP/libs/libDaisy/src/dev/mpr121.h ****                    config_.dev_addr, address, 1, data, size, 10);
 5113              		.loc 2 74 42 view .LVU945
 5114 09b0 2846     		mov	r0, r5
 5115              	.LVL231:
  74:../libs/PoliTeKDSP/libs/libDaisy/src/dev/mpr121.h ****                    config_.dev_addr, address, 1, data, size, 10);
 5116              		.loc 2 74 42 view .LVU946
 5117              	.LBE1988:
 5118              	.LBE1993:
 5119              	.LBB1994:
 5120              	.LBB1984:
 5121              		.loc 2 336 55 view .LVU947
 5122 09b2 84F83030 		strb	r3, [r4, #48]
 5123              	.LVL232:
 5124              		.loc 2 336 55 view .LVU948
 5125              	.LBE1984:
 5126              	.LBE1994:
 5127              	.LBB1995:
 5128              	.LBI1985:
  71:../libs/PoliTeKDSP/libs/libDaisy/src/dev/mpr121.h ****     {
 5129              		.loc 2 71 10 is_stmt 1 view .LVU949
 5130              	.LBB1989:
  73:../libs/PoliTeKDSP/libs/libDaisy/src/dev/mpr121.h ****                != i2c_.WriteDataAtAddress(
 5131              		.loc 2 73 9 view .LVU950
  74:../libs/PoliTeKDSP/libs/libDaisy/src/dev/mpr121.h ****                    config_.dev_addr, address, 1, data, size, 10);
 5132              		.loc 2 74 42 is_stmt 0 view .LVU951
ARM GAS  C:\Users\39351\AppData\Local\Temp\cccegpNG.s 			page 113


 5133 09b6 3B46     		mov	r3, r7
 5134 09b8 FFF7FEFF 		bl	_ZN5daisy9I2CHandle18WriteDataAtAddressEtttPhtm
 5135              	.LVL233:
  74:../libs/PoliTeKDSP/libs/libDaisy/src/dev/mpr121.h ****                    config_.dev_addr, address, 1, data, size, 10);
 5136              		.loc 2 74 42 view .LVU952
 5137              	.LBE1989:
 5138              	.LBE1995:
 5139              	.LBB1996:
 5140              	.LBI1996:
 5141              		.loc 2 336 10 is_stmt 1 view .LVU953
 5142              	.LBE1996:
 5143              	.LBE2005:
 5144              	.LBE2014:
 5145              	.LBB2015:
 5146              	.LBB2016:
 5147              	.LBB2017:
 5148              	.LBB2018:
 5149              	.LBB2019:
 5150              	.LBB2020:
 5151              	.LBB2021:
  66:../libs/PoliTeKDSP/libs/libDaisy/src/dev/mpr121.h ****                    config_.dev_addr, address, 1, data, size, 10);
 5152              		.loc 2 66 41 is_stmt 0 view .LVU954
 5153 09bc 0096     		str	r6, [sp]
 5154 09be 5E22     		movs	r2, #94
 5155 09c0 8DF827A0 		strb	r10, [sp, #39]
 5156 09c4 CDE90178 		strd	r7, r8, [sp, #4]
 5157              	.LBE2021:
 5158              	.LBE2020:
 5159              	.LBE2019:
 5160              	.LBE2018:
 5161              	.LBE2017:
 5162              	.LBE2016:
 5163              	.LBE2015:
 5164              	.LBB2106:
 5165              	.LBB2006:
 5166              	.LBB2000:
 5167              	.LBB1997:
 5168              		.loc 2 336 55 view .LVU955
 5169 09c8 94F83030 		ldrb	r3, [r4, #48]	@ zero_extendqisi2
 5170              	.LBE1997:
 5171              	.LBE2000:
 5172              	.LBE2006:
 5173              	.LBE2106:
 5174              	.LBB2107:
 5175              	.LBB2100:
 5176              	.LBB2064:
 5177              	.LBB2041:
 5178              	.LBB2035:
 5179              	.LBB2025:
 5180              	.LBB2022:
  66:../libs/PoliTeKDSP/libs/libDaisy/src/dev/mpr121.h ****                    config_.dev_addr, address, 1, data, size, 10);
 5181              		.loc 2 66 41 view .LVU956
 5182 09cc 94F82C10 		ldrb	r1, [r4, #44]	@ zero_extendqisi2
 5183              	.LBE2022:
 5184              	.LBE2025:
 5185              	.LBE2035:
 5186              	.LBE2041:
ARM GAS  C:\Users\39351\AppData\Local\Temp\cccegpNG.s 			page 114


 5187              	.LBE2064:
 5188              	.LBE2100:
 5189              	.LBE2107:
 5190              	.LBB2108:
 5191              	.LBB2007:
 5192              	.LBB2001:
 5193              	.LBB1998:
 5194              		.loc 2 336 55 view .LVU957
 5195 09d0 5045     		cmp	r0, r10
 5196 09d2 18BF     		it	ne
 5197 09d4 43F00103 		orrne	r3, r3, #1
 5198              	.LBE1998:
 5199              	.LBE2001:
 5200              	.LBE2007:
 5201              	.LBE2108:
 5202              	.LBB2109:
 5203              	.LBB2101:
 5204              	.LBB2065:
 5205              	.LBB2042:
 5206              	.LBB2036:
 5207              	.LBB2026:
 5208              	.LBB2023:
  66:../libs/PoliTeKDSP/libs/libDaisy/src/dev/mpr121.h ****                    config_.dev_addr, address, 1, data, size, 10);
 5209              		.loc 2 66 41 view .LVU958
 5210 09d8 2846     		mov	r0, r5
 5211              	.LVL234:
  66:../libs/PoliTeKDSP/libs/libDaisy/src/dev/mpr121.h ****                    config_.dev_addr, address, 1, data, size, 10);
 5212              		.loc 2 66 41 view .LVU959
 5213              	.LBE2023:
 5214              	.LBE2026:
 5215              	.LBE2036:
 5216              	.LBE2042:
 5217              	.LBE2065:
 5218              	.LBE2101:
 5219              	.LBE2109:
 5220              	.LBB2110:
 5221              	.LBB2008:
 5222              	.LBB2002:
 5223              	.LBB1999:
 5224              		.loc 2 336 55 view .LVU960
 5225 09da 84F83030 		strb	r3, [r4, #48]
 5226              	.LVL235:
 5227              		.loc 2 336 55 view .LVU961
 5228              	.LBE1999:
 5229              	.LBE2002:
 5230              	.LBE2008:
 5231              	.LBE2110:
 5232              	.LBB2111:
 5233              	.LBI2015:
 257:../libs/PoliTeKDSP/libs/libDaisy/src/dev/mpr121.h ****     {
 5234              		.loc 2 257 10 is_stmt 1 view .LVU962
 5235              	.LBB2102:
 5236              	.LBB2066:
 5237              	.LBB2043:
 5238              	.LBI2018:
 232:../libs/PoliTeKDSP/libs/libDaisy/src/dev/mpr121.h ****     {
 5239              		.loc 2 232 13 view .LVU963
ARM GAS  C:\Users\39351\AppData\Local\Temp\cccegpNG.s 			page 115


 5240              	.LBB2037:
 5241              	.LBB2027:
 5242              	.LBI2020:
  63:../libs/PoliTeKDSP/libs/libDaisy/src/dev/mpr121.h ****     {
 5243              		.loc 2 63 10 view .LVU964
 5244              	.LBB2024:
  65:../libs/PoliTeKDSP/libs/libDaisy/src/dev/mpr121.h ****                != i2c_.ReadDataAtAddress(
 5245              		.loc 2 65 9 view .LVU965
  66:../libs/PoliTeKDSP/libs/libDaisy/src/dev/mpr121.h ****                    config_.dev_addr, address, 1, data, size, 10);
 5246              		.loc 2 66 41 is_stmt 0 view .LVU966
 5247 09de 3B46     		mov	r3, r7
 5248 09e0 FFF7FEFF 		bl	_ZN5daisy9I2CHandle17ReadDataAtAddressEtttPhtm
 5249              	.LVL236:
  66:../libs/PoliTeKDSP/libs/libDaisy/src/dev/mpr121.h ****                    config_.dev_addr, address, 1, data, size, 10);
 5250              		.loc 2 66 41 view .LVU967
 5251              	.LBE2024:
 5252              	.LBE2027:
 5253              	.LBB2028:
 5254              	.LBI2028:
 5255              		.loc 2 336 10 is_stmt 1 view .LVU968
 5256              	.LBE2028:
 5257              	.LBE2037:
 5258              	.LBE2043:
 5259              	.LBB2044:
 5260              	.LBB2045:
  74:../libs/PoliTeKDSP/libs/libDaisy/src/dev/mpr121.h ****                    config_.dev_addr, address, 1, data, size, 10);
 5261              		.loc 2 74 42 is_stmt 0 view .LVU969
 5262 09e4 0096     		str	r6, [sp]
 5263 09e6 5E22     		movs	r2, #94
 5264 09e8 CDE90178 		strd	r7, r8, [sp, #4]
 5265              	.LBE2045:
 5266              	.LBE2044:
 5267              	.LBB2050:
 5268              	.LBB2038:
 5269              	.LBB2032:
 5270              	.LBB2029:
 5271              		.loc 2 336 55 view .LVU970
 5272 09ec 94F83030 		ldrb	r3, [r4, #48]	@ zero_extendqisi2
 5273              	.LBE2029:
 5274              	.LBE2032:
 5275              	.LBE2038:
 5276              	.LBE2050:
 5277              	.LBB2051:
 5278              	.LBB2046:
  74:../libs/PoliTeKDSP/libs/libDaisy/src/dev/mpr121.h ****                    config_.dev_addr, address, 1, data, size, 10);
 5279              		.loc 2 74 42 view .LVU971
 5280 09f0 94F82C10 		ldrb	r1, [r4, #44]	@ zero_extendqisi2
 5281              	.LBE2046:
 5282              	.LBE2051:
 5283              	.LBB2052:
 5284              	.LBB2039:
 5285              	.LBB2033:
 5286              	.LBB2030:
 5287              		.loc 2 336 55 view .LVU972
 5288 09f4 5045     		cmp	r0, r10
 5289 09f6 18BF     		it	ne
 5290 09f8 43F00103 		orrne	r3, r3, #1
ARM GAS  C:\Users\39351\AppData\Local\Temp\cccegpNG.s 			page 116


 5291              	.LBE2030:
 5292              	.LBE2033:
 5293              	.LBE2039:
 5294              	.LBE2052:
 5295              	.LBB2053:
 5296              	.LBB2047:
  74:../libs/PoliTeKDSP/libs/libDaisy/src/dev/mpr121.h ****                    config_.dev_addr, address, 1, data, size, 10);
 5297              		.loc 2 74 42 view .LVU973
 5298 09fc 2846     		mov	r0, r5
 5299              	.LVL237:
  74:../libs/PoliTeKDSP/libs/libDaisy/src/dev/mpr121.h ****                    config_.dev_addr, address, 1, data, size, 10);
 5300              		.loc 2 74 42 view .LVU974
 5301              	.LBE2047:
 5302              	.LBE2053:
 5303              	.LBB2054:
 5304              	.LBB2040:
 5305              	.LBB2034:
 5306              	.LBB2031:
 5307              		.loc 2 336 55 view .LVU975
 5308 09fe 84F83030 		strb	r3, [r4, #48]
 5309              	.LVL238:
 5310              		.loc 2 336 55 view .LVU976
 5311              	.LBE2031:
 5312              	.LBE2034:
 237:../libs/PoliTeKDSP/libs/libDaisy/src/dev/mpr121.h ****     }
 5313              		.loc 2 237 16 view .LVU977
 5314 0a02 9DF83C30 		ldrb	r3, [sp, #60]	@ zero_extendqisi2
 5315              	.LVL239:
 237:../libs/PoliTeKDSP/libs/libDaisy/src/dev/mpr121.h ****     }
 5316              		.loc 2 237 16 view .LVU978
 5317              	.LBE2040:
 5318              	.LBE2054:
 271:../libs/PoliTeKDSP/libs/libDaisy/src/dev/mpr121.h ****             // clear this register to set stop mode
 5319              		.loc 2 271 21 view .LVU979
 5320 0a06 8DF83CA0 		strb	r10, [sp, #60]
 5321              	.LVL240:
 5322              	.LBB2055:
 5323              	.LBI2044:
  71:../libs/PoliTeKDSP/libs/libDaisy/src/dev/mpr121.h ****     {
 5324              		.loc 2 71 10 is_stmt 1 view .LVU980
 5325              	.LBB2048:
  73:../libs/PoliTeKDSP/libs/libDaisy/src/dev/mpr121.h ****                != i2c_.WriteDataAtAddress(
 5326              		.loc 2 73 9 view .LVU981
 5327              	.LBE2048:
 5328              	.LBE2055:
 270:../libs/PoliTeKDSP/libs/libDaisy/src/dev/mpr121.h ****             uint8_t zero = 0x00;
 5329              		.loc 2 270 26 is_stmt 0 view .LVU982
 5330 0a0a 8DF82830 		strb	r3, [sp, #40]
 5331              	.LBB2056:
 5332              	.LBB2049:
  74:../libs/PoliTeKDSP/libs/libDaisy/src/dev/mpr121.h ****                    config_.dev_addr, address, 1, data, size, 10);
 5333              		.loc 2 74 42 view .LVU983
 5334 0a0e 3B46     		mov	r3, r7
 5335 0a10 FFF7FEFF 		bl	_ZN5daisy9I2CHandle18WriteDataAtAddressEtttPhtm
 5336              	.LVL241:
  74:../libs/PoliTeKDSP/libs/libDaisy/src/dev/mpr121.h ****                    config_.dev_addr, address, 1, data, size, 10);
 5337              		.loc 2 74 42 view .LVU984
ARM GAS  C:\Users\39351\AppData\Local\Temp\cccegpNG.s 			page 117


 5338              	.LBE2049:
 5339              	.LBE2056:
 5340              	.LBB2057:
 5341              	.LBI2057:
 5342              		.loc 2 336 10 is_stmt 1 view .LVU985
 5343              	.LBE2057:
 5344              	.LBE2066:
 5345              	.LBB2067:
 5346              	.LBB2068:
  74:../libs/PoliTeKDSP/libs/libDaisy/src/dev/mpr121.h ****                    config_.dev_addr, address, 1, data, size, 10);
 5347              		.loc 2 74 42 is_stmt 0 view .LVU986
 5348 0a14 0DF12703 		add	r3, sp, #39
 5349 0a18 3522     		movs	r2, #53
 5350 0a1a 0093     		str	r3, [sp]
 5351 0a1c CDE90178 		strd	r7, r8, [sp, #4]
 5352              	.LBE2068:
 5353              	.LBE2067:
 5354              	.LBB2072:
 5355              	.LBB2061:
 5356              	.LBB2058:
 5357              		.loc 2 336 55 view .LVU987
 5358 0a20 94F83030 		ldrb	r3, [r4, #48]	@ zero_extendqisi2
 5359              	.LBE2058:
 5360              	.LBE2061:
 5361              	.LBE2072:
 5362              	.LBB2073:
 5363              	.LBB2069:
  74:../libs/PoliTeKDSP/libs/libDaisy/src/dev/mpr121.h ****                    config_.dev_addr, address, 1, data, size, 10);
 5364              		.loc 2 74 42 view .LVU988
 5365 0a24 94F82C10 		ldrb	r1, [r4, #44]	@ zero_extendqisi2
 5366              	.LBE2069:
 5367              	.LBE2073:
 5368              	.LBB2074:
 5369              	.LBB2062:
 5370              	.LBB2059:
 5371              		.loc 2 336 55 view .LVU989
 5372 0a28 5045     		cmp	r0, r10
 5373 0a2a 18BF     		it	ne
 5374 0a2c 43F00103 		orrne	r3, r3, #1
 5375              	.LBE2059:
 5376              	.LBE2062:
 5377              	.LBE2074:
 5378              	.LBB2075:
 5379              	.LBB2070:
  74:../libs/PoliTeKDSP/libs/libDaisy/src/dev/mpr121.h ****                    config_.dev_addr, address, 1, data, size, 10);
 5380              		.loc 2 74 42 view .LVU990
 5381 0a30 2846     		mov	r0, r5
 5382              	.LVL242:
  74:../libs/PoliTeKDSP/libs/libDaisy/src/dev/mpr121.h ****                    config_.dev_addr, address, 1, data, size, 10);
 5383              		.loc 2 74 42 view .LVU991
 5384              	.LBE2070:
 5385              	.LBE2075:
 5386              	.LBB2076:
 5387              	.LBB2063:
 5388              	.LBB2060:
 5389              		.loc 2 336 55 view .LVU992
 5390 0a32 84F83030 		strb	r3, [r4, #48]
ARM GAS  C:\Users\39351\AppData\Local\Temp\cccegpNG.s 			page 118


 5391              	.LVL243:
 5392              		.loc 2 336 55 view .LVU993
 5393              	.LBE2060:
 5394              	.LBE2063:
 5395              	.LBE2076:
 5396              	.LBB2077:
 5397              	.LBI2067:
  71:../libs/PoliTeKDSP/libs/libDaisy/src/dev/mpr121.h ****     {
 5398              		.loc 2 71 10 is_stmt 1 view .LVU994
 5399              	.LBB2071:
  73:../libs/PoliTeKDSP/libs/libDaisy/src/dev/mpr121.h ****                != i2c_.WriteDataAtAddress(
 5400              		.loc 2 73 9 view .LVU995
  74:../libs/PoliTeKDSP/libs/libDaisy/src/dev/mpr121.h ****                    config_.dev_addr, address, 1, data, size, 10);
 5401              		.loc 2 74 42 is_stmt 0 view .LVU996
 5402 0a36 3B46     		mov	r3, r7
 5403 0a38 FFF7FEFF 		bl	_ZN5daisy9I2CHandle18WriteDataAtAddressEtttPhtm
 5404              	.LVL244:
  74:../libs/PoliTeKDSP/libs/libDaisy/src/dev/mpr121.h ****                    config_.dev_addr, address, 1, data, size, 10);
 5405              		.loc 2 74 42 view .LVU997
 5406              	.LBE2071:
 5407              	.LBE2077:
 5408              	.LBB2078:
 5409              	.LBI2078:
 5410              		.loc 2 336 10 is_stmt 1 view .LVU998
 5411              	.LBE2078:
 5412              	.LBB2082:
 5413              	.LBB2083:
  74:../libs/PoliTeKDSP/libs/libDaisy/src/dev/mpr121.h ****                    config_.dev_addr, address, 1, data, size, 10);
 5414              		.loc 2 74 42 is_stmt 0 view .LVU999
 5415 0a3c CDF800B0 		str	fp, [sp]
 5416 0a40 5E22     		movs	r2, #94
 5417 0a42 CDE90178 		strd	r7, r8, [sp, #4]
 5418              	.LBE2083:
 5419              	.LBE2082:
 5420              	.LBB2087:
 5421              	.LBB2079:
 5422              		.loc 2 336 55 view .LVU1000
 5423 0a46 94F83030 		ldrb	r3, [r4, #48]	@ zero_extendqisi2
 5424              	.LBE2079:
 5425              	.LBE2087:
 5426              	.LBB2088:
 5427              	.LBB2084:
  74:../libs/PoliTeKDSP/libs/libDaisy/src/dev/mpr121.h ****                    config_.dev_addr, address, 1, data, size, 10);
 5428              		.loc 2 74 42 view .LVU1001
 5429 0a4a 94F82C10 		ldrb	r1, [r4, #44]	@ zero_extendqisi2
 5430              	.LBE2084:
 5431              	.LBE2088:
 5432              	.LBB2089:
 5433              	.LBB2080:
 5434              		.loc 2 336 55 view .LVU1002
 5435 0a4e 5045     		cmp	r0, r10
 5436 0a50 18BF     		it	ne
 5437 0a52 43F00103 		orrne	r3, r3, #1
 5438              	.LBE2080:
 5439              	.LBE2089:
 5440              	.LBB2090:
 5441              	.LBB2085:
ARM GAS  C:\Users\39351\AppData\Local\Temp\cccegpNG.s 			page 119


  74:../libs/PoliTeKDSP/libs/libDaisy/src/dev/mpr121.h ****                    config_.dev_addr, address, 1, data, size, 10);
 5442              		.loc 2 74 42 view .LVU1003
 5443 0a56 2846     		mov	r0, r5
 5444              	.LVL245:
  74:../libs/PoliTeKDSP/libs/libDaisy/src/dev/mpr121.h ****                    config_.dev_addr, address, 1, data, size, 10);
 5445              		.loc 2 74 42 view .LVU1004
 5446              	.LBE2085:
 5447              	.LBE2090:
 5448              	.LBB2091:
 5449              	.LBB2081:
 5450              		.loc 2 336 55 view .LVU1005
 5451 0a58 84F83030 		strb	r3, [r4, #48]
 5452              	.LVL246:
 5453              		.loc 2 336 55 view .LVU1006
 5454              	.LBE2081:
 5455              	.LBE2091:
 5456              	.LBB2092:
 5457              	.LBI2082:
  71:../libs/PoliTeKDSP/libs/libDaisy/src/dev/mpr121.h ****     {
 5458              		.loc 2 71 10 is_stmt 1 view .LVU1007
 5459              	.LBB2086:
  73:../libs/PoliTeKDSP/libs/libDaisy/src/dev/mpr121.h ****                != i2c_.WriteDataAtAddress(
 5460              		.loc 2 73 9 view .LVU1008
  74:../libs/PoliTeKDSP/libs/libDaisy/src/dev/mpr121.h ****                    config_.dev_addr, address, 1, data, size, 10);
 5461              		.loc 2 74 42 is_stmt 0 view .LVU1009
 5462 0a5c 3B46     		mov	r3, r7
 5463 0a5e FFF7FEFF 		bl	_ZN5daisy9I2CHandle18WriteDataAtAddressEtttPhtm
 5464              	.LVL247:
  74:../libs/PoliTeKDSP/libs/libDaisy/src/dev/mpr121.h ****                    config_.dev_addr, address, 1, data, size, 10);
 5465              		.loc 2 74 42 view .LVU1010
 5466              	.LBE2086:
 5467              	.LBE2092:
 5468              	.LBB2093:
 5469              	.LBI2093:
 5470              		.loc 2 336 10 is_stmt 1 view .LVU1011
 5471              	.LBE2093:
 5472              	.LBE2102:
 5473              	.LBE2111:
 5474              	.LBB2112:
 5475              	.LBB2113:
 5476              	.LBB2114:
 5477              	.LBB2115:
 5478              	.LBB2116:
 5479              	.LBB2117:
 5480              	.LBB2118:
  66:../libs/PoliTeKDSP/libs/libDaisy/src/dev/mpr121.h ****                    config_.dev_addr, address, 1, data, size, 10);
 5481              		.loc 2 66 41 is_stmt 0 view .LVU1012
 5482 0a62 0096     		str	r6, [sp]
 5483 0a64 5E22     		movs	r2, #94
 5484 0a66 8DF827A0 		strb	r10, [sp, #39]
 5485 0a6a CDE90178 		strd	r7, r8, [sp, #4]
 5486              	.LBE2118:
 5487              	.LBE2117:
 5488              	.LBE2116:
 5489              	.LBE2115:
 5490              	.LBE2114:
 5491              	.LBE2113:
ARM GAS  C:\Users\39351\AppData\Local\Temp\cccegpNG.s 			page 120


 5492              	.LBE2112:
 5493              	.LBB2203:
 5494              	.LBB2103:
 5495              	.LBB2097:
 5496              	.LBB2094:
 5497              		.loc 2 336 55 view .LVU1013
 5498 0a6e 94F83030 		ldrb	r3, [r4, #48]	@ zero_extendqisi2
 5499              	.LBE2094:
 5500              	.LBE2097:
 5501              	.LBE2103:
 5502              	.LBE2203:
 5503              	.LBB2204:
 5504              	.LBB2197:
 5505              	.LBB2161:
 5506              	.LBB2138:
 5507              	.LBB2132:
 5508              	.LBB2122:
 5509              	.LBB2119:
  66:../libs/PoliTeKDSP/libs/libDaisy/src/dev/mpr121.h ****                    config_.dev_addr, address, 1, data, size, 10);
 5510              		.loc 2 66 41 view .LVU1014
 5511 0a72 94F82C10 		ldrb	r1, [r4, #44]	@ zero_extendqisi2
 5512              	.LBE2119:
 5513              	.LBE2122:
 5514              	.LBE2132:
 5515              	.LBE2138:
 5516              	.LBE2161:
 5517              	.LBE2197:
 5518              	.LBE2204:
 5519              	.LBB2205:
 5520              	.LBB2104:
 5521              	.LBB2098:
 5522              	.LBB2095:
 5523              		.loc 2 336 55 view .LVU1015
 5524 0a76 5045     		cmp	r0, r10
 5525 0a78 18BF     		it	ne
 5526 0a7a 43F00103 		orrne	r3, r3, #1
 5527              	.LBE2095:
 5528              	.LBE2098:
 5529              	.LBE2104:
 5530              	.LBE2205:
 5531              	.LBB2206:
 5532              	.LBB2198:
 5533              	.LBB2162:
 5534              	.LBB2139:
 5535              	.LBB2133:
 5536              	.LBB2123:
 5537              	.LBB2120:
  66:../libs/PoliTeKDSP/libs/libDaisy/src/dev/mpr121.h ****                    config_.dev_addr, address, 1, data, size, 10);
 5538              		.loc 2 66 41 view .LVU1016
 5539 0a7e 2846     		mov	r0, r5
 5540              	.LVL248:
  66:../libs/PoliTeKDSP/libs/libDaisy/src/dev/mpr121.h ****                    config_.dev_addr, address, 1, data, size, 10);
 5541              		.loc 2 66 41 view .LVU1017
 5542              	.LBE2120:
 5543              	.LBE2123:
 5544              	.LBE2133:
 5545              	.LBE2139:
ARM GAS  C:\Users\39351\AppData\Local\Temp\cccegpNG.s 			page 121


 5546              	.LBE2162:
 5547              	.LBE2198:
 5548              	.LBE2206:
 5549              	.LBB2207:
 5550              	.LBB2105:
 5551              	.LBB2099:
 5552              	.LBB2096:
 5553              		.loc 2 336 55 view .LVU1018
 5554 0a80 84F83030 		strb	r3, [r4, #48]
 5555              	.LVL249:
 5556              		.loc 2 336 55 view .LVU1019
 5557              	.LBE2096:
 5558              	.LBE2099:
 5559              	.LBE2105:
 5560              	.LBE2207:
 5561              	.LBB2208:
 5562              	.LBI2112:
 257:../libs/PoliTeKDSP/libs/libDaisy/src/dev/mpr121.h ****     {
 5563              		.loc 2 257 10 is_stmt 1 view .LVU1020
 5564              	.LBB2199:
 5565              	.LBB2163:
 5566              	.LBB2140:
 5567              	.LBI2115:
 232:../libs/PoliTeKDSP/libs/libDaisy/src/dev/mpr121.h ****     {
 5568              		.loc 2 232 13 view .LVU1021
 5569              	.LBB2134:
 5570              	.LBB2124:
 5571              	.LBI2117:
  63:../libs/PoliTeKDSP/libs/libDaisy/src/dev/mpr121.h ****     {
 5572              		.loc 2 63 10 view .LVU1022
 5573              	.LBB2121:
  65:../libs/PoliTeKDSP/libs/libDaisy/src/dev/mpr121.h ****                != i2c_.ReadDataAtAddress(
 5574              		.loc 2 65 9 view .LVU1023
  66:../libs/PoliTeKDSP/libs/libDaisy/src/dev/mpr121.h ****                    config_.dev_addr, address, 1, data, size, 10);
 5575              		.loc 2 66 41 is_stmt 0 view .LVU1024
 5576 0a84 3B46     		mov	r3, r7
 5577 0a86 FFF7FEFF 		bl	_ZN5daisy9I2CHandle17ReadDataAtAddressEtttPhtm
 5578              	.LVL250:
  66:../libs/PoliTeKDSP/libs/libDaisy/src/dev/mpr121.h ****                    config_.dev_addr, address, 1, data, size, 10);
 5579              		.loc 2 66 41 view .LVU1025
 5580              	.LBE2121:
 5581              	.LBE2124:
 5582              	.LBB2125:
 5583              	.LBI2125:
 5584              		.loc 2 336 10 is_stmt 1 view .LVU1026
 5585              	.LBE2125:
 5586              	.LBE2134:
 5587              	.LBE2140:
 5588              	.LBB2141:
 5589              	.LBB2142:
  74:../libs/PoliTeKDSP/libs/libDaisy/src/dev/mpr121.h ****                    config_.dev_addr, address, 1, data, size, 10);
 5590              		.loc 2 74 42 is_stmt 0 view .LVU1027
 5591 0a8a 0096     		str	r6, [sp]
 5592 0a8c 5E22     		movs	r2, #94
 5593 0a8e CDE90178 		strd	r7, r8, [sp, #4]
 5594              	.LBE2142:
 5595              	.LBE2141:
ARM GAS  C:\Users\39351\AppData\Local\Temp\cccegpNG.s 			page 122


 5596              	.LBB2147:
 5597              	.LBB2135:
 5598              	.LBB2129:
 5599              	.LBB2126:
 5600              		.loc 2 336 55 view .LVU1028
 5601 0a92 94F83030 		ldrb	r3, [r4, #48]	@ zero_extendqisi2
 5602              	.LBE2126:
 5603              	.LBE2129:
 5604              	.LBE2135:
 5605              	.LBE2147:
 5606              	.LBB2148:
 5607              	.LBB2143:
  74:../libs/PoliTeKDSP/libs/libDaisy/src/dev/mpr121.h ****                    config_.dev_addr, address, 1, data, size, 10);
 5608              		.loc 2 74 42 view .LVU1029
 5609 0a96 94F82C10 		ldrb	r1, [r4, #44]	@ zero_extendqisi2
 5610              	.LBE2143:
 5611              	.LBE2148:
 5612              	.LBB2149:
 5613              	.LBB2136:
 5614              	.LBB2130:
 5615              	.LBB2127:
 5616              		.loc 2 336 55 view .LVU1030
 5617 0a9a 5045     		cmp	r0, r10
 5618 0a9c 18BF     		it	ne
 5619 0a9e 43F00103 		orrne	r3, r3, #1
 5620              	.LBE2127:
 5621              	.LBE2130:
 5622              	.LBE2136:
 5623              	.LBE2149:
 5624              	.LBB2150:
 5625              	.LBB2144:
  74:../libs/PoliTeKDSP/libs/libDaisy/src/dev/mpr121.h ****                    config_.dev_addr, address, 1, data, size, 10);
 5626              		.loc 2 74 42 view .LVU1031
 5627 0aa2 2846     		mov	r0, r5
 5628              	.LVL251:
  74:../libs/PoliTeKDSP/libs/libDaisy/src/dev/mpr121.h ****                    config_.dev_addr, address, 1, data, size, 10);
 5629              		.loc 2 74 42 view .LVU1032
 5630              	.LBE2144:
 5631              	.LBE2150:
 5632              	.LBB2151:
 5633              	.LBB2137:
 5634              	.LBB2131:
 5635              	.LBB2128:
 5636              		.loc 2 336 55 view .LVU1033
 5637 0aa4 84F83030 		strb	r3, [r4, #48]
 5638              	.LVL252:
 5639              		.loc 2 336 55 view .LVU1034
 5640              	.LBE2128:
 5641              	.LBE2131:
 237:../libs/PoliTeKDSP/libs/libDaisy/src/dev/mpr121.h ****     }
 5642              		.loc 2 237 16 view .LVU1035
 5643 0aa8 9DF83C30 		ldrb	r3, [sp, #60]	@ zero_extendqisi2
 5644              	.LVL253:
 237:../libs/PoliTeKDSP/libs/libDaisy/src/dev/mpr121.h ****     }
 5645              		.loc 2 237 16 view .LVU1036
 5646              	.LBE2137:
 5647              	.LBE2151:
ARM GAS  C:\Users\39351\AppData\Local\Temp\cccegpNG.s 			page 123


 271:../libs/PoliTeKDSP/libs/libDaisy/src/dev/mpr121.h ****             // clear this register to set stop mode
 5648              		.loc 2 271 21 view .LVU1037
 5649 0aac 8DF83CA0 		strb	r10, [sp, #60]
 5650              	.LVL254:
 5651              	.LBB2152:
 5652              	.LBI2141:
  71:../libs/PoliTeKDSP/libs/libDaisy/src/dev/mpr121.h ****     {
 5653              		.loc 2 71 10 is_stmt 1 view .LVU1038
 5654              	.LBB2145:
  73:../libs/PoliTeKDSP/libs/libDaisy/src/dev/mpr121.h ****                != i2c_.WriteDataAtAddress(
 5655              		.loc 2 73 9 view .LVU1039
 5656              	.LBE2145:
 5657              	.LBE2152:
 270:../libs/PoliTeKDSP/libs/libDaisy/src/dev/mpr121.h ****             uint8_t zero = 0x00;
 5658              		.loc 2 270 26 is_stmt 0 view .LVU1040
 5659 0ab0 8DF82830 		strb	r3, [sp, #40]
 5660              	.LBB2153:
 5661              	.LBB2146:
  74:../libs/PoliTeKDSP/libs/libDaisy/src/dev/mpr121.h ****                    config_.dev_addr, address, 1, data, size, 10);
 5662              		.loc 2 74 42 view .LVU1041
 5663 0ab4 3B46     		mov	r3, r7
 5664 0ab6 FFF7FEFF 		bl	_ZN5daisy9I2CHandle18WriteDataAtAddressEtttPhtm
 5665              	.LVL255:
  74:../libs/PoliTeKDSP/libs/libDaisy/src/dev/mpr121.h ****                    config_.dev_addr, address, 1, data, size, 10);
 5666              		.loc 2 74 42 view .LVU1042
 5667              	.LBE2146:
 5668              	.LBE2153:
 5669              	.LBB2154:
 5670              	.LBI2154:
 5671              		.loc 2 336 10 is_stmt 1 view .LVU1043
 5672              	.LBE2154:
 5673              	.LBE2163:
 5674              	.LBB2164:
 5675              	.LBB2165:
  74:../libs/PoliTeKDSP/libs/libDaisy/src/dev/mpr121.h ****                    config_.dev_addr, address, 1, data, size, 10);
 5676              		.loc 2 74 42 is_stmt 0 view .LVU1044
 5677 0aba 0DF12703 		add	r3, sp, #39
 5678 0abe 5B22     		movs	r2, #91
 5679 0ac0 0093     		str	r3, [sp]
 5680 0ac2 CDE90178 		strd	r7, r8, [sp, #4]
 5681              	.LBE2165:
 5682              	.LBE2164:
 5683              	.LBB2169:
 5684              	.LBB2158:
 5685              	.LBB2155:
 5686              		.loc 2 336 55 view .LVU1045
 5687 0ac6 94F83030 		ldrb	r3, [r4, #48]	@ zero_extendqisi2
 5688              	.LBE2155:
 5689              	.LBE2158:
 5690              	.LBE2169:
 5691              	.LBB2170:
 5692              	.LBB2166:
  74:../libs/PoliTeKDSP/libs/libDaisy/src/dev/mpr121.h ****                    config_.dev_addr, address, 1, data, size, 10);
 5693              		.loc 2 74 42 view .LVU1046
 5694 0aca 94F82C10 		ldrb	r1, [r4, #44]	@ zero_extendqisi2
 5695              	.LBE2166:
 5696              	.LBE2170:
ARM GAS  C:\Users\39351\AppData\Local\Temp\cccegpNG.s 			page 124


 5697              	.LBB2171:
 5698              	.LBB2159:
 5699              	.LBB2156:
 5700              		.loc 2 336 55 view .LVU1047
 5701 0ace 5045     		cmp	r0, r10
 5702 0ad0 18BF     		it	ne
 5703 0ad2 43F00103 		orrne	r3, r3, #1
 5704              	.LBE2156:
 5705              	.LBE2159:
 5706              	.LBE2171:
 5707              	.LBB2172:
 5708              	.LBB2167:
  74:../libs/PoliTeKDSP/libs/libDaisy/src/dev/mpr121.h ****                    config_.dev_addr, address, 1, data, size, 10);
 5709              		.loc 2 74 42 view .LVU1048
 5710 0ad6 2846     		mov	r0, r5
 5711              	.LVL256:
  74:../libs/PoliTeKDSP/libs/libDaisy/src/dev/mpr121.h ****                    config_.dev_addr, address, 1, data, size, 10);
 5712              		.loc 2 74 42 view .LVU1049
 5713              	.LBE2167:
 5714              	.LBE2172:
 5715              	.LBB2173:
 5716              	.LBB2160:
 5717              	.LBB2157:
 5718              		.loc 2 336 55 view .LVU1050
 5719 0ad8 84F83030 		strb	r3, [r4, #48]
 5720              	.LVL257:
 5721              		.loc 2 336 55 view .LVU1051
 5722              	.LBE2157:
 5723              	.LBE2160:
 5724              	.LBE2173:
 5725              	.LBB2174:
 5726              	.LBI2164:
  71:../libs/PoliTeKDSP/libs/libDaisy/src/dev/mpr121.h ****     {
 5727              		.loc 2 71 10 is_stmt 1 view .LVU1052
 5728              	.LBB2168:
  73:../libs/PoliTeKDSP/libs/libDaisy/src/dev/mpr121.h ****                != i2c_.WriteDataAtAddress(
 5729              		.loc 2 73 9 view .LVU1053
  74:../libs/PoliTeKDSP/libs/libDaisy/src/dev/mpr121.h ****                    config_.dev_addr, address, 1, data, size, 10);
 5730              		.loc 2 74 42 is_stmt 0 view .LVU1054
 5731 0adc 3B46     		mov	r3, r7
 5732 0ade FFF7FEFF 		bl	_ZN5daisy9I2CHandle18WriteDataAtAddressEtttPhtm
 5733              	.LVL258:
  74:../libs/PoliTeKDSP/libs/libDaisy/src/dev/mpr121.h ****                    config_.dev_addr, address, 1, data, size, 10);
 5734              		.loc 2 74 42 view .LVU1055
 5735              	.LBE2168:
 5736              	.LBE2174:
 5737              	.LBB2175:
 5738              	.LBI2175:
 5739              		.loc 2 336 10 is_stmt 1 view .LVU1056
 5740              	.LBE2175:
 5741              	.LBB2179:
 5742              	.LBB2180:
  74:../libs/PoliTeKDSP/libs/libDaisy/src/dev/mpr121.h ****                    config_.dev_addr, address, 1, data, size, 10);
 5743              		.loc 2 74 42 is_stmt 0 view .LVU1057
 5744 0ae2 CDF800B0 		str	fp, [sp]
 5745 0ae6 5E22     		movs	r2, #94
 5746 0ae8 CDE90178 		strd	r7, r8, [sp, #4]
ARM GAS  C:\Users\39351\AppData\Local\Temp\cccegpNG.s 			page 125


 5747              	.LBE2180:
 5748              	.LBE2179:
 5749              	.LBB2184:
 5750              	.LBB2176:
 5751              		.loc 2 336 55 view .LVU1058
 5752 0aec 94F83030 		ldrb	r3, [r4, #48]	@ zero_extendqisi2
 5753              	.LBE2176:
 5754              	.LBE2184:
 5755              	.LBB2185:
 5756              	.LBB2181:
  74:../libs/PoliTeKDSP/libs/libDaisy/src/dev/mpr121.h ****                    config_.dev_addr, address, 1, data, size, 10);
 5757              		.loc 2 74 42 view .LVU1059
 5758 0af0 94F82C10 		ldrb	r1, [r4, #44]	@ zero_extendqisi2
 5759              	.LBE2181:
 5760              	.LBE2185:
 5761              	.LBB2186:
 5762              	.LBB2177:
 5763              		.loc 2 336 55 view .LVU1060
 5764 0af4 5045     		cmp	r0, r10
 5765 0af6 18BF     		it	ne
 5766 0af8 43F00103 		orrne	r3, r3, #1
 5767              	.LBE2177:
 5768              	.LBE2186:
 5769              	.LBB2187:
 5770              	.LBB2182:
  74:../libs/PoliTeKDSP/libs/libDaisy/src/dev/mpr121.h ****                    config_.dev_addr, address, 1, data, size, 10);
 5771              		.loc 2 74 42 view .LVU1061
 5772 0afc 2846     		mov	r0, r5
 5773              	.LVL259:
  74:../libs/PoliTeKDSP/libs/libDaisy/src/dev/mpr121.h ****                    config_.dev_addr, address, 1, data, size, 10);
 5774              		.loc 2 74 42 view .LVU1062
 5775              	.LBE2182:
 5776              	.LBE2187:
 5777              	.LBB2188:
 5778              	.LBB2178:
 5779              		.loc 2 336 55 view .LVU1063
 5780 0afe 84F83030 		strb	r3, [r4, #48]
 5781              	.LVL260:
 5782              		.loc 2 336 55 view .LVU1064
 5783              	.LBE2178:
 5784              	.LBE2188:
 5785              	.LBB2189:
 5786              	.LBI2179:
  71:../libs/PoliTeKDSP/libs/libDaisy/src/dev/mpr121.h ****     {
 5787              		.loc 2 71 10 is_stmt 1 view .LVU1065
 5788              	.LBB2183:
  73:../libs/PoliTeKDSP/libs/libDaisy/src/dev/mpr121.h ****                != i2c_.WriteDataAtAddress(
 5789              		.loc 2 73 9 view .LVU1066
  74:../libs/PoliTeKDSP/libs/libDaisy/src/dev/mpr121.h ****                    config_.dev_addr, address, 1, data, size, 10);
 5790              		.loc 2 74 42 is_stmt 0 view .LVU1067
 5791 0b02 3B46     		mov	r3, r7
 5792 0b04 FFF7FEFF 		bl	_ZN5daisy9I2CHandle18WriteDataAtAddressEtttPhtm
 5793              	.LVL261:
  74:../libs/PoliTeKDSP/libs/libDaisy/src/dev/mpr121.h ****                    config_.dev_addr, address, 1, data, size, 10);
 5794              		.loc 2 74 42 view .LVU1068
 5795              	.LBE2183:
 5796              	.LBE2189:
ARM GAS  C:\Users\39351\AppData\Local\Temp\cccegpNG.s 			page 126


 5797              	.LBB2190:
 5798              	.LBI2190:
 5799              		.loc 2 336 10 is_stmt 1 view .LVU1069
 5800              	.LBE2190:
 5801              	.LBE2199:
 5802              	.LBE2208:
 5803              	.LBB2209:
 5804              	.LBB2210:
 5805              	.LBB2211:
 5806              	.LBB2212:
 5807              	.LBB2213:
 5808              	.LBB2214:
 5809              	.LBB2215:
  66:../libs/PoliTeKDSP/libs/libDaisy/src/dev/mpr121.h ****                    config_.dev_addr, address, 1, data, size, 10);
 5810              		.loc 2 66 41 is_stmt 0 view .LVU1070
 5811 0b08 0096     		str	r6, [sp]
 5812 0b0a 5E22     		movs	r2, #94
 5813 0b0c CDE90178 		strd	r7, r8, [sp, #4]
 5814              	.LBE2215:
 5815              	.LBE2214:
 5816              	.LBE2213:
 5817              	.LBE2212:
 5818              	.LBE2211:
 5819              	.LBE2210:
 5820              	.LBE2209:
 5821              	.LBB2300:
 5822              	.LBB2200:
 5823              	.LBB2194:
 5824              	.LBB2191:
 5825              		.loc 2 336 55 view .LVU1071
 5826 0b10 94F83030 		ldrb	r3, [r4, #48]	@ zero_extendqisi2
 5827              	.LBE2191:
 5828              	.LBE2194:
 5829              	.LBE2200:
 5830              	.LBE2300:
 5831              	.LBB2301:
 5832              	.LBB2294:
 5833              	.LBB2258:
 5834              	.LBB2235:
 5835              	.LBB2229:
 5836              	.LBB2219:
 5837              	.LBB2216:
  66:../libs/PoliTeKDSP/libs/libDaisy/src/dev/mpr121.h ****                    config_.dev_addr, address, 1, data, size, 10);
 5838              		.loc 2 66 41 view .LVU1072
 5839 0b14 94F82C10 		ldrb	r1, [r4, #44]	@ zero_extendqisi2
 5840              	.LBE2216:
 5841              	.LBE2219:
 5842              	.LBE2229:
 5843              	.LBE2235:
 5844              	.LBE2258:
 5845              	.LBE2294:
 5846              	.LBE2301:
 5847              	.LBB2302:
 5848              	.LBB2201:
 5849              	.LBB2195:
 5850              	.LBB2192:
 5851              		.loc 2 336 55 view .LVU1073
ARM GAS  C:\Users\39351\AppData\Local\Temp\cccegpNG.s 			page 127


 5852 0b18 5045     		cmp	r0, r10
 5853 0b1a 18BF     		it	ne
 5854 0b1c 43F00103 		orrne	r3, r3, #1
 5855              	.LBE2192:
 5856              	.LBE2195:
 5857              	.LBE2201:
 5858              	.LBE2302:
 5859              	.LBB2303:
 5860              	.LBB2295:
 5861              	.LBB2259:
 5862              	.LBB2236:
 5863              	.LBB2230:
 5864              	.LBB2220:
 5865              	.LBB2217:
  66:../libs/PoliTeKDSP/libs/libDaisy/src/dev/mpr121.h ****                    config_.dev_addr, address, 1, data, size, 10);
 5866              		.loc 2 66 41 view .LVU1074
 5867 0b20 2846     		mov	r0, r5
 5868              	.LVL262:
  66:../libs/PoliTeKDSP/libs/libDaisy/src/dev/mpr121.h ****                    config_.dev_addr, address, 1, data, size, 10);
 5869              		.loc 2 66 41 view .LVU1075
 5870              	.LBE2217:
 5871              	.LBE2220:
 5872              	.LBE2230:
 5873              	.LBE2236:
 5874              	.LBE2259:
 5875              	.LBE2295:
 5876              	.LBE2303:
 5877              	.LBB2304:
 5878              	.LBB2202:
 5879              	.LBB2196:
 5880              	.LBB2193:
 5881              		.loc 2 336 55 view .LVU1076
 5882 0b22 84F83030 		strb	r3, [r4, #48]
 5883              	.LVL263:
 5884              		.loc 2 336 55 view .LVU1077
 5885 0b26 1023     		movs	r3, #16
 5886 0b28 8DF82730 		strb	r3, [sp, #39]
 5887              	.LVL264:
 5888              		.loc 2 336 55 view .LVU1078
 5889              	.LBE2193:
 5890              	.LBE2196:
 5891              	.LBE2202:
 5892              	.LBE2304:
 5893              	.LBB2305:
 5894              	.LBI2209:
 257:../libs/PoliTeKDSP/libs/libDaisy/src/dev/mpr121.h ****     {
 5895              		.loc 2 257 10 is_stmt 1 view .LVU1079
 5896              	.LBB2296:
 5897              	.LBB2260:
 5898              	.LBB2237:
 5899              	.LBI2212:
 232:../libs/PoliTeKDSP/libs/libDaisy/src/dev/mpr121.h ****     {
 5900              		.loc 2 232 13 view .LVU1080
 5901              	.LBB2231:
 5902              	.LBB2221:
 5903              	.LBI2214:
  63:../libs/PoliTeKDSP/libs/libDaisy/src/dev/mpr121.h ****     {
ARM GAS  C:\Users\39351\AppData\Local\Temp\cccegpNG.s 			page 128


 5904              		.loc 2 63 10 view .LVU1081
 5905              	.LBB2218:
  65:../libs/PoliTeKDSP/libs/libDaisy/src/dev/mpr121.h ****                != i2c_.ReadDataAtAddress(
 5906              		.loc 2 65 9 view .LVU1082
  66:../libs/PoliTeKDSP/libs/libDaisy/src/dev/mpr121.h ****                    config_.dev_addr, address, 1, data, size, 10);
 5907              		.loc 2 66 41 is_stmt 0 view .LVU1083
 5908 0b2c 3B46     		mov	r3, r7
 5909              	.LVL265:
  66:../libs/PoliTeKDSP/libs/libDaisy/src/dev/mpr121.h ****                    config_.dev_addr, address, 1, data, size, 10);
 5910              		.loc 2 66 41 view .LVU1084
 5911 0b2e FFF7FEFF 		bl	_ZN5daisy9I2CHandle17ReadDataAtAddressEtttPhtm
 5912              	.LVL266:
  66:../libs/PoliTeKDSP/libs/libDaisy/src/dev/mpr121.h ****                    config_.dev_addr, address, 1, data, size, 10);
 5913              		.loc 2 66 41 view .LVU1085
 5914              	.LBE2218:
 5915              	.LBE2221:
 5916              	.LBB2222:
 5917              	.LBI2222:
 5918              		.loc 2 336 10 is_stmt 1 view .LVU1086
 5919              	.LBE2222:
 5920              	.LBE2231:
 5921              	.LBE2237:
 5922              	.LBB2238:
 5923              	.LBB2239:
  74:../libs/PoliTeKDSP/libs/libDaisy/src/dev/mpr121.h ****                    config_.dev_addr, address, 1, data, size, 10);
 5924              		.loc 2 74 42 is_stmt 0 view .LVU1087
 5925 0b32 0096     		str	r6, [sp]
 5926 0b34 5E22     		movs	r2, #94
 5927 0b36 CDE90178 		strd	r7, r8, [sp, #4]
 5928              	.LBE2239:
 5929              	.LBE2238:
 5930              	.LBB2244:
 5931              	.LBB2232:
 5932              	.LBB2226:
 5933              	.LBB2223:
 5934              		.loc 2 336 55 view .LVU1088
 5935 0b3a 94F83030 		ldrb	r3, [r4, #48]	@ zero_extendqisi2
 5936              	.LBE2223:
 5937              	.LBE2226:
 5938              	.LBE2232:
 5939              	.LBE2244:
 5940              	.LBB2245:
 5941              	.LBB2240:
  74:../libs/PoliTeKDSP/libs/libDaisy/src/dev/mpr121.h ****                    config_.dev_addr, address, 1, data, size, 10);
 5942              		.loc 2 74 42 view .LVU1089
 5943 0b3e 94F82C10 		ldrb	r1, [r4, #44]	@ zero_extendqisi2
 5944              	.LBE2240:
 5945              	.LBE2245:
 5946              	.LBB2246:
 5947              	.LBB2233:
 5948              	.LBB2227:
 5949              	.LBB2224:
 5950              		.loc 2 336 55 view .LVU1090
 5951 0b42 5045     		cmp	r0, r10
 5952 0b44 18BF     		it	ne
 5953 0b46 43F00103 		orrne	r3, r3, #1
 5954              	.LBE2224:
ARM GAS  C:\Users\39351\AppData\Local\Temp\cccegpNG.s 			page 129


 5955              	.LBE2227:
 5956              	.LBE2233:
 5957              	.LBE2246:
 5958              	.LBB2247:
 5959              	.LBB2241:
  74:../libs/PoliTeKDSP/libs/libDaisy/src/dev/mpr121.h ****                    config_.dev_addr, address, 1, data, size, 10);
 5960              		.loc 2 74 42 view .LVU1091
 5961 0b4a 2846     		mov	r0, r5
 5962              	.LVL267:
  74:../libs/PoliTeKDSP/libs/libDaisy/src/dev/mpr121.h ****                    config_.dev_addr, address, 1, data, size, 10);
 5963              		.loc 2 74 42 view .LVU1092
 5964              	.LBE2241:
 5965              	.LBE2247:
 5966              	.LBB2248:
 5967              	.LBB2234:
 5968              	.LBB2228:
 5969              	.LBB2225:
 5970              		.loc 2 336 55 view .LVU1093
 5971 0b4c 84F83030 		strb	r3, [r4, #48]
 5972              	.LVL268:
 5973              		.loc 2 336 55 view .LVU1094
 5974              	.LBE2225:
 5975              	.LBE2228:
 237:../libs/PoliTeKDSP/libs/libDaisy/src/dev/mpr121.h ****     }
 5976              		.loc 2 237 16 view .LVU1095
 5977 0b50 9DF83C30 		ldrb	r3, [sp, #60]	@ zero_extendqisi2
 5978              	.LVL269:
 237:../libs/PoliTeKDSP/libs/libDaisy/src/dev/mpr121.h ****     }
 5979              		.loc 2 237 16 view .LVU1096
 5980              	.LBE2234:
 5981              	.LBE2248:
 271:../libs/PoliTeKDSP/libs/libDaisy/src/dev/mpr121.h ****             // clear this register to set stop mode
 5982              		.loc 2 271 21 view .LVU1097
 5983 0b54 8DF83CA0 		strb	r10, [sp, #60]
 5984              	.LVL270:
 5985              	.LBB2249:
 5986              	.LBI2238:
  71:../libs/PoliTeKDSP/libs/libDaisy/src/dev/mpr121.h ****     {
 5987              		.loc 2 71 10 is_stmt 1 view .LVU1098
 5988              	.LBB2242:
  73:../libs/PoliTeKDSP/libs/libDaisy/src/dev/mpr121.h ****                != i2c_.WriteDataAtAddress(
 5989              		.loc 2 73 9 view .LVU1099
 5990              	.LBE2242:
 5991              	.LBE2249:
 270:../libs/PoliTeKDSP/libs/libDaisy/src/dev/mpr121.h ****             uint8_t zero = 0x00;
 5992              		.loc 2 270 26 is_stmt 0 view .LVU1100
 5993 0b58 8DF82830 		strb	r3, [sp, #40]
 5994              	.LBB2250:
 5995              	.LBB2243:
  74:../libs/PoliTeKDSP/libs/libDaisy/src/dev/mpr121.h ****                    config_.dev_addr, address, 1, data, size, 10);
 5996              		.loc 2 74 42 view .LVU1101
 5997 0b5c 3B46     		mov	r3, r7
 5998 0b5e FFF7FEFF 		bl	_ZN5daisy9I2CHandle18WriteDataAtAddressEtttPhtm
 5999              	.LVL271:
  74:../libs/PoliTeKDSP/libs/libDaisy/src/dev/mpr121.h ****                    config_.dev_addr, address, 1, data, size, 10);
 6000              		.loc 2 74 42 view .LVU1102
 6001              	.LBE2243:
ARM GAS  C:\Users\39351\AppData\Local\Temp\cccegpNG.s 			page 130


 6002              	.LBE2250:
 6003              	.LBB2251:
 6004              	.LBI2251:
 6005              		.loc 2 336 10 is_stmt 1 view .LVU1103
 6006              	.LBE2251:
 6007              	.LBE2260:
 6008              	.LBB2261:
 6009              	.LBB2262:
  74:../libs/PoliTeKDSP/libs/libDaisy/src/dev/mpr121.h ****                    config_.dev_addr, address, 1, data, size, 10);
 6010              		.loc 2 74 42 is_stmt 0 view .LVU1104
 6011 0b62 0DF12703 		add	r3, sp, #39
 6012 0b66 5C22     		movs	r2, #92
 6013 0b68 0093     		str	r3, [sp]
 6014 0b6a CDE90178 		strd	r7, r8, [sp, #4]
 6015              	.LBE2262:
 6016              	.LBE2261:
 6017              	.LBB2266:
 6018              	.LBB2255:
 6019              	.LBB2252:
 6020              		.loc 2 336 55 view .LVU1105
 6021 0b6e 94F83030 		ldrb	r3, [r4, #48]	@ zero_extendqisi2
 6022              	.LBE2252:
 6023              	.LBE2255:
 6024              	.LBE2266:
 6025              	.LBB2267:
 6026              	.LBB2263:
  74:../libs/PoliTeKDSP/libs/libDaisy/src/dev/mpr121.h ****                    config_.dev_addr, address, 1, data, size, 10);
 6027              		.loc 2 74 42 view .LVU1106
 6028 0b72 94F82C10 		ldrb	r1, [r4, #44]	@ zero_extendqisi2
 6029              	.LBE2263:
 6030              	.LBE2267:
 6031              	.LBB2268:
 6032              	.LBB2256:
 6033              	.LBB2253:
 6034              		.loc 2 336 55 view .LVU1107
 6035 0b76 5045     		cmp	r0, r10
 6036 0b78 18BF     		it	ne
 6037 0b7a 43F00103 		orrne	r3, r3, #1
 6038              	.LBE2253:
 6039              	.LBE2256:
 6040              	.LBE2268:
 6041              	.LBB2269:
 6042              	.LBB2264:
  74:../libs/PoliTeKDSP/libs/libDaisy/src/dev/mpr121.h ****                    config_.dev_addr, address, 1, data, size, 10);
 6043              		.loc 2 74 42 view .LVU1108
 6044 0b7e 2846     		mov	r0, r5
 6045              	.LVL272:
  74:../libs/PoliTeKDSP/libs/libDaisy/src/dev/mpr121.h ****                    config_.dev_addr, address, 1, data, size, 10);
 6046              		.loc 2 74 42 view .LVU1109
 6047              	.LBE2264:
 6048              	.LBE2269:
 6049              	.LBB2270:
 6050              	.LBB2257:
 6051              	.LBB2254:
 6052              		.loc 2 336 55 view .LVU1110
 6053 0b80 84F83030 		strb	r3, [r4, #48]
 6054              	.LVL273:
ARM GAS  C:\Users\39351\AppData\Local\Temp\cccegpNG.s 			page 131


 6055              		.loc 2 336 55 view .LVU1111
 6056              	.LBE2254:
 6057              	.LBE2257:
 6058              	.LBE2270:
 6059              	.LBB2271:
 6060              	.LBI2261:
  71:../libs/PoliTeKDSP/libs/libDaisy/src/dev/mpr121.h ****     {
 6061              		.loc 2 71 10 is_stmt 1 view .LVU1112
 6062              	.LBB2265:
  73:../libs/PoliTeKDSP/libs/libDaisy/src/dev/mpr121.h ****                != i2c_.WriteDataAtAddress(
 6063              		.loc 2 73 9 view .LVU1113
  74:../libs/PoliTeKDSP/libs/libDaisy/src/dev/mpr121.h ****                    config_.dev_addr, address, 1, data, size, 10);
 6064              		.loc 2 74 42 is_stmt 0 view .LVU1114
 6065 0b84 3B46     		mov	r3, r7
 6066 0b86 FFF7FEFF 		bl	_ZN5daisy9I2CHandle18WriteDataAtAddressEtttPhtm
 6067              	.LVL274:
  74:../libs/PoliTeKDSP/libs/libDaisy/src/dev/mpr121.h ****                    config_.dev_addr, address, 1, data, size, 10);
 6068              		.loc 2 74 42 view .LVU1115
 6069              	.LBE2265:
 6070              	.LBE2271:
 6071              	.LBB2272:
 6072              	.LBI2272:
 6073              		.loc 2 336 10 is_stmt 1 view .LVU1116
 6074              	.LBE2272:
 6075              	.LBB2276:
 6076              	.LBB2277:
  74:../libs/PoliTeKDSP/libs/libDaisy/src/dev/mpr121.h ****                    config_.dev_addr, address, 1, data, size, 10);
 6077              		.loc 2 74 42 is_stmt 0 view .LVU1117
 6078 0b8a CDF800B0 		str	fp, [sp]
 6079 0b8e 5E22     		movs	r2, #94
 6080 0b90 CDE90178 		strd	r7, r8, [sp, #4]
 6081              	.LBE2277:
 6082              	.LBE2276:
 6083              	.LBB2281:
 6084              	.LBB2273:
 6085              		.loc 2 336 55 view .LVU1118
 6086 0b94 94F83030 		ldrb	r3, [r4, #48]	@ zero_extendqisi2
 6087              	.LBE2273:
 6088              	.LBE2281:
 6089              	.LBB2282:
 6090              	.LBB2278:
  74:../libs/PoliTeKDSP/libs/libDaisy/src/dev/mpr121.h ****                    config_.dev_addr, address, 1, data, size, 10);
 6091              		.loc 2 74 42 view .LVU1119
 6092 0b98 94F82C10 		ldrb	r1, [r4, #44]	@ zero_extendqisi2
 6093              	.LBE2278:
 6094              	.LBE2282:
 6095              	.LBB2283:
 6096              	.LBB2274:
 6097              		.loc 2 336 55 view .LVU1120
 6098 0b9c 5045     		cmp	r0, r10
 6099 0b9e 18BF     		it	ne
 6100 0ba0 43F00103 		orrne	r3, r3, #1
 6101              	.LBE2274:
 6102              	.LBE2283:
 6103              	.LBB2284:
 6104              	.LBB2279:
  74:../libs/PoliTeKDSP/libs/libDaisy/src/dev/mpr121.h ****                    config_.dev_addr, address, 1, data, size, 10);
ARM GAS  C:\Users\39351\AppData\Local\Temp\cccegpNG.s 			page 132


 6105              		.loc 2 74 42 view .LVU1121
 6106 0ba4 2846     		mov	r0, r5
 6107              	.LVL275:
  74:../libs/PoliTeKDSP/libs/libDaisy/src/dev/mpr121.h ****                    config_.dev_addr, address, 1, data, size, 10);
 6108              		.loc 2 74 42 view .LVU1122
 6109              	.LBE2279:
 6110              	.LBE2284:
 6111              	.LBB2285:
 6112              	.LBB2275:
 6113              		.loc 2 336 55 view .LVU1123
 6114 0ba6 84F83030 		strb	r3, [r4, #48]
 6115              	.LVL276:
 6116              		.loc 2 336 55 view .LVU1124
 6117              	.LBE2275:
 6118              	.LBE2285:
 6119              	.LBB2286:
 6120              	.LBI2276:
  71:../libs/PoliTeKDSP/libs/libDaisy/src/dev/mpr121.h ****     {
 6121              		.loc 2 71 10 is_stmt 1 view .LVU1125
 6122              	.LBB2280:
  73:../libs/PoliTeKDSP/libs/libDaisy/src/dev/mpr121.h ****                != i2c_.WriteDataAtAddress(
 6123              		.loc 2 73 9 view .LVU1126
  74:../libs/PoliTeKDSP/libs/libDaisy/src/dev/mpr121.h ****                    config_.dev_addr, address, 1, data, size, 10);
 6124              		.loc 2 74 42 is_stmt 0 view .LVU1127
 6125 0baa 3B46     		mov	r3, r7
 6126 0bac FFF7FEFF 		bl	_ZN5daisy9I2CHandle18WriteDataAtAddressEtttPhtm
 6127              	.LVL277:
  74:../libs/PoliTeKDSP/libs/libDaisy/src/dev/mpr121.h ****                    config_.dev_addr, address, 1, data, size, 10);
 6128              		.loc 2 74 42 view .LVU1128
 6129              	.LBE2280:
 6130              	.LBE2286:
 6131              	.LBB2287:
 6132              	.LBI2287:
 6133              		.loc 2 336 10 is_stmt 1 view .LVU1129
 6134              	.LBE2287:
 6135              	.LBE2296:
 6136              	.LBE2305:
 6137              	.LBB2306:
 6138              	.LBB2307:
 6139              	.LBB2308:
 6140              	.LBB2309:
 6141              	.LBB2310:
 6142              	.LBB2311:
 6143              	.LBB2312:
  66:../libs/PoliTeKDSP/libs/libDaisy/src/dev/mpr121.h ****                    config_.dev_addr, address, 1, data, size, 10);
 6144              		.loc 2 66 41 is_stmt 0 view .LVU1130
 6145 0bb0 0096     		str	r6, [sp]
 6146 0bb2 5E22     		movs	r2, #94
 6147 0bb4 CDE90178 		strd	r7, r8, [sp, #4]
 6148              	.LBE2312:
 6149              	.LBE2311:
 6150              	.LBE2310:
 6151              	.LBE2309:
 6152              	.LBE2308:
 6153              	.LBE2307:
 6154              	.LBE2306:
 6155              	.LBB2400:
ARM GAS  C:\Users\39351\AppData\Local\Temp\cccegpNG.s 			page 133


 6156              	.LBB2297:
 6157              	.LBB2291:
 6158              	.LBB2288:
 6159              		.loc 2 336 55 view .LVU1131
 6160 0bb8 94F83030 		ldrb	r3, [r4, #48]	@ zero_extendqisi2
 6161              	.LBE2288:
 6162              	.LBE2291:
 6163              	.LBE2297:
 6164              	.LBE2400:
 6165              	.LBB2401:
 6166              	.LBB2393:
 6167              	.LBB2355:
 6168              	.LBB2332:
 6169              	.LBB2326:
 6170              	.LBB2316:
 6171              	.LBB2313:
  66:../libs/PoliTeKDSP/libs/libDaisy/src/dev/mpr121.h ****                    config_.dev_addr, address, 1, data, size, 10);
 6172              		.loc 2 66 41 view .LVU1132
 6173 0bbc 94F82C10 		ldrb	r1, [r4, #44]	@ zero_extendqisi2
 6174              	.LBE2313:
 6175              	.LBE2316:
 6176              	.LBE2326:
 6177              	.LBE2332:
 6178              	.LBE2355:
 6179              	.LBE2393:
 6180              	.LBE2401:
 6181              	.LBB2402:
 6182              	.LBB2298:
 6183              	.LBB2292:
 6184              	.LBB2289:
 6185              		.loc 2 336 55 view .LVU1133
 6186 0bc0 5045     		cmp	r0, r10
 6187 0bc2 18BF     		it	ne
 6188 0bc4 43F00103 		orrne	r3, r3, #1
 6189              	.LBE2289:
 6190              	.LBE2292:
 6191              	.LBE2298:
 6192              	.LBE2402:
 6193              	.LBB2403:
 6194              	.LBB2394:
 6195              	.LBB2356:
 6196              	.LBB2333:
 6197              	.LBB2327:
 6198              	.LBB2317:
 6199              	.LBB2314:
  66:../libs/PoliTeKDSP/libs/libDaisy/src/dev/mpr121.h ****                    config_.dev_addr, address, 1, data, size, 10);
 6200              		.loc 2 66 41 view .LVU1134
 6201 0bc8 2846     		mov	r0, r5
 6202              	.LVL278:
  66:../libs/PoliTeKDSP/libs/libDaisy/src/dev/mpr121.h ****                    config_.dev_addr, address, 1, data, size, 10);
 6203              		.loc 2 66 41 view .LVU1135
 6204              	.LBE2314:
 6205              	.LBE2317:
 6206              	.LBE2327:
 6207              	.LBE2333:
 6208              	.LBE2356:
 6209              	.LBE2394:
ARM GAS  C:\Users\39351\AppData\Local\Temp\cccegpNG.s 			page 134


 6210              	.LBE2403:
 6211              	.LBB2404:
 6212              	.LBB2299:
 6213              	.LBB2293:
 6214              	.LBB2290:
 6215              		.loc 2 336 55 view .LVU1136
 6216 0bca 84F83030 		strb	r3, [r4, #48]
 6217              	.LVL279:
 6218              		.loc 2 336 55 view .LVU1137
 6219 0bce 2023     		movs	r3, #32
 6220 0bd0 8DF82730 		strb	r3, [sp, #39]
 6221              	.LVL280:
 6222              		.loc 2 336 55 view .LVU1138
 6223              	.LBE2290:
 6224              	.LBE2293:
 6225              	.LBE2299:
 6226              	.LBE2404:
 6227              	.LBB2405:
 6228              	.LBI2306:
 257:../libs/PoliTeKDSP/libs/libDaisy/src/dev/mpr121.h ****     {
 6229              		.loc 2 257 10 is_stmt 1 view .LVU1139
 6230              	.LBB2395:
 6231              	.LBB2357:
 6232              	.LBB2334:
 6233              	.LBI2309:
 232:../libs/PoliTeKDSP/libs/libDaisy/src/dev/mpr121.h ****     {
 6234              		.loc 2 232 13 view .LVU1140
 6235              	.LBB2328:
 6236              	.LBB2318:
 6237              	.LBI2311:
  63:../libs/PoliTeKDSP/libs/libDaisy/src/dev/mpr121.h ****     {
 6238              		.loc 2 63 10 view .LVU1141
 6239              	.LBB2315:
  65:../libs/PoliTeKDSP/libs/libDaisy/src/dev/mpr121.h ****                != i2c_.ReadDataAtAddress(
 6240              		.loc 2 65 9 view .LVU1142
  66:../libs/PoliTeKDSP/libs/libDaisy/src/dev/mpr121.h ****                    config_.dev_addr, address, 1, data, size, 10);
 6241              		.loc 2 66 41 is_stmt 0 view .LVU1143
 6242 0bd4 3B46     		mov	r3, r7
 6243              	.LVL281:
  66:../libs/PoliTeKDSP/libs/libDaisy/src/dev/mpr121.h ****                    config_.dev_addr, address, 1, data, size, 10);
 6244              		.loc 2 66 41 view .LVU1144
 6245 0bd6 FFF7FEFF 		bl	_ZN5daisy9I2CHandle17ReadDataAtAddressEtttPhtm
 6246              	.LVL282:
  66:../libs/PoliTeKDSP/libs/libDaisy/src/dev/mpr121.h ****                    config_.dev_addr, address, 1, data, size, 10);
 6247              		.loc 2 66 41 view .LVU1145
 6248              	.LBE2315:
 6249              	.LBE2318:
 6250              	.LBB2319:
 6251              	.LBI2319:
 6252              		.loc 2 336 10 is_stmt 1 view .LVU1146
 6253              	.LBE2319:
 6254              	.LBE2328:
 6255              	.LBE2334:
 6256              	.LBB2335:
 6257              	.LBB2336:
  74:../libs/PoliTeKDSP/libs/libDaisy/src/dev/mpr121.h ****                    config_.dev_addr, address, 1, data, size, 10);
 6258              		.loc 2 74 42 is_stmt 0 view .LVU1147
ARM GAS  C:\Users\39351\AppData\Local\Temp\cccegpNG.s 			page 135


 6259 0bda 0096     		str	r6, [sp]
 6260 0bdc 5E22     		movs	r2, #94
 6261 0bde CDE90178 		strd	r7, r8, [sp, #4]
 6262              	.LBE2336:
 6263              	.LBE2335:
 6264              	.LBB2341:
 6265              	.LBB2329:
 6266              	.LBB2323:
 6267              	.LBB2320:
 6268              		.loc 2 336 55 view .LVU1148
 6269 0be2 94F83030 		ldrb	r3, [r4, #48]	@ zero_extendqisi2
 6270              	.LBE2320:
 6271              	.LBE2323:
 6272              	.LBE2329:
 6273              	.LBE2341:
 6274              	.LBB2342:
 6275              	.LBB2337:
  74:../libs/PoliTeKDSP/libs/libDaisy/src/dev/mpr121.h ****                    config_.dev_addr, address, 1, data, size, 10);
 6276              		.loc 2 74 42 view .LVU1149
 6277 0be6 94F82C10 		ldrb	r1, [r4, #44]	@ zero_extendqisi2
 6278              	.LBE2337:
 6279              	.LBE2342:
 6280              	.LBB2343:
 6281              	.LBB2330:
 6282              	.LBB2324:
 6283              	.LBB2321:
 6284              		.loc 2 336 55 view .LVU1150
 6285 0bea 5045     		cmp	r0, r10
 6286 0bec 18BF     		it	ne
 6287 0bee 43F00103 		orrne	r3, r3, #1
 6288              	.LBE2321:
 6289              	.LBE2324:
 6290              	.LBE2330:
 6291              	.LBE2343:
 6292              	.LBB2344:
 6293              	.LBB2338:
  74:../libs/PoliTeKDSP/libs/libDaisy/src/dev/mpr121.h ****                    config_.dev_addr, address, 1, data, size, 10);
 6294              		.loc 2 74 42 view .LVU1151
 6295 0bf2 2846     		mov	r0, r5
 6296              	.LVL283:
  74:../libs/PoliTeKDSP/libs/libDaisy/src/dev/mpr121.h ****                    config_.dev_addr, address, 1, data, size, 10);
 6297              		.loc 2 74 42 view .LVU1152
 6298              	.LBE2338:
 6299              	.LBE2344:
 6300              	.LBB2345:
 6301              	.LBB2331:
 6302              	.LBB2325:
 6303              	.LBB2322:
 6304              		.loc 2 336 55 view .LVU1153
 6305 0bf4 84F83030 		strb	r3, [r4, #48]
 6306              	.LVL284:
 6307              		.loc 2 336 55 view .LVU1154
 6308              	.LBE2322:
 6309              	.LBE2325:
 237:../libs/PoliTeKDSP/libs/libDaisy/src/dev/mpr121.h ****     }
 6310              		.loc 2 237 16 view .LVU1155
 6311 0bf8 9DF83C30 		ldrb	r3, [sp, #60]	@ zero_extendqisi2
ARM GAS  C:\Users\39351\AppData\Local\Temp\cccegpNG.s 			page 136


 6312              	.LVL285:
 237:../libs/PoliTeKDSP/libs/libDaisy/src/dev/mpr121.h ****     }
 6313              		.loc 2 237 16 view .LVU1156
 6314              	.LBE2331:
 6315              	.LBE2345:
 271:../libs/PoliTeKDSP/libs/libDaisy/src/dev/mpr121.h ****             // clear this register to set stop mode
 6316              		.loc 2 271 21 view .LVU1157
 6317 0bfc 8DF83CA0 		strb	r10, [sp, #60]
 6318              	.LVL286:
 6319              	.LBB2346:
 6320              	.LBI2335:
  71:../libs/PoliTeKDSP/libs/libDaisy/src/dev/mpr121.h ****     {
 6321              		.loc 2 71 10 is_stmt 1 view .LVU1158
 6322              	.LBB2339:
  73:../libs/PoliTeKDSP/libs/libDaisy/src/dev/mpr121.h ****                != i2c_.WriteDataAtAddress(
 6323              		.loc 2 73 9 view .LVU1159
 6324              	.LBE2339:
 6325              	.LBE2346:
 270:../libs/PoliTeKDSP/libs/libDaisy/src/dev/mpr121.h ****             uint8_t zero = 0x00;
 6326              		.loc 2 270 26 is_stmt 0 view .LVU1160
 6327 0c00 8DF82830 		strb	r3, [sp, #40]
 6328              	.LBB2347:
 6329              	.LBB2340:
  74:../libs/PoliTeKDSP/libs/libDaisy/src/dev/mpr121.h ****                    config_.dev_addr, address, 1, data, size, 10);
 6330              		.loc 2 74 42 view .LVU1161
 6331 0c04 3B46     		mov	r3, r7
 6332 0c06 FFF7FEFF 		bl	_ZN5daisy9I2CHandle18WriteDataAtAddressEtttPhtm
 6333              	.LVL287:
  74:../libs/PoliTeKDSP/libs/libDaisy/src/dev/mpr121.h ****                    config_.dev_addr, address, 1, data, size, 10);
 6334              		.loc 2 74 42 view .LVU1162
 6335              	.LBE2340:
 6336              	.LBE2347:
 6337              	.LBB2348:
 6338              	.LBI2348:
 6339              		.loc 2 336 10 is_stmt 1 view .LVU1163
 6340              	.LBE2348:
 6341              	.LBE2357:
 6342              	.LBB2358:
 6343              	.LBB2359:
  74:../libs/PoliTeKDSP/libs/libDaisy/src/dev/mpr121.h ****                    config_.dev_addr, address, 1, data, size, 10);
 6344              		.loc 2 74 42 is_stmt 0 view .LVU1164
 6345 0c0a 0DF12703 		add	r3, sp, #39
 6346 0c0e 5D22     		movs	r2, #93
 6347 0c10 8DE88801 		stm	sp, {r3, r7, r8}
 6348              	.LBE2359:
 6349              	.LBE2358:
 6350              	.LBB2363:
 6351              	.LBB2352:
 6352              	.LBB2349:
 6353              		.loc 2 336 55 view .LVU1165
 6354 0c14 94F83030 		ldrb	r3, [r4, #48]	@ zero_extendqisi2
 6355              	.LBE2349:
 6356              	.LBE2352:
 6357              	.LBE2363:
 6358              	.LBB2364:
 6359              	.LBB2360:
  74:../libs/PoliTeKDSP/libs/libDaisy/src/dev/mpr121.h ****                    config_.dev_addr, address, 1, data, size, 10);
ARM GAS  C:\Users\39351\AppData\Local\Temp\cccegpNG.s 			page 137


 6360              		.loc 2 74 42 view .LVU1166
 6361 0c18 94F82C10 		ldrb	r1, [r4, #44]	@ zero_extendqisi2
 6362              	.LBE2360:
 6363              	.LBE2364:
 6364              	.LBB2365:
 6365              	.LBB2353:
 6366              	.LBB2350:
 6367              		.loc 2 336 55 view .LVU1167
 6368 0c1c 5045     		cmp	r0, r10
 6369 0c1e 18BF     		it	ne
 6370 0c20 43F00103 		orrne	r3, r3, #1
 6371              	.LBE2350:
 6372              	.LBE2353:
 6373              	.LBE2365:
 6374              	.LBB2366:
 6375              	.LBB2361:
  74:../libs/PoliTeKDSP/libs/libDaisy/src/dev/mpr121.h ****                    config_.dev_addr, address, 1, data, size, 10);
 6376              		.loc 2 74 42 view .LVU1168
 6377 0c24 2846     		mov	r0, r5
 6378              	.LVL288:
  74:../libs/PoliTeKDSP/libs/libDaisy/src/dev/mpr121.h ****                    config_.dev_addr, address, 1, data, size, 10);
 6379              		.loc 2 74 42 view .LVU1169
 6380              	.LBE2361:
 6381              	.LBE2366:
 6382              	.LBB2367:
 6383              	.LBB2354:
 6384              	.LBB2351:
 6385              		.loc 2 336 55 view .LVU1170
 6386 0c26 84F83030 		strb	r3, [r4, #48]
 6387              	.LVL289:
 6388              		.loc 2 336 55 view .LVU1171
 6389              	.LBE2351:
 6390              	.LBE2354:
 6391              	.LBE2367:
 6392              	.LBB2368:
 6393              	.LBI2358:
  71:../libs/PoliTeKDSP/libs/libDaisy/src/dev/mpr121.h ****     {
 6394              		.loc 2 71 10 is_stmt 1 view .LVU1172
 6395              	.LBB2362:
  73:../libs/PoliTeKDSP/libs/libDaisy/src/dev/mpr121.h ****                != i2c_.WriteDataAtAddress(
 6396              		.loc 2 73 9 view .LVU1173
  74:../libs/PoliTeKDSP/libs/libDaisy/src/dev/mpr121.h ****                    config_.dev_addr, address, 1, data, size, 10);
 6397              		.loc 2 74 42 is_stmt 0 view .LVU1174
 6398 0c2a 3B46     		mov	r3, r7
 6399 0c2c FFF7FEFF 		bl	_ZN5daisy9I2CHandle18WriteDataAtAddressEtttPhtm
 6400              	.LVL290:
  74:../libs/PoliTeKDSP/libs/libDaisy/src/dev/mpr121.h ****                    config_.dev_addr, address, 1, data, size, 10);
 6401              		.loc 2 74 42 view .LVU1175
 6402              	.LBE2362:
 6403              	.LBE2368:
 6404              	.LBB2369:
 6405              	.LBI2369:
 6406              		.loc 2 336 10 is_stmt 1 view .LVU1176
 6407              	.LBE2369:
 6408              	.LBB2373:
 6409              	.LBB2374:
  74:../libs/PoliTeKDSP/libs/libDaisy/src/dev/mpr121.h ****                    config_.dev_addr, address, 1, data, size, 10);
ARM GAS  C:\Users\39351\AppData\Local\Temp\cccegpNG.s 			page 138


 6410              		.loc 2 74 42 is_stmt 0 view .LVU1177
 6411 0c30 CDF800B0 		str	fp, [sp]
 6412 0c34 5E22     		movs	r2, #94
 6413 0c36 CDE90178 		strd	r7, r8, [sp, #4]
 6414              	.LBE2374:
 6415              	.LBE2373:
 6416              	.LBB2379:
 6417              	.LBB2370:
 6418              		.loc 2 336 55 view .LVU1178
 6419 0c3a 94F83030 		ldrb	r3, [r4, #48]	@ zero_extendqisi2
 6420              	.LBE2370:
 6421              	.LBE2379:
 6422              	.LBB2380:
 6423              	.LBB2375:
  74:../libs/PoliTeKDSP/libs/libDaisy/src/dev/mpr121.h ****                    config_.dev_addr, address, 1, data, size, 10);
 6424              		.loc 2 74 42 view .LVU1179
 6425 0c3e 94F82C10 		ldrb	r1, [r4, #44]	@ zero_extendqisi2
 6426              	.LBE2375:
 6427              	.LBE2380:
 6428              	.LBB2381:
 6429              	.LBB2371:
 6430              		.loc 2 336 55 view .LVU1180
 6431 0c42 5045     		cmp	r0, r10
 6432 0c44 18BF     		it	ne
 6433 0c46 43F00103 		orrne	r3, r3, #1
 6434              	.LBE2371:
 6435              	.LBE2381:
 6436              	.LBB2382:
 6437              	.LBB2376:
  74:../libs/PoliTeKDSP/libs/libDaisy/src/dev/mpr121.h ****                    config_.dev_addr, address, 1, data, size, 10);
 6438              		.loc 2 74 42 view .LVU1181
 6439 0c4a 2846     		mov	r0, r5
 6440              	.LVL291:
  74:../libs/PoliTeKDSP/libs/libDaisy/src/dev/mpr121.h ****                    config_.dev_addr, address, 1, data, size, 10);
 6441              		.loc 2 74 42 view .LVU1182
 6442              	.LBE2376:
 6443              	.LBE2382:
 6444              	.LBB2383:
 6445              	.LBB2372:
 6446              		.loc 2 336 55 view .LVU1183
 6447 0c4c 84F83030 		strb	r3, [r4, #48]
 6448              	.LVL292:
 6449              		.loc 2 336 55 view .LVU1184
 6450              	.LBE2372:
 6451              	.LBE2383:
 6452              	.LBB2384:
 6453              	.LBI2373:
  71:../libs/PoliTeKDSP/libs/libDaisy/src/dev/mpr121.h ****     {
 6454              		.loc 2 71 10 is_stmt 1 view .LVU1185
 6455              	.LBB2377:
  73:../libs/PoliTeKDSP/libs/libDaisy/src/dev/mpr121.h ****                != i2c_.WriteDataAtAddress(
 6456              		.loc 2 73 9 view .LVU1186
  74:../libs/PoliTeKDSP/libs/libDaisy/src/dev/mpr121.h ****                    config_.dev_addr, address, 1, data, size, 10);
 6457              		.loc 2 74 42 is_stmt 0 view .LVU1187
 6458 0c50 3B46     		mov	r3, r7
 6459 0c52 FFF7FEFF 		bl	_ZN5daisy9I2CHandle18WriteDataAtAddressEtttPhtm
 6460              	.LVL293:
ARM GAS  C:\Users\39351\AppData\Local\Temp\cccegpNG.s 			page 139


  74:../libs/PoliTeKDSP/libs/libDaisy/src/dev/mpr121.h ****                    config_.dev_addr, address, 1, data, size, 10);
 6461              		.loc 2 74 42 view .LVU1188
 6462              	.LBE2377:
 6463              	.LBE2384:
 6464              	.LBE2395:
 6465              	.LBE2405:
 6466              	.LBB2406:
 6467              	.LBB2407:
 6468              	.LBB2408:
 6469              	.LBB2409:
 6470 0c56 0096     		str	r6, [sp]
 6471              	.LBE2409:
 6472              	.LBE2408:
 6473              	.LBE2407:
 6474              	.LBE2406:
 6475              	.LBB2424:
 6476              	.LBB2396:
 6477              	.LBB2385:
 6478              	.LBB2378:
 6479 0c58 0246     		mov	r2, r0
 6480              	.LVL294:
  74:../libs/PoliTeKDSP/libs/libDaisy/src/dev/mpr121.h ****                    config_.dev_addr, address, 1, data, size, 10);
 6481              		.loc 2 74 42 view .LVU1189
 6482              	.LBE2378:
 6483              	.LBE2385:
 6484              	.LBB2386:
 6485              	.LBI2386:
 6486              		.loc 2 336 10 is_stmt 1 view .LVU1190
 6487              	.LBE2386:
 6488              	.LBE2396:
 6489              	.LBE2424:
 6490              	.LBB2425:
 6491              	.LBB2420:
 6492              	.LBB2414:
 6493              	.LBB2410:
  74:../libs/PoliTeKDSP/libs/libDaisy/src/dev/mpr121.h ****                    config_.dev_addr, address, 1, data, size, 10);
 6494              		.loc 2 74 42 is_stmt 0 view .LVU1191
 6495 0c5a 2846     		mov	r0, r5
 6496              	.LVL295:
  74:../libs/PoliTeKDSP/libs/libDaisy/src/dev/mpr121.h ****                    config_.dev_addr, address, 1, data, size, 10);
 6497              		.loc 2 74 42 view .LVU1192
 6498 0c5c CDE90178 		strd	r7, r8, [sp, #4]
 6499              	.LBE2410:
 6500              	.LBE2414:
 6501              	.LBE2420:
 6502              	.LBE2425:
 6503              	.LBB2426:
 6504              	.LBB2397:
 6505              	.LBB2390:
 6506              	.LBB2387:
 6507              		.loc 2 336 55 view .LVU1193
 6508 0c60 94F83030 		ldrb	r3, [r4, #48]	@ zero_extendqisi2
 6509              	.LBE2387:
 6510              	.LBE2390:
 6511              	.LBE2397:
 6512              	.LBE2426:
 6513              	.LBB2427:
ARM GAS  C:\Users\39351\AppData\Local\Temp\cccegpNG.s 			page 140


 6514              	.LBB2421:
 6515              	.LBB2415:
 6516              	.LBB2411:
  74:../libs/PoliTeKDSP/libs/libDaisy/src/dev/mpr121.h ****                    config_.dev_addr, address, 1, data, size, 10);
 6517              		.loc 2 74 42 view .LVU1194
 6518 0c64 94F82C10 		ldrb	r1, [r4, #44]	@ zero_extendqisi2
 6519              	.LBE2411:
 6520              	.LBE2415:
 6521              	.LBE2421:
 6522              	.LBE2427:
 6523              	.LBB2428:
 6524              	.LBB2398:
 6525              	.LBB2391:
 6526              	.LBB2388:
 6527              		.loc 2 336 55 view .LVU1195
 6528 0c68 5245     		cmp	r2, r10
 6529 0c6a 18BF     		it	ne
 6530 0c6c 43F00103 		orrne	r3, r3, #1
 6531              	.LBE2388:
 6532              	.LBE2391:
 6533              	.LBE2398:
 6534              	.LBE2428:
 6535              	.LBB2429:
 6536              	.LBB2422:
 6537              	.LBB2416:
 6538              	.LBB2412:
  74:../libs/PoliTeKDSP/libs/libDaisy/src/dev/mpr121.h ****                    config_.dev_addr, address, 1, data, size, 10);
 6539              		.loc 2 74 42 view .LVU1196
 6540 0c70 5E22     		movs	r2, #94
 6541              	.LVL296:
  74:../libs/PoliTeKDSP/libs/libDaisy/src/dev/mpr121.h ****                    config_.dev_addr, address, 1, data, size, 10);
 6542              		.loc 2 74 42 view .LVU1197
 6543              	.LBE2412:
 6544              	.LBE2416:
 6545              	.LBE2422:
 6546              	.LBE2429:
 6547              	.LBB2430:
 6548              	.LBB2399:
 6549              	.LBB2392:
 6550              	.LBB2389:
 6551              		.loc 2 336 55 view .LVU1198
 6552 0c72 84F83030 		strb	r3, [r4, #48]
 6553              	.LVL297:
 6554              		.loc 2 336 55 view .LVU1199
 6555 0c76 8C23     		movs	r3, #140
 6556 0c78 8DF83C30 		strb	r3, [sp, #60]
 6557              	.LVL298:
 6558              		.loc 2 336 55 view .LVU1200
 6559              	.LBE2389:
 6560              	.LBE2392:
 6561              	.LBE2399:
 6562              	.LBE2430:
 6563              	.LBB2431:
 6564              	.LBI2406:
 257:../libs/PoliTeKDSP/libs/libDaisy/src/dev/mpr121.h ****     {
 6565              		.loc 2 257 10 is_stmt 1 view .LVU1201
 6566              	.LBB2423:
ARM GAS  C:\Users\39351\AppData\Local\Temp\cccegpNG.s 			page 141


 6567              	.LBB2417:
 6568              	.LBI2408:
  71:../libs/PoliTeKDSP/libs/libDaisy/src/dev/mpr121.h ****     {
 6569              		.loc 2 71 10 view .LVU1202
 6570              	.LBB2413:
  73:../libs/PoliTeKDSP/libs/libDaisy/src/dev/mpr121.h ****                != i2c_.WriteDataAtAddress(
 6571              		.loc 2 73 9 view .LVU1203
  74:../libs/PoliTeKDSP/libs/libDaisy/src/dev/mpr121.h ****                    config_.dev_addr, address, 1, data, size, 10);
 6572              		.loc 2 74 42 is_stmt 0 view .LVU1204
 6573 0c7c 3B46     		mov	r3, r7
 6574              	.LVL299:
  74:../libs/PoliTeKDSP/libs/libDaisy/src/dev/mpr121.h ****                    config_.dev_addr, address, 1, data, size, 10);
 6575              		.loc 2 74 42 view .LVU1205
 6576 0c7e FFF7FEFF 		bl	_ZN5daisy9I2CHandle18WriteDataAtAddressEtttPhtm
 6577              	.LVL300:
  74:../libs/PoliTeKDSP/libs/libDaisy/src/dev/mpr121.h ****                    config_.dev_addr, address, 1, data, size, 10);
 6578              		.loc 2 74 42 view .LVU1206
 6579              	.LBE2413:
 6580              	.LBE2417:
 6581              	.LBB2418:
 6582              	.LBI2418:
 6583              		.loc 2 336 10 is_stmt 1 view .LVU1207
 6584              	.LBB2419:
 6585              		.loc 2 336 55 is_stmt 0 view .LVU1208
 6586 0c82 94F83030 		ldrb	r3, [r4, #48]	@ zero_extendqisi2
 6587 0c86 5045     		cmp	r0, r10
 6588 0c88 18BF     		it	ne
 6589 0c8a 43F00103 		orrne	r3, r3, #1
 6590              	.LVL301:
 6591              		.loc 2 336 55 view .LVU1209
 6592              	.LBE2419:
 6593              	.LBE2418:
 6594              	.LBE2423:
 6595              	.LBE2431:
 6596              	.LBB2432:
 6597              	.LBI2432:
 337:../libs/PoliTeKDSP/libs/libDaisy/src/dev/mpr121.h **** 
 338:../libs/PoliTeKDSP/libs/libDaisy/src/dev/mpr121.h ****     /** Get the global transport_error_ bool (as a Result), then reset it */
 339:../libs/PoliTeKDSP/libs/libDaisy/src/dev/mpr121.h ****     Result GetTransportErr()
 6598              		.loc 2 339 12 is_stmt 1 view .LVU1210
 6599              	.LBB2433:
 340:../libs/PoliTeKDSP/libs/libDaisy/src/dev/mpr121.h ****     {
 341:../libs/PoliTeKDSP/libs/libDaisy/src/dev/mpr121.h ****         Result ret       = transport_error_ ? ERR : OK;
 6600              		.loc 2 341 45 is_stmt 0 view .LVU1211
 6601 0c8e 1BB1     		cbz	r3, .L19
 6602              	.LVL302:
 342:../libs/PoliTeKDSP/libs/libDaisy/src/dev/mpr121.h ****         transport_error_ = false;
 6603              		.loc 2 342 26 view .LVU1212
 6604 0c90 84F830A0 		strb	r10, [r4, #48]
 6605              	.LVL303:
 6606              		.loc 2 342 26 view .LVU1213
 6607 0c94 FFF78CBA 		b	.L13
 6608              	.LVL304:
 6609              	.L19:
 6610              		.loc 2 342 26 view .LVU1214
 6611 0c98 84F83030 		strb	r3, [r4, #48]
 6612              	.LVL305:
ARM GAS  C:\Users\39351\AppData\Local\Temp\cccegpNG.s 			page 142


 6613              		.loc 2 342 26 view .LVU1215
 6614              	.LBE2433:
 6615              	.LBE2432:
 6616              	.LBE2435:
 6617              	.LBE2436:
  18:PSP/PlantConditioner.cpp ****         }
  19:PSP/PlantConditioner.cpp ****     }
  20:PSP/PlantConditioner.cpp ****     _hw->SetLed(true);
 6618              		.loc 1 20 5 is_stmt 1 view .LVU1216
 6619              		.loc 1 20 16 is_stmt 0 view .LVU1217
 6620 0c9c 3946     		mov	r1, r7
 6621 0c9e E06C     		ldr	r0, [r4, #76]
 6622 0ca0 FFF7FEFF 		bl	_ZN5daisy9DaisySeed6SetLedEb
 6623              	.LVL306:
  21:PSP/PlantConditioner.cpp **** 
  22:PSP/PlantConditioner.cpp **** 
  23:PSP/PlantConditioner.cpp ****     _deltaFilter.Init(filter_type);
 6624              		.loc 1 23 5 is_stmt 1 view .LVU1218
 6625              		.loc 1 23 22 is_stmt 0 view .LVU1219
 6626 0ca4 0799     		ldr	r1, [sp, #28]
 6627 0ca6 04F15400 		add	r0, r4, #84
 6628 0caa FFF7FEFF 		bl	_ZN3IIR4InitENS_10FilterTypeE
 6629              	.LVL307:
  24:PSP/PlantConditioner.cpp ****     _deltaFilterMF.Init();
 6630              		.loc 1 24 5 is_stmt 1 view .LVU1220
 6631              		.loc 1 24 24 is_stmt 0 view .LVU1221
 6632 0cae 04F19C00 		add	r0, r4, #156
 6633 0cb2 FFF7FEFF 		bl	_ZN2MF4InitEv
 6634              	.LVL308:
  25:PSP/PlantConditioner.cpp ****     _maxFir.Init(CapFir::ResType::HIGH);
 6635              		.loc 1 25 5 is_stmt 1 view .LVU1222
 6636              		.loc 1 25 17 is_stmt 0 view .LVU1223
 6637 0cb6 04F1B400 		add	r0, r4, #180
 6638 0cba 0221     		movs	r1, #2
 6639 0cbc FFF7FEFF 		bl	_ZN6CapFir4InitENS_7ResTypeE
 6640              	.LVL309:
  26:PSP/PlantConditioner.cpp ****     _curveFir.Init(CapFir::ResType::HIGH);
 6641              		.loc 1 26 5 is_stmt 1 view .LVU1224
 6642              		.loc 1 26 19 is_stmt 0 view .LVU1225
 6643 0cc0 04F58760 		add	r0, r4, #1080
 6644 0cc4 0221     		movs	r1, #2
 6645 0cc6 FFF7FEFF 		bl	_ZN6CapFir4InitENS_7ResTypeE
 6646              	.LVL310:
  27:PSP/PlantConditioner.cpp ****     _delta = 0;
 6647              		.loc 1 27 5 is_stmt 1 view .LVU1226
 6648              		.loc 1 27 12 is_stmt 0 view .LVU1227
 6649 0cca 0023     		movs	r3, #0
 6650 0ccc 04F2DC71 		addw	r1, r4, #2012
  28:PSP/PlantConditioner.cpp ****     _deltaFilt = 0;
 6651              		.loc 1 28 16 view .LVU1228
 6652 0cd0 04F5FC62 		add	r2, r4, #2016
  29:PSP/PlantConditioner.cpp ****     _octave = 4;
 6653              		.loc 1 29 13 view .LVU1229
 6654 0cd4 0420     		movs	r0, #4
  27:PSP/PlantConditioner.cpp ****     _delta = 0;
 6655              		.loc 1 27 12 view .LVU1230
 6656 0cd6 0B60     		str	r3, [r1]	@ float
ARM GAS  C:\Users\39351\AppData\Local\Temp\cccegpNG.s 			page 143


  28:PSP/PlantConditioner.cpp ****     _deltaFilt = 0;
 6657              		.loc 1 28 5 is_stmt 1 view .LVU1231
  28:PSP/PlantConditioner.cpp ****     _deltaFilt = 0;
 6658              		.loc 1 28 16 is_stmt 0 view .LVU1232
 6659 0cd8 1360     		str	r3, [r2]	@ float
 6660              		.loc 1 29 5 is_stmt 1 view .LVU1233
  30:PSP/PlantConditioner.cpp ****     _lastFreq = 440.0f;
 6661              		.loc 1 30 15 is_stmt 0 view .LVU1234
 6662 0cda 04F2C472 		addw	r2, r4, #1988
 6663 0cde 0549     		ldr	r1, .L20
  31:PSP/PlantConditioner.cpp ****     _lastNoteIndex = -1; // Reset indice nota
 6664              		.loc 1 31 20 view .LVU1235
 6665 0ce0 4FF0FF33 		mov	r3, #-1
  29:PSP/PlantConditioner.cpp ****     _octave = 4;
 6666              		.loc 1 29 13 view .LVU1236
 6667 0ce4 84F8CC07 		strb	r0, [r4, #1996]
  30:PSP/PlantConditioner.cpp ****     _lastFreq = 440.0f;
 6668              		.loc 1 30 5 is_stmt 1 view .LVU1237
  30:PSP/PlantConditioner.cpp ****     _lastFreq = 440.0f;
 6669              		.loc 1 30 15 is_stmt 0 view .LVU1238
 6670 0ce8 1160     		str	r1, [r2]	@ float
 6671              		.loc 1 31 5 is_stmt 1 view .LVU1239
 6672              		.loc 1 31 20 is_stmt 0 view .LVU1240
 6673 0cea C4F8C037 		str	r3, [r4, #1984]
  32:PSP/PlantConditioner.cpp **** }
 6674              		.loc 1 32 1 view .LVU1241
 6675 0cee 1BB0     		add	sp, sp, #108
 6676              		.cfi_def_cfa_offset 36
 6677              		@ sp needed
 6678 0cf0 BDE8F08F 		pop	{r4, r5, r6, r7, r8, r9, r10, fp, pc}
 6679              	.LVL311:
 6680              	.L21:
 6681              		.loc 1 32 1 view .LVU1242
 6682              		.align	2
 6683              	.L20:
 6684 0cf4 0000DC43 		.word	1138491392
 6685              		.cfi_endproc
 6686              	.LFE4912:
 6688              		.section	.text._ZN16PlantConditioner8setScaleENS_5NotesENS_9ScaleTypeE,"ax",%progbits
 6689              		.align	1
 6690              		.p2align 2,,3
 6691              		.global	_ZN16PlantConditioner8setScaleENS_5NotesENS_9ScaleTypeE
 6692              		.syntax unified
 6693              		.thumb
 6694              		.thumb_func
 6695              		.fpu fpv5-d16
 6697              	_ZN16PlantConditioner8setScaleENS_5NotesENS_9ScaleTypeE:
 6698              	.LVL312:
 6699              	.LFB4913:
  33:PSP/PlantConditioner.cpp **** 
  34:PSP/PlantConditioner.cpp **** void PlantConditioner::setScale(enum Notes root_note, enum ScaleType scale_type) {
 6700              		.loc 1 34 82 is_stmt 1 view -0
 6701              		.cfi_startproc
 6702              		@ args = 0, pretend = 0, frame = 0
 6703              		@ frame_needed = 0, uses_anonymous_args = 0
  35:PSP/PlantConditioner.cpp ****     // Copia della scala base
  36:PSP/PlantConditioner.cpp ****     switch (scale_type) 
ARM GAS  C:\Users\39351\AppData\Local\Temp\cccegpNG.s 			page 144


 6704              		.loc 1 36 5 view .LVU1244
  34:PSP/PlantConditioner.cpp ****     // Copia della scala base
 6705              		.loc 1 34 82 is_stmt 0 view .LVU1245
 6706 0000 70B5     		push	{r4, r5, r6, lr}
 6707              		.cfi_def_cfa_offset 16
 6708              		.cfi_offset 4, -16
 6709              		.cfi_offset 5, -12
 6710              		.cfi_offset 6, -8
 6711              		.cfi_offset 14, -4
  34:PSP/PlantConditioner.cpp ****     // Copia della scala base
 6712              		.loc 1 34 82 view .LVU1246
 6713 0002 07EE901A 		vmov	s15, r1	@ int
 6714 0006 0546     		mov	r5, r0
 6715 0008 062A     		cmp	r2, #6
 6716 000a 24D8     		bhi	.L23
 6717 000c DFE802F0 		tbb	[pc, r2]
 6718              	.L25:
 6719 0010 23       		.byte	(.L23-.L25)/2
 6720 0011 7B       		.byte	(.L30-.L25)/2
 6721 0012 9D       		.byte	(.L29-.L25)/2
 6722 0013 BF       		.byte	(.L28-.L25)/2
 6723 0014 E1       		.byte	(.L27-.L25)/2
 6724 0015 04       		.byte	(.L26-.L25)/2
 6725 0016 5D       		.byte	(.L24-.L25)/2
 6726 0017 00       		.p2align 1
 6727              	.L26:
 6728              	.LBB2437:
  37:PSP/PlantConditioner.cpp ****     {
  38:PSP/PlantConditioner.cpp ****     case Major:
  39:PSP/PlantConditioner.cpp ****         _scaleLength = 7;
  40:PSP/PlantConditioner.cpp ****         for (int i = 0; i < 7; i++) _scale[i] = _majorScale[i];
  41:PSP/PlantConditioner.cpp ****         break;
  42:PSP/PlantConditioner.cpp ****     case MinorNat:
  43:PSP/PlantConditioner.cpp ****         _scaleLength = 7;
  44:PSP/PlantConditioner.cpp ****         for (int i = 0; i < 7; i++) _scale[i] = _minorNScale[i];
  45:PSP/PlantConditioner.cpp ****         break;
  46:PSP/PlantConditioner.cpp ****     case MinorArm:
  47:PSP/PlantConditioner.cpp ****         _scaleLength = 7;
  48:PSP/PlantConditioner.cpp ****         for (int i = 0; i < 7; i++) _scale[i] = _minorAScale[i];
  49:PSP/PlantConditioner.cpp ****         break;
  50:PSP/PlantConditioner.cpp ****     case MinorMel:
  51:PSP/PlantConditioner.cpp ****         _scaleLength = 7;
  52:PSP/PlantConditioner.cpp ****         for (int i = 0; i < 7; i++) _scale[i] = _minorMScale[i];
  53:PSP/PlantConditioner.cpp ****         break;
  54:PSP/PlantConditioner.cpp ****     case Pentatonic:
  55:PSP/PlantConditioner.cpp ****         _scaleLength = 5;
  56:PSP/PlantConditioner.cpp ****         for (int i = 0; i < 5; i++) _scale[i] = _pentatonicScale[i];
  57:PSP/PlantConditioner.cpp ****         break;
  58:PSP/PlantConditioner.cpp ****     case Chromatic:
 6729              		.loc 1 58 5 is_stmt 1 view .LVU1247
  59:PSP/PlantConditioner.cpp ****         _scaleLength = 12;
 6730              		.loc 1 59 9 view .LVU1248
 6731              	.LBB2438:
  60:PSP/PlantConditioner.cpp ****         for (int i = 0; i < 12; i++) _scale[i] = _chromaticScale[i];
 6732              		.loc 1 60 48 is_stmt 0 view .LVU1249
 6733 0018 00F61404 		addw	r4, r0, #2068
 6734              	.LBE2438:
ARM GAS  C:\Users\39351\AppData\Local\Temp\cccegpNG.s 			page 145


  59:PSP/PlantConditioner.cpp ****         _scaleLength = 12;
 6735              		.loc 1 59 22 view .LVU1250
 6736 001c 0C21     		movs	r1, #12
 6737              	.LVL313:
 6738              	.LBB2439:
 6739              		.loc 1 60 48 view .LVU1251
 6740 001e 00F6C803 		addw	r3, r0, #2248
 6741 0022 00F6F806 		addw	r6, r0, #2296
 6742 0026 2246     		mov	r2, r4
 6743              	.LVL314:
 6744              		.loc 1 60 48 view .LVU1252
 6745              	.LBE2439:
  59:PSP/PlantConditioner.cpp ****         _scaleLength = 12;
 6746              		.loc 1 59 22 view .LVU1253
 6747 0028 80F8CD17 		strb	r1, [r0, #1997]
 6748              		.loc 1 60 9 is_stmt 1 view .LVU1254
 6749              	.LVL315:
 6750              	.LBB2440:
 6751              		.loc 1 60 27 view .LVU1255
 6752              	.L33:
 6753              		.loc 1 60 48 is_stmt 0 view .LVU1256
 6754 002c D3F800E0 		ldr	lr, [r3]	@ unaligned
 6755 0030 1033     		adds	r3, r3, #16
 6756 0032 53F80CCC 		ldr	ip, [r3, #-12]	@ unaligned
 6757 0036 1032     		adds	r2, r2, #16
 6758 0038 53F8080C 		ldr	r0, [r3, #-8]	@ unaligned
 6759 003c 53F8041C 		ldr	r1, [r3, #-4]	@ unaligned
 6760 0040 B342     		cmp	r3, r6
 6761 0042 42F810EC 		str	lr, [r2, #-16]	@ unaligned
 6762 0046 42F80CCC 		str	ip, [r2, #-12]	@ unaligned
 6763 004a 42F8080C 		str	r0, [r2, #-8]	@ unaligned
 6764 004e 42F8041C 		str	r1, [r2, #-4]	@ unaligned
 6765 0052 EBD1     		bne	.L33
 6766 0054 20E0     		b	.L32
 6767              	.LVL316:
 6768              	.L23:
 6769              		.loc 1 60 48 view .LVU1257
 6770              	.LBE2440:
  61:PSP/PlantConditioner.cpp ****         break;
  62:PSP/PlantConditioner.cpp ****     case Esatonic:
  63:PSP/PlantConditioner.cpp ****         _scaleLength = 6;
  64:PSP/PlantConditioner.cpp ****         for (int i = 0; i < 6; i++) _scale[i] = _esatonic[i];
  65:PSP/PlantConditioner.cpp ****         break;
  66:PSP/PlantConditioner.cpp ****     default:
 6771              		.loc 1 66 5 is_stmt 1 view .LVU1258
  67:PSP/PlantConditioner.cpp ****         _scaleLength = 7;
 6772              		.loc 1 67 9 view .LVU1259
 6773              	.LBB2441:
  68:PSP/PlantConditioner.cpp ****         for (int i = 0; i < 7; i++) _scale[i] = _majorScale[i];
 6774              		.loc 1 68 47 is_stmt 0 view .LVU1260
 6775 0056 D0F84C38 		ldr	r3, [r0, #2124]	@ unaligned
 6776 005a 05F61404 		addw	r4, r5, #2068
 6777 005e D0F84418 		ldr	r1, [r0, #2116]	@ unaligned
 6778              	.LVL317:
 6779              		.loc 1 68 47 view .LVU1261
 6780 0062 D0F84828 		ldr	r2, [r0, #2120]	@ unaligned
 6781              	.LVL318:
ARM GAS  C:\Users\39351\AppData\Local\Temp\cccegpNG.s 			page 146


 6782              		.loc 1 68 47 view .LVU1262
 6783              	.LBE2441:
  67:PSP/PlantConditioner.cpp ****         _scaleLength = 7;
 6784              		.loc 1 67 22 view .LVU1263
 6785 0066 0720     		movs	r0, #7
 6786              	.LVL319:
 6787              	.LBB2442:
 6788              		.loc 1 68 47 view .LVU1264
 6789 0068 C5F81C38 		str	r3, [r5, #2076]	@ unaligned
 6790 006c D5F85038 		ldr	r3, [r5, #2128]	@ unaligned
 6791 0070 C5F81418 		str	r1, [r5, #2068]	@ unaligned
 6792 0074 C5F81828 		str	r2, [r5, #2072]	@ unaligned
 6793 0078 D5F85418 		ldr	r1, [r5, #2132]	@ unaligned
 6794 007c D5F85828 		ldr	r2, [r5, #2136]	@ unaligned
 6795 0080 C5F82038 		str	r3, [r5, #2080]	@ unaligned
 6796 0084 D5F85C38 		ldr	r3, [r5, #2140]	@ unaligned
 6797              	.LBE2442:
  67:PSP/PlantConditioner.cpp ****         _scaleLength = 7;
 6798              		.loc 1 67 22 view .LVU1265
 6799 0088 85F8CD07 		strb	r0, [r5, #1997]
 6800              		.loc 1 68 9 is_stmt 1 view .LVU1266
 6801              	.LVL320:
 6802              	.LBB2443:
 6803              		.loc 1 68 27 view .LVU1267
 6804              		.loc 1 68 47 is_stmt 0 view .LVU1268
 6805 008c C5F82418 		str	r1, [r5, #2084]	@ unaligned
 6806 0090 C5F82828 		str	r2, [r5, #2088]	@ unaligned
 6807 0094 C5F82C38 		str	r3, [r5, #2092]	@ unaligned
 6808              	.LVL321:
 6809              	.L32:
 6810              		.loc 1 68 47 view .LVU1269
 6811              	.LBE2443:
 6812              	.LBE2437:
  69:PSP/PlantConditioner.cpp ****         break;
  70:PSP/PlantConditioner.cpp ****     }
  71:PSP/PlantConditioner.cpp **** 
  72:PSP/PlantConditioner.cpp ****     // Trasposizione (Pitch Shifting) in base alla nota fondamentale
  73:PSP/PlantConditioner.cpp ****     // powf(2, n/12) calcola il rapporto semitonale
  74:PSP/PlantConditioner.cpp ****     float transposition = powf(2.0f, (float)root_note / 12.0f);
 6813              		.loc 1 74 5 is_stmt 1 view .LVU1270
 6814              		.loc 1 74 38 is_stmt 0 view .LVU1271
 6815 0098 F8EE677A 		vcvt.f32.u32	s15, s15
 6816              		.loc 1 74 31 view .LVU1272
 6817 009c F2EE080A 		vmov.f32	s1, #1.2e+1
 6818 00a0 B0EE000A 		vmov.f32	s0, #2.0e+0
 6819 00a4 C7EEA00A 		vdiv.f32	s1, s15, s1
 6820 00a8 FFF7FEFF 		bl	powf
 6821              	.LVL322:
 6822              	.LBB2459:
  75:PSP/PlantConditioner.cpp ****     for (int i = 0; i < _scaleLength; i++) {
 6823              		.loc 1 75 25 view .LVU1273
 6824 00ac 95F8CD27 		ldrb	r2, [r5, #1997]	@ zero_extendqisi2
 6825              	.LVL323:
 6826              		.loc 1 75 25 view .LVU1274
 6827              	.LBE2459:
 6828              		.loc 1 75 5 is_stmt 1 view .LVU1275
 6829              	.LBB2460:
ARM GAS  C:\Users\39351\AppData\Local\Temp\cccegpNG.s 			page 147


 6830              		.loc 1 75 23 view .LVU1276
 6831 00b0 52B1     		cbz	r2, .L22
 6832 00b2 2346     		mov	r3, r4
 6833 00b4 04EB8202 		add	r2, r4, r2, lsl #2
 6834              	.LVL324:
 6835              	.L35:
  76:PSP/PlantConditioner.cpp ****         _scale[i] = _scale[i] * transposition; 
 6836              		.loc 1 76 9 discriminator 2 view .LVU1277
 6837              		.loc 1 76 29 is_stmt 0 discriminator 2 view .LVU1278
 6838 00b8 D3ED007A 		vldr.32	s15, [r3]
 6839              		.loc 1 76 31 discriminator 2 view .LVU1279
 6840 00bc 67EE807A 		vmul.f32	s15, s15, s0
 6841              		.loc 1 76 19 discriminator 2 view .LVU1280
 6842 00c0 E3EC017A 		vstmia.32	r3!, {s15}
  75:PSP/PlantConditioner.cpp ****     for (int i = 0; i < _scaleLength; i++) {
 6843              		.loc 1 75 5 is_stmt 1 discriminator 2 view .LVU1281
  75:PSP/PlantConditioner.cpp ****     for (int i = 0; i < _scaleLength; i++) {
 6844              		.loc 1 75 23 discriminator 2 view .LVU1282
 6845 00c4 9A42     		cmp	r2, r3
 6846 00c6 F7D1     		bne	.L35
 6847              	.L22:
  75:PSP/PlantConditioner.cpp ****     for (int i = 0; i < _scaleLength; i++) {
 6848              		.loc 1 75 23 is_stmt 0 discriminator 2 view .LVU1283
 6849              	.LBE2460:
  77:PSP/PlantConditioner.cpp ****     }
  78:PSP/PlantConditioner.cpp **** }
 6850              		.loc 1 78 1 view .LVU1284
 6851 00c8 70BD     		pop	{r4, r5, r6, pc}
 6852              	.LVL325:
 6853              	.L24:
 6854              	.LBB2461:
  62:PSP/PlantConditioner.cpp ****         _scaleLength = 6;
 6855              		.loc 1 62 5 is_stmt 1 view .LVU1285
  63:PSP/PlantConditioner.cpp ****         for (int i = 0; i < 6; i++) _scale[i] = _esatonic[i];
 6856              		.loc 1 63 9 view .LVU1286
 6857              	.LBB2444:
  64:PSP/PlantConditioner.cpp ****         break;
 6858              		.loc 1 64 47 is_stmt 0 view .LVU1287
 6859 00ca D0F8F828 		ldr	r2, [r0, #2296]	@ unaligned
 6860              	.LVL326:
  64:PSP/PlantConditioner.cpp ****         break;
 6861              		.loc 1 64 47 view .LVU1288
 6862 00ce 05F61404 		addw	r4, r5, #2068
 6863 00d2 D0F8FC38 		ldr	r3, [r0, #2300]	@ unaligned
 6864              	.LBE2444:
  63:PSP/PlantConditioner.cpp ****         for (int i = 0; i < 6; i++) _scale[i] = _esatonic[i];
 6865              		.loc 1 63 22 view .LVU1289
 6866 00d6 0620     		movs	r0, #6
 6867              	.LVL327:
 6868              	.LBB2445:
  64:PSP/PlantConditioner.cpp ****         break;
 6869              		.loc 1 64 47 view .LVU1290
 6870 00d8 D5F80069 		ldr	r6, [r5, #2304]	@ unaligned
 6871 00dc D5F80419 		ldr	r1, [r5, #2308]	@ unaligned
 6872              	.LVL328:
  64:PSP/PlantConditioner.cpp ****         break;
 6873              		.loc 1 64 47 view .LVU1291
ARM GAS  C:\Users\39351\AppData\Local\Temp\cccegpNG.s 			page 148


 6874 00e0 C5F81428 		str	r2, [r5, #2068]	@ unaligned
 6875 00e4 C5F81838 		str	r3, [r5, #2072]	@ unaligned
 6876 00e8 D5F80829 		ldr	r2, [r5, #2312]	@ unaligned
 6877 00ec D5F80C39 		ldr	r3, [r5, #2316]	@ unaligned
 6878 00f0 C5F82428 		str	r2, [r5, #2084]	@ unaligned
 6879 00f4 C5F81C68 		str	r6, [r5, #2076]	@ unaligned
 6880              	.LBE2445:
  63:PSP/PlantConditioner.cpp ****         for (int i = 0; i < 6; i++) _scale[i] = _esatonic[i];
 6881              		.loc 1 63 22 view .LVU1292
 6882 00f8 85F8CD07 		strb	r0, [r5, #1997]
  64:PSP/PlantConditioner.cpp ****         break;
 6883              		.loc 1 64 9 is_stmt 1 view .LVU1293
 6884              	.LVL329:
 6885              	.LBB2446:
  64:PSP/PlantConditioner.cpp ****         break;
 6886              		.loc 1 64 27 view .LVU1294
  64:PSP/PlantConditioner.cpp ****         break;
 6887              		.loc 1 64 47 is_stmt 0 view .LVU1295
 6888 00fc C5F82018 		str	r1, [r5, #2080]	@ unaligned
 6889 0100 C5F82838 		str	r3, [r5, #2088]	@ unaligned
 6890 0104 C8E7     		b	.L32
 6891              	.LVL330:
 6892              	.L30:
  64:PSP/PlantConditioner.cpp ****         break;
 6893              		.loc 1 64 47 view .LVU1296
 6894              	.LBE2446:
  42:PSP/PlantConditioner.cpp ****         _scaleLength = 7;
 6895              		.loc 1 42 5 is_stmt 1 view .LVU1297
  43:PSP/PlantConditioner.cpp ****         for (int i = 0; i < 7; i++) _scale[i] = _minorNScale[i];
 6896              		.loc 1 43 9 view .LVU1298
 6897              	.LBB2447:
  44:PSP/PlantConditioner.cpp ****         break;
 6898              		.loc 1 44 47 is_stmt 0 view .LVU1299
 6899 0106 D0F86838 		ldr	r3, [r0, #2152]	@ unaligned
 6900 010a 05F61404 		addw	r4, r5, #2068
 6901 010e D0F86018 		ldr	r1, [r0, #2144]	@ unaligned
 6902              	.LVL331:
  44:PSP/PlantConditioner.cpp ****         break;
 6903              		.loc 1 44 47 view .LVU1300
 6904 0112 D0F86428 		ldr	r2, [r0, #2148]	@ unaligned
 6905              	.LVL332:
  44:PSP/PlantConditioner.cpp ****         break;
 6906              		.loc 1 44 47 view .LVU1301
 6907              	.LBE2447:
  43:PSP/PlantConditioner.cpp ****         for (int i = 0; i < 7; i++) _scale[i] = _minorNScale[i];
 6908              		.loc 1 43 22 view .LVU1302
 6909 0116 0720     		movs	r0, #7
 6910              	.LVL333:
 6911              	.LBB2448:
  44:PSP/PlantConditioner.cpp ****         break;
 6912              		.loc 1 44 47 view .LVU1303
 6913 0118 C5F81C38 		str	r3, [r5, #2076]	@ unaligned
 6914 011c D5F86C38 		ldr	r3, [r5, #2156]	@ unaligned
 6915 0120 C5F81418 		str	r1, [r5, #2068]	@ unaligned
 6916 0124 C5F81828 		str	r2, [r5, #2072]	@ unaligned
 6917 0128 D5F87018 		ldr	r1, [r5, #2160]	@ unaligned
 6918 012c D5F87428 		ldr	r2, [r5, #2164]	@ unaligned
ARM GAS  C:\Users\39351\AppData\Local\Temp\cccegpNG.s 			page 149


 6919 0130 C5F82038 		str	r3, [r5, #2080]	@ unaligned
 6920 0134 D5F87838 		ldr	r3, [r5, #2168]	@ unaligned
 6921              	.LBE2448:
  43:PSP/PlantConditioner.cpp ****         for (int i = 0; i < 7; i++) _scale[i] = _minorNScale[i];
 6922              		.loc 1 43 22 view .LVU1304
 6923 0138 85F8CD07 		strb	r0, [r5, #1997]
  44:PSP/PlantConditioner.cpp ****         break;
 6924              		.loc 1 44 9 is_stmt 1 view .LVU1305
 6925              	.LVL334:
 6926              	.LBB2449:
  44:PSP/PlantConditioner.cpp ****         break;
 6927              		.loc 1 44 27 view .LVU1306
  44:PSP/PlantConditioner.cpp ****         break;
 6928              		.loc 1 44 47 is_stmt 0 view .LVU1307
 6929 013c C5F82418 		str	r1, [r5, #2084]	@ unaligned
 6930 0140 C5F82828 		str	r2, [r5, #2088]	@ unaligned
 6931 0144 C5F82C38 		str	r3, [r5, #2092]	@ unaligned
 6932 0148 A6E7     		b	.L32
 6933              	.LVL335:
 6934              	.L29:
  44:PSP/PlantConditioner.cpp ****         break;
 6935              		.loc 1 44 47 view .LVU1308
 6936              	.LBE2449:
  46:PSP/PlantConditioner.cpp ****         _scaleLength = 7;
 6937              		.loc 1 46 5 is_stmt 1 view .LVU1309
  47:PSP/PlantConditioner.cpp ****         for (int i = 0; i < 7; i++) _scale[i] = _minorAScale[i];
 6938              		.loc 1 47 9 view .LVU1310
 6939              	.LBB2450:
  48:PSP/PlantConditioner.cpp ****         break;
 6940              		.loc 1 48 47 is_stmt 0 view .LVU1311
 6941 014a D0F88438 		ldr	r3, [r0, #2180]	@ unaligned
 6942 014e 05F61404 		addw	r4, r5, #2068
 6943 0152 D0F87C18 		ldr	r1, [r0, #2172]	@ unaligned
 6944              	.LVL336:
  48:PSP/PlantConditioner.cpp ****         break;
 6945              		.loc 1 48 47 view .LVU1312
 6946 0156 D0F88028 		ldr	r2, [r0, #2176]	@ unaligned
 6947              	.LVL337:
  48:PSP/PlantConditioner.cpp ****         break;
 6948              		.loc 1 48 47 view .LVU1313
 6949              	.LBE2450:
  47:PSP/PlantConditioner.cpp ****         for (int i = 0; i < 7; i++) _scale[i] = _minorAScale[i];
 6950              		.loc 1 47 22 view .LVU1314
 6951 015a 0720     		movs	r0, #7
 6952              	.LVL338:
 6953              	.LBB2451:
  48:PSP/PlantConditioner.cpp ****         break;
 6954              		.loc 1 48 47 view .LVU1315
 6955 015c C5F81C38 		str	r3, [r5, #2076]	@ unaligned
 6956 0160 D5F88838 		ldr	r3, [r5, #2184]	@ unaligned
 6957 0164 C5F81418 		str	r1, [r5, #2068]	@ unaligned
 6958 0168 C5F81828 		str	r2, [r5, #2072]	@ unaligned
 6959 016c D5F88C18 		ldr	r1, [r5, #2188]	@ unaligned
 6960 0170 D5F89028 		ldr	r2, [r5, #2192]	@ unaligned
 6961 0174 C5F82038 		str	r3, [r5, #2080]	@ unaligned
 6962 0178 D5F89438 		ldr	r3, [r5, #2196]	@ unaligned
 6963              	.LBE2451:
ARM GAS  C:\Users\39351\AppData\Local\Temp\cccegpNG.s 			page 150


  47:PSP/PlantConditioner.cpp ****         for (int i = 0; i < 7; i++) _scale[i] = _minorAScale[i];
 6964              		.loc 1 47 22 view .LVU1316
 6965 017c 85F8CD07 		strb	r0, [r5, #1997]
  48:PSP/PlantConditioner.cpp ****         break;
 6966              		.loc 1 48 9 is_stmt 1 view .LVU1317
 6967              	.LVL339:
 6968              	.LBB2452:
  48:PSP/PlantConditioner.cpp ****         break;
 6969              		.loc 1 48 27 view .LVU1318
  48:PSP/PlantConditioner.cpp ****         break;
 6970              		.loc 1 48 47 is_stmt 0 view .LVU1319
 6971 0180 C5F82418 		str	r1, [r5, #2084]	@ unaligned
 6972 0184 C5F82828 		str	r2, [r5, #2088]	@ unaligned
 6973 0188 C5F82C38 		str	r3, [r5, #2092]	@ unaligned
 6974 018c 84E7     		b	.L32
 6975              	.LVL340:
 6976              	.L28:
  48:PSP/PlantConditioner.cpp ****         break;
 6977              		.loc 1 48 47 view .LVU1320
 6978              	.LBE2452:
  50:PSP/PlantConditioner.cpp ****         _scaleLength = 7;
 6979              		.loc 1 50 5 is_stmt 1 view .LVU1321
  51:PSP/PlantConditioner.cpp ****         for (int i = 0; i < 7; i++) _scale[i] = _minorMScale[i];
 6980              		.loc 1 51 9 view .LVU1322
 6981              	.LBB2453:
  52:PSP/PlantConditioner.cpp ****         break;
 6982              		.loc 1 52 47 is_stmt 0 view .LVU1323
 6983 018e D0F8A038 		ldr	r3, [r0, #2208]	@ unaligned
 6984 0192 05F61404 		addw	r4, r5, #2068
 6985 0196 D0F89818 		ldr	r1, [r0, #2200]	@ unaligned
 6986              	.LVL341:
  52:PSP/PlantConditioner.cpp ****         break;
 6987              		.loc 1 52 47 view .LVU1324
 6988 019a D0F89C28 		ldr	r2, [r0, #2204]	@ unaligned
 6989              	.LVL342:
  52:PSP/PlantConditioner.cpp ****         break;
 6990              		.loc 1 52 47 view .LVU1325
 6991              	.LBE2453:
  51:PSP/PlantConditioner.cpp ****         for (int i = 0; i < 7; i++) _scale[i] = _minorMScale[i];
 6992              		.loc 1 51 22 view .LVU1326
 6993 019e 0720     		movs	r0, #7
 6994              	.LVL343:
 6995              	.LBB2454:
  52:PSP/PlantConditioner.cpp ****         break;
 6996              		.loc 1 52 47 view .LVU1327
 6997 01a0 C5F81C38 		str	r3, [r5, #2076]	@ unaligned
 6998 01a4 D5F8A438 		ldr	r3, [r5, #2212]	@ unaligned
 6999 01a8 C5F81418 		str	r1, [r5, #2068]	@ unaligned
 7000 01ac C5F81828 		str	r2, [r5, #2072]	@ unaligned
 7001 01b0 D5F8A818 		ldr	r1, [r5, #2216]	@ unaligned
 7002 01b4 D5F8AC28 		ldr	r2, [r5, #2220]	@ unaligned
 7003 01b8 C5F82038 		str	r3, [r5, #2080]	@ unaligned
 7004 01bc D5F8B038 		ldr	r3, [r5, #2224]	@ unaligned
 7005              	.LBE2454:
  51:PSP/PlantConditioner.cpp ****         for (int i = 0; i < 7; i++) _scale[i] = _minorMScale[i];
 7006              		.loc 1 51 22 view .LVU1328
 7007 01c0 85F8CD07 		strb	r0, [r5, #1997]
ARM GAS  C:\Users\39351\AppData\Local\Temp\cccegpNG.s 			page 151


  52:PSP/PlantConditioner.cpp ****         break;
 7008              		.loc 1 52 9 is_stmt 1 view .LVU1329
 7009              	.LVL344:
 7010              	.LBB2455:
  52:PSP/PlantConditioner.cpp ****         break;
 7011              		.loc 1 52 27 view .LVU1330
  52:PSP/PlantConditioner.cpp ****         break;
 7012              		.loc 1 52 47 is_stmt 0 view .LVU1331
 7013 01c4 C5F82418 		str	r1, [r5, #2084]	@ unaligned
 7014 01c8 C5F82828 		str	r2, [r5, #2088]	@ unaligned
 7015 01cc C5F82C38 		str	r3, [r5, #2092]	@ unaligned
 7016 01d0 62E7     		b	.L32
 7017              	.LVL345:
 7018              	.L27:
  52:PSP/PlantConditioner.cpp ****         break;
 7019              		.loc 1 52 47 view .LVU1332
 7020              	.LBE2455:
  54:PSP/PlantConditioner.cpp ****         _scaleLength = 5;
 7021              		.loc 1 54 5 is_stmt 1 view .LVU1333
  55:PSP/PlantConditioner.cpp ****         for (int i = 0; i < 5; i++) _scale[i] = _pentatonicScale[i];
 7022              		.loc 1 55 9 view .LVU1334
 7023              	.LBB2456:
  56:PSP/PlantConditioner.cpp ****         break;
 7024              		.loc 1 56 47 is_stmt 0 view .LVU1335
 7025 01d2 D0F8B438 		ldr	r3, [r0, #2228]	@ unaligned
 7026              	.LBE2456:
  55:PSP/PlantConditioner.cpp ****         for (int i = 0; i < 5; i++) _scale[i] = _pentatonicScale[i];
 7027              		.loc 1 55 22 view .LVU1336
 7028 01d6 0521     		movs	r1, #5
 7029              	.LVL346:
 7030              	.LBB2457:
  56:PSP/PlantConditioner.cpp ****         break;
 7031              		.loc 1 56 47 view .LVU1337
 7032 01d8 05F61404 		addw	r4, r5, #2068
 7033 01dc C0F81438 		str	r3, [r0, #2068]	@ unaligned
 7034 01e0 D5F8BC38 		ldr	r3, [r5, #2236]	@ unaligned
 7035 01e4 D0F8B808 		ldr	r0, [r0, #2232]	@ unaligned
 7036              	.LVL347:
  56:PSP/PlantConditioner.cpp ****         break;
 7037              		.loc 1 56 47 view .LVU1338
 7038 01e8 D5F8C028 		ldr	r2, [r5, #2240]	@ unaligned
 7039              	.LVL348:
  56:PSP/PlantConditioner.cpp ****         break;
 7040              		.loc 1 56 47 view .LVU1339
 7041 01ec C5F81C38 		str	r3, [r5, #2076]	@ unaligned
 7042 01f0 D5F8C438 		ldr	r3, [r5, #2244]	@ unaligned
 7043 01f4 C5F81808 		str	r0, [r5, #2072]	@ unaligned
 7044              	.LBE2457:
  55:PSP/PlantConditioner.cpp ****         for (int i = 0; i < 5; i++) _scale[i] = _pentatonicScale[i];
 7045              		.loc 1 55 22 view .LVU1340
 7046 01f8 85F8CD17 		strb	r1, [r5, #1997]
  56:PSP/PlantConditioner.cpp ****         break;
 7047              		.loc 1 56 9 is_stmt 1 view .LVU1341
 7048              	.LVL349:
 7049              	.LBB2458:
  56:PSP/PlantConditioner.cpp ****         break;
 7050              		.loc 1 56 27 view .LVU1342
ARM GAS  C:\Users\39351\AppData\Local\Temp\cccegpNG.s 			page 152


  56:PSP/PlantConditioner.cpp ****         break;
 7051              		.loc 1 56 47 is_stmt 0 view .LVU1343
 7052 01fc C5F82028 		str	r2, [r5, #2080]	@ unaligned
 7053 0200 C5F82438 		str	r3, [r5, #2084]	@ unaligned
 7054 0204 48E7     		b	.L32
 7055              	.LBE2458:
 7056              	.LBE2461:
 7057              		.cfi_endproc
 7058              	.LFE4913:
 7060 0206 00BF     		.section	.text._ZN16PlantConditioner9setOctaveEh,"ax",%progbits
 7061              		.align	1
 7062              		.p2align 2,,3
 7063              		.global	_ZN16PlantConditioner9setOctaveEh
 7064              		.syntax unified
 7065              		.thumb
 7066              		.thumb_func
 7067              		.fpu fpv5-d16
 7069              	_ZN16PlantConditioner9setOctaveEh:
 7070              	.LVL350:
 7071              	.LFB4914:
  79:PSP/PlantConditioner.cpp **** 
  80:PSP/PlantConditioner.cpp **** void PlantConditioner::setOctave(uint8_t octave) {
 7072              		.loc 1 80 50 is_stmt 1 view -0
 7073              		.cfi_startproc
 7074              		@ args = 0, pretend = 0, frame = 0
 7075              		@ frame_needed = 0, uses_anonymous_args = 0
 7076              		@ link register save eliminated.
  81:PSP/PlantConditioner.cpp ****     _octave = octave;
 7077              		.loc 1 81 5 view .LVU1345
 7078              		.loc 1 81 13 is_stmt 0 view .LVU1346
 7079 0000 80F8CC17 		strb	r1, [r0, #1996]
  82:PSP/PlantConditioner.cpp **** }
 7080              		.loc 1 82 1 view .LVU1347
 7081 0004 7047     		bx	lr
 7082              		.cfi_endproc
 7083              	.LFE4914:
 7085 0006 00BF     		.section	.text._ZN16PlantConditioner7ProcessEv,"ax",%progbits
 7086              		.align	1
 7087              		.p2align 2,,3
 7088              		.global	_ZN16PlantConditioner7ProcessEv
 7089              		.syntax unified
 7090              		.thumb
 7091              		.thumb_func
 7092              		.fpu fpv5-d16
 7094              	_ZN16PlantConditioner7ProcessEv:
 7095              	.LVL351:
 7096              	.LFB4915:
  83:PSP/PlantConditioner.cpp **** 
  84:PSP/PlantConditioner.cpp **** float PlantConditioner::Process() {
 7097              		.loc 1 84 35 is_stmt 1 view -0
 7098              		.cfi_startproc
 7099              		@ args = 0, pretend = 0, frame = 8
 7100              		@ frame_needed = 0, uses_anonymous_args = 0
  85:PSP/PlantConditioner.cpp **** 
  86:PSP/PlantConditioner.cpp ****     float out = _lastFreq;
 7101              		.loc 1 86 5 view .LVU1349
  84:PSP/PlantConditioner.cpp **** 
ARM GAS  C:\Users\39351\AppData\Local\Temp\cccegpNG.s 			page 153


 7102              		.loc 1 84 35 is_stmt 0 view .LVU1350
 7103 0000 2DE9F04F 		push	{r4, r5, r6, r7, r8, r9, r10, fp, lr}
 7104              		.cfi_def_cfa_offset 36
 7105              		.cfi_offset 4, -36
 7106              		.cfi_offset 5, -32
 7107              		.cfi_offset 6, -28
 7108              		.cfi_offset 7, -24
 7109              		.cfi_offset 8, -20
 7110              		.cfi_offset 9, -16
 7111              		.cfi_offset 10, -12
 7112              		.cfi_offset 11, -8
 7113              		.cfi_offset 14, -4
 7114 0004 2DED068B 		vpush.64	{d8, d9, d10}
 7115              		.cfi_def_cfa_offset 60
 7116              		.cfi_offset 80, -60
 7117              		.cfi_offset 81, -56
 7118              		.cfi_offset 82, -52
 7119              		.cfi_offset 83, -48
 7120              		.cfi_offset 84, -44
 7121              		.cfi_offset 85, -40
 7122 0008 87B0     		sub	sp, sp, #28
 7123              		.cfi_def_cfa_offset 88
 7124              	.LBB2491:
 7125              	.LBB2492:
 7126              	.LBB2493:
 7127              	.LBB2494:
 7128              	.LBB2495:
 7129              	.LBB2496:
 7130              	.LBB2497:
 7131              	.LBB2498:
  66:../libs/PoliTeKDSP/libs/libDaisy/src/dev/mpr121.h ****                    config_.dev_addr, address, 1, data, size, 10);
 7132              		.loc 2 66 41 view .LVU1351
 7133 000a 0123     		movs	r3, #1
 7134 000c 00F11806 		add	r6, r0, #24
 7135 0010 0A27     		movs	r7, #10
 7136 0012 0DF11604 		add	r4, sp, #22
 7137              	.LBE2498:
 7138              	.LBE2497:
 7139              	.LBE2496:
 7140              	.LBE2495:
 7141              	.LBE2494:
 7142              	.LBE2493:
 7143              	.LBE2492:
 7144              	.LBE2491:
  84:PSP/PlantConditioner.cpp **** 
 7145              		.loc 1 84 35 view .LVU1352
 7146 0016 0546     		mov	r5, r0
 7147              		.loc 1 86 11 view .LVU1353
 7148 0018 00F2C47A 		addw	r10, r0, #1988
 7149              	.LBB2547:
 7150              	.LBB2540:
 7151              	.LBB2533:
 7152              	.LBB2526:
 7153              	.LBB2519:
 7154              	.LBB2512:
 7155              	.LBB2503:
 7156              	.LBB2499:
ARM GAS  C:\Users\39351\AppData\Local\Temp\cccegpNG.s 			page 154


  66:../libs/PoliTeKDSP/libs/libDaisy/src/dev/mpr121.h ****                    config_.dev_addr, address, 1, data, size, 10);
 7157              		.loc 2 66 41 view .LVU1354
 7158 001c 1E22     		movs	r2, #30
 7159 001e 0094     		str	r4, [sp]
 7160              	.LBE2499:
 7161              	.LBE2503:
 7162              	.LBE2512:
 7163              	.LBE2519:
 7164              	.LBE2526:
 7165              	.LBE2533:
 7166              	.LBE2540:
 7167              	.LBE2547:
  87:PSP/PlantConditioner.cpp ****     float baseline =(float) _cap.BaselineData(0); 
  88:PSP/PlantConditioner.cpp ****     float filtered = (float) _cap.FilteredData(0);
  89:PSP/PlantConditioner.cpp **** 
  90:PSP/PlantConditioner.cpp ****     // Calcolo Delta
  91:PSP/PlantConditioner.cpp ****     _delta = (float)baseline - (float)filtered - (float)_touchThreshold;
  92:PSP/PlantConditioner.cpp ****     // Filtraggio e Clamp
  93:PSP/PlantConditioner.cpp ****     _deltaFilt = _deltaFilter.Process(_deltaFilterMF.Process(_delta));
  94:PSP/PlantConditioner.cpp ****     _deltaFilt = fclamp(_deltaFilt, _deltaMin, _deltaMax - 0.001f);
 7168              		.loc 1 94 16 view .LVU1355
 7169 0020 05F5FC69 		add	r9, r5, #2016
 7170              	.LBB2548:
 7171              	.LBB2541:
 7172              	.LBB2534:
 7173              	.LBB2527:
 7174              	.LBB2520:
 7175              	.LBB2513:
 7176              	.LBB2504:
 7177              	.LBB2500:
  66:../libs/PoliTeKDSP/libs/libDaisy/src/dev/mpr121.h ****                    config_.dev_addr, address, 1, data, size, 10);
 7178              		.loc 2 66 41 view .LVU1356
 7179 0024 CDE90137 		strd	r3, r7, [sp, #4]
 7180 0028 90F82C10 		ldrb	r1, [r0, #44]	@ zero_extendqisi2
 7181 002c 3046     		mov	r0, r6
 7182              	.LVL352:
  66:../libs/PoliTeKDSP/libs/libDaisy/src/dev/mpr121.h ****                    config_.dev_addr, address, 1, data, size, 10);
 7183              		.loc 2 66 41 view .LVU1357
 7184              	.LBE2500:
 7185              	.LBE2504:
 7186              	.LBE2513:
 7187              	.LBE2520:
 7188              	.LBE2527:
 7189              	.LBE2534:
 7190              	.LBE2541:
 7191              	.LBE2548:
  86:PSP/PlantConditioner.cpp ****     float baseline =(float) _cap.BaselineData(0); 
 7192              		.loc 1 86 11 view .LVU1358
 7193 002e 9AED00AA 		vldr.32	s20, [r10]
 7194              	.LVL353:
  87:PSP/PlantConditioner.cpp ****     float baseline =(float) _cap.BaselineData(0); 
 7195              		.loc 1 87 5 is_stmt 1 view .LVU1359
 7196              	.LBB2549:
 7197              	.LBI2491:
 209:../libs/PoliTeKDSP/libs/libDaisy/src/dev/mpr121.h ****     {
 7198              		.loc 2 209 14 view .LVU1360
 7199              	.LBB2542:
ARM GAS  C:\Users\39351\AppData\Local\Temp\cccegpNG.s 			page 155


 7200              	.LBB2535:
 7201              	.LBI2493:
 209:../libs/PoliTeKDSP/libs/libDaisy/src/dev/mpr121.h ****     {
 7202              		.loc 2 209 14 view .LVU1361
 7203              	.LBB2528:
 7204              	.LBB2521:
 7205              	.LBI2495:
 232:../libs/PoliTeKDSP/libs/libDaisy/src/dev/mpr121.h ****     {
 7206              		.loc 2 232 13 view .LVU1362
 7207              	.LBB2514:
 7208              	.LBB2505:
 7209              	.LBI2497:
  63:../libs/PoliTeKDSP/libs/libDaisy/src/dev/mpr121.h ****     {
 7210              		.loc 2 63 10 view .LVU1363
 7211              	.LBB2501:
  65:../libs/PoliTeKDSP/libs/libDaisy/src/dev/mpr121.h ****                != i2c_.ReadDataAtAddress(
 7212              		.loc 2 65 9 view .LVU1364
  66:../libs/PoliTeKDSP/libs/libDaisy/src/dev/mpr121.h ****                    config_.dev_addr, address, 1, data, size, 10);
 7213              		.loc 2 66 41 is_stmt 0 view .LVU1365
 7214 0032 FFF7FEFF 		bl	_ZN5daisy9I2CHandle17ReadDataAtAddressEtttPhtm
 7215              	.LVL354:
  66:../libs/PoliTeKDSP/libs/libDaisy/src/dev/mpr121.h ****                    config_.dev_addr, address, 1, data, size, 10);
 7216              		.loc 2 66 41 view .LVU1366
 7217              	.LBE2501:
 7218              	.LBE2505:
 7219              	.LBE2514:
 7220              	.LBE2521:
 7221              	.LBE2528:
 7222              	.LBE2535:
 7223              	.LBE2542:
 7224              	.LBE2549:
 7225              	.LBB2550:
 7226              	.LBB2551:
 7227              	.LBB2552:
 7228              	.LBB2553:
 7229              	.LBB2554:
 7230              	.LBB2555:
 7231 0036 0094     		str	r4, [sp]
 7232              	.LBE2555:
 7233              	.LBE2554:
 7234              	.LBE2553:
 7235              	.LBE2552:
 7236              	.LBE2551:
 7237              	.LBE2550:
 7238              	.LBB2590:
 7239              	.LBB2543:
 7240              	.LBB2536:
 7241              	.LBB2529:
 7242              	.LBB2522:
 7243              	.LBB2515:
 7244              	.LBB2506:
 7245              	.LBB2502:
 7246 0038 0146     		mov	r1, r0
 7247              	.LVL355:
  66:../libs/PoliTeKDSP/libs/libDaisy/src/dev/mpr121.h ****                    config_.dev_addr, address, 1, data, size, 10);
 7248              		.loc 2 66 41 view .LVU1367
 7249              	.LBE2502:
ARM GAS  C:\Users\39351\AppData\Local\Temp\cccegpNG.s 			page 156


 7250              	.LBE2506:
 7251              	.LBB2507:
 7252              	.LBI2507:
 336:../libs/PoliTeKDSP/libs/libDaisy/src/dev/mpr121.h **** 
 7253              		.loc 2 336 10 is_stmt 1 view .LVU1368
 7254              	.LBE2507:
 7255              	.LBE2515:
 7256              	.LBE2522:
 7257              	.LBE2529:
 7258              	.LBE2536:
 7259              	.LBE2543:
 7260              	.LBE2590:
 7261              	.LBB2591:
 7262              	.LBB2583:
 7263              	.LBB2576:
 7264              	.LBB2569:
 7265              	.LBB2559:
 7266              	.LBB2556:
  66:../libs/PoliTeKDSP/libs/libDaisy/src/dev/mpr121.h ****                    config_.dev_addr, address, 1, data, size, 10);
 7267              		.loc 2 66 41 is_stmt 0 view .LVU1369
 7268 003a 0297     		str	r7, [sp, #8]
 7269 003c 0123     		movs	r3, #1
 7270              	.LBE2556:
 7271              	.LBE2559:
 7272              	.LBE2569:
 7273              	.LBE2576:
 7274              	.LBE2583:
 7275              	.LBE2591:
 7276              	.LBB2592:
 7277              	.LBB2544:
 7278              	.LBB2537:
 7279              	.LBB2530:
 7280              	.LBB2523:
 7281              	.LBB2516:
 7282              	.LBB2510:
 7283              	.LBB2508:
 336:../libs/PoliTeKDSP/libs/libDaisy/src/dev/mpr121.h **** 
 7284              		.loc 2 336 55 view .LVU1370
 7285 003e 95F83020 		ldrb	r2, [r5, #48]	@ zero_extendqisi2
 7286              	.LBE2508:
 7287              	.LBE2510:
 7288              	.LBE2516:
 7289              	.LBE2523:
 7290              	.LBE2530:
 7291              	.LBE2537:
 7292              	.LBE2544:
 7293              	.LBE2592:
 7294              	.LBB2593:
 7295              	.LBB2584:
 7296              	.LBB2577:
 7297              	.LBB2570:
 7298              	.LBB2560:
 7299              	.LBB2557:
  66:../libs/PoliTeKDSP/libs/libDaisy/src/dev/mpr121.h ****                    config_.dev_addr, address, 1, data, size, 10);
 7300              		.loc 2 66 41 view .LVU1371
 7301 0042 3046     		mov	r0, r6
 7302              	.LVL356:
ARM GAS  C:\Users\39351\AppData\Local\Temp\cccegpNG.s 			page 157


  66:../libs/PoliTeKDSP/libs/libDaisy/src/dev/mpr121.h ****                    config_.dev_addr, address, 1, data, size, 10);
 7303              		.loc 2 66 41 view .LVU1372
 7304              	.LBE2557:
 7305              	.LBE2560:
 7306              	.LBE2570:
 7307              	.LBE2577:
 7308              	.LBE2584:
 7309              	.LBE2593:
 7310              	.LBB2594:
 7311              	.LBB2545:
 7312              	.LBB2538:
 7313              	.LBB2531:
 7314              	.LBB2524:
 7315              	.LBB2517:
 237:../libs/PoliTeKDSP/libs/libDaisy/src/dev/mpr121.h ****     }
 7316              		.loc 2 237 16 view .LVU1373
 7317 0044 9DF81640 		ldrb	r4, [sp, #22]	@ zero_extendqisi2
 7318              	.LBE2517:
 7319              	.LBE2524:
 7320              	.LBE2531:
 7321              	.LBE2538:
 7322              	.LBE2545:
 7323              	.LBE2594:
 7324              		.loc 1 94 24 view .LVU1374
 7325 0048 05F5FA66 		add	r6, r5, #2000
 7326              	.LBB2595:
 7327              	.LBB2546:
 7328              	.LBB2539:
 7329              	.LBB2532:
 7330              	.LBB2525:
 7331              	.LBB2518:
 7332              	.LBB2511:
 7333              	.LBB2509:
 336:../libs/PoliTeKDSP/libs/libDaisy/src/dev/mpr121.h **** 
 7334              		.loc 2 336 55 view .LVU1375
 7335 004c 0029     		cmp	r1, #0
 7336 004e 18BF     		it	ne
 7337 0050 42F00102 		orrne	r2, r2, #1
 7338 0054 85F83020 		strb	r2, [r5, #48]
 7339              	.LVL357:
 336:../libs/PoliTeKDSP/libs/libDaisy/src/dev/mpr121.h **** 
 7340              		.loc 2 336 55 view .LVU1376
 7341              	.LBE2509:
 7342              	.LBE2511:
 7343              	.LBE2518:
 7344              	.LBE2525:
 7345              	.LBE2532:
 7346              	.LBE2539:
 7347              	.LBE2546:
 7348              	.LBE2595:
  88:PSP/PlantConditioner.cpp **** 
 7349              		.loc 1 88 5 is_stmt 1 view .LVU1377
 7350              	.LBB2596:
 7351              	.LBI2550:
 196:../libs/PoliTeKDSP/libs/libDaisy/src/dev/mpr121.h ****     {
 7352              		.loc 2 196 14 view .LVU1378
 7353              	.LBB2585:
ARM GAS  C:\Users\39351\AppData\Local\Temp\cccegpNG.s 			page 158


 7354              	.LBI2551:
 196:../libs/PoliTeKDSP/libs/libDaisy/src/dev/mpr121.h ****     {
 7355              		.loc 2 196 14 view .LVU1379
 7356              	.LBB2578:
 7357              	.LBI2552:
 244:../libs/PoliTeKDSP/libs/libDaisy/src/dev/mpr121.h ****     {
 7358              		.loc 2 244 14 view .LVU1380
 7359              	.LBB2571:
 7360              	.LBB2561:
 7361              	.LBI2554:
  63:../libs/PoliTeKDSP/libs/libDaisy/src/dev/mpr121.h ****     {
 7362              		.loc 2 63 10 view .LVU1381
 7363              	.LBB2558:
  65:../libs/PoliTeKDSP/libs/libDaisy/src/dev/mpr121.h ****                != i2c_.ReadDataAtAddress(
 7364              		.loc 2 65 9 view .LVU1382
  66:../libs/PoliTeKDSP/libs/libDaisy/src/dev/mpr121.h ****                    config_.dev_addr, address, 1, data, size, 10);
 7365              		.loc 2 66 41 is_stmt 0 view .LVU1383
 7366 0058 0222     		movs	r2, #2
 7367 005a 0192     		str	r2, [sp, #4]
 7368 005c 0422     		movs	r2, #4
 7369 005e 95F82C10 		ldrb	r1, [r5, #44]	@ zero_extendqisi2
 7370 0062 FFF7FEFF 		bl	_ZN5daisy9I2CHandle17ReadDataAtAddressEtttPhtm
 7371              	.LVL358:
  66:../libs/PoliTeKDSP/libs/libDaisy/src/dev/mpr121.h ****                    config_.dev_addr, address, 1, data, size, 10);
 7372              		.loc 2 66 41 view .LVU1384
 7373              	.LBE2558:
 7374              	.LBE2561:
 7375              	.LBB2562:
 7376              	.LBI2562:
 336:../libs/PoliTeKDSP/libs/libDaisy/src/dev/mpr121.h **** 
 7377              		.loc 2 336 10 is_stmt 1 view .LVU1385
 7378              	.LBE2562:
 7379              	.LBE2571:
 7380              	.LBE2578:
 7381              	.LBE2585:
 7382              	.LBE2596:
  91:PSP/PlantConditioner.cpp ****     // Filtraggio e Clamp
 7383              		.loc 1 91 50 is_stmt 0 view .LVU1386
 7384 0066 95F85020 		ldrb	r2, [r5, #80]	@ zero_extendqisi2
  87:PSP/PlantConditioner.cpp ****     float filtered = (float) _cap.FilteredData(0);
 7385              		.loc 1 87 48 view .LVU1387
 7386 006a A300     		lsls	r3, r4, #2
  91:PSP/PlantConditioner.cpp ****     // Filtraggio e Clamp
 7387              		.loc 1 91 50 view .LVU1388
 7388 006c 07EE102A 		vmov	s14, r2	@ int
 7389              	.LBB2597:
 7390              	.LBB2586:
 7391              	.LBB2579:
 7392              	.LBB2572:
 250:../libs/PoliTeKDSP/libs/libDaisy/src/dev/mpr121.h ****     }
 7393              		.loc 2 250 16 view .LVU1389
 7394 0070 BDF81620 		ldrh	r2, [sp, #22]
 7395              	.LBE2572:
 7396              	.LBE2579:
 7397              	.LBE2586:
 7398              	.LBE2597:
  87:PSP/PlantConditioner.cpp ****     float filtered = (float) _cap.FilteredData(0);
ARM GAS  C:\Users\39351\AppData\Local\Temp\cccegpNG.s 			page 159


 7399              		.loc 1 87 48 view .LVU1390
 7400 0074 00EE103A 		vmov	s0, r3	@ int
 7401              	.LBB2598:
 7402              	.LBB2587:
 7403              	.LBB2580:
 7404              	.LBB2573:
 7405              	.LBB2566:
 7406              	.LBB2563:
 336:../libs/PoliTeKDSP/libs/libDaisy/src/dev/mpr121.h **** 
 7407              		.loc 2 336 55 view .LVU1391
 7408 0078 95F83030 		ldrb	r3, [r5, #48]	@ zero_extendqisi2
 7409              	.LBE2563:
 7410              	.LBE2566:
 7411              	.LBE2573:
 7412              	.LBE2580:
 7413              	.LBE2587:
 7414              	.LBE2598:
  91:PSP/PlantConditioner.cpp ****     // Filtraggio e Clamp
 7415              		.loc 1 91 50 view .LVU1392
 7416 007c B8EE477A 		vcvt.f32.u32	s14, s14
  87:PSP/PlantConditioner.cpp ****     float filtered = (float) _cap.FilteredData(0);
 7417              		.loc 1 87 48 view .LVU1393
 7418 0080 F8EE407A 		vcvt.f32.u32	s15, s0
 7419              	.LBB2599:
 7420              	.LBB2588:
 7421              	.LBB2581:
 7422              	.LBB2574:
 250:../libs/PoliTeKDSP/libs/libDaisy/src/dev/mpr121.h ****     }
 7423              		.loc 2 250 16 view .LVU1394
 7424 0084 00EE102A 		vmov	s0, r2	@ int
 7425              	.LBB2567:
 7426              	.LBB2564:
 336:../libs/PoliTeKDSP/libs/libDaisy/src/dev/mpr121.h **** 
 7427              		.loc 2 336 55 view .LVU1395
 7428 0088 0028     		cmp	r0, #0
 7429 008a 18BF     		it	ne
 7430 008c 43F00103 		orrne	r3, r3, #1
 7431              	.LBE2564:
 7432              	.LBE2567:
 7433              	.LBE2574:
 7434              	.LBE2581:
 7435              	.LBE2588:
 7436              	.LBE2599:
  91:PSP/PlantConditioner.cpp ****     // Filtraggio e Clamp
 7437              		.loc 1 91 12 view .LVU1396
 7438 0090 05F2DC72 		addw	r2, r5, #2012
  88:PSP/PlantConditioner.cpp **** 
 7439              		.loc 1 88 49 view .LVU1397
 7440 0094 B8EE400A 		vcvt.f32.u32	s0, s0
  93:PSP/PlantConditioner.cpp ****     _deltaFilt = fclamp(_deltaFilt, _deltaMin, _deltaMax - 0.001f);
 7441              		.loc 1 93 38 view .LVU1398
 7442 0098 05F19C00 		add	r0, r5, #156
 7443              	.LVL359:
 7444              	.LBB2600:
 7445              	.LBB2589:
 7446              	.LBB2582:
 7447              	.LBB2575:
ARM GAS  C:\Users\39351\AppData\Local\Temp\cccegpNG.s 			page 160


 7448              	.LBB2568:
 7449              	.LBB2565:
 336:../libs/PoliTeKDSP/libs/libDaisy/src/dev/mpr121.h **** 
 7450              		.loc 2 336 55 view .LVU1399
 7451 009c 85F83030 		strb	r3, [r5, #48]
 7452              	.LVL360:
 336:../libs/PoliTeKDSP/libs/libDaisy/src/dev/mpr121.h **** 
 7453              		.loc 2 336 55 view .LVU1400
 7454              	.LBE2565:
 7455              	.LBE2568:
 7456              	.LBE2575:
 7457              	.LBE2582:
 7458              	.LBE2589:
 7459              	.LBE2600:
  91:PSP/PlantConditioner.cpp ****     // Filtraggio e Clamp
 7460              		.loc 1 91 5 is_stmt 1 view .LVU1401
  91:PSP/PlantConditioner.cpp ****     // Filtraggio e Clamp
 7461              		.loc 1 91 30 is_stmt 0 view .LVU1402
 7462 00a0 37EEC00A 		vsub.f32	s0, s15, s0
  91:PSP/PlantConditioner.cpp ****     // Filtraggio e Clamp
 7463              		.loc 1 91 48 view .LVU1403
 7464 00a4 30EE470A 		vsub.f32	s0, s0, s14
  91:PSP/PlantConditioner.cpp ****     // Filtraggio e Clamp
 7465              		.loc 1 91 12 view .LVU1404
 7466 00a8 82ED000A 		vstr.32	s0, [r2]
  93:PSP/PlantConditioner.cpp ****     _deltaFilt = fclamp(_deltaFilt, _deltaMin, _deltaMax - 0.001f);
 7467              		.loc 1 93 5 is_stmt 1 view .LVU1405
  93:PSP/PlantConditioner.cpp ****     _deltaFilt = fclamp(_deltaFilt, _deltaMin, _deltaMax - 0.001f);
 7468              		.loc 1 93 38 is_stmt 0 view .LVU1406
 7469 00ac FFF7FEFF 		bl	_ZN2MF7ProcessEf
 7470              	.LVL361:
  93:PSP/PlantConditioner.cpp ****     _deltaFilt = fclamp(_deltaFilt, _deltaMin, _deltaMax - 0.001f);
 7471              		.loc 1 93 38 view .LVU1407
 7472 00b0 05F15400 		add	r0, r5, #84
 7473 00b4 FFF7FEFF 		bl	_ZN3IIR7ProcessEf
 7474              	.LVL362:
 7475              		.loc 1 94 5 is_stmt 1 view .LVU1408
 7476              		.loc 1 94 48 is_stmt 0 view .LVU1409
 7477 00b8 05F2D473 		addw	r3, r5, #2004
 7478              	.LBB2601:
  95:PSP/PlantConditioner.cpp ****     
  96:PSP/PlantConditioner.cpp ****     // ---------------------------------------------------------
  97:PSP/PlantConditioner.cpp ****     // FASE 1: STICKY CHECK (Priorità alla nota corrente)
  98:PSP/PlantConditioner.cpp ****     // Controlliamo subito se possiamo rimanere sulla nota attuale
  99:PSP/PlantConditioner.cpp ****     // ---------------------------------------------------------
 100:PSP/PlantConditioner.cpp ****     if (_lastNoteIndex >= 0 && _lastNoteIndex < _scaleLength) {
 7479              		.loc 1 100 9 view .LVU1410
 7480 00bc D5F8C027 		ldr	r2, [r5, #1984]
 7481              	.LBE2601:
  94:PSP/PlantConditioner.cpp ****     
 7482              		.loc 1 94 24 view .LVU1411
 7483 00c0 D3ED007A 		vldr.32	s15, [r3]
 7484 00c4 9FED607A 		vldr.32	s14, .L64
 7485              	.LBB2604:
 7486              		.loc 1 100 5 view .LVU1412
 7487 00c8 002A     		cmp	r2, #0
 7488              	.LBE2604:
ARM GAS  C:\Users\39351\AppData\Local\Temp\cccegpNG.s 			page 161


  94:PSP/PlantConditioner.cpp ****     
 7489              		.loc 1 94 24 view .LVU1413
 7490 00ca 96ED008A 		vldr.32	s16, [r6]
 7491              	.LVL363:
 7492              	.LBB2605:
 7493              	.LBI2605:
 7494              		.file 5 "../libs/PoliTeKDSP/libs/DaisySP/Source/Utility/dsp.h"
   1:../libs/PoliTeKDSP/libs/DaisySP/Source/Utility/dsp.h **** /*
   2:../libs/PoliTeKDSP/libs/DaisySP/Source/Utility/dsp.h **** Copyright (c) 2020 Electrosmith, Corp, Emilie Gillet
   3:../libs/PoliTeKDSP/libs/DaisySP/Source/Utility/dsp.h **** 
   4:../libs/PoliTeKDSP/libs/DaisySP/Source/Utility/dsp.h **** Use of this source code is governed by an MIT-style
   5:../libs/PoliTeKDSP/libs/DaisySP/Source/Utility/dsp.h **** license that can be found in the LICENSE file or at
   6:../libs/PoliTeKDSP/libs/DaisySP/Source/Utility/dsp.h **** https://opensource.org/licenses/MIT.
   7:../libs/PoliTeKDSP/libs/DaisySP/Source/Utility/dsp.h **** */
   8:../libs/PoliTeKDSP/libs/DaisySP/Source/Utility/dsp.h **** 
   9:../libs/PoliTeKDSP/libs/DaisySP/Source/Utility/dsp.h **** /** Helpful defines, functions, and other utilities for use in/with daisysp modules.
  10:../libs/PoliTeKDSP/libs/DaisySP/Source/Utility/dsp.h **** */
  11:../libs/PoliTeKDSP/libs/DaisySP/Source/Utility/dsp.h **** #pragma once
  12:../libs/PoliTeKDSP/libs/DaisySP/Source/Utility/dsp.h **** #ifndef DSY_CORE_DSP
  13:../libs/PoliTeKDSP/libs/DaisySP/Source/Utility/dsp.h **** #define DSY_CORE_DSP
  14:../libs/PoliTeKDSP/libs/DaisySP/Source/Utility/dsp.h **** #include <cassert>
  15:../libs/PoliTeKDSP/libs/DaisySP/Source/Utility/dsp.h **** #include <cstdint>
  16:../libs/PoliTeKDSP/libs/DaisySP/Source/Utility/dsp.h **** #include <random>
  17:../libs/PoliTeKDSP/libs/DaisySP/Source/Utility/dsp.h **** #include <cmath>
  18:../libs/PoliTeKDSP/libs/DaisySP/Source/Utility/dsp.h **** 
  19:../libs/PoliTeKDSP/libs/DaisySP/Source/Utility/dsp.h **** /** PIs
  20:../libs/PoliTeKDSP/libs/DaisySP/Source/Utility/dsp.h **** */
  21:../libs/PoliTeKDSP/libs/DaisySP/Source/Utility/dsp.h **** #define PI_F 3.1415927410125732421875f
  22:../libs/PoliTeKDSP/libs/DaisySP/Source/Utility/dsp.h **** #define TWOPI_F (2.0f * PI_F)
  23:../libs/PoliTeKDSP/libs/DaisySP/Source/Utility/dsp.h **** #define HALFPI_F (PI_F * 0.5f)
  24:../libs/PoliTeKDSP/libs/DaisySP/Source/Utility/dsp.h **** #define DSY_MIN(in, mn) (in < mn ? in : mn)
  25:../libs/PoliTeKDSP/libs/DaisySP/Source/Utility/dsp.h **** #define DSY_MAX(in, mx) (in > mx ? in : mx)
  26:../libs/PoliTeKDSP/libs/DaisySP/Source/Utility/dsp.h **** #define DSY_CLAMP(in, mn, mx) (DSY_MIN(DSY_MAX(in, mn), mx))
  27:../libs/PoliTeKDSP/libs/DaisySP/Source/Utility/dsp.h **** #define DSY_COUNTOF(_arr) (sizeof(_arr) / sizeof(_arr[0]))
  28:../libs/PoliTeKDSP/libs/DaisySP/Source/Utility/dsp.h **** 
  29:../libs/PoliTeKDSP/libs/DaisySP/Source/Utility/dsp.h **** namespace daisysp
  30:../libs/PoliTeKDSP/libs/DaisySP/Source/Utility/dsp.h **** {
  31:../libs/PoliTeKDSP/libs/DaisySP/Source/Utility/dsp.h **** //Avoids division for random floats. e.g. rand() * kRandFrac
  32:../libs/PoliTeKDSP/libs/DaisySP/Source/Utility/dsp.h **** static constexpr float kRandFrac = 1.f / (float)RAND_MAX;
  33:../libs/PoliTeKDSP/libs/DaisySP/Source/Utility/dsp.h **** 
  34:../libs/PoliTeKDSP/libs/DaisySP/Source/Utility/dsp.h **** //Convert from semitones to other units. e.g. 2 ^ (kOneTwelfth * x)
  35:../libs/PoliTeKDSP/libs/DaisySP/Source/Utility/dsp.h **** static constexpr float kOneTwelfth = 1.f / 12.f;
  36:../libs/PoliTeKDSP/libs/DaisySP/Source/Utility/dsp.h **** 
  37:../libs/PoliTeKDSP/libs/DaisySP/Source/Utility/dsp.h **** /** efficient floating point min/max
  38:../libs/PoliTeKDSP/libs/DaisySP/Source/Utility/dsp.h **** c/o stephen mccaul
  39:../libs/PoliTeKDSP/libs/DaisySP/Source/Utility/dsp.h **** */
  40:../libs/PoliTeKDSP/libs/DaisySP/Source/Utility/dsp.h **** inline float fmax(float a, float b)
  41:../libs/PoliTeKDSP/libs/DaisySP/Source/Utility/dsp.h **** {
  42:../libs/PoliTeKDSP/libs/DaisySP/Source/Utility/dsp.h ****     float r;
  43:../libs/PoliTeKDSP/libs/DaisySP/Source/Utility/dsp.h **** #ifdef __arm__
  44:../libs/PoliTeKDSP/libs/DaisySP/Source/Utility/dsp.h ****     asm("vmaxnm.f32 %[d], %[n], %[m]" : [d] "=t"(r) : [n] "t"(a), [m] "t"(b) :);
  45:../libs/PoliTeKDSP/libs/DaisySP/Source/Utility/dsp.h **** #else
  46:../libs/PoliTeKDSP/libs/DaisySP/Source/Utility/dsp.h ****     r = (a > b) ? a : b;
  47:../libs/PoliTeKDSP/libs/DaisySP/Source/Utility/dsp.h **** #endif // __arm__
  48:../libs/PoliTeKDSP/libs/DaisySP/Source/Utility/dsp.h ****     return r;
  49:../libs/PoliTeKDSP/libs/DaisySP/Source/Utility/dsp.h **** }
  50:../libs/PoliTeKDSP/libs/DaisySP/Source/Utility/dsp.h **** 
ARM GAS  C:\Users\39351\AppData\Local\Temp\cccegpNG.s 			page 162


  51:../libs/PoliTeKDSP/libs/DaisySP/Source/Utility/dsp.h **** inline float fmin(float a, float b)
  52:../libs/PoliTeKDSP/libs/DaisySP/Source/Utility/dsp.h **** {
  53:../libs/PoliTeKDSP/libs/DaisySP/Source/Utility/dsp.h ****     float r;
  54:../libs/PoliTeKDSP/libs/DaisySP/Source/Utility/dsp.h **** #ifdef __arm__
  55:../libs/PoliTeKDSP/libs/DaisySP/Source/Utility/dsp.h ****     asm("vminnm.f32 %[d], %[n], %[m]" : [d] "=t"(r) : [n] "t"(a), [m] "t"(b) :);
  56:../libs/PoliTeKDSP/libs/DaisySP/Source/Utility/dsp.h **** #else
  57:../libs/PoliTeKDSP/libs/DaisySP/Source/Utility/dsp.h ****     r = (a < b) ? a : b;
  58:../libs/PoliTeKDSP/libs/DaisySP/Source/Utility/dsp.h **** #endif // __arm__
  59:../libs/PoliTeKDSP/libs/DaisySP/Source/Utility/dsp.h ****     return r;
  60:../libs/PoliTeKDSP/libs/DaisySP/Source/Utility/dsp.h **** }
  61:../libs/PoliTeKDSP/libs/DaisySP/Source/Utility/dsp.h **** 
  62:../libs/PoliTeKDSP/libs/DaisySP/Source/Utility/dsp.h **** /** quick fp clamp
  63:../libs/PoliTeKDSP/libs/DaisySP/Source/Utility/dsp.h **** */
  64:../libs/PoliTeKDSP/libs/DaisySP/Source/Utility/dsp.h **** inline float fclamp(float in, float min, float max)
 7495              		.loc 5 64 14 is_stmt 1 view .LVU1414
 7496              	.LBE2605:
  65:../libs/PoliTeKDSP/libs/DaisySP/Source/Utility/dsp.h **** {
  66:../libs/PoliTeKDSP/libs/DaisySP/Source/Utility/dsp.h ****     return fmin(fmax(in, min), max);
 7497              		.loc 5 66 5 view .LVU1415
 7498              	.LBB2612:
 7499              	.LBB2606:
 7500              	.LBI2606:
  40:../libs/PoliTeKDSP/libs/DaisySP/Source/Utility/dsp.h **** {
 7501              		.loc 5 40 14 view .LVU1416
 7502              	.LBB2607:
  42:../libs/PoliTeKDSP/libs/DaisySP/Source/Utility/dsp.h **** #ifdef __arm__
 7503              		.loc 5 42 5 view .LVU1417
  44:../libs/PoliTeKDSP/libs/DaisySP/Source/Utility/dsp.h **** #else
 7504              		.loc 5 44 5 view .LVU1418
 7505              	.LBE2607:
 7506              	.LBE2606:
 7507              	.LBE2612:
  94:PSP/PlantConditioner.cpp ****     
 7508              		.loc 1 94 24 is_stmt 0 view .LVU1419
 7509 00ce 77EEC77A 		vsub.f32	s15, s15, s14
 7510              	.LVL364:
 7511              	.LBB2613:
 7512              	.LBB2609:
 7513              	.LBB2608:
  44:../libs/PoliTeKDSP/libs/DaisySP/Source/Utility/dsp.h **** #else
 7514              		.loc 5 44 5 view .LVU1420
 7515              		.syntax unified
 7516              	@ 44 "../libs/PoliTeKDSP/libs/DaisySP/Source/Utility/dsp.h" 1
 7517 00d2 80FE080A 		vmaxnm.f32 s0, s0, s16
 7518              	@ 0 "" 2
 7519              	.LVL365:
  48:../libs/PoliTeKDSP/libs/DaisySP/Source/Utility/dsp.h **** }
 7520              		.loc 5 48 5 is_stmt 1 view .LVU1421
  48:../libs/PoliTeKDSP/libs/DaisySP/Source/Utility/dsp.h **** }
 7521              		.loc 5 48 5 is_stmt 0 view .LVU1422
 7522              		.thumb
 7523              		.syntax unified
 7524              	.LBE2608:
 7525              	.LBE2609:
 7526              	.LBB2610:
 7527              	.LBI2610:
  51:../libs/PoliTeKDSP/libs/DaisySP/Source/Utility/dsp.h **** {
ARM GAS  C:\Users\39351\AppData\Local\Temp\cccegpNG.s 			page 163


 7528              		.loc 5 51 14 is_stmt 1 view .LVU1423
 7529              	.LBB2611:
  53:../libs/PoliTeKDSP/libs/DaisySP/Source/Utility/dsp.h **** #ifdef __arm__
 7530              		.loc 5 53 5 view .LVU1424
  55:../libs/PoliTeKDSP/libs/DaisySP/Source/Utility/dsp.h **** #else
 7531              		.loc 5 55 5 view .LVU1425
 7532              		.syntax unified
 7533              	@ 55 "../libs/PoliTeKDSP/libs/DaisySP/Source/Utility/dsp.h" 1
 7534 00d6 80FE670A 		vminnm.f32 s0, s0, s15
 7535              	@ 0 "" 2
 7536              	.LVL366:
  59:../libs/PoliTeKDSP/libs/DaisySP/Source/Utility/dsp.h **** }
 7537              		.loc 5 59 5 view .LVU1426
  59:../libs/PoliTeKDSP/libs/DaisySP/Source/Utility/dsp.h **** }
 7538              		.loc 5 59 5 is_stmt 0 view .LVU1427
 7539              		.thumb
 7540              		.syntax unified
 7541              	.LBE2611:
 7542              	.LBE2610:
 7543              	.LBE2613:
  94:PSP/PlantConditioner.cpp ****     
 7544              		.loc 1 94 16 view .LVU1428
 7545 00da 89ED000A 		vstr.32	s0, [r9]
 7546              		.loc 1 100 5 is_stmt 1 view .LVU1429
 7547              	.LBB2614:
 7548              		.loc 1 100 49 is_stmt 0 view .LVU1430
 7549 00de 95F8CD37 		ldrb	r3, [r5, #1997]	@ zero_extendqisi2
 7550              		.loc 1 100 5 view .LVU1431
 7551 00e2 01DB     		blt	.L47
 7552              		.loc 1 100 29 discriminator 1 view .LVU1432
 7553 00e4 9A42     		cmp	r2, r3
 7554 00e6 61DB     		blt	.L61
 7555              	.L47:
 7556              	.LVL367:
 7557              		.loc 1 100 29 discriminator 1 view .LVU1433
 7558              	.LBE2614:
 7559              	.LBB2615:
 101:PSP/PlantConditioner.cpp ****         int i = _lastNoteIndex;
 102:PSP/PlantConditioner.cpp ****         
 103:PSP/PlantConditioner.cpp ****         // Ricalcoliamo i limiti SOLO per la nota corrente
 104:PSP/PlantConditioner.cpp ****         float pct_lower = (float)i / _scaleLength;
 105:PSP/PlantConditioner.cpp ****         float pct_upper = (float)(i+1) / _scaleLength;
 106:PSP/PlantConditioner.cpp ****         
 107:PSP/PlantConditioner.cpp ****         float lower = _deltaMin + _range * powf(pct_lower, _curveType);
 108:PSP/PlantConditioner.cpp ****         float upper = _deltaMin + _range * powf(pct_upper, _curveType);
 109:PSP/PlantConditioner.cpp ****         float hyst  = _histeresis * powf(pct_upper, _curveType); // Isteresi corretta
 110:PSP/PlantConditioner.cpp **** 
 111:PSP/PlantConditioner.cpp ****         // Allarghiamo i confini
 112:PSP/PlantConditioner.cpp ****         lower -= hyst;
 113:PSP/PlantConditioner.cpp ****         upper += hyst;
 114:PSP/PlantConditioner.cpp **** 
 115:PSP/PlantConditioner.cpp ****         // Se siamo ancora dentro questi confini allargati, NON cambiare nulla!
 116:PSP/PlantConditioner.cpp ****         if (_deltaFilt >= lower && _deltaFilt < upper) {
 117:PSP/PlantConditioner.cpp ****             return _lastFreq; // Ritorna subito, ignora il loop sotto
 118:PSP/PlantConditioner.cpp ****         }
 119:PSP/PlantConditioner.cpp ****     }
 120:PSP/PlantConditioner.cpp **** 
ARM GAS  C:\Users\39351\AppData\Local\Temp\cccegpNG.s 			page 164


 121:PSP/PlantConditioner.cpp ****     // ---------------------------------------------------------
 122:PSP/PlantConditioner.cpp ****     // FASE 2: RICERCA (Se siamo usciti dalla nota corrente)
 123:PSP/PlantConditioner.cpp ****     // ---------------------------------------------------------
 124:PSP/PlantConditioner.cpp ****     for (int i = 0; i < _scaleLength; i++) {
 7560              		.loc 1 124 23 is_stmt 1 discriminator 1 view .LVU1434
 7561 00e8 F3B3     		cbz	r3, .L43
 7562 00ea DFED588A 		vldr.32	s17, .L64+4
 7563              		.loc 1 124 23 is_stmt 0 view .LVU1435
 7564 00ee 0024     		movs	r4, #0
 7565              	.LVL368:
 7566              		.loc 1 124 23 view .LVU1436
 7567 00f0 05F5FB68 		add	r8, r5, #2008
 7568 00f4 05F5F967 		add	r7, r5, #1992
 7569              	.LVL369:
 7570              	.L46:
 7571              	.LBB2616:
 125:PSP/PlantConditioner.cpp ****         // Se siamo qui, non siamo nella nota corrente, quindi calcoliamo
 126:PSP/PlantConditioner.cpp ****         // i bin "puliti" senza isteresi (o con isteresi minima standard)
 127:PSP/PlantConditioner.cpp ****         
 128:PSP/PlantConditioner.cpp ****         float lower = _deltaMin + _range * powf((float)i / _scaleLength, _curveType);
 7572              		.loc 1 128 9 is_stmt 1 view .LVU1437
 7573              		.loc 1 128 48 is_stmt 0 view .LVU1438
 7574 00f8 07EE903A 		vmov	s15, r3	@ int
 7575 00fc A346     		mov	fp, r4
 129:PSP/PlantConditioner.cpp ****         float upper = _deltaMin + _range * powf((float)(i+1) / _scaleLength, _curveType);
 7576              		.loc 1 129 58 view .LVU1439
 7577 00fe 0134     		adds	r4, r4, #1
 7578              	.LVL370:
 128:PSP/PlantConditioner.cpp ****         float upper = _deltaMin + _range * powf((float)(i+1) / _scaleLength, _curveType);
 7579              		.loc 1 128 48 view .LVU1440
 7580 0100 D7ED000A 		vldr.32	s1, [r7]
 7581 0104 B8EEE70A 		vcvt.f32.s32	s0, s15
 128:PSP/PlantConditioner.cpp ****         float upper = _deltaMin + _range * powf((float)(i+1) / _scaleLength, _curveType);
 7582              		.loc 1 128 35 view .LVU1441
 7583 0108 98ED009A 		vldr.32	s18, [r8]
 128:PSP/PlantConditioner.cpp ****         float upper = _deltaMin + _range * powf((float)(i+1) / _scaleLength, _curveType);
 7584              		.loc 1 128 23 view .LVU1442
 7585 010c 96ED008A 		vldr.32	s16, [r6]
 128:PSP/PlantConditioner.cpp ****         float upper = _deltaMin + _range * powf((float)(i+1) / _scaleLength, _curveType);
 7586              		.loc 1 128 48 view .LVU1443
 7587 0110 88EE800A 		vdiv.f32	s0, s17, s0
 7588 0114 FFF7FEFF 		bl	powf
 7589              	.LVL371:
 7590              		.loc 1 129 64 view .LVU1444
 7591 0118 95F8CD37 		ldrb	r3, [r5, #1997]	@ zero_extendqisi2
 7592              		.loc 1 129 49 view .LVU1445
 7593 011c 07EE904A 		vmov	s15, r4	@ int
 7594              		.loc 1 129 48 view .LVU1446
 7595 0120 D7ED000A 		vldr.32	s1, [r7]
 7596              		.loc 1 129 35 view .LVU1447
 7597 0124 D8ED009A 		vldr.32	s19, [r8]
 7598              		.loc 1 129 49 view .LVU1448
 7599 0128 F8EEE78A 		vcvt.f32.s32	s17, s15
 7600              		.loc 1 129 48 view .LVU1449
 7601 012c 07EE903A 		vmov	s15, r3	@ int
 128:PSP/PlantConditioner.cpp ****         float upper = _deltaMin + _range * powf((float)(i+1) / _scaleLength, _curveType);
 7602              		.loc 1 128 84 view .LVU1450
ARM GAS  C:\Users\39351\AppData\Local\Temp\cccegpNG.s 			page 165


 7603 0130 A9EE008A 		vfma.f32	s16, s18, s0
 7604              	.LVL372:
 7605              		.loc 1 129 9 is_stmt 1 view .LVU1451
 7606              		.loc 1 129 23 is_stmt 0 view .LVU1452
 7607 0134 96ED009A 		vldr.32	s18, [r6]
 7608              		.loc 1 129 48 view .LVU1453
 7609 0138 B8EEE70A 		vcvt.f32.s32	s0, s15
 7610 013c 88EE800A 		vdiv.f32	s0, s17, s0
 7611 0140 FFF7FEFF 		bl	powf
 7612              	.LVL373:
 7613              		.loc 1 129 48 view .LVU1454
 7614              	.LBE2616:
 124:PSP/PlantConditioner.cpp ****         // Se siamo qui, non siamo nella nota corrente, quindi calcoliamo
 7615              		.loc 1 124 23 is_stmt 1 view .LVU1455
 7616              	.LBB2617:
 130:PSP/PlantConditioner.cpp ****         
 131:PSP/PlantConditioner.cpp ****         if (_deltaFilt >= lower && _deltaFilt < upper) {
 7617              		.loc 1 131 13 is_stmt 0 view .LVU1456
 7618 0144 D9ED007A 		vldr.32	s15, [r9]
 7619              	.LVL374:
 7620              		.loc 1 131 9 is_stmt 1 view .LVU1457
 7621 0148 F4EEC87A 		vcmpe.f32	s15, s16
 7622 014c F1EE10FA 		vmrs	APSR_nzcv, FPSCR
 7623 0150 06DB     		blt	.L51
 129:PSP/PlantConditioner.cpp ****         
 7624              		.loc 1 129 88 is_stmt 0 discriminator 1 view .LVU1458
 7625 0152 A9EE809A 		vfma.f32	s18, s19, s0
 7626              	.LVL375:
 7627              		.loc 1 131 33 discriminator 1 view .LVU1459
 7628 0156 F4EEC97A 		vcmpe.f32	s15, s18
 7629 015a F1EE10FA 		vmrs	APSR_nzcv, FPSCR
 7630 015e 0AD4     		bmi	.L62
 7631              	.L51:
 7632              	.LBE2617:
 124:PSP/PlantConditioner.cpp ****         // Se siamo qui, non siamo nella nota corrente, quindi calcoliamo
 7633              		.loc 1 124 25 discriminator 1 view .LVU1460
 7634 0160 95F8CD37 		ldrb	r3, [r5, #1997]	@ zero_extendqisi2
 124:PSP/PlantConditioner.cpp ****         // Se siamo qui, non siamo nella nota corrente, quindi calcoliamo
 7635              		.loc 1 124 23 discriminator 1 view .LVU1461
 7636 0164 A342     		cmp	r3, r4
 7637 0166 C7DC     		bgt	.L46
 7638              	.LVL376:
 7639              	.L43:
 124:PSP/PlantConditioner.cpp ****         // Se siamo qui, non siamo nella nota corrente, quindi calcoliamo
 7640              		.loc 1 124 23 discriminator 1 view .LVU1462
 7641              	.LBE2615:
 132:PSP/PlantConditioner.cpp ****             out = _scale[i] * (1 << _octave);
 133:PSP/PlantConditioner.cpp ****             _lastNoteIndex = i; // Aggiorna la nuova nota corrente
 134:PSP/PlantConditioner.cpp ****             _lastFreq = out;    // Aggiorna la frequenza
 135:PSP/PlantConditioner.cpp ****             break;
 136:PSP/PlantConditioner.cpp ****         }
 137:PSP/PlantConditioner.cpp ****     }
 138:PSP/PlantConditioner.cpp ****     
 139:PSP/PlantConditioner.cpp ****     return out;
 140:PSP/PlantConditioner.cpp **** }
 7642              		.loc 1 140 1 view .LVU1463
 7643 0168 B0EE4A0A 		vmov.f32	s0, s20
ARM GAS  C:\Users\39351\AppData\Local\Temp\cccegpNG.s 			page 166


 7644 016c 07B0     		add	sp, sp, #28
 7645              		.cfi_remember_state
 7646              		.cfi_def_cfa_offset 60
 7647              		@ sp needed
 7648 016e BDEC068B 		vldm	sp!, {d8-d10}
 7649              		.cfi_restore 84
 7650              		.cfi_restore 85
 7651              		.cfi_restore 82
 7652              		.cfi_restore 83
 7653              		.cfi_restore 80
 7654              		.cfi_restore 81
 7655              		.cfi_def_cfa_offset 36
 7656 0172 BDE8F08F 		pop	{r4, r5, r6, r7, r8, r9, r10, fp, pc}
 7657              	.LVL377:
 7658              	.L62:
 7659              		.cfi_restore_state
 7660              	.LBB2620:
 7661              	.LBB2618:
 132:PSP/PlantConditioner.cpp ****             out = _scale[i] * (1 << _octave);
 7662              		.loc 1 132 13 is_stmt 1 view .LVU1464
 132:PSP/PlantConditioner.cpp ****             out = _scale[i] * (1 << _octave);
 7663              		.loc 1 132 37 is_stmt 0 view .LVU1465
 7664 0176 95F8CC27 		ldrb	r2, [r5, #1996]	@ zero_extendqisi2
 132:PSP/PlantConditioner.cpp ****             out = _scale[i] * (1 << _octave);
 7665              		.loc 1 132 34 view .LVU1466
 7666 017a 0123     		movs	r3, #1
 7667 017c 9340     		lsls	r3, r3, r2
 7668 017e 0AEE103A 		vmov	s20, r3	@ int
 7669              	.LVL378:
 132:PSP/PlantConditioner.cpp ****             out = _scale[i] * (1 << _octave);
 7670              		.loc 1 132 27 view .LVU1467
 7671 0182 0BF50173 		add	r3, fp, #516
 7672 0186 05EB8303 		add	r3, r5, r3, lsl #2
 132:PSP/PlantConditioner.cpp ****             out = _scale[i] * (1 << _octave);
 7673              		.loc 1 132 29 view .LVU1468
 7674 018a B8EECAAA 		vcvt.f32.s32	s20, s20
 132:PSP/PlantConditioner.cpp ****             out = _scale[i] * (1 << _octave);
 7675              		.loc 1 132 17 view .LVU1469
 7676 018e D3ED017A 		vldr.32	s15, [r3, #4]
 133:PSP/PlantConditioner.cpp ****             _lastFreq = out;    // Aggiorna la frequenza
 7677              		.loc 1 133 28 view .LVU1470
 7678 0192 C5F8C0B7 		str	fp, [r5, #1984]
 132:PSP/PlantConditioner.cpp ****             out = _scale[i] * (1 << _octave);
 7679              		.loc 1 132 17 view .LVU1471
 7680 0196 2AEE27AA 		vmul.f32	s20, s20, s15
 7681              	.LVL379:
 133:PSP/PlantConditioner.cpp ****             _lastFreq = out;    // Aggiorna la frequenza
 7682              		.loc 1 133 13 is_stmt 1 view .LVU1472
 134:PSP/PlantConditioner.cpp ****             break;
 7683              		.loc 1 134 13 view .LVU1473
 7684              	.LBE2618:
 7685              	.LBE2620:
 7686              		.loc 1 140 1 is_stmt 0 view .LVU1474
 7687 019a B0EE4A0A 		vmov.f32	s0, s20
 7688              	.LBB2621:
 7689              	.LBB2619:
 134:PSP/PlantConditioner.cpp ****             break;
ARM GAS  C:\Users\39351\AppData\Local\Temp\cccegpNG.s 			page 167


 7690              		.loc 1 134 23 view .LVU1475
 7691 019e 8AED00AA 		vstr.32	s20, [r10]
 135:PSP/PlantConditioner.cpp ****         }
 7692              		.loc 1 135 13 is_stmt 1 view .LVU1476
 7693              	.LVL380:
 135:PSP/PlantConditioner.cpp ****         }
 7694              		.loc 1 135 13 is_stmt 0 view .LVU1477
 7695              	.LBE2619:
 7696              	.LBE2621:
 7697              		.loc 1 140 1 view .LVU1478
 7698 01a2 07B0     		add	sp, sp, #28
 7699              		.cfi_remember_state
 7700              		.cfi_def_cfa_offset 60
 7701              		@ sp needed
 7702 01a4 BDEC068B 		vldm	sp!, {d8-d10}
 7703              		.cfi_restore 84
 7704              		.cfi_restore 85
 7705              		.cfi_restore 82
 7706              		.cfi_restore 83
 7707              		.cfi_restore 80
 7708              		.cfi_restore 81
 7709              		.cfi_def_cfa_offset 36
 7710              	.LVL381:
 7711              		.loc 1 140 1 view .LVU1479
 7712 01a8 BDE8F08F 		pop	{r4, r5, r6, r7, r8, r9, r10, fp, pc}
 7713              	.LVL382:
 7714              	.L61:
 7715              		.cfi_restore_state
 7716              	.LBB2622:
 7717              	.LBB2602:
 101:PSP/PlantConditioner.cpp ****         
 7718              		.loc 1 101 9 is_stmt 1 view .LVU1480
 104:PSP/PlantConditioner.cpp ****         float pct_upper = (float)(i+1) / _scaleLength;
 7719              		.loc 1 104 9 view .LVU1481
 104:PSP/PlantConditioner.cpp ****         float pct_upper = (float)(i+1) / _scaleLength;
 7720              		.loc 1 104 27 is_stmt 0 view .LVU1482
 7721 01ac 07EE102A 		vmov	s14, r2	@ int
 105:PSP/PlantConditioner.cpp ****         
 7722              		.loc 1 105 36 view .LVU1483
 7723 01b0 0132     		adds	r2, r2, #1
 7724              	.LVL383:
 104:PSP/PlantConditioner.cpp ****         float pct_upper = (float)(i+1) / _scaleLength;
 7725              		.loc 1 104 36 view .LVU1484
 7726 01b2 07EE903A 		vmov	s15, r3	@ int
 107:PSP/PlantConditioner.cpp ****         float upper = _deltaMin + _range * powf(pct_upper, _curveType);
 7727              		.loc 1 107 35 view .LVU1485
 7728 01b6 05F5FB68 		add	r8, r5, #2008
 104:PSP/PlantConditioner.cpp ****         float pct_upper = (float)(i+1) / _scaleLength;
 7729              		.loc 1 104 27 view .LVU1486
 7730 01ba B8EEC70A 		vcvt.f32.s32	s0, s14
 105:PSP/PlantConditioner.cpp ****         
 7731              		.loc 1 105 27 view .LVU1487
 7732 01be 07EE102A 		vmov	s14, r2	@ int
 7733              	.LVL384:
 104:PSP/PlantConditioner.cpp ****         float pct_upper = (float)(i+1) / _scaleLength;
 7734              		.loc 1 104 36 view .LVU1488
 7735 01c2 F8EEE77A 		vcvt.f32.s32	s15, s15
ARM GAS  C:\Users\39351\AppData\Local\Temp\cccegpNG.s 			page 168


 105:PSP/PlantConditioner.cpp ****         
 7736              		.loc 1 105 9 is_stmt 1 view .LVU1489
 107:PSP/PlantConditioner.cpp ****         float upper = _deltaMin + _range * powf(pct_upper, _curveType);
 7737              		.loc 1 107 48 is_stmt 0 view .LVU1490
 7738 01c6 05F5F967 		add	r7, r5, #1992
 105:PSP/PlantConditioner.cpp ****         
 7739              		.loc 1 105 27 view .LVU1491
 7740 01ca B8EEC77A 		vcvt.f32.s32	s14, s14
 107:PSP/PlantConditioner.cpp ****         float upper = _deltaMin + _range * powf(pct_upper, _curveType);
 7741              		.loc 1 107 35 view .LVU1492
 7742 01ce 98ED009A 		vldr.32	s18, [r8]
 107:PSP/PlantConditioner.cpp ****         float upper = _deltaMin + _range * powf(pct_upper, _curveType);
 7743              		.loc 1 107 48 view .LVU1493
 7744 01d2 D7ED000A 		vldr.32	s1, [r7]
 7745 01d6 80EE270A 		vdiv.f32	s0, s0, s15
 105:PSP/PlantConditioner.cpp ****         
 7746              		.loc 1 105 15 view .LVU1494
 7747 01da C7EE278A 		vdiv.f32	s17, s14, s15
 7748              	.LVL385:
 107:PSP/PlantConditioner.cpp ****         float upper = _deltaMin + _range * powf(pct_upper, _curveType);
 7749              		.loc 1 107 9 is_stmt 1 view .LVU1495
 107:PSP/PlantConditioner.cpp ****         float upper = _deltaMin + _range * powf(pct_upper, _curveType);
 7750              		.loc 1 107 48 is_stmt 0 view .LVU1496
 7751 01de FFF7FEFF 		bl	powf
 7752              	.LVL386:
 108:PSP/PlantConditioner.cpp ****         float hyst  = _histeresis * powf(pct_upper, _curveType); // Isteresi corretta
 7753              		.loc 1 108 48 view .LVU1497
 7754 01e2 D7ED000A 		vldr.32	s1, [r7]
 108:PSP/PlantConditioner.cpp ****         float hyst  = _histeresis * powf(pct_upper, _curveType); // Isteresi corretta
 7755              		.loc 1 108 35 view .LVU1498
 7756 01e6 D8ED00AA 		vldr.32	s21, [r8]
 107:PSP/PlantConditioner.cpp ****         float upper = _deltaMin + _range * powf(pct_upper, _curveType);
 7757              		.loc 1 107 70 view .LVU1499
 7758 01ea A9EE008A 		vfma.f32	s16, s18, s0
 7759              	.LVL387:
 108:PSP/PlantConditioner.cpp ****         float hyst  = _histeresis * powf(pct_upper, _curveType); // Isteresi corretta
 7760              		.loc 1 108 9 is_stmt 1 view .LVU1500
 108:PSP/PlantConditioner.cpp ****         float hyst  = _histeresis * powf(pct_upper, _curveType); // Isteresi corretta
 7761              		.loc 1 108 23 is_stmt 0 view .LVU1501
 7762 01ee 96ED009A 		vldr.32	s18, [r6]
 108:PSP/PlantConditioner.cpp ****         float hyst  = _histeresis * powf(pct_upper, _curveType); // Isteresi corretta
 7763              		.loc 1 108 48 view .LVU1502
 7764 01f2 B0EE680A 		vmov.f32	s0, s17
 7765 01f6 FFF7FEFF 		bl	powf
 7766              	.LVL388:
 109:PSP/PlantConditioner.cpp **** 
 7767              		.loc 1 109 23 view .LVU1503
 7768 01fa 05F2BC73 		addw	r3, r5, #1980
 108:PSP/PlantConditioner.cpp ****         float hyst  = _histeresis * powf(pct_upper, _curveType); // Isteresi corretta
 7769              		.loc 1 108 48 view .LVU1504
 7770 01fe F0EE409A 		vmov.f32	s19, s0
 109:PSP/PlantConditioner.cpp **** 
 7771              		.loc 1 109 41 view .LVU1505
 7772 0202 D7ED000A 		vldr.32	s1, [r7]
 7773 0206 B0EE680A 		vmov.f32	s0, s17
 7774              	.LVL389:
 109:PSP/PlantConditioner.cpp **** 
ARM GAS  C:\Users\39351\AppData\Local\Temp\cccegpNG.s 			page 169


 7775              		.loc 1 109 9 is_stmt 1 view .LVU1506
 109:PSP/PlantConditioner.cpp **** 
 7776              		.loc 1 109 23 is_stmt 0 view .LVU1507
 7777 020a D3ED008A 		vldr.32	s17, [r3]
 7778              	.LVL390:
 109:PSP/PlantConditioner.cpp **** 
 7779              		.loc 1 109 41 view .LVU1508
 7780 020e FFF7FEFF 		bl	powf
 7781              	.LVL391:
 116:PSP/PlantConditioner.cpp ****             return _lastFreq; // Ritorna subito, ignora il loop sotto
 7782              		.loc 1 116 13 view .LVU1509
 7783 0212 99ED007A 		vldr.32	s14, [r9]
 109:PSP/PlantConditioner.cpp **** 
 7784              		.loc 1 109 63 view .LVU1510
 7785 0216 68EE807A 		vmul.f32	s15, s17, s0
 7786              	.LVL392:
 112:PSP/PlantConditioner.cpp ****         upper += hyst;
 7787              		.loc 1 112 9 is_stmt 1 view .LVU1511
 113:PSP/PlantConditioner.cpp **** 
 7788              		.loc 1 113 9 view .LVU1512
 116:PSP/PlantConditioner.cpp ****             return _lastFreq; // Ritorna subito, ignora il loop sotto
 7789              		.loc 1 116 9 view .LVU1513
 112:PSP/PlantConditioner.cpp ****         upper += hyst;
 7790              		.loc 1 112 15 is_stmt 0 view .LVU1514
 7791 021a 38EE678A 		vsub.f32	s16, s16, s15
 7792              	.LVL393:
 116:PSP/PlantConditioner.cpp ****             return _lastFreq; // Ritorna subito, ignora il loop sotto
 7793              		.loc 1 116 9 view .LVU1515
 7794 021e B4EEC87A 		vcmpe.f32	s14, s16
 7795 0222 F1EE10FA 		vmrs	APSR_nzcv, FPSCR
 7796 0226 08DB     		blt	.L49
 108:PSP/PlantConditioner.cpp ****         float hyst  = _histeresis * powf(pct_upper, _curveType); // Isteresi corretta
 7797              		.loc 1 108 70 discriminator 1 view .LVU1516
 7798 0228 AAEEA99A 		vfma.f32	s18, s21, s19
 7799              	.LVL394:
 113:PSP/PlantConditioner.cpp **** 
 7800              		.loc 1 113 15 discriminator 1 view .LVU1517
 7801 022c 79EE277A 		vadd.f32	s15, s18, s15
 7802              	.LVL395:
 116:PSP/PlantConditioner.cpp ****             return _lastFreq; // Ritorna subito, ignora il loop sotto
 7803              		.loc 1 116 33 discriminator 1 view .LVU1518
 7804 0230 B4EEE77A 		vcmpe.f32	s14, s15
 7805 0234 F1EE10FA 		vmrs	APSR_nzcv, FPSCR
 7806 0238 02D4     		bmi	.L63
 7807              	.L49:
 116:PSP/PlantConditioner.cpp ****             return _lastFreq; // Ritorna subito, ignora il loop sotto
 7808              		.loc 1 116 33 discriminator 1 view .LVU1519
 7809              	.LBE2602:
 7810              	.LBE2622:
 7811              	.LBB2623:
 124:PSP/PlantConditioner.cpp ****         // Se siamo qui, non siamo nella nota corrente, quindi calcoliamo
 7812              		.loc 1 124 25 view .LVU1520
 7813 023a 95F8CD37 		ldrb	r3, [r5, #1997]	@ zero_extendqisi2
 7814 023e 53E7     		b	.L47
 7815              	.L63:
 124:PSP/PlantConditioner.cpp ****         // Se siamo qui, non siamo nella nota corrente, quindi calcoliamo
 7816              		.loc 1 124 25 view .LVU1521
ARM GAS  C:\Users\39351\AppData\Local\Temp\cccegpNG.s 			page 170


 7817              	.LBE2623:
 7818              	.LBB2624:
 7819              	.LBB2603:
 117:PSP/PlantConditioner.cpp ****         }
 7820              		.loc 1 117 13 is_stmt 1 view .LVU1522
 117:PSP/PlantConditioner.cpp ****         }
 7821              		.loc 1 117 20 is_stmt 0 view .LVU1523
 7822 0240 9AED00AA 		vldr.32	s20, [r10]
 7823              	.LVL396:
 117:PSP/PlantConditioner.cpp ****         }
 7824              		.loc 1 117 20 view .LVU1524
 7825 0244 90E7     		b	.L43
 7826              	.L65:
 7827 0246 00BF     		.align	2
 7828              	.L64:
 7829 0248 6F12833A 		.word	981668463
 7830 024c 00000000 		.word	0
 7831              	.LBE2603:
 7832              	.LBE2624:
 7833              		.cfi_endproc
 7834              	.LFE4915:
 7836              		.section	.text._ZN16PlantConditioner8setCurveEhf,"ax",%progbits
 7837              		.align	1
 7838              		.p2align 2,,3
 7839              		.global	_ZN16PlantConditioner8setCurveEhf
 7840              		.syntax unified
 7841              		.thumb
 7842              		.thumb_func
 7843              		.fpu fpv5-d16
 7845              	_ZN16PlantConditioner8setCurveEhf:
 7846              	.LVL397:
 7847              	.LFB4916:
 141:PSP/PlantConditioner.cpp **** 
 142:PSP/PlantConditioner.cpp **** void PlantConditioner::setCurve(uint8_t delta_max, float curve_type) {
 7848              		.loc 1 142 70 is_stmt 1 view -0
 7849              		.cfi_startproc
 7850              		@ args = 0, pretend = 0, frame = 0
 7851              		@ frame_needed = 0, uses_anonymous_args = 0
 143:PSP/PlantConditioner.cpp ****     _curveType = _curveFir.Process(curve_type);
 7852              		.loc 1 143 5 view .LVU1526
 142:PSP/PlantConditioner.cpp ****     _curveType = _curveFir.Process(curve_type);
 7853              		.loc 1 142 70 is_stmt 0 view .LVU1527
 7854 0000 10B5     		push	{r4, lr}
 7855              		.cfi_def_cfa_offset 8
 7856              		.cfi_offset 4, -8
 7857              		.cfi_offset 14, -4
 7858 0002 0446     		mov	r4, r0
 7859              		.loc 1 143 35 view .LVU1528
 7860 0004 00F58760 		add	r0, r0, #1080
 7861              	.LVL398:
 142:PSP/PlantConditioner.cpp ****     _curveType = _curveFir.Process(curve_type);
 7862              		.loc 1 142 70 view .LVU1529
 7863 0008 2DED028B 		vpush.64	{d8}
 7864              		.cfi_def_cfa_offset 16
 7865              		.cfi_offset 80, -16
 7866              		.cfi_offset 81, -12
 142:PSP/PlantConditioner.cpp ****     _curveType = _curveFir.Process(curve_type);
ARM GAS  C:\Users\39351\AppData\Local\Temp\cccegpNG.s 			page 171


 7867              		.loc 1 142 70 view .LVU1530
 7868 000c 08EE101A 		vmov	s16, r1	@ int
 7869              		.loc 1 143 35 view .LVU1531
 7870 0010 FFF7FEFF 		bl	_ZN6CapFir7ProcessEf
 7871              	.LVL399:
 7872              		.loc 1 143 35 view .LVU1532
 7873 0014 F0EE407A 		vmov.f32	s15, s0
 7874              		.loc 1 143 16 view .LVU1533
 7875 0018 04F5F963 		add	r3, r4, #1992
 144:PSP/PlantConditioner.cpp ****     
 145:PSP/PlantConditioner.cpp ****     // Assicuriamoci che deltaMax sia sempre maggiore di deltaMin
 146:PSP/PlantConditioner.cpp ****     float newMax = _maxFir.Process((float)delta_max);
 7876              		.loc 1 146 35 view .LVU1534
 7877 001c B8EE480A 		vcvt.f32.u32	s0, s16
 7878 0020 04F1B400 		add	r0, r4, #180
 143:PSP/PlantConditioner.cpp ****     
 7879              		.loc 1 143 16 view .LVU1535
 7880 0024 C3ED007A 		vstr.32	s15, [r3]
 7881              		.loc 1 146 5 is_stmt 1 view .LVU1536
 7882              		.loc 1 146 35 is_stmt 0 view .LVU1537
 7883 0028 FFF7FEFF 		bl	_ZN6CapFir7ProcessEf
 7884              	.LVL400:
 147:PSP/PlantConditioner.cpp ****     if (newMax <= _deltaMin) newMax = _deltaMin + 1.0f;
 7885              		.loc 1 147 19 view .LVU1538
 7886 002c 04F5FA63 		add	r3, r4, #2000
 7887              	.LVL401:
 7888              		.loc 1 147 5 is_stmt 1 view .LVU1539
 7889              		.loc 1 147 19 is_stmt 0 view .LVU1540
 7890 0030 D3ED007A 		vldr.32	s15, [r3]
 7891              		.loc 1 147 5 view .LVU1541
 7892 0034 F4EEC07A 		vcmpe.f32	s15, s0
 7893 0038 F1EE10FA 		vmrs	APSR_nzcv, FPSCR
 7894 003c 03DB     		blt	.L67
 7895              		.loc 1 147 30 is_stmt 1 discriminator 1 view .LVU1542
 7896              		.loc 1 147 37 is_stmt 0 discriminator 1 view .LVU1543
 7897 003e B7EE000A 		vmov.f32	s0, #1.0e+0
 7898              	.LVL402:
 7899              		.loc 1 147 37 discriminator 1 view .LVU1544
 7900 0042 37EE800A 		vadd.f32	s0, s15, s0
 7901              	.LVL403:
 7902              	.L67:
 148:PSP/PlantConditioner.cpp ****     
 149:PSP/PlantConditioner.cpp ****     _deltaMax = newMax;
 7903              		.loc 1 149 5 is_stmt 1 view .LVU1545
 150:PSP/PlantConditioner.cpp ****     _range = _deltaMax - _deltaMin;
 7904              		.loc 1 150 24 is_stmt 0 view .LVU1546
 7905 0046 70EE677A 		vsub.f32	s15, s0, s15
 149:PSP/PlantConditioner.cpp ****     _range = _deltaMax - _deltaMin;
 7906              		.loc 1 149 15 view .LVU1547
 7907 004a 04F2D473 		addw	r3, r4, #2004
 7908              		.loc 1 150 12 view .LVU1548
 7909 004e 04F5FB64 		add	r4, r4, #2008
 7910              	.LVL404:
 149:PSP/PlantConditioner.cpp ****     _range = _deltaMax - _deltaMin;
 7911              		.loc 1 149 15 view .LVU1549
 7912 0052 83ED000A 		vstr.32	s0, [r3]
 7913              		.loc 1 150 5 is_stmt 1 view .LVU1550
ARM GAS  C:\Users\39351\AppData\Local\Temp\cccegpNG.s 			page 172


 7914              		.loc 1 150 12 is_stmt 0 view .LVU1551
 7915 0056 C4ED007A 		vstr.32	s15, [r4]
 151:PSP/PlantConditioner.cpp **** }
 7916              		.loc 1 151 1 view .LVU1552
 7917 005a BDEC028B 		vldm	sp!, {d8}
 7918              		.cfi_restore 80
 7919              		.cfi_restore 81
 7920              		.cfi_def_cfa_offset 8
 7921 005e 10BD     		pop	{r4, pc}
 7922              		.loc 1 151 1 view .LVU1553
 7923              		.cfi_endproc
 7924              	.LFE4916:
 7926              		.section	.text._ZN16PlantConditioner6getBinEv,"ax",%progbits
 7927              		.align	1
 7928              		.p2align 2,,3
 7929              		.global	_ZN16PlantConditioner6getBinEv
 7930              		.syntax unified
 7931              		.thumb
 7932              		.thumb_func
 7933              		.fpu fpv5-d16
 7935              	_ZN16PlantConditioner6getBinEv:
 7936              	.LVL405:
 7937              	.LFB4917:
 152:PSP/PlantConditioner.cpp **** 
 153:PSP/PlantConditioner.cpp **** // DEBUG FUNCTIONS
 154:PSP/PlantConditioner.cpp **** float* PlantConditioner::getBin() {
 7938              		.loc 1 154 35 is_stmt 1 view -0
 7939              		.cfi_startproc
 7940              		@ args = 0, pretend = 0, frame = 0
 7941              		@ frame_needed = 0, uses_anonymous_args = 0
 155:PSP/PlantConditioner.cpp ****     for (int i = 0; i < _scaleLength; i++) {
 7942              		.loc 1 155 5 view .LVU1555
 7943              	.LBB2625:
 7944              		.loc 1 155 23 view .LVU1556
 7945              	.LBE2625:
 154:PSP/PlantConditioner.cpp ****     for (int i = 0; i < _scaleLength; i++) {
 7946              		.loc 1 154 35 is_stmt 0 view .LVU1557
 7947 0000 2DE9F047 		push	{r4, r5, r6, r7, r8, r9, r10, lr}
 7948              		.cfi_def_cfa_offset 32
 7949              		.cfi_offset 4, -32
 7950              		.cfi_offset 5, -28
 7951              		.cfi_offset 6, -24
 7952              		.cfi_offset 7, -20
 7953              		.cfi_offset 8, -16
 7954              		.cfi_offset 9, -12
 7955              		.cfi_offset 10, -8
 7956              		.cfi_offset 14, -4
 7957 0004 2DED048B 		vpush.64	{d8, d9}
 7958              		.cfi_def_cfa_offset 48
 7959              		.cfi_offset 80, -48
 7960              		.cfi_offset 81, -44
 7961              		.cfi_offset 82, -40
 7962              		.cfi_offset 83, -36
 7963              	.LBB2627:
 7964              		.loc 1 155 25 view .LVU1558
 7965 0008 90F8CD37 		ldrb	r3, [r0, #1997]	@ zero_extendqisi2
 7966              	.LBE2627:
ARM GAS  C:\Users\39351\AppData\Local\Temp\cccegpNG.s 			page 173


 154:PSP/PlantConditioner.cpp ****     for (int i = 0; i < _scaleLength; i++) {
 7967              		.loc 1 154 35 view .LVU1559
 7968 000c 0546     		mov	r5, r0
 7969 000e 00F2E479 		addw	r9, r0, #2020
 7970              	.LBB2628:
 7971              		.loc 1 155 23 view .LVU1560
 7972 0012 C3B3     		cbz	r3, .L72
 7973              		.loc 1 155 14 view .LVU1561
 7974 0014 0024     		movs	r4, #0
 7975 0016 00F5FA68 		add	r8, r0, #2000
 7976 001a 9FED1D9A 		vldr.32	s18, .L79
 7977 001e CA46     		mov	r10, r9
 7978 0020 00F5FB67 		add	r7, r0, #2008
 7979 0024 00F5F966 		add	r6, r0, #1992
 7980              	.LVL406:
 7981              	.L73:
 7982              	.LBB2626:
 156:PSP/PlantConditioner.cpp ****         float lower = _deltaMin + _range * powf((float)i / _scaleLength, _curveType);
 7983              		.loc 1 156 9 is_stmt 1 discriminator 2 view .LVU1562
 7984              		.loc 1 156 48 is_stmt 0 discriminator 2 view .LVU1563
 7985 0028 07EE903A 		vmov	s15, r3	@ int
 157:PSP/PlantConditioner.cpp ****         float upper = _deltaMin + _range * powf((float)(i+1) / _scaleLength, _curveType);
 7986              		.loc 1 157 58 discriminator 2 view .LVU1564
 7987 002c 0134     		adds	r4, r4, #1
 7988              	.LVL407:
 156:PSP/PlantConditioner.cpp ****         float lower = _deltaMin + _range * powf((float)i / _scaleLength, _curveType);
 7989              		.loc 1 156 48 discriminator 2 view .LVU1565
 7990 002e D6ED000A 		vldr.32	s1, [r6]
 7991 0032 B8EEE70A 		vcvt.f32.s32	s0, s15
 156:PSP/PlantConditioner.cpp ****         float lower = _deltaMin + _range * powf((float)i / _scaleLength, _curveType);
 7992              		.loc 1 156 35 discriminator 2 view .LVU1566
 7993 0036 D7ED009A 		vldr.32	s19, [r7]
 156:PSP/PlantConditioner.cpp ****         float lower = _deltaMin + _range * powf((float)i / _scaleLength, _curveType);
 7994              		.loc 1 156 23 discriminator 2 view .LVU1567
 7995 003a D8ED008A 		vldr.32	s17, [r8]
 156:PSP/PlantConditioner.cpp ****         float lower = _deltaMin + _range * powf((float)i / _scaleLength, _curveType);
 7996              		.loc 1 156 48 discriminator 2 view .LVU1568
 7997 003e 89EE000A 		vdiv.f32	s0, s18, s0
 7998 0042 FFF7FEFF 		bl	powf
 7999              	.LVL408:
 8000              		.loc 1 157 64 discriminator 2 view .LVU1569
 8001 0046 95F8CD37 		ldrb	r3, [r5, #1997]	@ zero_extendqisi2
 8002              		.loc 1 157 49 discriminator 2 view .LVU1570
 8003 004a 07EE904A 		vmov	s15, r4	@ int
 8004              		.loc 1 157 23 discriminator 2 view .LVU1571
 8005 004e 98ED008A 		vldr.32	s16, [r8]
 8006              		.loc 1 157 48 discriminator 2 view .LVU1572
 8007 0052 D6ED000A 		vldr.32	s1, [r6]
 8008              		.loc 1 157 49 discriminator 2 view .LVU1573
 8009 0056 B8EEE79A 		vcvt.f32.s32	s18, s15
 8010              		.loc 1 157 48 discriminator 2 view .LVU1574
 8011 005a 07EE903A 		vmov	s15, r3	@ int
 156:PSP/PlantConditioner.cpp ****         float lower = _deltaMin + _range * powf((float)i / _scaleLength, _curveType);
 8012              		.loc 1 156 84 discriminator 2 view .LVU1575
 8013 005e E9EE808A 		vfma.f32	s17, s19, s0
 8014              	.LVL409:
 8015              		.loc 1 157 9 is_stmt 1 discriminator 2 view .LVU1576
ARM GAS  C:\Users\39351\AppData\Local\Temp\cccegpNG.s 			page 174


 8016              		.loc 1 157 35 is_stmt 0 discriminator 2 view .LVU1577
 8017 0062 D7ED009A 		vldr.32	s19, [r7]
 8018              		.loc 1 157 48 discriminator 2 view .LVU1578
 8019 0066 B8EEE70A 		vcvt.f32.s32	s0, s15
 8020 006a 89EE000A 		vdiv.f32	s0, s18, s0
 8021 006e FFF7FEFF 		bl	powf
 8022              	.LVL410:
 8023              		.loc 1 157 88 discriminator 2 view .LVU1579
 8024 0072 A9EE808A 		vfma.f32	s16, s19, s0
 8025              	.LVL411:
 158:PSP/PlantConditioner.cpp ****         _bin[i] = upper - lower; 
 8026              		.loc 1 158 9 is_stmt 1 discriminator 2 view .LVU1580
 8027              		.loc 1 158 25 is_stmt 0 discriminator 2 view .LVU1581
 8028 0076 38EE688A 		vsub.f32	s16, s16, s17
 8029              	.LVL412:
 8030              		.loc 1 158 17 discriminator 2 view .LVU1582
 8031 007a AAEC018A 		vstmia.32	r10!, {s16}
 8032              	.LBE2626:
 155:PSP/PlantConditioner.cpp ****         float lower = _deltaMin + _range * powf((float)i / _scaleLength, _curveType);
 8033              		.loc 1 155 5 is_stmt 1 discriminator 2 view .LVU1583
 8034              	.LVL413:
 155:PSP/PlantConditioner.cpp ****         float lower = _deltaMin + _range * powf((float)i / _scaleLength, _curveType);
 8035              		.loc 1 155 23 discriminator 2 view .LVU1584
 155:PSP/PlantConditioner.cpp ****         float lower = _deltaMin + _range * powf((float)i / _scaleLength, _curveType);
 8036              		.loc 1 155 25 is_stmt 0 discriminator 2 view .LVU1585
 8037 007e 95F8CD37 		ldrb	r3, [r5, #1997]	@ zero_extendqisi2
 155:PSP/PlantConditioner.cpp ****         float lower = _deltaMin + _range * powf((float)i / _scaleLength, _curveType);
 8038              		.loc 1 155 23 discriminator 2 view .LVU1586
 8039 0082 A342     		cmp	r3, r4
 8040 0084 D0DC     		bgt	.L73
 8041              	.LVL414:
 8042              	.L72:
 155:PSP/PlantConditioner.cpp ****         float lower = _deltaMin + _range * powf((float)i / _scaleLength, _curveType);
 8043              		.loc 1 155 23 discriminator 2 view .LVU1587
 8044              	.LBE2628:
 159:PSP/PlantConditioner.cpp ****     }
 160:PSP/PlantConditioner.cpp ****     return _bin;
 8045              		.loc 1 160 5 is_stmt 1 view .LVU1588
 161:PSP/PlantConditioner.cpp **** }
 8046              		.loc 1 161 1 is_stmt 0 view .LVU1589
 8047 0086 4846     		mov	r0, r9
 8048 0088 BDEC048B 		vldm	sp!, {d8-d9}
 8049              		.cfi_restore 82
 8050              		.cfi_restore 83
 8051              		.cfi_restore 80
 8052              		.cfi_restore 81
 8053              		.cfi_def_cfa_offset 32
 8054 008c BDE8F087 		pop	{r4, r5, r6, r7, r8, r9, r10, pc}
 8055              	.LVL415:
 8056              	.L80:
 8057              		.loc 1 161 1 view .LVU1590
 8058              		.align	2
 8059              	.L79:
 8060 0090 00000000 		.word	0
 8061              		.cfi_endproc
 8062              	.LFE4917:
 8064              		.section	.text._ZN16PlantConditioner9setBufferEv,"ax",%progbits
ARM GAS  C:\Users\39351\AppData\Local\Temp\cccegpNG.s 			page 175


 8065              		.align	1
 8066              		.p2align 2,,3
 8067              		.global	_ZN16PlantConditioner9setBufferEv
 8068              		.syntax unified
 8069              		.thumb
 8070              		.thumb_func
 8071              		.fpu fpv5-d16
 8073              	_ZN16PlantConditioner9setBufferEv:
 8074              	.LVL416:
 8075              	.LFB4918:
 162:PSP/PlantConditioner.cpp **** 
 163:PSP/PlantConditioner.cpp **** void PlantConditioner::setBuffer() {
 8076              		.loc 1 163 36 is_stmt 1 view -0
 8077              		.cfi_startproc
 8078              		@ args = 0, pretend = 0, frame = 0
 8079              		@ frame_needed = 0, uses_anonymous_args = 0
 8080              		@ link register save eliminated.
 164:PSP/PlantConditioner.cpp ****     _delta = _deltaFilt;
 8081              		.loc 1 164 5 view .LVU1592
 8082              		.loc 1 164 14 is_stmt 0 view .LVU1593
 8083 0000 00F5FC63 		add	r3, r0, #2016
 8084              		.loc 1 164 12 view .LVU1594
 8085 0004 00F2DC70 		addw	r0, r0, #2012
 8086              	.LVL417:
 8087              		.loc 1 164 12 view .LVU1595
 8088 0008 1B68     		ldr	r3, [r3]	@ float
 8089 000a 0360     		str	r3, [r0]	@ float
 165:PSP/PlantConditioner.cpp **** }...
 8090              		.loc 1 165 1 view .LVU1596
 8091 000c 7047     		bx	lr
 8092              		.cfi_endproc
 8093              	.LFE4918:
 8095 000e 00BF     		.section	.rodata
 8096              		.align	2
 8097              		.set	.LANCHOR0,. + 0
 8098              	.LC0:
 8099 0000 CDCC8241 		.word	1099091149
 8100 0004 CDCC9241 		.word	1100139725
 8101 0008 CDCCA441 		.word	1101319373
 8102 000c D7A3AE41 		.word	1101964247
 8103 0010 0000C441 		.word	1103364096
 8104 0014 0000DC41 		.word	1104936960
 8105 0018 C3F5F641 		.word	1106703811
 8106              	.LC1:
 8107 001c CDCC8241 		.word	1099091149
 8108 0020 CDCC9241 		.word	1100139725
 8109 0024 9A999B41 		.word	1100716442
 8110 0028 D7A3AE41 		.word	1101964247
 8111 002c 0000C441 		.word	1103364096
 8112 0030 14AECF41 		.word	1104129556
 8113 0034 B81EE941 		.word	1105796792
 8114              	.LC2:
 8115 0038 CDCC8241 		.word	1099091149
 8116 003c CDCC9241 		.word	1100139725
 8117 0040 9A999B41 		.word	1100716442
 8118 0044 D7A3AE41 		.word	1101964247
 8119 0048 0000C441 		.word	1103364096
ARM GAS  C:\Users\39351\AppData\Local\Temp\cccegpNG.s 			page 176


 8120 004c 14AECF41 		.word	1104129556
 8121 0050 C3F5F641 		.word	1106703811
 8122              	.LC3:
 8123 0054 CDCC8241 		.word	1099091149
 8124 0058 CDCC9241 		.word	1100139725
 8125 005c 9A999B41 		.word	1100716442
 8126 0060 D7A3AE41 		.word	1101964247
 8127 0064 C3F5B841 		.word	1102640579
 8128 0068 0000DC41 		.word	1104936960
 8129 006c C3F5F641 		.word	1106703811
 8130              	.LC4:
 8131 0070 CDCC8241 		.word	1099091149
 8132 0074 CDCC9241 		.word	1100139725
 8133 0078 D7A3AE41 		.word	1101964247
 8134 007c 0000C441 		.word	1103364096
 8135 0080 0000DC41 		.word	1104936960
 8136              	.LC5:
 8137 0084 CDCC8241 		.word	1099091149
 8138 0088 5C8F8A41 		.word	1099599708
 8139 008c CDCC9241 		.word	1100139725
 8140 0090 9A999B41 		.word	1100716442
 8141 0094 CDCCA441 		.word	1101319373
 8142 0098 D7A3AE41 		.word	1101964247
 8143 009c C3F5B841 		.word	1102640579
 8144 00a0 0000C441 		.word	1103364096
 8145 00a4 14AECF41 		.word	1104129556
 8146 00a8 0000DC41 		.word	1104936960
 8147 00ac B81EE941 		.word	1105796792
 8148 00b0 C3F5F641 		.word	1106703811
 8149              	.LC6:
 8150 00b4 CDCC8241 		.word	1099091149
 8151 00b8 CDCC9241 		.word	1100139725
 8152 00bc CDCCA441 		.word	1101319373
 8153 00c0 D7A3AE41 		.word	1101964247
 8154 00c4 0000C441 		.word	1103364096
 8155 00c8 0000DC41 		.word	1104936960
 8156              		.text
 8157              	.Letext0:
 8158              		.file 6 "c:\\program files\\daisytoolchain\\arm-none-eabi\\include\\machine\\_default_types.h"
 8159              		.file 7 "c:\\program files\\daisytoolchain\\arm-none-eabi\\include\\sys\\_stdint.h"
 8160              		.file 8 "c:\\program files\\daisytoolchain\\arm-none-eabi\\include\\stdint.h"
 8161              		.file 9 "c:\\program files\\daisytoolchain\\lib\\gcc\\arm-none-eabi\\10.2.1\\include\\stddef.h"
 8162              		.file 10 "c:\\program files\\daisytoolchain\\arm-none-eabi\\include\\c++\\10.2.1\\cmath"
 8163              		.file 11 "c:\\program files\\daisytoolchain\\arm-none-eabi\\include\\c++\\10.2.1\\bits\\std_abs.h"
 8164              		.file 12 "c:\\program files\\daisytoolchain\\arm-none-eabi\\include\\c++\\10.2.1\\cstdint"
 8165              		.file 13 "c:\\program files\\daisytoolchain\\arm-none-eabi\\include\\c++\\10.2.1\\cstdlib"
 8166              		.file 14 "c:\\program files\\daisytoolchain\\arm-none-eabi\\include\\c++\\10.2.1\\type_traits"
 8167              		.file 15 "c:\\program files\\daisytoolchain\\arm-none-eabi\\include\\c++\\10.2.1\\debug\\debug.h"
 8168              		.file 16 "c:\\program files\\daisytoolchain\\arm-none-eabi\\include\\c++\\10.2.1\\cwchar"
 8169              		.file 17 "c:\\program files\\daisytoolchain\\arm-none-eabi\\include\\c++\\10.2.1\\bits\\stl_pair.h
 8170              		.file 18 "c:\\program files\\daisytoolchain\\arm-none-eabi\\include\\c++\\10.2.1\\bits\\exception_
 8171              		.file 19 "c:\\program files\\daisytoolchain\\arm-none-eabi\\include\\c++\\10.2.1\\arm-none-eabi\\t
 8172              		.file 20 "c:\\program files\\daisytoolchain\\arm-none-eabi\\include\\c++\\10.2.1\\clocale"
 8173              		.file 21 "c:\\program files\\daisytoolchain\\arm-none-eabi\\include\\c++\\10.2.1\\cstdio"
 8174              		.file 22 "c:\\program files\\daisytoolchain\\arm-none-eabi\\include\\c++\\10.2.1\\bits\\basic_stri
 8175              		.file 23 "c:\\program files\\daisytoolchain\\arm-none-eabi\\include\\c++\\10.2.1\\bits\\charconv.h
 8176              		.file 24 "c:\\program files\\daisytoolchain\\arm-none-eabi\\include\\c++\\10.2.1\\bits\\algorithmf
ARM GAS  C:\Users\39351\AppData\Local\Temp\cccegpNG.s 			page 177


 8177              		.file 25 "c:\\program files\\daisytoolchain\\arm-none-eabi\\include\\c++\\10.2.1\\cstring"
 8178              		.file 26 "c:\\program files\\daisytoolchain\\arm-none-eabi\\include\\c++\\10.2.1\\cstdarg"
 8179              		.file 27 "c:\\program files\\daisytoolchain\\arm-none-eabi\\include\\c++\\10.2.1\\cstddef"
 8180              		.file 28 "c:\\program files\\daisytoolchain\\arm-none-eabi\\include\\c++\\10.2.1\\bits\\predefined
 8181              		.file 29 "c:\\program files\\daisytoolchain\\arm-none-eabi\\include\\sys\\_types.h"
 8182              		.file 30 "c:\\program files\\daisytoolchain\\arm-none-eabi\\include\\sys\\reent.h"
 8183              		.file 31 "c:\\program files\\daisytoolchain\\arm-none-eabi\\include\\sys\\lock.h"
 8184              		.file 32 "c:\\program files\\daisytoolchain\\arm-none-eabi\\include\\math.h"
 8185              		.file 33 "c:\\program files\\daisytoolchain\\arm-none-eabi\\include\\stdlib.h"
 8186              		.file 34 "c:\\program files\\daisytoolchain\\arm-none-eabi\\include\\c++\\10.2.1\\math.h"
 8187              		.file 35 "../libs/PoliTeKDSP/libs/DaisySP/Source/Control/adenv.h"
 8188              		.file 36 "c:\\program files\\daisytoolchain\\lib\\gcc\\arm-none-eabi\\10.2.1\\include\\stdarg.h"
 8189              		.file 37 "c:\\program files\\daisytoolchain\\arm-none-eabi\\include\\wchar.h"
 8190              		.file 38 "c:\\program files\\daisytoolchain\\arm-none-eabi\\include\\locale.h"
 8191              		.file 39 "c:\\program files\\daisytoolchain\\arm-none-eabi\\include\\stdio.h"
 8192              		.file 40 "c:\\program files\\daisytoolchain\\arm-none-eabi\\include\\c++\\10.2.1\\stdlib.h"
 8193              		.file 41 "c:\\program files\\daisytoolchain\\arm-none-eabi\\include\\string.h"
 8194              		.file 42 "../libs/PoliTeKDSP/libs/libDaisy/src/per/tim.h"
 8195              		.file 43 "../libs/PoliTeKDSP/libs/libDaisy/src/sys/system.h"
 8196              		.file 44 "../libs/PoliTeKDSP/libs/libDaisy/src/per/qspi.h"
 8197              		.file 45 "../libs/PoliTeKDSP/libs/libDaisy/src/per/dac.h"
 8198              		.file 46 "../libs/PoliTeKDSP/libs/libDaisy/src/per/gpio.h"
 8199              		.file 47 "../libs/PoliTeKDSP/libs/libDaisy/src/per/sai.h"
 8200              		.file 48 "../libs/PoliTeKDSP/libs/libDaisy/src/hid/audio.h"
 8201              		.file 49 "../libs/PoliTeKDSP/libs/libDaisy/src/per/adc.h"
 8202              		.file 50 "../libs/PoliTeKDSP/libs/libDaisy/src/hid/usb.h"
 8203              		.file 51 "../libs/PoliTeKDSP/libs/libDaisy/src/dev/codec_ak4556.h"
 8204              		.file 52 "../libs/PoliTeKDSP/libs/libDaisy/src/dev/max11300.h"
 8205              		.file 53 "../libs/PoliTeKDSP/libs/libDaisy/src/dev/sr_595.h"
 8206              		.file 54 "../libs/PoliTeKDSP/libs/libDaisy/src/util/wav_format.h"
 8207              		.file 55 "../libs/PoliTeKDSP/libs/libDaisy/src/daisy_seed.h"
 8208              		.file 56 "../libs/PoliTeKDSP/libs/libDaisy/src/dev/sdram.h"
 8209              		.file 57 "../libs/PoliTeKDSP/libs/libDaisy/Middlewares/Third_Party/FatFs/src/integer.h"
 8210              		.file 58 "../libs/PoliTeKDSP/libs/libDaisy/Middlewares/Third_Party/FatFs/src/ff.h"
 8211              		.file 59 "PSP/../../libs/PoliTeKDSP/Utilities/DataFilter/IIR/iir.h"
 8212              		.file 60 "PSP/../../libs/PoliTeKDSP/Utilities/DataFilter/MF/MF.h"
 8213              		.file 61 "PSP/../../libs/PoliTeKDSP/Utilities/DataFilter/FIIR/CapFir.h"
 8214              		.file 62 "PSP/PlantConditioner.h"
 8215              		.file 63 "<built-in>"
ARM GAS  C:\Users\39351\AppData\Local\Temp\cccegpNG.s 			page 178


DEFINED SYMBOLS
                            *ABS*:00000000 PlantConditioner.cpp
C:\Users\39351\AppData\Local\Temp\cccegpNG.s:17     .text._ZN16PlantConditionerC2Ev:00000000 $t
C:\Users\39351\AppData\Local\Temp\cccegpNG.s:26     .text._ZN16PlantConditionerC2Ev:00000000 _ZN16PlantConditionerC2Ev
C:\Users\39351\AppData\Local\Temp\cccegpNG.s:430    .text._ZN16PlantConditionerC2Ev:00000168 $d
C:\Users\39351\AppData\Local\Temp\cccegpNG.s:26     .text._ZN16PlantConditionerC2Ev:00000000 _ZN16PlantConditionerC1Ev
C:\Users\39351\AppData\Local\Temp\cccegpNG.s:440    .text._ZN16PlantConditionerD2Ev:00000000 $t
C:\Users\39351\AppData\Local\Temp\cccegpNG.s:448    .text._ZN16PlantConditionerD2Ev:00000000 _ZN16PlantConditionerD2Ev
C:\Users\39351\AppData\Local\Temp\cccegpNG.s:448    .text._ZN16PlantConditionerD2Ev:00000000 _ZN16PlantConditionerD1Ev
C:\Users\39351\AppData\Local\Temp\cccegpNG.s:498    .text._ZN16PlantConditioner4InitEN3IIR10FilterTypeEPN5daisy9DaisySeedE:00000000 $t
C:\Users\39351\AppData\Local\Temp\cccegpNG.s:506    .text._ZN16PlantConditioner4InitEN3IIR10FilterTypeEPN5daisy9DaisySeedE:00000000 _ZN16PlantConditioner4InitEN3IIR10FilterTypeEPN5daisy9DaisySeedE
C:\Users\39351\AppData\Local\Temp\cccegpNG.s:6684   .text._ZN16PlantConditioner4InitEN3IIR10FilterTypeEPN5daisy9DaisySeedE:00000cf4 $d
C:\Users\39351\AppData\Local\Temp\cccegpNG.s:6689   .text._ZN16PlantConditioner8setScaleENS_5NotesENS_9ScaleTypeE:00000000 $t
C:\Users\39351\AppData\Local\Temp\cccegpNG.s:6697   .text._ZN16PlantConditioner8setScaleENS_5NotesENS_9ScaleTypeE:00000000 _ZN16PlantConditioner8setScaleENS_5NotesENS_9ScaleTypeE
C:\Users\39351\AppData\Local\Temp\cccegpNG.s:6719   .text._ZN16PlantConditioner8setScaleENS_5NotesENS_9ScaleTypeE:00000010 $d
C:\Users\39351\AppData\Local\Temp\cccegpNG.s:7061   .text._ZN16PlantConditioner9setOctaveEh:00000000 $t
C:\Users\39351\AppData\Local\Temp\cccegpNG.s:7069   .text._ZN16PlantConditioner9setOctaveEh:00000000 _ZN16PlantConditioner9setOctaveEh
C:\Users\39351\AppData\Local\Temp\cccegpNG.s:7086   .text._ZN16PlantConditioner7ProcessEv:00000000 $t
C:\Users\39351\AppData\Local\Temp\cccegpNG.s:7094   .text._ZN16PlantConditioner7ProcessEv:00000000 _ZN16PlantConditioner7ProcessEv
C:\Users\39351\AppData\Local\Temp\cccegpNG.s:7829   .text._ZN16PlantConditioner7ProcessEv:00000248 $d
C:\Users\39351\AppData\Local\Temp\cccegpNG.s:7837   .text._ZN16PlantConditioner8setCurveEhf:00000000 $t
C:\Users\39351\AppData\Local\Temp\cccegpNG.s:7845   .text._ZN16PlantConditioner8setCurveEhf:00000000 _ZN16PlantConditioner8setCurveEhf
C:\Users\39351\AppData\Local\Temp\cccegpNG.s:7927   .text._ZN16PlantConditioner6getBinEv:00000000 $t
C:\Users\39351\AppData\Local\Temp\cccegpNG.s:7935   .text._ZN16PlantConditioner6getBinEv:00000000 _ZN16PlantConditioner6getBinEv
C:\Users\39351\AppData\Local\Temp\cccegpNG.s:8060   .text._ZN16PlantConditioner6getBinEv:00000090 $d
C:\Users\39351\AppData\Local\Temp\cccegpNG.s:8065   .text._ZN16PlantConditioner9setBufferEv:00000000 $t
C:\Users\39351\AppData\Local\Temp\cccegpNG.s:8073   .text._ZN16PlantConditioner9setBufferEv:00000000 _ZN16PlantConditioner9setBufferEv
C:\Users\39351\AppData\Local\Temp\cccegpNG.s:8096   .rodata:00000000 $d
C:\Users\39351\AppData\Local\Temp\cccegpNG.s:6726   .text._ZN16PlantConditioner8setScaleENS_5NotesENS_9ScaleTypeE:00000017 $d
C:\Users\39351\AppData\Local\Temp\cccegpNG.s:6726   .text._ZN16PlantConditioner8setScaleENS_5NotesENS_9ScaleTypeE:00000018 $t

UNDEFINED SYMBOLS
_ZN3IIRC1Ev
_ZN2MFC1Ev
_ZN6CapFirC1Ev
_ZN6CapFirD1Ev
_ZN2MFD1Ev
_ZN3IIRD1Ev
_ZN5daisy9I2CHandle4InitERKNS0_6ConfigE
_ZN5daisy9I2CHandle17ReadDataAtAddressEtttPhtm
_ZN5daisy9I2CHandle18WriteDataAtAddressEtttPhtm
_ZN5daisy6System5DelayEm
_ZN5daisy9DaisySeed6SetLedEb
_ZN5daisy9DaisySeed7DelayMsEj
_ZN3IIR4InitENS_10FilterTypeE
_ZN2MF4InitEv
_ZN6CapFir4InitENS_7ResTypeE
powf
_ZN2MF7ProcessEf
_ZN3IIR7ProcessEf
_ZN6CapFir7ProcessEf
