ARM GAS  C:\Users\skipi\AppData\Local\Temp\ccnEQq3j.s 			page 1


   1              		.cpu cortex-m7
   2              		.eabi_attribute 28, 1
   3              		.eabi_attribute 20, 1
   4              		.eabi_attribute 21, 1
   5              		.eabi_attribute 23, 3
   6              		.eabi_attribute 24, 1
   7              		.eabi_attribute 25, 1
   8              		.eabi_attribute 26, 1
   9              		.eabi_attribute 30, 2
  10              		.eabi_attribute 34, 1
  11              		.eabi_attribute 18, 4
  12              		.file	"PlantConditioner.cpp"
  13              		.text
  14              	.Ltext0:
  15              		.cfi_sections	.debug_frame
  16              		.section	.text._ZN16PlantConditionerC2Ev,"ax",%progbits
  17              		.align	1
  18              		.p2align 2,,3
  19              		.global	_ZN16PlantConditionerC2Ev
  20              		.arch armv7e-m
  21              		.syntax unified
  22              		.thumb
  23              		.thumb_func
  24              		.fpu fpv5-d16
  26              	_ZN16PlantConditionerC2Ev:
  27              	.LVL0:
  28              	.LFB5072:
  29              		.file 1 "PSP/PlantConditioner.cpp"
   1:PSP/PlantConditioner.cpp **** #include "PlantConditioner.h"
   2:PSP/PlantConditioner.cpp **** 
   3:PSP/PlantConditioner.cpp **** 
   4:PSP/PlantConditioner.cpp **** using namespace daisysp;
   5:PSP/PlantConditioner.cpp **** 
   6:PSP/PlantConditioner.cpp **** PlantConditioner::PlantConditioner() {}
  30              		.loc 1 6 1 view -0
  31              		.cfi_startproc
  32              		@ args = 0, pretend = 0, frame = 24
  33              		@ frame_needed = 0, uses_anonymous_args = 0
  34              		.loc 1 6 1 is_stmt 0 view .LVU1
  35 0000 2DE9F04F 		push	{r4, r5, r6, r7, r8, r9, r10, fp, lr}
  36              		.cfi_def_cfa_offset 36
  37              		.cfi_offset 4, -36
  38              		.cfi_offset 5, -32
  39              		.cfi_offset 6, -28
  40              		.cfi_offset 7, -24
  41              		.cfi_offset 8, -20
  42              		.cfi_offset 9, -16
  43              		.cfi_offset 10, -12
  44              		.cfi_offset 11, -8
  45              		.cfi_offset 14, -4
  46              	.LBB196:
  47              	.LBB197:
  48              	.LBB198:
  49              	.LBB199:
  50              	.LBB200:
  51              		.file 2 "../libs/PoliTeKDSP/libs/libDaisy/src/dev/mpr121.h"
   1:../libs/PoliTeKDSP/libs/libDaisy/src/dev/mpr121.h **** #pragma once
ARM GAS  C:\Users\skipi\AppData\Local\Temp\ccnEQq3j.s 			page 2


   2:../libs/PoliTeKDSP/libs/libDaisy/src/dev/mpr121.h **** #ifndef DSY_MPR121_H
   3:../libs/PoliTeKDSP/libs/libDaisy/src/dev/mpr121.h **** #define DSY_MPR121_H
   4:../libs/PoliTeKDSP/libs/libDaisy/src/dev/mpr121.h **** 
   5:../libs/PoliTeKDSP/libs/libDaisy/src/dev/mpr121.h **** // The default I2C address
   6:../libs/PoliTeKDSP/libs/libDaisy/src/dev/mpr121.h **** #define MPR121_I2CADDR_DEFAULT 0x5A        ///< default I2C address
   7:../libs/PoliTeKDSP/libs/libDaisy/src/dev/mpr121.h **** #define MPR121_TOUCH_THRESHOLD_DEFAULT 3  ///< default touch threshold value
   8:../libs/PoliTeKDSP/libs/libDaisy/src/dev/mpr121.h **** #define MPR121_RELEASE_THRESHOLD_DEFAULT 2 ///< default relese threshold value
   9:../libs/PoliTeKDSP/libs/libDaisy/src/dev/mpr121.h **** 
  10:../libs/PoliTeKDSP/libs/libDaisy/src/dev/mpr121.h **** namespace daisy
  11:../libs/PoliTeKDSP/libs/libDaisy/src/dev/mpr121.h **** {
  12:../libs/PoliTeKDSP/libs/libDaisy/src/dev/mpr121.h **** /** @addtogroup external 
  13:../libs/PoliTeKDSP/libs/libDaisy/src/dev/mpr121.h ****     @{ 
  14:../libs/PoliTeKDSP/libs/libDaisy/src/dev/mpr121.h **** */
  15:../libs/PoliTeKDSP/libs/libDaisy/src/dev/mpr121.h **** 
  16:../libs/PoliTeKDSP/libs/libDaisy/src/dev/mpr121.h **** /** I2C Transport for MPR121 */
  17:../libs/PoliTeKDSP/libs/libDaisy/src/dev/mpr121.h **** class Mpr121I2CTransport
  18:../libs/PoliTeKDSP/libs/libDaisy/src/dev/mpr121.h **** {
  19:../libs/PoliTeKDSP/libs/libDaisy/src/dev/mpr121.h ****   public:
  20:../libs/PoliTeKDSP/libs/libDaisy/src/dev/mpr121.h ****     Mpr121I2CTransport() {}
  21:../libs/PoliTeKDSP/libs/libDaisy/src/dev/mpr121.h ****     ~Mpr121I2CTransport() {}
  22:../libs/PoliTeKDSP/libs/libDaisy/src/dev/mpr121.h **** 
  23:../libs/PoliTeKDSP/libs/libDaisy/src/dev/mpr121.h ****     struct Config
  24:../libs/PoliTeKDSP/libs/libDaisy/src/dev/mpr121.h ****     {
  25:../libs/PoliTeKDSP/libs/libDaisy/src/dev/mpr121.h ****         I2CHandle::Config::Peripheral periph;
  26:../libs/PoliTeKDSP/libs/libDaisy/src/dev/mpr121.h ****         I2CHandle::Config::Speed      speed;
  27:../libs/PoliTeKDSP/libs/libDaisy/src/dev/mpr121.h ****         Pin                           scl;
  28:../libs/PoliTeKDSP/libs/libDaisy/src/dev/mpr121.h ****         Pin                           sda;
  29:../libs/PoliTeKDSP/libs/libDaisy/src/dev/mpr121.h **** 
  30:../libs/PoliTeKDSP/libs/libDaisy/src/dev/mpr121.h ****         I2CHandle::Config::Mode mode;
  31:../libs/PoliTeKDSP/libs/libDaisy/src/dev/mpr121.h **** 
  32:../libs/PoliTeKDSP/libs/libDaisy/src/dev/mpr121.h ****         uint8_t dev_addr;
  33:../libs/PoliTeKDSP/libs/libDaisy/src/dev/mpr121.h **** 
  34:../libs/PoliTeKDSP/libs/libDaisy/src/dev/mpr121.h ****         Config()
  35:../libs/PoliTeKDSP/libs/libDaisy/src/dev/mpr121.h ****         {
  36:../libs/PoliTeKDSP/libs/libDaisy/src/dev/mpr121.h ****             periph = I2CHandle::Config::Peripheral::I2C_1;
  37:../libs/PoliTeKDSP/libs/libDaisy/src/dev/mpr121.h ****             speed  = I2CHandle::Config::Speed::I2C_400KHZ;
  52              		.loc 2 37 20 view .LVU2
  53 0004 0121     		movs	r1, #1
  36:../libs/PoliTeKDSP/libs/libDaisy/src/dev/mpr121.h ****             speed  = I2CHandle::Config::Speed::I2C_400KHZ;
  54              		.loc 2 36 20 view .LVU3
  55 0006 0024     		movs	r4, #0
  38:../libs/PoliTeKDSP/libs/libDaisy/src/dev/mpr121.h **** 
  39:../libs/PoliTeKDSP/libs/libDaisy/src/dev/mpr121.h ****             scl = Pin(PORTB, 8);
  40:../libs/PoliTeKDSP/libs/libDaisy/src/dev/mpr121.h ****             sda = Pin(PORTB, 9);
  41:../libs/PoliTeKDSP/libs/libDaisy/src/dev/mpr121.h **** 
  42:../libs/PoliTeKDSP/libs/libDaisy/src/dev/mpr121.h ****             dev_addr = MPR121_I2CADDR_DEFAULT;
  56              		.loc 2 42 22 view .LVU4
  57 0008 5A23     		movs	r3, #90
  58              	.LBE200:
  59              	.LBE199:
  60              	.LBE198:
  61              	.LBE197:
  62              	.LBE196:
  63              		.loc 1 6 1 view .LVU5
  64 000a 0546     		mov	r5, r0
  65              	.LVL1:
  66              	.LBB269:
ARM GAS  C:\Users\skipi\AppData\Local\Temp\ccnEQq3j.s 			page 3


  67              	.LBB218:
  68              	.LBI197:
  43:../libs/PoliTeKDSP/libs/libDaisy/src/dev/mpr121.h ****         }
  44:../libs/PoliTeKDSP/libs/libDaisy/src/dev/mpr121.h ****     };
  45:../libs/PoliTeKDSP/libs/libDaisy/src/dev/mpr121.h **** 
  46:../libs/PoliTeKDSP/libs/libDaisy/src/dev/mpr121.h ****     /** \return Did the transaction error? i.e. Return true if error, false if ok */
  47:../libs/PoliTeKDSP/libs/libDaisy/src/dev/mpr121.h ****     inline bool Init(Config config)
  48:../libs/PoliTeKDSP/libs/libDaisy/src/dev/mpr121.h ****     {
  49:../libs/PoliTeKDSP/libs/libDaisy/src/dev/mpr121.h ****         config_ = config;
  50:../libs/PoliTeKDSP/libs/libDaisy/src/dev/mpr121.h **** 
  51:../libs/PoliTeKDSP/libs/libDaisy/src/dev/mpr121.h ****         I2CHandle::Config i2c_conf;
  52:../libs/PoliTeKDSP/libs/libDaisy/src/dev/mpr121.h ****         i2c_conf.mode   = I2CHandle::Config::Mode::I2C_MASTER;
  53:../libs/PoliTeKDSP/libs/libDaisy/src/dev/mpr121.h ****         i2c_conf.periph = config.periph;
  54:../libs/PoliTeKDSP/libs/libDaisy/src/dev/mpr121.h ****         i2c_conf.speed  = config.speed;
  55:../libs/PoliTeKDSP/libs/libDaisy/src/dev/mpr121.h **** 
  56:../libs/PoliTeKDSP/libs/libDaisy/src/dev/mpr121.h ****         i2c_conf.pin_config.scl = config.scl;
  57:../libs/PoliTeKDSP/libs/libDaisy/src/dev/mpr121.h ****         i2c_conf.pin_config.sda = config.sda;
  58:../libs/PoliTeKDSP/libs/libDaisy/src/dev/mpr121.h **** 
  59:../libs/PoliTeKDSP/libs/libDaisy/src/dev/mpr121.h ****         return I2CHandle::Result::OK != i2c_.Init(i2c_conf);
  60:../libs/PoliTeKDSP/libs/libDaisy/src/dev/mpr121.h ****     }
  61:../libs/PoliTeKDSP/libs/libDaisy/src/dev/mpr121.h **** 
  62:../libs/PoliTeKDSP/libs/libDaisy/src/dev/mpr121.h ****     /** \return Did the transaction error? i.e. Return true if error, false if ok */
  63:../libs/PoliTeKDSP/libs/libDaisy/src/dev/mpr121.h ****     bool ReadDataAtAddress(uint8_t address, uint8_t *data, uint16_t size)
  64:../libs/PoliTeKDSP/libs/libDaisy/src/dev/mpr121.h ****     {
  65:../libs/PoliTeKDSP/libs/libDaisy/src/dev/mpr121.h ****         return I2CHandle::Result::OK
  66:../libs/PoliTeKDSP/libs/libDaisy/src/dev/mpr121.h ****                != i2c_.ReadDataAtAddress(
  67:../libs/PoliTeKDSP/libs/libDaisy/src/dev/mpr121.h ****                    config_.dev_addr, address, 1, data, size, 10);
  68:../libs/PoliTeKDSP/libs/libDaisy/src/dev/mpr121.h ****     }
  69:../libs/PoliTeKDSP/libs/libDaisy/src/dev/mpr121.h **** 
  70:../libs/PoliTeKDSP/libs/libDaisy/src/dev/mpr121.h ****     /** \return Did the transaction error? i.e. Return true if error, false if ok */
  71:../libs/PoliTeKDSP/libs/libDaisy/src/dev/mpr121.h ****     bool WriteDataAtAddress(uint8_t address, uint8_t *data, uint16_t size)
  72:../libs/PoliTeKDSP/libs/libDaisy/src/dev/mpr121.h ****     {
  73:../libs/PoliTeKDSP/libs/libDaisy/src/dev/mpr121.h ****         return I2CHandle::Result::OK
  74:../libs/PoliTeKDSP/libs/libDaisy/src/dev/mpr121.h ****                != i2c_.WriteDataAtAddress(
  75:../libs/PoliTeKDSP/libs/libDaisy/src/dev/mpr121.h ****                    config_.dev_addr, address, 1, data, size, 10);
  76:../libs/PoliTeKDSP/libs/libDaisy/src/dev/mpr121.h ****     }
  77:../libs/PoliTeKDSP/libs/libDaisy/src/dev/mpr121.h **** 
  78:../libs/PoliTeKDSP/libs/libDaisy/src/dev/mpr121.h ****   private:
  79:../libs/PoliTeKDSP/libs/libDaisy/src/dev/mpr121.h ****     I2CHandle i2c_;
  80:../libs/PoliTeKDSP/libs/libDaisy/src/dev/mpr121.h ****     Config    config_;
  81:../libs/PoliTeKDSP/libs/libDaisy/src/dev/mpr121.h **** };
  82:../libs/PoliTeKDSP/libs/libDaisy/src/dev/mpr121.h **** 
  83:../libs/PoliTeKDSP/libs/libDaisy/src/dev/mpr121.h **** 
  84:../libs/PoliTeKDSP/libs/libDaisy/src/dev/mpr121.h **** /** @brief Device support for MPR121 12x Capacitive Touch Sensor
  85:../libs/PoliTeKDSP/libs/libDaisy/src/dev/mpr121.h ****     @author beserge
  86:../libs/PoliTeKDSP/libs/libDaisy/src/dev/mpr121.h ****     @date December 2021
  87:../libs/PoliTeKDSP/libs/libDaisy/src/dev/mpr121.h **** */
  88:../libs/PoliTeKDSP/libs/libDaisy/src/dev/mpr121.h **** template <typename Transport>
  89:../libs/PoliTeKDSP/libs/libDaisy/src/dev/mpr121.h **** class Mpr121
  90:../libs/PoliTeKDSP/libs/libDaisy/src/dev/mpr121.h **** {
  91:../libs/PoliTeKDSP/libs/libDaisy/src/dev/mpr121.h ****   public:
  92:../libs/PoliTeKDSP/libs/libDaisy/src/dev/mpr121.h ****     Mpr121() {}
  93:../libs/PoliTeKDSP/libs/libDaisy/src/dev/mpr121.h ****     ~Mpr121() {}
  94:../libs/PoliTeKDSP/libs/libDaisy/src/dev/mpr121.h **** 
  95:../libs/PoliTeKDSP/libs/libDaisy/src/dev/mpr121.h ****     struct Config
  96:../libs/PoliTeKDSP/libs/libDaisy/src/dev/mpr121.h ****     {
  97:../libs/PoliTeKDSP/libs/libDaisy/src/dev/mpr121.h ****         typename Transport::Config transport_config;
ARM GAS  C:\Users\skipi\AppData\Local\Temp\ccnEQq3j.s 			page 4


  98:../libs/PoliTeKDSP/libs/libDaisy/src/dev/mpr121.h ****         uint8_t                    touch_threshold;
  99:../libs/PoliTeKDSP/libs/libDaisy/src/dev/mpr121.h ****         uint8_t                    release_threshold;
 100:../libs/PoliTeKDSP/libs/libDaisy/src/dev/mpr121.h **** 
 101:../libs/PoliTeKDSP/libs/libDaisy/src/dev/mpr121.h ****         Config()
  69              		.loc 2 101 9 is_stmt 1 view .LVU6
  70              	.LBB213:
  71              	.LBB209:
  72              	.LBI199:
  34:../libs/PoliTeKDSP/libs/libDaisy/src/dev/mpr121.h ****         {
  73              		.loc 2 34 9 view .LVU7
  74              	.LBB205:
  75              	.LBB201:
  76              	.LBI201:
  77              		.file 3 "../libs/PoliTeKDSP/libs/libDaisy/src/daisy_core.h"
   1:../libs/PoliTeKDSP/libs/libDaisy/src/daisy_core.h **** #pragma once
   2:../libs/PoliTeKDSP/libs/libDaisy/src/daisy_core.h **** #ifndef DSY_CORE_HW_H
   3:../libs/PoliTeKDSP/libs/libDaisy/src/daisy_core.h **** #define DSY_CORE_HW_H /**< & */
   4:../libs/PoliTeKDSP/libs/libDaisy/src/daisy_core.h **** #include <stdint.h>
   5:../libs/PoliTeKDSP/libs/libDaisy/src/daisy_core.h **** #include <stdlib.h>
   6:../libs/PoliTeKDSP/libs/libDaisy/src/daisy_core.h **** 
   7:../libs/PoliTeKDSP/libs/libDaisy/src/daisy_core.h **** #if defined(_MSC_VER)
   8:../libs/PoliTeKDSP/libs/libDaisy/src/daisy_core.h **** #define FORCE_INLINE __forceinline /**< & */
   9:../libs/PoliTeKDSP/libs/libDaisy/src/daisy_core.h **** #elif defined(__clang__)
  10:../libs/PoliTeKDSP/libs/libDaisy/src/daisy_core.h **** #define FORCE_INLINE inline __attribute__((always_inline)) /**< & */
  11:../libs/PoliTeKDSP/libs/libDaisy/src/daisy_core.h **** #pragma clang diagnostic ignored "-Wduplicate-decl-specifier"
  12:../libs/PoliTeKDSP/libs/libDaisy/src/daisy_core.h **** #elif defined(__GNUC__)
  13:../libs/PoliTeKDSP/libs/libDaisy/src/daisy_core.h **** #define FORCE_INLINE inline __attribute__((always_inline)) /**< & */
  14:../libs/PoliTeKDSP/libs/libDaisy/src/daisy_core.h **** #else
  15:../libs/PoliTeKDSP/libs/libDaisy/src/daisy_core.h **** #error unknown compiler
  16:../libs/PoliTeKDSP/libs/libDaisy/src/daisy_core.h **** #endif
  17:../libs/PoliTeKDSP/libs/libDaisy/src/daisy_core.h **** 
  18:../libs/PoliTeKDSP/libs/libDaisy/src/daisy_core.h **** /** @addtogroup utility
  19:../libs/PoliTeKDSP/libs/libDaisy/src/daisy_core.h ****     @{
  20:../libs/PoliTeKDSP/libs/libDaisy/src/daisy_core.h **** */
  21:../libs/PoliTeKDSP/libs/libDaisy/src/daisy_core.h **** 
  22:../libs/PoliTeKDSP/libs/libDaisy/src/daisy_core.h **** /** Macro for area of memory that is configured as cacheless
  23:../libs/PoliTeKDSP/libs/libDaisy/src/daisy_core.h **** This should be used primarily for DMA buffers, and the like.
  24:../libs/PoliTeKDSP/libs/libDaisy/src/daisy_core.h **** */
  25:../libs/PoliTeKDSP/libs/libDaisy/src/daisy_core.h **** #define DMA_BUFFER_MEM_SECTION __attribute__((section(".sram1_bss")))
  26:../libs/PoliTeKDSP/libs/libDaisy/src/daisy_core.h **** /** 
  27:../libs/PoliTeKDSP/libs/libDaisy/src/daisy_core.h **** THE DTCM RAM section is also non-cached. However, is not suitable 
  28:../libs/PoliTeKDSP/libs/libDaisy/src/daisy_core.h **** for DMA transfers. Performance is on par with internal SRAM w/ 
  29:../libs/PoliTeKDSP/libs/libDaisy/src/daisy_core.h **** cache enabled.
  30:../libs/PoliTeKDSP/libs/libDaisy/src/daisy_core.h **** */
  31:../libs/PoliTeKDSP/libs/libDaisy/src/daisy_core.h **** #define DTCM_MEM_SECTION __attribute__((section(".dtcmram_bss")))
  32:../libs/PoliTeKDSP/libs/libDaisy/src/daisy_core.h **** 
  33:../libs/PoliTeKDSP/libs/libDaisy/src/daisy_core.h **** #define FBIPMAX 0.999985f             /**< close to 1.0f-LSB at 16 bit */
  34:../libs/PoliTeKDSP/libs/libDaisy/src/daisy_core.h **** #define FBIPMIN (-FBIPMAX)            /**< - (1 - LSB) */
  35:../libs/PoliTeKDSP/libs/libDaisy/src/daisy_core.h **** #define U82F_SCALE 0.0078740f         /**< 1 / 127 */
  36:../libs/PoliTeKDSP/libs/libDaisy/src/daisy_core.h **** #define F2U8_SCALE 127.0f             /**< 128 - 1 */
  37:../libs/PoliTeKDSP/libs/libDaisy/src/daisy_core.h **** #define S82F_SCALE 0.0078125f         /**< 1 / (2**7) */
  38:../libs/PoliTeKDSP/libs/libDaisy/src/daisy_core.h **** #define F2S8_SCALE 127.0f             /**< (2 ** 7) - 1 */
  39:../libs/PoliTeKDSP/libs/libDaisy/src/daisy_core.h **** #define S162F_SCALE 3.0517578125e-05f /**< 1 / (2** 15) */
  40:../libs/PoliTeKDSP/libs/libDaisy/src/daisy_core.h **** #define F2S16_SCALE 32767.0f          /**< (2 ** 15) - 1 */
  41:../libs/PoliTeKDSP/libs/libDaisy/src/daisy_core.h **** #define F2S24_SCALE 8388608.0f        /**< 2 ** 23 */
  42:../libs/PoliTeKDSP/libs/libDaisy/src/daisy_core.h **** #define S242F_SCALE 1.192092896e-07f  /**< 1 / (2 ** 23) */
  43:../libs/PoliTeKDSP/libs/libDaisy/src/daisy_core.h **** #define S24SIGN 0x800000              /**< 2 ** 23 */
ARM GAS  C:\Users\skipi\AppData\Local\Temp\ccnEQq3j.s 			page 5


  44:../libs/PoliTeKDSP/libs/libDaisy/src/daisy_core.h **** #define S322F_SCALE 4.6566129e-10f    /**< 1 / (2** 31) */
  45:../libs/PoliTeKDSP/libs/libDaisy/src/daisy_core.h **** #define F2S32_SCALE 2147483647.f      /**< (2 ** 31) - 1 */
  46:../libs/PoliTeKDSP/libs/libDaisy/src/daisy_core.h **** 
  47:../libs/PoliTeKDSP/libs/libDaisy/src/daisy_core.h **** 
  48:../libs/PoliTeKDSP/libs/libDaisy/src/daisy_core.h **** /** shorthand macro for simplifying the reading of the left 
  49:../libs/PoliTeKDSP/libs/libDaisy/src/daisy_core.h ****  *  channel of a non-interleaved output buffer named out */
  50:../libs/PoliTeKDSP/libs/libDaisy/src/daisy_core.h **** #define OUT_L out[0]
  51:../libs/PoliTeKDSP/libs/libDaisy/src/daisy_core.h **** 
  52:../libs/PoliTeKDSP/libs/libDaisy/src/daisy_core.h **** /** shorthand macro for simplifying the reading of the right 
  53:../libs/PoliTeKDSP/libs/libDaisy/src/daisy_core.h ****  *  channel of a non-interleaved output buffer named out */
  54:../libs/PoliTeKDSP/libs/libDaisy/src/daisy_core.h **** #define OUT_R out[1]
  55:../libs/PoliTeKDSP/libs/libDaisy/src/daisy_core.h **** 
  56:../libs/PoliTeKDSP/libs/libDaisy/src/daisy_core.h **** /** shorthand macro for simplifying the reading of the left 
  57:../libs/PoliTeKDSP/libs/libDaisy/src/daisy_core.h ****  *  channel of a non-interleaved input buffer named in */
  58:../libs/PoliTeKDSP/libs/libDaisy/src/daisy_core.h **** #define IN_L in[0]
  59:../libs/PoliTeKDSP/libs/libDaisy/src/daisy_core.h **** 
  60:../libs/PoliTeKDSP/libs/libDaisy/src/daisy_core.h **** /** shorthand macro for simplifying the reading of the right 
  61:../libs/PoliTeKDSP/libs/libDaisy/src/daisy_core.h ****  *  channel of a non-interleaved input buffer named in */
  62:../libs/PoliTeKDSP/libs/libDaisy/src/daisy_core.h **** #define IN_R in[1]
  63:../libs/PoliTeKDSP/libs/libDaisy/src/daisy_core.h **** 
  64:../libs/PoliTeKDSP/libs/libDaisy/src/daisy_core.h **** /** 
  65:../libs/PoliTeKDSP/libs/libDaisy/src/daisy_core.h ****     Computes cube.
  66:../libs/PoliTeKDSP/libs/libDaisy/src/daisy_core.h ****     \param x Number to be cubed
  67:../libs/PoliTeKDSP/libs/libDaisy/src/daisy_core.h ****     \return x ^ 3
  68:../libs/PoliTeKDSP/libs/libDaisy/src/daisy_core.h **** */
  69:../libs/PoliTeKDSP/libs/libDaisy/src/daisy_core.h **** FORCE_INLINE float cube(float x)
  70:../libs/PoliTeKDSP/libs/libDaisy/src/daisy_core.h **** {
  71:../libs/PoliTeKDSP/libs/libDaisy/src/daisy_core.h ****     return (x * x) * x;
  72:../libs/PoliTeKDSP/libs/libDaisy/src/daisy_core.h **** }
  73:../libs/PoliTeKDSP/libs/libDaisy/src/daisy_core.h **** 
  74:../libs/PoliTeKDSP/libs/libDaisy/src/daisy_core.h **** /** 
  75:../libs/PoliTeKDSP/libs/libDaisy/src/daisy_core.h ****     Converts unsigned 8-bit to float
  76:../libs/PoliTeKDSP/libs/libDaisy/src/daisy_core.h ****     \param x Number to be scaled.
  77:../libs/PoliTeKDSP/libs/libDaisy/src/daisy_core.h ****     \return Scaled number.
  78:../libs/PoliTeKDSP/libs/libDaisy/src/daisy_core.h **** */
  79:../libs/PoliTeKDSP/libs/libDaisy/src/daisy_core.h **** FORCE_INLINE float u82f(uint8_t x)
  80:../libs/PoliTeKDSP/libs/libDaisy/src/daisy_core.h **** {
  81:../libs/PoliTeKDSP/libs/libDaisy/src/daisy_core.h ****     return ((float)x - 127.f) * U82F_SCALE;
  82:../libs/PoliTeKDSP/libs/libDaisy/src/daisy_core.h **** }
  83:../libs/PoliTeKDSP/libs/libDaisy/src/daisy_core.h **** 
  84:../libs/PoliTeKDSP/libs/libDaisy/src/daisy_core.h **** /**
  85:../libs/PoliTeKDSP/libs/libDaisy/src/daisy_core.h ****     Converts float to unsigned 8-bit
  86:../libs/PoliTeKDSP/libs/libDaisy/src/daisy_core.h **** */
  87:../libs/PoliTeKDSP/libs/libDaisy/src/daisy_core.h **** FORCE_INLINE uint8_t f2u8(float x)
  88:../libs/PoliTeKDSP/libs/libDaisy/src/daisy_core.h **** {
  89:../libs/PoliTeKDSP/libs/libDaisy/src/daisy_core.h ****     x = x <= FBIPMIN ? FBIPMIN : x;
  90:../libs/PoliTeKDSP/libs/libDaisy/src/daisy_core.h ****     x = x >= FBIPMAX ? FBIPMAX : x;
  91:../libs/PoliTeKDSP/libs/libDaisy/src/daisy_core.h ****     return (uint8_t)((x * F2U8_SCALE) + F2U8_SCALE);
  92:../libs/PoliTeKDSP/libs/libDaisy/src/daisy_core.h **** }
  93:../libs/PoliTeKDSP/libs/libDaisy/src/daisy_core.h **** 
  94:../libs/PoliTeKDSP/libs/libDaisy/src/daisy_core.h **** 
  95:../libs/PoliTeKDSP/libs/libDaisy/src/daisy_core.h **** /** 
  96:../libs/PoliTeKDSP/libs/libDaisy/src/daisy_core.h ****     Converts Signed 8-bit to float
  97:../libs/PoliTeKDSP/libs/libDaisy/src/daisy_core.h ****     \param x Number to be scaled.
  98:../libs/PoliTeKDSP/libs/libDaisy/src/daisy_core.h ****     \return Scaled number.
  99:../libs/PoliTeKDSP/libs/libDaisy/src/daisy_core.h **** */
 100:../libs/PoliTeKDSP/libs/libDaisy/src/daisy_core.h **** FORCE_INLINE float s82f(int8_t x)
ARM GAS  C:\Users\skipi\AppData\Local\Temp\ccnEQq3j.s 			page 6


 101:../libs/PoliTeKDSP/libs/libDaisy/src/daisy_core.h **** {
 102:../libs/PoliTeKDSP/libs/libDaisy/src/daisy_core.h ****     return (float)x * S82F_SCALE;
 103:../libs/PoliTeKDSP/libs/libDaisy/src/daisy_core.h **** }
 104:../libs/PoliTeKDSP/libs/libDaisy/src/daisy_core.h **** 
 105:../libs/PoliTeKDSP/libs/libDaisy/src/daisy_core.h **** /**
 106:../libs/PoliTeKDSP/libs/libDaisy/src/daisy_core.h ****     Converts float to Signed 8-bit
 107:../libs/PoliTeKDSP/libs/libDaisy/src/daisy_core.h **** */
 108:../libs/PoliTeKDSP/libs/libDaisy/src/daisy_core.h **** FORCE_INLINE int8_t f2s8(float x)
 109:../libs/PoliTeKDSP/libs/libDaisy/src/daisy_core.h **** {
 110:../libs/PoliTeKDSP/libs/libDaisy/src/daisy_core.h ****     x = x <= FBIPMIN ? FBIPMIN : x;
 111:../libs/PoliTeKDSP/libs/libDaisy/src/daisy_core.h ****     x = x >= FBIPMAX ? FBIPMAX : x;
 112:../libs/PoliTeKDSP/libs/libDaisy/src/daisy_core.h ****     return (int32_t)(x * F2S8_SCALE);
 113:../libs/PoliTeKDSP/libs/libDaisy/src/daisy_core.h **** }
 114:../libs/PoliTeKDSP/libs/libDaisy/src/daisy_core.h **** 
 115:../libs/PoliTeKDSP/libs/libDaisy/src/daisy_core.h **** /** 
 116:../libs/PoliTeKDSP/libs/libDaisy/src/daisy_core.h ****     Converts Signed 16-bit to float
 117:../libs/PoliTeKDSP/libs/libDaisy/src/daisy_core.h ****     \param x Number to be scaled.
 118:../libs/PoliTeKDSP/libs/libDaisy/src/daisy_core.h ****     \return Scaled number.
 119:../libs/PoliTeKDSP/libs/libDaisy/src/daisy_core.h **** */
 120:../libs/PoliTeKDSP/libs/libDaisy/src/daisy_core.h **** FORCE_INLINE float s162f(int16_t x)
 121:../libs/PoliTeKDSP/libs/libDaisy/src/daisy_core.h **** {
 122:../libs/PoliTeKDSP/libs/libDaisy/src/daisy_core.h ****     return (float)x * S162F_SCALE;
 123:../libs/PoliTeKDSP/libs/libDaisy/src/daisy_core.h **** }
 124:../libs/PoliTeKDSP/libs/libDaisy/src/daisy_core.h **** 
 125:../libs/PoliTeKDSP/libs/libDaisy/src/daisy_core.h **** /**
 126:../libs/PoliTeKDSP/libs/libDaisy/src/daisy_core.h ****     Converts float to Signed 16-bit
 127:../libs/PoliTeKDSP/libs/libDaisy/src/daisy_core.h **** */
 128:../libs/PoliTeKDSP/libs/libDaisy/src/daisy_core.h **** FORCE_INLINE int16_t f2s16(float x)
 129:../libs/PoliTeKDSP/libs/libDaisy/src/daisy_core.h **** {
 130:../libs/PoliTeKDSP/libs/libDaisy/src/daisy_core.h ****     x = x <= FBIPMIN ? FBIPMIN : x;
 131:../libs/PoliTeKDSP/libs/libDaisy/src/daisy_core.h ****     x = x >= FBIPMAX ? FBIPMAX : x;
 132:../libs/PoliTeKDSP/libs/libDaisy/src/daisy_core.h ****     return (int32_t)(x * F2S16_SCALE);
 133:../libs/PoliTeKDSP/libs/libDaisy/src/daisy_core.h **** }
 134:../libs/PoliTeKDSP/libs/libDaisy/src/daisy_core.h **** 
 135:../libs/PoliTeKDSP/libs/libDaisy/src/daisy_core.h **** /**
 136:../libs/PoliTeKDSP/libs/libDaisy/src/daisy_core.h ****     Converts Signed 24-bit to float
 137:../libs/PoliTeKDSP/libs/libDaisy/src/daisy_core.h ****  */
 138:../libs/PoliTeKDSP/libs/libDaisy/src/daisy_core.h **** FORCE_INLINE float s242f(int32_t x)
 139:../libs/PoliTeKDSP/libs/libDaisy/src/daisy_core.h **** {
 140:../libs/PoliTeKDSP/libs/libDaisy/src/daisy_core.h ****     x = (x ^ S24SIGN) - S24SIGN; //sign extend aka ((x<<8)>>8)
 141:../libs/PoliTeKDSP/libs/libDaisy/src/daisy_core.h ****     return (float)x * S242F_SCALE;
 142:../libs/PoliTeKDSP/libs/libDaisy/src/daisy_core.h **** }
 143:../libs/PoliTeKDSP/libs/libDaisy/src/daisy_core.h **** /**
 144:../libs/PoliTeKDSP/libs/libDaisy/src/daisy_core.h ****     Converts float to Signed 24-bit
 145:../libs/PoliTeKDSP/libs/libDaisy/src/daisy_core.h ****  */
 146:../libs/PoliTeKDSP/libs/libDaisy/src/daisy_core.h **** FORCE_INLINE int32_t f2s24(float x)
 147:../libs/PoliTeKDSP/libs/libDaisy/src/daisy_core.h **** {
 148:../libs/PoliTeKDSP/libs/libDaisy/src/daisy_core.h ****     x = x <= FBIPMIN ? FBIPMIN : x;
 149:../libs/PoliTeKDSP/libs/libDaisy/src/daisy_core.h ****     x = x >= FBIPMAX ? FBIPMAX : x;
 150:../libs/PoliTeKDSP/libs/libDaisy/src/daisy_core.h ****     return (int32_t)(x * F2S24_SCALE);
 151:../libs/PoliTeKDSP/libs/libDaisy/src/daisy_core.h **** }
 152:../libs/PoliTeKDSP/libs/libDaisy/src/daisy_core.h **** 
 153:../libs/PoliTeKDSP/libs/libDaisy/src/daisy_core.h **** /**
 154:../libs/PoliTeKDSP/libs/libDaisy/src/daisy_core.h ****     Converts Signed 32-bit to float
 155:../libs/PoliTeKDSP/libs/libDaisy/src/daisy_core.h ****  */
 156:../libs/PoliTeKDSP/libs/libDaisy/src/daisy_core.h **** FORCE_INLINE float s322f(int32_t x)
 157:../libs/PoliTeKDSP/libs/libDaisy/src/daisy_core.h **** {
ARM GAS  C:\Users\skipi\AppData\Local\Temp\ccnEQq3j.s 			page 7


 158:../libs/PoliTeKDSP/libs/libDaisy/src/daisy_core.h ****     return (float)x * S322F_SCALE;
 159:../libs/PoliTeKDSP/libs/libDaisy/src/daisy_core.h **** }
 160:../libs/PoliTeKDSP/libs/libDaisy/src/daisy_core.h **** /**
 161:../libs/PoliTeKDSP/libs/libDaisy/src/daisy_core.h ****     Converts float to Signed 24-bit
 162:../libs/PoliTeKDSP/libs/libDaisy/src/daisy_core.h ****  */
 163:../libs/PoliTeKDSP/libs/libDaisy/src/daisy_core.h **** FORCE_INLINE int32_t f2s32(float x)
 164:../libs/PoliTeKDSP/libs/libDaisy/src/daisy_core.h **** {
 165:../libs/PoliTeKDSP/libs/libDaisy/src/daisy_core.h ****     x = x <= FBIPMIN ? FBIPMIN : x;
 166:../libs/PoliTeKDSP/libs/libDaisy/src/daisy_core.h ****     x = x >= FBIPMAX ? FBIPMAX : x;
 167:../libs/PoliTeKDSP/libs/libDaisy/src/daisy_core.h ****     return (int32_t)(x * F2S32_SCALE);
 168:../libs/PoliTeKDSP/libs/libDaisy/src/daisy_core.h **** }
 169:../libs/PoliTeKDSP/libs/libDaisy/src/daisy_core.h **** 
 170:../libs/PoliTeKDSP/libs/libDaisy/src/daisy_core.h **** #ifdef __cplusplus
 171:../libs/PoliTeKDSP/libs/libDaisy/src/daisy_core.h **** 
 172:../libs/PoliTeKDSP/libs/libDaisy/src/daisy_core.h **** namespace daisy
 173:../libs/PoliTeKDSP/libs/libDaisy/src/daisy_core.h **** {
 174:../libs/PoliTeKDSP/libs/libDaisy/src/daisy_core.h **** /** @brief GPIO Port names */
 175:../libs/PoliTeKDSP/libs/libDaisy/src/daisy_core.h **** enum GPIOPort
 176:../libs/PoliTeKDSP/libs/libDaisy/src/daisy_core.h **** {
 177:../libs/PoliTeKDSP/libs/libDaisy/src/daisy_core.h ****     PORTA, /**< Port A */
 178:../libs/PoliTeKDSP/libs/libDaisy/src/daisy_core.h ****     PORTB, /**< Port B */
 179:../libs/PoliTeKDSP/libs/libDaisy/src/daisy_core.h ****     PORTC, /**< Port C */
 180:../libs/PoliTeKDSP/libs/libDaisy/src/daisy_core.h ****     PORTD, /**< Port D */
 181:../libs/PoliTeKDSP/libs/libDaisy/src/daisy_core.h ****     PORTE, /**< Port E */
 182:../libs/PoliTeKDSP/libs/libDaisy/src/daisy_core.h ****     PORTF, /**< Port F */
 183:../libs/PoliTeKDSP/libs/libDaisy/src/daisy_core.h ****     PORTG, /**< Port G */
 184:../libs/PoliTeKDSP/libs/libDaisy/src/daisy_core.h ****     PORTH, /**< Port H */
 185:../libs/PoliTeKDSP/libs/libDaisy/src/daisy_core.h ****     PORTI, /**< Port I */
 186:../libs/PoliTeKDSP/libs/libDaisy/src/daisy_core.h ****     PORTJ, /**< Port J */
 187:../libs/PoliTeKDSP/libs/libDaisy/src/daisy_core.h ****     PORTK, /**< Port K */
 188:../libs/PoliTeKDSP/libs/libDaisy/src/daisy_core.h ****     PORTX, /**< Used as a dummy port to signal an invalid pin. */
 189:../libs/PoliTeKDSP/libs/libDaisy/src/daisy_core.h **** };
 190:../libs/PoliTeKDSP/libs/libDaisy/src/daisy_core.h **** 
 191:../libs/PoliTeKDSP/libs/libDaisy/src/daisy_core.h **** /** @brief representation of hardware port/pin combination */
 192:../libs/PoliTeKDSP/libs/libDaisy/src/daisy_core.h **** struct Pin
 193:../libs/PoliTeKDSP/libs/libDaisy/src/daisy_core.h **** {
 194:../libs/PoliTeKDSP/libs/libDaisy/src/daisy_core.h ****     GPIOPort port;
 195:../libs/PoliTeKDSP/libs/libDaisy/src/daisy_core.h ****     uint8_t  pin;
 196:../libs/PoliTeKDSP/libs/libDaisy/src/daisy_core.h **** 
 197:../libs/PoliTeKDSP/libs/libDaisy/src/daisy_core.h ****     /** @brief Constructor creates a valid pin. 
 198:../libs/PoliTeKDSP/libs/libDaisy/src/daisy_core.h ****      *  @param pt GPIOPort between PA, and PK corresponding to STM32 Port.
 199:../libs/PoliTeKDSP/libs/libDaisy/src/daisy_core.h ****      *  @param pn pin number in range of 0-15
 200:../libs/PoliTeKDSP/libs/libDaisy/src/daisy_core.h ****     */
 201:../libs/PoliTeKDSP/libs/libDaisy/src/daisy_core.h ****     constexpr Pin(const GPIOPort pt, const uint8_t pn) : port(pt), pin(pn) {}
 202:../libs/PoliTeKDSP/libs/libDaisy/src/daisy_core.h **** 
 203:../libs/PoliTeKDSP/libs/libDaisy/src/daisy_core.h ****     /** @brief Basic Constructor creates an invalid Pin object */
 204:../libs/PoliTeKDSP/libs/libDaisy/src/daisy_core.h ****     constexpr Pin() : port(PORTX), pin(255) {}
  78              		.loc 3 204 15 view .LVU8
  79              		.loc 3 204 15 is_stmt 0 view .LVU9
  80              	.LBE201:
  81              	.LBB202:
  82              	.LBI202:
  83              		.loc 3 204 15 is_stmt 1 view .LVU10
  84              		.loc 3 204 15 is_stmt 0 view .LVU11
  85              	.LBE202:
  36:../libs/PoliTeKDSP/libs/libDaisy/src/dev/mpr121.h ****             speed  = I2CHandle::Config::Speed::I2C_400KHZ;
  86              		.loc 2 36 13 is_stmt 1 view .LVU12
ARM GAS  C:\Users\skipi\AppData\Local\Temp\ccnEQq3j.s 			page 8


  37:../libs/PoliTeKDSP/libs/libDaisy/src/dev/mpr121.h **** 
  87              		.loc 2 37 13 view .LVU13
  39:../libs/PoliTeKDSP/libs/libDaisy/src/dev/mpr121.h ****             sda = Pin(PORTB, 9);
  88              		.loc 2 39 13 view .LVU14
  89              	.LBB203:
  90              	.LBI203:
 201:../libs/PoliTeKDSP/libs/libDaisy/src/daisy_core.h **** 
  91              		.loc 3 201 15 view .LVU15
 201:../libs/PoliTeKDSP/libs/libDaisy/src/daisy_core.h **** 
  92              		.loc 3 201 15 is_stmt 0 view .LVU16
  93              	.LBE203:
  40:../libs/PoliTeKDSP/libs/libDaisy/src/dev/mpr121.h **** 
  94              		.loc 2 40 13 is_stmt 1 view .LVU17
  95              	.LBB204:
  96              	.LBI204:
 201:../libs/PoliTeKDSP/libs/libDaisy/src/daisy_core.h **** 
  97              		.loc 3 201 15 view .LVU18
 201:../libs/PoliTeKDSP/libs/libDaisy/src/daisy_core.h **** 
  98              		.loc 3 201 15 is_stmt 0 view .LVU19
  99              	.LBE204:
  39:../libs/PoliTeKDSP/libs/libDaisy/src/dev/mpr121.h ****             sda = Pin(PORTB, 9);
 100              		.loc 2 39 17 view .LVU20
 101 000c 504A     		ldr	r2, .L4
 102              	.LBE205:
 103              	.LBE209:
 104              	.LBE213:
 105              	.LBE218:
 106              	.LBE269:
 107              		.loc 1 6 1 view .LVU21
 108 000e 87B0     		sub	sp, sp, #28
 109              		.cfi_def_cfa_offset 64
 110              	.LBB270:
 111              	.LBB219:
 112              	.LBB214:
 113              	.LBB210:
 114              	.LBB206:
  42:../libs/PoliTeKDSP/libs/libDaisy/src/dev/mpr121.h ****         }
 115              		.loc 2 42 22 view .LVU22
 116 0010 0375     		strb	r3, [r0, #20]
 117              	.LBE206:
 118              	.LBE210:
 119              	.LBE214:
 120              	.LBE219:
 121              		.loc 1 6 36 view .LVU23
 122 0012 05F5B078 		add	r8, r5, #352
 123              	.LBB220:
 124              	.LBB221:
 125              	.LBB222:
 126              	.LBB223:
  37:../libs/PoliTeKDSP/libs/libDaisy/src/dev/mpr121.h **** 
 127              		.loc 2 37 20 view .LVU24
 128 0016 C163     		str	r1, [r0, #60]
 129              	.LBE223:
 130              	.LBE222:
 131              	.LBE221:
 132              	.LBE220:
 133              		.loc 1 6 36 view .LVU25
ARM GAS  C:\Users\skipi\AppData\Local\Temp\ccnEQq3j.s 			page 9


 134 0018 05F5DA7A 		add	r10, r5, #436
 135              	.LBB261:
 136              	.LBB237:
 137              	.LBB238:
 138              	.LBB239:
 139              	.LBB240:
  42:../libs/PoliTeKDSP/libs/libDaisy/src/dev/mpr121.h ****         }
 140              		.loc 2 42 22 view .LVU26
 141 001c 80F82C30 		strb	r3, [r0, #44]
 142              	.LBE240:
 143              	.LBE239:
 144              	.LBE238:
 145              	.LBE237:
 146              	.LBB254:
 147              	.LBB232:
 148              	.LBB228:
 149 0020 80F84830 		strb	r3, [r0, #72]
 150              	.LBE228:
 151              	.LBE232:
 152              	.LBE254:
 153              	.LBE261:
 154              	.LBB262:
 155              	.LBB215:
 102:../libs/PoliTeKDSP/libs/libDaisy/src/dev/mpr121.h ****         {
 103:../libs/PoliTeKDSP/libs/libDaisy/src/dev/mpr121.h ****             touch_threshold   = MPR121_TOUCH_THRESHOLD_DEFAULT;
 156              		.loc 2 103 31 view .LVU27
 157 0024 40F20323 		movw	r3, #515
 158              	.LBB211:
 159              	.LBB207:
  39:../libs/PoliTeKDSP/libs/libDaisy/src/dev/mpr121.h ****             sda = Pin(PORTB, 9);
 160              		.loc 2 39 17 view .LVU28
 161 0028 C260     		str	r2, [r0, #12]
  42:../libs/PoliTeKDSP/libs/libDaisy/src/dev/mpr121.h ****         }
 162              		.loc 2 42 13 is_stmt 1 view .LVU29
 163              	.LVL2:
  42:../libs/PoliTeKDSP/libs/libDaisy/src/dev/mpr121.h ****         }
 164              		.loc 2 42 13 is_stmt 0 view .LVU30
 165              	.LBE207:
 166              	.LBE211:
 167              	.LBE215:
 168              	.LBE262:
 169              	.LBB263:
 170              	.LBB255:
 171              	.LBB251:
 172              	.LBB248:
 173              	.LBB245:
  39:../libs/PoliTeKDSP/libs/libDaisy/src/dev/mpr121.h ****             sda = Pin(PORTB, 9);
 174              		.loc 2 39 17 view .LVU31
 175 002a 4262     		str	r2, [r0, #36]
 176              	.LBE245:
 177              	.LBE248:
 178              	.LBE251:
 179              	.LBE255:
 180              	.LBB256:
 181              	.LBB233:
 182              	.LBB229:
 183 002c 0264     		str	r2, [r0, #64]
ARM GAS  C:\Users\skipi\AppData\Local\Temp\ccnEQq3j.s 			page 10


 184              	.LBE229:
 185              	.LBE233:
 186              	.LBE256:
 187              	.LBE263:
 188              	.LBB264:
 189              	.LBB216:
 190              	.LBB212:
 191              	.LBB208:
  37:../libs/PoliTeKDSP/libs/libDaisy/src/dev/mpr121.h **** 
 192              		.loc 2 37 20 view .LVU32
 193 002e C0E90141 		strd	r4, r1, [r0, #4]
 194              	.LBE208:
 195              	.LBE212:
 196              	.LBE216:
 197              	.LBE264:
 198              	.LBB265:
 199              	.LBB257:
 200              	.LBB252:
 201              	.LBB249:
 202              	.LBB246:
 203 0032 C0E90741 		strd	r4, r1, [r0, #28]
 204              	.LBE246:
 205              	.LBE249:
 206              	.LBE252:
 207              	.LBE257:
 208              	.LBE265:
 209              		.loc 1 6 36 view .LVU33
 210 0036 0321     		movs	r1, #3
 211              	.LBB266:
 212              	.LBB258:
 213              	.LBB234:
 214              	.LBB230:
  36:../libs/PoliTeKDSP/libs/libDaisy/src/dev/mpr121.h ****             speed  = I2CHandle::Config::Speed::I2C_400KHZ;
 215              		.loc 2 36 20 view .LVU34
 216 0038 C0E90D44 		strd	r4, r4, [r0, #52]
 217              	.LBE230:
 218              	.LBE234:
 219              	.LBE258:
 220              	.LBE266:
 221              		.loc 1 6 36 view .LVU35
 222 003c 85F85010 		strb	r1, [r5, #80]
 223 0040 5430     		adds	r0, r0, #84
 224              	.LVL3:
 225              	.LBB267:
 226              	.LBB217:
 227              		.loc 2 103 31 view .LVU36
 228 0042 2B83     		strh	r3, [r5, #24]	@ movhi
 229              	.LVL4:
 230              		.loc 2 103 31 view .LVU37
 231              	.LBE217:
 232              	.LBE267:
 233              	.LBB268:
 234              	.LBI220:
  92:../libs/PoliTeKDSP/libs/libDaisy/src/dev/mpr121.h ****     ~Mpr121() {}
 235              		.loc 2 92 5 is_stmt 1 view .LVU38
 236              	.LBB259:
 237              	.LBI237:
ARM GAS  C:\Users\skipi\AppData\Local\Temp\ccnEQq3j.s 			page 11


 101:../libs/PoliTeKDSP/libs/libDaisy/src/dev/mpr121.h ****         {
 238              		.loc 2 101 9 view .LVU39
 239              	.LBB253:
 240              	.LBB250:
 241              	.LBI239:
  34:../libs/PoliTeKDSP/libs/libDaisy/src/dev/mpr121.h ****         {
 242              		.loc 2 34 9 view .LVU40
 243              	.LBB247:
 244              	.LBB241:
 245              	.LBI241:
 246              		.loc 3 204 15 view .LVU41
 247              		.loc 3 204 15 is_stmt 0 view .LVU42
 248              	.LBE241:
 249              	.LBB242:
 250              	.LBI242:
 251              		.loc 3 204 15 is_stmt 1 view .LVU43
 252              		.loc 3 204 15 is_stmt 0 view .LVU44
 253              	.LBE242:
  36:../libs/PoliTeKDSP/libs/libDaisy/src/dev/mpr121.h ****             speed  = I2CHandle::Config::Speed::I2C_400KHZ;
 254              		.loc 2 36 13 is_stmt 1 view .LVU45
  37:../libs/PoliTeKDSP/libs/libDaisy/src/dev/mpr121.h **** 
 255              		.loc 2 37 13 view .LVU46
  39:../libs/PoliTeKDSP/libs/libDaisy/src/dev/mpr121.h ****             sda = Pin(PORTB, 9);
 256              		.loc 2 39 13 view .LVU47
 257              	.LBB243:
 258              	.LBI243:
 201:../libs/PoliTeKDSP/libs/libDaisy/src/daisy_core.h **** 
 259              		.loc 3 201 15 view .LVU48
 201:../libs/PoliTeKDSP/libs/libDaisy/src/daisy_core.h **** 
 260              		.loc 3 201 15 is_stmt 0 view .LVU49
 261              	.LBE243:
  40:../libs/PoliTeKDSP/libs/libDaisy/src/dev/mpr121.h **** 
 262              		.loc 2 40 13 is_stmt 1 view .LVU50
 263              	.LBB244:
 264              	.LBI244:
 201:../libs/PoliTeKDSP/libs/libDaisy/src/daisy_core.h **** 
 265              		.loc 3 201 15 view .LVU51
 201:../libs/PoliTeKDSP/libs/libDaisy/src/daisy_core.h **** 
 266              		.loc 3 201 15 is_stmt 0 view .LVU52
 267              	.LBE244:
  42:../libs/PoliTeKDSP/libs/libDaisy/src/dev/mpr121.h ****         }
 268              		.loc 2 42 13 is_stmt 1 view .LVU53
  42:../libs/PoliTeKDSP/libs/libDaisy/src/dev/mpr121.h ****         }
 269              		.loc 2 42 13 is_stmt 0 view .LVU54
 270              	.LBE247:
 271              	.LBE250:
 272              		.loc 2 103 31 view .LVU55
 273 0044 2B86     		strh	r3, [r5, #48]	@ movhi
 274              	.LVL5:
 275              		.loc 2 103 31 view .LVU56
 276              	.LBE253:
 277              	.LBE259:
 278              	.LBB260:
 279              	.LBI221:
  20:../libs/PoliTeKDSP/libs/libDaisy/src/dev/mpr121.h ****     ~Mpr121I2CTransport() {}
 280              		.loc 2 20 5 is_stmt 1 view .LVU57
 281              	.LBB235:
ARM GAS  C:\Users\skipi\AppData\Local\Temp\ccnEQq3j.s 			page 12


 282              	.LBI235:
 283              		.file 4 "../libs/PoliTeKDSP/libs/libDaisy/src/per/i2c.h"
   1:../libs/PoliTeKDSP/libs/libDaisy/src/per/i2c.h **** #pragma once
   2:../libs/PoliTeKDSP/libs/libDaisy/src/per/i2c.h **** #include "util/hal_map.h"
   3:../libs/PoliTeKDSP/libs/libDaisy/src/per/i2c.h **** #include "daisy_core.h"
   4:../libs/PoliTeKDSP/libs/libDaisy/src/per/i2c.h **** 
   5:../libs/PoliTeKDSP/libs/libDaisy/src/per/i2c.h **** namespace daisy
   6:../libs/PoliTeKDSP/libs/libDaisy/src/per/i2c.h **** {
   7:../libs/PoliTeKDSP/libs/libDaisy/src/per/i2c.h **** /** A handle for interacting with an I2C peripheral. This is a dumb
   8:../libs/PoliTeKDSP/libs/libDaisy/src/per/i2c.h ****  *  gateway that internally points to one of the four I2C peripherals
   9:../libs/PoliTeKDSP/libs/libDaisy/src/per/i2c.h ****  *  after it was initialised. It can then be copied and passed around.
  10:../libs/PoliTeKDSP/libs/libDaisy/src/per/i2c.h ****  *  Use an I2CHandle like this:
  11:../libs/PoliTeKDSP/libs/libDaisy/src/per/i2c.h ****  *  
  12:../libs/PoliTeKDSP/libs/libDaisy/src/per/i2c.h ****  *      // setup the configuration
  13:../libs/PoliTeKDSP/libs/libDaisy/src/per/i2c.h ****  *      I2CHandle::Config i2c_conf;
  14:../libs/PoliTeKDSP/libs/libDaisy/src/per/i2c.h ****  *      i2c_conf.periph = I2CHandle::Config::Peripheral::I2C_1;
  15:../libs/PoliTeKDSP/libs/libDaisy/src/per/i2c.h ****  *      i2c_conf.speed  = I2CHandle::Config::Speed::I2C_400KHZ;
  16:../libs/PoliTeKDSP/libs/libDaisy/src/per/i2c.h ****  *      i2c_conf.mode   = I2CHandle::Config::Mode::Master;
  17:../libs/PoliTeKDSP/libs/libDaisy/src/per/i2c.h ****  *      i2c_conf.pin_config.scl  = {DSY_GPIOB, 8};
  18:../libs/PoliTeKDSP/libs/libDaisy/src/per/i2c.h ****  *      i2c_conf.pin_config.sda  = {DSY_GPIOB, 9};
  19:../libs/PoliTeKDSP/libs/libDaisy/src/per/i2c.h ****  *      // initialise the peripheral
  20:../libs/PoliTeKDSP/libs/libDaisy/src/per/i2c.h ****  *      I2CHandle i2c;
  21:../libs/PoliTeKDSP/libs/libDaisy/src/per/i2c.h ****  *      i2c.Init(i2c_conf);
  22:../libs/PoliTeKDSP/libs/libDaisy/src/per/i2c.h ****  *      // now i2c points to the corresponding peripheral and can be used.
  23:../libs/PoliTeKDSP/libs/libDaisy/src/per/i2c.h ****  *      i2c.TransmitBlocking( ... );
  24:../libs/PoliTeKDSP/libs/libDaisy/src/per/i2c.h ****  */
  25:../libs/PoliTeKDSP/libs/libDaisy/src/per/i2c.h **** class I2CHandle
  26:../libs/PoliTeKDSP/libs/libDaisy/src/per/i2c.h **** {
  27:../libs/PoliTeKDSP/libs/libDaisy/src/per/i2c.h ****   public:
  28:../libs/PoliTeKDSP/libs/libDaisy/src/per/i2c.h ****     /** Contains settings for initialising an I2C interface. */
  29:../libs/PoliTeKDSP/libs/libDaisy/src/per/i2c.h ****     struct Config
  30:../libs/PoliTeKDSP/libs/libDaisy/src/per/i2c.h ****     {
  31:../libs/PoliTeKDSP/libs/libDaisy/src/per/i2c.h ****         /** Specifies whether the interface will operate in master or slave mode. */
  32:../libs/PoliTeKDSP/libs/libDaisy/src/per/i2c.h ****         enum class Mode
  33:../libs/PoliTeKDSP/libs/libDaisy/src/per/i2c.h ****         {
  34:../libs/PoliTeKDSP/libs/libDaisy/src/per/i2c.h ****             I2C_MASTER,
  35:../libs/PoliTeKDSP/libs/libDaisy/src/per/i2c.h ****             I2C_SLAVE,
  36:../libs/PoliTeKDSP/libs/libDaisy/src/per/i2c.h ****         };
  37:../libs/PoliTeKDSP/libs/libDaisy/src/per/i2c.h **** 
  38:../libs/PoliTeKDSP/libs/libDaisy/src/per/i2c.h ****         /** Specifices the internal peripheral to use (these are mapped to different pins on the ha
  39:../libs/PoliTeKDSP/libs/libDaisy/src/per/i2c.h ****         enum class Peripheral
  40:../libs/PoliTeKDSP/libs/libDaisy/src/per/i2c.h ****         {
  41:../libs/PoliTeKDSP/libs/libDaisy/src/per/i2c.h ****             I2C_1 = 0, /**< & */
  42:../libs/PoliTeKDSP/libs/libDaisy/src/per/i2c.h ****             I2C_2,     /**< & */
  43:../libs/PoliTeKDSP/libs/libDaisy/src/per/i2c.h ****             I2C_3,     /**< & */
  44:../libs/PoliTeKDSP/libs/libDaisy/src/per/i2c.h ****             I2C_4,     /**< & */
  45:../libs/PoliTeKDSP/libs/libDaisy/src/per/i2c.h ****         };
  46:../libs/PoliTeKDSP/libs/libDaisy/src/per/i2c.h **** 
  47:../libs/PoliTeKDSP/libs/libDaisy/src/per/i2c.h ****         /** Rate at which the clock/data will be sent/received. The device being used will have max
  48:../libs/PoliTeKDSP/libs/libDaisy/src/per/i2c.h ****          *  1MHZ Mode is currently 886kHz
  49:../libs/PoliTeKDSP/libs/libDaisy/src/per/i2c.h ****          */
  50:../libs/PoliTeKDSP/libs/libDaisy/src/per/i2c.h ****         enum class Speed
  51:../libs/PoliTeKDSP/libs/libDaisy/src/per/i2c.h ****         {
  52:../libs/PoliTeKDSP/libs/libDaisy/src/per/i2c.h ****             I2C_100KHZ, /**< & */
  53:../libs/PoliTeKDSP/libs/libDaisy/src/per/i2c.h ****             I2C_400KHZ, /**< & */
  54:../libs/PoliTeKDSP/libs/libDaisy/src/per/i2c.h ****             I2C_1MHZ,   /**< & */
  55:../libs/PoliTeKDSP/libs/libDaisy/src/per/i2c.h ****         };
ARM GAS  C:\Users\skipi\AppData\Local\Temp\ccnEQq3j.s 			page 13


  56:../libs/PoliTeKDSP/libs/libDaisy/src/per/i2c.h **** 
  57:../libs/PoliTeKDSP/libs/libDaisy/src/per/i2c.h ****         Peripheral periph; /**< & */
  58:../libs/PoliTeKDSP/libs/libDaisy/src/per/i2c.h ****         struct
  59:../libs/PoliTeKDSP/libs/libDaisy/src/per/i2c.h ****         {
  60:../libs/PoliTeKDSP/libs/libDaisy/src/per/i2c.h ****             Pin scl;  /**< & */
  61:../libs/PoliTeKDSP/libs/libDaisy/src/per/i2c.h ****             Pin sda;  /**< & */
  62:../libs/PoliTeKDSP/libs/libDaisy/src/per/i2c.h ****         } pin_config; /**< & */
  63:../libs/PoliTeKDSP/libs/libDaisy/src/per/i2c.h **** 
  64:../libs/PoliTeKDSP/libs/libDaisy/src/per/i2c.h ****         Speed speed; /**< & */
  65:../libs/PoliTeKDSP/libs/libDaisy/src/per/i2c.h ****         Mode  mode;  /**< & */
  66:../libs/PoliTeKDSP/libs/libDaisy/src/per/i2c.h ****         // 0x10 is chosen as a default to avoid conflicts with reserved addresses
  67:../libs/PoliTeKDSP/libs/libDaisy/src/per/i2c.h ****         uint8_t address = 0x10; /**< & */
  68:../libs/PoliTeKDSP/libs/libDaisy/src/per/i2c.h ****     };
  69:../libs/PoliTeKDSP/libs/libDaisy/src/per/i2c.h **** 
  70:../libs/PoliTeKDSP/libs/libDaisy/src/per/i2c.h ****     /** Return values for I2C functions. */
  71:../libs/PoliTeKDSP/libs/libDaisy/src/per/i2c.h ****     enum class Result
  72:../libs/PoliTeKDSP/libs/libDaisy/src/per/i2c.h ****     {
  73:../libs/PoliTeKDSP/libs/libDaisy/src/per/i2c.h ****         OK, /**< & */
  74:../libs/PoliTeKDSP/libs/libDaisy/src/per/i2c.h ****         ERR /**< & */
  75:../libs/PoliTeKDSP/libs/libDaisy/src/per/i2c.h ****     };
  76:../libs/PoliTeKDSP/libs/libDaisy/src/per/i2c.h **** 
  77:../libs/PoliTeKDSP/libs/libDaisy/src/per/i2c.h ****     enum class Direction
  78:../libs/PoliTeKDSP/libs/libDaisy/src/per/i2c.h ****     {
  79:../libs/PoliTeKDSP/libs/libDaisy/src/per/i2c.h ****         TRANSMIT, /**< & */
  80:../libs/PoliTeKDSP/libs/libDaisy/src/per/i2c.h ****         RECEIVE,  /**< & */
  81:../libs/PoliTeKDSP/libs/libDaisy/src/per/i2c.h ****     };
  82:../libs/PoliTeKDSP/libs/libDaisy/src/per/i2c.h **** 
  83:../libs/PoliTeKDSP/libs/libDaisy/src/per/i2c.h ****     I2CHandle() : pimpl_(nullptr) {}
 284              		.loc 4 83 5 view .LVU58
 285              		.loc 4 83 5 is_stmt 0 view .LVU59
 286              	.LBE235:
 287              	.LBB236:
 288              	.LBI222:
  34:../libs/PoliTeKDSP/libs/libDaisy/src/dev/mpr121.h ****         {
 289              		.loc 2 34 9 is_stmt 1 view .LVU60
 290              	.LBB231:
 291              	.LBB224:
 292              	.LBI224:
 293              		.loc 3 204 15 view .LVU61
 294              		.loc 3 204 15 is_stmt 0 view .LVU62
 295              	.LBE224:
 296              	.LBB225:
 297              	.LBI225:
 298              		.loc 3 204 15 is_stmt 1 view .LVU63
 299              		.loc 3 204 15 is_stmt 0 view .LVU64
 300              	.LBE225:
  36:../libs/PoliTeKDSP/libs/libDaisy/src/dev/mpr121.h ****             speed  = I2CHandle::Config::Speed::I2C_400KHZ;
 301              		.loc 2 36 13 is_stmt 1 view .LVU65
  37:../libs/PoliTeKDSP/libs/libDaisy/src/dev/mpr121.h **** 
 302              		.loc 2 37 13 view .LVU66
  39:../libs/PoliTeKDSP/libs/libDaisy/src/dev/mpr121.h ****             sda = Pin(PORTB, 9);
 303              		.loc 2 39 13 view .LVU67
 304              	.LBB226:
 305              	.LBI226:
 201:../libs/PoliTeKDSP/libs/libDaisy/src/daisy_core.h **** 
 306              		.loc 3 201 15 view .LVU68
 201:../libs/PoliTeKDSP/libs/libDaisy/src/daisy_core.h **** 
ARM GAS  C:\Users\skipi\AppData\Local\Temp\ccnEQq3j.s 			page 14


 307              		.loc 3 201 15 is_stmt 0 view .LVU69
 308              	.LBE226:
  40:../libs/PoliTeKDSP/libs/libDaisy/src/dev/mpr121.h **** 
 309              		.loc 2 40 13 is_stmt 1 view .LVU70
 310              	.LBB227:
 311              	.LBI227:
 201:../libs/PoliTeKDSP/libs/libDaisy/src/daisy_core.h **** 
 312              		.loc 3 201 15 view .LVU71
 201:../libs/PoliTeKDSP/libs/libDaisy/src/daisy_core.h **** 
 313              		.loc 3 201 15 is_stmt 0 view .LVU72
 314              	.LBE227:
  42:../libs/PoliTeKDSP/libs/libDaisy/src/dev/mpr121.h ****         }
 315              		.loc 2 42 13 is_stmt 1 view .LVU73
  42:../libs/PoliTeKDSP/libs/libDaisy/src/dev/mpr121.h ****         }
 316              		.loc 2 42 13 is_stmt 0 view .LVU74
 317              	.LBE231:
 318              	.LBE236:
 319              	.LBE260:
 320              	.LBE268:
 321              		.loc 1 6 36 view .LVU75
 322 0046 FFF7FEFF 		bl	_ZN3IIRC1Ev
 323              	.LVL6:
 324 004a 05F19C00 		add	r0, r5, #156
 325 004e FFF7FEFF 		bl	_ZN2MFC1Ev
 326              	.LVL7:
 327 0052 4FF08040 		mov	r0, #1073741824
 328 0056 4FF07E52 		mov	r2, #1065353216
 329 005a 0023     		movs	r3, #0
 330 005c C5F8C000 		str	r0, [r5, #192]	@ float
 331 0060 4FF0FF30 		mov	r0, #-1
 332 0064 C5F8C420 		str	r2, [r5, #196]	@ float
 333 0068 05F5E47C 		add	ip, r5, #456
 334 006c 394A     		ldr	r2, .L4+4
 335 006e 3A49     		ldr	r1, .L4+8
 336 0070 C5F8B800 		str	r0, [r5, #184]
 337 0074 40F20470 		movw	r0, #1796
 338 0078 85F8B440 		strb	r4, [r5, #180]
 339 007c 0C46     		mov	r4, r1
 340 007e C5F8BC30 		str	r3, [r5, #188]	@ float
 341 0082 05F5A271 		add	r1, r5, #324
 342 0086 C5F8CC30 		str	r3, [r5, #204]	@ float
 343 008a 04F11C09 		add	r9, r4, #28
 344 008e C5F8D830 		str	r3, [r5, #216]	@ float
 345 0092 0E46     		mov	r6, r1
 346 0094 C5F8D020 		str	r2, [r5, #208]	@ float
 347 0098 04F13807 		add	r7, r4, #56
 348 009c C5F8D420 		str	r2, [r5, #212]	@ float
 349 00a0 05F5CC72 		add	r2, r5, #408
 350 00a4 C5F8DC30 		str	r3, [r5, #220]	@ float
 351 00a8 05F5BE73 		add	r3, r5, #380
 352 00ac A5F8C800 		strh	r0, [r5, #200]	@ movhi
 353 00b0 04F1B400 		add	r0, r4, #180
 354 00b4 0193     		str	r3, [sp, #4]
 355 00b6 04F15403 		add	r3, r4, #84
 356 00ba 0292     		str	r2, [sp, #8]
 357 00bc 05F5FC72 		add	r2, r5, #504
 358 00c0 0393     		str	r3, [sp, #12]
ARM GAS  C:\Users\skipi\AppData\Local\Temp\ccnEQq3j.s 			page 15


 359 00c2 04F1700B 		add	fp, r4, #112
 360 00c6 0590     		str	r0, [sp, #20]
 361 00c8 04F1840E 		add	lr, r4, #132
 362 00cc 0492     		str	r2, [sp, #16]
 363 00ce 0FCC     		ldmia	r4!, {r0, r1, r2, r3}
 364 00d0 0FC6     		stmia	r6!, {r0, r1, r2, r3}
 365 00d2 94E80700 		ldm	r4, {r0, r1, r2}
 366 00d6 86E80700 		stm	r6, {r0, r1, r2}
 367 00da B9E80F00 		ldmia	r9!, {r0, r1, r2, r3}
 368 00de A8E80F00 		stmia	r8!, {r0, r1, r2, r3}
 369 00e2 99E80700 		ldm	r9, {r0, r1, r2}
 370 00e6 019C     		ldr	r4, [sp, #4]
 371 00e8 88E80700 		stm	r8, {r0, r1, r2}
 372 00ec 0FCF     		ldmia	r7!, {r0, r1, r2, r3}
 373 00ee 0FC4     		stmia	r4!, {r0, r1, r2, r3}
 374 00f0 039B     		ldr	r3, [sp, #12]
 375 00f2 97E80700 		ldm	r7, {r0, r1, r2}
 376 00f6 1E46     		mov	r6, r3
 377 00f8 84E80700 		stm	r4, {r0, r1, r2}
 378 00fc 0FCE     		ldmia	r6!, {r0, r1, r2, r3}
 379 00fe 029C     		ldr	r4, [sp, #8]
 380 0100 2746     		mov	r7, r4
 381 0102 0FC7     		stmia	r7!, {r0, r1, r2, r3}
 382 0104 96E80700 		ldm	r6, {r0, r1, r2}
 383 0108 87E80700 		stm	r7, {r0, r1, r2}
 384 010c BBE80F00 		ldmia	fp!, {r0, r1, r2, r3}
 385 0110 AAE80F00 		stmia	r10!, {r0, r1, r2, r3}
 386 0114 DBF80030 		ldr	r3, [fp]
 387 0118 CAF80030 		str	r3, [r10]
 388 011c BEE80F00 		ldmia	lr!, {r0, r1, r2, r3}
 389 0120 ACE80F00 		stmia	ip!, {r0, r1, r2, r3}
 390 0124 BEE80F00 		ldmia	lr!, {r0, r1, r2, r3}
 391 0128 ACE80F00 		stmia	ip!, {r0, r1, r2, r3}
 392 012c 9EE80F00 		ldm	lr, {r0, r1, r2, r3}
 393 0130 8CE80F00 		stm	ip, {r0, r1, r2, r3}
 394 0134 0598     		ldr	r0, [sp, #20]
 395 0136 049C     		ldr	r4, [sp, #16]
 396 0138 0646     		mov	r6, r0
 397 013a 0FCE     		ldmia	r6!, {r0, r1, r2, r3}
 398 013c 0FC4     		stmia	r4!, {r0, r1, r2, r3}
 399 013e 96E80300 		ldm	r6, {r0, r1}
 400 0142 84E80300 		stm	r4, {r0, r1}
 401              	.LBE270:
 402              		.loc 1 6 39 view .LVU76
 403 0146 2846     		mov	r0, r5
 404 0148 07B0     		add	sp, sp, #28
 405              		.cfi_def_cfa_offset 36
 406              		@ sp needed
 407 014a BDE8F08F 		pop	{r4, r5, r6, r7, r8, r9, r10, fp, pc}
 408              	.LVL8:
 409              	.L5:
 410              		.loc 1 6 39 view .LVU77
 411 014e 00BF     		.align	2
 412              	.L4:
 413 0150 01080109 		.word	151062529
 414 0154 00004842 		.word	1112014848
 415 0158 00000000 		.word	.LANCHOR0
ARM GAS  C:\Users\skipi\AppData\Local\Temp\ccnEQq3j.s 			page 16


 416              		.cfi_endproc
 417              	.LFE5072:
 419              		.global	_ZN16PlantConditionerC1Ev
 420              		.thumb_set _ZN16PlantConditionerC1Ev,_ZN16PlantConditionerC2Ev
 421              		.section	.text._ZN16PlantConditionerD2Ev,"ax",%progbits
 422              		.align	1
 423              		.p2align 2,,3
 424              		.global	_ZN16PlantConditionerD2Ev
 425              		.syntax unified
 426              		.thumb
 427              		.thumb_func
 428              		.fpu fpv5-d16
 430              	_ZN16PlantConditionerD2Ev:
 431              	.LVL9:
 432              	.LFB5075:
   7:PSP/PlantConditioner.cpp **** PlantConditioner::~PlantConditioner() {}
 433              		.loc 1 7 1 is_stmt 1 view -0
 434              		.cfi_startproc
 435              		@ args = 0, pretend = 0, frame = 0
 436              		@ frame_needed = 0, uses_anonymous_args = 0
 437              		.loc 1 7 1 is_stmt 0 view .LVU79
 438 0000 10B5     		push	{r4, lr}
 439              		.cfi_def_cfa_offset 8
 440              		.cfi_offset 4, -8
 441              		.cfi_offset 14, -4
 442              		.loc 1 7 1 view .LVU80
 443 0002 0446     		mov	r4, r0
 444              	.LBB271:
 445              		.loc 1 7 37 view .LVU81
 446 0004 9C30     		adds	r0, r0, #156
 447              	.LVL10:
 448              		.loc 1 7 37 view .LVU82
 449 0006 FFF7FEFF 		bl	_ZN2MFD1Ev
 450              	.LVL11:
 451 000a 04F15400 		add	r0, r4, #84
 452 000e FFF7FEFF 		bl	_ZN3IIRD1Ev
 453              	.LVL12:
 454              	.LBB272:
 455              	.LBI272:
  93:../libs/PoliTeKDSP/libs/libDaisy/src/dev/mpr121.h **** 
 456              		.loc 2 93 5 is_stmt 1 view .LVU83
 457              	.LBB273:
 458              	.LBI273:
  21:../libs/PoliTeKDSP/libs/libDaisy/src/dev/mpr121.h **** 
 459              		.loc 2 21 5 view .LVU84
  21:../libs/PoliTeKDSP/libs/libDaisy/src/dev/mpr121.h **** 
 460              		.loc 2 21 5 is_stmt 0 view .LVU85
 461              	.LBE273:
 462              	.LBE272:
 463              	.LBE271:
 464              		.loc 1 7 40 view .LVU86
 465 0012 2046     		mov	r0, r4
 466 0014 10BD     		pop	{r4, pc}
 467              		.loc 1 7 40 view .LVU87
 468              		.cfi_endproc
 469              	.LFE5075:
 471              		.global	_ZN16PlantConditionerD1Ev
ARM GAS  C:\Users\skipi\AppData\Local\Temp\ccnEQq3j.s 			page 17


 472              		.thumb_set _ZN16PlantConditionerD1Ev,_ZN16PlantConditionerD2Ev
 473 0016 00BF     		.section	.text._ZN16PlantConditioner4InitEN3IIR10FilterTypeEPN5daisy9DaisySeedE,"ax",%progbits
 474              		.align	1
 475              		.p2align 2,,3
 476              		.global	_ZN16PlantConditioner4InitEN3IIR10FilterTypeEPN5daisy9DaisySeedE
 477              		.syntax unified
 478              		.thumb
 479              		.thumb_func
 480              		.fpu fpv5-d16
 482              	_ZN16PlantConditioner4InitEN3IIR10FilterTypeEPN5daisy9DaisySeedE:
 483              	.LVL13:
 484              	.LFB5077:
   8:PSP/PlantConditioner.cpp **** 
   9:PSP/PlantConditioner.cpp **** void PlantConditioner::Init(IIR::FilterType filter_type, daisy::DaisySeed* hw) {
 485              		.loc 1 9 80 is_stmt 1 view -0
 486              		.cfi_startproc
 487              		@ args = 0, pretend = 0, frame = 88
 488              		@ frame_needed = 0, uses_anonymous_args = 0
  10:PSP/PlantConditioner.cpp ****     
  11:PSP/PlantConditioner.cpp ****     _hw = hw;
 489              		.loc 1 11 5 view .LVU89
   9:PSP/PlantConditioner.cpp ****     
 490              		.loc 1 9 80 is_stmt 0 view .LVU90
 491 0000 2DE9F04F 		push	{r4, r5, r6, r7, r8, r9, r10, fp, lr}
 492              		.cfi_def_cfa_offset 36
 493              		.cfi_offset 4, -36
 494              		.cfi_offset 5, -32
 495              		.cfi_offset 6, -28
 496              		.cfi_offset 7, -24
 497              		.cfi_offset 8, -20
 498              		.cfi_offset 9, -16
 499              		.cfi_offset 10, -12
 500              		.cfi_offset 11, -8
 501              		.cfi_offset 14, -4
 502 0004 0446     		mov	r4, r0
 503 0006 9BB0     		sub	sp, sp, #108
 504              		.cfi_def_cfa_offset 144
  12:PSP/PlantConditioner.cpp **** 
  13:PSP/PlantConditioner.cpp ****     _mpr121ObjConf.transport_config.speed = daisy::I2CHandle::Config::Speed::I2C_400KHZ;
 505              		.loc 1 13 43 view .LVU91
 506 0008 0127     		movs	r7, #1
  11:PSP/PlantConditioner.cpp **** 
 507              		.loc 1 11 9 view .LVU92
 508 000a 0260     		str	r2, [r0]
 509              		.loc 1 13 5 is_stmt 1 view .LVU93
  14:PSP/PlantConditioner.cpp ****     if (_cap.Init(_mpr121ObjConf) != daisy::Mpr121I2C::Result::OK)
 510              		.loc 1 14 5 view .LVU94
 511              	.LVL14:
   9:PSP/PlantConditioner.cpp ****     
 512              		.loc 1 9 80 is_stmt 0 view .LVU95
 513 000c 0791     		str	r1, [sp, #28]
 514 000e 14AD     		add	r5, sp, #80
  13:PSP/PlantConditioner.cpp ****     if (_cap.Init(_mpr121ObjConf) != daisy::Mpr121I2C::Result::OK)
 515              		.loc 1 13 43 view .LVU96
 516 0010 8760     		str	r7, [r0, #8]
 517              	.LBB716:
 518              	.LBB717:
ARM GAS  C:\Users\skipi\AppData\Local\Temp\ccnEQq3j.s 			page 18


 104:../libs/PoliTeKDSP/libs/libDaisy/src/dev/mpr121.h ****             release_threshold = MPR121_RELEASE_THRESHOLD_DEFAULT;
 105:../libs/PoliTeKDSP/libs/libDaisy/src/dev/mpr121.h ****         }
 106:../libs/PoliTeKDSP/libs/libDaisy/src/dev/mpr121.h ****     };
 107:../libs/PoliTeKDSP/libs/libDaisy/src/dev/mpr121.h **** 
 108:../libs/PoliTeKDSP/libs/libDaisy/src/dev/mpr121.h ****     enum Result
 109:../libs/PoliTeKDSP/libs/libDaisy/src/dev/mpr121.h ****     {
 110:../libs/PoliTeKDSP/libs/libDaisy/src/dev/mpr121.h ****         OK = 0,
 111:../libs/PoliTeKDSP/libs/libDaisy/src/dev/mpr121.h ****         ERR
 112:../libs/PoliTeKDSP/libs/libDaisy/src/dev/mpr121.h ****     };
 113:../libs/PoliTeKDSP/libs/libDaisy/src/dev/mpr121.h **** 
 114:../libs/PoliTeKDSP/libs/libDaisy/src/dev/mpr121.h ****     /** Initialize the MPR121 device
 115:../libs/PoliTeKDSP/libs/libDaisy/src/dev/mpr121.h ****         \param config Configuration settings
 116:../libs/PoliTeKDSP/libs/libDaisy/src/dev/mpr121.h ****     */
 117:../libs/PoliTeKDSP/libs/libDaisy/src/dev/mpr121.h ****     Result Init(Config config)
 118:../libs/PoliTeKDSP/libs/libDaisy/src/dev/mpr121.h ****     {
 119:../libs/PoliTeKDSP/libs/libDaisy/src/dev/mpr121.h ****         config_ = config;
 519              		.loc 2 119 9 view .LVU97
 520 0012 0DF15009 		add	r9, sp, #80
 521 0016 4068     		ldr	r0, [r0, #4]	@ unaligned
 522              	.LVL15:
 523              		.loc 2 119 9 view .LVU98
 524 0018 04F11C0E 		add	lr, r4, #28
 525              	.LVL16:
 526              		.loc 2 119 9 view .LVU99
 527 001c A168     		ldr	r1, [r4, #8]	@ unaligned
 528              	.LVL17:
 529              		.loc 2 119 9 view .LVU100
 530 001e 0DF1280C 		add	ip, sp, #40
 531 0022 E268     		ldr	r2, [r4, #12]	@ unaligned
 532              	.LVL18:
 533              	.LBB718:
 534              	.LBB719:
  59:../libs/PoliTeKDSP/libs/libDaisy/src/dev/mpr121.h ****     }
 535              		.loc 2 59 50 view .LVU101
 536 0024 0FAE     		add	r6, sp, #60
 537 0026 2369     		ldr	r3, [r4, #16]	@ unaligned
  49:../libs/PoliTeKDSP/libs/libDaisy/src/dev/mpr121.h **** 
 538              		.loc 2 49 17 view .LVU102
 539 0028 E246     		mov	r10, ip
 540              	.LBE719:
 541              	.LBE718:
 542              	.LBB731:
 543              	.LBB732:
 544              	.LBB733:
 545              	.LBB734:
  74:../libs/PoliTeKDSP/libs/libDaisy/src/dev/mpr121.h ****                    config_.dev_addr, address, 1, data, size, 10);
 546              		.loc 2 74 42 view .LVU103
 547 002a E346     		mov	fp, ip
 548              	.LBE734:
 549              	.LBE733:
 550              	.LBB739:
 551              	.LBB740:
 552              	.LBB741:
 553              	.LBB742:
 554              	.LBB743:
  66:../libs/PoliTeKDSP/libs/libDaisy/src/dev/mpr121.h ****                    config_.dev_addr, address, 1, data, size, 10);
 555              		.loc 2 66 41 view .LVU104
ARM GAS  C:\Users\skipi\AppData\Local\Temp\ccnEQq3j.s 			page 19


 556 002c 4FF00A08 		mov	r8, #10
 557 0030 0FC5     		stmia	r5!, {r0, r1, r2, r3}
 558 0032 238B     		ldrh	r3, [r4, #24]	@ unaligned
 559 0034 6069     		ldr	r0, [r4, #20]	@ unaligned
 560 0036 AB80     		strh	r3, [r5, #4]	@ unaligned
 561              	.LBE743:
 562              	.LBE742:
 563              	.LBE741:
 564              	.LBE740:
 565              	.LBE739:
 566              	.LBE732:
 567              	.LBE731:
 568              	.LBE717:
 569              	.LBI716:
 117:../libs/PoliTeKDSP/libs/libDaisy/src/dev/mpr121.h ****     {
 570              		.loc 2 117 12 is_stmt 1 view .LVU105
 571              	.LBB2438:
 572              		.loc 2 119 9 is_stmt 0 view .LVU106
 573 0038 AB88     		ldrh	r3, [r5, #4]	@ unaligned
 574 003a 2860     		str	r0, [r5]
 120:../libs/PoliTeKDSP/libs/libDaisy/src/dev/mpr121.h **** 
 121:../libs/PoliTeKDSP/libs/libDaisy/src/dev/mpr121.h ****         SetTransportErr(transport_.Init(config_.transport_config));
 575              		.loc 2 121 24 view .LVU107
 576 003c 04F13405 		add	r5, r4, #52
 577              	.LVL19:
 119:../libs/PoliTeKDSP/libs/libDaisy/src/dev/mpr121.h **** 
 578              		.loc 2 119 9 view .LVU108
 579 0040 E062     		str	r0, [r4, #44]	@ unaligned
 580 0042 2386     		strh	r3, [r4, #48]	@ unaligned
 581 0044 B9E80F00 		ldmia	r9!, {r0, r1, r2, r3}
 582 0048 E061     		str	r0, [r4, #28]	@ unaligned
 583              	.LBB827:
 584              	.LBB821:
 585              	.LBB790:
 122:../libs/PoliTeKDSP/libs/libDaisy/src/dev/mpr121.h **** 
 123:../libs/PoliTeKDSP/libs/libDaisy/src/dev/mpr121.h ****         // soft reset
 124:../libs/PoliTeKDSP/libs/libDaisy/src/dev/mpr121.h ****         WriteRegister(MPR121_SOFTRESET, 0x63);
 125:../libs/PoliTeKDSP/libs/libDaisy/src/dev/mpr121.h ****         System::Delay(1);
 126:../libs/PoliTeKDSP/libs/libDaisy/src/dev/mpr121.h **** 
 127:../libs/PoliTeKDSP/libs/libDaisy/src/dev/mpr121.h ****         WriteRegister(MPR121_ECR, 0x0);
 128:../libs/PoliTeKDSP/libs/libDaisy/src/dev/mpr121.h **** 
 129:../libs/PoliTeKDSP/libs/libDaisy/src/dev/mpr121.h ****         uint8_t c = ReadRegister8(MPR121_CONFIG2);
 130:../libs/PoliTeKDSP/libs/libDaisy/src/dev/mpr121.h **** 
 131:../libs/PoliTeKDSP/libs/libDaisy/src/dev/mpr121.h ****         if(c != 0x24)
 132:../libs/PoliTeKDSP/libs/libDaisy/src/dev/mpr121.h ****             return ERR;
 133:../libs/PoliTeKDSP/libs/libDaisy/src/dev/mpr121.h **** 
 134:../libs/PoliTeKDSP/libs/libDaisy/src/dev/mpr121.h ****         SetThresholds(config_.touch_threshold, config_.release_threshold);
 135:../libs/PoliTeKDSP/libs/libDaisy/src/dev/mpr121.h ****         WriteRegister(MPR121_MHDR, 0x01);
 136:../libs/PoliTeKDSP/libs/libDaisy/src/dev/mpr121.h ****         WriteRegister(MPR121_NHDR, 0x01);
 137:../libs/PoliTeKDSP/libs/libDaisy/src/dev/mpr121.h ****         WriteRegister(MPR121_NCLR, 0x0E);
 138:../libs/PoliTeKDSP/libs/libDaisy/src/dev/mpr121.h ****         WriteRegister(MPR121_FDLR, 0x00);
 139:../libs/PoliTeKDSP/libs/libDaisy/src/dev/mpr121.h **** 
 140:../libs/PoliTeKDSP/libs/libDaisy/src/dev/mpr121.h ****         WriteRegister(MPR121_MHDF, 0x01);
 141:../libs/PoliTeKDSP/libs/libDaisy/src/dev/mpr121.h ****         WriteRegister(MPR121_NHDF, 0x05);
 142:../libs/PoliTeKDSP/libs/libDaisy/src/dev/mpr121.h ****         WriteRegister(MPR121_NCLF, 0x01);
 143:../libs/PoliTeKDSP/libs/libDaisy/src/dev/mpr121.h ****         WriteRegister(MPR121_FDLF, 0x00);
 144:../libs/PoliTeKDSP/libs/libDaisy/src/dev/mpr121.h **** 
ARM GAS  C:\Users\skipi\AppData\Local\Temp\ccnEQq3j.s 			page 20


 145:../libs/PoliTeKDSP/libs/libDaisy/src/dev/mpr121.h ****         WriteRegister(MPR121_NHDT, 0x00);
 146:../libs/PoliTeKDSP/libs/libDaisy/src/dev/mpr121.h ****         WriteRegister(MPR121_NCLT, 0x00);
 147:../libs/PoliTeKDSP/libs/libDaisy/src/dev/mpr121.h ****         WriteRegister(MPR121_FDLT, 0x00);
 148:../libs/PoliTeKDSP/libs/libDaisy/src/dev/mpr121.h **** 
 149:../libs/PoliTeKDSP/libs/libDaisy/src/dev/mpr121.h ****         WriteRegister(MPR121_DEBOUNCE, 0);
 150:../libs/PoliTeKDSP/libs/libDaisy/src/dev/mpr121.h ****         WriteRegister(MPR121_CONFIG1, 0x10); // default, 16uA charge current
 151:../libs/PoliTeKDSP/libs/libDaisy/src/dev/mpr121.h ****         WriteRegister(MPR121_CONFIG2, 0x20); // 0.5uS encoding, 1ms period
 152:../libs/PoliTeKDSP/libs/libDaisy/src/dev/mpr121.h **** 
 153:../libs/PoliTeKDSP/libs/libDaisy/src/dev/mpr121.h ****         // autoconfig
 154:../libs/PoliTeKDSP/libs/libDaisy/src/dev/mpr121.h ****         // WriteRegister(MPR121_AUTOCONFIG0, 0x0B);
 155:../libs/PoliTeKDSP/libs/libDaisy/src/dev/mpr121.h **** 
 156:../libs/PoliTeKDSP/libs/libDaisy/src/dev/mpr121.h ****         // correct values for Vdd = 3.3V
 157:../libs/PoliTeKDSP/libs/libDaisy/src/dev/mpr121.h ****         // WriteRegister(MPR121_UPLIMIT, 200);     // ((Vdd - 0.7)/Vdd) * 256
 158:../libs/PoliTeKDSP/libs/libDaisy/src/dev/mpr121.h ****         // WriteRegister(MPR121_TARGETLIMIT, 180); // UPLIMIT * 0.9
 159:../libs/PoliTeKDSP/libs/libDaisy/src/dev/mpr121.h ****         // WriteRegister(MPR121_LOWLIMIT, 130);    // UPLIMIT * 0.65
 160:../libs/PoliTeKDSP/libs/libDaisy/src/dev/mpr121.h ****         // autoconfig
 161:../libs/PoliTeKDSP/libs/libDaisy/src/dev/mpr121.h **** 
 162:../libs/PoliTeKDSP/libs/libDaisy/src/dev/mpr121.h ****         // enable X electrodes and start MPR121
 163:../libs/PoliTeKDSP/libs/libDaisy/src/dev/mpr121.h ****         uint8_t ECR_SETTING
 164:../libs/PoliTeKDSP/libs/libDaisy/src/dev/mpr121.h ****             = 0x80
 165:../libs/PoliTeKDSP/libs/libDaisy/src/dev/mpr121.h ****               + 12; // enable baseline tracking (10) & disable proximity (00) + X
 166:../libs/PoliTeKDSP/libs/libDaisy/src/dev/mpr121.h ****                     // amount of electrodes running (12)
 167:../libs/PoliTeKDSP/libs/libDaisy/src/dev/mpr121.h ****         WriteRegister(MPR121_ECR,
 168:../libs/PoliTeKDSP/libs/libDaisy/src/dev/mpr121.h ****                       ECR_SETTING); // start with above ECR setting
 169:../libs/PoliTeKDSP/libs/libDaisy/src/dev/mpr121.h **** 
 170:../libs/PoliTeKDSP/libs/libDaisy/src/dev/mpr121.h ****         return GetTransportErr();
 171:../libs/PoliTeKDSP/libs/libDaisy/src/dev/mpr121.h ****     }
 172:../libs/PoliTeKDSP/libs/libDaisy/src/dev/mpr121.h **** 
 173:../libs/PoliTeKDSP/libs/libDaisy/src/dev/mpr121.h ****     /** Set the touch and release thresholds for all 13 channels on the
 174:../libs/PoliTeKDSP/libs/libDaisy/src/dev/mpr121.h ****         device to the passed values.
 175:../libs/PoliTeKDSP/libs/libDaisy/src/dev/mpr121.h ****         \param      touch The touch threshold value from 0 to 255.
 176:../libs/PoliTeKDSP/libs/libDaisy/src/dev/mpr121.h ****         \param      release The release threshold from 0 to 255.
 177:../libs/PoliTeKDSP/libs/libDaisy/src/dev/mpr121.h ****     */
 178:../libs/PoliTeKDSP/libs/libDaisy/src/dev/mpr121.h ****     void SetThresholds(uint8_t touch, uint8_t release)
 179:../libs/PoliTeKDSP/libs/libDaisy/src/dev/mpr121.h ****     {
 180:../libs/PoliTeKDSP/libs/libDaisy/src/dev/mpr121.h ****         // set all thresholds (the same)
 181:../libs/PoliTeKDSP/libs/libDaisy/src/dev/mpr121.h ****         for(uint8_t i = 0; i < 12; i++)
 182:../libs/PoliTeKDSP/libs/libDaisy/src/dev/mpr121.h ****         {
 183:../libs/PoliTeKDSP/libs/libDaisy/src/dev/mpr121.h ****             WriteRegister(MPR121_TOUCHTH_0 + 2 * i, touch);
 184:../libs/PoliTeKDSP/libs/libDaisy/src/dev/mpr121.h ****             WriteRegister(MPR121_RELEASETH_0 + 2 * i, release);
 185:../libs/PoliTeKDSP/libs/libDaisy/src/dev/mpr121.h ****         }
 186:../libs/PoliTeKDSP/libs/libDaisy/src/dev/mpr121.h ****     }
 187:../libs/PoliTeKDSP/libs/libDaisy/src/dev/mpr121.h **** 
 188:../libs/PoliTeKDSP/libs/libDaisy/src/dev/mpr121.h **** 
 189:../libs/PoliTeKDSP/libs/libDaisy/src/dev/mpr121.h ****     /** Read the filtered data from channel t. The ADC raw data outputs
 190:../libs/PoliTeKDSP/libs/libDaisy/src/dev/mpr121.h ****         run through 3 levels of digital filtering to filter out the high
 191:../libs/PoliTeKDSP/libs/libDaisy/src/dev/mpr121.h ****         frequency and low frequency noise encountered. For detailed information on
 192:../libs/PoliTeKDSP/libs/libDaisy/src/dev/mpr121.h ****         this filtering see page 6 of the device datasheet.
 193:../libs/PoliTeKDSP/libs/libDaisy/src/dev/mpr121.h ****         \param      t the channel to read
 194:../libs/PoliTeKDSP/libs/libDaisy/src/dev/mpr121.h ****         \returns    the filtered reading as a 10 bit unsigned value
 195:../libs/PoliTeKDSP/libs/libDaisy/src/dev/mpr121.h ****     */
 196:../libs/PoliTeKDSP/libs/libDaisy/src/dev/mpr121.h ****     uint16_t FilteredData(uint8_t t)
 197:../libs/PoliTeKDSP/libs/libDaisy/src/dev/mpr121.h ****     {
 198:../libs/PoliTeKDSP/libs/libDaisy/src/dev/mpr121.h ****         if(t > 12)
 199:../libs/PoliTeKDSP/libs/libDaisy/src/dev/mpr121.h ****             return 0;
 200:../libs/PoliTeKDSP/libs/libDaisy/src/dev/mpr121.h ****         return ReadRegister16(MPR121_FILTDATA_0L + t * 2);
 201:../libs/PoliTeKDSP/libs/libDaisy/src/dev/mpr121.h ****     }
ARM GAS  C:\Users\skipi\AppData\Local\Temp\ccnEQq3j.s 			page 21


 202:../libs/PoliTeKDSP/libs/libDaisy/src/dev/mpr121.h **** 
 203:../libs/PoliTeKDSP/libs/libDaisy/src/dev/mpr121.h ****     /** Read the baseline value for the channel. The 3rd level filtered
 204:../libs/PoliTeKDSP/libs/libDaisy/src/dev/mpr121.h ****         result is internally 10bit but only high 8 bits are readable
 205:../libs/PoliTeKDSP/libs/libDaisy/src/dev/mpr121.h ****         from registers 0x1E~0x2A as the baseline value output for each channel.
 206:../libs/PoliTeKDSP/libs/libDaisy/src/dev/mpr121.h ****         \param      t the channel to read.
 207:../libs/PoliTeKDSP/libs/libDaisy/src/dev/mpr121.h ****         \returns    the baseline data that was read
 208:../libs/PoliTeKDSP/libs/libDaisy/src/dev/mpr121.h ****     */
 209:../libs/PoliTeKDSP/libs/libDaisy/src/dev/mpr121.h ****     uint16_t BaselineData(uint8_t t)
 210:../libs/PoliTeKDSP/libs/libDaisy/src/dev/mpr121.h ****     {
 211:../libs/PoliTeKDSP/libs/libDaisy/src/dev/mpr121.h ****         if(t > 12)
 212:../libs/PoliTeKDSP/libs/libDaisy/src/dev/mpr121.h ****             return 0;
 213:../libs/PoliTeKDSP/libs/libDaisy/src/dev/mpr121.h ****         uint16_t bl = ReadRegister8(MPR121_BASELINE_0 + t);
 214:../libs/PoliTeKDSP/libs/libDaisy/src/dev/mpr121.h ****         return (bl << 2);
 215:../libs/PoliTeKDSP/libs/libDaisy/src/dev/mpr121.h ****     }
 216:../libs/PoliTeKDSP/libs/libDaisy/src/dev/mpr121.h **** 
 217:../libs/PoliTeKDSP/libs/libDaisy/src/dev/mpr121.h ****     /** Read the touch status of all 13 channels as bit values in a 12 bit integer.
 218:../libs/PoliTeKDSP/libs/libDaisy/src/dev/mpr121.h ****         \returns    a 12 bit integer with each bit corresponding to the touch status
 219:../libs/PoliTeKDSP/libs/libDaisy/src/dev/mpr121.h ****         of a sensor. For example, if bit 0 is set then channel 0 of the
 220:../libs/PoliTeKDSP/libs/libDaisy/src/dev/mpr121.h ****         device is currently deemed to be touched.
 221:../libs/PoliTeKDSP/libs/libDaisy/src/dev/mpr121.h ****     */
 222:../libs/PoliTeKDSP/libs/libDaisy/src/dev/mpr121.h ****     uint16_t Touched()
 223:../libs/PoliTeKDSP/libs/libDaisy/src/dev/mpr121.h ****     {
 224:../libs/PoliTeKDSP/libs/libDaisy/src/dev/mpr121.h ****         uint16_t t = ReadRegister16(MPR121_TOUCHSTATUS_L);
 225:../libs/PoliTeKDSP/libs/libDaisy/src/dev/mpr121.h ****         return t & 0x0FFF;
 226:../libs/PoliTeKDSP/libs/libDaisy/src/dev/mpr121.h ****     }
 227:../libs/PoliTeKDSP/libs/libDaisy/src/dev/mpr121.h **** 
 228:../libs/PoliTeKDSP/libs/libDaisy/src/dev/mpr121.h ****     /** Read the contents of an 8 bit device register.
 229:../libs/PoliTeKDSP/libs/libDaisy/src/dev/mpr121.h ****         \param      reg the register address to read from
 230:../libs/PoliTeKDSP/libs/libDaisy/src/dev/mpr121.h ****         \returns    the 8 bit value that was read.
 231:../libs/PoliTeKDSP/libs/libDaisy/src/dev/mpr121.h ****     */
 232:../libs/PoliTeKDSP/libs/libDaisy/src/dev/mpr121.h ****     uint8_t ReadRegister8(uint8_t reg)
 233:../libs/PoliTeKDSP/libs/libDaisy/src/dev/mpr121.h ****     {
 234:../libs/PoliTeKDSP/libs/libDaisy/src/dev/mpr121.h ****         uint8_t buff;
 235:../libs/PoliTeKDSP/libs/libDaisy/src/dev/mpr121.h ****         SetTransportErr(transport_.ReadDataAtAddress(reg, &buff, 1));
 236:../libs/PoliTeKDSP/libs/libDaisy/src/dev/mpr121.h **** 
 237:../libs/PoliTeKDSP/libs/libDaisy/src/dev/mpr121.h ****         return buff;
 238:../libs/PoliTeKDSP/libs/libDaisy/src/dev/mpr121.h ****     }
 239:../libs/PoliTeKDSP/libs/libDaisy/src/dev/mpr121.h **** 
 240:../libs/PoliTeKDSP/libs/libDaisy/src/dev/mpr121.h ****     /** Read the contents of a 16 bit device register.
 241:../libs/PoliTeKDSP/libs/libDaisy/src/dev/mpr121.h ****         \param      reg the register address to read from
 242:../libs/PoliTeKDSP/libs/libDaisy/src/dev/mpr121.h ****         \returns    the 16 bit value that was read.
 243:../libs/PoliTeKDSP/libs/libDaisy/src/dev/mpr121.h ****     */
 244:../libs/PoliTeKDSP/libs/libDaisy/src/dev/mpr121.h ****     uint16_t ReadRegister16(uint8_t reg)
 245:../libs/PoliTeKDSP/libs/libDaisy/src/dev/mpr121.h ****     {
 246:../libs/PoliTeKDSP/libs/libDaisy/src/dev/mpr121.h ****         uint16_t buff;
 247:../libs/PoliTeKDSP/libs/libDaisy/src/dev/mpr121.h ****         SetTransportErr(
 248:../libs/PoliTeKDSP/libs/libDaisy/src/dev/mpr121.h ****             transport_.ReadDataAtAddress(reg, (uint8_t *)(&buff), 2));
 249:../libs/PoliTeKDSP/libs/libDaisy/src/dev/mpr121.h **** 
 250:../libs/PoliTeKDSP/libs/libDaisy/src/dev/mpr121.h ****         return buff;
 251:../libs/PoliTeKDSP/libs/libDaisy/src/dev/mpr121.h ****     }
 252:../libs/PoliTeKDSP/libs/libDaisy/src/dev/mpr121.h **** 
 253:../libs/PoliTeKDSP/libs/libDaisy/src/dev/mpr121.h ****     /** Writes 8-bits to the specified destination register
 254:../libs/PoliTeKDSP/libs/libDaisy/src/dev/mpr121.h ****         \param  reg the register address to write to
 255:../libs/PoliTeKDSP/libs/libDaisy/src/dev/mpr121.h ****         \param  value the value to write
 256:../libs/PoliTeKDSP/libs/libDaisy/src/dev/mpr121.h ****     */
 257:../libs/PoliTeKDSP/libs/libDaisy/src/dev/mpr121.h ****     void WriteRegister(uint8_t reg, uint8_t value)
 258:../libs/PoliTeKDSP/libs/libDaisy/src/dev/mpr121.h ****     {
ARM GAS  C:\Users\skipi\AppData\Local\Temp\ccnEQq3j.s 			page 22


 259:../libs/PoliTeKDSP/libs/libDaisy/src/dev/mpr121.h ****         // MPR121 must be put in Stop Mode to write to most registers
 260:../libs/PoliTeKDSP/libs/libDaisy/src/dev/mpr121.h ****         bool stop_required = true;
 261:../libs/PoliTeKDSP/libs/libDaisy/src/dev/mpr121.h ****         if((reg == MPR121_ECR) || ((0x73 <= reg) && (reg <= 0x7A)))
 262:../libs/PoliTeKDSP/libs/libDaisy/src/dev/mpr121.h ****         {
 263:../libs/PoliTeKDSP/libs/libDaisy/src/dev/mpr121.h ****             stop_required = false;
 264:../libs/PoliTeKDSP/libs/libDaisy/src/dev/mpr121.h ****         }
 265:../libs/PoliTeKDSP/libs/libDaisy/src/dev/mpr121.h **** 
 266:../libs/PoliTeKDSP/libs/libDaisy/src/dev/mpr121.h ****         uint8_t ecr_backup;
 267:../libs/PoliTeKDSP/libs/libDaisy/src/dev/mpr121.h **** 
 268:../libs/PoliTeKDSP/libs/libDaisy/src/dev/mpr121.h ****         if(stop_required)
 269:../libs/PoliTeKDSP/libs/libDaisy/src/dev/mpr121.h ****         {
 270:../libs/PoliTeKDSP/libs/libDaisy/src/dev/mpr121.h ****             ecr_backup   = ReadRegister8(MPR121_ECR);
 271:../libs/PoliTeKDSP/libs/libDaisy/src/dev/mpr121.h ****             uint8_t zero = 0x00;
 586              		.loc 2 271 21 view .LVU109
 587 004a 4FF00009 		mov	r9, #0
 588              	.LBE790:
 589              	.LBE821:
 590              	.LBE827:
 119:../libs/PoliTeKDSP/libs/libDaisy/src/dev/mpr121.h **** 
 591              		.loc 2 119 9 view .LVU110
 592 004e 2162     		str	r1, [r4, #32]	@ unaligned
 593 0050 6262     		str	r2, [r4, #36]	@ unaligned
 594 0052 A362     		str	r3, [r4, #40]	@ unaligned
 595 0054 BEE80F00 		ldmia	lr!, {r0, r1, r2, r3}
 596              	.LVL20:
 119:../libs/PoliTeKDSP/libs/libDaisy/src/dev/mpr121.h **** 
 597              		.loc 2 119 9 view .LVU111
 598 0058 ACE80F00 		stmia	ip!, {r0, r1, r2, r3}
 599              	.LBB828:
 600              	.LBB729:
 601              	.LBB720:
 602              	.LBB721:
  29:../libs/PoliTeKDSP/libs/libDaisy/src/per/i2c.h ****     {
 603              		.loc 4 29 12 view .LVU112
 604 005c 4FF01003 		mov	r3, #16
 605              	.LBE721:
 606              	.LBE720:
  53:../libs/PoliTeKDSP/libs/libDaisy/src/dev/mpr121.h ****         i2c_conf.speed  = config.speed;
 607              		.loc 2 53 25 view .LVU113
 608 0060 0F90     		str	r0, [sp, #60]
 609              	.LBB727:
 610              	.LBB725:
  29:../libs/PoliTeKDSP/libs/libDaisy/src/per/i2c.h ****     {
 611              		.loc 4 29 12 view .LVU114
 612 0062 8DF84C30 		strb	r3, [sp, #76]
 613 0066 DEF80030 		ldr	r3, [lr]
 614 006a CCF80030 		str	r3, [ip]
 615              	.LBE725:
 616              	.LBE727:
  49:../libs/PoliTeKDSP/libs/libDaisy/src/dev/mpr121.h **** 
 617              		.loc 2 49 17 view .LVU115
 618 006e 84F84830 		strb	r3, [r4, #72]
  52:../libs/PoliTeKDSP/libs/libDaisy/src/dev/mpr121.h ****         i2c_conf.periph = config.periph;
 619              		.loc 2 52 25 view .LVU116
 620 0072 0023     		movs	r3, #0
  49:../libs/PoliTeKDSP/libs/libDaisy/src/dev/mpr121.h **** 
 621              		.loc 2 49 17 view .LVU117
ARM GAS  C:\Users\skipi\AppData\Local\Temp\ccnEQq3j.s 			page 23


 622 0074 0A90     		str	r0, [sp, #40]
  54:../libs/PoliTeKDSP/libs/libDaisy/src/dev/mpr121.h **** 
 623              		.loc 2 54 25 view .LVU118
 624 0076 CDE91173 		strd	r7, r3, [sp, #68]
 625              	.LVL21:
  54:../libs/PoliTeKDSP/libs/libDaisy/src/dev/mpr121.h **** 
 626              		.loc 2 54 25 view .LVU119
 627              	.LBE729:
 628              	.LBI718:
  47:../libs/PoliTeKDSP/libs/libDaisy/src/dev/mpr121.h ****     {
 629              		.loc 2 47 17 is_stmt 1 view .LVU120
 630              	.LBB730:
  49:../libs/PoliTeKDSP/libs/libDaisy/src/dev/mpr121.h **** 
 631              		.loc 2 49 9 view .LVU121
  51:../libs/PoliTeKDSP/libs/libDaisy/src/dev/mpr121.h ****         i2c_conf.mode   = I2CHandle::Config::Mode::I2C_MASTER;
 632              		.loc 2 51 9 view .LVU122
 633              	.LBB728:
 634              	.LBI720:
  29:../libs/PoliTeKDSP/libs/libDaisy/src/per/i2c.h ****     {
 635              		.loc 4 29 12 view .LVU123
 636              	.LBB726:
 637              	.LBB722:
 638              	.LBI722:
  59:../libs/PoliTeKDSP/libs/libDaisy/src/per/i2c.h ****             Pin scl;  /**< & */
 639              		.loc 4 59 9 view .LVU124
 640              	.LBB723:
 641              	.LBI723:
 642              		.loc 3 204 15 view .LVU125
 643              		.loc 3 204 15 is_stmt 0 view .LVU126
 644              	.LBE723:
 645              	.LBB724:
 646              	.LBI724:
 647              		.loc 3 204 15 is_stmt 1 view .LVU127
 648              		.loc 3 204 15 is_stmt 0 view .LVU128
 649              	.LBE724:
 650              	.LBE722:
 651              	.LBE726:
 652              	.LBE728:
  52:../libs/PoliTeKDSP/libs/libDaisy/src/dev/mpr121.h ****         i2c_conf.periph = config.periph;
 653              		.loc 2 52 9 is_stmt 1 view .LVU129
  53:../libs/PoliTeKDSP/libs/libDaisy/src/dev/mpr121.h ****         i2c_conf.speed  = config.speed;
 654              		.loc 2 53 9 view .LVU130
  54:../libs/PoliTeKDSP/libs/libDaisy/src/dev/mpr121.h **** 
 655              		.loc 2 54 9 view .LVU131
  56:../libs/PoliTeKDSP/libs/libDaisy/src/dev/mpr121.h ****         i2c_conf.pin_config.sda = config.sda;
 656              		.loc 2 56 9 view .LVU132
  56:../libs/PoliTeKDSP/libs/libDaisy/src/dev/mpr121.h ****         i2c_conf.pin_config.sda = config.sda;
 657              		.loc 2 56 33 is_stmt 0 view .LVU133
 658 007a BDF83030 		ldrh	r3, [sp, #48]
 659 007e ADF84030 		strh	r3, [sp, #64]	@ movhi
  57:../libs/PoliTeKDSP/libs/libDaisy/src/dev/mpr121.h **** 
 660              		.loc 2 57 9 is_stmt 1 view .LVU134
  57:../libs/PoliTeKDSP/libs/libDaisy/src/dev/mpr121.h **** 
 661              		.loc 2 57 33 is_stmt 0 view .LVU135
 662 0082 BDF83230 		ldrh	r3, [sp, #50]
 663 0086 ADF84230 		strh	r3, [sp, #66]	@ movhi
  59:../libs/PoliTeKDSP/libs/libDaisy/src/dev/mpr121.h ****     }
ARM GAS  C:\Users\skipi\AppData\Local\Temp\ccnEQq3j.s 			page 24


 664              		.loc 2 59 9 is_stmt 1 view .LVU136
  49:../libs/PoliTeKDSP/libs/libDaisy/src/dev/mpr121.h **** 
 665              		.loc 2 49 17 is_stmt 0 view .LVU137
 666 008a BAE80F00 		ldmia	r10!, {r0, r1, r2, r3}
  49:../libs/PoliTeKDSP/libs/libDaisy/src/dev/mpr121.h **** 
 667              		.loc 2 49 17 view .LVU138
 668 008e A063     		str	r0, [r4, #56]	@ unaligned
  59:../libs/PoliTeKDSP/libs/libDaisy/src/dev/mpr121.h ****     }
 669              		.loc 2 59 50 view .LVU139
 670 0090 2846     		mov	r0, r5
 671              	.LVL22:
  49:../libs/PoliTeKDSP/libs/libDaisy/src/dev/mpr121.h **** 
 672              		.loc 2 49 17 view .LVU140
 673 0092 E163     		str	r1, [r4, #60]	@ unaligned
  59:../libs/PoliTeKDSP/libs/libDaisy/src/dev/mpr121.h ****     }
 674              		.loc 2 59 50 view .LVU141
 675 0094 3146     		mov	r1, r6
  49:../libs/PoliTeKDSP/libs/libDaisy/src/dev/mpr121.h **** 
 676              		.loc 2 49 17 view .LVU142
 677 0096 2264     		str	r2, [r4, #64]	@ unaligned
 678 0098 6364     		str	r3, [r4, #68]	@ unaligned
  59:../libs/PoliTeKDSP/libs/libDaisy/src/dev/mpr121.h ****     }
 679              		.loc 2 59 50 view .LVU143
 680 009a FFF7FEFF 		bl	_ZN5daisy9I2CHandle4InitERKNS0_6ConfigE
 681              	.LVL23:
  59:../libs/PoliTeKDSP/libs/libDaisy/src/dev/mpr121.h ****     }
 682              		.loc 2 59 50 view .LVU144
 683              	.LBE730:
 684              	.LBE828:
 685              	.LBB829:
 686              	.LBI829:
 272:../libs/PoliTeKDSP/libs/libDaisy/src/dev/mpr121.h ****             // clear this register to set stop mode
 273:../libs/PoliTeKDSP/libs/libDaisy/src/dev/mpr121.h ****             SetTransportErr(
 274:../libs/PoliTeKDSP/libs/libDaisy/src/dev/mpr121.h ****                 transport_.WriteDataAtAddress(MPR121_ECR, &zero, 1));
 275:../libs/PoliTeKDSP/libs/libDaisy/src/dev/mpr121.h ****         }
 276:../libs/PoliTeKDSP/libs/libDaisy/src/dev/mpr121.h **** 
 277:../libs/PoliTeKDSP/libs/libDaisy/src/dev/mpr121.h ****         SetTransportErr(transport_.WriteDataAtAddress(reg, &value, 1));
 278:../libs/PoliTeKDSP/libs/libDaisy/src/dev/mpr121.h **** 
 279:../libs/PoliTeKDSP/libs/libDaisy/src/dev/mpr121.h ****         if(stop_required)
 280:../libs/PoliTeKDSP/libs/libDaisy/src/dev/mpr121.h ****         {
 281:../libs/PoliTeKDSP/libs/libDaisy/src/dev/mpr121.h ****             // write back the previous set ECR settings
 282:../libs/PoliTeKDSP/libs/libDaisy/src/dev/mpr121.h ****             SetTransportErr(
 283:../libs/PoliTeKDSP/libs/libDaisy/src/dev/mpr121.h ****                 transport_.WriteDataAtAddress(MPR121_ECR, &ecr_backup, 1));
 284:../libs/PoliTeKDSP/libs/libDaisy/src/dev/mpr121.h ****         }
 285:../libs/PoliTeKDSP/libs/libDaisy/src/dev/mpr121.h ****     }
 286:../libs/PoliTeKDSP/libs/libDaisy/src/dev/mpr121.h **** 
 287:../libs/PoliTeKDSP/libs/libDaisy/src/dev/mpr121.h ****     /** Device register map */
 288:../libs/PoliTeKDSP/libs/libDaisy/src/dev/mpr121.h ****     enum RegMap
 289:../libs/PoliTeKDSP/libs/libDaisy/src/dev/mpr121.h ****     {
 290:../libs/PoliTeKDSP/libs/libDaisy/src/dev/mpr121.h ****         MPR121_TOUCHSTATUS_L = 0x00,
 291:../libs/PoliTeKDSP/libs/libDaisy/src/dev/mpr121.h ****         MPR121_TOUCHSTATUS_H = 0x01,
 292:../libs/PoliTeKDSP/libs/libDaisy/src/dev/mpr121.h ****         MPR121_FILTDATA_0L   = 0x04,
 293:../libs/PoliTeKDSP/libs/libDaisy/src/dev/mpr121.h ****         MPR121_FILTDATA_0H   = 0x05,
 294:../libs/PoliTeKDSP/libs/libDaisy/src/dev/mpr121.h ****         MPR121_BASELINE_0    = 0x1E,
 295:../libs/PoliTeKDSP/libs/libDaisy/src/dev/mpr121.h ****         MPR121_MHDR          = 0x2B,
 296:../libs/PoliTeKDSP/libs/libDaisy/src/dev/mpr121.h ****         MPR121_NHDR          = 0x2C,
 297:../libs/PoliTeKDSP/libs/libDaisy/src/dev/mpr121.h ****         MPR121_NCLR          = 0x2D,
ARM GAS  C:\Users\skipi\AppData\Local\Temp\ccnEQq3j.s 			page 25


 298:../libs/PoliTeKDSP/libs/libDaisy/src/dev/mpr121.h ****         MPR121_FDLR          = 0x2E,
 299:../libs/PoliTeKDSP/libs/libDaisy/src/dev/mpr121.h ****         MPR121_MHDF          = 0x2F,
 300:../libs/PoliTeKDSP/libs/libDaisy/src/dev/mpr121.h ****         MPR121_NHDF          = 0x30,
 301:../libs/PoliTeKDSP/libs/libDaisy/src/dev/mpr121.h ****         MPR121_NCLF          = 0x31,
 302:../libs/PoliTeKDSP/libs/libDaisy/src/dev/mpr121.h ****         MPR121_FDLF          = 0x32,
 303:../libs/PoliTeKDSP/libs/libDaisy/src/dev/mpr121.h ****         MPR121_NHDT          = 0x33,
 304:../libs/PoliTeKDSP/libs/libDaisy/src/dev/mpr121.h ****         MPR121_NCLT          = 0x34,
 305:../libs/PoliTeKDSP/libs/libDaisy/src/dev/mpr121.h ****         MPR121_FDLT          = 0x35,
 306:../libs/PoliTeKDSP/libs/libDaisy/src/dev/mpr121.h **** 
 307:../libs/PoliTeKDSP/libs/libDaisy/src/dev/mpr121.h ****         MPR121_TOUCHTH_0    = 0x41,
 308:../libs/PoliTeKDSP/libs/libDaisy/src/dev/mpr121.h ****         MPR121_RELEASETH_0  = 0x42,
 309:../libs/PoliTeKDSP/libs/libDaisy/src/dev/mpr121.h ****         MPR121_DEBOUNCE     = 0x5B,
 310:../libs/PoliTeKDSP/libs/libDaisy/src/dev/mpr121.h ****         MPR121_CONFIG1      = 0x5C,
 311:../libs/PoliTeKDSP/libs/libDaisy/src/dev/mpr121.h ****         MPR121_CONFIG2      = 0x5D,
 312:../libs/PoliTeKDSP/libs/libDaisy/src/dev/mpr121.h ****         MPR121_CHARGECURR_0 = 0x5F,
 313:../libs/PoliTeKDSP/libs/libDaisy/src/dev/mpr121.h ****         MPR121_CHARGETIME_1 = 0x6C,
 314:../libs/PoliTeKDSP/libs/libDaisy/src/dev/mpr121.h ****         MPR121_ECR          = 0x5E,
 315:../libs/PoliTeKDSP/libs/libDaisy/src/dev/mpr121.h ****         MPR121_AUTOCONFIG0  = 0x7B,
 316:../libs/PoliTeKDSP/libs/libDaisy/src/dev/mpr121.h ****         MPR121_AUTOCONFIG1  = 0x7C,
 317:../libs/PoliTeKDSP/libs/libDaisy/src/dev/mpr121.h ****         MPR121_UPLIMIT      = 0x7D,
 318:../libs/PoliTeKDSP/libs/libDaisy/src/dev/mpr121.h ****         MPR121_LOWLIMIT     = 0x7E,
 319:../libs/PoliTeKDSP/libs/libDaisy/src/dev/mpr121.h ****         MPR121_TARGETLIMIT  = 0x7F,
 320:../libs/PoliTeKDSP/libs/libDaisy/src/dev/mpr121.h **** 
 321:../libs/PoliTeKDSP/libs/libDaisy/src/dev/mpr121.h ****         MPR121_GPIODIR    = 0x76,
 322:../libs/PoliTeKDSP/libs/libDaisy/src/dev/mpr121.h ****         MPR121_GPIOEN     = 0x77,
 323:../libs/PoliTeKDSP/libs/libDaisy/src/dev/mpr121.h ****         MPR121_GPIOSET    = 0x78,
 324:../libs/PoliTeKDSP/libs/libDaisy/src/dev/mpr121.h ****         MPR121_GPIOCLR    = 0x79,
 325:../libs/PoliTeKDSP/libs/libDaisy/src/dev/mpr121.h ****         MPR121_GPIOTOGGLE = 0x7A,
 326:../libs/PoliTeKDSP/libs/libDaisy/src/dev/mpr121.h **** 
 327:../libs/PoliTeKDSP/libs/libDaisy/src/dev/mpr121.h ****         MPR121_SOFTRESET = 0x80,
 328:../libs/PoliTeKDSP/libs/libDaisy/src/dev/mpr121.h ****     };
 329:../libs/PoliTeKDSP/libs/libDaisy/src/dev/mpr121.h **** 
 330:../libs/PoliTeKDSP/libs/libDaisy/src/dev/mpr121.h ****   private:
 331:../libs/PoliTeKDSP/libs/libDaisy/src/dev/mpr121.h ****     Config    config_;
 332:../libs/PoliTeKDSP/libs/libDaisy/src/dev/mpr121.h ****     Transport transport_;
 333:../libs/PoliTeKDSP/libs/libDaisy/src/dev/mpr121.h ****     bool      transport_error_;
 334:../libs/PoliTeKDSP/libs/libDaisy/src/dev/mpr121.h **** 
 335:../libs/PoliTeKDSP/libs/libDaisy/src/dev/mpr121.h ****     /** Set the global transport_error_ bool */
 336:../libs/PoliTeKDSP/libs/libDaisy/src/dev/mpr121.h ****     void SetTransportErr(bool err) { transport_error_ |= err; }
 687              		.loc 2 336 10 is_stmt 1 view .LVU145
 688              	.LBE829:
 689              	.LBB833:
 690              	.LBB822:
 691              	.LBB791:
 692              	.LBB766:
 693              	.LBB759:
 694              	.LBB748:
 695              	.LBB744:
  66:../libs/PoliTeKDSP/libs/libDaisy/src/dev/mpr121.h ****                    config_.dev_addr, address, 1, data, size, 10);
 696              		.loc 2 66 41 is_stmt 0 view .LVU146
 697 009e 0096     		str	r6, [sp]
 698 00a0 5E22     		movs	r2, #94
 699 00a2 CDE90178 		strd	r7, r8, [sp, #4]
 700              	.LBE744:
 701              	.LBE748:
 702              	.LBE759:
 703              	.LBE766:
ARM GAS  C:\Users\skipi\AppData\Local\Temp\ccnEQq3j.s 			page 26


 704              	.LBE791:
 705              	.LBE822:
 706              	.LBE833:
 707              	.LBB834:
 708              	.LBB830:
 709              		.loc 2 336 55 view .LVU147
 710 00a6 94F84C30 		ldrb	r3, [r4, #76]	@ zero_extendqisi2
 711              	.LBE830:
 712              	.LBE834:
 713              	.LBB835:
 714              	.LBB823:
 715              	.LBB792:
 716              	.LBB767:
 717              	.LBB760:
 718              	.LBB749:
 719              	.LBB745:
  66:../libs/PoliTeKDSP/libs/libDaisy/src/dev/mpr121.h ****                    config_.dev_addr, address, 1, data, size, 10);
 720              		.loc 2 66 41 view .LVU148
 721 00aa 94F84810 		ldrb	r1, [r4, #72]	@ zero_extendqisi2
 722              	.LBE745:
 723              	.LBE749:
 724              	.LBE760:
 725              	.LBE767:
 726              	.LBE792:
 727              	.LBE823:
 728              	.LBE835:
 729              	.LBB836:
 730              	.LBB831:
 731              		.loc 2 336 55 view .LVU149
 732 00ae 0028     		cmp	r0, #0
 733 00b0 18BF     		it	ne
 734 00b2 43F00103 		orrne	r3, r3, #1
 735              	.LBE831:
 736              	.LBE836:
 737              	.LBB837:
 738              	.LBB824:
 739              	.LBB793:
 740              	.LBB768:
 741              	.LBB761:
 742              	.LBB750:
 743              	.LBB746:
  66:../libs/PoliTeKDSP/libs/libDaisy/src/dev/mpr121.h ****                    config_.dev_addr, address, 1, data, size, 10);
 744              		.loc 2 66 41 view .LVU150
 745 00b6 2846     		mov	r0, r5
 746              	.LVL24:
  66:../libs/PoliTeKDSP/libs/libDaisy/src/dev/mpr121.h ****                    config_.dev_addr, address, 1, data, size, 10);
 747              		.loc 2 66 41 view .LVU151
 748              	.LBE746:
 749              	.LBE750:
 750              	.LBE761:
 751              	.LBE768:
 752              	.LBE793:
 753              	.LBE824:
 754              	.LBE837:
 755              	.LBB838:
 756              	.LBB832:
 757              		.loc 2 336 55 view .LVU152
ARM GAS  C:\Users\skipi\AppData\Local\Temp\ccnEQq3j.s 			page 27


 758 00b8 84F84C30 		strb	r3, [r4, #76]
 759              	.LVL25:
 760              		.loc 2 336 55 view .LVU153
 761 00bc 6323     		movs	r3, #99
 762 00be 8DF82730 		strb	r3, [sp, #39]
 763              	.LVL26:
 764              		.loc 2 336 55 view .LVU154
 765              	.LBE832:
 766              	.LBE838:
 767              	.LBB839:
 768              	.LBI731:
 257:../libs/PoliTeKDSP/libs/libDaisy/src/dev/mpr121.h ****     {
 769              		.loc 2 257 10 is_stmt 1 view .LVU155
 770              	.LBB825:
 771              	.LBB794:
 772              	.LBB769:
 773              	.LBI740:
 232:../libs/PoliTeKDSP/libs/libDaisy/src/dev/mpr121.h ****     {
 774              		.loc 2 232 13 view .LVU156
 775              	.LBB762:
 776              	.LBB751:
 777              	.LBI742:
  63:../libs/PoliTeKDSP/libs/libDaisy/src/dev/mpr121.h ****     {
 778              		.loc 2 63 10 view .LVU157
 779              	.LBB747:
  65:../libs/PoliTeKDSP/libs/libDaisy/src/dev/mpr121.h ****                != i2c_.ReadDataAtAddress(
 780              		.loc 2 65 9 view .LVU158
  66:../libs/PoliTeKDSP/libs/libDaisy/src/dev/mpr121.h ****                    config_.dev_addr, address, 1, data, size, 10);
 781              		.loc 2 66 41 is_stmt 0 view .LVU159
 782 00c2 3B46     		mov	r3, r7
 783              	.LVL27:
  66:../libs/PoliTeKDSP/libs/libDaisy/src/dev/mpr121.h ****                    config_.dev_addr, address, 1, data, size, 10);
 784              		.loc 2 66 41 view .LVU160
 785 00c4 FFF7FEFF 		bl	_ZN5daisy9I2CHandle17ReadDataAtAddressEtttPhtm
 786              	.LVL28:
  66:../libs/PoliTeKDSP/libs/libDaisy/src/dev/mpr121.h ****                    config_.dev_addr, address, 1, data, size, 10);
 787              		.loc 2 66 41 view .LVU161
 788              	.LBE747:
 789              	.LBE751:
 790              	.LBB752:
 791              	.LBI752:
 792              		.loc 2 336 10 is_stmt 1 view .LVU162
 793              	.LBE752:
 794              	.LBE762:
 795              	.LBE769:
 796              	.LBB770:
 797              	.LBB771:
  74:../libs/PoliTeKDSP/libs/libDaisy/src/dev/mpr121.h ****                    config_.dev_addr, address, 1, data, size, 10);
 798              		.loc 2 74 42 is_stmt 0 view .LVU163
 799 00c8 0096     		str	r6, [sp]
 800 00ca 5E22     		movs	r2, #94
 801 00cc CDE90178 		strd	r7, r8, [sp, #4]
 802              	.LBE771:
 803              	.LBE770:
 804              	.LBB776:
 805              	.LBB763:
 806              	.LBB756:
ARM GAS  C:\Users\skipi\AppData\Local\Temp\ccnEQq3j.s 			page 28


 807              	.LBB753:
 808              		.loc 2 336 55 view .LVU164
 809 00d0 94F84C30 		ldrb	r3, [r4, #76]	@ zero_extendqisi2
 810              	.LBE753:
 811              	.LBE756:
 812              	.LBE763:
 813              	.LBE776:
 814              	.LBB777:
 815              	.LBB772:
  74:../libs/PoliTeKDSP/libs/libDaisy/src/dev/mpr121.h ****                    config_.dev_addr, address, 1, data, size, 10);
 816              		.loc 2 74 42 view .LVU165
 817 00d4 94F84810 		ldrb	r1, [r4, #72]	@ zero_extendqisi2
 818              	.LBE772:
 819              	.LBE777:
 820              	.LBB778:
 821              	.LBB764:
 822              	.LBB757:
 823              	.LBB754:
 824              		.loc 2 336 55 view .LVU166
 825 00d8 0028     		cmp	r0, #0
 826 00da 18BF     		it	ne
 827 00dc 43F00103 		orrne	r3, r3, #1
 828              	.LBE754:
 829              	.LBE757:
 830              	.LBE764:
 831              	.LBE778:
 832              	.LBB779:
 833              	.LBB773:
  74:../libs/PoliTeKDSP/libs/libDaisy/src/dev/mpr121.h ****                    config_.dev_addr, address, 1, data, size, 10);
 834              		.loc 2 74 42 view .LVU167
 835 00e0 2846     		mov	r0, r5
 836              	.LVL29:
  74:../libs/PoliTeKDSP/libs/libDaisy/src/dev/mpr121.h ****                    config_.dev_addr, address, 1, data, size, 10);
 837              		.loc 2 74 42 view .LVU168
 838              	.LBE773:
 839              	.LBE779:
 840              	.LBB780:
 841              	.LBB765:
 842              	.LBB758:
 843              	.LBB755:
 844              		.loc 2 336 55 view .LVU169
 845 00e2 84F84C30 		strb	r3, [r4, #76]
 846              	.LVL30:
 847              		.loc 2 336 55 view .LVU170
 848              	.LBE755:
 849              	.LBE758:
 237:../libs/PoliTeKDSP/libs/libDaisy/src/dev/mpr121.h ****     }
 850              		.loc 2 237 16 view .LVU171
 851 00e6 9DF83C30 		ldrb	r3, [sp, #60]	@ zero_extendqisi2
 852              	.LVL31:
 237:../libs/PoliTeKDSP/libs/libDaisy/src/dev/mpr121.h ****     }
 853              		.loc 2 237 16 view .LVU172
 854              	.LBE765:
 855              	.LBE780:
 271:../libs/PoliTeKDSP/libs/libDaisy/src/dev/mpr121.h ****             // clear this register to set stop mode
 856              		.loc 2 271 21 view .LVU173
 857 00ea 8DF83C90 		strb	r9, [sp, #60]
ARM GAS  C:\Users\skipi\AppData\Local\Temp\ccnEQq3j.s 			page 29


 858              	.LVL32:
 859              	.LBB781:
 860              	.LBI770:
  71:../libs/PoliTeKDSP/libs/libDaisy/src/dev/mpr121.h ****     {
 861              		.loc 2 71 10 is_stmt 1 view .LVU174
 862              	.LBB774:
  73:../libs/PoliTeKDSP/libs/libDaisy/src/dev/mpr121.h ****                != i2c_.WriteDataAtAddress(
 863              		.loc 2 73 9 view .LVU175
 864              	.LBE774:
 865              	.LBE781:
 270:../libs/PoliTeKDSP/libs/libDaisy/src/dev/mpr121.h ****             uint8_t zero = 0x00;
 866              		.loc 2 270 26 is_stmt 0 view .LVU176
 867 00ee 8DF82830 		strb	r3, [sp, #40]
 868              	.LBB782:
 869              	.LBB775:
  74:../libs/PoliTeKDSP/libs/libDaisy/src/dev/mpr121.h ****                    config_.dev_addr, address, 1, data, size, 10);
 870              		.loc 2 74 42 view .LVU177
 871 00f2 3B46     		mov	r3, r7
 872 00f4 FFF7FEFF 		bl	_ZN5daisy9I2CHandle18WriteDataAtAddressEtttPhtm
 873              	.LVL33:
  74:../libs/PoliTeKDSP/libs/libDaisy/src/dev/mpr121.h ****                    config_.dev_addr, address, 1, data, size, 10);
 874              		.loc 2 74 42 view .LVU178
 875              	.LBE775:
 876              	.LBE782:
 877              	.LBB783:
 878              	.LBI783:
 879              		.loc 2 336 10 is_stmt 1 view .LVU179
 880              	.LBE783:
 881              	.LBE794:
 882              	.LBB795:
 883              	.LBB796:
  74:../libs/PoliTeKDSP/libs/libDaisy/src/dev/mpr121.h ****                    config_.dev_addr, address, 1, data, size, 10);
 884              		.loc 2 74 42 is_stmt 0 view .LVU180
 885 00f8 0DF12703 		add	r3, sp, #39
 886 00fc 8022     		movs	r2, #128
 887 00fe 0093     		str	r3, [sp]
 888 0100 CDE90178 		strd	r7, r8, [sp, #4]
 889              	.LBE796:
 890              	.LBE795:
 891              	.LBB800:
 892              	.LBB787:
 893              	.LBB784:
 894              		.loc 2 336 55 view .LVU181
 895 0104 94F84C30 		ldrb	r3, [r4, #76]	@ zero_extendqisi2
 896              	.LBE784:
 897              	.LBE787:
 898              	.LBE800:
 899              	.LBB801:
 900              	.LBB797:
  74:../libs/PoliTeKDSP/libs/libDaisy/src/dev/mpr121.h ****                    config_.dev_addr, address, 1, data, size, 10);
 901              		.loc 2 74 42 view .LVU182
 902 0108 94F84810 		ldrb	r1, [r4, #72]	@ zero_extendqisi2
 903              	.LBE797:
 904              	.LBE801:
 905              	.LBB802:
 906              	.LBB788:
 907              	.LBB785:
ARM GAS  C:\Users\skipi\AppData\Local\Temp\ccnEQq3j.s 			page 30


 908              		.loc 2 336 55 view .LVU183
 909 010c 0028     		cmp	r0, #0
 910 010e 18BF     		it	ne
 911 0110 43F00103 		orrne	r3, r3, #1
 912              	.LBE785:
 913              	.LBE788:
 914              	.LBE802:
 915              	.LBB803:
 916              	.LBB798:
  74:../libs/PoliTeKDSP/libs/libDaisy/src/dev/mpr121.h ****                    config_.dev_addr, address, 1, data, size, 10);
 917              		.loc 2 74 42 view .LVU184
 918 0114 2846     		mov	r0, r5
 919              	.LVL34:
  74:../libs/PoliTeKDSP/libs/libDaisy/src/dev/mpr121.h ****                    config_.dev_addr, address, 1, data, size, 10);
 920              		.loc 2 74 42 view .LVU185
 921              	.LBE798:
 922              	.LBE803:
 923              	.LBB804:
 924              	.LBB789:
 925              	.LBB786:
 926              		.loc 2 336 55 view .LVU186
 927 0116 84F84C30 		strb	r3, [r4, #76]
 928              	.LVL35:
 929              		.loc 2 336 55 view .LVU187
 930              	.LBE786:
 931              	.LBE789:
 932              	.LBE804:
 933              	.LBB805:
 934              	.LBI795:
  71:../libs/PoliTeKDSP/libs/libDaisy/src/dev/mpr121.h ****     {
 935              		.loc 2 71 10 is_stmt 1 view .LVU188
 936              	.LBB799:
  73:../libs/PoliTeKDSP/libs/libDaisy/src/dev/mpr121.h ****                != i2c_.WriteDataAtAddress(
 937              		.loc 2 73 9 view .LVU189
  74:../libs/PoliTeKDSP/libs/libDaisy/src/dev/mpr121.h ****                    config_.dev_addr, address, 1, data, size, 10);
 938              		.loc 2 74 42 is_stmt 0 view .LVU190
 939 011a 3B46     		mov	r3, r7
 940 011c FFF7FEFF 		bl	_ZN5daisy9I2CHandle18WriteDataAtAddressEtttPhtm
 941              	.LVL36:
  74:../libs/PoliTeKDSP/libs/libDaisy/src/dev/mpr121.h ****                    config_.dev_addr, address, 1, data, size, 10);
 942              		.loc 2 74 42 view .LVU191
 943              	.LBE799:
 944              	.LBE805:
 945              	.LBB806:
 946              	.LBI806:
 947              		.loc 2 336 10 is_stmt 1 view .LVU192
 948              	.LBE806:
 949              	.LBB810:
 950              	.LBB735:
  74:../libs/PoliTeKDSP/libs/libDaisy/src/dev/mpr121.h ****                    config_.dev_addr, address, 1, data, size, 10);
 951              		.loc 2 74 42 is_stmt 0 view .LVU193
 952 0120 CDF800B0 		str	fp, [sp]
 953 0124 5E22     		movs	r2, #94
 954 0126 CDE90178 		strd	r7, r8, [sp, #4]
 955              	.LBE735:
 956              	.LBE810:
 957              	.LBB811:
ARM GAS  C:\Users\skipi\AppData\Local\Temp\ccnEQq3j.s 			page 31


 958              	.LBB807:
 959              		.loc 2 336 55 view .LVU194
 960 012a 94F84C30 		ldrb	r3, [r4, #76]	@ zero_extendqisi2
 961              	.LBE807:
 962              	.LBE811:
 963              	.LBB812:
 964              	.LBB736:
  74:../libs/PoliTeKDSP/libs/libDaisy/src/dev/mpr121.h ****                    config_.dev_addr, address, 1, data, size, 10);
 965              		.loc 2 74 42 view .LVU195
 966 012e 94F84810 		ldrb	r1, [r4, #72]	@ zero_extendqisi2
 967              	.LBE736:
 968              	.LBE812:
 969              	.LBB813:
 970              	.LBB808:
 971              		.loc 2 336 55 view .LVU196
 972 0132 0028     		cmp	r0, #0
 973 0134 18BF     		it	ne
 974 0136 43F00103 		orrne	r3, r3, #1
 975              	.LBE808:
 976              	.LBE813:
 977              	.LBB814:
 978              	.LBB737:
  74:../libs/PoliTeKDSP/libs/libDaisy/src/dev/mpr121.h ****                    config_.dev_addr, address, 1, data, size, 10);
 979              		.loc 2 74 42 view .LVU197
 980 013a 2846     		mov	r0, r5
 981              	.LVL37:
  74:../libs/PoliTeKDSP/libs/libDaisy/src/dev/mpr121.h ****                    config_.dev_addr, address, 1, data, size, 10);
 982              		.loc 2 74 42 view .LVU198
 983              	.LBE737:
 984              	.LBE814:
 985              	.LBB815:
 986              	.LBB809:
 987              		.loc 2 336 55 view .LVU199
 988 013c 84F84C30 		strb	r3, [r4, #76]
 989              	.LVL38:
 990              		.loc 2 336 55 view .LVU200
 991              	.LBE809:
 992              	.LBE815:
 993              	.LBB816:
 994              	.LBI733:
  71:../libs/PoliTeKDSP/libs/libDaisy/src/dev/mpr121.h ****     {
 995              		.loc 2 71 10 is_stmt 1 view .LVU201
 996              	.LBB738:
  73:../libs/PoliTeKDSP/libs/libDaisy/src/dev/mpr121.h ****                != i2c_.WriteDataAtAddress(
 997              		.loc 2 73 9 view .LVU202
  74:../libs/PoliTeKDSP/libs/libDaisy/src/dev/mpr121.h ****                    config_.dev_addr, address, 1, data, size, 10);
 998              		.loc 2 74 42 is_stmt 0 view .LVU203
 999 0140 3B46     		mov	r3, r7
 1000 0142 FFF7FEFF 		bl	_ZN5daisy9I2CHandle18WriteDataAtAddressEtttPhtm
 1001              	.LVL39:
  74:../libs/PoliTeKDSP/libs/libDaisy/src/dev/mpr121.h ****                    config_.dev_addr, address, 1, data, size, 10);
 1002              		.loc 2 74 42 view .LVU204
 1003              	.LBE738:
 1004              	.LBE816:
 1005              	.LBB817:
 1006              	.LBI817:
 1007              		.loc 2 336 10 is_stmt 1 view .LVU205
ARM GAS  C:\Users\skipi\AppData\Local\Temp\ccnEQq3j.s 			page 32


 1008              	.LBB818:
 1009              		.loc 2 336 55 is_stmt 0 view .LVU206
 1010 0146 94F84C30 		ldrb	r3, [r4, #76]	@ zero_extendqisi2
 1011 014a 0028     		cmp	r0, #0
 1012 014c 18BF     		it	ne
 1013 014e 43F00103 		orrne	r3, r3, #1
 1014              	.LBE818:
 1015              	.LBE817:
 1016              	.LBE825:
 1017              	.LBE839:
 125:../libs/PoliTeKDSP/libs/libDaisy/src/dev/mpr121.h **** 
 1018              		.loc 2 125 22 view .LVU207
 1019 0152 3846     		mov	r0, r7
 1020              	.LVL40:
 1021              	.LBB840:
 1022              	.LBB826:
 1023              	.LBB820:
 1024              	.LBB819:
 1025              		.loc 2 336 55 view .LVU208
 1026 0154 84F84C30 		strb	r3, [r4, #76]
 1027              	.LVL41:
 1028              		.loc 2 336 55 view .LVU209
 1029              	.LBE819:
 1030              	.LBE820:
 1031              	.LBE826:
 1032              	.LBE840:
 125:../libs/PoliTeKDSP/libs/libDaisy/src/dev/mpr121.h **** 
 1033              		.loc 2 125 22 view .LVU210
 1034 0158 FFF7FEFF 		bl	_ZN5daisy6System5DelayEm
 1035              	.LVL42:
 1036              	.LBB841:
 1037              	.LBB842:
 1038              	.LBB843:
 1039              	.LBB844:
  74:../libs/PoliTeKDSP/libs/libDaisy/src/dev/mpr121.h ****                    config_.dev_addr, address, 1, data, size, 10);
 1040              		.loc 2 74 42 view .LVU211
 1041 015c 3B46     		mov	r3, r7
 1042 015e 5E22     		movs	r2, #94
 1043 0160 0096     		str	r6, [sp]
 1044 0162 2846     		mov	r0, r5
 1045 0164 8DF83C90 		strb	r9, [sp, #60]
 1046              	.LVL43:
  74:../libs/PoliTeKDSP/libs/libDaisy/src/dev/mpr121.h ****                    config_.dev_addr, address, 1, data, size, 10);
 1047              		.loc 2 74 42 view .LVU212
 1048              	.LBE844:
 1049              	.LBE843:
 1050              	.LBE842:
 1051              	.LBI841:
 257:../libs/PoliTeKDSP/libs/libDaisy/src/dev/mpr121.h ****     {
 1052              		.loc 2 257 10 is_stmt 1 view .LVU213
 1053              	.LBB854:
 1054              	.LBB846:
 1055              	.LBI843:
  71:../libs/PoliTeKDSP/libs/libDaisy/src/dev/mpr121.h ****     {
 1056              		.loc 2 71 10 view .LVU214
 1057              	.LBB845:
  73:../libs/PoliTeKDSP/libs/libDaisy/src/dev/mpr121.h ****                != i2c_.WriteDataAtAddress(
ARM GAS  C:\Users\skipi\AppData\Local\Temp\ccnEQq3j.s 			page 33


 1058              		.loc 2 73 9 view .LVU215
  74:../libs/PoliTeKDSP/libs/libDaisy/src/dev/mpr121.h ****                    config_.dev_addr, address, 1, data, size, 10);
 1059              		.loc 2 74 42 is_stmt 0 view .LVU216
 1060 0168 CDE90178 		strd	r7, r8, [sp, #4]
 1061 016c 94F84810 		ldrb	r1, [r4, #72]	@ zero_extendqisi2
 1062 0170 FFF7FEFF 		bl	_ZN5daisy9I2CHandle18WriteDataAtAddressEtttPhtm
 1063              	.LVL44:
  74:../libs/PoliTeKDSP/libs/libDaisy/src/dev/mpr121.h ****                    config_.dev_addr, address, 1, data, size, 10);
 1064              		.loc 2 74 42 view .LVU217
 1065              	.LBE845:
 1066              	.LBE846:
 1067              	.LBB847:
 1068              	.LBI847:
 1069              		.loc 2 336 10 is_stmt 1 view .LVU218
 1070              	.LBE847:
 1071              	.LBE854:
 1072              	.LBE841:
 1073              	.LBB858:
 1074              	.LBB859:
 1075              	.LBB860:
 1076              	.LBB861:
  66:../libs/PoliTeKDSP/libs/libDaisy/src/dev/mpr121.h ****                    config_.dev_addr, address, 1, data, size, 10);
 1077              		.loc 2 66 41 is_stmt 0 view .LVU219
 1078 0174 0096     		str	r6, [sp]
 1079 0176 3B46     		mov	r3, r7
 1080 0178 CDE90178 		strd	r7, r8, [sp, #4]
 1081              	.LBE861:
 1082              	.LBE860:
 1083              	.LBE859:
 1084              	.LBE858:
 1085              	.LBB873:
 1086              	.LBB855:
 1087              	.LBB851:
 1088              	.LBB848:
 1089              		.loc 2 336 55 view .LVU220
 1090 017c 94F84C20 		ldrb	r2, [r4, #76]	@ zero_extendqisi2
 1091              	.LBE848:
 1092              	.LBE851:
 1093              	.LBE855:
 1094              	.LBE873:
 1095              	.LBB874:
 1096              	.LBB870:
 1097              	.LBB865:
 1098              	.LBB862:
  66:../libs/PoliTeKDSP/libs/libDaisy/src/dev/mpr121.h ****                    config_.dev_addr, address, 1, data, size, 10);
 1099              		.loc 2 66 41 view .LVU221
 1100 0180 94F84810 		ldrb	r1, [r4, #72]	@ zero_extendqisi2
 1101              	.LBE862:
 1102              	.LBE865:
 1103              	.LBE870:
 1104              	.LBE874:
 1105              	.LBB875:
 1106              	.LBB856:
 1107              	.LBB852:
 1108              	.LBB849:
 1109              		.loc 2 336 55 view .LVU222
 1110 0184 0028     		cmp	r0, #0
ARM GAS  C:\Users\skipi\AppData\Local\Temp\ccnEQq3j.s 			page 34


 1111 0186 18BF     		it	ne
 1112 0188 42F00102 		orrne	r2, r2, #1
 1113              	.LBE849:
 1114              	.LBE852:
 1115              	.LBE856:
 1116              	.LBE875:
 1117              	.LBB876:
 1118              	.LBB871:
 1119              	.LBB866:
 1120              	.LBB863:
  66:../libs/PoliTeKDSP/libs/libDaisy/src/dev/mpr121.h ****                    config_.dev_addr, address, 1, data, size, 10);
 1121              		.loc 2 66 41 view .LVU223
 1122 018c 2846     		mov	r0, r5
 1123              	.LVL45:
  66:../libs/PoliTeKDSP/libs/libDaisy/src/dev/mpr121.h ****                    config_.dev_addr, address, 1, data, size, 10);
 1124              		.loc 2 66 41 view .LVU224
 1125              	.LBE863:
 1126              	.LBE866:
 1127              	.LBE871:
 1128              	.LBE876:
 1129              	.LBB877:
 1130              	.LBB857:
 1131              	.LBB853:
 1132              	.LBB850:
 1133              		.loc 2 336 55 view .LVU225
 1134 018e 84F84C20 		strb	r2, [r4, #76]
 1135              	.LVL46:
 1136              		.loc 2 336 55 view .LVU226
 1137              	.LBE850:
 1138              	.LBE853:
 1139              	.LBE857:
 1140              	.LBE877:
 1141              	.LBB878:
 1142              	.LBI858:
 232:../libs/PoliTeKDSP/libs/libDaisy/src/dev/mpr121.h ****     {
 1143              		.loc 2 232 13 is_stmt 1 view .LVU227
 1144              	.LBB872:
 1145              	.LBB867:
 1146              	.LBI860:
  63:../libs/PoliTeKDSP/libs/libDaisy/src/dev/mpr121.h ****     {
 1147              		.loc 2 63 10 view .LVU228
 1148              	.LBB864:
  65:../libs/PoliTeKDSP/libs/libDaisy/src/dev/mpr121.h ****                != i2c_.ReadDataAtAddress(
 1149              		.loc 2 65 9 view .LVU229
  66:../libs/PoliTeKDSP/libs/libDaisy/src/dev/mpr121.h ****                    config_.dev_addr, address, 1, data, size, 10);
 1150              		.loc 2 66 41 is_stmt 0 view .LVU230
 1151 0192 5D22     		movs	r2, #93
 1152 0194 FFF7FEFF 		bl	_ZN5daisy9I2CHandle17ReadDataAtAddressEtttPhtm
 1153              	.LVL47:
  66:../libs/PoliTeKDSP/libs/libDaisy/src/dev/mpr121.h ****                    config_.dev_addr, address, 1, data, size, 10);
 1154              		.loc 2 66 41 view .LVU231
 1155              	.LBE864:
 1156              	.LBE867:
 1157              	.LBB868:
 1158              	.LBI868:
 1159              		.loc 2 336 10 is_stmt 1 view .LVU232
 1160              	.LBB869:
ARM GAS  C:\Users\skipi\AppData\Local\Temp\ccnEQq3j.s 			page 35


 1161              		.loc 2 336 55 is_stmt 0 view .LVU233
 1162 0198 94F84C30 		ldrb	r3, [r4, #76]	@ zero_extendqisi2
 1163 019c 0028     		cmp	r0, #0
 1164 019e 18BF     		it	ne
 1165 01a0 43F00103 		orrne	r3, r3, #1
 1166 01a4 84F84C30 		strb	r3, [r4, #76]
 1167              	.LVL48:
 1168              		.loc 2 336 55 view .LVU234
 1169              	.LBE869:
 1170              	.LBE868:
 237:../libs/PoliTeKDSP/libs/libDaisy/src/dev/mpr121.h ****     }
 1171              		.loc 2 237 16 view .LVU235
 1172 01a8 9DF83C30 		ldrb	r3, [sp, #60]	@ zero_extendqisi2
 1173              	.LVL49:
 237:../libs/PoliTeKDSP/libs/libDaisy/src/dev/mpr121.h ****     }
 1174              		.loc 2 237 16 view .LVU236
 1175              	.LBE872:
 1176              	.LBE878:
 131:../libs/PoliTeKDSP/libs/libDaisy/src/dev/mpr121.h ****             return ERR;
 1177              		.loc 2 131 9 view .LVU237
 1178 01ac 242B     		cmp	r3, #36
 1179 01ae 10D0     		beq	.L18
 1180              	.LVL50:
 1181              	.L13:
 131:../libs/PoliTeKDSP/libs/libDaisy/src/dev/mpr121.h ****             return ERR;
 1182              		.loc 2 131 9 view .LVU238
 1183              	.LBE2438:
 1184              	.LBE716:
  15:PSP/PlantConditioner.cpp ****     {
  16:PSP/PlantConditioner.cpp ****         while (1) {
 1185              		.loc 1 16 9 is_stmt 1 discriminator 1 view .LVU239
  17:PSP/PlantConditioner.cpp ****             _hw->SetLed(true); _hw->DelayMs(100);
 1186              		.loc 1 17 13 discriminator 1 view .LVU240
 1187              		.loc 1 17 24 is_stmt 0 discriminator 1 view .LVU241
 1188 01b0 2068     		ldr	r0, [r4]
 1189 01b2 0121     		movs	r1, #1
 1190 01b4 FFF7FEFF 		bl	_ZN5daisy9DaisySeed6SetLedEb
 1191              	.LVL51:
 1192              		.loc 1 17 32 is_stmt 1 discriminator 1 view .LVU242
 1193              		.loc 1 17 44 is_stmt 0 discriminator 1 view .LVU243
 1194 01b8 2068     		ldr	r0, [r4]
 1195 01ba 6421     		movs	r1, #100
 1196 01bc FFF7FEFF 		bl	_ZN5daisy9DaisySeed7DelayMsEj
 1197              	.LVL52:
  18:PSP/PlantConditioner.cpp ****             _hw->SetLed(false); _hw->DelayMs(100);
 1198              		.loc 1 18 13 is_stmt 1 discriminator 1 view .LVU244
 1199              		.loc 1 18 24 is_stmt 0 discriminator 1 view .LVU245
 1200 01c0 2068     		ldr	r0, [r4]
 1201 01c2 0021     		movs	r1, #0
 1202 01c4 FFF7FEFF 		bl	_ZN5daisy9DaisySeed6SetLedEb
 1203              	.LVL53:
 1204              		.loc 1 18 33 is_stmt 1 discriminator 1 view .LVU246
 1205              		.loc 1 18 45 is_stmt 0 discriminator 1 view .LVU247
 1206 01c8 6421     		movs	r1, #100
 1207 01ca 2068     		ldr	r0, [r4]
 1208 01cc FFF7FEFF 		bl	_ZN5daisy9DaisySeed7DelayMsEj
 1209              	.LVL54:
ARM GAS  C:\Users\skipi\AppData\Local\Temp\ccnEQq3j.s 			page 36


  16:PSP/PlantConditioner.cpp ****             _hw->SetLed(true); _hw->DelayMs(100);
 1210              		.loc 1 16 9 is_stmt 1 discriminator 1 view .LVU248
 1211 01d0 EEE7     		b	.L13
 1212              	.LVL55:
 1213              	.L18:
 1214              	.LBB2441:
 1215              	.LBB2439:
 134:../libs/PoliTeKDSP/libs/libDaisy/src/dev/mpr121.h ****         WriteRegister(MPR121_MHDR, 0x01);
 1216              		.loc 2 134 22 is_stmt 0 view .LVU249
 1217 01d2 94F83030 		ldrb	r3, [r4, #48]	@ zero_extendqisi2
 1218              	.LVL56:
 134:../libs/PoliTeKDSP/libs/libDaisy/src/dev/mpr121.h ****         WriteRegister(MPR121_MHDR, 0x01);
 1219              		.loc 2 134 22 view .LVU250
 1220 01d6 4FF04109 		mov	r9, #65
 1221 01da 0593     		str	r3, [sp, #20]
 1222 01dc 94F83130 		ldrb	r3, [r4, #49]	@ zero_extendqisi2
 1223 01e0 0693     		str	r3, [sp, #24]
 1224              	.LVL57:
 1225              	.LBB879:
 1226              	.LBI879:
 178:../libs/PoliTeKDSP/libs/libDaisy/src/dev/mpr121.h ****     {
 1227              		.loc 2 178 10 is_stmt 1 view .LVU251
 1228              	.LBB880:
 181:../libs/PoliTeKDSP/libs/libDaisy/src/dev/mpr121.h ****         {
 1229              		.loc 2 181 30 view .LVU252
 1230              	.L11:
 1231              	.LBB881:
 1232              	.LBB882:
 1233              	.LBB883:
 1234              	.LBB884:
 1235              	.LBB885:
 1236              	.LBB886:
 1237              	.LBB887:
  66:../libs/PoliTeKDSP/libs/libDaisy/src/dev/mpr121.h ****                    config_.dev_addr, address, 1, data, size, 10);
 1238              		.loc 2 66 41 is_stmt 0 view .LVU253
 1239 01e2 0127     		movs	r7, #1
 1240 01e4 4FF00A08 		mov	r8, #10
 1241 01e8 059B     		ldr	r3, [sp, #20]
 1242 01ea 5E22     		movs	r2, #94
 1243 01ec 0096     		str	r6, [sp]
 1244 01ee 2846     		mov	r0, r5
 1245 01f0 8DF82730 		strb	r3, [sp, #39]
 1246              	.LVL58:
  66:../libs/PoliTeKDSP/libs/libDaisy/src/dev/mpr121.h ****                    config_.dev_addr, address, 1, data, size, 10);
 1247              		.loc 2 66 41 view .LVU254
 1248              	.LBE887:
 1249              	.LBE886:
 1250              	.LBE885:
 1251              	.LBE884:
 1252              	.LBE883:
 1253              	.LBE882:
 1254              	.LBI881:
 257:../libs/PoliTeKDSP/libs/libDaisy/src/dev/mpr121.h ****     {
 1255              		.loc 2 257 10 is_stmt 1 view .LVU255
 1256              	.LBB960:
 1257              	.LBB926:
 1258              	.LBB904:
ARM GAS  C:\Users\skipi\AppData\Local\Temp\ccnEQq3j.s 			page 37


 1259              	.LBI884:
 232:../libs/PoliTeKDSP/libs/libDaisy/src/dev/mpr121.h ****     {
 1260              		.loc 2 232 13 view .LVU256
 1261              	.LBB899:
 1262              	.LBB890:
 1263              	.LBI886:
  63:../libs/PoliTeKDSP/libs/libDaisy/src/dev/mpr121.h ****     {
 1264              		.loc 2 63 10 view .LVU257
 1265              	.LBB888:
  65:../libs/PoliTeKDSP/libs/libDaisy/src/dev/mpr121.h ****                != i2c_.ReadDataAtAddress(
 1266              		.loc 2 65 9 view .LVU258
  66:../libs/PoliTeKDSP/libs/libDaisy/src/dev/mpr121.h ****                    config_.dev_addr, address, 1, data, size, 10);
 1267              		.loc 2 66 41 is_stmt 0 view .LVU259
 1268 01f4 3B46     		mov	r3, r7
 1269              	.LVL59:
  66:../libs/PoliTeKDSP/libs/libDaisy/src/dev/mpr121.h ****                    config_.dev_addr, address, 1, data, size, 10);
 1270              		.loc 2 66 41 view .LVU260
 1271              	.LBE888:
 1272              	.LBE890:
 1273              	.LBE899:
 1274              	.LBE904:
 271:../libs/PoliTeKDSP/libs/libDaisy/src/dev/mpr121.h ****             // clear this register to set stop mode
 1275              		.loc 2 271 21 view .LVU261
 1276 01f6 4FF0000A 		mov	r10, #0
 1277              	.LBB905:
 1278              	.LBB900:
 1279              	.LBB891:
 1280              	.LBB889:
  66:../libs/PoliTeKDSP/libs/libDaisy/src/dev/mpr121.h ****                    config_.dev_addr, address, 1, data, size, 10);
 1281              		.loc 2 66 41 view .LVU262
 1282 01fa CDE90178 		strd	r7, r8, [sp, #4]
 1283 01fe 94F84810 		ldrb	r1, [r4, #72]	@ zero_extendqisi2
 1284 0202 FFF7FEFF 		bl	_ZN5daisy9I2CHandle17ReadDataAtAddressEtttPhtm
 1285              	.LVL60:
  66:../libs/PoliTeKDSP/libs/libDaisy/src/dev/mpr121.h ****                    config_.dev_addr, address, 1, data, size, 10);
 1286              		.loc 2 66 41 view .LVU263
 1287              	.LBE889:
 1288              	.LBE891:
 1289              	.LBB892:
 1290              	.LBI892:
 1291              		.loc 2 336 10 is_stmt 1 view .LVU264
 1292              	.LBE892:
 1293              	.LBE900:
 1294              	.LBE905:
 1295              	.LBB906:
 1296              	.LBB907:
  74:../libs/PoliTeKDSP/libs/libDaisy/src/dev/mpr121.h ****                    config_.dev_addr, address, 1, data, size, 10);
 1297              		.loc 2 74 42 is_stmt 0 view .LVU265
 1298 0206 0096     		str	r6, [sp]
 1299 0208 5E22     		movs	r2, #94
 1300 020a CDE90178 		strd	r7, r8, [sp, #4]
 1301              	.LBE907:
 1302              	.LBE906:
 1303              	.LBB912:
 1304              	.LBB901:
 1305              	.LBB896:
 1306              	.LBB893:
ARM GAS  C:\Users\skipi\AppData\Local\Temp\ccnEQq3j.s 			page 38


 1307              		.loc 2 336 55 view .LVU266
 1308 020e 94F84C30 		ldrb	r3, [r4, #76]	@ zero_extendqisi2
 1309              	.LBE893:
 1310              	.LBE896:
 1311              	.LBE901:
 1312              	.LBE912:
 1313              	.LBB913:
 1314              	.LBB908:
  74:../libs/PoliTeKDSP/libs/libDaisy/src/dev/mpr121.h ****                    config_.dev_addr, address, 1, data, size, 10);
 1315              		.loc 2 74 42 view .LVU267
 1316 0212 94F84810 		ldrb	r1, [r4, #72]	@ zero_extendqisi2
 1317              	.LBE908:
 1318              	.LBE913:
 1319              	.LBB914:
 1320              	.LBB902:
 1321              	.LBB897:
 1322              	.LBB894:
 1323              		.loc 2 336 55 view .LVU268
 1324 0216 0028     		cmp	r0, #0
 1325 0218 18BF     		it	ne
 1326 021a 43F00103 		orrne	r3, r3, #1
 1327              	.LBE894:
 1328              	.LBE897:
 1329              	.LBE902:
 1330              	.LBE914:
 1331              	.LBB915:
 1332              	.LBB909:
  74:../libs/PoliTeKDSP/libs/libDaisy/src/dev/mpr121.h ****                    config_.dev_addr, address, 1, data, size, 10);
 1333              		.loc 2 74 42 view .LVU269
 1334 021e 2846     		mov	r0, r5
 1335              	.LVL61:
  74:../libs/PoliTeKDSP/libs/libDaisy/src/dev/mpr121.h ****                    config_.dev_addr, address, 1, data, size, 10);
 1336              		.loc 2 74 42 view .LVU270
 1337              	.LBE909:
 1338              	.LBE915:
 1339              	.LBB916:
 1340              	.LBB903:
 1341              	.LBB898:
 1342              	.LBB895:
 1343              		.loc 2 336 55 view .LVU271
 1344 0220 84F84C30 		strb	r3, [r4, #76]
 1345              	.LVL62:
 1346              		.loc 2 336 55 view .LVU272
 1347              	.LBE895:
 1348              	.LBE898:
 237:../libs/PoliTeKDSP/libs/libDaisy/src/dev/mpr121.h ****     }
 1349              		.loc 2 237 16 view .LVU273
 1350 0224 9DF83C30 		ldrb	r3, [sp, #60]	@ zero_extendqisi2
 1351              	.LVL63:
 237:../libs/PoliTeKDSP/libs/libDaisy/src/dev/mpr121.h ****     }
 1352              		.loc 2 237 16 view .LVU274
 1353              	.LBE903:
 1354              	.LBE916:
 271:../libs/PoliTeKDSP/libs/libDaisy/src/dev/mpr121.h ****             // clear this register to set stop mode
 1355              		.loc 2 271 21 view .LVU275
 1356 0228 8DF83CA0 		strb	r10, [sp, #60]
 1357              	.LVL64:
ARM GAS  C:\Users\skipi\AppData\Local\Temp\ccnEQq3j.s 			page 39


 1358              	.LBB917:
 1359              	.LBI906:
  71:../libs/PoliTeKDSP/libs/libDaisy/src/dev/mpr121.h ****     {
 1360              		.loc 2 71 10 is_stmt 1 view .LVU276
 1361              	.LBB910:
  73:../libs/PoliTeKDSP/libs/libDaisy/src/dev/mpr121.h ****                != i2c_.WriteDataAtAddress(
 1362              		.loc 2 73 9 view .LVU277
 1363              	.LBE910:
 1364              	.LBE917:
 270:../libs/PoliTeKDSP/libs/libDaisy/src/dev/mpr121.h ****             uint8_t zero = 0x00;
 1365              		.loc 2 270 26 is_stmt 0 view .LVU278
 1366 022c 8DF82830 		strb	r3, [sp, #40]
 1367              	.LBB918:
 1368              	.LBB911:
  74:../libs/PoliTeKDSP/libs/libDaisy/src/dev/mpr121.h ****                    config_.dev_addr, address, 1, data, size, 10);
 1369              		.loc 2 74 42 view .LVU279
 1370 0230 3B46     		mov	r3, r7
 1371 0232 FFF7FEFF 		bl	_ZN5daisy9I2CHandle18WriteDataAtAddressEtttPhtm
 1372              	.LVL65:
  74:../libs/PoliTeKDSP/libs/libDaisy/src/dev/mpr121.h ****                    config_.dev_addr, address, 1, data, size, 10);
 1373              		.loc 2 74 42 view .LVU280
 1374              	.LBE911:
 1375              	.LBE918:
 1376              	.LBB919:
 1377              	.LBI919:
 1378              		.loc 2 336 10 is_stmt 1 view .LVU281
 1379              	.LBE919:
 1380              	.LBE926:
 1381              	.LBB927:
 1382              	.LBB928:
  74:../libs/PoliTeKDSP/libs/libDaisy/src/dev/mpr121.h ****                    config_.dev_addr, address, 1, data, size, 10);
 1383              		.loc 2 74 42 is_stmt 0 view .LVU282
 1384 0236 0DF12703 		add	r3, sp, #39
 1385 023a 4A46     		mov	r2, r9
 1386 023c 0093     		str	r3, [sp]
 1387 023e CDE90178 		strd	r7, r8, [sp, #4]
 1388              	.LBE928:
 1389              	.LBE927:
 1390              	.LBB932:
 1391              	.LBB923:
 1392              	.LBB920:
 1393              		.loc 2 336 55 view .LVU283
 1394 0242 94F84C30 		ldrb	r3, [r4, #76]	@ zero_extendqisi2
 1395              	.LBE920:
 1396              	.LBE923:
 1397              	.LBE932:
 1398              	.LBB933:
 1399              	.LBB929:
  74:../libs/PoliTeKDSP/libs/libDaisy/src/dev/mpr121.h ****                    config_.dev_addr, address, 1, data, size, 10);
 1400              		.loc 2 74 42 view .LVU284
 1401 0246 94F84810 		ldrb	r1, [r4, #72]	@ zero_extendqisi2
 1402              	.LBE929:
 1403              	.LBE933:
 1404              	.LBB934:
 1405              	.LBB924:
 1406              	.LBB921:
 1407              		.loc 2 336 55 view .LVU285
ARM GAS  C:\Users\skipi\AppData\Local\Temp\ccnEQq3j.s 			page 40


 1408 024a 5045     		cmp	r0, r10
 1409 024c 18BF     		it	ne
 1410 024e 43F00103 		orrne	r3, r3, #1
 1411              	.LBE921:
 1412              	.LBE924:
 1413              	.LBE934:
 1414              	.LBB935:
 1415              	.LBB930:
  74:../libs/PoliTeKDSP/libs/libDaisy/src/dev/mpr121.h ****                    config_.dev_addr, address, 1, data, size, 10);
 1416              		.loc 2 74 42 view .LVU286
 1417 0252 2846     		mov	r0, r5
 1418              	.LVL66:
  74:../libs/PoliTeKDSP/libs/libDaisy/src/dev/mpr121.h ****                    config_.dev_addr, address, 1, data, size, 10);
 1419              		.loc 2 74 42 view .LVU287
 1420              	.LBE930:
 1421              	.LBE935:
 1422              	.LBB936:
 1423              	.LBB925:
 1424              	.LBB922:
 1425              		.loc 2 336 55 view .LVU288
 1426 0254 84F84C30 		strb	r3, [r4, #76]
 1427              	.LVL67:
 1428              		.loc 2 336 55 view .LVU289
 1429              	.LBE922:
 1430              	.LBE925:
 1431              	.LBE936:
 1432              	.LBB937:
 1433              	.LBI927:
  71:../libs/PoliTeKDSP/libs/libDaisy/src/dev/mpr121.h ****     {
 1434              		.loc 2 71 10 is_stmt 1 view .LVU290
 1435              	.LBB931:
  73:../libs/PoliTeKDSP/libs/libDaisy/src/dev/mpr121.h ****                != i2c_.WriteDataAtAddress(
 1436              		.loc 2 73 9 view .LVU291
  74:../libs/PoliTeKDSP/libs/libDaisy/src/dev/mpr121.h ****                    config_.dev_addr, address, 1, data, size, 10);
 1437              		.loc 2 74 42 is_stmt 0 view .LVU292
 1438 0258 3B46     		mov	r3, r7
 1439 025a FFF7FEFF 		bl	_ZN5daisy9I2CHandle18WriteDataAtAddressEtttPhtm
 1440              	.LVL68:
  74:../libs/PoliTeKDSP/libs/libDaisy/src/dev/mpr121.h ****                    config_.dev_addr, address, 1, data, size, 10);
 1441              		.loc 2 74 42 view .LVU293
 1442              	.LBE931:
 1443              	.LBE937:
 1444              	.LBB938:
 1445              	.LBI938:
 1446              		.loc 2 336 10 is_stmt 1 view .LVU294
 1447              	.LBE938:
 1448              	.LBB942:
 1449              	.LBB943:
  74:../libs/PoliTeKDSP/libs/libDaisy/src/dev/mpr121.h ****                    config_.dev_addr, address, 1, data, size, 10);
 1450              		.loc 2 74 42 is_stmt 0 view .LVU295
 1451 025e CDF800B0 		str	fp, [sp]
 1452 0262 5E22     		movs	r2, #94
 1453 0264 CDE90178 		strd	r7, r8, [sp, #4]
 1454              	.LBE943:
 1455              	.LBE942:
 1456              	.LBB947:
 1457              	.LBB939:
ARM GAS  C:\Users\skipi\AppData\Local\Temp\ccnEQq3j.s 			page 41


 1458              		.loc 2 336 55 view .LVU296
 1459 0268 94F84C30 		ldrb	r3, [r4, #76]	@ zero_extendqisi2
 1460              	.LBE939:
 1461              	.LBE947:
 1462              	.LBB948:
 1463              	.LBB944:
  74:../libs/PoliTeKDSP/libs/libDaisy/src/dev/mpr121.h ****                    config_.dev_addr, address, 1, data, size, 10);
 1464              		.loc 2 74 42 view .LVU297
 1465 026c 94F84810 		ldrb	r1, [r4, #72]	@ zero_extendqisi2
 1466              	.LBE944:
 1467              	.LBE948:
 1468              	.LBB949:
 1469              	.LBB940:
 1470              		.loc 2 336 55 view .LVU298
 1471 0270 5045     		cmp	r0, r10
 1472 0272 18BF     		it	ne
 1473 0274 43F00103 		orrne	r3, r3, #1
 1474              	.LBE940:
 1475              	.LBE949:
 1476              	.LBB950:
 1477              	.LBB945:
  74:../libs/PoliTeKDSP/libs/libDaisy/src/dev/mpr121.h ****                    config_.dev_addr, address, 1, data, size, 10);
 1478              		.loc 2 74 42 view .LVU299
 1479 0278 2846     		mov	r0, r5
 1480              	.LVL69:
  74:../libs/PoliTeKDSP/libs/libDaisy/src/dev/mpr121.h ****                    config_.dev_addr, address, 1, data, size, 10);
 1481              		.loc 2 74 42 view .LVU300
 1482              	.LBE945:
 1483              	.LBE950:
 1484              	.LBB951:
 1485              	.LBB941:
 1486              		.loc 2 336 55 view .LVU301
 1487 027a 84F84C30 		strb	r3, [r4, #76]
 1488              	.LVL70:
 1489              		.loc 2 336 55 view .LVU302
 1490              	.LBE941:
 1491              	.LBE951:
 1492              	.LBB952:
 1493              	.LBI942:
  71:../libs/PoliTeKDSP/libs/libDaisy/src/dev/mpr121.h ****     {
 1494              		.loc 2 71 10 is_stmt 1 view .LVU303
 1495              	.LBB946:
  73:../libs/PoliTeKDSP/libs/libDaisy/src/dev/mpr121.h ****                != i2c_.WriteDataAtAddress(
 1496              		.loc 2 73 9 view .LVU304
  74:../libs/PoliTeKDSP/libs/libDaisy/src/dev/mpr121.h ****                    config_.dev_addr, address, 1, data, size, 10);
 1497              		.loc 2 74 42 is_stmt 0 view .LVU305
 1498 027e 3B46     		mov	r3, r7
 1499 0280 FFF7FEFF 		bl	_ZN5daisy9I2CHandle18WriteDataAtAddressEtttPhtm
 1500              	.LVL71:
  74:../libs/PoliTeKDSP/libs/libDaisy/src/dev/mpr121.h ****                    config_.dev_addr, address, 1, data, size, 10);
 1501              		.loc 2 74 42 view .LVU306
 1502              	.LBE946:
 1503              	.LBE952:
 1504              	.LBB953:
 1505              	.LBI953:
 1506              		.loc 2 336 10 is_stmt 1 view .LVU307
 1507 0284 069B     		ldr	r3, [sp, #24]
ARM GAS  C:\Users\skipi\AppData\Local\Temp\ccnEQq3j.s 			page 42


 1508              	.LBE953:
 1509              	.LBE960:
 1510              	.LBE881:
 1511              	.LBB964:
 1512              	.LBB965:
 1513              	.LBB966:
 1514              	.LBB967:
 1515              	.LBB968:
 1516              	.LBB969:
 1517              	.LBB970:
  66:../libs/PoliTeKDSP/libs/libDaisy/src/dev/mpr121.h ****                    config_.dev_addr, address, 1, data, size, 10);
 1518              		.loc 2 66 41 is_stmt 0 view .LVU308
 1519 0286 0096     		str	r6, [sp]
 1520 0288 5E22     		movs	r2, #94
 1521 028a 8DF82730 		strb	r3, [sp, #39]
 1522 028e CDE90178 		strd	r7, r8, [sp, #4]
 1523              	.LBE970:
 1524              	.LBE969:
 1525              	.LBE968:
 1526              	.LBE967:
 1527              	.LBE966:
 1528              	.LBE965:
 1529              	.LBE964:
 1530              	.LBB1056:
 1531              	.LBB961:
 1532              	.LBB957:
 1533              	.LBB954:
 1534              		.loc 2 336 55 view .LVU309
 1535 0292 94F84C30 		ldrb	r3, [r4, #76]	@ zero_extendqisi2
 1536              	.LBE954:
 1537              	.LBE957:
 1538              	.LBE961:
 1539              	.LBE1056:
 1540              	.LBB1057:
 1541              	.LBB1050:
 1542              	.LBB1013:
 1543              	.LBB990:
 1544              	.LBB984:
 1545              	.LBB974:
 1546              	.LBB971:
  66:../libs/PoliTeKDSP/libs/libDaisy/src/dev/mpr121.h ****                    config_.dev_addr, address, 1, data, size, 10);
 1547              		.loc 2 66 41 view .LVU310
 1548 0296 94F84810 		ldrb	r1, [r4, #72]	@ zero_extendqisi2
 1549              	.LBE971:
 1550              	.LBE974:
 1551              	.LBE984:
 1552              	.LBE990:
 1553              	.LBE1013:
 1554              	.LBE1050:
 1555              	.LBE1057:
 1556              	.LBB1058:
 1557              	.LBB962:
 1558              	.LBB958:
 1559              	.LBB955:
 1560              		.loc 2 336 55 view .LVU311
 1561 029a 5045     		cmp	r0, r10
 1562 029c 18BF     		it	ne
ARM GAS  C:\Users\skipi\AppData\Local\Temp\ccnEQq3j.s 			page 43


 1563 029e 43F00103 		orrne	r3, r3, #1
 1564              	.LBE955:
 1565              	.LBE958:
 1566              	.LBE962:
 1567              	.LBE1058:
 1568              	.LBB1059:
 1569              	.LBB1051:
 1570              	.LBB1014:
 1571              	.LBB991:
 1572              	.LBB985:
 1573              	.LBB975:
 1574              	.LBB972:
  66:../libs/PoliTeKDSP/libs/libDaisy/src/dev/mpr121.h ****                    config_.dev_addr, address, 1, data, size, 10);
 1575              		.loc 2 66 41 view .LVU312
 1576 02a2 2846     		mov	r0, r5
 1577              	.LVL72:
  66:../libs/PoliTeKDSP/libs/libDaisy/src/dev/mpr121.h ****                    config_.dev_addr, address, 1, data, size, 10);
 1578              		.loc 2 66 41 view .LVU313
 1579              	.LBE972:
 1580              	.LBE975:
 1581              	.LBE985:
 1582              	.LBE991:
 1583              	.LBE1014:
 1584              	.LBE1051:
 1585              	.LBE1059:
 1586              	.LBB1060:
 1587              	.LBB963:
 1588              	.LBB959:
 1589              	.LBB956:
 1590              		.loc 2 336 55 view .LVU314
 1591 02a4 84F84C30 		strb	r3, [r4, #76]
 1592              	.LVL73:
 1593              		.loc 2 336 55 view .LVU315
 1594              	.LBE956:
 1595              	.LBE959:
 1596              	.LBE963:
 1597              	.LBE1060:
 1598              	.LBB1061:
 1599              	.LBI964:
 257:../libs/PoliTeKDSP/libs/libDaisy/src/dev/mpr121.h ****     {
 1600              		.loc 2 257 10 is_stmt 1 view .LVU316
 1601              	.LBB1052:
 1602              	.LBB1015:
 1603              	.LBB992:
 1604              	.LBI967:
 232:../libs/PoliTeKDSP/libs/libDaisy/src/dev/mpr121.h ****     {
 1605              		.loc 2 232 13 view .LVU317
 1606              	.LBB986:
 1607              	.LBB976:
 1608              	.LBI969:
  63:../libs/PoliTeKDSP/libs/libDaisy/src/dev/mpr121.h ****     {
 1609              		.loc 2 63 10 view .LVU318
 1610              	.LBB973:
  65:../libs/PoliTeKDSP/libs/libDaisy/src/dev/mpr121.h ****                != i2c_.ReadDataAtAddress(
 1611              		.loc 2 65 9 view .LVU319
  66:../libs/PoliTeKDSP/libs/libDaisy/src/dev/mpr121.h ****                    config_.dev_addr, address, 1, data, size, 10);
 1612              		.loc 2 66 41 is_stmt 0 view .LVU320
ARM GAS  C:\Users\skipi\AppData\Local\Temp\ccnEQq3j.s 			page 44


 1613 02a8 3B46     		mov	r3, r7
 1614 02aa FFF7FEFF 		bl	_ZN5daisy9I2CHandle17ReadDataAtAddressEtttPhtm
 1615              	.LVL74:
  66:../libs/PoliTeKDSP/libs/libDaisy/src/dev/mpr121.h ****                    config_.dev_addr, address, 1, data, size, 10);
 1616              		.loc 2 66 41 view .LVU321
 1617              	.LBE973:
 1618              	.LBE976:
 1619              	.LBB977:
 1620              	.LBI977:
 1621              		.loc 2 336 10 is_stmt 1 view .LVU322
 1622              	.LBE977:
 1623              	.LBE986:
 1624              	.LBE992:
 1625              	.LBB993:
 1626              	.LBB994:
  74:../libs/PoliTeKDSP/libs/libDaisy/src/dev/mpr121.h ****                    config_.dev_addr, address, 1, data, size, 10);
 1627              		.loc 2 74 42 is_stmt 0 view .LVU323
 1628 02ae 0096     		str	r6, [sp]
 1629 02b0 5E22     		movs	r2, #94
 1630 02b2 CDE90178 		strd	r7, r8, [sp, #4]
 1631              	.LBE994:
 1632              	.LBE993:
 1633              	.LBB999:
 1634              	.LBB987:
 1635              	.LBB981:
 1636              	.LBB978:
 1637              		.loc 2 336 55 view .LVU324
 1638 02b6 94F84C30 		ldrb	r3, [r4, #76]	@ zero_extendqisi2
 1639              	.LBE978:
 1640              	.LBE981:
 1641              	.LBE987:
 1642              	.LBE999:
 1643              	.LBB1000:
 1644              	.LBB995:
  74:../libs/PoliTeKDSP/libs/libDaisy/src/dev/mpr121.h ****                    config_.dev_addr, address, 1, data, size, 10);
 1645              		.loc 2 74 42 view .LVU325
 1646 02ba 94F84810 		ldrb	r1, [r4, #72]	@ zero_extendqisi2
 1647              	.LBE995:
 1648              	.LBE1000:
 1649              	.LBB1001:
 1650              	.LBB988:
 1651              	.LBB982:
 1652              	.LBB979:
 1653              		.loc 2 336 55 view .LVU326
 1654 02be 5045     		cmp	r0, r10
 1655 02c0 18BF     		it	ne
 1656 02c2 43F00103 		orrne	r3, r3, #1
 1657              	.LBE979:
 1658              	.LBE982:
 1659              	.LBE988:
 1660              	.LBE1001:
 1661              	.LBB1002:
 1662              	.LBB996:
  74:../libs/PoliTeKDSP/libs/libDaisy/src/dev/mpr121.h ****                    config_.dev_addr, address, 1, data, size, 10);
 1663              		.loc 2 74 42 view .LVU327
 1664 02c6 2846     		mov	r0, r5
 1665              	.LVL75:
ARM GAS  C:\Users\skipi\AppData\Local\Temp\ccnEQq3j.s 			page 45


  74:../libs/PoliTeKDSP/libs/libDaisy/src/dev/mpr121.h ****                    config_.dev_addr, address, 1, data, size, 10);
 1666              		.loc 2 74 42 view .LVU328
 1667              	.LBE996:
 1668              	.LBE1002:
 1669              	.LBB1003:
 1670              	.LBB989:
 1671              	.LBB983:
 1672              	.LBB980:
 1673              		.loc 2 336 55 view .LVU329
 1674 02c8 84F84C30 		strb	r3, [r4, #76]
 1675              	.LVL76:
 1676              		.loc 2 336 55 view .LVU330
 1677              	.LBE980:
 1678              	.LBE983:
 237:../libs/PoliTeKDSP/libs/libDaisy/src/dev/mpr121.h ****     }
 1679              		.loc 2 237 16 view .LVU331
 1680 02cc 9DF83C30 		ldrb	r3, [sp, #60]	@ zero_extendqisi2
 1681              	.LVL77:
 237:../libs/PoliTeKDSP/libs/libDaisy/src/dev/mpr121.h ****     }
 1682              		.loc 2 237 16 view .LVU332
 1683              	.LBE989:
 1684              	.LBE1003:
 271:../libs/PoliTeKDSP/libs/libDaisy/src/dev/mpr121.h ****             // clear this register to set stop mode
 1685              		.loc 2 271 21 view .LVU333
 1686 02d0 8DF83CA0 		strb	r10, [sp, #60]
 1687              	.LVL78:
 1688              	.LBB1004:
 1689              	.LBI993:
  71:../libs/PoliTeKDSP/libs/libDaisy/src/dev/mpr121.h ****     {
 1690              		.loc 2 71 10 is_stmt 1 view .LVU334
 1691              	.LBB997:
  73:../libs/PoliTeKDSP/libs/libDaisy/src/dev/mpr121.h ****                != i2c_.WriteDataAtAddress(
 1692              		.loc 2 73 9 view .LVU335
 1693              	.LBE997:
 1694              	.LBE1004:
 270:../libs/PoliTeKDSP/libs/libDaisy/src/dev/mpr121.h ****             uint8_t zero = 0x00;
 1695              		.loc 2 270 26 is_stmt 0 view .LVU336
 1696 02d4 8DF82830 		strb	r3, [sp, #40]
 1697              	.LBB1005:
 1698              	.LBB998:
  74:../libs/PoliTeKDSP/libs/libDaisy/src/dev/mpr121.h ****                    config_.dev_addr, address, 1, data, size, 10);
 1699              		.loc 2 74 42 view .LVU337
 1700 02d8 3B46     		mov	r3, r7
 1701 02da FFF7FEFF 		bl	_ZN5daisy9I2CHandle18WriteDataAtAddressEtttPhtm
 1702              	.LVL79:
  74:../libs/PoliTeKDSP/libs/libDaisy/src/dev/mpr121.h ****                    config_.dev_addr, address, 1, data, size, 10);
 1703              		.loc 2 74 42 view .LVU338
 1704              	.LBE998:
 1705              	.LBE1005:
 1706              	.LBB1006:
 1707              	.LBI1006:
 1708              		.loc 2 336 10 is_stmt 1 view .LVU339
 1709              	.LBE1006:
 1710              	.LBE1015:
 1711              	.LBB1016:
 1712              	.LBB1017:
  74:../libs/PoliTeKDSP/libs/libDaisy/src/dev/mpr121.h ****                    config_.dev_addr, address, 1, data, size, 10);
ARM GAS  C:\Users\skipi\AppData\Local\Temp\ccnEQq3j.s 			page 46


 1713              		.loc 2 74 42 is_stmt 0 view .LVU340
 1714 02de 0DF12703 		add	r3, sp, #39
 1715 02e2 09EB0702 		add	r2, r9, r7
 1716              	.LBE1017:
 1717              	.LBE1016:
 1718              	.LBE1052:
 1719              	.LBE1061:
 181:../libs/PoliTeKDSP/libs/libDaisy/src/dev/mpr121.h ****         {
 1720              		.loc 2 181 30 view .LVU341
 1721 02e6 09F10209 		add	r9, r9, #2
 1722              	.LVL80:
 1723              	.LBB1062:
 1724              	.LBB1053:
 1725              	.LBB1023:
 1726              	.LBB1018:
  74:../libs/PoliTeKDSP/libs/libDaisy/src/dev/mpr121.h ****                    config_.dev_addr, address, 1, data, size, 10);
 1727              		.loc 2 74 42 view .LVU342
 1728 02ea 0093     		str	r3, [sp]
 1729 02ec 92B2     		uxth	r2, r2
 1730              	.LBE1018:
 1731              	.LBE1023:
 1732              	.LBE1053:
 1733              	.LBE1062:
 181:../libs/PoliTeKDSP/libs/libDaisy/src/dev/mpr121.h ****         {
 1734              		.loc 2 181 30 view .LVU343
 1735 02ee 1FFA89F9 		uxth	r9, r9
 1736              	.LBB1063:
 1737              	.LBB1054:
 1738              	.LBB1024:
 1739              	.LBB1019:
  74:../libs/PoliTeKDSP/libs/libDaisy/src/dev/mpr121.h ****                    config_.dev_addr, address, 1, data, size, 10);
 1740              		.loc 2 74 42 view .LVU344
 1741 02f2 CDE90178 		strd	r7, r8, [sp, #4]
 1742              	.LBE1019:
 1743              	.LBE1024:
 1744              	.LBB1025:
 1745              	.LBB1010:
 1746              	.LBB1007:
 1747              		.loc 2 336 55 view .LVU345
 1748 02f6 94F84C30 		ldrb	r3, [r4, #76]	@ zero_extendqisi2
 1749              	.LBE1007:
 1750              	.LBE1010:
 1751              	.LBE1025:
 1752              	.LBB1026:
 1753              	.LBB1020:
  74:../libs/PoliTeKDSP/libs/libDaisy/src/dev/mpr121.h ****                    config_.dev_addr, address, 1, data, size, 10);
 1754              		.loc 2 74 42 view .LVU346
 1755 02fa 94F84810 		ldrb	r1, [r4, #72]	@ zero_extendqisi2
 1756              	.LBE1020:
 1757              	.LBE1026:
 1758              	.LBB1027:
 1759              	.LBB1011:
 1760              	.LBB1008:
 1761              		.loc 2 336 55 view .LVU347
 1762 02fe 5045     		cmp	r0, r10
 1763 0300 18BF     		it	ne
 1764 0302 43F00103 		orrne	r3, r3, #1
ARM GAS  C:\Users\skipi\AppData\Local\Temp\ccnEQq3j.s 			page 47


 1765              	.LBE1008:
 1766              	.LBE1011:
 1767              	.LBE1027:
 1768              	.LBB1028:
 1769              	.LBB1021:
  74:../libs/PoliTeKDSP/libs/libDaisy/src/dev/mpr121.h ****                    config_.dev_addr, address, 1, data, size, 10);
 1770              		.loc 2 74 42 view .LVU348
 1771 0306 2846     		mov	r0, r5
 1772              	.LVL81:
  74:../libs/PoliTeKDSP/libs/libDaisy/src/dev/mpr121.h ****                    config_.dev_addr, address, 1, data, size, 10);
 1773              		.loc 2 74 42 view .LVU349
 1774              	.LBE1021:
 1775              	.LBE1028:
 1776              	.LBB1029:
 1777              	.LBB1012:
 1778              	.LBB1009:
 1779              		.loc 2 336 55 view .LVU350
 1780 0308 84F84C30 		strb	r3, [r4, #76]
 1781              	.LVL82:
 1782              		.loc 2 336 55 view .LVU351
 1783              	.LBE1009:
 1784              	.LBE1012:
 1785              	.LBE1029:
 1786              	.LBB1030:
 1787              	.LBI1016:
  71:../libs/PoliTeKDSP/libs/libDaisy/src/dev/mpr121.h ****     {
 1788              		.loc 2 71 10 is_stmt 1 view .LVU352
 1789              	.LBB1022:
  73:../libs/PoliTeKDSP/libs/libDaisy/src/dev/mpr121.h ****                != i2c_.WriteDataAtAddress(
 1790              		.loc 2 73 9 view .LVU353
  74:../libs/PoliTeKDSP/libs/libDaisy/src/dev/mpr121.h ****                    config_.dev_addr, address, 1, data, size, 10);
 1791              		.loc 2 74 42 is_stmt 0 view .LVU354
 1792 030c 3B46     		mov	r3, r7
 1793 030e FFF7FEFF 		bl	_ZN5daisy9I2CHandle18WriteDataAtAddressEtttPhtm
 1794              	.LVL83:
  74:../libs/PoliTeKDSP/libs/libDaisy/src/dev/mpr121.h ****                    config_.dev_addr, address, 1, data, size, 10);
 1795              		.loc 2 74 42 view .LVU355
 1796              	.LBE1022:
 1797              	.LBE1030:
 1798              	.LBB1031:
 1799              	.LBI1031:
 1800              		.loc 2 336 10 is_stmt 1 view .LVU356
 1801              	.LBE1031:
 1802              	.LBB1035:
 1803              	.LBB1036:
  74:../libs/PoliTeKDSP/libs/libDaisy/src/dev/mpr121.h ****                    config_.dev_addr, address, 1, data, size, 10);
 1804              		.loc 2 74 42 is_stmt 0 view .LVU357
 1805 0312 CDF800B0 		str	fp, [sp]
 1806 0316 5E22     		movs	r2, #94
 1807 0318 CDE90178 		strd	r7, r8, [sp, #4]
 1808              	.LBE1036:
 1809              	.LBE1035:
 1810              	.LBB1040:
 1811              	.LBB1032:
 1812              		.loc 2 336 55 view .LVU358
 1813 031c 94F84C30 		ldrb	r3, [r4, #76]	@ zero_extendqisi2
 1814              	.LBE1032:
ARM GAS  C:\Users\skipi\AppData\Local\Temp\ccnEQq3j.s 			page 48


 1815              	.LBE1040:
 1816              	.LBB1041:
 1817              	.LBB1037:
  74:../libs/PoliTeKDSP/libs/libDaisy/src/dev/mpr121.h ****                    config_.dev_addr, address, 1, data, size, 10);
 1818              		.loc 2 74 42 view .LVU359
 1819 0320 94F84810 		ldrb	r1, [r4, #72]	@ zero_extendqisi2
 1820              	.LBE1037:
 1821              	.LBE1041:
 1822              	.LBB1042:
 1823              	.LBB1033:
 1824              		.loc 2 336 55 view .LVU360
 1825 0324 5045     		cmp	r0, r10
 1826 0326 18BF     		it	ne
 1827 0328 43F00103 		orrne	r3, r3, #1
 1828              	.LBE1033:
 1829              	.LBE1042:
 1830              	.LBB1043:
 1831              	.LBB1038:
  74:../libs/PoliTeKDSP/libs/libDaisy/src/dev/mpr121.h ****                    config_.dev_addr, address, 1, data, size, 10);
 1832              		.loc 2 74 42 view .LVU361
 1833 032c 2846     		mov	r0, r5
 1834              	.LVL84:
  74:../libs/PoliTeKDSP/libs/libDaisy/src/dev/mpr121.h ****                    config_.dev_addr, address, 1, data, size, 10);
 1835              		.loc 2 74 42 view .LVU362
 1836              	.LBE1038:
 1837              	.LBE1043:
 1838              	.LBB1044:
 1839              	.LBB1034:
 1840              		.loc 2 336 55 view .LVU363
 1841 032e 84F84C30 		strb	r3, [r4, #76]
 1842              	.LVL85:
 1843              		.loc 2 336 55 view .LVU364
 1844              	.LBE1034:
 1845              	.LBE1044:
 1846              	.LBB1045:
 1847              	.LBI1035:
  71:../libs/PoliTeKDSP/libs/libDaisy/src/dev/mpr121.h ****     {
 1848              		.loc 2 71 10 is_stmt 1 view .LVU365
 1849              	.LBB1039:
  73:../libs/PoliTeKDSP/libs/libDaisy/src/dev/mpr121.h ****                != i2c_.WriteDataAtAddress(
 1850              		.loc 2 73 9 view .LVU366
  74:../libs/PoliTeKDSP/libs/libDaisy/src/dev/mpr121.h ****                    config_.dev_addr, address, 1, data, size, 10);
 1851              		.loc 2 74 42 is_stmt 0 view .LVU367
 1852 0332 3B46     		mov	r3, r7
 1853 0334 FFF7FEFF 		bl	_ZN5daisy9I2CHandle18WriteDataAtAddressEtttPhtm
 1854              	.LVL86:
  74:../libs/PoliTeKDSP/libs/libDaisy/src/dev/mpr121.h ****                    config_.dev_addr, address, 1, data, size, 10);
 1855              		.loc 2 74 42 view .LVU368
 1856              	.LBE1039:
 1857              	.LBE1045:
 1858              	.LBB1046:
 1859              	.LBI1046:
 1860              		.loc 2 336 10 is_stmt 1 view .LVU369
 1861              	.LBB1047:
 1862              		.loc 2 336 55 is_stmt 0 view .LVU370
 1863 0338 94F84C30 		ldrb	r3, [r4, #76]	@ zero_extendqisi2
 1864 033c 5045     		cmp	r0, r10
ARM GAS  C:\Users\skipi\AppData\Local\Temp\ccnEQq3j.s 			page 49


 1865 033e 18BF     		it	ne
 1866 0340 43F00103 		orrne	r3, r3, #1
 1867              	.LBE1047:
 1868              	.LBE1046:
 1869              	.LBE1054:
 1870              	.LBE1063:
 181:../libs/PoliTeKDSP/libs/libDaisy/src/dev/mpr121.h ****         {
 1871              		.loc 2 181 30 view .LVU371
 1872 0344 B9F1590F 		cmp	r9, #89
 1873              	.LBB1064:
 1874              	.LBB1055:
 1875              	.LBB1049:
 1876              	.LBB1048:
 1877              		.loc 2 336 55 view .LVU372
 1878 0348 84F84C30 		strb	r3, [r4, #76]
 1879              	.LVL87:
 1880              		.loc 2 336 55 view .LVU373
 1881              	.LBE1048:
 1882              	.LBE1049:
 1883              	.LBE1055:
 1884              	.LBE1064:
 181:../libs/PoliTeKDSP/libs/libDaisy/src/dev/mpr121.h ****         {
 1885              		.loc 2 181 9 is_stmt 1 view .LVU374
 181:../libs/PoliTeKDSP/libs/libDaisy/src/dev/mpr121.h ****         {
 1886              		.loc 2 181 30 view .LVU375
 1887 034c 7FF449AF 		bne	.L11
 1888              	.LVL88:
 181:../libs/PoliTeKDSP/libs/libDaisy/src/dev/mpr121.h ****         {
 1889              		.loc 2 181 30 is_stmt 0 view .LVU376
 1890              	.LBE880:
 1891              	.LBE879:
 1892              	.LBB1065:
 1893              	.LBB1066:
 1894              	.LBB1067:
 1895              	.LBB1068:
 1896              	.LBB1069:
 1897              	.LBB1070:
 1898              	.LBB1071:
  66:../libs/PoliTeKDSP/libs/libDaisy/src/dev/mpr121.h ****                    config_.dev_addr, address, 1, data, size, 10);
 1899              		.loc 2 66 41 view .LVU377
 1900 0350 3B46     		mov	r3, r7
 1901 0352 5E22     		movs	r2, #94
 1902 0354 0096     		str	r6, [sp]
 1903 0356 2846     		mov	r0, r5
 1904 0358 8DF82770 		strb	r7, [sp, #39]
 1905              	.LVL89:
  66:../libs/PoliTeKDSP/libs/libDaisy/src/dev/mpr121.h ****                    config_.dev_addr, address, 1, data, size, 10);
 1906              		.loc 2 66 41 view .LVU378
 1907              	.LBE1071:
 1908              	.LBE1070:
 1909              	.LBE1069:
 1910              	.LBE1068:
 1911              	.LBE1067:
 1912              	.LBE1066:
 1913              	.LBI1065:
 257:../libs/PoliTeKDSP/libs/libDaisy/src/dev/mpr121.h ****     {
 1914              		.loc 2 257 10 is_stmt 1 view .LVU379
ARM GAS  C:\Users\skipi\AppData\Local\Temp\ccnEQq3j.s 			page 50


 1915              	.LBB1140:
 1916              	.LBB1106:
 1917              	.LBB1085:
 1918              	.LBI1068:
 232:../libs/PoliTeKDSP/libs/libDaisy/src/dev/mpr121.h ****     {
 1919              		.loc 2 232 13 view .LVU380
 1920              	.LBB1081:
 1921              	.LBB1073:
 1922              	.LBI1070:
  63:../libs/PoliTeKDSP/libs/libDaisy/src/dev/mpr121.h ****     {
 1923              		.loc 2 63 10 view .LVU381
 1924              	.LBB1072:
  65:../libs/PoliTeKDSP/libs/libDaisy/src/dev/mpr121.h ****                != i2c_.ReadDataAtAddress(
 1925              		.loc 2 65 9 view .LVU382
  66:../libs/PoliTeKDSP/libs/libDaisy/src/dev/mpr121.h ****                    config_.dev_addr, address, 1, data, size, 10);
 1926              		.loc 2 66 41 is_stmt 0 view .LVU383
 1927 035c CDE90178 		strd	r7, r8, [sp, #4]
 1928 0360 94F84810 		ldrb	r1, [r4, #72]	@ zero_extendqisi2
 1929 0364 FFF7FEFF 		bl	_ZN5daisy9I2CHandle17ReadDataAtAddressEtttPhtm
 1930              	.LVL90:
  66:../libs/PoliTeKDSP/libs/libDaisy/src/dev/mpr121.h ****                    config_.dev_addr, address, 1, data, size, 10);
 1931              		.loc 2 66 41 view .LVU384
 1932              	.LBE1072:
 1933              	.LBE1073:
 1934              	.LBB1074:
 1935              	.LBI1074:
 1936              		.loc 2 336 10 is_stmt 1 view .LVU385
 1937              	.LBE1074:
 1938              	.LBE1081:
 1939              	.LBE1085:
 1940              	.LBB1086:
 1941              	.LBB1087:
  74:../libs/PoliTeKDSP/libs/libDaisy/src/dev/mpr121.h ****                    config_.dev_addr, address, 1, data, size, 10);
 1942              		.loc 2 74 42 is_stmt 0 view .LVU386
 1943 0368 0096     		str	r6, [sp]
 1944 036a 5E22     		movs	r2, #94
 1945 036c CDE90178 		strd	r7, r8, [sp, #4]
 1946              	.LBE1087:
 1947              	.LBE1086:
 1948              	.LBB1092:
 1949              	.LBB1082:
 1950              	.LBB1078:
 1951              	.LBB1075:
 1952              		.loc 2 336 55 view .LVU387
 1953 0370 94F84C30 		ldrb	r3, [r4, #76]	@ zero_extendqisi2
 1954              	.LBE1075:
 1955              	.LBE1078:
 1956              	.LBE1082:
 1957              	.LBE1092:
 1958              	.LBB1093:
 1959              	.LBB1088:
  74:../libs/PoliTeKDSP/libs/libDaisy/src/dev/mpr121.h ****                    config_.dev_addr, address, 1, data, size, 10);
 1960              		.loc 2 74 42 view .LVU388
 1961 0374 94F84810 		ldrb	r1, [r4, #72]	@ zero_extendqisi2
 1962              	.LBE1088:
 1963              	.LBE1093:
 1964              	.LBB1094:
ARM GAS  C:\Users\skipi\AppData\Local\Temp\ccnEQq3j.s 			page 51


 1965              	.LBB1083:
 1966              	.LBB1079:
 1967              	.LBB1076:
 1968              		.loc 2 336 55 view .LVU389
 1969 0378 5045     		cmp	r0, r10
 1970 037a 18BF     		it	ne
 1971 037c 43F00103 		orrne	r3, r3, #1
 1972              	.LBE1076:
 1973              	.LBE1079:
 1974              	.LBE1083:
 1975              	.LBE1094:
 1976              	.LBB1095:
 1977              	.LBB1089:
  74:../libs/PoliTeKDSP/libs/libDaisy/src/dev/mpr121.h ****                    config_.dev_addr, address, 1, data, size, 10);
 1978              		.loc 2 74 42 view .LVU390
 1979 0380 2846     		mov	r0, r5
 1980              	.LVL91:
  74:../libs/PoliTeKDSP/libs/libDaisy/src/dev/mpr121.h ****                    config_.dev_addr, address, 1, data, size, 10);
 1981              		.loc 2 74 42 view .LVU391
 1982              	.LBE1089:
 1983              	.LBE1095:
 1984              	.LBB1096:
 1985              	.LBB1084:
 1986              	.LBB1080:
 1987              	.LBB1077:
 1988              		.loc 2 336 55 view .LVU392
 1989 0382 84F84C30 		strb	r3, [r4, #76]
 1990              	.LVL92:
 1991              		.loc 2 336 55 view .LVU393
 1992              	.LBE1077:
 1993              	.LBE1080:
 237:../libs/PoliTeKDSP/libs/libDaisy/src/dev/mpr121.h ****     }
 1994              		.loc 2 237 16 view .LVU394
 1995 0386 9DF83C30 		ldrb	r3, [sp, #60]	@ zero_extendqisi2
 1996              	.LVL93:
 237:../libs/PoliTeKDSP/libs/libDaisy/src/dev/mpr121.h ****     }
 1997              		.loc 2 237 16 view .LVU395
 1998              	.LBE1084:
 1999              	.LBE1096:
 271:../libs/PoliTeKDSP/libs/libDaisy/src/dev/mpr121.h ****             // clear this register to set stop mode
 2000              		.loc 2 271 21 view .LVU396
 2001 038a 8DF83CA0 		strb	r10, [sp, #60]
 2002              	.LVL94:
 2003              	.LBB1097:
 2004              	.LBI1086:
  71:../libs/PoliTeKDSP/libs/libDaisy/src/dev/mpr121.h ****     {
 2005              		.loc 2 71 10 is_stmt 1 view .LVU397
 2006              	.LBB1090:
  73:../libs/PoliTeKDSP/libs/libDaisy/src/dev/mpr121.h ****                != i2c_.WriteDataAtAddress(
 2007              		.loc 2 73 9 view .LVU398
 2008              	.LBE1090:
 2009              	.LBE1097:
 270:../libs/PoliTeKDSP/libs/libDaisy/src/dev/mpr121.h ****             uint8_t zero = 0x00;
 2010              		.loc 2 270 26 is_stmt 0 view .LVU399
 2011 038e 8DF82830 		strb	r3, [sp, #40]
 2012              	.LBB1098:
 2013              	.LBB1091:
ARM GAS  C:\Users\skipi\AppData\Local\Temp\ccnEQq3j.s 			page 52


  74:../libs/PoliTeKDSP/libs/libDaisy/src/dev/mpr121.h ****                    config_.dev_addr, address, 1, data, size, 10);
 2014              		.loc 2 74 42 view .LVU400
 2015 0392 3B46     		mov	r3, r7
 2016 0394 FFF7FEFF 		bl	_ZN5daisy9I2CHandle18WriteDataAtAddressEtttPhtm
 2017              	.LVL95:
  74:../libs/PoliTeKDSP/libs/libDaisy/src/dev/mpr121.h ****                    config_.dev_addr, address, 1, data, size, 10);
 2018              		.loc 2 74 42 view .LVU401
 2019              	.LBE1091:
 2020              	.LBE1098:
 2021              	.LBB1099:
 2022              	.LBI1099:
 2023              		.loc 2 336 10 is_stmt 1 view .LVU402
 2024              	.LBE1099:
 2025              	.LBE1106:
 2026              	.LBB1107:
 2027              	.LBB1108:
  74:../libs/PoliTeKDSP/libs/libDaisy/src/dev/mpr121.h ****                    config_.dev_addr, address, 1, data, size, 10);
 2028              		.loc 2 74 42 is_stmt 0 view .LVU403
 2029 0398 0DF12703 		add	r3, sp, #39
 2030 039c 2B22     		movs	r2, #43
 2031 039e 0093     		str	r3, [sp]
 2032 03a0 CDE90178 		strd	r7, r8, [sp, #4]
 2033              	.LBE1108:
 2034              	.LBE1107:
 2035              	.LBB1112:
 2036              	.LBB1103:
 2037              	.LBB1100:
 2038              		.loc 2 336 55 view .LVU404
 2039 03a4 94F84C30 		ldrb	r3, [r4, #76]	@ zero_extendqisi2
 2040              	.LBE1100:
 2041              	.LBE1103:
 2042              	.LBE1112:
 2043              	.LBB1113:
 2044              	.LBB1109:
  74:../libs/PoliTeKDSP/libs/libDaisy/src/dev/mpr121.h ****                    config_.dev_addr, address, 1, data, size, 10);
 2045              		.loc 2 74 42 view .LVU405
 2046 03a8 94F84810 		ldrb	r1, [r4, #72]	@ zero_extendqisi2
 2047              	.LBE1109:
 2048              	.LBE1113:
 2049              	.LBB1114:
 2050              	.LBB1104:
 2051              	.LBB1101:
 2052              		.loc 2 336 55 view .LVU406
 2053 03ac 5045     		cmp	r0, r10
 2054 03ae 18BF     		it	ne
 2055 03b0 43F00103 		orrne	r3, r3, #1
 2056              	.LBE1101:
 2057              	.LBE1104:
 2058              	.LBE1114:
 2059              	.LBB1115:
 2060              	.LBB1110:
  74:../libs/PoliTeKDSP/libs/libDaisy/src/dev/mpr121.h ****                    config_.dev_addr, address, 1, data, size, 10);
 2061              		.loc 2 74 42 view .LVU407
 2062 03b4 2846     		mov	r0, r5
 2063              	.LVL96:
  74:../libs/PoliTeKDSP/libs/libDaisy/src/dev/mpr121.h ****                    config_.dev_addr, address, 1, data, size, 10);
 2064              		.loc 2 74 42 view .LVU408
ARM GAS  C:\Users\skipi\AppData\Local\Temp\ccnEQq3j.s 			page 53


 2065              	.LBE1110:
 2066              	.LBE1115:
 2067              	.LBB1116:
 2068              	.LBB1105:
 2069              	.LBB1102:
 2070              		.loc 2 336 55 view .LVU409
 2071 03b6 84F84C30 		strb	r3, [r4, #76]
 2072              	.LVL97:
 2073              		.loc 2 336 55 view .LVU410
 2074              	.LBE1102:
 2075              	.LBE1105:
 2076              	.LBE1116:
 2077              	.LBB1117:
 2078              	.LBI1107:
  71:../libs/PoliTeKDSP/libs/libDaisy/src/dev/mpr121.h ****     {
 2079              		.loc 2 71 10 is_stmt 1 view .LVU411
 2080              	.LBB1111:
  73:../libs/PoliTeKDSP/libs/libDaisy/src/dev/mpr121.h ****                != i2c_.WriteDataAtAddress(
 2081              		.loc 2 73 9 view .LVU412
  74:../libs/PoliTeKDSP/libs/libDaisy/src/dev/mpr121.h ****                    config_.dev_addr, address, 1, data, size, 10);
 2082              		.loc 2 74 42 is_stmt 0 view .LVU413
 2083 03ba 3B46     		mov	r3, r7
 2084 03bc FFF7FEFF 		bl	_ZN5daisy9I2CHandle18WriteDataAtAddressEtttPhtm
 2085              	.LVL98:
  74:../libs/PoliTeKDSP/libs/libDaisy/src/dev/mpr121.h ****                    config_.dev_addr, address, 1, data, size, 10);
 2086              		.loc 2 74 42 view .LVU414
 2087              	.LBE1111:
 2088              	.LBE1117:
 2089              	.LBB1118:
 2090              	.LBI1118:
 2091              		.loc 2 336 10 is_stmt 1 view .LVU415
 2092              	.LBE1118:
 2093              	.LBB1122:
 2094              	.LBB1123:
  74:../libs/PoliTeKDSP/libs/libDaisy/src/dev/mpr121.h ****                    config_.dev_addr, address, 1, data, size, 10);
 2095              		.loc 2 74 42 is_stmt 0 view .LVU416
 2096 03c0 CDF800B0 		str	fp, [sp]
 2097 03c4 5E22     		movs	r2, #94
 2098 03c6 CDE90178 		strd	r7, r8, [sp, #4]
 2099              	.LBE1123:
 2100              	.LBE1122:
 2101              	.LBB1127:
 2102              	.LBB1119:
 2103              		.loc 2 336 55 view .LVU417
 2104 03ca 94F84C30 		ldrb	r3, [r4, #76]	@ zero_extendqisi2
 2105              	.LBE1119:
 2106              	.LBE1127:
 2107              	.LBB1128:
 2108              	.LBB1124:
  74:../libs/PoliTeKDSP/libs/libDaisy/src/dev/mpr121.h ****                    config_.dev_addr, address, 1, data, size, 10);
 2109              		.loc 2 74 42 view .LVU418
 2110 03ce 94F84810 		ldrb	r1, [r4, #72]	@ zero_extendqisi2
 2111              	.LBE1124:
 2112              	.LBE1128:
 2113              	.LBB1129:
 2114              	.LBB1120:
 2115              		.loc 2 336 55 view .LVU419
ARM GAS  C:\Users\skipi\AppData\Local\Temp\ccnEQq3j.s 			page 54


 2116 03d2 5045     		cmp	r0, r10
 2117 03d4 18BF     		it	ne
 2118 03d6 43F00103 		orrne	r3, r3, #1
 2119              	.LBE1120:
 2120              	.LBE1129:
 2121              	.LBB1130:
 2122              	.LBB1125:
  74:../libs/PoliTeKDSP/libs/libDaisy/src/dev/mpr121.h ****                    config_.dev_addr, address, 1, data, size, 10);
 2123              		.loc 2 74 42 view .LVU420
 2124 03da 2846     		mov	r0, r5
 2125              	.LVL99:
  74:../libs/PoliTeKDSP/libs/libDaisy/src/dev/mpr121.h ****                    config_.dev_addr, address, 1, data, size, 10);
 2126              		.loc 2 74 42 view .LVU421
 2127              	.LBE1125:
 2128              	.LBE1130:
 2129              	.LBB1131:
 2130              	.LBB1121:
 2131              		.loc 2 336 55 view .LVU422
 2132 03dc 84F84C30 		strb	r3, [r4, #76]
 2133              	.LVL100:
 2134              		.loc 2 336 55 view .LVU423
 2135              	.LBE1121:
 2136              	.LBE1131:
 2137              	.LBB1132:
 2138              	.LBI1122:
  71:../libs/PoliTeKDSP/libs/libDaisy/src/dev/mpr121.h ****     {
 2139              		.loc 2 71 10 is_stmt 1 view .LVU424
 2140              	.LBB1126:
  73:../libs/PoliTeKDSP/libs/libDaisy/src/dev/mpr121.h ****                != i2c_.WriteDataAtAddress(
 2141              		.loc 2 73 9 view .LVU425
  74:../libs/PoliTeKDSP/libs/libDaisy/src/dev/mpr121.h ****                    config_.dev_addr, address, 1, data, size, 10);
 2142              		.loc 2 74 42 is_stmt 0 view .LVU426
 2143 03e0 3B46     		mov	r3, r7
 2144 03e2 FFF7FEFF 		bl	_ZN5daisy9I2CHandle18WriteDataAtAddressEtttPhtm
 2145              	.LVL101:
  74:../libs/PoliTeKDSP/libs/libDaisy/src/dev/mpr121.h ****                    config_.dev_addr, address, 1, data, size, 10);
 2146              		.loc 2 74 42 view .LVU427
 2147              	.LBE1126:
 2148              	.LBE1132:
 2149              	.LBB1133:
 2150              	.LBI1133:
 2151              		.loc 2 336 10 is_stmt 1 view .LVU428
 2152              	.LBE1133:
 2153              	.LBE1140:
 2154              	.LBE1065:
 2155              	.LBB1144:
 2156              	.LBB1145:
 2157              	.LBB1146:
 2158              	.LBB1147:
 2159              	.LBB1148:
 2160              	.LBB1149:
 2161              	.LBB1150:
  66:../libs/PoliTeKDSP/libs/libDaisy/src/dev/mpr121.h ****                    config_.dev_addr, address, 1, data, size, 10);
 2162              		.loc 2 66 41 is_stmt 0 view .LVU429
 2163 03e6 0096     		str	r6, [sp]
 2164 03e8 5E22     		movs	r2, #94
 2165 03ea 8DF82770 		strb	r7, [sp, #39]
ARM GAS  C:\Users\skipi\AppData\Local\Temp\ccnEQq3j.s 			page 55


 2166 03ee CDE90178 		strd	r7, r8, [sp, #4]
 2167              	.LBE1150:
 2168              	.LBE1149:
 2169              	.LBE1148:
 2170              	.LBE1147:
 2171              	.LBE1146:
 2172              	.LBE1145:
 2173              	.LBE1144:
 2174              	.LBB1235:
 2175              	.LBB1141:
 2176              	.LBB1137:
 2177              	.LBB1134:
 2178              		.loc 2 336 55 view .LVU430
 2179 03f2 94F84C30 		ldrb	r3, [r4, #76]	@ zero_extendqisi2
 2180              	.LBE1134:
 2181              	.LBE1137:
 2182              	.LBE1141:
 2183              	.LBE1235:
 2184              	.LBB1236:
 2185              	.LBB1229:
 2186              	.LBB1193:
 2187              	.LBB1170:
 2188              	.LBB1164:
 2189              	.LBB1154:
 2190              	.LBB1151:
  66:../libs/PoliTeKDSP/libs/libDaisy/src/dev/mpr121.h ****                    config_.dev_addr, address, 1, data, size, 10);
 2191              		.loc 2 66 41 view .LVU431
 2192 03f6 94F84810 		ldrb	r1, [r4, #72]	@ zero_extendqisi2
 2193              	.LBE1151:
 2194              	.LBE1154:
 2195              	.LBE1164:
 2196              	.LBE1170:
 2197              	.LBE1193:
 2198              	.LBE1229:
 2199              	.LBE1236:
 2200              	.LBB1237:
 2201              	.LBB1142:
 2202              	.LBB1138:
 2203              	.LBB1135:
 2204              		.loc 2 336 55 view .LVU432
 2205 03fa 5045     		cmp	r0, r10
 2206 03fc 18BF     		it	ne
 2207 03fe 43F00103 		orrne	r3, r3, #1
 2208              	.LBE1135:
 2209              	.LBE1138:
 2210              	.LBE1142:
 2211              	.LBE1237:
 2212              	.LBB1238:
 2213              	.LBB1230:
 2214              	.LBB1194:
 2215              	.LBB1171:
 2216              	.LBB1165:
 2217              	.LBB1155:
 2218              	.LBB1152:
  66:../libs/PoliTeKDSP/libs/libDaisy/src/dev/mpr121.h ****                    config_.dev_addr, address, 1, data, size, 10);
 2219              		.loc 2 66 41 view .LVU433
 2220 0402 2846     		mov	r0, r5
ARM GAS  C:\Users\skipi\AppData\Local\Temp\ccnEQq3j.s 			page 56


 2221              	.LVL102:
  66:../libs/PoliTeKDSP/libs/libDaisy/src/dev/mpr121.h ****                    config_.dev_addr, address, 1, data, size, 10);
 2222              		.loc 2 66 41 view .LVU434
 2223              	.LBE1152:
 2224              	.LBE1155:
 2225              	.LBE1165:
 2226              	.LBE1171:
 2227              	.LBE1194:
 2228              	.LBE1230:
 2229              	.LBE1238:
 2230              	.LBB1239:
 2231              	.LBB1143:
 2232              	.LBB1139:
 2233              	.LBB1136:
 2234              		.loc 2 336 55 view .LVU435
 2235 0404 84F84C30 		strb	r3, [r4, #76]
 2236              	.LVL103:
 2237              		.loc 2 336 55 view .LVU436
 2238              	.LBE1136:
 2239              	.LBE1139:
 2240              	.LBE1143:
 2241              	.LBE1239:
 2242              	.LBB1240:
 2243              	.LBI1144:
 257:../libs/PoliTeKDSP/libs/libDaisy/src/dev/mpr121.h ****     {
 2244              		.loc 2 257 10 is_stmt 1 view .LVU437
 2245              	.LBB1231:
 2246              	.LBB1195:
 2247              	.LBB1172:
 2248              	.LBI1147:
 232:../libs/PoliTeKDSP/libs/libDaisy/src/dev/mpr121.h ****     {
 2249              		.loc 2 232 13 view .LVU438
 2250              	.LBB1166:
 2251              	.LBB1156:
 2252              	.LBI1149:
  63:../libs/PoliTeKDSP/libs/libDaisy/src/dev/mpr121.h ****     {
 2253              		.loc 2 63 10 view .LVU439
 2254              	.LBB1153:
  65:../libs/PoliTeKDSP/libs/libDaisy/src/dev/mpr121.h ****                != i2c_.ReadDataAtAddress(
 2255              		.loc 2 65 9 view .LVU440
  66:../libs/PoliTeKDSP/libs/libDaisy/src/dev/mpr121.h ****                    config_.dev_addr, address, 1, data, size, 10);
 2256              		.loc 2 66 41 is_stmt 0 view .LVU441
 2257 0408 3B46     		mov	r3, r7
 2258 040a FFF7FEFF 		bl	_ZN5daisy9I2CHandle17ReadDataAtAddressEtttPhtm
 2259              	.LVL104:
  66:../libs/PoliTeKDSP/libs/libDaisy/src/dev/mpr121.h ****                    config_.dev_addr, address, 1, data, size, 10);
 2260              		.loc 2 66 41 view .LVU442
 2261              	.LBE1153:
 2262              	.LBE1156:
 2263              	.LBB1157:
 2264              	.LBI1157:
 2265              		.loc 2 336 10 is_stmt 1 view .LVU443
 2266              	.LBE1157:
 2267              	.LBE1166:
 2268              	.LBE1172:
 2269              	.LBB1173:
 2270              	.LBB1174:
ARM GAS  C:\Users\skipi\AppData\Local\Temp\ccnEQq3j.s 			page 57


  74:../libs/PoliTeKDSP/libs/libDaisy/src/dev/mpr121.h ****                    config_.dev_addr, address, 1, data, size, 10);
 2271              		.loc 2 74 42 is_stmt 0 view .LVU444
 2272 040e 0096     		str	r6, [sp]
 2273 0410 5E22     		movs	r2, #94
 2274 0412 CDE90178 		strd	r7, r8, [sp, #4]
 2275              	.LBE1174:
 2276              	.LBE1173:
 2277              	.LBB1179:
 2278              	.LBB1167:
 2279              	.LBB1161:
 2280              	.LBB1158:
 2281              		.loc 2 336 55 view .LVU445
 2282 0416 94F84C30 		ldrb	r3, [r4, #76]	@ zero_extendqisi2
 2283              	.LBE1158:
 2284              	.LBE1161:
 2285              	.LBE1167:
 2286              	.LBE1179:
 2287              	.LBB1180:
 2288              	.LBB1175:
  74:../libs/PoliTeKDSP/libs/libDaisy/src/dev/mpr121.h ****                    config_.dev_addr, address, 1, data, size, 10);
 2289              		.loc 2 74 42 view .LVU446
 2290 041a 94F84810 		ldrb	r1, [r4, #72]	@ zero_extendqisi2
 2291              	.LBE1175:
 2292              	.LBE1180:
 2293              	.LBB1181:
 2294              	.LBB1168:
 2295              	.LBB1162:
 2296              	.LBB1159:
 2297              		.loc 2 336 55 view .LVU447
 2298 041e 5045     		cmp	r0, r10
 2299 0420 18BF     		it	ne
 2300 0422 43F00103 		orrne	r3, r3, #1
 2301              	.LBE1159:
 2302              	.LBE1162:
 2303              	.LBE1168:
 2304              	.LBE1181:
 2305              	.LBB1182:
 2306              	.LBB1176:
  74:../libs/PoliTeKDSP/libs/libDaisy/src/dev/mpr121.h ****                    config_.dev_addr, address, 1, data, size, 10);
 2307              		.loc 2 74 42 view .LVU448
 2308 0426 2846     		mov	r0, r5
 2309              	.LVL105:
  74:../libs/PoliTeKDSP/libs/libDaisy/src/dev/mpr121.h ****                    config_.dev_addr, address, 1, data, size, 10);
 2310              		.loc 2 74 42 view .LVU449
 2311              	.LBE1176:
 2312              	.LBE1182:
 2313              	.LBB1183:
 2314              	.LBB1169:
 2315              	.LBB1163:
 2316              	.LBB1160:
 2317              		.loc 2 336 55 view .LVU450
 2318 0428 84F84C30 		strb	r3, [r4, #76]
 2319              	.LVL106:
 2320              		.loc 2 336 55 view .LVU451
 2321              	.LBE1160:
 2322              	.LBE1163:
 237:../libs/PoliTeKDSP/libs/libDaisy/src/dev/mpr121.h ****     }
ARM GAS  C:\Users\skipi\AppData\Local\Temp\ccnEQq3j.s 			page 58


 2323              		.loc 2 237 16 view .LVU452
 2324 042c 9DF83C30 		ldrb	r3, [sp, #60]	@ zero_extendqisi2
 2325              	.LVL107:
 237:../libs/PoliTeKDSP/libs/libDaisy/src/dev/mpr121.h ****     }
 2326              		.loc 2 237 16 view .LVU453
 2327              	.LBE1169:
 2328              	.LBE1183:
 271:../libs/PoliTeKDSP/libs/libDaisy/src/dev/mpr121.h ****             // clear this register to set stop mode
 2329              		.loc 2 271 21 view .LVU454
 2330 0430 8DF83CA0 		strb	r10, [sp, #60]
 2331              	.LVL108:
 2332              	.LBB1184:
 2333              	.LBI1173:
  71:../libs/PoliTeKDSP/libs/libDaisy/src/dev/mpr121.h ****     {
 2334              		.loc 2 71 10 is_stmt 1 view .LVU455
 2335              	.LBB1177:
  73:../libs/PoliTeKDSP/libs/libDaisy/src/dev/mpr121.h ****                != i2c_.WriteDataAtAddress(
 2336              		.loc 2 73 9 view .LVU456
 2337              	.LBE1177:
 2338              	.LBE1184:
 270:../libs/PoliTeKDSP/libs/libDaisy/src/dev/mpr121.h ****             uint8_t zero = 0x00;
 2339              		.loc 2 270 26 is_stmt 0 view .LVU457
 2340 0434 8DF82830 		strb	r3, [sp, #40]
 2341              	.LBB1185:
 2342              	.LBB1178:
  74:../libs/PoliTeKDSP/libs/libDaisy/src/dev/mpr121.h ****                    config_.dev_addr, address, 1, data, size, 10);
 2343              		.loc 2 74 42 view .LVU458
 2344 0438 3B46     		mov	r3, r7
 2345 043a FFF7FEFF 		bl	_ZN5daisy9I2CHandle18WriteDataAtAddressEtttPhtm
 2346              	.LVL109:
  74:../libs/PoliTeKDSP/libs/libDaisy/src/dev/mpr121.h ****                    config_.dev_addr, address, 1, data, size, 10);
 2347              		.loc 2 74 42 view .LVU459
 2348              	.LBE1178:
 2349              	.LBE1185:
 2350              	.LBB1186:
 2351              	.LBI1186:
 2352              		.loc 2 336 10 is_stmt 1 view .LVU460
 2353              	.LBE1186:
 2354              	.LBE1195:
 2355              	.LBB1196:
 2356              	.LBB1197:
  74:../libs/PoliTeKDSP/libs/libDaisy/src/dev/mpr121.h ****                    config_.dev_addr, address, 1, data, size, 10);
 2357              		.loc 2 74 42 is_stmt 0 view .LVU461
 2358 043e 0DF12703 		add	r3, sp, #39
 2359 0442 2C22     		movs	r2, #44
 2360 0444 0093     		str	r3, [sp]
 2361 0446 CDE90178 		strd	r7, r8, [sp, #4]
 2362              	.LBE1197:
 2363              	.LBE1196:
 2364              	.LBB1201:
 2365              	.LBB1190:
 2366              	.LBB1187:
 2367              		.loc 2 336 55 view .LVU462
 2368 044a 94F84C30 		ldrb	r3, [r4, #76]	@ zero_extendqisi2
 2369              	.LBE1187:
 2370              	.LBE1190:
 2371              	.LBE1201:
ARM GAS  C:\Users\skipi\AppData\Local\Temp\ccnEQq3j.s 			page 59


 2372              	.LBB1202:
 2373              	.LBB1198:
  74:../libs/PoliTeKDSP/libs/libDaisy/src/dev/mpr121.h ****                    config_.dev_addr, address, 1, data, size, 10);
 2374              		.loc 2 74 42 view .LVU463
 2375 044e 94F84810 		ldrb	r1, [r4, #72]	@ zero_extendqisi2
 2376              	.LBE1198:
 2377              	.LBE1202:
 2378              	.LBB1203:
 2379              	.LBB1191:
 2380              	.LBB1188:
 2381              		.loc 2 336 55 view .LVU464
 2382 0452 5045     		cmp	r0, r10
 2383 0454 18BF     		it	ne
 2384 0456 43F00103 		orrne	r3, r3, #1
 2385              	.LBE1188:
 2386              	.LBE1191:
 2387              	.LBE1203:
 2388              	.LBB1204:
 2389              	.LBB1199:
  74:../libs/PoliTeKDSP/libs/libDaisy/src/dev/mpr121.h ****                    config_.dev_addr, address, 1, data, size, 10);
 2390              		.loc 2 74 42 view .LVU465
 2391 045a 2846     		mov	r0, r5
 2392              	.LVL110:
  74:../libs/PoliTeKDSP/libs/libDaisy/src/dev/mpr121.h ****                    config_.dev_addr, address, 1, data, size, 10);
 2393              		.loc 2 74 42 view .LVU466
 2394              	.LBE1199:
 2395              	.LBE1204:
 2396              	.LBB1205:
 2397              	.LBB1192:
 2398              	.LBB1189:
 2399              		.loc 2 336 55 view .LVU467
 2400 045c 84F84C30 		strb	r3, [r4, #76]
 2401              	.LVL111:
 2402              		.loc 2 336 55 view .LVU468
 2403              	.LBE1189:
 2404              	.LBE1192:
 2405              	.LBE1205:
 2406              	.LBB1206:
 2407              	.LBI1196:
  71:../libs/PoliTeKDSP/libs/libDaisy/src/dev/mpr121.h ****     {
 2408              		.loc 2 71 10 is_stmt 1 view .LVU469
 2409              	.LBB1200:
  73:../libs/PoliTeKDSP/libs/libDaisy/src/dev/mpr121.h ****                != i2c_.WriteDataAtAddress(
 2410              		.loc 2 73 9 view .LVU470
  74:../libs/PoliTeKDSP/libs/libDaisy/src/dev/mpr121.h ****                    config_.dev_addr, address, 1, data, size, 10);
 2411              		.loc 2 74 42 is_stmt 0 view .LVU471
 2412 0460 3B46     		mov	r3, r7
 2413 0462 FFF7FEFF 		bl	_ZN5daisy9I2CHandle18WriteDataAtAddressEtttPhtm
 2414              	.LVL112:
  74:../libs/PoliTeKDSP/libs/libDaisy/src/dev/mpr121.h ****                    config_.dev_addr, address, 1, data, size, 10);
 2415              		.loc 2 74 42 view .LVU472
 2416              	.LBE1200:
 2417              	.LBE1206:
 2418              	.LBB1207:
 2419              	.LBI1207:
 2420              		.loc 2 336 10 is_stmt 1 view .LVU473
 2421              	.LBE1207:
ARM GAS  C:\Users\skipi\AppData\Local\Temp\ccnEQq3j.s 			page 60


 2422              	.LBB1211:
 2423              	.LBB1212:
  74:../libs/PoliTeKDSP/libs/libDaisy/src/dev/mpr121.h ****                    config_.dev_addr, address, 1, data, size, 10);
 2424              		.loc 2 74 42 is_stmt 0 view .LVU474
 2425 0466 CDF800B0 		str	fp, [sp]
 2426 046a 5E22     		movs	r2, #94
 2427 046c CDE90178 		strd	r7, r8, [sp, #4]
 2428              	.LBE1212:
 2429              	.LBE1211:
 2430              	.LBB1216:
 2431              	.LBB1208:
 2432              		.loc 2 336 55 view .LVU475
 2433 0470 94F84C30 		ldrb	r3, [r4, #76]	@ zero_extendqisi2
 2434              	.LBE1208:
 2435              	.LBE1216:
 2436              	.LBB1217:
 2437              	.LBB1213:
  74:../libs/PoliTeKDSP/libs/libDaisy/src/dev/mpr121.h ****                    config_.dev_addr, address, 1, data, size, 10);
 2438              		.loc 2 74 42 view .LVU476
 2439 0474 94F84810 		ldrb	r1, [r4, #72]	@ zero_extendqisi2
 2440              	.LBE1213:
 2441              	.LBE1217:
 2442              	.LBB1218:
 2443              	.LBB1209:
 2444              		.loc 2 336 55 view .LVU477
 2445 0478 5045     		cmp	r0, r10
 2446 047a 18BF     		it	ne
 2447 047c 43F00103 		orrne	r3, r3, #1
 2448              	.LBE1209:
 2449              	.LBE1218:
 2450              	.LBB1219:
 2451              	.LBB1214:
  74:../libs/PoliTeKDSP/libs/libDaisy/src/dev/mpr121.h ****                    config_.dev_addr, address, 1, data, size, 10);
 2452              		.loc 2 74 42 view .LVU478
 2453 0480 2846     		mov	r0, r5
 2454              	.LVL113:
  74:../libs/PoliTeKDSP/libs/libDaisy/src/dev/mpr121.h ****                    config_.dev_addr, address, 1, data, size, 10);
 2455              		.loc 2 74 42 view .LVU479
 2456              	.LBE1214:
 2457              	.LBE1219:
 2458              	.LBB1220:
 2459              	.LBB1210:
 2460              		.loc 2 336 55 view .LVU480
 2461 0482 84F84C30 		strb	r3, [r4, #76]
 2462              	.LVL114:
 2463              		.loc 2 336 55 view .LVU481
 2464              	.LBE1210:
 2465              	.LBE1220:
 2466              	.LBB1221:
 2467              	.LBI1211:
  71:../libs/PoliTeKDSP/libs/libDaisy/src/dev/mpr121.h ****     {
 2468              		.loc 2 71 10 is_stmt 1 view .LVU482
 2469              	.LBB1215:
  73:../libs/PoliTeKDSP/libs/libDaisy/src/dev/mpr121.h ****                != i2c_.WriteDataAtAddress(
 2470              		.loc 2 73 9 view .LVU483
  74:../libs/PoliTeKDSP/libs/libDaisy/src/dev/mpr121.h ****                    config_.dev_addr, address, 1, data, size, 10);
 2471              		.loc 2 74 42 is_stmt 0 view .LVU484
ARM GAS  C:\Users\skipi\AppData\Local\Temp\ccnEQq3j.s 			page 61


 2472 0486 3B46     		mov	r3, r7
 2473 0488 FFF7FEFF 		bl	_ZN5daisy9I2CHandle18WriteDataAtAddressEtttPhtm
 2474              	.LVL115:
  74:../libs/PoliTeKDSP/libs/libDaisy/src/dev/mpr121.h ****                    config_.dev_addr, address, 1, data, size, 10);
 2475              		.loc 2 74 42 view .LVU485
 2476              	.LBE1215:
 2477              	.LBE1221:
 2478              	.LBB1222:
 2479              	.LBI1222:
 2480              		.loc 2 336 10 is_stmt 1 view .LVU486
 2481              	.LBE1222:
 2482              	.LBE1231:
 2483              	.LBE1240:
 2484              	.LBB1241:
 2485              	.LBB1242:
 2486              	.LBB1243:
 2487              	.LBB1244:
 2488              	.LBB1245:
 2489              	.LBB1246:
 2490              	.LBB1247:
  66:../libs/PoliTeKDSP/libs/libDaisy/src/dev/mpr121.h ****                    config_.dev_addr, address, 1, data, size, 10);
 2491              		.loc 2 66 41 is_stmt 0 view .LVU487
 2492 048c 0096     		str	r6, [sp]
 2493 048e 5E22     		movs	r2, #94
 2494 0490 CDE90178 		strd	r7, r8, [sp, #4]
 2495              	.LBE1247:
 2496              	.LBE1246:
 2497              	.LBE1245:
 2498              	.LBE1244:
 2499              	.LBE1243:
 2500              	.LBE1242:
 2501              	.LBE1241:
 2502              	.LBB1332:
 2503              	.LBB1232:
 2504              	.LBB1226:
 2505              	.LBB1223:
 2506              		.loc 2 336 55 view .LVU488
 2507 0494 94F84C30 		ldrb	r3, [r4, #76]	@ zero_extendqisi2
 2508              	.LBE1223:
 2509              	.LBE1226:
 2510              	.LBE1232:
 2511              	.LBE1332:
 2512              	.LBB1333:
 2513              	.LBB1326:
 2514              	.LBB1290:
 2515              	.LBB1267:
 2516              	.LBB1261:
 2517              	.LBB1251:
 2518              	.LBB1248:
  66:../libs/PoliTeKDSP/libs/libDaisy/src/dev/mpr121.h ****                    config_.dev_addr, address, 1, data, size, 10);
 2519              		.loc 2 66 41 view .LVU489
 2520 0498 94F84810 		ldrb	r1, [r4, #72]	@ zero_extendqisi2
 2521              	.LBE1248:
 2522              	.LBE1251:
 2523              	.LBE1261:
 2524              	.LBE1267:
 2525              	.LBE1290:
ARM GAS  C:\Users\skipi\AppData\Local\Temp\ccnEQq3j.s 			page 62


 2526              	.LBE1326:
 2527              	.LBE1333:
 2528              	.LBB1334:
 2529              	.LBB1233:
 2530              	.LBB1227:
 2531              	.LBB1224:
 2532              		.loc 2 336 55 view .LVU490
 2533 049c 5045     		cmp	r0, r10
 2534 049e 18BF     		it	ne
 2535 04a0 43F00103 		orrne	r3, r3, #1
 2536              	.LBE1224:
 2537              	.LBE1227:
 2538              	.LBE1233:
 2539              	.LBE1334:
 2540              	.LBB1335:
 2541              	.LBB1327:
 2542              	.LBB1291:
 2543              	.LBB1268:
 2544              	.LBB1262:
 2545              	.LBB1252:
 2546              	.LBB1249:
  66:../libs/PoliTeKDSP/libs/libDaisy/src/dev/mpr121.h ****                    config_.dev_addr, address, 1, data, size, 10);
 2547              		.loc 2 66 41 view .LVU491
 2548 04a4 2846     		mov	r0, r5
 2549              	.LVL116:
  66:../libs/PoliTeKDSP/libs/libDaisy/src/dev/mpr121.h ****                    config_.dev_addr, address, 1, data, size, 10);
 2550              		.loc 2 66 41 view .LVU492
 2551              	.LBE1249:
 2552              	.LBE1252:
 2553              	.LBE1262:
 2554              	.LBE1268:
 2555              	.LBE1291:
 2556              	.LBE1327:
 2557              	.LBE1335:
 2558              	.LBB1336:
 2559              	.LBB1234:
 2560              	.LBB1228:
 2561              	.LBB1225:
 2562              		.loc 2 336 55 view .LVU493
 2563 04a6 84F84C30 		strb	r3, [r4, #76]
 2564              	.LVL117:
 2565              		.loc 2 336 55 view .LVU494
 2566 04aa 0E23     		movs	r3, #14
 2567 04ac 8DF82730 		strb	r3, [sp, #39]
 2568              	.LVL118:
 2569              		.loc 2 336 55 view .LVU495
 2570              	.LBE1225:
 2571              	.LBE1228:
 2572              	.LBE1234:
 2573              	.LBE1336:
 2574              	.LBB1337:
 2575              	.LBI1241:
 257:../libs/PoliTeKDSP/libs/libDaisy/src/dev/mpr121.h ****     {
 2576              		.loc 2 257 10 is_stmt 1 view .LVU496
 2577              	.LBB1328:
 2578              	.LBB1292:
 2579              	.LBB1269:
ARM GAS  C:\Users\skipi\AppData\Local\Temp\ccnEQq3j.s 			page 63


 2580              	.LBI1244:
 232:../libs/PoliTeKDSP/libs/libDaisy/src/dev/mpr121.h ****     {
 2581              		.loc 2 232 13 view .LVU497
 2582              	.LBB1263:
 2583              	.LBB1253:
 2584              	.LBI1246:
  63:../libs/PoliTeKDSP/libs/libDaisy/src/dev/mpr121.h ****     {
 2585              		.loc 2 63 10 view .LVU498
 2586              	.LBB1250:
  65:../libs/PoliTeKDSP/libs/libDaisy/src/dev/mpr121.h ****                != i2c_.ReadDataAtAddress(
 2587              		.loc 2 65 9 view .LVU499
  66:../libs/PoliTeKDSP/libs/libDaisy/src/dev/mpr121.h ****                    config_.dev_addr, address, 1, data, size, 10);
 2588              		.loc 2 66 41 is_stmt 0 view .LVU500
 2589 04b0 3B46     		mov	r3, r7
 2590              	.LVL119:
  66:../libs/PoliTeKDSP/libs/libDaisy/src/dev/mpr121.h ****                    config_.dev_addr, address, 1, data, size, 10);
 2591              		.loc 2 66 41 view .LVU501
 2592 04b2 FFF7FEFF 		bl	_ZN5daisy9I2CHandle17ReadDataAtAddressEtttPhtm
 2593              	.LVL120:
  66:../libs/PoliTeKDSP/libs/libDaisy/src/dev/mpr121.h ****                    config_.dev_addr, address, 1, data, size, 10);
 2594              		.loc 2 66 41 view .LVU502
 2595              	.LBE1250:
 2596              	.LBE1253:
 2597              	.LBB1254:
 2598              	.LBI1254:
 2599              		.loc 2 336 10 is_stmt 1 view .LVU503
 2600              	.LBE1254:
 2601              	.LBE1263:
 2602              	.LBE1269:
 2603              	.LBB1270:
 2604              	.LBB1271:
  74:../libs/PoliTeKDSP/libs/libDaisy/src/dev/mpr121.h ****                    config_.dev_addr, address, 1, data, size, 10);
 2605              		.loc 2 74 42 is_stmt 0 view .LVU504
 2606 04b6 0096     		str	r6, [sp]
 2607 04b8 5E22     		movs	r2, #94
 2608 04ba CDE90178 		strd	r7, r8, [sp, #4]
 2609              	.LBE1271:
 2610              	.LBE1270:
 2611              	.LBB1276:
 2612              	.LBB1264:
 2613              	.LBB1258:
 2614              	.LBB1255:
 2615              		.loc 2 336 55 view .LVU505
 2616 04be 94F84C30 		ldrb	r3, [r4, #76]	@ zero_extendqisi2
 2617              	.LBE1255:
 2618              	.LBE1258:
 2619              	.LBE1264:
 2620              	.LBE1276:
 2621              	.LBB1277:
 2622              	.LBB1272:
  74:../libs/PoliTeKDSP/libs/libDaisy/src/dev/mpr121.h ****                    config_.dev_addr, address, 1, data, size, 10);
 2623              		.loc 2 74 42 view .LVU506
 2624 04c2 94F84810 		ldrb	r1, [r4, #72]	@ zero_extendqisi2
 2625              	.LBE1272:
 2626              	.LBE1277:
 2627              	.LBB1278:
 2628              	.LBB1265:
ARM GAS  C:\Users\skipi\AppData\Local\Temp\ccnEQq3j.s 			page 64


 2629              	.LBB1259:
 2630              	.LBB1256:
 2631              		.loc 2 336 55 view .LVU507
 2632 04c6 5045     		cmp	r0, r10
 2633 04c8 18BF     		it	ne
 2634 04ca 43F00103 		orrne	r3, r3, #1
 2635              	.LBE1256:
 2636              	.LBE1259:
 2637              	.LBE1265:
 2638              	.LBE1278:
 2639              	.LBB1279:
 2640              	.LBB1273:
  74:../libs/PoliTeKDSP/libs/libDaisy/src/dev/mpr121.h ****                    config_.dev_addr, address, 1, data, size, 10);
 2641              		.loc 2 74 42 view .LVU508
 2642 04ce 2846     		mov	r0, r5
 2643              	.LVL121:
  74:../libs/PoliTeKDSP/libs/libDaisy/src/dev/mpr121.h ****                    config_.dev_addr, address, 1, data, size, 10);
 2644              		.loc 2 74 42 view .LVU509
 2645              	.LBE1273:
 2646              	.LBE1279:
 2647              	.LBB1280:
 2648              	.LBB1266:
 2649              	.LBB1260:
 2650              	.LBB1257:
 2651              		.loc 2 336 55 view .LVU510
 2652 04d0 84F84C30 		strb	r3, [r4, #76]
 2653              	.LVL122:
 2654              		.loc 2 336 55 view .LVU511
 2655              	.LBE1257:
 2656              	.LBE1260:
 237:../libs/PoliTeKDSP/libs/libDaisy/src/dev/mpr121.h ****     }
 2657              		.loc 2 237 16 view .LVU512
 2658 04d4 9DF83C30 		ldrb	r3, [sp, #60]	@ zero_extendqisi2
 2659              	.LVL123:
 237:../libs/PoliTeKDSP/libs/libDaisy/src/dev/mpr121.h ****     }
 2660              		.loc 2 237 16 view .LVU513
 2661              	.LBE1266:
 2662              	.LBE1280:
 271:../libs/PoliTeKDSP/libs/libDaisy/src/dev/mpr121.h ****             // clear this register to set stop mode
 2663              		.loc 2 271 21 view .LVU514
 2664 04d8 8DF83CA0 		strb	r10, [sp, #60]
 2665              	.LVL124:
 2666              	.LBB1281:
 2667              	.LBI1270:
  71:../libs/PoliTeKDSP/libs/libDaisy/src/dev/mpr121.h ****     {
 2668              		.loc 2 71 10 is_stmt 1 view .LVU515
 2669              	.LBB1274:
  73:../libs/PoliTeKDSP/libs/libDaisy/src/dev/mpr121.h ****                != i2c_.WriteDataAtAddress(
 2670              		.loc 2 73 9 view .LVU516
 2671              	.LBE1274:
 2672              	.LBE1281:
 270:../libs/PoliTeKDSP/libs/libDaisy/src/dev/mpr121.h ****             uint8_t zero = 0x00;
 2673              		.loc 2 270 26 is_stmt 0 view .LVU517
 2674 04dc 8DF82830 		strb	r3, [sp, #40]
 2675              	.LBB1282:
 2676              	.LBB1275:
  74:../libs/PoliTeKDSP/libs/libDaisy/src/dev/mpr121.h ****                    config_.dev_addr, address, 1, data, size, 10);
ARM GAS  C:\Users\skipi\AppData\Local\Temp\ccnEQq3j.s 			page 65


 2677              		.loc 2 74 42 view .LVU518
 2678 04e0 3B46     		mov	r3, r7
 2679 04e2 FFF7FEFF 		bl	_ZN5daisy9I2CHandle18WriteDataAtAddressEtttPhtm
 2680              	.LVL125:
  74:../libs/PoliTeKDSP/libs/libDaisy/src/dev/mpr121.h ****                    config_.dev_addr, address, 1, data, size, 10);
 2681              		.loc 2 74 42 view .LVU519
 2682              	.LBE1275:
 2683              	.LBE1282:
 2684              	.LBB1283:
 2685              	.LBI1283:
 2686              		.loc 2 336 10 is_stmt 1 view .LVU520
 2687              	.LBE1283:
 2688              	.LBE1292:
 2689              	.LBB1293:
 2690              	.LBB1294:
  74:../libs/PoliTeKDSP/libs/libDaisy/src/dev/mpr121.h ****                    config_.dev_addr, address, 1, data, size, 10);
 2691              		.loc 2 74 42 is_stmt 0 view .LVU521
 2692 04e6 0DF12703 		add	r3, sp, #39
 2693 04ea 2D22     		movs	r2, #45
 2694 04ec 0093     		str	r3, [sp]
 2695 04ee CDE90178 		strd	r7, r8, [sp, #4]
 2696              	.LBE1294:
 2697              	.LBE1293:
 2698              	.LBB1298:
 2699              	.LBB1287:
 2700              	.LBB1284:
 2701              		.loc 2 336 55 view .LVU522
 2702 04f2 94F84C30 		ldrb	r3, [r4, #76]	@ zero_extendqisi2
 2703              	.LBE1284:
 2704              	.LBE1287:
 2705              	.LBE1298:
 2706              	.LBB1299:
 2707              	.LBB1295:
  74:../libs/PoliTeKDSP/libs/libDaisy/src/dev/mpr121.h ****                    config_.dev_addr, address, 1, data, size, 10);
 2708              		.loc 2 74 42 view .LVU523
 2709 04f6 94F84810 		ldrb	r1, [r4, #72]	@ zero_extendqisi2
 2710              	.LBE1295:
 2711              	.LBE1299:
 2712              	.LBB1300:
 2713              	.LBB1288:
 2714              	.LBB1285:
 2715              		.loc 2 336 55 view .LVU524
 2716 04fa 5045     		cmp	r0, r10
 2717 04fc 18BF     		it	ne
 2718 04fe 43F00103 		orrne	r3, r3, #1
 2719              	.LBE1285:
 2720              	.LBE1288:
 2721              	.LBE1300:
 2722              	.LBB1301:
 2723              	.LBB1296:
  74:../libs/PoliTeKDSP/libs/libDaisy/src/dev/mpr121.h ****                    config_.dev_addr, address, 1, data, size, 10);
 2724              		.loc 2 74 42 view .LVU525
 2725 0502 2846     		mov	r0, r5
 2726              	.LVL126:
  74:../libs/PoliTeKDSP/libs/libDaisy/src/dev/mpr121.h ****                    config_.dev_addr, address, 1, data, size, 10);
 2727              		.loc 2 74 42 view .LVU526
 2728              	.LBE1296:
ARM GAS  C:\Users\skipi\AppData\Local\Temp\ccnEQq3j.s 			page 66


 2729              	.LBE1301:
 2730              	.LBB1302:
 2731              	.LBB1289:
 2732              	.LBB1286:
 2733              		.loc 2 336 55 view .LVU527
 2734 0504 84F84C30 		strb	r3, [r4, #76]
 2735              	.LVL127:
 2736              		.loc 2 336 55 view .LVU528
 2737              	.LBE1286:
 2738              	.LBE1289:
 2739              	.LBE1302:
 2740              	.LBB1303:
 2741              	.LBI1293:
  71:../libs/PoliTeKDSP/libs/libDaisy/src/dev/mpr121.h ****     {
 2742              		.loc 2 71 10 is_stmt 1 view .LVU529
 2743              	.LBB1297:
  73:../libs/PoliTeKDSP/libs/libDaisy/src/dev/mpr121.h ****                != i2c_.WriteDataAtAddress(
 2744              		.loc 2 73 9 view .LVU530
  74:../libs/PoliTeKDSP/libs/libDaisy/src/dev/mpr121.h ****                    config_.dev_addr, address, 1, data, size, 10);
 2745              		.loc 2 74 42 is_stmt 0 view .LVU531
 2746 0508 3B46     		mov	r3, r7
 2747 050a FFF7FEFF 		bl	_ZN5daisy9I2CHandle18WriteDataAtAddressEtttPhtm
 2748              	.LVL128:
  74:../libs/PoliTeKDSP/libs/libDaisy/src/dev/mpr121.h ****                    config_.dev_addr, address, 1, data, size, 10);
 2749              		.loc 2 74 42 view .LVU532
 2750              	.LBE1297:
 2751              	.LBE1303:
 2752              	.LBB1304:
 2753              	.LBI1304:
 2754              		.loc 2 336 10 is_stmt 1 view .LVU533
 2755              	.LBE1304:
 2756              	.LBB1308:
 2757              	.LBB1309:
  74:../libs/PoliTeKDSP/libs/libDaisy/src/dev/mpr121.h ****                    config_.dev_addr, address, 1, data, size, 10);
 2758              		.loc 2 74 42 is_stmt 0 view .LVU534
 2759 050e CDF800B0 		str	fp, [sp]
 2760 0512 5E22     		movs	r2, #94
 2761 0514 CDE90178 		strd	r7, r8, [sp, #4]
 2762              	.LBE1309:
 2763              	.LBE1308:
 2764              	.LBB1313:
 2765              	.LBB1305:
 2766              		.loc 2 336 55 view .LVU535
 2767 0518 94F84C30 		ldrb	r3, [r4, #76]	@ zero_extendqisi2
 2768              	.LBE1305:
 2769              	.LBE1313:
 2770              	.LBB1314:
 2771              	.LBB1310:
  74:../libs/PoliTeKDSP/libs/libDaisy/src/dev/mpr121.h ****                    config_.dev_addr, address, 1, data, size, 10);
 2772              		.loc 2 74 42 view .LVU536
 2773 051c 94F84810 		ldrb	r1, [r4, #72]	@ zero_extendqisi2
 2774              	.LBE1310:
 2775              	.LBE1314:
 2776              	.LBB1315:
 2777              	.LBB1306:
 2778              		.loc 2 336 55 view .LVU537
 2779 0520 5045     		cmp	r0, r10
ARM GAS  C:\Users\skipi\AppData\Local\Temp\ccnEQq3j.s 			page 67


 2780 0522 18BF     		it	ne
 2781 0524 43F00103 		orrne	r3, r3, #1
 2782              	.LBE1306:
 2783              	.LBE1315:
 2784              	.LBB1316:
 2785              	.LBB1311:
  74:../libs/PoliTeKDSP/libs/libDaisy/src/dev/mpr121.h ****                    config_.dev_addr, address, 1, data, size, 10);
 2786              		.loc 2 74 42 view .LVU538
 2787 0528 2846     		mov	r0, r5
 2788              	.LVL129:
  74:../libs/PoliTeKDSP/libs/libDaisy/src/dev/mpr121.h ****                    config_.dev_addr, address, 1, data, size, 10);
 2789              		.loc 2 74 42 view .LVU539
 2790              	.LBE1311:
 2791              	.LBE1316:
 2792              	.LBB1317:
 2793              	.LBB1307:
 2794              		.loc 2 336 55 view .LVU540
 2795 052a 84F84C30 		strb	r3, [r4, #76]
 2796              	.LVL130:
 2797              		.loc 2 336 55 view .LVU541
 2798              	.LBE1307:
 2799              	.LBE1317:
 2800              	.LBB1318:
 2801              	.LBI1308:
  71:../libs/PoliTeKDSP/libs/libDaisy/src/dev/mpr121.h ****     {
 2802              		.loc 2 71 10 is_stmt 1 view .LVU542
 2803              	.LBB1312:
  73:../libs/PoliTeKDSP/libs/libDaisy/src/dev/mpr121.h ****                != i2c_.WriteDataAtAddress(
 2804              		.loc 2 73 9 view .LVU543
  74:../libs/PoliTeKDSP/libs/libDaisy/src/dev/mpr121.h ****                    config_.dev_addr, address, 1, data, size, 10);
 2805              		.loc 2 74 42 is_stmt 0 view .LVU544
 2806 052e 3B46     		mov	r3, r7
 2807 0530 FFF7FEFF 		bl	_ZN5daisy9I2CHandle18WriteDataAtAddressEtttPhtm
 2808              	.LVL131:
  74:../libs/PoliTeKDSP/libs/libDaisy/src/dev/mpr121.h ****                    config_.dev_addr, address, 1, data, size, 10);
 2809              		.loc 2 74 42 view .LVU545
 2810              	.LBE1312:
 2811              	.LBE1318:
 2812              	.LBB1319:
 2813              	.LBI1319:
 2814              		.loc 2 336 10 is_stmt 1 view .LVU546
 2815              	.LBE1319:
 2816              	.LBE1328:
 2817              	.LBE1337:
 2818              	.LBB1338:
 2819              	.LBB1339:
 2820              	.LBB1340:
 2821              	.LBB1341:
 2822              	.LBB1342:
 2823              	.LBB1343:
 2824              	.LBB1344:
  66:../libs/PoliTeKDSP/libs/libDaisy/src/dev/mpr121.h ****                    config_.dev_addr, address, 1, data, size, 10);
 2825              		.loc 2 66 41 is_stmt 0 view .LVU547
 2826 0534 0096     		str	r6, [sp]
 2827 0536 5E22     		movs	r2, #94
 2828 0538 8DF827A0 		strb	r10, [sp, #39]
 2829 053c CDE90178 		strd	r7, r8, [sp, #4]
ARM GAS  C:\Users\skipi\AppData\Local\Temp\ccnEQq3j.s 			page 68


 2830              	.LBE1344:
 2831              	.LBE1343:
 2832              	.LBE1342:
 2833              	.LBE1341:
 2834              	.LBE1340:
 2835              	.LBE1339:
 2836              	.LBE1338:
 2837              	.LBB1429:
 2838              	.LBB1329:
 2839              	.LBB1323:
 2840              	.LBB1320:
 2841              		.loc 2 336 55 view .LVU548
 2842 0540 94F84C30 		ldrb	r3, [r4, #76]	@ zero_extendqisi2
 2843              	.LBE1320:
 2844              	.LBE1323:
 2845              	.LBE1329:
 2846              	.LBE1429:
 2847              	.LBB1430:
 2848              	.LBB1423:
 2849              	.LBB1387:
 2850              	.LBB1364:
 2851              	.LBB1358:
 2852              	.LBB1348:
 2853              	.LBB1345:
  66:../libs/PoliTeKDSP/libs/libDaisy/src/dev/mpr121.h ****                    config_.dev_addr, address, 1, data, size, 10);
 2854              		.loc 2 66 41 view .LVU549
 2855 0544 94F84810 		ldrb	r1, [r4, #72]	@ zero_extendqisi2
 2856              	.LBE1345:
 2857              	.LBE1348:
 2858              	.LBE1358:
 2859              	.LBE1364:
 2860              	.LBE1387:
 2861              	.LBE1423:
 2862              	.LBE1430:
 2863              	.LBB1431:
 2864              	.LBB1330:
 2865              	.LBB1324:
 2866              	.LBB1321:
 2867              		.loc 2 336 55 view .LVU550
 2868 0548 5045     		cmp	r0, r10
 2869 054a 18BF     		it	ne
 2870 054c 43F00103 		orrne	r3, r3, #1
 2871              	.LBE1321:
 2872              	.LBE1324:
 2873              	.LBE1330:
 2874              	.LBE1431:
 2875              	.LBB1432:
 2876              	.LBB1424:
 2877              	.LBB1388:
 2878              	.LBB1365:
 2879              	.LBB1359:
 2880              	.LBB1349:
 2881              	.LBB1346:
  66:../libs/PoliTeKDSP/libs/libDaisy/src/dev/mpr121.h ****                    config_.dev_addr, address, 1, data, size, 10);
 2882              		.loc 2 66 41 view .LVU551
 2883 0550 2846     		mov	r0, r5
 2884              	.LVL132:
ARM GAS  C:\Users\skipi\AppData\Local\Temp\ccnEQq3j.s 			page 69


  66:../libs/PoliTeKDSP/libs/libDaisy/src/dev/mpr121.h ****                    config_.dev_addr, address, 1, data, size, 10);
 2885              		.loc 2 66 41 view .LVU552
 2886              	.LBE1346:
 2887              	.LBE1349:
 2888              	.LBE1359:
 2889              	.LBE1365:
 2890              	.LBE1388:
 2891              	.LBE1424:
 2892              	.LBE1432:
 2893              	.LBB1433:
 2894              	.LBB1331:
 2895              	.LBB1325:
 2896              	.LBB1322:
 2897              		.loc 2 336 55 view .LVU553
 2898 0552 84F84C30 		strb	r3, [r4, #76]
 2899              	.LVL133:
 2900              		.loc 2 336 55 view .LVU554
 2901              	.LBE1322:
 2902              	.LBE1325:
 2903              	.LBE1331:
 2904              	.LBE1433:
 2905              	.LBB1434:
 2906              	.LBI1338:
 257:../libs/PoliTeKDSP/libs/libDaisy/src/dev/mpr121.h ****     {
 2907              		.loc 2 257 10 is_stmt 1 view .LVU555
 2908              	.LBB1425:
 2909              	.LBB1389:
 2910              	.LBB1366:
 2911              	.LBI1341:
 232:../libs/PoliTeKDSP/libs/libDaisy/src/dev/mpr121.h ****     {
 2912              		.loc 2 232 13 view .LVU556
 2913              	.LBB1360:
 2914              	.LBB1350:
 2915              	.LBI1343:
  63:../libs/PoliTeKDSP/libs/libDaisy/src/dev/mpr121.h ****     {
 2916              		.loc 2 63 10 view .LVU557
 2917              	.LBB1347:
  65:../libs/PoliTeKDSP/libs/libDaisy/src/dev/mpr121.h ****                != i2c_.ReadDataAtAddress(
 2918              		.loc 2 65 9 view .LVU558
  66:../libs/PoliTeKDSP/libs/libDaisy/src/dev/mpr121.h ****                    config_.dev_addr, address, 1, data, size, 10);
 2919              		.loc 2 66 41 is_stmt 0 view .LVU559
 2920 0556 3B46     		mov	r3, r7
 2921 0558 FFF7FEFF 		bl	_ZN5daisy9I2CHandle17ReadDataAtAddressEtttPhtm
 2922              	.LVL134:
  66:../libs/PoliTeKDSP/libs/libDaisy/src/dev/mpr121.h ****                    config_.dev_addr, address, 1, data, size, 10);
 2923              		.loc 2 66 41 view .LVU560
 2924              	.LBE1347:
 2925              	.LBE1350:
 2926              	.LBB1351:
 2927              	.LBI1351:
 2928              		.loc 2 336 10 is_stmt 1 view .LVU561
 2929              	.LBE1351:
 2930              	.LBE1360:
 2931              	.LBE1366:
 2932              	.LBB1367:
 2933              	.LBB1368:
  74:../libs/PoliTeKDSP/libs/libDaisy/src/dev/mpr121.h ****                    config_.dev_addr, address, 1, data, size, 10);
ARM GAS  C:\Users\skipi\AppData\Local\Temp\ccnEQq3j.s 			page 70


 2934              		.loc 2 74 42 is_stmt 0 view .LVU562
 2935 055c 0096     		str	r6, [sp]
 2936 055e 5E22     		movs	r2, #94
 2937 0560 CDE90178 		strd	r7, r8, [sp, #4]
 2938              	.LBE1368:
 2939              	.LBE1367:
 2940              	.LBB1373:
 2941              	.LBB1361:
 2942              	.LBB1355:
 2943              	.LBB1352:
 2944              		.loc 2 336 55 view .LVU563
 2945 0564 94F84C30 		ldrb	r3, [r4, #76]	@ zero_extendqisi2
 2946              	.LBE1352:
 2947              	.LBE1355:
 2948              	.LBE1361:
 2949              	.LBE1373:
 2950              	.LBB1374:
 2951              	.LBB1369:
  74:../libs/PoliTeKDSP/libs/libDaisy/src/dev/mpr121.h ****                    config_.dev_addr, address, 1, data, size, 10);
 2952              		.loc 2 74 42 view .LVU564
 2953 0568 94F84810 		ldrb	r1, [r4, #72]	@ zero_extendqisi2
 2954              	.LBE1369:
 2955              	.LBE1374:
 2956              	.LBB1375:
 2957              	.LBB1362:
 2958              	.LBB1356:
 2959              	.LBB1353:
 2960              		.loc 2 336 55 view .LVU565
 2961 056c 5045     		cmp	r0, r10
 2962 056e 18BF     		it	ne
 2963 0570 43F00103 		orrne	r3, r3, #1
 2964              	.LBE1353:
 2965              	.LBE1356:
 2966              	.LBE1362:
 2967              	.LBE1375:
 2968              	.LBB1376:
 2969              	.LBB1370:
  74:../libs/PoliTeKDSP/libs/libDaisy/src/dev/mpr121.h ****                    config_.dev_addr, address, 1, data, size, 10);
 2970              		.loc 2 74 42 view .LVU566
 2971 0574 2846     		mov	r0, r5
 2972              	.LVL135:
  74:../libs/PoliTeKDSP/libs/libDaisy/src/dev/mpr121.h ****                    config_.dev_addr, address, 1, data, size, 10);
 2973              		.loc 2 74 42 view .LVU567
 2974              	.LBE1370:
 2975              	.LBE1376:
 2976              	.LBB1377:
 2977              	.LBB1363:
 2978              	.LBB1357:
 2979              	.LBB1354:
 2980              		.loc 2 336 55 view .LVU568
 2981 0576 84F84C30 		strb	r3, [r4, #76]
 2982              	.LVL136:
 2983              		.loc 2 336 55 view .LVU569
 2984              	.LBE1354:
 2985              	.LBE1357:
 237:../libs/PoliTeKDSP/libs/libDaisy/src/dev/mpr121.h ****     }
 2986              		.loc 2 237 16 view .LVU570
ARM GAS  C:\Users\skipi\AppData\Local\Temp\ccnEQq3j.s 			page 71


 2987 057a 9DF83C30 		ldrb	r3, [sp, #60]	@ zero_extendqisi2
 2988              	.LVL137:
 237:../libs/PoliTeKDSP/libs/libDaisy/src/dev/mpr121.h ****     }
 2989              		.loc 2 237 16 view .LVU571
 2990              	.LBE1363:
 2991              	.LBE1377:
 271:../libs/PoliTeKDSP/libs/libDaisy/src/dev/mpr121.h ****             // clear this register to set stop mode
 2992              		.loc 2 271 21 view .LVU572
 2993 057e 8DF83CA0 		strb	r10, [sp, #60]
 2994              	.LVL138:
 2995              	.LBB1378:
 2996              	.LBI1367:
  71:../libs/PoliTeKDSP/libs/libDaisy/src/dev/mpr121.h ****     {
 2997              		.loc 2 71 10 is_stmt 1 view .LVU573
 2998              	.LBB1371:
  73:../libs/PoliTeKDSP/libs/libDaisy/src/dev/mpr121.h ****                != i2c_.WriteDataAtAddress(
 2999              		.loc 2 73 9 view .LVU574
 3000              	.LBE1371:
 3001              	.LBE1378:
 270:../libs/PoliTeKDSP/libs/libDaisy/src/dev/mpr121.h ****             uint8_t zero = 0x00;
 3002              		.loc 2 270 26 is_stmt 0 view .LVU575
 3003 0582 8DF82830 		strb	r3, [sp, #40]
 3004              	.LBB1379:
 3005              	.LBB1372:
  74:../libs/PoliTeKDSP/libs/libDaisy/src/dev/mpr121.h ****                    config_.dev_addr, address, 1, data, size, 10);
 3006              		.loc 2 74 42 view .LVU576
 3007 0586 3B46     		mov	r3, r7
 3008 0588 FFF7FEFF 		bl	_ZN5daisy9I2CHandle18WriteDataAtAddressEtttPhtm
 3009              	.LVL139:
  74:../libs/PoliTeKDSP/libs/libDaisy/src/dev/mpr121.h ****                    config_.dev_addr, address, 1, data, size, 10);
 3010              		.loc 2 74 42 view .LVU577
 3011              	.LBE1372:
 3012              	.LBE1379:
 3013              	.LBB1380:
 3014              	.LBI1380:
 3015              		.loc 2 336 10 is_stmt 1 view .LVU578
 3016              	.LBE1380:
 3017              	.LBE1389:
 3018              	.LBB1390:
 3019              	.LBB1391:
  74:../libs/PoliTeKDSP/libs/libDaisy/src/dev/mpr121.h ****                    config_.dev_addr, address, 1, data, size, 10);
 3020              		.loc 2 74 42 is_stmt 0 view .LVU579
 3021 058c 0DF12703 		add	r3, sp, #39
 3022 0590 2E22     		movs	r2, #46
 3023 0592 0093     		str	r3, [sp]
 3024 0594 CDE90178 		strd	r7, r8, [sp, #4]
 3025              	.LBE1391:
 3026              	.LBE1390:
 3027              	.LBB1395:
 3028              	.LBB1384:
 3029              	.LBB1381:
 3030              		.loc 2 336 55 view .LVU580
 3031 0598 94F84C30 		ldrb	r3, [r4, #76]	@ zero_extendqisi2
 3032              	.LBE1381:
 3033              	.LBE1384:
 3034              	.LBE1395:
 3035              	.LBB1396:
ARM GAS  C:\Users\skipi\AppData\Local\Temp\ccnEQq3j.s 			page 72


 3036              	.LBB1392:
  74:../libs/PoliTeKDSP/libs/libDaisy/src/dev/mpr121.h ****                    config_.dev_addr, address, 1, data, size, 10);
 3037              		.loc 2 74 42 view .LVU581
 3038 059c 94F84810 		ldrb	r1, [r4, #72]	@ zero_extendqisi2
 3039              	.LBE1392:
 3040              	.LBE1396:
 3041              	.LBB1397:
 3042              	.LBB1385:
 3043              	.LBB1382:
 3044              		.loc 2 336 55 view .LVU582
 3045 05a0 5045     		cmp	r0, r10
 3046 05a2 18BF     		it	ne
 3047 05a4 43F00103 		orrne	r3, r3, #1
 3048              	.LBE1382:
 3049              	.LBE1385:
 3050              	.LBE1397:
 3051              	.LBB1398:
 3052              	.LBB1393:
  74:../libs/PoliTeKDSP/libs/libDaisy/src/dev/mpr121.h ****                    config_.dev_addr, address, 1, data, size, 10);
 3053              		.loc 2 74 42 view .LVU583
 3054 05a8 2846     		mov	r0, r5
 3055              	.LVL140:
  74:../libs/PoliTeKDSP/libs/libDaisy/src/dev/mpr121.h ****                    config_.dev_addr, address, 1, data, size, 10);
 3056              		.loc 2 74 42 view .LVU584
 3057              	.LBE1393:
 3058              	.LBE1398:
 3059              	.LBB1399:
 3060              	.LBB1386:
 3061              	.LBB1383:
 3062              		.loc 2 336 55 view .LVU585
 3063 05aa 84F84C30 		strb	r3, [r4, #76]
 3064              	.LVL141:
 3065              		.loc 2 336 55 view .LVU586
 3066              	.LBE1383:
 3067              	.LBE1386:
 3068              	.LBE1399:
 3069              	.LBB1400:
 3070              	.LBI1390:
  71:../libs/PoliTeKDSP/libs/libDaisy/src/dev/mpr121.h ****     {
 3071              		.loc 2 71 10 is_stmt 1 view .LVU587
 3072              	.LBB1394:
  73:../libs/PoliTeKDSP/libs/libDaisy/src/dev/mpr121.h ****                != i2c_.WriteDataAtAddress(
 3073              		.loc 2 73 9 view .LVU588
  74:../libs/PoliTeKDSP/libs/libDaisy/src/dev/mpr121.h ****                    config_.dev_addr, address, 1, data, size, 10);
 3074              		.loc 2 74 42 is_stmt 0 view .LVU589
 3075 05ae 3B46     		mov	r3, r7
 3076 05b0 FFF7FEFF 		bl	_ZN5daisy9I2CHandle18WriteDataAtAddressEtttPhtm
 3077              	.LVL142:
  74:../libs/PoliTeKDSP/libs/libDaisy/src/dev/mpr121.h ****                    config_.dev_addr, address, 1, data, size, 10);
 3078              		.loc 2 74 42 view .LVU590
 3079              	.LBE1394:
 3080              	.LBE1400:
 3081              	.LBB1401:
 3082              	.LBI1401:
 3083              		.loc 2 336 10 is_stmt 1 view .LVU591
 3084              	.LBE1401:
 3085              	.LBB1405:
ARM GAS  C:\Users\skipi\AppData\Local\Temp\ccnEQq3j.s 			page 73


 3086              	.LBB1406:
  74:../libs/PoliTeKDSP/libs/libDaisy/src/dev/mpr121.h ****                    config_.dev_addr, address, 1, data, size, 10);
 3087              		.loc 2 74 42 is_stmt 0 view .LVU592
 3088 05b4 CDF800B0 		str	fp, [sp]
 3089 05b8 5E22     		movs	r2, #94
 3090 05ba CDE90178 		strd	r7, r8, [sp, #4]
 3091              	.LBE1406:
 3092              	.LBE1405:
 3093              	.LBB1410:
 3094              	.LBB1402:
 3095              		.loc 2 336 55 view .LVU593
 3096 05be 94F84C30 		ldrb	r3, [r4, #76]	@ zero_extendqisi2
 3097              	.LBE1402:
 3098              	.LBE1410:
 3099              	.LBB1411:
 3100              	.LBB1407:
  74:../libs/PoliTeKDSP/libs/libDaisy/src/dev/mpr121.h ****                    config_.dev_addr, address, 1, data, size, 10);
 3101              		.loc 2 74 42 view .LVU594
 3102 05c2 94F84810 		ldrb	r1, [r4, #72]	@ zero_extendqisi2
 3103              	.LBE1407:
 3104              	.LBE1411:
 3105              	.LBB1412:
 3106              	.LBB1403:
 3107              		.loc 2 336 55 view .LVU595
 3108 05c6 5045     		cmp	r0, r10
 3109 05c8 18BF     		it	ne
 3110 05ca 43F00103 		orrne	r3, r3, #1
 3111              	.LBE1403:
 3112              	.LBE1412:
 3113              	.LBB1413:
 3114              	.LBB1408:
  74:../libs/PoliTeKDSP/libs/libDaisy/src/dev/mpr121.h ****                    config_.dev_addr, address, 1, data, size, 10);
 3115              		.loc 2 74 42 view .LVU596
 3116 05ce 2846     		mov	r0, r5
 3117              	.LVL143:
  74:../libs/PoliTeKDSP/libs/libDaisy/src/dev/mpr121.h ****                    config_.dev_addr, address, 1, data, size, 10);
 3118              		.loc 2 74 42 view .LVU597
 3119              	.LBE1408:
 3120              	.LBE1413:
 3121              	.LBB1414:
 3122              	.LBB1404:
 3123              		.loc 2 336 55 view .LVU598
 3124 05d0 84F84C30 		strb	r3, [r4, #76]
 3125              	.LVL144:
 3126              		.loc 2 336 55 view .LVU599
 3127              	.LBE1404:
 3128              	.LBE1414:
 3129              	.LBB1415:
 3130              	.LBI1405:
  71:../libs/PoliTeKDSP/libs/libDaisy/src/dev/mpr121.h ****     {
 3131              		.loc 2 71 10 is_stmt 1 view .LVU600
 3132              	.LBB1409:
  73:../libs/PoliTeKDSP/libs/libDaisy/src/dev/mpr121.h ****                != i2c_.WriteDataAtAddress(
 3133              		.loc 2 73 9 view .LVU601
  74:../libs/PoliTeKDSP/libs/libDaisy/src/dev/mpr121.h ****                    config_.dev_addr, address, 1, data, size, 10);
 3134              		.loc 2 74 42 is_stmt 0 view .LVU602
 3135 05d4 3B46     		mov	r3, r7
ARM GAS  C:\Users\skipi\AppData\Local\Temp\ccnEQq3j.s 			page 74


 3136 05d6 FFF7FEFF 		bl	_ZN5daisy9I2CHandle18WriteDataAtAddressEtttPhtm
 3137              	.LVL145:
  74:../libs/PoliTeKDSP/libs/libDaisy/src/dev/mpr121.h ****                    config_.dev_addr, address, 1, data, size, 10);
 3138              		.loc 2 74 42 view .LVU603
 3139              	.LBE1409:
 3140              	.LBE1415:
 3141              	.LBB1416:
 3142              	.LBI1416:
 3143              		.loc 2 336 10 is_stmt 1 view .LVU604
 3144              	.LBE1416:
 3145              	.LBE1425:
 3146              	.LBE1434:
 3147              	.LBB1435:
 3148              	.LBB1436:
 3149              	.LBB1437:
 3150              	.LBB1438:
 3151              	.LBB1439:
 3152              	.LBB1440:
 3153              	.LBB1441:
  66:../libs/PoliTeKDSP/libs/libDaisy/src/dev/mpr121.h ****                    config_.dev_addr, address, 1, data, size, 10);
 3154              		.loc 2 66 41 is_stmt 0 view .LVU605
 3155 05da 0096     		str	r6, [sp]
 3156 05dc 5E22     		movs	r2, #94
 3157 05de 8DF82770 		strb	r7, [sp, #39]
 3158 05e2 CDE90178 		strd	r7, r8, [sp, #4]
 3159              	.LBE1441:
 3160              	.LBE1440:
 3161              	.LBE1439:
 3162              	.LBE1438:
 3163              	.LBE1437:
 3164              	.LBE1436:
 3165              	.LBE1435:
 3166              	.LBB1526:
 3167              	.LBB1426:
 3168              	.LBB1420:
 3169              	.LBB1417:
 3170              		.loc 2 336 55 view .LVU606
 3171 05e6 94F84C30 		ldrb	r3, [r4, #76]	@ zero_extendqisi2
 3172              	.LBE1417:
 3173              	.LBE1420:
 3174              	.LBE1426:
 3175              	.LBE1526:
 3176              	.LBB1527:
 3177              	.LBB1520:
 3178              	.LBB1484:
 3179              	.LBB1461:
 3180              	.LBB1455:
 3181              	.LBB1445:
 3182              	.LBB1442:
  66:../libs/PoliTeKDSP/libs/libDaisy/src/dev/mpr121.h ****                    config_.dev_addr, address, 1, data, size, 10);
 3183              		.loc 2 66 41 view .LVU607
 3184 05ea 94F84810 		ldrb	r1, [r4, #72]	@ zero_extendqisi2
 3185              	.LBE1442:
 3186              	.LBE1445:
 3187              	.LBE1455:
 3188              	.LBE1461:
 3189              	.LBE1484:
ARM GAS  C:\Users\skipi\AppData\Local\Temp\ccnEQq3j.s 			page 75


 3190              	.LBE1520:
 3191              	.LBE1527:
 3192              	.LBB1528:
 3193              	.LBB1427:
 3194              	.LBB1421:
 3195              	.LBB1418:
 3196              		.loc 2 336 55 view .LVU608
 3197 05ee 5045     		cmp	r0, r10
 3198 05f0 18BF     		it	ne
 3199 05f2 43F00103 		orrne	r3, r3, #1
 3200              	.LBE1418:
 3201              	.LBE1421:
 3202              	.LBE1427:
 3203              	.LBE1528:
 3204              	.LBB1529:
 3205              	.LBB1521:
 3206              	.LBB1485:
 3207              	.LBB1462:
 3208              	.LBB1456:
 3209              	.LBB1446:
 3210              	.LBB1443:
  66:../libs/PoliTeKDSP/libs/libDaisy/src/dev/mpr121.h ****                    config_.dev_addr, address, 1, data, size, 10);
 3211              		.loc 2 66 41 view .LVU609
 3212 05f6 2846     		mov	r0, r5
 3213              	.LVL146:
  66:../libs/PoliTeKDSP/libs/libDaisy/src/dev/mpr121.h ****                    config_.dev_addr, address, 1, data, size, 10);
 3214              		.loc 2 66 41 view .LVU610
 3215              	.LBE1443:
 3216              	.LBE1446:
 3217              	.LBE1456:
 3218              	.LBE1462:
 3219              	.LBE1485:
 3220              	.LBE1521:
 3221              	.LBE1529:
 3222              	.LBB1530:
 3223              	.LBB1428:
 3224              	.LBB1422:
 3225              	.LBB1419:
 3226              		.loc 2 336 55 view .LVU611
 3227 05f8 84F84C30 		strb	r3, [r4, #76]
 3228              	.LVL147:
 3229              		.loc 2 336 55 view .LVU612
 3230              	.LBE1419:
 3231              	.LBE1422:
 3232              	.LBE1428:
 3233              	.LBE1530:
 3234              	.LBB1531:
 3235              	.LBI1435:
 257:../libs/PoliTeKDSP/libs/libDaisy/src/dev/mpr121.h ****     {
 3236              		.loc 2 257 10 is_stmt 1 view .LVU613
 3237              	.LBB1522:
 3238              	.LBB1486:
 3239              	.LBB1463:
 3240              	.LBI1438:
 232:../libs/PoliTeKDSP/libs/libDaisy/src/dev/mpr121.h ****     {
 3241              		.loc 2 232 13 view .LVU614
 3242              	.LBB1457:
ARM GAS  C:\Users\skipi\AppData\Local\Temp\ccnEQq3j.s 			page 76


 3243              	.LBB1447:
 3244              	.LBI1440:
  63:../libs/PoliTeKDSP/libs/libDaisy/src/dev/mpr121.h ****     {
 3245              		.loc 2 63 10 view .LVU615
 3246              	.LBB1444:
  65:../libs/PoliTeKDSP/libs/libDaisy/src/dev/mpr121.h ****                != i2c_.ReadDataAtAddress(
 3247              		.loc 2 65 9 view .LVU616
  66:../libs/PoliTeKDSP/libs/libDaisy/src/dev/mpr121.h ****                    config_.dev_addr, address, 1, data, size, 10);
 3248              		.loc 2 66 41 is_stmt 0 view .LVU617
 3249 05fc 3B46     		mov	r3, r7
 3250 05fe FFF7FEFF 		bl	_ZN5daisy9I2CHandle17ReadDataAtAddressEtttPhtm
 3251              	.LVL148:
  66:../libs/PoliTeKDSP/libs/libDaisy/src/dev/mpr121.h ****                    config_.dev_addr, address, 1, data, size, 10);
 3252              		.loc 2 66 41 view .LVU618
 3253              	.LBE1444:
 3254              	.LBE1447:
 3255              	.LBB1448:
 3256              	.LBI1448:
 3257              		.loc 2 336 10 is_stmt 1 view .LVU619
 3258              	.LBE1448:
 3259              	.LBE1457:
 3260              	.LBE1463:
 3261              	.LBB1464:
 3262              	.LBB1465:
  74:../libs/PoliTeKDSP/libs/libDaisy/src/dev/mpr121.h ****                    config_.dev_addr, address, 1, data, size, 10);
 3263              		.loc 2 74 42 is_stmt 0 view .LVU620
 3264 0602 0096     		str	r6, [sp]
 3265 0604 5E22     		movs	r2, #94
 3266 0606 CDE90178 		strd	r7, r8, [sp, #4]
 3267              	.LBE1465:
 3268              	.LBE1464:
 3269              	.LBB1470:
 3270              	.LBB1458:
 3271              	.LBB1452:
 3272              	.LBB1449:
 3273              		.loc 2 336 55 view .LVU621
 3274 060a 94F84C30 		ldrb	r3, [r4, #76]	@ zero_extendqisi2
 3275              	.LBE1449:
 3276              	.LBE1452:
 3277              	.LBE1458:
 3278              	.LBE1470:
 3279              	.LBB1471:
 3280              	.LBB1466:
  74:../libs/PoliTeKDSP/libs/libDaisy/src/dev/mpr121.h ****                    config_.dev_addr, address, 1, data, size, 10);
 3281              		.loc 2 74 42 view .LVU622
 3282 060e 94F84810 		ldrb	r1, [r4, #72]	@ zero_extendqisi2
 3283              	.LBE1466:
 3284              	.LBE1471:
 3285              	.LBB1472:
 3286              	.LBB1459:
 3287              	.LBB1453:
 3288              	.LBB1450:
 3289              		.loc 2 336 55 view .LVU623
 3290 0612 5045     		cmp	r0, r10
 3291 0614 18BF     		it	ne
 3292 0616 43F00103 		orrne	r3, r3, #1
 3293              	.LBE1450:
ARM GAS  C:\Users\skipi\AppData\Local\Temp\ccnEQq3j.s 			page 77


 3294              	.LBE1453:
 3295              	.LBE1459:
 3296              	.LBE1472:
 3297              	.LBB1473:
 3298              	.LBB1467:
  74:../libs/PoliTeKDSP/libs/libDaisy/src/dev/mpr121.h ****                    config_.dev_addr, address, 1, data, size, 10);
 3299              		.loc 2 74 42 view .LVU624
 3300 061a 2846     		mov	r0, r5
 3301              	.LVL149:
  74:../libs/PoliTeKDSP/libs/libDaisy/src/dev/mpr121.h ****                    config_.dev_addr, address, 1, data, size, 10);
 3302              		.loc 2 74 42 view .LVU625
 3303              	.LBE1467:
 3304              	.LBE1473:
 3305              	.LBB1474:
 3306              	.LBB1460:
 3307              	.LBB1454:
 3308              	.LBB1451:
 3309              		.loc 2 336 55 view .LVU626
 3310 061c 84F84C30 		strb	r3, [r4, #76]
 3311              	.LVL150:
 3312              		.loc 2 336 55 view .LVU627
 3313              	.LBE1451:
 3314              	.LBE1454:
 237:../libs/PoliTeKDSP/libs/libDaisy/src/dev/mpr121.h ****     }
 3315              		.loc 2 237 16 view .LVU628
 3316 0620 9DF83C30 		ldrb	r3, [sp, #60]	@ zero_extendqisi2
 3317              	.LVL151:
 237:../libs/PoliTeKDSP/libs/libDaisy/src/dev/mpr121.h ****     }
 3318              		.loc 2 237 16 view .LVU629
 3319              	.LBE1460:
 3320              	.LBE1474:
 271:../libs/PoliTeKDSP/libs/libDaisy/src/dev/mpr121.h ****             // clear this register to set stop mode
 3321              		.loc 2 271 21 view .LVU630
 3322 0624 8DF83CA0 		strb	r10, [sp, #60]
 3323              	.LVL152:
 3324              	.LBB1475:
 3325              	.LBI1464:
  71:../libs/PoliTeKDSP/libs/libDaisy/src/dev/mpr121.h ****     {
 3326              		.loc 2 71 10 is_stmt 1 view .LVU631
 3327              	.LBB1468:
  73:../libs/PoliTeKDSP/libs/libDaisy/src/dev/mpr121.h ****                != i2c_.WriteDataAtAddress(
 3328              		.loc 2 73 9 view .LVU632
 3329              	.LBE1468:
 3330              	.LBE1475:
 270:../libs/PoliTeKDSP/libs/libDaisy/src/dev/mpr121.h ****             uint8_t zero = 0x00;
 3331              		.loc 2 270 26 is_stmt 0 view .LVU633
 3332 0628 8DF82830 		strb	r3, [sp, #40]
 3333              	.LBB1476:
 3334              	.LBB1469:
  74:../libs/PoliTeKDSP/libs/libDaisy/src/dev/mpr121.h ****                    config_.dev_addr, address, 1, data, size, 10);
 3335              		.loc 2 74 42 view .LVU634
 3336 062c 3B46     		mov	r3, r7
 3337 062e FFF7FEFF 		bl	_ZN5daisy9I2CHandle18WriteDataAtAddressEtttPhtm
 3338              	.LVL153:
  74:../libs/PoliTeKDSP/libs/libDaisy/src/dev/mpr121.h ****                    config_.dev_addr, address, 1, data, size, 10);
 3339              		.loc 2 74 42 view .LVU635
 3340              	.LBE1469:
ARM GAS  C:\Users\skipi\AppData\Local\Temp\ccnEQq3j.s 			page 78


 3341              	.LBE1476:
 3342              	.LBB1477:
 3343              	.LBI1477:
 3344              		.loc 2 336 10 is_stmt 1 view .LVU636
 3345              	.LBE1477:
 3346              	.LBE1486:
 3347              	.LBB1487:
 3348              	.LBB1488:
  74:../libs/PoliTeKDSP/libs/libDaisy/src/dev/mpr121.h ****                    config_.dev_addr, address, 1, data, size, 10);
 3349              		.loc 2 74 42 is_stmt 0 view .LVU637
 3350 0632 0DF12703 		add	r3, sp, #39
 3351 0636 2F22     		movs	r2, #47
 3352 0638 0093     		str	r3, [sp]
 3353 063a CDE90178 		strd	r7, r8, [sp, #4]
 3354              	.LBE1488:
 3355              	.LBE1487:
 3356              	.LBB1492:
 3357              	.LBB1481:
 3358              	.LBB1478:
 3359              		.loc 2 336 55 view .LVU638
 3360 063e 94F84C30 		ldrb	r3, [r4, #76]	@ zero_extendqisi2
 3361              	.LBE1478:
 3362              	.LBE1481:
 3363              	.LBE1492:
 3364              	.LBB1493:
 3365              	.LBB1489:
  74:../libs/PoliTeKDSP/libs/libDaisy/src/dev/mpr121.h ****                    config_.dev_addr, address, 1, data, size, 10);
 3366              		.loc 2 74 42 view .LVU639
 3367 0642 94F84810 		ldrb	r1, [r4, #72]	@ zero_extendqisi2
 3368              	.LBE1489:
 3369              	.LBE1493:
 3370              	.LBB1494:
 3371              	.LBB1482:
 3372              	.LBB1479:
 3373              		.loc 2 336 55 view .LVU640
 3374 0646 5045     		cmp	r0, r10
 3375 0648 18BF     		it	ne
 3376 064a 43F00103 		orrne	r3, r3, #1
 3377              	.LBE1479:
 3378              	.LBE1482:
 3379              	.LBE1494:
 3380              	.LBB1495:
 3381              	.LBB1490:
  74:../libs/PoliTeKDSP/libs/libDaisy/src/dev/mpr121.h ****                    config_.dev_addr, address, 1, data, size, 10);
 3382              		.loc 2 74 42 view .LVU641
 3383 064e 2846     		mov	r0, r5
 3384              	.LVL154:
  74:../libs/PoliTeKDSP/libs/libDaisy/src/dev/mpr121.h ****                    config_.dev_addr, address, 1, data, size, 10);
 3385              		.loc 2 74 42 view .LVU642
 3386              	.LBE1490:
 3387              	.LBE1495:
 3388              	.LBB1496:
 3389              	.LBB1483:
 3390              	.LBB1480:
 3391              		.loc 2 336 55 view .LVU643
 3392 0650 84F84C30 		strb	r3, [r4, #76]
 3393              	.LVL155:
ARM GAS  C:\Users\skipi\AppData\Local\Temp\ccnEQq3j.s 			page 79


 3394              		.loc 2 336 55 view .LVU644
 3395              	.LBE1480:
 3396              	.LBE1483:
 3397              	.LBE1496:
 3398              	.LBB1497:
 3399              	.LBI1487:
  71:../libs/PoliTeKDSP/libs/libDaisy/src/dev/mpr121.h ****     {
 3400              		.loc 2 71 10 is_stmt 1 view .LVU645
 3401              	.LBB1491:
  73:../libs/PoliTeKDSP/libs/libDaisy/src/dev/mpr121.h ****                != i2c_.WriteDataAtAddress(
 3402              		.loc 2 73 9 view .LVU646
  74:../libs/PoliTeKDSP/libs/libDaisy/src/dev/mpr121.h ****                    config_.dev_addr, address, 1, data, size, 10);
 3403              		.loc 2 74 42 is_stmt 0 view .LVU647
 3404 0654 3B46     		mov	r3, r7
 3405 0656 FFF7FEFF 		bl	_ZN5daisy9I2CHandle18WriteDataAtAddressEtttPhtm
 3406              	.LVL156:
  74:../libs/PoliTeKDSP/libs/libDaisy/src/dev/mpr121.h ****                    config_.dev_addr, address, 1, data, size, 10);
 3407              		.loc 2 74 42 view .LVU648
 3408              	.LBE1491:
 3409              	.LBE1497:
 3410              	.LBB1498:
 3411              	.LBI1498:
 3412              		.loc 2 336 10 is_stmt 1 view .LVU649
 3413              	.LBE1498:
 3414              	.LBB1502:
 3415              	.LBB1503:
  74:../libs/PoliTeKDSP/libs/libDaisy/src/dev/mpr121.h ****                    config_.dev_addr, address, 1, data, size, 10);
 3416              		.loc 2 74 42 is_stmt 0 view .LVU650
 3417 065a CDF800B0 		str	fp, [sp]
 3418 065e 5E22     		movs	r2, #94
 3419 0660 CDE90178 		strd	r7, r8, [sp, #4]
 3420              	.LBE1503:
 3421              	.LBE1502:
 3422              	.LBB1507:
 3423              	.LBB1499:
 3424              		.loc 2 336 55 view .LVU651
 3425 0664 94F84C30 		ldrb	r3, [r4, #76]	@ zero_extendqisi2
 3426              	.LBE1499:
 3427              	.LBE1507:
 3428              	.LBB1508:
 3429              	.LBB1504:
  74:../libs/PoliTeKDSP/libs/libDaisy/src/dev/mpr121.h ****                    config_.dev_addr, address, 1, data, size, 10);
 3430              		.loc 2 74 42 view .LVU652
 3431 0668 94F84810 		ldrb	r1, [r4, #72]	@ zero_extendqisi2
 3432              	.LBE1504:
 3433              	.LBE1508:
 3434              	.LBB1509:
 3435              	.LBB1500:
 3436              		.loc 2 336 55 view .LVU653
 3437 066c 5045     		cmp	r0, r10
 3438 066e 18BF     		it	ne
 3439 0670 43F00103 		orrne	r3, r3, #1
 3440              	.LBE1500:
 3441              	.LBE1509:
 3442              	.LBB1510:
 3443              	.LBB1505:
  74:../libs/PoliTeKDSP/libs/libDaisy/src/dev/mpr121.h ****                    config_.dev_addr, address, 1, data, size, 10);
ARM GAS  C:\Users\skipi\AppData\Local\Temp\ccnEQq3j.s 			page 80


 3444              		.loc 2 74 42 view .LVU654
 3445 0674 2846     		mov	r0, r5
 3446              	.LVL157:
  74:../libs/PoliTeKDSP/libs/libDaisy/src/dev/mpr121.h ****                    config_.dev_addr, address, 1, data, size, 10);
 3447              		.loc 2 74 42 view .LVU655
 3448              	.LBE1505:
 3449              	.LBE1510:
 3450              	.LBB1511:
 3451              	.LBB1501:
 3452              		.loc 2 336 55 view .LVU656
 3453 0676 84F84C30 		strb	r3, [r4, #76]
 3454              	.LVL158:
 3455              		.loc 2 336 55 view .LVU657
 3456              	.LBE1501:
 3457              	.LBE1511:
 3458              	.LBB1512:
 3459              	.LBI1502:
  71:../libs/PoliTeKDSP/libs/libDaisy/src/dev/mpr121.h ****     {
 3460              		.loc 2 71 10 is_stmt 1 view .LVU658
 3461              	.LBB1506:
  73:../libs/PoliTeKDSP/libs/libDaisy/src/dev/mpr121.h ****                != i2c_.WriteDataAtAddress(
 3462              		.loc 2 73 9 view .LVU659
  74:../libs/PoliTeKDSP/libs/libDaisy/src/dev/mpr121.h ****                    config_.dev_addr, address, 1, data, size, 10);
 3463              		.loc 2 74 42 is_stmt 0 view .LVU660
 3464 067a 3B46     		mov	r3, r7
 3465 067c FFF7FEFF 		bl	_ZN5daisy9I2CHandle18WriteDataAtAddressEtttPhtm
 3466              	.LVL159:
  74:../libs/PoliTeKDSP/libs/libDaisy/src/dev/mpr121.h ****                    config_.dev_addr, address, 1, data, size, 10);
 3467              		.loc 2 74 42 view .LVU661
 3468              	.LBE1506:
 3469              	.LBE1512:
 3470              	.LBB1513:
 3471              	.LBI1513:
 3472              		.loc 2 336 10 is_stmt 1 view .LVU662
 3473              	.LBE1513:
 3474              	.LBE1522:
 3475              	.LBE1531:
 3476              	.LBB1532:
 3477              	.LBB1533:
 3478              	.LBB1534:
 3479              	.LBB1535:
 3480              	.LBB1536:
 3481              	.LBB1537:
 3482              	.LBB1538:
  66:../libs/PoliTeKDSP/libs/libDaisy/src/dev/mpr121.h ****                    config_.dev_addr, address, 1, data, size, 10);
 3483              		.loc 2 66 41 is_stmt 0 view .LVU663
 3484 0680 0096     		str	r6, [sp]
 3485 0682 5E22     		movs	r2, #94
 3486 0684 CDE90178 		strd	r7, r8, [sp, #4]
 3487              	.LBE1538:
 3488              	.LBE1537:
 3489              	.LBE1536:
 3490              	.LBE1535:
 3491              	.LBE1534:
 3492              	.LBE1533:
 3493              	.LBE1532:
 3494              	.LBB1623:
ARM GAS  C:\Users\skipi\AppData\Local\Temp\ccnEQq3j.s 			page 81


 3495              	.LBB1523:
 3496              	.LBB1517:
 3497              	.LBB1514:
 3498              		.loc 2 336 55 view .LVU664
 3499 0688 94F84C30 		ldrb	r3, [r4, #76]	@ zero_extendqisi2
 3500              	.LBE1514:
 3501              	.LBE1517:
 3502              	.LBE1523:
 3503              	.LBE1623:
 3504              	.LBB1624:
 3505              	.LBB1617:
 3506              	.LBB1581:
 3507              	.LBB1558:
 3508              	.LBB1552:
 3509              	.LBB1542:
 3510              	.LBB1539:
  66:../libs/PoliTeKDSP/libs/libDaisy/src/dev/mpr121.h ****                    config_.dev_addr, address, 1, data, size, 10);
 3511              		.loc 2 66 41 view .LVU665
 3512 068c 94F84810 		ldrb	r1, [r4, #72]	@ zero_extendqisi2
 3513              	.LBE1539:
 3514              	.LBE1542:
 3515              	.LBE1552:
 3516              	.LBE1558:
 3517              	.LBE1581:
 3518              	.LBE1617:
 3519              	.LBE1624:
 3520              	.LBB1625:
 3521              	.LBB1524:
 3522              	.LBB1518:
 3523              	.LBB1515:
 3524              		.loc 2 336 55 view .LVU666
 3525 0690 5045     		cmp	r0, r10
 3526 0692 18BF     		it	ne
 3527 0694 43F00103 		orrne	r3, r3, #1
 3528              	.LBE1515:
 3529              	.LBE1518:
 3530              	.LBE1524:
 3531              	.LBE1625:
 3532              	.LBB1626:
 3533              	.LBB1618:
 3534              	.LBB1582:
 3535              	.LBB1559:
 3536              	.LBB1553:
 3537              	.LBB1543:
 3538              	.LBB1540:
  66:../libs/PoliTeKDSP/libs/libDaisy/src/dev/mpr121.h ****                    config_.dev_addr, address, 1, data, size, 10);
 3539              		.loc 2 66 41 view .LVU667
 3540 0698 2846     		mov	r0, r5
 3541              	.LVL160:
  66:../libs/PoliTeKDSP/libs/libDaisy/src/dev/mpr121.h ****                    config_.dev_addr, address, 1, data, size, 10);
 3542              		.loc 2 66 41 view .LVU668
 3543              	.LBE1540:
 3544              	.LBE1543:
 3545              	.LBE1553:
 3546              	.LBE1559:
 3547              	.LBE1582:
 3548              	.LBE1618:
ARM GAS  C:\Users\skipi\AppData\Local\Temp\ccnEQq3j.s 			page 82


 3549              	.LBE1626:
 3550              	.LBB1627:
 3551              	.LBB1525:
 3552              	.LBB1519:
 3553              	.LBB1516:
 3554              		.loc 2 336 55 view .LVU669
 3555 069a 84F84C30 		strb	r3, [r4, #76]
 3556              	.LVL161:
 3557              		.loc 2 336 55 view .LVU670
 3558 069e 0523     		movs	r3, #5
 3559 06a0 8DF82730 		strb	r3, [sp, #39]
 3560              	.LVL162:
 3561              		.loc 2 336 55 view .LVU671
 3562              	.LBE1516:
 3563              	.LBE1519:
 3564              	.LBE1525:
 3565              	.LBE1627:
 3566              	.LBB1628:
 3567              	.LBI1532:
 257:../libs/PoliTeKDSP/libs/libDaisy/src/dev/mpr121.h ****     {
 3568              		.loc 2 257 10 is_stmt 1 view .LVU672
 3569              	.LBB1619:
 3570              	.LBB1583:
 3571              	.LBB1560:
 3572              	.LBI1535:
 232:../libs/PoliTeKDSP/libs/libDaisy/src/dev/mpr121.h ****     {
 3573              		.loc 2 232 13 view .LVU673
 3574              	.LBB1554:
 3575              	.LBB1544:
 3576              	.LBI1537:
  63:../libs/PoliTeKDSP/libs/libDaisy/src/dev/mpr121.h ****     {
 3577              		.loc 2 63 10 view .LVU674
 3578              	.LBB1541:
  65:../libs/PoliTeKDSP/libs/libDaisy/src/dev/mpr121.h ****                != i2c_.ReadDataAtAddress(
 3579              		.loc 2 65 9 view .LVU675
  66:../libs/PoliTeKDSP/libs/libDaisy/src/dev/mpr121.h ****                    config_.dev_addr, address, 1, data, size, 10);
 3580              		.loc 2 66 41 is_stmt 0 view .LVU676
 3581 06a4 3B46     		mov	r3, r7
 3582              	.LVL163:
  66:../libs/PoliTeKDSP/libs/libDaisy/src/dev/mpr121.h ****                    config_.dev_addr, address, 1, data, size, 10);
 3583              		.loc 2 66 41 view .LVU677
 3584 06a6 FFF7FEFF 		bl	_ZN5daisy9I2CHandle17ReadDataAtAddressEtttPhtm
 3585              	.LVL164:
  66:../libs/PoliTeKDSP/libs/libDaisy/src/dev/mpr121.h ****                    config_.dev_addr, address, 1, data, size, 10);
 3586              		.loc 2 66 41 view .LVU678
 3587              	.LBE1541:
 3588              	.LBE1544:
 3589              	.LBB1545:
 3590              	.LBI1545:
 3591              		.loc 2 336 10 is_stmt 1 view .LVU679
 3592              	.LBE1545:
 3593              	.LBE1554:
 3594              	.LBE1560:
 3595              	.LBB1561:
 3596              	.LBB1562:
  74:../libs/PoliTeKDSP/libs/libDaisy/src/dev/mpr121.h ****                    config_.dev_addr, address, 1, data, size, 10);
 3597              		.loc 2 74 42 is_stmt 0 view .LVU680
ARM GAS  C:\Users\skipi\AppData\Local\Temp\ccnEQq3j.s 			page 83


 3598 06aa 0096     		str	r6, [sp]
 3599 06ac 5E22     		movs	r2, #94
 3600 06ae CDE90178 		strd	r7, r8, [sp, #4]
 3601              	.LBE1562:
 3602              	.LBE1561:
 3603              	.LBB1567:
 3604              	.LBB1555:
 3605              	.LBB1549:
 3606              	.LBB1546:
 3607              		.loc 2 336 55 view .LVU681
 3608 06b2 94F84C30 		ldrb	r3, [r4, #76]	@ zero_extendqisi2
 3609              	.LBE1546:
 3610              	.LBE1549:
 3611              	.LBE1555:
 3612              	.LBE1567:
 3613              	.LBB1568:
 3614              	.LBB1563:
  74:../libs/PoliTeKDSP/libs/libDaisy/src/dev/mpr121.h ****                    config_.dev_addr, address, 1, data, size, 10);
 3615              		.loc 2 74 42 view .LVU682
 3616 06b6 94F84810 		ldrb	r1, [r4, #72]	@ zero_extendqisi2
 3617              	.LBE1563:
 3618              	.LBE1568:
 3619              	.LBB1569:
 3620              	.LBB1556:
 3621              	.LBB1550:
 3622              	.LBB1547:
 3623              		.loc 2 336 55 view .LVU683
 3624 06ba 5045     		cmp	r0, r10
 3625 06bc 18BF     		it	ne
 3626 06be 43F00103 		orrne	r3, r3, #1
 3627              	.LBE1547:
 3628              	.LBE1550:
 3629              	.LBE1556:
 3630              	.LBE1569:
 3631              	.LBB1570:
 3632              	.LBB1564:
  74:../libs/PoliTeKDSP/libs/libDaisy/src/dev/mpr121.h ****                    config_.dev_addr, address, 1, data, size, 10);
 3633              		.loc 2 74 42 view .LVU684
 3634 06c2 2846     		mov	r0, r5
 3635              	.LVL165:
  74:../libs/PoliTeKDSP/libs/libDaisy/src/dev/mpr121.h ****                    config_.dev_addr, address, 1, data, size, 10);
 3636              		.loc 2 74 42 view .LVU685
 3637              	.LBE1564:
 3638              	.LBE1570:
 3639              	.LBB1571:
 3640              	.LBB1557:
 3641              	.LBB1551:
 3642              	.LBB1548:
 3643              		.loc 2 336 55 view .LVU686
 3644 06c4 84F84C30 		strb	r3, [r4, #76]
 3645              	.LVL166:
 3646              		.loc 2 336 55 view .LVU687
 3647              	.LBE1548:
 3648              	.LBE1551:
 237:../libs/PoliTeKDSP/libs/libDaisy/src/dev/mpr121.h ****     }
 3649              		.loc 2 237 16 view .LVU688
 3650 06c8 9DF83C30 		ldrb	r3, [sp, #60]	@ zero_extendqisi2
ARM GAS  C:\Users\skipi\AppData\Local\Temp\ccnEQq3j.s 			page 84


 3651              	.LVL167:
 237:../libs/PoliTeKDSP/libs/libDaisy/src/dev/mpr121.h ****     }
 3652              		.loc 2 237 16 view .LVU689
 3653              	.LBE1557:
 3654              	.LBE1571:
 271:../libs/PoliTeKDSP/libs/libDaisy/src/dev/mpr121.h ****             // clear this register to set stop mode
 3655              		.loc 2 271 21 view .LVU690
 3656 06cc 8DF83CA0 		strb	r10, [sp, #60]
 3657              	.LVL168:
 3658              	.LBB1572:
 3659              	.LBI1561:
  71:../libs/PoliTeKDSP/libs/libDaisy/src/dev/mpr121.h ****     {
 3660              		.loc 2 71 10 is_stmt 1 view .LVU691
 3661              	.LBB1565:
  73:../libs/PoliTeKDSP/libs/libDaisy/src/dev/mpr121.h ****                != i2c_.WriteDataAtAddress(
 3662              		.loc 2 73 9 view .LVU692
 3663              	.LBE1565:
 3664              	.LBE1572:
 270:../libs/PoliTeKDSP/libs/libDaisy/src/dev/mpr121.h ****             uint8_t zero = 0x00;
 3665              		.loc 2 270 26 is_stmt 0 view .LVU693
 3666 06d0 8DF82830 		strb	r3, [sp, #40]
 3667              	.LBB1573:
 3668              	.LBB1566:
  74:../libs/PoliTeKDSP/libs/libDaisy/src/dev/mpr121.h ****                    config_.dev_addr, address, 1, data, size, 10);
 3669              		.loc 2 74 42 view .LVU694
 3670 06d4 3B46     		mov	r3, r7
 3671 06d6 FFF7FEFF 		bl	_ZN5daisy9I2CHandle18WriteDataAtAddressEtttPhtm
 3672              	.LVL169:
  74:../libs/PoliTeKDSP/libs/libDaisy/src/dev/mpr121.h ****                    config_.dev_addr, address, 1, data, size, 10);
 3673              		.loc 2 74 42 view .LVU695
 3674              	.LBE1566:
 3675              	.LBE1573:
 3676              	.LBB1574:
 3677              	.LBI1574:
 3678              		.loc 2 336 10 is_stmt 1 view .LVU696
 3679              	.LBE1574:
 3680              	.LBE1583:
 3681              	.LBB1584:
 3682              	.LBB1585:
  74:../libs/PoliTeKDSP/libs/libDaisy/src/dev/mpr121.h ****                    config_.dev_addr, address, 1, data, size, 10);
 3683              		.loc 2 74 42 is_stmt 0 view .LVU697
 3684 06da 0DF12703 		add	r3, sp, #39
 3685 06de 3022     		movs	r2, #48
 3686 06e0 0093     		str	r3, [sp]
 3687 06e2 CDE90178 		strd	r7, r8, [sp, #4]
 3688              	.LBE1585:
 3689              	.LBE1584:
 3690              	.LBB1589:
 3691              	.LBB1578:
 3692              	.LBB1575:
 3693              		.loc 2 336 55 view .LVU698
 3694 06e6 94F84C30 		ldrb	r3, [r4, #76]	@ zero_extendqisi2
 3695              	.LBE1575:
 3696              	.LBE1578:
 3697              	.LBE1589:
 3698              	.LBB1590:
 3699              	.LBB1586:
ARM GAS  C:\Users\skipi\AppData\Local\Temp\ccnEQq3j.s 			page 85


  74:../libs/PoliTeKDSP/libs/libDaisy/src/dev/mpr121.h ****                    config_.dev_addr, address, 1, data, size, 10);
 3700              		.loc 2 74 42 view .LVU699
 3701 06ea 94F84810 		ldrb	r1, [r4, #72]	@ zero_extendqisi2
 3702              	.LBE1586:
 3703              	.LBE1590:
 3704              	.LBB1591:
 3705              	.LBB1579:
 3706              	.LBB1576:
 3707              		.loc 2 336 55 view .LVU700
 3708 06ee 5045     		cmp	r0, r10
 3709 06f0 18BF     		it	ne
 3710 06f2 43F00103 		orrne	r3, r3, #1
 3711              	.LBE1576:
 3712              	.LBE1579:
 3713              	.LBE1591:
 3714              	.LBB1592:
 3715              	.LBB1587:
  74:../libs/PoliTeKDSP/libs/libDaisy/src/dev/mpr121.h ****                    config_.dev_addr, address, 1, data, size, 10);
 3716              		.loc 2 74 42 view .LVU701
 3717 06f6 2846     		mov	r0, r5
 3718              	.LVL170:
  74:../libs/PoliTeKDSP/libs/libDaisy/src/dev/mpr121.h ****                    config_.dev_addr, address, 1, data, size, 10);
 3719              		.loc 2 74 42 view .LVU702
 3720              	.LBE1587:
 3721              	.LBE1592:
 3722              	.LBB1593:
 3723              	.LBB1580:
 3724              	.LBB1577:
 3725              		.loc 2 336 55 view .LVU703
 3726 06f8 84F84C30 		strb	r3, [r4, #76]
 3727              	.LVL171:
 3728              		.loc 2 336 55 view .LVU704
 3729              	.LBE1577:
 3730              	.LBE1580:
 3731              	.LBE1593:
 3732              	.LBB1594:
 3733              	.LBI1584:
  71:../libs/PoliTeKDSP/libs/libDaisy/src/dev/mpr121.h ****     {
 3734              		.loc 2 71 10 is_stmt 1 view .LVU705
 3735              	.LBB1588:
  73:../libs/PoliTeKDSP/libs/libDaisy/src/dev/mpr121.h ****                != i2c_.WriteDataAtAddress(
 3736              		.loc 2 73 9 view .LVU706
  74:../libs/PoliTeKDSP/libs/libDaisy/src/dev/mpr121.h ****                    config_.dev_addr, address, 1, data, size, 10);
 3737              		.loc 2 74 42 is_stmt 0 view .LVU707
 3738 06fc 3B46     		mov	r3, r7
 3739 06fe FFF7FEFF 		bl	_ZN5daisy9I2CHandle18WriteDataAtAddressEtttPhtm
 3740              	.LVL172:
  74:../libs/PoliTeKDSP/libs/libDaisy/src/dev/mpr121.h ****                    config_.dev_addr, address, 1, data, size, 10);
 3741              		.loc 2 74 42 view .LVU708
 3742              	.LBE1588:
 3743              	.LBE1594:
 3744              	.LBB1595:
 3745              	.LBI1595:
 3746              		.loc 2 336 10 is_stmt 1 view .LVU709
 3747              	.LBE1595:
 3748              	.LBB1599:
 3749              	.LBB1600:
ARM GAS  C:\Users\skipi\AppData\Local\Temp\ccnEQq3j.s 			page 86


  74:../libs/PoliTeKDSP/libs/libDaisy/src/dev/mpr121.h ****                    config_.dev_addr, address, 1, data, size, 10);
 3750              		.loc 2 74 42 is_stmt 0 view .LVU710
 3751 0702 CDF800B0 		str	fp, [sp]
 3752 0706 5E22     		movs	r2, #94
 3753 0708 CDE90178 		strd	r7, r8, [sp, #4]
 3754              	.LBE1600:
 3755              	.LBE1599:
 3756              	.LBB1604:
 3757              	.LBB1596:
 3758              		.loc 2 336 55 view .LVU711
 3759 070c 94F84C30 		ldrb	r3, [r4, #76]	@ zero_extendqisi2
 3760              	.LBE1596:
 3761              	.LBE1604:
 3762              	.LBB1605:
 3763              	.LBB1601:
  74:../libs/PoliTeKDSP/libs/libDaisy/src/dev/mpr121.h ****                    config_.dev_addr, address, 1, data, size, 10);
 3764              		.loc 2 74 42 view .LVU712
 3765 0710 94F84810 		ldrb	r1, [r4, #72]	@ zero_extendqisi2
 3766              	.LBE1601:
 3767              	.LBE1605:
 3768              	.LBB1606:
 3769              	.LBB1597:
 3770              		.loc 2 336 55 view .LVU713
 3771 0714 5045     		cmp	r0, r10
 3772 0716 18BF     		it	ne
 3773 0718 43F00103 		orrne	r3, r3, #1
 3774              	.LBE1597:
 3775              	.LBE1606:
 3776              	.LBB1607:
 3777              	.LBB1602:
  74:../libs/PoliTeKDSP/libs/libDaisy/src/dev/mpr121.h ****                    config_.dev_addr, address, 1, data, size, 10);
 3778              		.loc 2 74 42 view .LVU714
 3779 071c 2846     		mov	r0, r5
 3780              	.LVL173:
  74:../libs/PoliTeKDSP/libs/libDaisy/src/dev/mpr121.h ****                    config_.dev_addr, address, 1, data, size, 10);
 3781              		.loc 2 74 42 view .LVU715
 3782              	.LBE1602:
 3783              	.LBE1607:
 3784              	.LBB1608:
 3785              	.LBB1598:
 3786              		.loc 2 336 55 view .LVU716
 3787 071e 84F84C30 		strb	r3, [r4, #76]
 3788              	.LVL174:
 3789              		.loc 2 336 55 view .LVU717
 3790              	.LBE1598:
 3791              	.LBE1608:
 3792              	.LBB1609:
 3793              	.LBI1599:
  71:../libs/PoliTeKDSP/libs/libDaisy/src/dev/mpr121.h ****     {
 3794              		.loc 2 71 10 is_stmt 1 view .LVU718
 3795              	.LBB1603:
  73:../libs/PoliTeKDSP/libs/libDaisy/src/dev/mpr121.h ****                != i2c_.WriteDataAtAddress(
 3796              		.loc 2 73 9 view .LVU719
  74:../libs/PoliTeKDSP/libs/libDaisy/src/dev/mpr121.h ****                    config_.dev_addr, address, 1, data, size, 10);
 3797              		.loc 2 74 42 is_stmt 0 view .LVU720
 3798 0722 3B46     		mov	r3, r7
 3799 0724 FFF7FEFF 		bl	_ZN5daisy9I2CHandle18WriteDataAtAddressEtttPhtm
ARM GAS  C:\Users\skipi\AppData\Local\Temp\ccnEQq3j.s 			page 87


 3800              	.LVL175:
  74:../libs/PoliTeKDSP/libs/libDaisy/src/dev/mpr121.h ****                    config_.dev_addr, address, 1, data, size, 10);
 3801              		.loc 2 74 42 view .LVU721
 3802              	.LBE1603:
 3803              	.LBE1609:
 3804              	.LBB1610:
 3805              	.LBI1610:
 3806              		.loc 2 336 10 is_stmt 1 view .LVU722
 3807              	.LBE1610:
 3808              	.LBE1619:
 3809              	.LBE1628:
 3810              	.LBB1629:
 3811              	.LBB1630:
 3812              	.LBB1631:
 3813              	.LBB1632:
 3814              	.LBB1633:
 3815              	.LBB1634:
 3816              	.LBB1635:
  66:../libs/PoliTeKDSP/libs/libDaisy/src/dev/mpr121.h ****                    config_.dev_addr, address, 1, data, size, 10);
 3817              		.loc 2 66 41 is_stmt 0 view .LVU723
 3818 0728 0096     		str	r6, [sp]
 3819 072a 5E22     		movs	r2, #94
 3820 072c 8DF82770 		strb	r7, [sp, #39]
 3821 0730 CDE90178 		strd	r7, r8, [sp, #4]
 3822              	.LBE1635:
 3823              	.LBE1634:
 3824              	.LBE1633:
 3825              	.LBE1632:
 3826              	.LBE1631:
 3827              	.LBE1630:
 3828              	.LBE1629:
 3829              	.LBB1720:
 3830              	.LBB1620:
 3831              	.LBB1614:
 3832              	.LBB1611:
 3833              		.loc 2 336 55 view .LVU724
 3834 0734 94F84C30 		ldrb	r3, [r4, #76]	@ zero_extendqisi2
 3835              	.LBE1611:
 3836              	.LBE1614:
 3837              	.LBE1620:
 3838              	.LBE1720:
 3839              	.LBB1721:
 3840              	.LBB1714:
 3841              	.LBB1678:
 3842              	.LBB1655:
 3843              	.LBB1649:
 3844              	.LBB1639:
 3845              	.LBB1636:
  66:../libs/PoliTeKDSP/libs/libDaisy/src/dev/mpr121.h ****                    config_.dev_addr, address, 1, data, size, 10);
 3846              		.loc 2 66 41 view .LVU725
 3847 0738 94F84810 		ldrb	r1, [r4, #72]	@ zero_extendqisi2
 3848              	.LBE1636:
 3849              	.LBE1639:
 3850              	.LBE1649:
 3851              	.LBE1655:
 3852              	.LBE1678:
 3853              	.LBE1714:
ARM GAS  C:\Users\skipi\AppData\Local\Temp\ccnEQq3j.s 			page 88


 3854              	.LBE1721:
 3855              	.LBB1722:
 3856              	.LBB1621:
 3857              	.LBB1615:
 3858              	.LBB1612:
 3859              		.loc 2 336 55 view .LVU726
 3860 073c 5045     		cmp	r0, r10
 3861 073e 18BF     		it	ne
 3862 0740 43F00103 		orrne	r3, r3, #1
 3863              	.LBE1612:
 3864              	.LBE1615:
 3865              	.LBE1621:
 3866              	.LBE1722:
 3867              	.LBB1723:
 3868              	.LBB1715:
 3869              	.LBB1679:
 3870              	.LBB1656:
 3871              	.LBB1650:
 3872              	.LBB1640:
 3873              	.LBB1637:
  66:../libs/PoliTeKDSP/libs/libDaisy/src/dev/mpr121.h ****                    config_.dev_addr, address, 1, data, size, 10);
 3874              		.loc 2 66 41 view .LVU727
 3875 0744 2846     		mov	r0, r5
 3876              	.LVL176:
  66:../libs/PoliTeKDSP/libs/libDaisy/src/dev/mpr121.h ****                    config_.dev_addr, address, 1, data, size, 10);
 3877              		.loc 2 66 41 view .LVU728
 3878              	.LBE1637:
 3879              	.LBE1640:
 3880              	.LBE1650:
 3881              	.LBE1656:
 3882              	.LBE1679:
 3883              	.LBE1715:
 3884              	.LBE1723:
 3885              	.LBB1724:
 3886              	.LBB1622:
 3887              	.LBB1616:
 3888              	.LBB1613:
 3889              		.loc 2 336 55 view .LVU729
 3890 0746 84F84C30 		strb	r3, [r4, #76]
 3891              	.LVL177:
 3892              		.loc 2 336 55 view .LVU730
 3893              	.LBE1613:
 3894              	.LBE1616:
 3895              	.LBE1622:
 3896              	.LBE1724:
 3897              	.LBB1725:
 3898              	.LBI1629:
 257:../libs/PoliTeKDSP/libs/libDaisy/src/dev/mpr121.h ****     {
 3899              		.loc 2 257 10 is_stmt 1 view .LVU731
 3900              	.LBB1716:
 3901              	.LBB1680:
 3902              	.LBB1657:
 3903              	.LBI1632:
 232:../libs/PoliTeKDSP/libs/libDaisy/src/dev/mpr121.h ****     {
 3904              		.loc 2 232 13 view .LVU732
 3905              	.LBB1651:
 3906              	.LBB1641:
ARM GAS  C:\Users\skipi\AppData\Local\Temp\ccnEQq3j.s 			page 89


 3907              	.LBI1634:
  63:../libs/PoliTeKDSP/libs/libDaisy/src/dev/mpr121.h ****     {
 3908              		.loc 2 63 10 view .LVU733
 3909              	.LBB1638:
  65:../libs/PoliTeKDSP/libs/libDaisy/src/dev/mpr121.h ****                != i2c_.ReadDataAtAddress(
 3910              		.loc 2 65 9 view .LVU734
  66:../libs/PoliTeKDSP/libs/libDaisy/src/dev/mpr121.h ****                    config_.dev_addr, address, 1, data, size, 10);
 3911              		.loc 2 66 41 is_stmt 0 view .LVU735
 3912 074a 3B46     		mov	r3, r7
 3913 074c FFF7FEFF 		bl	_ZN5daisy9I2CHandle17ReadDataAtAddressEtttPhtm
 3914              	.LVL178:
  66:../libs/PoliTeKDSP/libs/libDaisy/src/dev/mpr121.h ****                    config_.dev_addr, address, 1, data, size, 10);
 3915              		.loc 2 66 41 view .LVU736
 3916              	.LBE1638:
 3917              	.LBE1641:
 3918              	.LBB1642:
 3919              	.LBI1642:
 3920              		.loc 2 336 10 is_stmt 1 view .LVU737
 3921              	.LBE1642:
 3922              	.LBE1651:
 3923              	.LBE1657:
 3924              	.LBB1658:
 3925              	.LBB1659:
  74:../libs/PoliTeKDSP/libs/libDaisy/src/dev/mpr121.h ****                    config_.dev_addr, address, 1, data, size, 10);
 3926              		.loc 2 74 42 is_stmt 0 view .LVU738
 3927 0750 0096     		str	r6, [sp]
 3928 0752 5E22     		movs	r2, #94
 3929 0754 CDE90178 		strd	r7, r8, [sp, #4]
 3930              	.LBE1659:
 3931              	.LBE1658:
 3932              	.LBB1664:
 3933              	.LBB1652:
 3934              	.LBB1646:
 3935              	.LBB1643:
 3936              		.loc 2 336 55 view .LVU739
 3937 0758 94F84C30 		ldrb	r3, [r4, #76]	@ zero_extendqisi2
 3938              	.LBE1643:
 3939              	.LBE1646:
 3940              	.LBE1652:
 3941              	.LBE1664:
 3942              	.LBB1665:
 3943              	.LBB1660:
  74:../libs/PoliTeKDSP/libs/libDaisy/src/dev/mpr121.h ****                    config_.dev_addr, address, 1, data, size, 10);
 3944              		.loc 2 74 42 view .LVU740
 3945 075c 94F84810 		ldrb	r1, [r4, #72]	@ zero_extendqisi2
 3946              	.LBE1660:
 3947              	.LBE1665:
 3948              	.LBB1666:
 3949              	.LBB1653:
 3950              	.LBB1647:
 3951              	.LBB1644:
 3952              		.loc 2 336 55 view .LVU741
 3953 0760 5045     		cmp	r0, r10
 3954 0762 18BF     		it	ne
 3955 0764 43F00103 		orrne	r3, r3, #1
 3956              	.LBE1644:
 3957              	.LBE1647:
ARM GAS  C:\Users\skipi\AppData\Local\Temp\ccnEQq3j.s 			page 90


 3958              	.LBE1653:
 3959              	.LBE1666:
 3960              	.LBB1667:
 3961              	.LBB1661:
  74:../libs/PoliTeKDSP/libs/libDaisy/src/dev/mpr121.h ****                    config_.dev_addr, address, 1, data, size, 10);
 3962              		.loc 2 74 42 view .LVU742
 3963 0768 2846     		mov	r0, r5
 3964              	.LVL179:
  74:../libs/PoliTeKDSP/libs/libDaisy/src/dev/mpr121.h ****                    config_.dev_addr, address, 1, data, size, 10);
 3965              		.loc 2 74 42 view .LVU743
 3966              	.LBE1661:
 3967              	.LBE1667:
 3968              	.LBB1668:
 3969              	.LBB1654:
 3970              	.LBB1648:
 3971              	.LBB1645:
 3972              		.loc 2 336 55 view .LVU744
 3973 076a 84F84C30 		strb	r3, [r4, #76]
 3974              	.LVL180:
 3975              		.loc 2 336 55 view .LVU745
 3976              	.LBE1645:
 3977              	.LBE1648:
 237:../libs/PoliTeKDSP/libs/libDaisy/src/dev/mpr121.h ****     }
 3978              		.loc 2 237 16 view .LVU746
 3979 076e 9DF83C30 		ldrb	r3, [sp, #60]	@ zero_extendqisi2
 3980              	.LVL181:
 237:../libs/PoliTeKDSP/libs/libDaisy/src/dev/mpr121.h ****     }
 3981              		.loc 2 237 16 view .LVU747
 3982              	.LBE1654:
 3983              	.LBE1668:
 271:../libs/PoliTeKDSP/libs/libDaisy/src/dev/mpr121.h ****             // clear this register to set stop mode
 3984              		.loc 2 271 21 view .LVU748
 3985 0772 8DF83CA0 		strb	r10, [sp, #60]
 3986              	.LVL182:
 3987              	.LBB1669:
 3988              	.LBI1658:
  71:../libs/PoliTeKDSP/libs/libDaisy/src/dev/mpr121.h ****     {
 3989              		.loc 2 71 10 is_stmt 1 view .LVU749
 3990              	.LBB1662:
  73:../libs/PoliTeKDSP/libs/libDaisy/src/dev/mpr121.h ****                != i2c_.WriteDataAtAddress(
 3991              		.loc 2 73 9 view .LVU750
 3992              	.LBE1662:
 3993              	.LBE1669:
 270:../libs/PoliTeKDSP/libs/libDaisy/src/dev/mpr121.h ****             uint8_t zero = 0x00;
 3994              		.loc 2 270 26 is_stmt 0 view .LVU751
 3995 0776 8DF82830 		strb	r3, [sp, #40]
 3996              	.LBB1670:
 3997              	.LBB1663:
  74:../libs/PoliTeKDSP/libs/libDaisy/src/dev/mpr121.h ****                    config_.dev_addr, address, 1, data, size, 10);
 3998              		.loc 2 74 42 view .LVU752
 3999 077a 3B46     		mov	r3, r7
 4000 077c FFF7FEFF 		bl	_ZN5daisy9I2CHandle18WriteDataAtAddressEtttPhtm
 4001              	.LVL183:
  74:../libs/PoliTeKDSP/libs/libDaisy/src/dev/mpr121.h ****                    config_.dev_addr, address, 1, data, size, 10);
 4002              		.loc 2 74 42 view .LVU753
 4003              	.LBE1663:
 4004              	.LBE1670:
ARM GAS  C:\Users\skipi\AppData\Local\Temp\ccnEQq3j.s 			page 91


 4005              	.LBB1671:
 4006              	.LBI1671:
 4007              		.loc 2 336 10 is_stmt 1 view .LVU754
 4008              	.LBE1671:
 4009              	.LBE1680:
 4010              	.LBB1681:
 4011              	.LBB1682:
  74:../libs/PoliTeKDSP/libs/libDaisy/src/dev/mpr121.h ****                    config_.dev_addr, address, 1, data, size, 10);
 4012              		.loc 2 74 42 is_stmt 0 view .LVU755
 4013 0780 0DF12703 		add	r3, sp, #39
 4014 0784 3122     		movs	r2, #49
 4015 0786 0093     		str	r3, [sp]
 4016 0788 CDE90178 		strd	r7, r8, [sp, #4]
 4017              	.LBE1682:
 4018              	.LBE1681:
 4019              	.LBB1686:
 4020              	.LBB1675:
 4021              	.LBB1672:
 4022              		.loc 2 336 55 view .LVU756
 4023 078c 94F84C30 		ldrb	r3, [r4, #76]	@ zero_extendqisi2
 4024              	.LBE1672:
 4025              	.LBE1675:
 4026              	.LBE1686:
 4027              	.LBB1687:
 4028              	.LBB1683:
  74:../libs/PoliTeKDSP/libs/libDaisy/src/dev/mpr121.h ****                    config_.dev_addr, address, 1, data, size, 10);
 4029              		.loc 2 74 42 view .LVU757
 4030 0790 94F84810 		ldrb	r1, [r4, #72]	@ zero_extendqisi2
 4031              	.LBE1683:
 4032              	.LBE1687:
 4033              	.LBB1688:
 4034              	.LBB1676:
 4035              	.LBB1673:
 4036              		.loc 2 336 55 view .LVU758
 4037 0794 5045     		cmp	r0, r10
 4038 0796 18BF     		it	ne
 4039 0798 43F00103 		orrne	r3, r3, #1
 4040              	.LBE1673:
 4041              	.LBE1676:
 4042              	.LBE1688:
 4043              	.LBB1689:
 4044              	.LBB1684:
  74:../libs/PoliTeKDSP/libs/libDaisy/src/dev/mpr121.h ****                    config_.dev_addr, address, 1, data, size, 10);
 4045              		.loc 2 74 42 view .LVU759
 4046 079c 2846     		mov	r0, r5
 4047              	.LVL184:
  74:../libs/PoliTeKDSP/libs/libDaisy/src/dev/mpr121.h ****                    config_.dev_addr, address, 1, data, size, 10);
 4048              		.loc 2 74 42 view .LVU760
 4049              	.LBE1684:
 4050              	.LBE1689:
 4051              	.LBB1690:
 4052              	.LBB1677:
 4053              	.LBB1674:
 4054              		.loc 2 336 55 view .LVU761
 4055 079e 84F84C30 		strb	r3, [r4, #76]
 4056              	.LVL185:
 4057              		.loc 2 336 55 view .LVU762
ARM GAS  C:\Users\skipi\AppData\Local\Temp\ccnEQq3j.s 			page 92


 4058              	.LBE1674:
 4059              	.LBE1677:
 4060              	.LBE1690:
 4061              	.LBB1691:
 4062              	.LBI1681:
  71:../libs/PoliTeKDSP/libs/libDaisy/src/dev/mpr121.h ****     {
 4063              		.loc 2 71 10 is_stmt 1 view .LVU763
 4064              	.LBB1685:
  73:../libs/PoliTeKDSP/libs/libDaisy/src/dev/mpr121.h ****                != i2c_.WriteDataAtAddress(
 4065              		.loc 2 73 9 view .LVU764
  74:../libs/PoliTeKDSP/libs/libDaisy/src/dev/mpr121.h ****                    config_.dev_addr, address, 1, data, size, 10);
 4066              		.loc 2 74 42 is_stmt 0 view .LVU765
 4067 07a2 3B46     		mov	r3, r7
 4068 07a4 FFF7FEFF 		bl	_ZN5daisy9I2CHandle18WriteDataAtAddressEtttPhtm
 4069              	.LVL186:
  74:../libs/PoliTeKDSP/libs/libDaisy/src/dev/mpr121.h ****                    config_.dev_addr, address, 1, data, size, 10);
 4070              		.loc 2 74 42 view .LVU766
 4071              	.LBE1685:
 4072              	.LBE1691:
 4073              	.LBB1692:
 4074              	.LBI1692:
 4075              		.loc 2 336 10 is_stmt 1 view .LVU767
 4076              	.LBE1692:
 4077              	.LBB1696:
 4078              	.LBB1697:
  74:../libs/PoliTeKDSP/libs/libDaisy/src/dev/mpr121.h ****                    config_.dev_addr, address, 1, data, size, 10);
 4079              		.loc 2 74 42 is_stmt 0 view .LVU768
 4080 07a8 CDF800B0 		str	fp, [sp]
 4081 07ac 5E22     		movs	r2, #94
 4082 07ae CDE90178 		strd	r7, r8, [sp, #4]
 4083              	.LBE1697:
 4084              	.LBE1696:
 4085              	.LBB1701:
 4086              	.LBB1693:
 4087              		.loc 2 336 55 view .LVU769
 4088 07b2 94F84C30 		ldrb	r3, [r4, #76]	@ zero_extendqisi2
 4089              	.LBE1693:
 4090              	.LBE1701:
 4091              	.LBB1702:
 4092              	.LBB1698:
  74:../libs/PoliTeKDSP/libs/libDaisy/src/dev/mpr121.h ****                    config_.dev_addr, address, 1, data, size, 10);
 4093              		.loc 2 74 42 view .LVU770
 4094 07b6 94F84810 		ldrb	r1, [r4, #72]	@ zero_extendqisi2
 4095              	.LBE1698:
 4096              	.LBE1702:
 4097              	.LBB1703:
 4098              	.LBB1694:
 4099              		.loc 2 336 55 view .LVU771
 4100 07ba 5045     		cmp	r0, r10
 4101 07bc 18BF     		it	ne
 4102 07be 43F00103 		orrne	r3, r3, #1
 4103              	.LBE1694:
 4104              	.LBE1703:
 4105              	.LBB1704:
 4106              	.LBB1699:
  74:../libs/PoliTeKDSP/libs/libDaisy/src/dev/mpr121.h ****                    config_.dev_addr, address, 1, data, size, 10);
 4107              		.loc 2 74 42 view .LVU772
ARM GAS  C:\Users\skipi\AppData\Local\Temp\ccnEQq3j.s 			page 93


 4108 07c2 2846     		mov	r0, r5
 4109              	.LVL187:
  74:../libs/PoliTeKDSP/libs/libDaisy/src/dev/mpr121.h ****                    config_.dev_addr, address, 1, data, size, 10);
 4110              		.loc 2 74 42 view .LVU773
 4111              	.LBE1699:
 4112              	.LBE1704:
 4113              	.LBB1705:
 4114              	.LBB1695:
 4115              		.loc 2 336 55 view .LVU774
 4116 07c4 84F84C30 		strb	r3, [r4, #76]
 4117              	.LVL188:
 4118              		.loc 2 336 55 view .LVU775
 4119              	.LBE1695:
 4120              	.LBE1705:
 4121              	.LBB1706:
 4122              	.LBI1696:
  71:../libs/PoliTeKDSP/libs/libDaisy/src/dev/mpr121.h ****     {
 4123              		.loc 2 71 10 is_stmt 1 view .LVU776
 4124              	.LBB1700:
  73:../libs/PoliTeKDSP/libs/libDaisy/src/dev/mpr121.h ****                != i2c_.WriteDataAtAddress(
 4125              		.loc 2 73 9 view .LVU777
  74:../libs/PoliTeKDSP/libs/libDaisy/src/dev/mpr121.h ****                    config_.dev_addr, address, 1, data, size, 10);
 4126              		.loc 2 74 42 is_stmt 0 view .LVU778
 4127 07c8 3B46     		mov	r3, r7
 4128 07ca FFF7FEFF 		bl	_ZN5daisy9I2CHandle18WriteDataAtAddressEtttPhtm
 4129              	.LVL189:
  74:../libs/PoliTeKDSP/libs/libDaisy/src/dev/mpr121.h ****                    config_.dev_addr, address, 1, data, size, 10);
 4130              		.loc 2 74 42 view .LVU779
 4131              	.LBE1700:
 4132              	.LBE1706:
 4133              	.LBB1707:
 4134              	.LBI1707:
 4135              		.loc 2 336 10 is_stmt 1 view .LVU780
 4136              	.LBE1707:
 4137              	.LBE1716:
 4138              	.LBE1725:
 4139              	.LBB1726:
 4140              	.LBB1727:
 4141              	.LBB1728:
 4142              	.LBB1729:
 4143              	.LBB1730:
 4144              	.LBB1731:
 4145              	.LBB1732:
  66:../libs/PoliTeKDSP/libs/libDaisy/src/dev/mpr121.h ****                    config_.dev_addr, address, 1, data, size, 10);
 4146              		.loc 2 66 41 is_stmt 0 view .LVU781
 4147 07ce 0096     		str	r6, [sp]
 4148 07d0 5E22     		movs	r2, #94
 4149 07d2 8DF827A0 		strb	r10, [sp, #39]
 4150 07d6 CDE90178 		strd	r7, r8, [sp, #4]
 4151              	.LBE1732:
 4152              	.LBE1731:
 4153              	.LBE1730:
 4154              	.LBE1729:
 4155              	.LBE1728:
 4156              	.LBE1727:
 4157              	.LBE1726:
 4158              	.LBB1817:
ARM GAS  C:\Users\skipi\AppData\Local\Temp\ccnEQq3j.s 			page 94


 4159              	.LBB1717:
 4160              	.LBB1711:
 4161              	.LBB1708:
 4162              		.loc 2 336 55 view .LVU782
 4163 07da 94F84C30 		ldrb	r3, [r4, #76]	@ zero_extendqisi2
 4164              	.LBE1708:
 4165              	.LBE1711:
 4166              	.LBE1717:
 4167              	.LBE1817:
 4168              	.LBB1818:
 4169              	.LBB1811:
 4170              	.LBB1775:
 4171              	.LBB1752:
 4172              	.LBB1746:
 4173              	.LBB1736:
 4174              	.LBB1733:
  66:../libs/PoliTeKDSP/libs/libDaisy/src/dev/mpr121.h ****                    config_.dev_addr, address, 1, data, size, 10);
 4175              		.loc 2 66 41 view .LVU783
 4176 07de 94F84810 		ldrb	r1, [r4, #72]	@ zero_extendqisi2
 4177              	.LBE1733:
 4178              	.LBE1736:
 4179              	.LBE1746:
 4180              	.LBE1752:
 4181              	.LBE1775:
 4182              	.LBE1811:
 4183              	.LBE1818:
 4184              	.LBB1819:
 4185              	.LBB1718:
 4186              	.LBB1712:
 4187              	.LBB1709:
 4188              		.loc 2 336 55 view .LVU784
 4189 07e2 5045     		cmp	r0, r10
 4190 07e4 18BF     		it	ne
 4191 07e6 43F00103 		orrne	r3, r3, #1
 4192              	.LBE1709:
 4193              	.LBE1712:
 4194              	.LBE1718:
 4195              	.LBE1819:
 4196              	.LBB1820:
 4197              	.LBB1812:
 4198              	.LBB1776:
 4199              	.LBB1753:
 4200              	.LBB1747:
 4201              	.LBB1737:
 4202              	.LBB1734:
  66:../libs/PoliTeKDSP/libs/libDaisy/src/dev/mpr121.h ****                    config_.dev_addr, address, 1, data, size, 10);
 4203              		.loc 2 66 41 view .LVU785
 4204 07ea 2846     		mov	r0, r5
 4205              	.LVL190:
  66:../libs/PoliTeKDSP/libs/libDaisy/src/dev/mpr121.h ****                    config_.dev_addr, address, 1, data, size, 10);
 4206              		.loc 2 66 41 view .LVU786
 4207              	.LBE1734:
 4208              	.LBE1737:
 4209              	.LBE1747:
 4210              	.LBE1753:
 4211              	.LBE1776:
 4212              	.LBE1812:
ARM GAS  C:\Users\skipi\AppData\Local\Temp\ccnEQq3j.s 			page 95


 4213              	.LBE1820:
 4214              	.LBB1821:
 4215              	.LBB1719:
 4216              	.LBB1713:
 4217              	.LBB1710:
 4218              		.loc 2 336 55 view .LVU787
 4219 07ec 84F84C30 		strb	r3, [r4, #76]
 4220              	.LVL191:
 4221              		.loc 2 336 55 view .LVU788
 4222              	.LBE1710:
 4223              	.LBE1713:
 4224              	.LBE1719:
 4225              	.LBE1821:
 4226              	.LBB1822:
 4227              	.LBI1726:
 257:../libs/PoliTeKDSP/libs/libDaisy/src/dev/mpr121.h ****     {
 4228              		.loc 2 257 10 is_stmt 1 view .LVU789
 4229              	.LBB1813:
 4230              	.LBB1777:
 4231              	.LBB1754:
 4232              	.LBI1729:
 232:../libs/PoliTeKDSP/libs/libDaisy/src/dev/mpr121.h ****     {
 4233              		.loc 2 232 13 view .LVU790
 4234              	.LBB1748:
 4235              	.LBB1738:
 4236              	.LBI1731:
  63:../libs/PoliTeKDSP/libs/libDaisy/src/dev/mpr121.h ****     {
 4237              		.loc 2 63 10 view .LVU791
 4238              	.LBB1735:
  65:../libs/PoliTeKDSP/libs/libDaisy/src/dev/mpr121.h ****                != i2c_.ReadDataAtAddress(
 4239              		.loc 2 65 9 view .LVU792
  66:../libs/PoliTeKDSP/libs/libDaisy/src/dev/mpr121.h ****                    config_.dev_addr, address, 1, data, size, 10);
 4240              		.loc 2 66 41 is_stmt 0 view .LVU793
 4241 07f0 3B46     		mov	r3, r7
 4242 07f2 FFF7FEFF 		bl	_ZN5daisy9I2CHandle17ReadDataAtAddressEtttPhtm
 4243              	.LVL192:
  66:../libs/PoliTeKDSP/libs/libDaisy/src/dev/mpr121.h ****                    config_.dev_addr, address, 1, data, size, 10);
 4244              		.loc 2 66 41 view .LVU794
 4245              	.LBE1735:
 4246              	.LBE1738:
 4247              	.LBB1739:
 4248              	.LBI1739:
 4249              		.loc 2 336 10 is_stmt 1 view .LVU795
 4250              	.LBE1739:
 4251              	.LBE1748:
 4252              	.LBE1754:
 4253              	.LBB1755:
 4254              	.LBB1756:
  74:../libs/PoliTeKDSP/libs/libDaisy/src/dev/mpr121.h ****                    config_.dev_addr, address, 1, data, size, 10);
 4255              		.loc 2 74 42 is_stmt 0 view .LVU796
 4256 07f6 0096     		str	r6, [sp]
 4257 07f8 5E22     		movs	r2, #94
 4258 07fa CDE90178 		strd	r7, r8, [sp, #4]
 4259              	.LBE1756:
 4260              	.LBE1755:
 4261              	.LBB1761:
 4262              	.LBB1749:
ARM GAS  C:\Users\skipi\AppData\Local\Temp\ccnEQq3j.s 			page 96


 4263              	.LBB1743:
 4264              	.LBB1740:
 4265              		.loc 2 336 55 view .LVU797
 4266 07fe 94F84C30 		ldrb	r3, [r4, #76]	@ zero_extendqisi2
 4267              	.LBE1740:
 4268              	.LBE1743:
 4269              	.LBE1749:
 4270              	.LBE1761:
 4271              	.LBB1762:
 4272              	.LBB1757:
  74:../libs/PoliTeKDSP/libs/libDaisy/src/dev/mpr121.h ****                    config_.dev_addr, address, 1, data, size, 10);
 4273              		.loc 2 74 42 view .LVU798
 4274 0802 94F84810 		ldrb	r1, [r4, #72]	@ zero_extendqisi2
 4275              	.LBE1757:
 4276              	.LBE1762:
 4277              	.LBB1763:
 4278              	.LBB1750:
 4279              	.LBB1744:
 4280              	.LBB1741:
 4281              		.loc 2 336 55 view .LVU799
 4282 0806 5045     		cmp	r0, r10
 4283 0808 18BF     		it	ne
 4284 080a 43F00103 		orrne	r3, r3, #1
 4285              	.LBE1741:
 4286              	.LBE1744:
 4287              	.LBE1750:
 4288              	.LBE1763:
 4289              	.LBB1764:
 4290              	.LBB1758:
  74:../libs/PoliTeKDSP/libs/libDaisy/src/dev/mpr121.h ****                    config_.dev_addr, address, 1, data, size, 10);
 4291              		.loc 2 74 42 view .LVU800
 4292 080e 2846     		mov	r0, r5
 4293              	.LVL193:
  74:../libs/PoliTeKDSP/libs/libDaisy/src/dev/mpr121.h ****                    config_.dev_addr, address, 1, data, size, 10);
 4294              		.loc 2 74 42 view .LVU801
 4295              	.LBE1758:
 4296              	.LBE1764:
 4297              	.LBB1765:
 4298              	.LBB1751:
 4299              	.LBB1745:
 4300              	.LBB1742:
 4301              		.loc 2 336 55 view .LVU802
 4302 0810 84F84C30 		strb	r3, [r4, #76]
 4303              	.LVL194:
 4304              		.loc 2 336 55 view .LVU803
 4305              	.LBE1742:
 4306              	.LBE1745:
 237:../libs/PoliTeKDSP/libs/libDaisy/src/dev/mpr121.h ****     }
 4307              		.loc 2 237 16 view .LVU804
 4308 0814 9DF83C30 		ldrb	r3, [sp, #60]	@ zero_extendqisi2
 4309              	.LVL195:
 237:../libs/PoliTeKDSP/libs/libDaisy/src/dev/mpr121.h ****     }
 4310              		.loc 2 237 16 view .LVU805
 4311              	.LBE1751:
 4312              	.LBE1765:
 271:../libs/PoliTeKDSP/libs/libDaisy/src/dev/mpr121.h ****             // clear this register to set stop mode
 4313              		.loc 2 271 21 view .LVU806
ARM GAS  C:\Users\skipi\AppData\Local\Temp\ccnEQq3j.s 			page 97


 4314 0818 8DF83CA0 		strb	r10, [sp, #60]
 4315              	.LVL196:
 4316              	.LBB1766:
 4317              	.LBI1755:
  71:../libs/PoliTeKDSP/libs/libDaisy/src/dev/mpr121.h ****     {
 4318              		.loc 2 71 10 is_stmt 1 view .LVU807
 4319              	.LBB1759:
  73:../libs/PoliTeKDSP/libs/libDaisy/src/dev/mpr121.h ****                != i2c_.WriteDataAtAddress(
 4320              		.loc 2 73 9 view .LVU808
 4321              	.LBE1759:
 4322              	.LBE1766:
 270:../libs/PoliTeKDSP/libs/libDaisy/src/dev/mpr121.h ****             uint8_t zero = 0x00;
 4323              		.loc 2 270 26 is_stmt 0 view .LVU809
 4324 081c 8DF82830 		strb	r3, [sp, #40]
 4325              	.LBB1767:
 4326              	.LBB1760:
  74:../libs/PoliTeKDSP/libs/libDaisy/src/dev/mpr121.h ****                    config_.dev_addr, address, 1, data, size, 10);
 4327              		.loc 2 74 42 view .LVU810
 4328 0820 3B46     		mov	r3, r7
 4329 0822 FFF7FEFF 		bl	_ZN5daisy9I2CHandle18WriteDataAtAddressEtttPhtm
 4330              	.LVL197:
  74:../libs/PoliTeKDSP/libs/libDaisy/src/dev/mpr121.h ****                    config_.dev_addr, address, 1, data, size, 10);
 4331              		.loc 2 74 42 view .LVU811
 4332              	.LBE1760:
 4333              	.LBE1767:
 4334              	.LBB1768:
 4335              	.LBI1768:
 4336              		.loc 2 336 10 is_stmt 1 view .LVU812
 4337              	.LBE1768:
 4338              	.LBE1777:
 4339              	.LBB1778:
 4340              	.LBB1779:
  74:../libs/PoliTeKDSP/libs/libDaisy/src/dev/mpr121.h ****                    config_.dev_addr, address, 1, data, size, 10);
 4341              		.loc 2 74 42 is_stmt 0 view .LVU813
 4342 0826 0DF12703 		add	r3, sp, #39
 4343 082a 3222     		movs	r2, #50
 4344 082c 0093     		str	r3, [sp]
 4345 082e CDE90178 		strd	r7, r8, [sp, #4]
 4346              	.LBE1779:
 4347              	.LBE1778:
 4348              	.LBB1783:
 4349              	.LBB1772:
 4350              	.LBB1769:
 4351              		.loc 2 336 55 view .LVU814
 4352 0832 94F84C30 		ldrb	r3, [r4, #76]	@ zero_extendqisi2
 4353              	.LBE1769:
 4354              	.LBE1772:
 4355              	.LBE1783:
 4356              	.LBB1784:
 4357              	.LBB1780:
  74:../libs/PoliTeKDSP/libs/libDaisy/src/dev/mpr121.h ****                    config_.dev_addr, address, 1, data, size, 10);
 4358              		.loc 2 74 42 view .LVU815
 4359 0836 94F84810 		ldrb	r1, [r4, #72]	@ zero_extendqisi2
 4360              	.LBE1780:
 4361              	.LBE1784:
 4362              	.LBB1785:
 4363              	.LBB1773:
ARM GAS  C:\Users\skipi\AppData\Local\Temp\ccnEQq3j.s 			page 98


 4364              	.LBB1770:
 4365              		.loc 2 336 55 view .LVU816
 4366 083a 5045     		cmp	r0, r10
 4367 083c 18BF     		it	ne
 4368 083e 43F00103 		orrne	r3, r3, #1
 4369              	.LBE1770:
 4370              	.LBE1773:
 4371              	.LBE1785:
 4372              	.LBB1786:
 4373              	.LBB1781:
  74:../libs/PoliTeKDSP/libs/libDaisy/src/dev/mpr121.h ****                    config_.dev_addr, address, 1, data, size, 10);
 4374              		.loc 2 74 42 view .LVU817
 4375 0842 2846     		mov	r0, r5
 4376              	.LVL198:
  74:../libs/PoliTeKDSP/libs/libDaisy/src/dev/mpr121.h ****                    config_.dev_addr, address, 1, data, size, 10);
 4377              		.loc 2 74 42 view .LVU818
 4378              	.LBE1781:
 4379              	.LBE1786:
 4380              	.LBB1787:
 4381              	.LBB1774:
 4382              	.LBB1771:
 4383              		.loc 2 336 55 view .LVU819
 4384 0844 84F84C30 		strb	r3, [r4, #76]
 4385              	.LVL199:
 4386              		.loc 2 336 55 view .LVU820
 4387              	.LBE1771:
 4388              	.LBE1774:
 4389              	.LBE1787:
 4390              	.LBB1788:
 4391              	.LBI1778:
  71:../libs/PoliTeKDSP/libs/libDaisy/src/dev/mpr121.h ****     {
 4392              		.loc 2 71 10 is_stmt 1 view .LVU821
 4393              	.LBB1782:
  73:../libs/PoliTeKDSP/libs/libDaisy/src/dev/mpr121.h ****                != i2c_.WriteDataAtAddress(
 4394              		.loc 2 73 9 view .LVU822
  74:../libs/PoliTeKDSP/libs/libDaisy/src/dev/mpr121.h ****                    config_.dev_addr, address, 1, data, size, 10);
 4395              		.loc 2 74 42 is_stmt 0 view .LVU823
 4396 0848 3B46     		mov	r3, r7
 4397 084a FFF7FEFF 		bl	_ZN5daisy9I2CHandle18WriteDataAtAddressEtttPhtm
 4398              	.LVL200:
  74:../libs/PoliTeKDSP/libs/libDaisy/src/dev/mpr121.h ****                    config_.dev_addr, address, 1, data, size, 10);
 4399              		.loc 2 74 42 view .LVU824
 4400              	.LBE1782:
 4401              	.LBE1788:
 4402              	.LBB1789:
 4403              	.LBI1789:
 4404              		.loc 2 336 10 is_stmt 1 view .LVU825
 4405              	.LBE1789:
 4406              	.LBB1793:
 4407              	.LBB1794:
  74:../libs/PoliTeKDSP/libs/libDaisy/src/dev/mpr121.h ****                    config_.dev_addr, address, 1, data, size, 10);
 4408              		.loc 2 74 42 is_stmt 0 view .LVU826
 4409 084e CDF800B0 		str	fp, [sp]
 4410 0852 5E22     		movs	r2, #94
 4411 0854 CDE90178 		strd	r7, r8, [sp, #4]
 4412              	.LBE1794:
 4413              	.LBE1793:
ARM GAS  C:\Users\skipi\AppData\Local\Temp\ccnEQq3j.s 			page 99


 4414              	.LBB1798:
 4415              	.LBB1790:
 4416              		.loc 2 336 55 view .LVU827
 4417 0858 94F84C30 		ldrb	r3, [r4, #76]	@ zero_extendqisi2
 4418              	.LBE1790:
 4419              	.LBE1798:
 4420              	.LBB1799:
 4421              	.LBB1795:
  74:../libs/PoliTeKDSP/libs/libDaisy/src/dev/mpr121.h ****                    config_.dev_addr, address, 1, data, size, 10);
 4422              		.loc 2 74 42 view .LVU828
 4423 085c 94F84810 		ldrb	r1, [r4, #72]	@ zero_extendqisi2
 4424              	.LBE1795:
 4425              	.LBE1799:
 4426              	.LBB1800:
 4427              	.LBB1791:
 4428              		.loc 2 336 55 view .LVU829
 4429 0860 5045     		cmp	r0, r10
 4430 0862 18BF     		it	ne
 4431 0864 43F00103 		orrne	r3, r3, #1
 4432              	.LBE1791:
 4433              	.LBE1800:
 4434              	.LBB1801:
 4435              	.LBB1796:
  74:../libs/PoliTeKDSP/libs/libDaisy/src/dev/mpr121.h ****                    config_.dev_addr, address, 1, data, size, 10);
 4436              		.loc 2 74 42 view .LVU830
 4437 0868 2846     		mov	r0, r5
 4438              	.LVL201:
  74:../libs/PoliTeKDSP/libs/libDaisy/src/dev/mpr121.h ****                    config_.dev_addr, address, 1, data, size, 10);
 4439              		.loc 2 74 42 view .LVU831
 4440              	.LBE1796:
 4441              	.LBE1801:
 4442              	.LBB1802:
 4443              	.LBB1792:
 4444              		.loc 2 336 55 view .LVU832
 4445 086a 84F84C30 		strb	r3, [r4, #76]
 4446              	.LVL202:
 4447              		.loc 2 336 55 view .LVU833
 4448              	.LBE1792:
 4449              	.LBE1802:
 4450              	.LBB1803:
 4451              	.LBI1793:
  71:../libs/PoliTeKDSP/libs/libDaisy/src/dev/mpr121.h ****     {
 4452              		.loc 2 71 10 is_stmt 1 view .LVU834
 4453              	.LBB1797:
  73:../libs/PoliTeKDSP/libs/libDaisy/src/dev/mpr121.h ****                != i2c_.WriteDataAtAddress(
 4454              		.loc 2 73 9 view .LVU835
  74:../libs/PoliTeKDSP/libs/libDaisy/src/dev/mpr121.h ****                    config_.dev_addr, address, 1, data, size, 10);
 4455              		.loc 2 74 42 is_stmt 0 view .LVU836
 4456 086e 3B46     		mov	r3, r7
 4457 0870 FFF7FEFF 		bl	_ZN5daisy9I2CHandle18WriteDataAtAddressEtttPhtm
 4458              	.LVL203:
  74:../libs/PoliTeKDSP/libs/libDaisy/src/dev/mpr121.h ****                    config_.dev_addr, address, 1, data, size, 10);
 4459              		.loc 2 74 42 view .LVU837
 4460              	.LBE1797:
 4461              	.LBE1803:
 4462              	.LBB1804:
 4463              	.LBI1804:
ARM GAS  C:\Users\skipi\AppData\Local\Temp\ccnEQq3j.s 			page 100


 4464              		.loc 2 336 10 is_stmt 1 view .LVU838
 4465              	.LBE1804:
 4466              	.LBE1813:
 4467              	.LBE1822:
 4468              	.LBB1823:
 4469              	.LBB1824:
 4470              	.LBB1825:
 4471              	.LBB1826:
 4472              	.LBB1827:
 4473              	.LBB1828:
 4474              	.LBB1829:
  66:../libs/PoliTeKDSP/libs/libDaisy/src/dev/mpr121.h ****                    config_.dev_addr, address, 1, data, size, 10);
 4475              		.loc 2 66 41 is_stmt 0 view .LVU839
 4476 0874 0096     		str	r6, [sp]
 4477 0876 5E22     		movs	r2, #94
 4478 0878 8DF827A0 		strb	r10, [sp, #39]
 4479 087c CDE90178 		strd	r7, r8, [sp, #4]
 4480              	.LBE1829:
 4481              	.LBE1828:
 4482              	.LBE1827:
 4483              	.LBE1826:
 4484              	.LBE1825:
 4485              	.LBE1824:
 4486              	.LBE1823:
 4487              	.LBB1914:
 4488              	.LBB1814:
 4489              	.LBB1808:
 4490              	.LBB1805:
 4491              		.loc 2 336 55 view .LVU840
 4492 0880 94F84C30 		ldrb	r3, [r4, #76]	@ zero_extendqisi2
 4493              	.LBE1805:
 4494              	.LBE1808:
 4495              	.LBE1814:
 4496              	.LBE1914:
 4497              	.LBB1915:
 4498              	.LBB1908:
 4499              	.LBB1872:
 4500              	.LBB1849:
 4501              	.LBB1843:
 4502              	.LBB1833:
 4503              	.LBB1830:
  66:../libs/PoliTeKDSP/libs/libDaisy/src/dev/mpr121.h ****                    config_.dev_addr, address, 1, data, size, 10);
 4504              		.loc 2 66 41 view .LVU841
 4505 0884 94F84810 		ldrb	r1, [r4, #72]	@ zero_extendqisi2
 4506              	.LBE1830:
 4507              	.LBE1833:
 4508              	.LBE1843:
 4509              	.LBE1849:
 4510              	.LBE1872:
 4511              	.LBE1908:
 4512              	.LBE1915:
 4513              	.LBB1916:
 4514              	.LBB1815:
 4515              	.LBB1809:
 4516              	.LBB1806:
 4517              		.loc 2 336 55 view .LVU842
 4518 0888 5045     		cmp	r0, r10
ARM GAS  C:\Users\skipi\AppData\Local\Temp\ccnEQq3j.s 			page 101


 4519 088a 18BF     		it	ne
 4520 088c 43F00103 		orrne	r3, r3, #1
 4521              	.LBE1806:
 4522              	.LBE1809:
 4523              	.LBE1815:
 4524              	.LBE1916:
 4525              	.LBB1917:
 4526              	.LBB1909:
 4527              	.LBB1873:
 4528              	.LBB1850:
 4529              	.LBB1844:
 4530              	.LBB1834:
 4531              	.LBB1831:
  66:../libs/PoliTeKDSP/libs/libDaisy/src/dev/mpr121.h ****                    config_.dev_addr, address, 1, data, size, 10);
 4532              		.loc 2 66 41 view .LVU843
 4533 0890 2846     		mov	r0, r5
 4534              	.LVL204:
  66:../libs/PoliTeKDSP/libs/libDaisy/src/dev/mpr121.h ****                    config_.dev_addr, address, 1, data, size, 10);
 4535              		.loc 2 66 41 view .LVU844
 4536              	.LBE1831:
 4537              	.LBE1834:
 4538              	.LBE1844:
 4539              	.LBE1850:
 4540              	.LBE1873:
 4541              	.LBE1909:
 4542              	.LBE1917:
 4543              	.LBB1918:
 4544              	.LBB1816:
 4545              	.LBB1810:
 4546              	.LBB1807:
 4547              		.loc 2 336 55 view .LVU845
 4548 0892 84F84C30 		strb	r3, [r4, #76]
 4549              	.LVL205:
 4550              		.loc 2 336 55 view .LVU846
 4551              	.LBE1807:
 4552              	.LBE1810:
 4553              	.LBE1816:
 4554              	.LBE1918:
 4555              	.LBB1919:
 4556              	.LBI1823:
 257:../libs/PoliTeKDSP/libs/libDaisy/src/dev/mpr121.h ****     {
 4557              		.loc 2 257 10 is_stmt 1 view .LVU847
 4558              	.LBB1910:
 4559              	.LBB1874:
 4560              	.LBB1851:
 4561              	.LBI1826:
 232:../libs/PoliTeKDSP/libs/libDaisy/src/dev/mpr121.h ****     {
 4562              		.loc 2 232 13 view .LVU848
 4563              	.LBB1845:
 4564              	.LBB1835:
 4565              	.LBI1828:
  63:../libs/PoliTeKDSP/libs/libDaisy/src/dev/mpr121.h ****     {
 4566              		.loc 2 63 10 view .LVU849
 4567              	.LBB1832:
  65:../libs/PoliTeKDSP/libs/libDaisy/src/dev/mpr121.h ****                != i2c_.ReadDataAtAddress(
 4568              		.loc 2 65 9 view .LVU850
  66:../libs/PoliTeKDSP/libs/libDaisy/src/dev/mpr121.h ****                    config_.dev_addr, address, 1, data, size, 10);
ARM GAS  C:\Users\skipi\AppData\Local\Temp\ccnEQq3j.s 			page 102


 4569              		.loc 2 66 41 is_stmt 0 view .LVU851
 4570 0896 3B46     		mov	r3, r7
 4571 0898 FFF7FEFF 		bl	_ZN5daisy9I2CHandle17ReadDataAtAddressEtttPhtm
 4572              	.LVL206:
  66:../libs/PoliTeKDSP/libs/libDaisy/src/dev/mpr121.h ****                    config_.dev_addr, address, 1, data, size, 10);
 4573              		.loc 2 66 41 view .LVU852
 4574              	.LBE1832:
 4575              	.LBE1835:
 4576              	.LBB1836:
 4577              	.LBI1836:
 4578              		.loc 2 336 10 is_stmt 1 view .LVU853
 4579              	.LBE1836:
 4580              	.LBE1845:
 4581              	.LBE1851:
 4582              	.LBB1852:
 4583              	.LBB1853:
  74:../libs/PoliTeKDSP/libs/libDaisy/src/dev/mpr121.h ****                    config_.dev_addr, address, 1, data, size, 10);
 4584              		.loc 2 74 42 is_stmt 0 view .LVU854
 4585 089c 0096     		str	r6, [sp]
 4586 089e 5E22     		movs	r2, #94
 4587 08a0 CDE90178 		strd	r7, r8, [sp, #4]
 4588              	.LBE1853:
 4589              	.LBE1852:
 4590              	.LBB1858:
 4591              	.LBB1846:
 4592              	.LBB1840:
 4593              	.LBB1837:
 4594              		.loc 2 336 55 view .LVU855
 4595 08a4 94F84C30 		ldrb	r3, [r4, #76]	@ zero_extendqisi2
 4596              	.LBE1837:
 4597              	.LBE1840:
 4598              	.LBE1846:
 4599              	.LBE1858:
 4600              	.LBB1859:
 4601              	.LBB1854:
  74:../libs/PoliTeKDSP/libs/libDaisy/src/dev/mpr121.h ****                    config_.dev_addr, address, 1, data, size, 10);
 4602              		.loc 2 74 42 view .LVU856
 4603 08a8 94F84810 		ldrb	r1, [r4, #72]	@ zero_extendqisi2
 4604              	.LBE1854:
 4605              	.LBE1859:
 4606              	.LBB1860:
 4607              	.LBB1847:
 4608              	.LBB1841:
 4609              	.LBB1838:
 4610              		.loc 2 336 55 view .LVU857
 4611 08ac 5045     		cmp	r0, r10
 4612 08ae 18BF     		it	ne
 4613 08b0 43F00103 		orrne	r3, r3, #1
 4614              	.LBE1838:
 4615              	.LBE1841:
 4616              	.LBE1847:
 4617              	.LBE1860:
 4618              	.LBB1861:
 4619              	.LBB1855:
  74:../libs/PoliTeKDSP/libs/libDaisy/src/dev/mpr121.h ****                    config_.dev_addr, address, 1, data, size, 10);
 4620              		.loc 2 74 42 view .LVU858
 4621 08b4 2846     		mov	r0, r5
ARM GAS  C:\Users\skipi\AppData\Local\Temp\ccnEQq3j.s 			page 103


 4622              	.LVL207:
  74:../libs/PoliTeKDSP/libs/libDaisy/src/dev/mpr121.h ****                    config_.dev_addr, address, 1, data, size, 10);
 4623              		.loc 2 74 42 view .LVU859
 4624              	.LBE1855:
 4625              	.LBE1861:
 4626              	.LBB1862:
 4627              	.LBB1848:
 4628              	.LBB1842:
 4629              	.LBB1839:
 4630              		.loc 2 336 55 view .LVU860
 4631 08b6 84F84C30 		strb	r3, [r4, #76]
 4632              	.LVL208:
 4633              		.loc 2 336 55 view .LVU861
 4634              	.LBE1839:
 4635              	.LBE1842:
 237:../libs/PoliTeKDSP/libs/libDaisy/src/dev/mpr121.h ****     }
 4636              		.loc 2 237 16 view .LVU862
 4637 08ba 9DF83C30 		ldrb	r3, [sp, #60]	@ zero_extendqisi2
 4638              	.LVL209:
 237:../libs/PoliTeKDSP/libs/libDaisy/src/dev/mpr121.h ****     }
 4639              		.loc 2 237 16 view .LVU863
 4640              	.LBE1848:
 4641              	.LBE1862:
 271:../libs/PoliTeKDSP/libs/libDaisy/src/dev/mpr121.h ****             // clear this register to set stop mode
 4642              		.loc 2 271 21 view .LVU864
 4643 08be 8DF83CA0 		strb	r10, [sp, #60]
 4644              	.LVL210:
 4645              	.LBB1863:
 4646              	.LBI1852:
  71:../libs/PoliTeKDSP/libs/libDaisy/src/dev/mpr121.h ****     {
 4647              		.loc 2 71 10 is_stmt 1 view .LVU865
 4648              	.LBB1856:
  73:../libs/PoliTeKDSP/libs/libDaisy/src/dev/mpr121.h ****                != i2c_.WriteDataAtAddress(
 4649              		.loc 2 73 9 view .LVU866
 4650              	.LBE1856:
 4651              	.LBE1863:
 270:../libs/PoliTeKDSP/libs/libDaisy/src/dev/mpr121.h ****             uint8_t zero = 0x00;
 4652              		.loc 2 270 26 is_stmt 0 view .LVU867
 4653 08c2 8DF82830 		strb	r3, [sp, #40]
 4654              	.LBB1864:
 4655              	.LBB1857:
  74:../libs/PoliTeKDSP/libs/libDaisy/src/dev/mpr121.h ****                    config_.dev_addr, address, 1, data, size, 10);
 4656              		.loc 2 74 42 view .LVU868
 4657 08c6 3B46     		mov	r3, r7
 4658 08c8 FFF7FEFF 		bl	_ZN5daisy9I2CHandle18WriteDataAtAddressEtttPhtm
 4659              	.LVL211:
  74:../libs/PoliTeKDSP/libs/libDaisy/src/dev/mpr121.h ****                    config_.dev_addr, address, 1, data, size, 10);
 4660              		.loc 2 74 42 view .LVU869
 4661              	.LBE1857:
 4662              	.LBE1864:
 4663              	.LBB1865:
 4664              	.LBI1865:
 4665              		.loc 2 336 10 is_stmt 1 view .LVU870
 4666              	.LBE1865:
 4667              	.LBE1874:
 4668              	.LBB1875:
 4669              	.LBB1876:
ARM GAS  C:\Users\skipi\AppData\Local\Temp\ccnEQq3j.s 			page 104


  74:../libs/PoliTeKDSP/libs/libDaisy/src/dev/mpr121.h ****                    config_.dev_addr, address, 1, data, size, 10);
 4670              		.loc 2 74 42 is_stmt 0 view .LVU871
 4671 08cc 0DF12703 		add	r3, sp, #39
 4672 08d0 3322     		movs	r2, #51
 4673 08d2 0093     		str	r3, [sp]
 4674 08d4 CDE90178 		strd	r7, r8, [sp, #4]
 4675              	.LBE1876:
 4676              	.LBE1875:
 4677              	.LBB1880:
 4678              	.LBB1869:
 4679              	.LBB1866:
 4680              		.loc 2 336 55 view .LVU872
 4681 08d8 94F84C30 		ldrb	r3, [r4, #76]	@ zero_extendqisi2
 4682              	.LBE1866:
 4683              	.LBE1869:
 4684              	.LBE1880:
 4685              	.LBB1881:
 4686              	.LBB1877:
  74:../libs/PoliTeKDSP/libs/libDaisy/src/dev/mpr121.h ****                    config_.dev_addr, address, 1, data, size, 10);
 4687              		.loc 2 74 42 view .LVU873
 4688 08dc 94F84810 		ldrb	r1, [r4, #72]	@ zero_extendqisi2
 4689              	.LBE1877:
 4690              	.LBE1881:
 4691              	.LBB1882:
 4692              	.LBB1870:
 4693              	.LBB1867:
 4694              		.loc 2 336 55 view .LVU874
 4695 08e0 5045     		cmp	r0, r10
 4696 08e2 18BF     		it	ne
 4697 08e4 43F00103 		orrne	r3, r3, #1
 4698              	.LBE1867:
 4699              	.LBE1870:
 4700              	.LBE1882:
 4701              	.LBB1883:
 4702              	.LBB1878:
  74:../libs/PoliTeKDSP/libs/libDaisy/src/dev/mpr121.h ****                    config_.dev_addr, address, 1, data, size, 10);
 4703              		.loc 2 74 42 view .LVU875
 4704 08e8 2846     		mov	r0, r5
 4705              	.LVL212:
  74:../libs/PoliTeKDSP/libs/libDaisy/src/dev/mpr121.h ****                    config_.dev_addr, address, 1, data, size, 10);
 4706              		.loc 2 74 42 view .LVU876
 4707              	.LBE1878:
 4708              	.LBE1883:
 4709              	.LBB1884:
 4710              	.LBB1871:
 4711              	.LBB1868:
 4712              		.loc 2 336 55 view .LVU877
 4713 08ea 84F84C30 		strb	r3, [r4, #76]
 4714              	.LVL213:
 4715              		.loc 2 336 55 view .LVU878
 4716              	.LBE1868:
 4717              	.LBE1871:
 4718              	.LBE1884:
 4719              	.LBB1885:
 4720              	.LBI1875:
  71:../libs/PoliTeKDSP/libs/libDaisy/src/dev/mpr121.h ****     {
 4721              		.loc 2 71 10 is_stmt 1 view .LVU879
ARM GAS  C:\Users\skipi\AppData\Local\Temp\ccnEQq3j.s 			page 105


 4722              	.LBB1879:
  73:../libs/PoliTeKDSP/libs/libDaisy/src/dev/mpr121.h ****                != i2c_.WriteDataAtAddress(
 4723              		.loc 2 73 9 view .LVU880
  74:../libs/PoliTeKDSP/libs/libDaisy/src/dev/mpr121.h ****                    config_.dev_addr, address, 1, data, size, 10);
 4724              		.loc 2 74 42 is_stmt 0 view .LVU881
 4725 08ee 3B46     		mov	r3, r7
 4726 08f0 FFF7FEFF 		bl	_ZN5daisy9I2CHandle18WriteDataAtAddressEtttPhtm
 4727              	.LVL214:
  74:../libs/PoliTeKDSP/libs/libDaisy/src/dev/mpr121.h ****                    config_.dev_addr, address, 1, data, size, 10);
 4728              		.loc 2 74 42 view .LVU882
 4729              	.LBE1879:
 4730              	.LBE1885:
 4731              	.LBB1886:
 4732              	.LBI1886:
 4733              		.loc 2 336 10 is_stmt 1 view .LVU883
 4734              	.LBE1886:
 4735              	.LBB1890:
 4736              	.LBB1891:
  74:../libs/PoliTeKDSP/libs/libDaisy/src/dev/mpr121.h ****                    config_.dev_addr, address, 1, data, size, 10);
 4737              		.loc 2 74 42 is_stmt 0 view .LVU884
 4738 08f4 CDF800B0 		str	fp, [sp]
 4739 08f8 5E22     		movs	r2, #94
 4740 08fa CDE90178 		strd	r7, r8, [sp, #4]
 4741              	.LBE1891:
 4742              	.LBE1890:
 4743              	.LBB1895:
 4744              	.LBB1887:
 4745              		.loc 2 336 55 view .LVU885
 4746 08fe 94F84C30 		ldrb	r3, [r4, #76]	@ zero_extendqisi2
 4747              	.LBE1887:
 4748              	.LBE1895:
 4749              	.LBB1896:
 4750              	.LBB1892:
  74:../libs/PoliTeKDSP/libs/libDaisy/src/dev/mpr121.h ****                    config_.dev_addr, address, 1, data, size, 10);
 4751              		.loc 2 74 42 view .LVU886
 4752 0902 94F84810 		ldrb	r1, [r4, #72]	@ zero_extendqisi2
 4753              	.LBE1892:
 4754              	.LBE1896:
 4755              	.LBB1897:
 4756              	.LBB1888:
 4757              		.loc 2 336 55 view .LVU887
 4758 0906 5045     		cmp	r0, r10
 4759 0908 18BF     		it	ne
 4760 090a 43F00103 		orrne	r3, r3, #1
 4761              	.LBE1888:
 4762              	.LBE1897:
 4763              	.LBB1898:
 4764              	.LBB1893:
  74:../libs/PoliTeKDSP/libs/libDaisy/src/dev/mpr121.h ****                    config_.dev_addr, address, 1, data, size, 10);
 4765              		.loc 2 74 42 view .LVU888
 4766 090e 2846     		mov	r0, r5
 4767              	.LVL215:
  74:../libs/PoliTeKDSP/libs/libDaisy/src/dev/mpr121.h ****                    config_.dev_addr, address, 1, data, size, 10);
 4768              		.loc 2 74 42 view .LVU889
 4769              	.LBE1893:
 4770              	.LBE1898:
 4771              	.LBB1899:
ARM GAS  C:\Users\skipi\AppData\Local\Temp\ccnEQq3j.s 			page 106


 4772              	.LBB1889:
 4773              		.loc 2 336 55 view .LVU890
 4774 0910 84F84C30 		strb	r3, [r4, #76]
 4775              	.LVL216:
 4776              		.loc 2 336 55 view .LVU891
 4777              	.LBE1889:
 4778              	.LBE1899:
 4779              	.LBB1900:
 4780              	.LBI1890:
  71:../libs/PoliTeKDSP/libs/libDaisy/src/dev/mpr121.h ****     {
 4781              		.loc 2 71 10 is_stmt 1 view .LVU892
 4782              	.LBB1894:
  73:../libs/PoliTeKDSP/libs/libDaisy/src/dev/mpr121.h ****                != i2c_.WriteDataAtAddress(
 4783              		.loc 2 73 9 view .LVU893
  74:../libs/PoliTeKDSP/libs/libDaisy/src/dev/mpr121.h ****                    config_.dev_addr, address, 1, data, size, 10);
 4784              		.loc 2 74 42 is_stmt 0 view .LVU894
 4785 0914 3B46     		mov	r3, r7
 4786 0916 FFF7FEFF 		bl	_ZN5daisy9I2CHandle18WriteDataAtAddressEtttPhtm
 4787              	.LVL217:
  74:../libs/PoliTeKDSP/libs/libDaisy/src/dev/mpr121.h ****                    config_.dev_addr, address, 1, data, size, 10);
 4788              		.loc 2 74 42 view .LVU895
 4789              	.LBE1894:
 4790              	.LBE1900:
 4791              	.LBB1901:
 4792              	.LBI1901:
 4793              		.loc 2 336 10 is_stmt 1 view .LVU896
 4794              	.LBE1901:
 4795              	.LBE1910:
 4796              	.LBE1919:
 4797              	.LBB1920:
 4798              	.LBB1921:
 4799              	.LBB1922:
 4800              	.LBB1923:
 4801              	.LBB1924:
 4802              	.LBB1925:
 4803              	.LBB1926:
  66:../libs/PoliTeKDSP/libs/libDaisy/src/dev/mpr121.h ****                    config_.dev_addr, address, 1, data, size, 10);
 4804              		.loc 2 66 41 is_stmt 0 view .LVU897
 4805 091a 0096     		str	r6, [sp]
 4806 091c 5E22     		movs	r2, #94
 4807 091e 8DF827A0 		strb	r10, [sp, #39]
 4808 0922 CDE90178 		strd	r7, r8, [sp, #4]
 4809              	.LBE1926:
 4810              	.LBE1925:
 4811              	.LBE1924:
 4812              	.LBE1923:
 4813              	.LBE1922:
 4814              	.LBE1921:
 4815              	.LBE1920:
 4816              	.LBB2011:
 4817              	.LBB1911:
 4818              	.LBB1905:
 4819              	.LBB1902:
 4820              		.loc 2 336 55 view .LVU898
 4821 0926 94F84C30 		ldrb	r3, [r4, #76]	@ zero_extendqisi2
 4822              	.LBE1902:
 4823              	.LBE1905:
ARM GAS  C:\Users\skipi\AppData\Local\Temp\ccnEQq3j.s 			page 107


 4824              	.LBE1911:
 4825              	.LBE2011:
 4826              	.LBB2012:
 4827              	.LBB2005:
 4828              	.LBB1969:
 4829              	.LBB1946:
 4830              	.LBB1940:
 4831              	.LBB1930:
 4832              	.LBB1927:
  66:../libs/PoliTeKDSP/libs/libDaisy/src/dev/mpr121.h ****                    config_.dev_addr, address, 1, data, size, 10);
 4833              		.loc 2 66 41 view .LVU899
 4834 092a 94F84810 		ldrb	r1, [r4, #72]	@ zero_extendqisi2
 4835              	.LBE1927:
 4836              	.LBE1930:
 4837              	.LBE1940:
 4838              	.LBE1946:
 4839              	.LBE1969:
 4840              	.LBE2005:
 4841              	.LBE2012:
 4842              	.LBB2013:
 4843              	.LBB1912:
 4844              	.LBB1906:
 4845              	.LBB1903:
 4846              		.loc 2 336 55 view .LVU900
 4847 092e 5045     		cmp	r0, r10
 4848 0930 18BF     		it	ne
 4849 0932 43F00103 		orrne	r3, r3, #1
 4850              	.LBE1903:
 4851              	.LBE1906:
 4852              	.LBE1912:
 4853              	.LBE2013:
 4854              	.LBB2014:
 4855              	.LBB2006:
 4856              	.LBB1970:
 4857              	.LBB1947:
 4858              	.LBB1941:
 4859              	.LBB1931:
 4860              	.LBB1928:
  66:../libs/PoliTeKDSP/libs/libDaisy/src/dev/mpr121.h ****                    config_.dev_addr, address, 1, data, size, 10);
 4861              		.loc 2 66 41 view .LVU901
 4862 0936 2846     		mov	r0, r5
 4863              	.LVL218:
  66:../libs/PoliTeKDSP/libs/libDaisy/src/dev/mpr121.h ****                    config_.dev_addr, address, 1, data, size, 10);
 4864              		.loc 2 66 41 view .LVU902
 4865              	.LBE1928:
 4866              	.LBE1931:
 4867              	.LBE1941:
 4868              	.LBE1947:
 4869              	.LBE1970:
 4870              	.LBE2006:
 4871              	.LBE2014:
 4872              	.LBB2015:
 4873              	.LBB1913:
 4874              	.LBB1907:
 4875              	.LBB1904:
 4876              		.loc 2 336 55 view .LVU903
 4877 0938 84F84C30 		strb	r3, [r4, #76]
ARM GAS  C:\Users\skipi\AppData\Local\Temp\ccnEQq3j.s 			page 108


 4878              	.LVL219:
 4879              		.loc 2 336 55 view .LVU904
 4880              	.LBE1904:
 4881              	.LBE1907:
 4882              	.LBE1913:
 4883              	.LBE2015:
 4884              	.LBB2016:
 4885              	.LBI1920:
 257:../libs/PoliTeKDSP/libs/libDaisy/src/dev/mpr121.h ****     {
 4886              		.loc 2 257 10 is_stmt 1 view .LVU905
 4887              	.LBB2007:
 4888              	.LBB1971:
 4889              	.LBB1948:
 4890              	.LBI1923:
 232:../libs/PoliTeKDSP/libs/libDaisy/src/dev/mpr121.h ****     {
 4891              		.loc 2 232 13 view .LVU906
 4892              	.LBB1942:
 4893              	.LBB1932:
 4894              	.LBI1925:
  63:../libs/PoliTeKDSP/libs/libDaisy/src/dev/mpr121.h ****     {
 4895              		.loc 2 63 10 view .LVU907
 4896              	.LBB1929:
  65:../libs/PoliTeKDSP/libs/libDaisy/src/dev/mpr121.h ****                != i2c_.ReadDataAtAddress(
 4897              		.loc 2 65 9 view .LVU908
  66:../libs/PoliTeKDSP/libs/libDaisy/src/dev/mpr121.h ****                    config_.dev_addr, address, 1, data, size, 10);
 4898              		.loc 2 66 41 is_stmt 0 view .LVU909
 4899 093c 3B46     		mov	r3, r7
 4900 093e FFF7FEFF 		bl	_ZN5daisy9I2CHandle17ReadDataAtAddressEtttPhtm
 4901              	.LVL220:
  66:../libs/PoliTeKDSP/libs/libDaisy/src/dev/mpr121.h ****                    config_.dev_addr, address, 1, data, size, 10);
 4902              		.loc 2 66 41 view .LVU910
 4903              	.LBE1929:
 4904              	.LBE1932:
 4905              	.LBB1933:
 4906              	.LBI1933:
 4907              		.loc 2 336 10 is_stmt 1 view .LVU911
 4908              	.LBE1933:
 4909              	.LBE1942:
 4910              	.LBE1948:
 4911              	.LBB1949:
 4912              	.LBB1950:
  74:../libs/PoliTeKDSP/libs/libDaisy/src/dev/mpr121.h ****                    config_.dev_addr, address, 1, data, size, 10);
 4913              		.loc 2 74 42 is_stmt 0 view .LVU912
 4914 0942 0096     		str	r6, [sp]
 4915 0944 5E22     		movs	r2, #94
 4916 0946 CDE90178 		strd	r7, r8, [sp, #4]
 4917              	.LBE1950:
 4918              	.LBE1949:
 4919              	.LBB1955:
 4920              	.LBB1943:
 4921              	.LBB1937:
 4922              	.LBB1934:
 4923              		.loc 2 336 55 view .LVU913
 4924 094a 94F84C30 		ldrb	r3, [r4, #76]	@ zero_extendqisi2
 4925              	.LBE1934:
 4926              	.LBE1937:
 4927              	.LBE1943:
ARM GAS  C:\Users\skipi\AppData\Local\Temp\ccnEQq3j.s 			page 109


 4928              	.LBE1955:
 4929              	.LBB1956:
 4930              	.LBB1951:
  74:../libs/PoliTeKDSP/libs/libDaisy/src/dev/mpr121.h ****                    config_.dev_addr, address, 1, data, size, 10);
 4931              		.loc 2 74 42 view .LVU914
 4932 094e 94F84810 		ldrb	r1, [r4, #72]	@ zero_extendqisi2
 4933              	.LBE1951:
 4934              	.LBE1956:
 4935              	.LBB1957:
 4936              	.LBB1944:
 4937              	.LBB1938:
 4938              	.LBB1935:
 4939              		.loc 2 336 55 view .LVU915
 4940 0952 5045     		cmp	r0, r10
 4941 0954 18BF     		it	ne
 4942 0956 43F00103 		orrne	r3, r3, #1
 4943              	.LBE1935:
 4944              	.LBE1938:
 4945              	.LBE1944:
 4946              	.LBE1957:
 4947              	.LBB1958:
 4948              	.LBB1952:
  74:../libs/PoliTeKDSP/libs/libDaisy/src/dev/mpr121.h ****                    config_.dev_addr, address, 1, data, size, 10);
 4949              		.loc 2 74 42 view .LVU916
 4950 095a 2846     		mov	r0, r5
 4951              	.LVL221:
  74:../libs/PoliTeKDSP/libs/libDaisy/src/dev/mpr121.h ****                    config_.dev_addr, address, 1, data, size, 10);
 4952              		.loc 2 74 42 view .LVU917
 4953              	.LBE1952:
 4954              	.LBE1958:
 4955              	.LBB1959:
 4956              	.LBB1945:
 4957              	.LBB1939:
 4958              	.LBB1936:
 4959              		.loc 2 336 55 view .LVU918
 4960 095c 84F84C30 		strb	r3, [r4, #76]
 4961              	.LVL222:
 4962              		.loc 2 336 55 view .LVU919
 4963              	.LBE1936:
 4964              	.LBE1939:
 237:../libs/PoliTeKDSP/libs/libDaisy/src/dev/mpr121.h ****     }
 4965              		.loc 2 237 16 view .LVU920
 4966 0960 9DF83C30 		ldrb	r3, [sp, #60]	@ zero_extendqisi2
 4967              	.LVL223:
 237:../libs/PoliTeKDSP/libs/libDaisy/src/dev/mpr121.h ****     }
 4968              		.loc 2 237 16 view .LVU921
 4969              	.LBE1945:
 4970              	.LBE1959:
 271:../libs/PoliTeKDSP/libs/libDaisy/src/dev/mpr121.h ****             // clear this register to set stop mode
 4971              		.loc 2 271 21 view .LVU922
 4972 0964 8DF83CA0 		strb	r10, [sp, #60]
 4973              	.LVL224:
 4974              	.LBB1960:
 4975              	.LBI1949:
  71:../libs/PoliTeKDSP/libs/libDaisy/src/dev/mpr121.h ****     {
 4976              		.loc 2 71 10 is_stmt 1 view .LVU923
 4977              	.LBB1953:
ARM GAS  C:\Users\skipi\AppData\Local\Temp\ccnEQq3j.s 			page 110


  73:../libs/PoliTeKDSP/libs/libDaisy/src/dev/mpr121.h ****                != i2c_.WriteDataAtAddress(
 4978              		.loc 2 73 9 view .LVU924
 4979              	.LBE1953:
 4980              	.LBE1960:
 270:../libs/PoliTeKDSP/libs/libDaisy/src/dev/mpr121.h ****             uint8_t zero = 0x00;
 4981              		.loc 2 270 26 is_stmt 0 view .LVU925
 4982 0968 8DF82830 		strb	r3, [sp, #40]
 4983              	.LBB1961:
 4984              	.LBB1954:
  74:../libs/PoliTeKDSP/libs/libDaisy/src/dev/mpr121.h ****                    config_.dev_addr, address, 1, data, size, 10);
 4985              		.loc 2 74 42 view .LVU926
 4986 096c 3B46     		mov	r3, r7
 4987 096e FFF7FEFF 		bl	_ZN5daisy9I2CHandle18WriteDataAtAddressEtttPhtm
 4988              	.LVL225:
  74:../libs/PoliTeKDSP/libs/libDaisy/src/dev/mpr121.h ****                    config_.dev_addr, address, 1, data, size, 10);
 4989              		.loc 2 74 42 view .LVU927
 4990              	.LBE1954:
 4991              	.LBE1961:
 4992              	.LBB1962:
 4993              	.LBI1962:
 4994              		.loc 2 336 10 is_stmt 1 view .LVU928
 4995              	.LBE1962:
 4996              	.LBE1971:
 4997              	.LBB1972:
 4998              	.LBB1973:
  74:../libs/PoliTeKDSP/libs/libDaisy/src/dev/mpr121.h ****                    config_.dev_addr, address, 1, data, size, 10);
 4999              		.loc 2 74 42 is_stmt 0 view .LVU929
 5000 0972 0DF12703 		add	r3, sp, #39
 5001 0976 3422     		movs	r2, #52
 5002 0978 0093     		str	r3, [sp]
 5003 097a CDE90178 		strd	r7, r8, [sp, #4]
 5004              	.LBE1973:
 5005              	.LBE1972:
 5006              	.LBB1977:
 5007              	.LBB1966:
 5008              	.LBB1963:
 5009              		.loc 2 336 55 view .LVU930
 5010 097e 94F84C30 		ldrb	r3, [r4, #76]	@ zero_extendqisi2
 5011              	.LBE1963:
 5012              	.LBE1966:
 5013              	.LBE1977:
 5014              	.LBB1978:
 5015              	.LBB1974:
  74:../libs/PoliTeKDSP/libs/libDaisy/src/dev/mpr121.h ****                    config_.dev_addr, address, 1, data, size, 10);
 5016              		.loc 2 74 42 view .LVU931
 5017 0982 94F84810 		ldrb	r1, [r4, #72]	@ zero_extendqisi2
 5018              	.LBE1974:
 5019              	.LBE1978:
 5020              	.LBB1979:
 5021              	.LBB1967:
 5022              	.LBB1964:
 5023              		.loc 2 336 55 view .LVU932
 5024 0986 5045     		cmp	r0, r10
 5025 0988 18BF     		it	ne
 5026 098a 43F00103 		orrne	r3, r3, #1
 5027              	.LBE1964:
 5028              	.LBE1967:
ARM GAS  C:\Users\skipi\AppData\Local\Temp\ccnEQq3j.s 			page 111


 5029              	.LBE1979:
 5030              	.LBB1980:
 5031              	.LBB1975:
  74:../libs/PoliTeKDSP/libs/libDaisy/src/dev/mpr121.h ****                    config_.dev_addr, address, 1, data, size, 10);
 5032              		.loc 2 74 42 view .LVU933
 5033 098e 2846     		mov	r0, r5
 5034              	.LVL226:
  74:../libs/PoliTeKDSP/libs/libDaisy/src/dev/mpr121.h ****                    config_.dev_addr, address, 1, data, size, 10);
 5035              		.loc 2 74 42 view .LVU934
 5036              	.LBE1975:
 5037              	.LBE1980:
 5038              	.LBB1981:
 5039              	.LBB1968:
 5040              	.LBB1965:
 5041              		.loc 2 336 55 view .LVU935
 5042 0990 84F84C30 		strb	r3, [r4, #76]
 5043              	.LVL227:
 5044              		.loc 2 336 55 view .LVU936
 5045              	.LBE1965:
 5046              	.LBE1968:
 5047              	.LBE1981:
 5048              	.LBB1982:
 5049              	.LBI1972:
  71:../libs/PoliTeKDSP/libs/libDaisy/src/dev/mpr121.h ****     {
 5050              		.loc 2 71 10 is_stmt 1 view .LVU937
 5051              	.LBB1976:
  73:../libs/PoliTeKDSP/libs/libDaisy/src/dev/mpr121.h ****                != i2c_.WriteDataAtAddress(
 5052              		.loc 2 73 9 view .LVU938
  74:../libs/PoliTeKDSP/libs/libDaisy/src/dev/mpr121.h ****                    config_.dev_addr, address, 1, data, size, 10);
 5053              		.loc 2 74 42 is_stmt 0 view .LVU939
 5054 0994 3B46     		mov	r3, r7
 5055 0996 FFF7FEFF 		bl	_ZN5daisy9I2CHandle18WriteDataAtAddressEtttPhtm
 5056              	.LVL228:
  74:../libs/PoliTeKDSP/libs/libDaisy/src/dev/mpr121.h ****                    config_.dev_addr, address, 1, data, size, 10);
 5057              		.loc 2 74 42 view .LVU940
 5058              	.LBE1976:
 5059              	.LBE1982:
 5060              	.LBB1983:
 5061              	.LBI1983:
 5062              		.loc 2 336 10 is_stmt 1 view .LVU941
 5063              	.LBE1983:
 5064              	.LBB1987:
 5065              	.LBB1988:
  74:../libs/PoliTeKDSP/libs/libDaisy/src/dev/mpr121.h ****                    config_.dev_addr, address, 1, data, size, 10);
 5066              		.loc 2 74 42 is_stmt 0 view .LVU942
 5067 099a CDF800B0 		str	fp, [sp]
 5068 099e 5E22     		movs	r2, #94
 5069 09a0 CDE90178 		strd	r7, r8, [sp, #4]
 5070              	.LBE1988:
 5071              	.LBE1987:
 5072              	.LBB1992:
 5073              	.LBB1984:
 5074              		.loc 2 336 55 view .LVU943
 5075 09a4 94F84C30 		ldrb	r3, [r4, #76]	@ zero_extendqisi2
 5076              	.LBE1984:
 5077              	.LBE1992:
 5078              	.LBB1993:
ARM GAS  C:\Users\skipi\AppData\Local\Temp\ccnEQq3j.s 			page 112


 5079              	.LBB1989:
  74:../libs/PoliTeKDSP/libs/libDaisy/src/dev/mpr121.h ****                    config_.dev_addr, address, 1, data, size, 10);
 5080              		.loc 2 74 42 view .LVU944
 5081 09a8 94F84810 		ldrb	r1, [r4, #72]	@ zero_extendqisi2
 5082              	.LBE1989:
 5083              	.LBE1993:
 5084              	.LBB1994:
 5085              	.LBB1985:
 5086              		.loc 2 336 55 view .LVU945
 5087 09ac 5045     		cmp	r0, r10
 5088 09ae 18BF     		it	ne
 5089 09b0 43F00103 		orrne	r3, r3, #1
 5090              	.LBE1985:
 5091              	.LBE1994:
 5092              	.LBB1995:
 5093              	.LBB1990:
  74:../libs/PoliTeKDSP/libs/libDaisy/src/dev/mpr121.h ****                    config_.dev_addr, address, 1, data, size, 10);
 5094              		.loc 2 74 42 view .LVU946
 5095 09b4 2846     		mov	r0, r5
 5096              	.LVL229:
  74:../libs/PoliTeKDSP/libs/libDaisy/src/dev/mpr121.h ****                    config_.dev_addr, address, 1, data, size, 10);
 5097              		.loc 2 74 42 view .LVU947
 5098              	.LBE1990:
 5099              	.LBE1995:
 5100              	.LBB1996:
 5101              	.LBB1986:
 5102              		.loc 2 336 55 view .LVU948
 5103 09b6 84F84C30 		strb	r3, [r4, #76]
 5104              	.LVL230:
 5105              		.loc 2 336 55 view .LVU949
 5106              	.LBE1986:
 5107              	.LBE1996:
 5108              	.LBB1997:
 5109              	.LBI1987:
  71:../libs/PoliTeKDSP/libs/libDaisy/src/dev/mpr121.h ****     {
 5110              		.loc 2 71 10 is_stmt 1 view .LVU950
 5111              	.LBB1991:
  73:../libs/PoliTeKDSP/libs/libDaisy/src/dev/mpr121.h ****                != i2c_.WriteDataAtAddress(
 5112              		.loc 2 73 9 view .LVU951
  74:../libs/PoliTeKDSP/libs/libDaisy/src/dev/mpr121.h ****                    config_.dev_addr, address, 1, data, size, 10);
 5113              		.loc 2 74 42 is_stmt 0 view .LVU952
 5114 09ba 3B46     		mov	r3, r7
 5115 09bc FFF7FEFF 		bl	_ZN5daisy9I2CHandle18WriteDataAtAddressEtttPhtm
 5116              	.LVL231:
  74:../libs/PoliTeKDSP/libs/libDaisy/src/dev/mpr121.h ****                    config_.dev_addr, address, 1, data, size, 10);
 5117              		.loc 2 74 42 view .LVU953
 5118              	.LBE1991:
 5119              	.LBE1997:
 5120              	.LBB1998:
 5121              	.LBI1998:
 5122              		.loc 2 336 10 is_stmt 1 view .LVU954
 5123              	.LBE1998:
 5124              	.LBE2007:
 5125              	.LBE2016:
 5126              	.LBB2017:
 5127              	.LBB2018:
 5128              	.LBB2019:
ARM GAS  C:\Users\skipi\AppData\Local\Temp\ccnEQq3j.s 			page 113


 5129              	.LBB2020:
 5130              	.LBB2021:
 5131              	.LBB2022:
 5132              	.LBB2023:
  66:../libs/PoliTeKDSP/libs/libDaisy/src/dev/mpr121.h ****                    config_.dev_addr, address, 1, data, size, 10);
 5133              		.loc 2 66 41 is_stmt 0 view .LVU955
 5134 09c0 0096     		str	r6, [sp]
 5135 09c2 5E22     		movs	r2, #94
 5136 09c4 8DF827A0 		strb	r10, [sp, #39]
 5137 09c8 CDE90178 		strd	r7, r8, [sp, #4]
 5138              	.LBE2023:
 5139              	.LBE2022:
 5140              	.LBE2021:
 5141              	.LBE2020:
 5142              	.LBE2019:
 5143              	.LBE2018:
 5144              	.LBE2017:
 5145              	.LBB2108:
 5146              	.LBB2008:
 5147              	.LBB2002:
 5148              	.LBB1999:
 5149              		.loc 2 336 55 view .LVU956
 5150 09cc 94F84C30 		ldrb	r3, [r4, #76]	@ zero_extendqisi2
 5151              	.LBE1999:
 5152              	.LBE2002:
 5153              	.LBE2008:
 5154              	.LBE2108:
 5155              	.LBB2109:
 5156              	.LBB2102:
 5157              	.LBB2066:
 5158              	.LBB2043:
 5159              	.LBB2037:
 5160              	.LBB2027:
 5161              	.LBB2024:
  66:../libs/PoliTeKDSP/libs/libDaisy/src/dev/mpr121.h ****                    config_.dev_addr, address, 1, data, size, 10);
 5162              		.loc 2 66 41 view .LVU957
 5163 09d0 94F84810 		ldrb	r1, [r4, #72]	@ zero_extendqisi2
 5164              	.LBE2024:
 5165              	.LBE2027:
 5166              	.LBE2037:
 5167              	.LBE2043:
 5168              	.LBE2066:
 5169              	.LBE2102:
 5170              	.LBE2109:
 5171              	.LBB2110:
 5172              	.LBB2009:
 5173              	.LBB2003:
 5174              	.LBB2000:
 5175              		.loc 2 336 55 view .LVU958
 5176 09d4 5045     		cmp	r0, r10
 5177 09d6 18BF     		it	ne
 5178 09d8 43F00103 		orrne	r3, r3, #1
 5179              	.LBE2000:
 5180              	.LBE2003:
 5181              	.LBE2009:
 5182              	.LBE2110:
 5183              	.LBB2111:
ARM GAS  C:\Users\skipi\AppData\Local\Temp\ccnEQq3j.s 			page 114


 5184              	.LBB2103:
 5185              	.LBB2067:
 5186              	.LBB2044:
 5187              	.LBB2038:
 5188              	.LBB2028:
 5189              	.LBB2025:
  66:../libs/PoliTeKDSP/libs/libDaisy/src/dev/mpr121.h ****                    config_.dev_addr, address, 1, data, size, 10);
 5190              		.loc 2 66 41 view .LVU959
 5191 09dc 2846     		mov	r0, r5
 5192              	.LVL232:
  66:../libs/PoliTeKDSP/libs/libDaisy/src/dev/mpr121.h ****                    config_.dev_addr, address, 1, data, size, 10);
 5193              		.loc 2 66 41 view .LVU960
 5194              	.LBE2025:
 5195              	.LBE2028:
 5196              	.LBE2038:
 5197              	.LBE2044:
 5198              	.LBE2067:
 5199              	.LBE2103:
 5200              	.LBE2111:
 5201              	.LBB2112:
 5202              	.LBB2010:
 5203              	.LBB2004:
 5204              	.LBB2001:
 5205              		.loc 2 336 55 view .LVU961
 5206 09de 84F84C30 		strb	r3, [r4, #76]
 5207              	.LVL233:
 5208              		.loc 2 336 55 view .LVU962
 5209              	.LBE2001:
 5210              	.LBE2004:
 5211              	.LBE2010:
 5212              	.LBE2112:
 5213              	.LBB2113:
 5214              	.LBI2017:
 257:../libs/PoliTeKDSP/libs/libDaisy/src/dev/mpr121.h ****     {
 5215              		.loc 2 257 10 is_stmt 1 view .LVU963
 5216              	.LBB2104:
 5217              	.LBB2068:
 5218              	.LBB2045:
 5219              	.LBI2020:
 232:../libs/PoliTeKDSP/libs/libDaisy/src/dev/mpr121.h ****     {
 5220              		.loc 2 232 13 view .LVU964
 5221              	.LBB2039:
 5222              	.LBB2029:
 5223              	.LBI2022:
  63:../libs/PoliTeKDSP/libs/libDaisy/src/dev/mpr121.h ****     {
 5224              		.loc 2 63 10 view .LVU965
 5225              	.LBB2026:
  65:../libs/PoliTeKDSP/libs/libDaisy/src/dev/mpr121.h ****                != i2c_.ReadDataAtAddress(
 5226              		.loc 2 65 9 view .LVU966
  66:../libs/PoliTeKDSP/libs/libDaisy/src/dev/mpr121.h ****                    config_.dev_addr, address, 1, data, size, 10);
 5227              		.loc 2 66 41 is_stmt 0 view .LVU967
 5228 09e2 3B46     		mov	r3, r7
 5229 09e4 FFF7FEFF 		bl	_ZN5daisy9I2CHandle17ReadDataAtAddressEtttPhtm
 5230              	.LVL234:
  66:../libs/PoliTeKDSP/libs/libDaisy/src/dev/mpr121.h ****                    config_.dev_addr, address, 1, data, size, 10);
 5231              		.loc 2 66 41 view .LVU968
 5232              	.LBE2026:
ARM GAS  C:\Users\skipi\AppData\Local\Temp\ccnEQq3j.s 			page 115


 5233              	.LBE2029:
 5234              	.LBB2030:
 5235              	.LBI2030:
 5236              		.loc 2 336 10 is_stmt 1 view .LVU969
 5237              	.LBE2030:
 5238              	.LBE2039:
 5239              	.LBE2045:
 5240              	.LBB2046:
 5241              	.LBB2047:
  74:../libs/PoliTeKDSP/libs/libDaisy/src/dev/mpr121.h ****                    config_.dev_addr, address, 1, data, size, 10);
 5242              		.loc 2 74 42 is_stmt 0 view .LVU970
 5243 09e8 0096     		str	r6, [sp]
 5244 09ea 5E22     		movs	r2, #94
 5245 09ec CDE90178 		strd	r7, r8, [sp, #4]
 5246              	.LBE2047:
 5247              	.LBE2046:
 5248              	.LBB2052:
 5249              	.LBB2040:
 5250              	.LBB2034:
 5251              	.LBB2031:
 5252              		.loc 2 336 55 view .LVU971
 5253 09f0 94F84C30 		ldrb	r3, [r4, #76]	@ zero_extendqisi2
 5254              	.LBE2031:
 5255              	.LBE2034:
 5256              	.LBE2040:
 5257              	.LBE2052:
 5258              	.LBB2053:
 5259              	.LBB2048:
  74:../libs/PoliTeKDSP/libs/libDaisy/src/dev/mpr121.h ****                    config_.dev_addr, address, 1, data, size, 10);
 5260              		.loc 2 74 42 view .LVU972
 5261 09f4 94F84810 		ldrb	r1, [r4, #72]	@ zero_extendqisi2
 5262              	.LBE2048:
 5263              	.LBE2053:
 5264              	.LBB2054:
 5265              	.LBB2041:
 5266              	.LBB2035:
 5267              	.LBB2032:
 5268              		.loc 2 336 55 view .LVU973
 5269 09f8 5045     		cmp	r0, r10
 5270 09fa 18BF     		it	ne
 5271 09fc 43F00103 		orrne	r3, r3, #1
 5272              	.LBE2032:
 5273              	.LBE2035:
 5274              	.LBE2041:
 5275              	.LBE2054:
 5276              	.LBB2055:
 5277              	.LBB2049:
  74:../libs/PoliTeKDSP/libs/libDaisy/src/dev/mpr121.h ****                    config_.dev_addr, address, 1, data, size, 10);
 5278              		.loc 2 74 42 view .LVU974
 5279 0a00 2846     		mov	r0, r5
 5280              	.LVL235:
  74:../libs/PoliTeKDSP/libs/libDaisy/src/dev/mpr121.h ****                    config_.dev_addr, address, 1, data, size, 10);
 5281              		.loc 2 74 42 view .LVU975
 5282              	.LBE2049:
 5283              	.LBE2055:
 5284              	.LBB2056:
 5285              	.LBB2042:
ARM GAS  C:\Users\skipi\AppData\Local\Temp\ccnEQq3j.s 			page 116


 5286              	.LBB2036:
 5287              	.LBB2033:
 5288              		.loc 2 336 55 view .LVU976
 5289 0a02 84F84C30 		strb	r3, [r4, #76]
 5290              	.LVL236:
 5291              		.loc 2 336 55 view .LVU977
 5292              	.LBE2033:
 5293              	.LBE2036:
 237:../libs/PoliTeKDSP/libs/libDaisy/src/dev/mpr121.h ****     }
 5294              		.loc 2 237 16 view .LVU978
 5295 0a06 9DF83C30 		ldrb	r3, [sp, #60]	@ zero_extendqisi2
 5296              	.LVL237:
 237:../libs/PoliTeKDSP/libs/libDaisy/src/dev/mpr121.h ****     }
 5297              		.loc 2 237 16 view .LVU979
 5298              	.LBE2042:
 5299              	.LBE2056:
 271:../libs/PoliTeKDSP/libs/libDaisy/src/dev/mpr121.h ****             // clear this register to set stop mode
 5300              		.loc 2 271 21 view .LVU980
 5301 0a0a 8DF83CA0 		strb	r10, [sp, #60]
 5302              	.LVL238:
 5303              	.LBB2057:
 5304              	.LBI2046:
  71:../libs/PoliTeKDSP/libs/libDaisy/src/dev/mpr121.h ****     {
 5305              		.loc 2 71 10 is_stmt 1 view .LVU981
 5306              	.LBB2050:
  73:../libs/PoliTeKDSP/libs/libDaisy/src/dev/mpr121.h ****                != i2c_.WriteDataAtAddress(
 5307              		.loc 2 73 9 view .LVU982
 5308              	.LBE2050:
 5309              	.LBE2057:
 270:../libs/PoliTeKDSP/libs/libDaisy/src/dev/mpr121.h ****             uint8_t zero = 0x00;
 5310              		.loc 2 270 26 is_stmt 0 view .LVU983
 5311 0a0e 8DF82830 		strb	r3, [sp, #40]
 5312              	.LBB2058:
 5313              	.LBB2051:
  74:../libs/PoliTeKDSP/libs/libDaisy/src/dev/mpr121.h ****                    config_.dev_addr, address, 1, data, size, 10);
 5314              		.loc 2 74 42 view .LVU984
 5315 0a12 3B46     		mov	r3, r7
 5316 0a14 FFF7FEFF 		bl	_ZN5daisy9I2CHandle18WriteDataAtAddressEtttPhtm
 5317              	.LVL239:
  74:../libs/PoliTeKDSP/libs/libDaisy/src/dev/mpr121.h ****                    config_.dev_addr, address, 1, data, size, 10);
 5318              		.loc 2 74 42 view .LVU985
 5319              	.LBE2051:
 5320              	.LBE2058:
 5321              	.LBB2059:
 5322              	.LBI2059:
 5323              		.loc 2 336 10 is_stmt 1 view .LVU986
 5324              	.LBE2059:
 5325              	.LBE2068:
 5326              	.LBB2069:
 5327              	.LBB2070:
  74:../libs/PoliTeKDSP/libs/libDaisy/src/dev/mpr121.h ****                    config_.dev_addr, address, 1, data, size, 10);
 5328              		.loc 2 74 42 is_stmt 0 view .LVU987
 5329 0a18 0DF12703 		add	r3, sp, #39
 5330 0a1c 3522     		movs	r2, #53
 5331 0a1e 0093     		str	r3, [sp]
 5332 0a20 CDE90178 		strd	r7, r8, [sp, #4]
 5333              	.LBE2070:
ARM GAS  C:\Users\skipi\AppData\Local\Temp\ccnEQq3j.s 			page 117


 5334              	.LBE2069:
 5335              	.LBB2074:
 5336              	.LBB2063:
 5337              	.LBB2060:
 5338              		.loc 2 336 55 view .LVU988
 5339 0a24 94F84C30 		ldrb	r3, [r4, #76]	@ zero_extendqisi2
 5340              	.LBE2060:
 5341              	.LBE2063:
 5342              	.LBE2074:
 5343              	.LBB2075:
 5344              	.LBB2071:
  74:../libs/PoliTeKDSP/libs/libDaisy/src/dev/mpr121.h ****                    config_.dev_addr, address, 1, data, size, 10);
 5345              		.loc 2 74 42 view .LVU989
 5346 0a28 94F84810 		ldrb	r1, [r4, #72]	@ zero_extendqisi2
 5347              	.LBE2071:
 5348              	.LBE2075:
 5349              	.LBB2076:
 5350              	.LBB2064:
 5351              	.LBB2061:
 5352              		.loc 2 336 55 view .LVU990
 5353 0a2c 5045     		cmp	r0, r10
 5354 0a2e 18BF     		it	ne
 5355 0a30 43F00103 		orrne	r3, r3, #1
 5356              	.LBE2061:
 5357              	.LBE2064:
 5358              	.LBE2076:
 5359              	.LBB2077:
 5360              	.LBB2072:
  74:../libs/PoliTeKDSP/libs/libDaisy/src/dev/mpr121.h ****                    config_.dev_addr, address, 1, data, size, 10);
 5361              		.loc 2 74 42 view .LVU991
 5362 0a34 2846     		mov	r0, r5
 5363              	.LVL240:
  74:../libs/PoliTeKDSP/libs/libDaisy/src/dev/mpr121.h ****                    config_.dev_addr, address, 1, data, size, 10);
 5364              		.loc 2 74 42 view .LVU992
 5365              	.LBE2072:
 5366              	.LBE2077:
 5367              	.LBB2078:
 5368              	.LBB2065:
 5369              	.LBB2062:
 5370              		.loc 2 336 55 view .LVU993
 5371 0a36 84F84C30 		strb	r3, [r4, #76]
 5372              	.LVL241:
 5373              		.loc 2 336 55 view .LVU994
 5374              	.LBE2062:
 5375              	.LBE2065:
 5376              	.LBE2078:
 5377              	.LBB2079:
 5378              	.LBI2069:
  71:../libs/PoliTeKDSP/libs/libDaisy/src/dev/mpr121.h ****     {
 5379              		.loc 2 71 10 is_stmt 1 view .LVU995
 5380              	.LBB2073:
  73:../libs/PoliTeKDSP/libs/libDaisy/src/dev/mpr121.h ****                != i2c_.WriteDataAtAddress(
 5381              		.loc 2 73 9 view .LVU996
  74:../libs/PoliTeKDSP/libs/libDaisy/src/dev/mpr121.h ****                    config_.dev_addr, address, 1, data, size, 10);
 5382              		.loc 2 74 42 is_stmt 0 view .LVU997
 5383 0a3a 3B46     		mov	r3, r7
 5384 0a3c FFF7FEFF 		bl	_ZN5daisy9I2CHandle18WriteDataAtAddressEtttPhtm
ARM GAS  C:\Users\skipi\AppData\Local\Temp\ccnEQq3j.s 			page 118


 5385              	.LVL242:
  74:../libs/PoliTeKDSP/libs/libDaisy/src/dev/mpr121.h ****                    config_.dev_addr, address, 1, data, size, 10);
 5386              		.loc 2 74 42 view .LVU998
 5387              	.LBE2073:
 5388              	.LBE2079:
 5389              	.LBB2080:
 5390              	.LBI2080:
 5391              		.loc 2 336 10 is_stmt 1 view .LVU999
 5392              	.LBE2080:
 5393              	.LBB2084:
 5394              	.LBB2085:
  74:../libs/PoliTeKDSP/libs/libDaisy/src/dev/mpr121.h ****                    config_.dev_addr, address, 1, data, size, 10);
 5395              		.loc 2 74 42 is_stmt 0 view .LVU1000
 5396 0a40 CDF800B0 		str	fp, [sp]
 5397 0a44 5E22     		movs	r2, #94
 5398 0a46 CDE90178 		strd	r7, r8, [sp, #4]
 5399              	.LBE2085:
 5400              	.LBE2084:
 5401              	.LBB2089:
 5402              	.LBB2081:
 5403              		.loc 2 336 55 view .LVU1001
 5404 0a4a 94F84C30 		ldrb	r3, [r4, #76]	@ zero_extendqisi2
 5405              	.LBE2081:
 5406              	.LBE2089:
 5407              	.LBB2090:
 5408              	.LBB2086:
  74:../libs/PoliTeKDSP/libs/libDaisy/src/dev/mpr121.h ****                    config_.dev_addr, address, 1, data, size, 10);
 5409              		.loc 2 74 42 view .LVU1002
 5410 0a4e 94F84810 		ldrb	r1, [r4, #72]	@ zero_extendqisi2
 5411              	.LBE2086:
 5412              	.LBE2090:
 5413              	.LBB2091:
 5414              	.LBB2082:
 5415              		.loc 2 336 55 view .LVU1003
 5416 0a52 5045     		cmp	r0, r10
 5417 0a54 18BF     		it	ne
 5418 0a56 43F00103 		orrne	r3, r3, #1
 5419              	.LBE2082:
 5420              	.LBE2091:
 5421              	.LBB2092:
 5422              	.LBB2087:
  74:../libs/PoliTeKDSP/libs/libDaisy/src/dev/mpr121.h ****                    config_.dev_addr, address, 1, data, size, 10);
 5423              		.loc 2 74 42 view .LVU1004
 5424 0a5a 2846     		mov	r0, r5
 5425              	.LVL243:
  74:../libs/PoliTeKDSP/libs/libDaisy/src/dev/mpr121.h ****                    config_.dev_addr, address, 1, data, size, 10);
 5426              		.loc 2 74 42 view .LVU1005
 5427              	.LBE2087:
 5428              	.LBE2092:
 5429              	.LBB2093:
 5430              	.LBB2083:
 5431              		.loc 2 336 55 view .LVU1006
 5432 0a5c 84F84C30 		strb	r3, [r4, #76]
 5433              	.LVL244:
 5434              		.loc 2 336 55 view .LVU1007
 5435              	.LBE2083:
 5436              	.LBE2093:
ARM GAS  C:\Users\skipi\AppData\Local\Temp\ccnEQq3j.s 			page 119


 5437              	.LBB2094:
 5438              	.LBI2084:
  71:../libs/PoliTeKDSP/libs/libDaisy/src/dev/mpr121.h ****     {
 5439              		.loc 2 71 10 is_stmt 1 view .LVU1008
 5440              	.LBB2088:
  73:../libs/PoliTeKDSP/libs/libDaisy/src/dev/mpr121.h ****                != i2c_.WriteDataAtAddress(
 5441              		.loc 2 73 9 view .LVU1009
  74:../libs/PoliTeKDSP/libs/libDaisy/src/dev/mpr121.h ****                    config_.dev_addr, address, 1, data, size, 10);
 5442              		.loc 2 74 42 is_stmt 0 view .LVU1010
 5443 0a60 3B46     		mov	r3, r7
 5444 0a62 FFF7FEFF 		bl	_ZN5daisy9I2CHandle18WriteDataAtAddressEtttPhtm
 5445              	.LVL245:
  74:../libs/PoliTeKDSP/libs/libDaisy/src/dev/mpr121.h ****                    config_.dev_addr, address, 1, data, size, 10);
 5446              		.loc 2 74 42 view .LVU1011
 5447              	.LBE2088:
 5448              	.LBE2094:
 5449              	.LBB2095:
 5450              	.LBI2095:
 5451              		.loc 2 336 10 is_stmt 1 view .LVU1012
 5452              	.LBE2095:
 5453              	.LBE2104:
 5454              	.LBE2113:
 5455              	.LBB2114:
 5456              	.LBB2115:
 5457              	.LBB2116:
 5458              	.LBB2117:
 5459              	.LBB2118:
 5460              	.LBB2119:
 5461              	.LBB2120:
  66:../libs/PoliTeKDSP/libs/libDaisy/src/dev/mpr121.h ****                    config_.dev_addr, address, 1, data, size, 10);
 5462              		.loc 2 66 41 is_stmt 0 view .LVU1013
 5463 0a66 0096     		str	r6, [sp]
 5464 0a68 5E22     		movs	r2, #94
 5465 0a6a 8DF827A0 		strb	r10, [sp, #39]
 5466 0a6e CDE90178 		strd	r7, r8, [sp, #4]
 5467              	.LBE2120:
 5468              	.LBE2119:
 5469              	.LBE2118:
 5470              	.LBE2117:
 5471              	.LBE2116:
 5472              	.LBE2115:
 5473              	.LBE2114:
 5474              	.LBB2205:
 5475              	.LBB2105:
 5476              	.LBB2099:
 5477              	.LBB2096:
 5478              		.loc 2 336 55 view .LVU1014
 5479 0a72 94F84C30 		ldrb	r3, [r4, #76]	@ zero_extendqisi2
 5480              	.LBE2096:
 5481              	.LBE2099:
 5482              	.LBE2105:
 5483              	.LBE2205:
 5484              	.LBB2206:
 5485              	.LBB2199:
 5486              	.LBB2163:
 5487              	.LBB2140:
 5488              	.LBB2134:
ARM GAS  C:\Users\skipi\AppData\Local\Temp\ccnEQq3j.s 			page 120


 5489              	.LBB2124:
 5490              	.LBB2121:
  66:../libs/PoliTeKDSP/libs/libDaisy/src/dev/mpr121.h ****                    config_.dev_addr, address, 1, data, size, 10);
 5491              		.loc 2 66 41 view .LVU1015
 5492 0a76 94F84810 		ldrb	r1, [r4, #72]	@ zero_extendqisi2
 5493              	.LBE2121:
 5494              	.LBE2124:
 5495              	.LBE2134:
 5496              	.LBE2140:
 5497              	.LBE2163:
 5498              	.LBE2199:
 5499              	.LBE2206:
 5500              	.LBB2207:
 5501              	.LBB2106:
 5502              	.LBB2100:
 5503              	.LBB2097:
 5504              		.loc 2 336 55 view .LVU1016
 5505 0a7a 5045     		cmp	r0, r10
 5506 0a7c 18BF     		it	ne
 5507 0a7e 43F00103 		orrne	r3, r3, #1
 5508              	.LBE2097:
 5509              	.LBE2100:
 5510              	.LBE2106:
 5511              	.LBE2207:
 5512              	.LBB2208:
 5513              	.LBB2200:
 5514              	.LBB2164:
 5515              	.LBB2141:
 5516              	.LBB2135:
 5517              	.LBB2125:
 5518              	.LBB2122:
  66:../libs/PoliTeKDSP/libs/libDaisy/src/dev/mpr121.h ****                    config_.dev_addr, address, 1, data, size, 10);
 5519              		.loc 2 66 41 view .LVU1017
 5520 0a82 2846     		mov	r0, r5
 5521              	.LVL246:
  66:../libs/PoliTeKDSP/libs/libDaisy/src/dev/mpr121.h ****                    config_.dev_addr, address, 1, data, size, 10);
 5522              		.loc 2 66 41 view .LVU1018
 5523              	.LBE2122:
 5524              	.LBE2125:
 5525              	.LBE2135:
 5526              	.LBE2141:
 5527              	.LBE2164:
 5528              	.LBE2200:
 5529              	.LBE2208:
 5530              	.LBB2209:
 5531              	.LBB2107:
 5532              	.LBB2101:
 5533              	.LBB2098:
 5534              		.loc 2 336 55 view .LVU1019
 5535 0a84 84F84C30 		strb	r3, [r4, #76]
 5536              	.LVL247:
 5537              		.loc 2 336 55 view .LVU1020
 5538              	.LBE2098:
 5539              	.LBE2101:
 5540              	.LBE2107:
 5541              	.LBE2209:
 5542              	.LBB2210:
ARM GAS  C:\Users\skipi\AppData\Local\Temp\ccnEQq3j.s 			page 121


 5543              	.LBI2114:
 257:../libs/PoliTeKDSP/libs/libDaisy/src/dev/mpr121.h ****     {
 5544              		.loc 2 257 10 is_stmt 1 view .LVU1021
 5545              	.LBB2201:
 5546              	.LBB2165:
 5547              	.LBB2142:
 5548              	.LBI2117:
 232:../libs/PoliTeKDSP/libs/libDaisy/src/dev/mpr121.h ****     {
 5549              		.loc 2 232 13 view .LVU1022
 5550              	.LBB2136:
 5551              	.LBB2126:
 5552              	.LBI2119:
  63:../libs/PoliTeKDSP/libs/libDaisy/src/dev/mpr121.h ****     {
 5553              		.loc 2 63 10 view .LVU1023
 5554              	.LBB2123:
  65:../libs/PoliTeKDSP/libs/libDaisy/src/dev/mpr121.h ****                != i2c_.ReadDataAtAddress(
 5555              		.loc 2 65 9 view .LVU1024
  66:../libs/PoliTeKDSP/libs/libDaisy/src/dev/mpr121.h ****                    config_.dev_addr, address, 1, data, size, 10);
 5556              		.loc 2 66 41 is_stmt 0 view .LVU1025
 5557 0a88 3B46     		mov	r3, r7
 5558 0a8a FFF7FEFF 		bl	_ZN5daisy9I2CHandle17ReadDataAtAddressEtttPhtm
 5559              	.LVL248:
  66:../libs/PoliTeKDSP/libs/libDaisy/src/dev/mpr121.h ****                    config_.dev_addr, address, 1, data, size, 10);
 5560              		.loc 2 66 41 view .LVU1026
 5561              	.LBE2123:
 5562              	.LBE2126:
 5563              	.LBB2127:
 5564              	.LBI2127:
 5565              		.loc 2 336 10 is_stmt 1 view .LVU1027
 5566              	.LBE2127:
 5567              	.LBE2136:
 5568              	.LBE2142:
 5569              	.LBB2143:
 5570              	.LBB2144:
  74:../libs/PoliTeKDSP/libs/libDaisy/src/dev/mpr121.h ****                    config_.dev_addr, address, 1, data, size, 10);
 5571              		.loc 2 74 42 is_stmt 0 view .LVU1028
 5572 0a8e 0096     		str	r6, [sp]
 5573 0a90 5E22     		movs	r2, #94
 5574 0a92 CDE90178 		strd	r7, r8, [sp, #4]
 5575              	.LBE2144:
 5576              	.LBE2143:
 5577              	.LBB2149:
 5578              	.LBB2137:
 5579              	.LBB2131:
 5580              	.LBB2128:
 5581              		.loc 2 336 55 view .LVU1029
 5582 0a96 94F84C30 		ldrb	r3, [r4, #76]	@ zero_extendqisi2
 5583              	.LBE2128:
 5584              	.LBE2131:
 5585              	.LBE2137:
 5586              	.LBE2149:
 5587              	.LBB2150:
 5588              	.LBB2145:
  74:../libs/PoliTeKDSP/libs/libDaisy/src/dev/mpr121.h ****                    config_.dev_addr, address, 1, data, size, 10);
 5589              		.loc 2 74 42 view .LVU1030
 5590 0a9a 94F84810 		ldrb	r1, [r4, #72]	@ zero_extendqisi2
 5591              	.LBE2145:
ARM GAS  C:\Users\skipi\AppData\Local\Temp\ccnEQq3j.s 			page 122


 5592              	.LBE2150:
 5593              	.LBB2151:
 5594              	.LBB2138:
 5595              	.LBB2132:
 5596              	.LBB2129:
 5597              		.loc 2 336 55 view .LVU1031
 5598 0a9e 5045     		cmp	r0, r10
 5599 0aa0 18BF     		it	ne
 5600 0aa2 43F00103 		orrne	r3, r3, #1
 5601              	.LBE2129:
 5602              	.LBE2132:
 5603              	.LBE2138:
 5604              	.LBE2151:
 5605              	.LBB2152:
 5606              	.LBB2146:
  74:../libs/PoliTeKDSP/libs/libDaisy/src/dev/mpr121.h ****                    config_.dev_addr, address, 1, data, size, 10);
 5607              		.loc 2 74 42 view .LVU1032
 5608 0aa6 2846     		mov	r0, r5
 5609              	.LVL249:
  74:../libs/PoliTeKDSP/libs/libDaisy/src/dev/mpr121.h ****                    config_.dev_addr, address, 1, data, size, 10);
 5610              		.loc 2 74 42 view .LVU1033
 5611              	.LBE2146:
 5612              	.LBE2152:
 5613              	.LBB2153:
 5614              	.LBB2139:
 5615              	.LBB2133:
 5616              	.LBB2130:
 5617              		.loc 2 336 55 view .LVU1034
 5618 0aa8 84F84C30 		strb	r3, [r4, #76]
 5619              	.LVL250:
 5620              		.loc 2 336 55 view .LVU1035
 5621              	.LBE2130:
 5622              	.LBE2133:
 237:../libs/PoliTeKDSP/libs/libDaisy/src/dev/mpr121.h ****     }
 5623              		.loc 2 237 16 view .LVU1036
 5624 0aac 9DF83C30 		ldrb	r3, [sp, #60]	@ zero_extendqisi2
 5625              	.LVL251:
 237:../libs/PoliTeKDSP/libs/libDaisy/src/dev/mpr121.h ****     }
 5626              		.loc 2 237 16 view .LVU1037
 5627              	.LBE2139:
 5628              	.LBE2153:
 271:../libs/PoliTeKDSP/libs/libDaisy/src/dev/mpr121.h ****             // clear this register to set stop mode
 5629              		.loc 2 271 21 view .LVU1038
 5630 0ab0 8DF83CA0 		strb	r10, [sp, #60]
 5631              	.LVL252:
 5632              	.LBB2154:
 5633              	.LBI2143:
  71:../libs/PoliTeKDSP/libs/libDaisy/src/dev/mpr121.h ****     {
 5634              		.loc 2 71 10 is_stmt 1 view .LVU1039
 5635              	.LBB2147:
  73:../libs/PoliTeKDSP/libs/libDaisy/src/dev/mpr121.h ****                != i2c_.WriteDataAtAddress(
 5636              		.loc 2 73 9 view .LVU1040
 5637              	.LBE2147:
 5638              	.LBE2154:
 270:../libs/PoliTeKDSP/libs/libDaisy/src/dev/mpr121.h ****             uint8_t zero = 0x00;
 5639              		.loc 2 270 26 is_stmt 0 view .LVU1041
 5640 0ab4 8DF82830 		strb	r3, [sp, #40]
ARM GAS  C:\Users\skipi\AppData\Local\Temp\ccnEQq3j.s 			page 123


 5641              	.LBB2155:
 5642              	.LBB2148:
  74:../libs/PoliTeKDSP/libs/libDaisy/src/dev/mpr121.h ****                    config_.dev_addr, address, 1, data, size, 10);
 5643              		.loc 2 74 42 view .LVU1042
 5644 0ab8 3B46     		mov	r3, r7
 5645 0aba FFF7FEFF 		bl	_ZN5daisy9I2CHandle18WriteDataAtAddressEtttPhtm
 5646              	.LVL253:
  74:../libs/PoliTeKDSP/libs/libDaisy/src/dev/mpr121.h ****                    config_.dev_addr, address, 1, data, size, 10);
 5647              		.loc 2 74 42 view .LVU1043
 5648              	.LBE2148:
 5649              	.LBE2155:
 5650              	.LBB2156:
 5651              	.LBI2156:
 5652              		.loc 2 336 10 is_stmt 1 view .LVU1044
 5653              	.LBE2156:
 5654              	.LBE2165:
 5655              	.LBB2166:
 5656              	.LBB2167:
  74:../libs/PoliTeKDSP/libs/libDaisy/src/dev/mpr121.h ****                    config_.dev_addr, address, 1, data, size, 10);
 5657              		.loc 2 74 42 is_stmt 0 view .LVU1045
 5658 0abe 0DF12703 		add	r3, sp, #39
 5659 0ac2 5B22     		movs	r2, #91
 5660 0ac4 0093     		str	r3, [sp]
 5661 0ac6 CDE90178 		strd	r7, r8, [sp, #4]
 5662              	.LBE2167:
 5663              	.LBE2166:
 5664              	.LBB2171:
 5665              	.LBB2160:
 5666              	.LBB2157:
 5667              		.loc 2 336 55 view .LVU1046
 5668 0aca 94F84C30 		ldrb	r3, [r4, #76]	@ zero_extendqisi2
 5669              	.LBE2157:
 5670              	.LBE2160:
 5671              	.LBE2171:
 5672              	.LBB2172:
 5673              	.LBB2168:
  74:../libs/PoliTeKDSP/libs/libDaisy/src/dev/mpr121.h ****                    config_.dev_addr, address, 1, data, size, 10);
 5674              		.loc 2 74 42 view .LVU1047
 5675 0ace 94F84810 		ldrb	r1, [r4, #72]	@ zero_extendqisi2
 5676              	.LBE2168:
 5677              	.LBE2172:
 5678              	.LBB2173:
 5679              	.LBB2161:
 5680              	.LBB2158:
 5681              		.loc 2 336 55 view .LVU1048
 5682 0ad2 5045     		cmp	r0, r10
 5683 0ad4 18BF     		it	ne
 5684 0ad6 43F00103 		orrne	r3, r3, #1
 5685              	.LBE2158:
 5686              	.LBE2161:
 5687              	.LBE2173:
 5688              	.LBB2174:
 5689              	.LBB2169:
  74:../libs/PoliTeKDSP/libs/libDaisy/src/dev/mpr121.h ****                    config_.dev_addr, address, 1, data, size, 10);
 5690              		.loc 2 74 42 view .LVU1049
 5691 0ada 2846     		mov	r0, r5
 5692              	.LVL254:
ARM GAS  C:\Users\skipi\AppData\Local\Temp\ccnEQq3j.s 			page 124


  74:../libs/PoliTeKDSP/libs/libDaisy/src/dev/mpr121.h ****                    config_.dev_addr, address, 1, data, size, 10);
 5693              		.loc 2 74 42 view .LVU1050
 5694              	.LBE2169:
 5695              	.LBE2174:
 5696              	.LBB2175:
 5697              	.LBB2162:
 5698              	.LBB2159:
 5699              		.loc 2 336 55 view .LVU1051
 5700 0adc 84F84C30 		strb	r3, [r4, #76]
 5701              	.LVL255:
 5702              		.loc 2 336 55 view .LVU1052
 5703              	.LBE2159:
 5704              	.LBE2162:
 5705              	.LBE2175:
 5706              	.LBB2176:
 5707              	.LBI2166:
  71:../libs/PoliTeKDSP/libs/libDaisy/src/dev/mpr121.h ****     {
 5708              		.loc 2 71 10 is_stmt 1 view .LVU1053
 5709              	.LBB2170:
  73:../libs/PoliTeKDSP/libs/libDaisy/src/dev/mpr121.h ****                != i2c_.WriteDataAtAddress(
 5710              		.loc 2 73 9 view .LVU1054
  74:../libs/PoliTeKDSP/libs/libDaisy/src/dev/mpr121.h ****                    config_.dev_addr, address, 1, data, size, 10);
 5711              		.loc 2 74 42 is_stmt 0 view .LVU1055
 5712 0ae0 3B46     		mov	r3, r7
 5713 0ae2 FFF7FEFF 		bl	_ZN5daisy9I2CHandle18WriteDataAtAddressEtttPhtm
 5714              	.LVL256:
  74:../libs/PoliTeKDSP/libs/libDaisy/src/dev/mpr121.h ****                    config_.dev_addr, address, 1, data, size, 10);
 5715              		.loc 2 74 42 view .LVU1056
 5716              	.LBE2170:
 5717              	.LBE2176:
 5718              	.LBB2177:
 5719              	.LBI2177:
 5720              		.loc 2 336 10 is_stmt 1 view .LVU1057
 5721              	.LBE2177:
 5722              	.LBB2181:
 5723              	.LBB2182:
  74:../libs/PoliTeKDSP/libs/libDaisy/src/dev/mpr121.h ****                    config_.dev_addr, address, 1, data, size, 10);
 5724              		.loc 2 74 42 is_stmt 0 view .LVU1058
 5725 0ae6 CDF800B0 		str	fp, [sp]
 5726 0aea 5E22     		movs	r2, #94
 5727 0aec CDE90178 		strd	r7, r8, [sp, #4]
 5728              	.LBE2182:
 5729              	.LBE2181:
 5730              	.LBB2186:
 5731              	.LBB2178:
 5732              		.loc 2 336 55 view .LVU1059
 5733 0af0 94F84C30 		ldrb	r3, [r4, #76]	@ zero_extendqisi2
 5734              	.LBE2178:
 5735              	.LBE2186:
 5736              	.LBB2187:
 5737              	.LBB2183:
  74:../libs/PoliTeKDSP/libs/libDaisy/src/dev/mpr121.h ****                    config_.dev_addr, address, 1, data, size, 10);
 5738              		.loc 2 74 42 view .LVU1060
 5739 0af4 94F84810 		ldrb	r1, [r4, #72]	@ zero_extendqisi2
 5740              	.LBE2183:
 5741              	.LBE2187:
 5742              	.LBB2188:
ARM GAS  C:\Users\skipi\AppData\Local\Temp\ccnEQq3j.s 			page 125


 5743              	.LBB2179:
 5744              		.loc 2 336 55 view .LVU1061
 5745 0af8 5045     		cmp	r0, r10
 5746 0afa 18BF     		it	ne
 5747 0afc 43F00103 		orrne	r3, r3, #1
 5748              	.LBE2179:
 5749              	.LBE2188:
 5750              	.LBB2189:
 5751              	.LBB2184:
  74:../libs/PoliTeKDSP/libs/libDaisy/src/dev/mpr121.h ****                    config_.dev_addr, address, 1, data, size, 10);
 5752              		.loc 2 74 42 view .LVU1062
 5753 0b00 2846     		mov	r0, r5
 5754              	.LVL257:
  74:../libs/PoliTeKDSP/libs/libDaisy/src/dev/mpr121.h ****                    config_.dev_addr, address, 1, data, size, 10);
 5755              		.loc 2 74 42 view .LVU1063
 5756              	.LBE2184:
 5757              	.LBE2189:
 5758              	.LBB2190:
 5759              	.LBB2180:
 5760              		.loc 2 336 55 view .LVU1064
 5761 0b02 84F84C30 		strb	r3, [r4, #76]
 5762              	.LVL258:
 5763              		.loc 2 336 55 view .LVU1065
 5764              	.LBE2180:
 5765              	.LBE2190:
 5766              	.LBB2191:
 5767              	.LBI2181:
  71:../libs/PoliTeKDSP/libs/libDaisy/src/dev/mpr121.h ****     {
 5768              		.loc 2 71 10 is_stmt 1 view .LVU1066
 5769              	.LBB2185:
  73:../libs/PoliTeKDSP/libs/libDaisy/src/dev/mpr121.h ****                != i2c_.WriteDataAtAddress(
 5770              		.loc 2 73 9 view .LVU1067
  74:../libs/PoliTeKDSP/libs/libDaisy/src/dev/mpr121.h ****                    config_.dev_addr, address, 1, data, size, 10);
 5771              		.loc 2 74 42 is_stmt 0 view .LVU1068
 5772 0b06 3B46     		mov	r3, r7
 5773 0b08 FFF7FEFF 		bl	_ZN5daisy9I2CHandle18WriteDataAtAddressEtttPhtm
 5774              	.LVL259:
  74:../libs/PoliTeKDSP/libs/libDaisy/src/dev/mpr121.h ****                    config_.dev_addr, address, 1, data, size, 10);
 5775              		.loc 2 74 42 view .LVU1069
 5776              	.LBE2185:
 5777              	.LBE2191:
 5778              	.LBB2192:
 5779              	.LBI2192:
 5780              		.loc 2 336 10 is_stmt 1 view .LVU1070
 5781              	.LBE2192:
 5782              	.LBE2201:
 5783              	.LBE2210:
 5784              	.LBB2211:
 5785              	.LBB2212:
 5786              	.LBB2213:
 5787              	.LBB2214:
 5788              	.LBB2215:
 5789              	.LBB2216:
 5790              	.LBB2217:
  66:../libs/PoliTeKDSP/libs/libDaisy/src/dev/mpr121.h ****                    config_.dev_addr, address, 1, data, size, 10);
 5791              		.loc 2 66 41 is_stmt 0 view .LVU1071
 5792 0b0c 0096     		str	r6, [sp]
ARM GAS  C:\Users\skipi\AppData\Local\Temp\ccnEQq3j.s 			page 126


 5793 0b0e 5E22     		movs	r2, #94
 5794 0b10 CDE90178 		strd	r7, r8, [sp, #4]
 5795              	.LBE2217:
 5796              	.LBE2216:
 5797              	.LBE2215:
 5798              	.LBE2214:
 5799              	.LBE2213:
 5800              	.LBE2212:
 5801              	.LBE2211:
 5802              	.LBB2302:
 5803              	.LBB2202:
 5804              	.LBB2196:
 5805              	.LBB2193:
 5806              		.loc 2 336 55 view .LVU1072
 5807 0b14 94F84C30 		ldrb	r3, [r4, #76]	@ zero_extendqisi2
 5808              	.LBE2193:
 5809              	.LBE2196:
 5810              	.LBE2202:
 5811              	.LBE2302:
 5812              	.LBB2303:
 5813              	.LBB2296:
 5814              	.LBB2260:
 5815              	.LBB2237:
 5816              	.LBB2231:
 5817              	.LBB2221:
 5818              	.LBB2218:
  66:../libs/PoliTeKDSP/libs/libDaisy/src/dev/mpr121.h ****                    config_.dev_addr, address, 1, data, size, 10);
 5819              		.loc 2 66 41 view .LVU1073
 5820 0b18 94F84810 		ldrb	r1, [r4, #72]	@ zero_extendqisi2
 5821              	.LBE2218:
 5822              	.LBE2221:
 5823              	.LBE2231:
 5824              	.LBE2237:
 5825              	.LBE2260:
 5826              	.LBE2296:
 5827              	.LBE2303:
 5828              	.LBB2304:
 5829              	.LBB2203:
 5830              	.LBB2197:
 5831              	.LBB2194:
 5832              		.loc 2 336 55 view .LVU1074
 5833 0b1c 5045     		cmp	r0, r10
 5834 0b1e 18BF     		it	ne
 5835 0b20 43F00103 		orrne	r3, r3, #1
 5836              	.LBE2194:
 5837              	.LBE2197:
 5838              	.LBE2203:
 5839              	.LBE2304:
 5840              	.LBB2305:
 5841              	.LBB2297:
 5842              	.LBB2261:
 5843              	.LBB2238:
 5844              	.LBB2232:
 5845              	.LBB2222:
 5846              	.LBB2219:
  66:../libs/PoliTeKDSP/libs/libDaisy/src/dev/mpr121.h ****                    config_.dev_addr, address, 1, data, size, 10);
 5847              		.loc 2 66 41 view .LVU1075
ARM GAS  C:\Users\skipi\AppData\Local\Temp\ccnEQq3j.s 			page 127


 5848 0b24 2846     		mov	r0, r5
 5849              	.LVL260:
  66:../libs/PoliTeKDSP/libs/libDaisy/src/dev/mpr121.h ****                    config_.dev_addr, address, 1, data, size, 10);
 5850              		.loc 2 66 41 view .LVU1076
 5851              	.LBE2219:
 5852              	.LBE2222:
 5853              	.LBE2232:
 5854              	.LBE2238:
 5855              	.LBE2261:
 5856              	.LBE2297:
 5857              	.LBE2305:
 5858              	.LBB2306:
 5859              	.LBB2204:
 5860              	.LBB2198:
 5861              	.LBB2195:
 5862              		.loc 2 336 55 view .LVU1077
 5863 0b26 84F84C30 		strb	r3, [r4, #76]
 5864              	.LVL261:
 5865              		.loc 2 336 55 view .LVU1078
 5866 0b2a 1023     		movs	r3, #16
 5867 0b2c 8DF82730 		strb	r3, [sp, #39]
 5868              	.LVL262:
 5869              		.loc 2 336 55 view .LVU1079
 5870              	.LBE2195:
 5871              	.LBE2198:
 5872              	.LBE2204:
 5873              	.LBE2306:
 5874              	.LBB2307:
 5875              	.LBI2211:
 257:../libs/PoliTeKDSP/libs/libDaisy/src/dev/mpr121.h ****     {
 5876              		.loc 2 257 10 is_stmt 1 view .LVU1080
 5877              	.LBB2298:
 5878              	.LBB2262:
 5879              	.LBB2239:
 5880              	.LBI2214:
 232:../libs/PoliTeKDSP/libs/libDaisy/src/dev/mpr121.h ****     {
 5881              		.loc 2 232 13 view .LVU1081
 5882              	.LBB2233:
 5883              	.LBB2223:
 5884              	.LBI2216:
  63:../libs/PoliTeKDSP/libs/libDaisy/src/dev/mpr121.h ****     {
 5885              		.loc 2 63 10 view .LVU1082
 5886              	.LBB2220:
  65:../libs/PoliTeKDSP/libs/libDaisy/src/dev/mpr121.h ****                != i2c_.ReadDataAtAddress(
 5887              		.loc 2 65 9 view .LVU1083
  66:../libs/PoliTeKDSP/libs/libDaisy/src/dev/mpr121.h ****                    config_.dev_addr, address, 1, data, size, 10);
 5888              		.loc 2 66 41 is_stmt 0 view .LVU1084
 5889 0b30 3B46     		mov	r3, r7
 5890              	.LVL263:
  66:../libs/PoliTeKDSP/libs/libDaisy/src/dev/mpr121.h ****                    config_.dev_addr, address, 1, data, size, 10);
 5891              		.loc 2 66 41 view .LVU1085
 5892 0b32 FFF7FEFF 		bl	_ZN5daisy9I2CHandle17ReadDataAtAddressEtttPhtm
 5893              	.LVL264:
  66:../libs/PoliTeKDSP/libs/libDaisy/src/dev/mpr121.h ****                    config_.dev_addr, address, 1, data, size, 10);
 5894              		.loc 2 66 41 view .LVU1086
 5895              	.LBE2220:
 5896              	.LBE2223:
ARM GAS  C:\Users\skipi\AppData\Local\Temp\ccnEQq3j.s 			page 128


 5897              	.LBB2224:
 5898              	.LBI2224:
 5899              		.loc 2 336 10 is_stmt 1 view .LVU1087
 5900              	.LBE2224:
 5901              	.LBE2233:
 5902              	.LBE2239:
 5903              	.LBB2240:
 5904              	.LBB2241:
  74:../libs/PoliTeKDSP/libs/libDaisy/src/dev/mpr121.h ****                    config_.dev_addr, address, 1, data, size, 10);
 5905              		.loc 2 74 42 is_stmt 0 view .LVU1088
 5906 0b36 0096     		str	r6, [sp]
 5907 0b38 5E22     		movs	r2, #94
 5908 0b3a CDE90178 		strd	r7, r8, [sp, #4]
 5909              	.LBE2241:
 5910              	.LBE2240:
 5911              	.LBB2246:
 5912              	.LBB2234:
 5913              	.LBB2228:
 5914              	.LBB2225:
 5915              		.loc 2 336 55 view .LVU1089
 5916 0b3e 94F84C30 		ldrb	r3, [r4, #76]	@ zero_extendqisi2
 5917              	.LBE2225:
 5918              	.LBE2228:
 5919              	.LBE2234:
 5920              	.LBE2246:
 5921              	.LBB2247:
 5922              	.LBB2242:
  74:../libs/PoliTeKDSP/libs/libDaisy/src/dev/mpr121.h ****                    config_.dev_addr, address, 1, data, size, 10);
 5923              		.loc 2 74 42 view .LVU1090
 5924 0b42 94F84810 		ldrb	r1, [r4, #72]	@ zero_extendqisi2
 5925              	.LBE2242:
 5926              	.LBE2247:
 5927              	.LBB2248:
 5928              	.LBB2235:
 5929              	.LBB2229:
 5930              	.LBB2226:
 5931              		.loc 2 336 55 view .LVU1091
 5932 0b46 5045     		cmp	r0, r10
 5933 0b48 18BF     		it	ne
 5934 0b4a 43F00103 		orrne	r3, r3, #1
 5935              	.LBE2226:
 5936              	.LBE2229:
 5937              	.LBE2235:
 5938              	.LBE2248:
 5939              	.LBB2249:
 5940              	.LBB2243:
  74:../libs/PoliTeKDSP/libs/libDaisy/src/dev/mpr121.h ****                    config_.dev_addr, address, 1, data, size, 10);
 5941              		.loc 2 74 42 view .LVU1092
 5942 0b4e 2846     		mov	r0, r5
 5943              	.LVL265:
  74:../libs/PoliTeKDSP/libs/libDaisy/src/dev/mpr121.h ****                    config_.dev_addr, address, 1, data, size, 10);
 5944              		.loc 2 74 42 view .LVU1093
 5945              	.LBE2243:
 5946              	.LBE2249:
 5947              	.LBB2250:
 5948              	.LBB2236:
 5949              	.LBB2230:
ARM GAS  C:\Users\skipi\AppData\Local\Temp\ccnEQq3j.s 			page 129


 5950              	.LBB2227:
 5951              		.loc 2 336 55 view .LVU1094
 5952 0b50 84F84C30 		strb	r3, [r4, #76]
 5953              	.LVL266:
 5954              		.loc 2 336 55 view .LVU1095
 5955              	.LBE2227:
 5956              	.LBE2230:
 237:../libs/PoliTeKDSP/libs/libDaisy/src/dev/mpr121.h ****     }
 5957              		.loc 2 237 16 view .LVU1096
 5958 0b54 9DF83C30 		ldrb	r3, [sp, #60]	@ zero_extendqisi2
 5959              	.LVL267:
 237:../libs/PoliTeKDSP/libs/libDaisy/src/dev/mpr121.h ****     }
 5960              		.loc 2 237 16 view .LVU1097
 5961              	.LBE2236:
 5962              	.LBE2250:
 271:../libs/PoliTeKDSP/libs/libDaisy/src/dev/mpr121.h ****             // clear this register to set stop mode
 5963              		.loc 2 271 21 view .LVU1098
 5964 0b58 8DF83CA0 		strb	r10, [sp, #60]
 5965              	.LVL268:
 5966              	.LBB2251:
 5967              	.LBI2240:
  71:../libs/PoliTeKDSP/libs/libDaisy/src/dev/mpr121.h ****     {
 5968              		.loc 2 71 10 is_stmt 1 view .LVU1099
 5969              	.LBB2244:
  73:../libs/PoliTeKDSP/libs/libDaisy/src/dev/mpr121.h ****                != i2c_.WriteDataAtAddress(
 5970              		.loc 2 73 9 view .LVU1100
 5971              	.LBE2244:
 5972              	.LBE2251:
 270:../libs/PoliTeKDSP/libs/libDaisy/src/dev/mpr121.h ****             uint8_t zero = 0x00;
 5973              		.loc 2 270 26 is_stmt 0 view .LVU1101
 5974 0b5c 8DF82830 		strb	r3, [sp, #40]
 5975              	.LBB2252:
 5976              	.LBB2245:
  74:../libs/PoliTeKDSP/libs/libDaisy/src/dev/mpr121.h ****                    config_.dev_addr, address, 1, data, size, 10);
 5977              		.loc 2 74 42 view .LVU1102
 5978 0b60 3B46     		mov	r3, r7
 5979 0b62 FFF7FEFF 		bl	_ZN5daisy9I2CHandle18WriteDataAtAddressEtttPhtm
 5980              	.LVL269:
  74:../libs/PoliTeKDSP/libs/libDaisy/src/dev/mpr121.h ****                    config_.dev_addr, address, 1, data, size, 10);
 5981              		.loc 2 74 42 view .LVU1103
 5982              	.LBE2245:
 5983              	.LBE2252:
 5984              	.LBB2253:
 5985              	.LBI2253:
 5986              		.loc 2 336 10 is_stmt 1 view .LVU1104
 5987              	.LBE2253:
 5988              	.LBE2262:
 5989              	.LBB2263:
 5990              	.LBB2264:
  74:../libs/PoliTeKDSP/libs/libDaisy/src/dev/mpr121.h ****                    config_.dev_addr, address, 1, data, size, 10);
 5991              		.loc 2 74 42 is_stmt 0 view .LVU1105
 5992 0b66 0DF12703 		add	r3, sp, #39
 5993 0b6a 5C22     		movs	r2, #92
 5994 0b6c 0093     		str	r3, [sp]
 5995 0b6e CDE90178 		strd	r7, r8, [sp, #4]
 5996              	.LBE2264:
 5997              	.LBE2263:
ARM GAS  C:\Users\skipi\AppData\Local\Temp\ccnEQq3j.s 			page 130


 5998              	.LBB2268:
 5999              	.LBB2257:
 6000              	.LBB2254:
 6001              		.loc 2 336 55 view .LVU1106
 6002 0b72 94F84C30 		ldrb	r3, [r4, #76]	@ zero_extendqisi2
 6003              	.LBE2254:
 6004              	.LBE2257:
 6005              	.LBE2268:
 6006              	.LBB2269:
 6007              	.LBB2265:
  74:../libs/PoliTeKDSP/libs/libDaisy/src/dev/mpr121.h ****                    config_.dev_addr, address, 1, data, size, 10);
 6008              		.loc 2 74 42 view .LVU1107
 6009 0b76 94F84810 		ldrb	r1, [r4, #72]	@ zero_extendqisi2
 6010              	.LBE2265:
 6011              	.LBE2269:
 6012              	.LBB2270:
 6013              	.LBB2258:
 6014              	.LBB2255:
 6015              		.loc 2 336 55 view .LVU1108
 6016 0b7a 5045     		cmp	r0, r10
 6017 0b7c 18BF     		it	ne
 6018 0b7e 43F00103 		orrne	r3, r3, #1
 6019              	.LBE2255:
 6020              	.LBE2258:
 6021              	.LBE2270:
 6022              	.LBB2271:
 6023              	.LBB2266:
  74:../libs/PoliTeKDSP/libs/libDaisy/src/dev/mpr121.h ****                    config_.dev_addr, address, 1, data, size, 10);
 6024              		.loc 2 74 42 view .LVU1109
 6025 0b82 2846     		mov	r0, r5
 6026              	.LVL270:
  74:../libs/PoliTeKDSP/libs/libDaisy/src/dev/mpr121.h ****                    config_.dev_addr, address, 1, data, size, 10);
 6027              		.loc 2 74 42 view .LVU1110
 6028              	.LBE2266:
 6029              	.LBE2271:
 6030              	.LBB2272:
 6031              	.LBB2259:
 6032              	.LBB2256:
 6033              		.loc 2 336 55 view .LVU1111
 6034 0b84 84F84C30 		strb	r3, [r4, #76]
 6035              	.LVL271:
 6036              		.loc 2 336 55 view .LVU1112
 6037              	.LBE2256:
 6038              	.LBE2259:
 6039              	.LBE2272:
 6040              	.LBB2273:
 6041              	.LBI2263:
  71:../libs/PoliTeKDSP/libs/libDaisy/src/dev/mpr121.h ****     {
 6042              		.loc 2 71 10 is_stmt 1 view .LVU1113
 6043              	.LBB2267:
  73:../libs/PoliTeKDSP/libs/libDaisy/src/dev/mpr121.h ****                != i2c_.WriteDataAtAddress(
 6044              		.loc 2 73 9 view .LVU1114
  74:../libs/PoliTeKDSP/libs/libDaisy/src/dev/mpr121.h ****                    config_.dev_addr, address, 1, data, size, 10);
 6045              		.loc 2 74 42 is_stmt 0 view .LVU1115
 6046 0b88 3B46     		mov	r3, r7
 6047 0b8a FFF7FEFF 		bl	_ZN5daisy9I2CHandle18WriteDataAtAddressEtttPhtm
 6048              	.LVL272:
ARM GAS  C:\Users\skipi\AppData\Local\Temp\ccnEQq3j.s 			page 131


  74:../libs/PoliTeKDSP/libs/libDaisy/src/dev/mpr121.h ****                    config_.dev_addr, address, 1, data, size, 10);
 6049              		.loc 2 74 42 view .LVU1116
 6050              	.LBE2267:
 6051              	.LBE2273:
 6052              	.LBB2274:
 6053              	.LBI2274:
 6054              		.loc 2 336 10 is_stmt 1 view .LVU1117
 6055              	.LBE2274:
 6056              	.LBB2278:
 6057              	.LBB2279:
  74:../libs/PoliTeKDSP/libs/libDaisy/src/dev/mpr121.h ****                    config_.dev_addr, address, 1, data, size, 10);
 6058              		.loc 2 74 42 is_stmt 0 view .LVU1118
 6059 0b8e CDF800B0 		str	fp, [sp]
 6060 0b92 5E22     		movs	r2, #94
 6061 0b94 CDE90178 		strd	r7, r8, [sp, #4]
 6062              	.LBE2279:
 6063              	.LBE2278:
 6064              	.LBB2283:
 6065              	.LBB2275:
 6066              		.loc 2 336 55 view .LVU1119
 6067 0b98 94F84C30 		ldrb	r3, [r4, #76]	@ zero_extendqisi2
 6068              	.LBE2275:
 6069              	.LBE2283:
 6070              	.LBB2284:
 6071              	.LBB2280:
  74:../libs/PoliTeKDSP/libs/libDaisy/src/dev/mpr121.h ****                    config_.dev_addr, address, 1, data, size, 10);
 6072              		.loc 2 74 42 view .LVU1120
 6073 0b9c 94F84810 		ldrb	r1, [r4, #72]	@ zero_extendqisi2
 6074              	.LBE2280:
 6075              	.LBE2284:
 6076              	.LBB2285:
 6077              	.LBB2276:
 6078              		.loc 2 336 55 view .LVU1121
 6079 0ba0 5045     		cmp	r0, r10
 6080 0ba2 18BF     		it	ne
 6081 0ba4 43F00103 		orrne	r3, r3, #1
 6082              	.LBE2276:
 6083              	.LBE2285:
 6084              	.LBB2286:
 6085              	.LBB2281:
  74:../libs/PoliTeKDSP/libs/libDaisy/src/dev/mpr121.h ****                    config_.dev_addr, address, 1, data, size, 10);
 6086              		.loc 2 74 42 view .LVU1122
 6087 0ba8 2846     		mov	r0, r5
 6088              	.LVL273:
  74:../libs/PoliTeKDSP/libs/libDaisy/src/dev/mpr121.h ****                    config_.dev_addr, address, 1, data, size, 10);
 6089              		.loc 2 74 42 view .LVU1123
 6090              	.LBE2281:
 6091              	.LBE2286:
 6092              	.LBB2287:
 6093              	.LBB2277:
 6094              		.loc 2 336 55 view .LVU1124
 6095 0baa 84F84C30 		strb	r3, [r4, #76]
 6096              	.LVL274:
 6097              		.loc 2 336 55 view .LVU1125
 6098              	.LBE2277:
 6099              	.LBE2287:
 6100              	.LBB2288:
ARM GAS  C:\Users\skipi\AppData\Local\Temp\ccnEQq3j.s 			page 132


 6101              	.LBI2278:
  71:../libs/PoliTeKDSP/libs/libDaisy/src/dev/mpr121.h ****     {
 6102              		.loc 2 71 10 is_stmt 1 view .LVU1126
 6103              	.LBB2282:
  73:../libs/PoliTeKDSP/libs/libDaisy/src/dev/mpr121.h ****                != i2c_.WriteDataAtAddress(
 6104              		.loc 2 73 9 view .LVU1127
  74:../libs/PoliTeKDSP/libs/libDaisy/src/dev/mpr121.h ****                    config_.dev_addr, address, 1, data, size, 10);
 6105              		.loc 2 74 42 is_stmt 0 view .LVU1128
 6106 0bae 3B46     		mov	r3, r7
 6107 0bb0 FFF7FEFF 		bl	_ZN5daisy9I2CHandle18WriteDataAtAddressEtttPhtm
 6108              	.LVL275:
  74:../libs/PoliTeKDSP/libs/libDaisy/src/dev/mpr121.h ****                    config_.dev_addr, address, 1, data, size, 10);
 6109              		.loc 2 74 42 view .LVU1129
 6110              	.LBE2282:
 6111              	.LBE2288:
 6112              	.LBB2289:
 6113              	.LBI2289:
 6114              		.loc 2 336 10 is_stmt 1 view .LVU1130
 6115              	.LBE2289:
 6116              	.LBE2298:
 6117              	.LBE2307:
 6118              	.LBB2308:
 6119              	.LBB2309:
 6120              	.LBB2310:
 6121              	.LBB2311:
 6122              	.LBB2312:
 6123              	.LBB2313:
 6124              	.LBB2314:
  66:../libs/PoliTeKDSP/libs/libDaisy/src/dev/mpr121.h ****                    config_.dev_addr, address, 1, data, size, 10);
 6125              		.loc 2 66 41 is_stmt 0 view .LVU1131
 6126 0bb4 0096     		str	r6, [sp]
 6127 0bb6 5E22     		movs	r2, #94
 6128 0bb8 CDE90178 		strd	r7, r8, [sp, #4]
 6129              	.LBE2314:
 6130              	.LBE2313:
 6131              	.LBE2312:
 6132              	.LBE2311:
 6133              	.LBE2310:
 6134              	.LBE2309:
 6135              	.LBE2308:
 6136              	.LBB2402:
 6137              	.LBB2299:
 6138              	.LBB2293:
 6139              	.LBB2290:
 6140              		.loc 2 336 55 view .LVU1132
 6141 0bbc 94F84C30 		ldrb	r3, [r4, #76]	@ zero_extendqisi2
 6142              	.LBE2290:
 6143              	.LBE2293:
 6144              	.LBE2299:
 6145              	.LBE2402:
 6146              	.LBB2403:
 6147              	.LBB2395:
 6148              	.LBB2357:
 6149              	.LBB2334:
 6150              	.LBB2328:
 6151              	.LBB2318:
 6152              	.LBB2315:
ARM GAS  C:\Users\skipi\AppData\Local\Temp\ccnEQq3j.s 			page 133


  66:../libs/PoliTeKDSP/libs/libDaisy/src/dev/mpr121.h ****                    config_.dev_addr, address, 1, data, size, 10);
 6153              		.loc 2 66 41 view .LVU1133
 6154 0bc0 94F84810 		ldrb	r1, [r4, #72]	@ zero_extendqisi2
 6155              	.LBE2315:
 6156              	.LBE2318:
 6157              	.LBE2328:
 6158              	.LBE2334:
 6159              	.LBE2357:
 6160              	.LBE2395:
 6161              	.LBE2403:
 6162              	.LBB2404:
 6163              	.LBB2300:
 6164              	.LBB2294:
 6165              	.LBB2291:
 6166              		.loc 2 336 55 view .LVU1134
 6167 0bc4 5045     		cmp	r0, r10
 6168 0bc6 18BF     		it	ne
 6169 0bc8 43F00103 		orrne	r3, r3, #1
 6170              	.LBE2291:
 6171              	.LBE2294:
 6172              	.LBE2300:
 6173              	.LBE2404:
 6174              	.LBB2405:
 6175              	.LBB2396:
 6176              	.LBB2358:
 6177              	.LBB2335:
 6178              	.LBB2329:
 6179              	.LBB2319:
 6180              	.LBB2316:
  66:../libs/PoliTeKDSP/libs/libDaisy/src/dev/mpr121.h ****                    config_.dev_addr, address, 1, data, size, 10);
 6181              		.loc 2 66 41 view .LVU1135
 6182 0bcc 2846     		mov	r0, r5
 6183              	.LVL276:
  66:../libs/PoliTeKDSP/libs/libDaisy/src/dev/mpr121.h ****                    config_.dev_addr, address, 1, data, size, 10);
 6184              		.loc 2 66 41 view .LVU1136
 6185              	.LBE2316:
 6186              	.LBE2319:
 6187              	.LBE2329:
 6188              	.LBE2335:
 6189              	.LBE2358:
 6190              	.LBE2396:
 6191              	.LBE2405:
 6192              	.LBB2406:
 6193              	.LBB2301:
 6194              	.LBB2295:
 6195              	.LBB2292:
 6196              		.loc 2 336 55 view .LVU1137
 6197 0bce 84F84C30 		strb	r3, [r4, #76]
 6198              	.LVL277:
 6199              		.loc 2 336 55 view .LVU1138
 6200 0bd2 2023     		movs	r3, #32
 6201 0bd4 8DF82730 		strb	r3, [sp, #39]
 6202              	.LVL278:
 6203              		.loc 2 336 55 view .LVU1139
 6204              	.LBE2292:
 6205              	.LBE2295:
 6206              	.LBE2301:
ARM GAS  C:\Users\skipi\AppData\Local\Temp\ccnEQq3j.s 			page 134


 6207              	.LBE2406:
 6208              	.LBB2407:
 6209              	.LBI2308:
 257:../libs/PoliTeKDSP/libs/libDaisy/src/dev/mpr121.h ****     {
 6210              		.loc 2 257 10 is_stmt 1 view .LVU1140
 6211              	.LBB2397:
 6212              	.LBB2359:
 6213              	.LBB2336:
 6214              	.LBI2311:
 232:../libs/PoliTeKDSP/libs/libDaisy/src/dev/mpr121.h ****     {
 6215              		.loc 2 232 13 view .LVU1141
 6216              	.LBB2330:
 6217              	.LBB2320:
 6218              	.LBI2313:
  63:../libs/PoliTeKDSP/libs/libDaisy/src/dev/mpr121.h ****     {
 6219              		.loc 2 63 10 view .LVU1142
 6220              	.LBB2317:
  65:../libs/PoliTeKDSP/libs/libDaisy/src/dev/mpr121.h ****                != i2c_.ReadDataAtAddress(
 6221              		.loc 2 65 9 view .LVU1143
  66:../libs/PoliTeKDSP/libs/libDaisy/src/dev/mpr121.h ****                    config_.dev_addr, address, 1, data, size, 10);
 6222              		.loc 2 66 41 is_stmt 0 view .LVU1144
 6223 0bd8 3B46     		mov	r3, r7
 6224              	.LVL279:
  66:../libs/PoliTeKDSP/libs/libDaisy/src/dev/mpr121.h ****                    config_.dev_addr, address, 1, data, size, 10);
 6225              		.loc 2 66 41 view .LVU1145
 6226 0bda FFF7FEFF 		bl	_ZN5daisy9I2CHandle17ReadDataAtAddressEtttPhtm
 6227              	.LVL280:
  66:../libs/PoliTeKDSP/libs/libDaisy/src/dev/mpr121.h ****                    config_.dev_addr, address, 1, data, size, 10);
 6228              		.loc 2 66 41 view .LVU1146
 6229              	.LBE2317:
 6230              	.LBE2320:
 6231              	.LBB2321:
 6232              	.LBI2321:
 6233              		.loc 2 336 10 is_stmt 1 view .LVU1147
 6234              	.LBE2321:
 6235              	.LBE2330:
 6236              	.LBE2336:
 6237              	.LBB2337:
 6238              	.LBB2338:
  74:../libs/PoliTeKDSP/libs/libDaisy/src/dev/mpr121.h ****                    config_.dev_addr, address, 1, data, size, 10);
 6239              		.loc 2 74 42 is_stmt 0 view .LVU1148
 6240 0bde 0096     		str	r6, [sp]
 6241 0be0 5E22     		movs	r2, #94
 6242 0be2 CDE90178 		strd	r7, r8, [sp, #4]
 6243              	.LBE2338:
 6244              	.LBE2337:
 6245              	.LBB2343:
 6246              	.LBB2331:
 6247              	.LBB2325:
 6248              	.LBB2322:
 6249              		.loc 2 336 55 view .LVU1149
 6250 0be6 94F84C30 		ldrb	r3, [r4, #76]	@ zero_extendqisi2
 6251              	.LBE2322:
 6252              	.LBE2325:
 6253              	.LBE2331:
 6254              	.LBE2343:
 6255              	.LBB2344:
ARM GAS  C:\Users\skipi\AppData\Local\Temp\ccnEQq3j.s 			page 135


 6256              	.LBB2339:
  74:../libs/PoliTeKDSP/libs/libDaisy/src/dev/mpr121.h ****                    config_.dev_addr, address, 1, data, size, 10);
 6257              		.loc 2 74 42 view .LVU1150
 6258 0bea 94F84810 		ldrb	r1, [r4, #72]	@ zero_extendqisi2
 6259              	.LBE2339:
 6260              	.LBE2344:
 6261              	.LBB2345:
 6262              	.LBB2332:
 6263              	.LBB2326:
 6264              	.LBB2323:
 6265              		.loc 2 336 55 view .LVU1151
 6266 0bee 5045     		cmp	r0, r10
 6267 0bf0 18BF     		it	ne
 6268 0bf2 43F00103 		orrne	r3, r3, #1
 6269              	.LBE2323:
 6270              	.LBE2326:
 6271              	.LBE2332:
 6272              	.LBE2345:
 6273              	.LBB2346:
 6274              	.LBB2340:
  74:../libs/PoliTeKDSP/libs/libDaisy/src/dev/mpr121.h ****                    config_.dev_addr, address, 1, data, size, 10);
 6275              		.loc 2 74 42 view .LVU1152
 6276 0bf6 2846     		mov	r0, r5
 6277              	.LVL281:
  74:../libs/PoliTeKDSP/libs/libDaisy/src/dev/mpr121.h ****                    config_.dev_addr, address, 1, data, size, 10);
 6278              		.loc 2 74 42 view .LVU1153
 6279              	.LBE2340:
 6280              	.LBE2346:
 6281              	.LBB2347:
 6282              	.LBB2333:
 6283              	.LBB2327:
 6284              	.LBB2324:
 6285              		.loc 2 336 55 view .LVU1154
 6286 0bf8 84F84C30 		strb	r3, [r4, #76]
 6287              	.LVL282:
 6288              		.loc 2 336 55 view .LVU1155
 6289              	.LBE2324:
 6290              	.LBE2327:
 237:../libs/PoliTeKDSP/libs/libDaisy/src/dev/mpr121.h ****     }
 6291              		.loc 2 237 16 view .LVU1156
 6292 0bfc 9DF83C30 		ldrb	r3, [sp, #60]	@ zero_extendqisi2
 6293              	.LVL283:
 237:../libs/PoliTeKDSP/libs/libDaisy/src/dev/mpr121.h ****     }
 6294              		.loc 2 237 16 view .LVU1157
 6295              	.LBE2333:
 6296              	.LBE2347:
 271:../libs/PoliTeKDSP/libs/libDaisy/src/dev/mpr121.h ****             // clear this register to set stop mode
 6297              		.loc 2 271 21 view .LVU1158
 6298 0c00 8DF83CA0 		strb	r10, [sp, #60]
 6299              	.LVL284:
 6300              	.LBB2348:
 6301              	.LBI2337:
  71:../libs/PoliTeKDSP/libs/libDaisy/src/dev/mpr121.h ****     {
 6302              		.loc 2 71 10 is_stmt 1 view .LVU1159
 6303              	.LBB2341:
  73:../libs/PoliTeKDSP/libs/libDaisy/src/dev/mpr121.h ****                != i2c_.WriteDataAtAddress(
 6304              		.loc 2 73 9 view .LVU1160
ARM GAS  C:\Users\skipi\AppData\Local\Temp\ccnEQq3j.s 			page 136


 6305              	.LBE2341:
 6306              	.LBE2348:
 270:../libs/PoliTeKDSP/libs/libDaisy/src/dev/mpr121.h ****             uint8_t zero = 0x00;
 6307              		.loc 2 270 26 is_stmt 0 view .LVU1161
 6308 0c04 8DF82830 		strb	r3, [sp, #40]
 6309              	.LBB2349:
 6310              	.LBB2342:
  74:../libs/PoliTeKDSP/libs/libDaisy/src/dev/mpr121.h ****                    config_.dev_addr, address, 1, data, size, 10);
 6311              		.loc 2 74 42 view .LVU1162
 6312 0c08 3B46     		mov	r3, r7
 6313 0c0a FFF7FEFF 		bl	_ZN5daisy9I2CHandle18WriteDataAtAddressEtttPhtm
 6314              	.LVL285:
  74:../libs/PoliTeKDSP/libs/libDaisy/src/dev/mpr121.h ****                    config_.dev_addr, address, 1, data, size, 10);
 6315              		.loc 2 74 42 view .LVU1163
 6316              	.LBE2342:
 6317              	.LBE2349:
 6318              	.LBB2350:
 6319              	.LBI2350:
 6320              		.loc 2 336 10 is_stmt 1 view .LVU1164
 6321              	.LBE2350:
 6322              	.LBE2359:
 6323              	.LBB2360:
 6324              	.LBB2361:
  74:../libs/PoliTeKDSP/libs/libDaisy/src/dev/mpr121.h ****                    config_.dev_addr, address, 1, data, size, 10);
 6325              		.loc 2 74 42 is_stmt 0 view .LVU1165
 6326 0c0e 0DF12703 		add	r3, sp, #39
 6327 0c12 5D22     		movs	r2, #93
 6328 0c14 8DE88801 		stm	sp, {r3, r7, r8}
 6329              	.LBE2361:
 6330              	.LBE2360:
 6331              	.LBB2365:
 6332              	.LBB2354:
 6333              	.LBB2351:
 6334              		.loc 2 336 55 view .LVU1166
 6335 0c18 94F84C30 		ldrb	r3, [r4, #76]	@ zero_extendqisi2
 6336              	.LBE2351:
 6337              	.LBE2354:
 6338              	.LBE2365:
 6339              	.LBB2366:
 6340              	.LBB2362:
  74:../libs/PoliTeKDSP/libs/libDaisy/src/dev/mpr121.h ****                    config_.dev_addr, address, 1, data, size, 10);
 6341              		.loc 2 74 42 view .LVU1167
 6342 0c1c 94F84810 		ldrb	r1, [r4, #72]	@ zero_extendqisi2
 6343              	.LBE2362:
 6344              	.LBE2366:
 6345              	.LBB2367:
 6346              	.LBB2355:
 6347              	.LBB2352:
 6348              		.loc 2 336 55 view .LVU1168
 6349 0c20 5045     		cmp	r0, r10
 6350 0c22 18BF     		it	ne
 6351 0c24 43F00103 		orrne	r3, r3, #1
 6352              	.LBE2352:
 6353              	.LBE2355:
 6354              	.LBE2367:
 6355              	.LBB2368:
 6356              	.LBB2363:
ARM GAS  C:\Users\skipi\AppData\Local\Temp\ccnEQq3j.s 			page 137


  74:../libs/PoliTeKDSP/libs/libDaisy/src/dev/mpr121.h ****                    config_.dev_addr, address, 1, data, size, 10);
 6357              		.loc 2 74 42 view .LVU1169
 6358 0c28 2846     		mov	r0, r5
 6359              	.LVL286:
  74:../libs/PoliTeKDSP/libs/libDaisy/src/dev/mpr121.h ****                    config_.dev_addr, address, 1, data, size, 10);
 6360              		.loc 2 74 42 view .LVU1170
 6361              	.LBE2363:
 6362              	.LBE2368:
 6363              	.LBB2369:
 6364              	.LBB2356:
 6365              	.LBB2353:
 6366              		.loc 2 336 55 view .LVU1171
 6367 0c2a 84F84C30 		strb	r3, [r4, #76]
 6368              	.LVL287:
 6369              		.loc 2 336 55 view .LVU1172
 6370              	.LBE2353:
 6371              	.LBE2356:
 6372              	.LBE2369:
 6373              	.LBB2370:
 6374              	.LBI2360:
  71:../libs/PoliTeKDSP/libs/libDaisy/src/dev/mpr121.h ****     {
 6375              		.loc 2 71 10 is_stmt 1 view .LVU1173
 6376              	.LBB2364:
  73:../libs/PoliTeKDSP/libs/libDaisy/src/dev/mpr121.h ****                != i2c_.WriteDataAtAddress(
 6377              		.loc 2 73 9 view .LVU1174
  74:../libs/PoliTeKDSP/libs/libDaisy/src/dev/mpr121.h ****                    config_.dev_addr, address, 1, data, size, 10);
 6378              		.loc 2 74 42 is_stmt 0 view .LVU1175
 6379 0c2e 3B46     		mov	r3, r7
 6380 0c30 FFF7FEFF 		bl	_ZN5daisy9I2CHandle18WriteDataAtAddressEtttPhtm
 6381              	.LVL288:
  74:../libs/PoliTeKDSP/libs/libDaisy/src/dev/mpr121.h ****                    config_.dev_addr, address, 1, data, size, 10);
 6382              		.loc 2 74 42 view .LVU1176
 6383              	.LBE2364:
 6384              	.LBE2370:
 6385              	.LBB2371:
 6386              	.LBI2371:
 6387              		.loc 2 336 10 is_stmt 1 view .LVU1177
 6388              	.LBE2371:
 6389              	.LBB2375:
 6390              	.LBB2376:
  74:../libs/PoliTeKDSP/libs/libDaisy/src/dev/mpr121.h ****                    config_.dev_addr, address, 1, data, size, 10);
 6391              		.loc 2 74 42 is_stmt 0 view .LVU1178
 6392 0c34 CDF800B0 		str	fp, [sp]
 6393 0c38 5E22     		movs	r2, #94
 6394 0c3a CDE90178 		strd	r7, r8, [sp, #4]
 6395              	.LBE2376:
 6396              	.LBE2375:
 6397              	.LBB2381:
 6398              	.LBB2372:
 6399              		.loc 2 336 55 view .LVU1179
 6400 0c3e 94F84C30 		ldrb	r3, [r4, #76]	@ zero_extendqisi2
 6401              	.LBE2372:
 6402              	.LBE2381:
 6403              	.LBB2382:
 6404              	.LBB2377:
  74:../libs/PoliTeKDSP/libs/libDaisy/src/dev/mpr121.h ****                    config_.dev_addr, address, 1, data, size, 10);
 6405              		.loc 2 74 42 view .LVU1180
ARM GAS  C:\Users\skipi\AppData\Local\Temp\ccnEQq3j.s 			page 138


 6406 0c42 94F84810 		ldrb	r1, [r4, #72]	@ zero_extendqisi2
 6407              	.LBE2377:
 6408              	.LBE2382:
 6409              	.LBB2383:
 6410              	.LBB2373:
 6411              		.loc 2 336 55 view .LVU1181
 6412 0c46 5045     		cmp	r0, r10
 6413 0c48 18BF     		it	ne
 6414 0c4a 43F00103 		orrne	r3, r3, #1
 6415              	.LBE2373:
 6416              	.LBE2383:
 6417              	.LBB2384:
 6418              	.LBB2378:
  74:../libs/PoliTeKDSP/libs/libDaisy/src/dev/mpr121.h ****                    config_.dev_addr, address, 1, data, size, 10);
 6419              		.loc 2 74 42 view .LVU1182
 6420 0c4e 2846     		mov	r0, r5
 6421              	.LVL289:
  74:../libs/PoliTeKDSP/libs/libDaisy/src/dev/mpr121.h ****                    config_.dev_addr, address, 1, data, size, 10);
 6422              		.loc 2 74 42 view .LVU1183
 6423              	.LBE2378:
 6424              	.LBE2384:
 6425              	.LBB2385:
 6426              	.LBB2374:
 6427              		.loc 2 336 55 view .LVU1184
 6428 0c50 84F84C30 		strb	r3, [r4, #76]
 6429              	.LVL290:
 6430              		.loc 2 336 55 view .LVU1185
 6431              	.LBE2374:
 6432              	.LBE2385:
 6433              	.LBB2386:
 6434              	.LBI2375:
  71:../libs/PoliTeKDSP/libs/libDaisy/src/dev/mpr121.h ****     {
 6435              		.loc 2 71 10 is_stmt 1 view .LVU1186
 6436              	.LBB2379:
  73:../libs/PoliTeKDSP/libs/libDaisy/src/dev/mpr121.h ****                != i2c_.WriteDataAtAddress(
 6437              		.loc 2 73 9 view .LVU1187
  74:../libs/PoliTeKDSP/libs/libDaisy/src/dev/mpr121.h ****                    config_.dev_addr, address, 1, data, size, 10);
 6438              		.loc 2 74 42 is_stmt 0 view .LVU1188
 6439 0c54 3B46     		mov	r3, r7
 6440 0c56 FFF7FEFF 		bl	_ZN5daisy9I2CHandle18WriteDataAtAddressEtttPhtm
 6441              	.LVL291:
  74:../libs/PoliTeKDSP/libs/libDaisy/src/dev/mpr121.h ****                    config_.dev_addr, address, 1, data, size, 10);
 6442              		.loc 2 74 42 view .LVU1189
 6443              	.LBE2379:
 6444              	.LBE2386:
 6445              	.LBE2397:
 6446              	.LBE2407:
 6447              	.LBB2408:
 6448              	.LBB2409:
 6449              	.LBB2410:
 6450              	.LBB2411:
 6451 0c5a 0096     		str	r6, [sp]
 6452              	.LBE2411:
 6453              	.LBE2410:
 6454              	.LBE2409:
 6455              	.LBE2408:
 6456              	.LBB2426:
ARM GAS  C:\Users\skipi\AppData\Local\Temp\ccnEQq3j.s 			page 139


 6457              	.LBB2398:
 6458              	.LBB2387:
 6459              	.LBB2380:
 6460 0c5c 0246     		mov	r2, r0
 6461              	.LVL292:
  74:../libs/PoliTeKDSP/libs/libDaisy/src/dev/mpr121.h ****                    config_.dev_addr, address, 1, data, size, 10);
 6462              		.loc 2 74 42 view .LVU1190
 6463              	.LBE2380:
 6464              	.LBE2387:
 6465              	.LBB2388:
 6466              	.LBI2388:
 6467              		.loc 2 336 10 is_stmt 1 view .LVU1191
 6468              	.LBE2388:
 6469              	.LBE2398:
 6470              	.LBE2426:
 6471              	.LBB2427:
 6472              	.LBB2422:
 6473              	.LBB2416:
 6474              	.LBB2412:
  74:../libs/PoliTeKDSP/libs/libDaisy/src/dev/mpr121.h ****                    config_.dev_addr, address, 1, data, size, 10);
 6475              		.loc 2 74 42 is_stmt 0 view .LVU1192
 6476 0c5e 2846     		mov	r0, r5
 6477              	.LVL293:
  74:../libs/PoliTeKDSP/libs/libDaisy/src/dev/mpr121.h ****                    config_.dev_addr, address, 1, data, size, 10);
 6478              		.loc 2 74 42 view .LVU1193
 6479 0c60 CDE90178 		strd	r7, r8, [sp, #4]
 6480              	.LBE2412:
 6481              	.LBE2416:
 6482              	.LBE2422:
 6483              	.LBE2427:
 6484              	.LBB2428:
 6485              	.LBB2399:
 6486              	.LBB2392:
 6487              	.LBB2389:
 6488              		.loc 2 336 55 view .LVU1194
 6489 0c64 94F84C30 		ldrb	r3, [r4, #76]	@ zero_extendqisi2
 6490              	.LBE2389:
 6491              	.LBE2392:
 6492              	.LBE2399:
 6493              	.LBE2428:
 6494              	.LBB2429:
 6495              	.LBB2423:
 6496              	.LBB2417:
 6497              	.LBB2413:
  74:../libs/PoliTeKDSP/libs/libDaisy/src/dev/mpr121.h ****                    config_.dev_addr, address, 1, data, size, 10);
 6498              		.loc 2 74 42 view .LVU1195
 6499 0c68 94F84810 		ldrb	r1, [r4, #72]	@ zero_extendqisi2
 6500              	.LBE2413:
 6501              	.LBE2417:
 6502              	.LBE2423:
 6503              	.LBE2429:
 6504              	.LBB2430:
 6505              	.LBB2400:
 6506              	.LBB2393:
 6507              	.LBB2390:
 6508              		.loc 2 336 55 view .LVU1196
 6509 0c6c 5245     		cmp	r2, r10
ARM GAS  C:\Users\skipi\AppData\Local\Temp\ccnEQq3j.s 			page 140


 6510 0c6e 18BF     		it	ne
 6511 0c70 43F00103 		orrne	r3, r3, #1
 6512              	.LBE2390:
 6513              	.LBE2393:
 6514              	.LBE2400:
 6515              	.LBE2430:
 6516              	.LBB2431:
 6517              	.LBB2424:
 6518              	.LBB2418:
 6519              	.LBB2414:
  74:../libs/PoliTeKDSP/libs/libDaisy/src/dev/mpr121.h ****                    config_.dev_addr, address, 1, data, size, 10);
 6520              		.loc 2 74 42 view .LVU1197
 6521 0c74 5E22     		movs	r2, #94
 6522              	.LVL294:
  74:../libs/PoliTeKDSP/libs/libDaisy/src/dev/mpr121.h ****                    config_.dev_addr, address, 1, data, size, 10);
 6523              		.loc 2 74 42 view .LVU1198
 6524              	.LBE2414:
 6525              	.LBE2418:
 6526              	.LBE2424:
 6527              	.LBE2431:
 6528              	.LBB2432:
 6529              	.LBB2401:
 6530              	.LBB2394:
 6531              	.LBB2391:
 6532              		.loc 2 336 55 view .LVU1199
 6533 0c76 84F84C30 		strb	r3, [r4, #76]
 6534              	.LVL295:
 6535              		.loc 2 336 55 view .LVU1200
 6536 0c7a 8C23     		movs	r3, #140
 6537 0c7c 8DF83C30 		strb	r3, [sp, #60]
 6538              	.LVL296:
 6539              		.loc 2 336 55 view .LVU1201
 6540              	.LBE2391:
 6541              	.LBE2394:
 6542              	.LBE2401:
 6543              	.LBE2432:
 6544              	.LBB2433:
 6545              	.LBI2408:
 257:../libs/PoliTeKDSP/libs/libDaisy/src/dev/mpr121.h ****     {
 6546              		.loc 2 257 10 is_stmt 1 view .LVU1202
 6547              	.LBB2425:
 6548              	.LBB2419:
 6549              	.LBI2410:
  71:../libs/PoliTeKDSP/libs/libDaisy/src/dev/mpr121.h ****     {
 6550              		.loc 2 71 10 view .LVU1203
 6551              	.LBB2415:
  73:../libs/PoliTeKDSP/libs/libDaisy/src/dev/mpr121.h ****                != i2c_.WriteDataAtAddress(
 6552              		.loc 2 73 9 view .LVU1204
  74:../libs/PoliTeKDSP/libs/libDaisy/src/dev/mpr121.h ****                    config_.dev_addr, address, 1, data, size, 10);
 6553              		.loc 2 74 42 is_stmt 0 view .LVU1205
 6554 0c80 3B46     		mov	r3, r7
 6555              	.LVL297:
  74:../libs/PoliTeKDSP/libs/libDaisy/src/dev/mpr121.h ****                    config_.dev_addr, address, 1, data, size, 10);
 6556              		.loc 2 74 42 view .LVU1206
 6557 0c82 FFF7FEFF 		bl	_ZN5daisy9I2CHandle18WriteDataAtAddressEtttPhtm
 6558              	.LVL298:
  74:../libs/PoliTeKDSP/libs/libDaisy/src/dev/mpr121.h ****                    config_.dev_addr, address, 1, data, size, 10);
ARM GAS  C:\Users\skipi\AppData\Local\Temp\ccnEQq3j.s 			page 141


 6559              		.loc 2 74 42 view .LVU1207
 6560              	.LBE2415:
 6561              	.LBE2419:
 6562              	.LBB2420:
 6563              	.LBI2420:
 6564              		.loc 2 336 10 is_stmt 1 view .LVU1208
 6565              	.LBB2421:
 6566              		.loc 2 336 55 is_stmt 0 view .LVU1209
 6567 0c86 94F84C30 		ldrb	r3, [r4, #76]	@ zero_extendqisi2
 6568 0c8a 5045     		cmp	r0, r10
 6569 0c8c 18BF     		it	ne
 6570 0c8e 43F00103 		orrne	r3, r3, #1
 6571              	.LVL299:
 6572              		.loc 2 336 55 view .LVU1210
 6573              	.LBE2421:
 6574              	.LBE2420:
 6575              	.LBE2425:
 6576              	.LBE2433:
 6577              	.LBB2434:
 6578              	.LBI2434:
 337:../libs/PoliTeKDSP/libs/libDaisy/src/dev/mpr121.h **** 
 338:../libs/PoliTeKDSP/libs/libDaisy/src/dev/mpr121.h ****     /** Get the global transport_error_ bool (as a Result), then reset it */
 339:../libs/PoliTeKDSP/libs/libDaisy/src/dev/mpr121.h ****     Result GetTransportErr()
 6579              		.loc 2 339 12 is_stmt 1 view .LVU1211
 6580              	.LBB2435:
 340:../libs/PoliTeKDSP/libs/libDaisy/src/dev/mpr121.h ****     {
 341:../libs/PoliTeKDSP/libs/libDaisy/src/dev/mpr121.h ****         Result ret       = transport_error_ ? ERR : OK;
 6581              		.loc 2 341 45 is_stmt 0 view .LVU1212
 6582 0c92 1BB1     		cbz	r3, .L19
 6583              	.LVL300:
 342:../libs/PoliTeKDSP/libs/libDaisy/src/dev/mpr121.h ****         transport_error_ = false;
 6584              		.loc 2 342 26 view .LVU1213
 6585 0c94 84F84CA0 		strb	r10, [r4, #76]
 6586              	.LVL301:
 6587              		.loc 2 342 26 view .LVU1214
 6588 0c98 FFF78ABA 		b	.L13
 6589              	.LVL302:
 6590              	.L19:
 6591              		.loc 2 342 26 view .LVU1215
 6592              	.LBE2435:
 6593              	.LBE2434:
 6594              	.LBE2439:
 6595              	.LBE2441:
  19:PSP/PlantConditioner.cpp ****         }
  20:PSP/PlantConditioner.cpp ****     }
  21:PSP/PlantConditioner.cpp ****     _hw->SetLed(true);
 6596              		.loc 1 21 16 view .LVU1216
 6597 0c9c 2546     		mov	r5, r4
 6598              	.LBB2442:
 6599              	.LBB2440:
 6600              	.LBB2437:
 6601              	.LBB2436:
 6602              		.loc 2 342 26 view .LVU1217
 6603 0c9e 84F84C30 		strb	r3, [r4, #76]
 6604              	.LVL303:
 6605              		.loc 2 342 26 view .LVU1218
 6606              	.LBE2436:
ARM GAS  C:\Users\skipi\AppData\Local\Temp\ccnEQq3j.s 			page 142


 6607              	.LBE2437:
 6608              	.LBE2440:
 6609              	.LBE2442:
 6610              		.loc 1 21 5 is_stmt 1 view .LVU1219
 6611              		.loc 1 21 16 is_stmt 0 view .LVU1220
 6612 0ca2 3946     		mov	r1, r7
 6613 0ca4 55F8540B 		ldr	r0, [r5], #84
 6614 0ca8 FFF7FEFF 		bl	_ZN5daisy9DaisySeed6SetLedEb
 6615              	.LVL304:
  22:PSP/PlantConditioner.cpp **** 
  23:PSP/PlantConditioner.cpp **** 
  24:PSP/PlantConditioner.cpp **** 
  25:PSP/PlantConditioner.cpp ****     _deltaFilter.Init(filter_type);
 6616              		.loc 1 25 5 is_stmt 1 view .LVU1221
 6617              		.loc 1 25 22 is_stmt 0 view .LVU1222
 6618 0cac 0799     		ldr	r1, [sp, #28]
 6619 0cae 2846     		mov	r0, r5
 6620 0cb0 FFF7FEFF 		bl	_ZN3IIR4InitENS_10FilterTypeE
 6621              	.LVL305:
  26:PSP/PlantConditioner.cpp ****     _deltaFilterMF.Init();
 6622              		.loc 1 26 5 is_stmt 1 view .LVU1223
 6623              		.loc 1 26 24 is_stmt 0 view .LVU1224
 6624 0cb4 04F19C00 		add	r0, r4, #156
 6625 0cb8 FFF7FEFF 		bl	_ZN2MF4InitEv
 6626              	.LVL306:
  27:PSP/PlantConditioner.cpp ****     _delta = 0;
 6627              		.loc 1 27 5 is_stmt 1 view .LVU1225
 6628              		.loc 1 27 12 is_stmt 0 view .LVU1226
 6629 0cbc 0023     		movs	r3, #0
  28:PSP/PlantConditioner.cpp ****     _deltaFilt = 0;
  29:PSP/PlantConditioner.cpp ****     _octave = 4;
 6630              		.loc 1 29 13 view .LVU1227
 6631 0cbe 0420     		movs	r0, #4
  30:PSP/PlantConditioner.cpp ****     _lastFreq = 440.0f;
 6632              		.loc 1 30 15 view .LVU1228
 6633 0cc0 0749     		ldr	r1, .L20
  31:PSP/PlantConditioner.cpp ****     _lastNoteIndex = -1; // Reset indice nota
 6634              		.loc 1 31 20 view .LVU1229
 6635 0cc2 4FF0FF32 		mov	r2, #-1
  27:PSP/PlantConditioner.cpp ****     _deltaFilt = 0;
 6636              		.loc 1 27 12 view .LVU1230
 6637 0cc6 C4F8D830 		str	r3, [r4, #216]	@ float
  28:PSP/PlantConditioner.cpp ****     _octave = 4;
 6638              		.loc 1 28 5 is_stmt 1 view .LVU1231
  28:PSP/PlantConditioner.cpp ****     _octave = 4;
 6639              		.loc 1 28 16 is_stmt 0 view .LVU1232
 6640 0cca C4F8DC30 		str	r3, [r4, #220]	@ float
  29:PSP/PlantConditioner.cpp ****     _lastFreq = 440.0f;
 6641              		.loc 1 29 5 is_stmt 1 view .LVU1233
  29:PSP/PlantConditioner.cpp ****     _lastFreq = 440.0f;
 6642              		.loc 1 29 13 is_stmt 0 view .LVU1234
 6643 0cce 84F8C800 		strb	r0, [r4, #200]
  30:PSP/PlantConditioner.cpp ****     _lastNoteIndex = -1; // Reset indice nota
 6644              		.loc 1 30 5 is_stmt 1 view .LVU1235
  30:PSP/PlantConditioner.cpp ****     _lastNoteIndex = -1; // Reset indice nota
 6645              		.loc 1 30 15 is_stmt 0 view .LVU1236
 6646 0cd2 C4F8BC10 		str	r1, [r4, #188]	@ float
ARM GAS  C:\Users\skipi\AppData\Local\Temp\ccnEQq3j.s 			page 143


 6647              		.loc 1 31 5 is_stmt 1 view .LVU1237
 6648              		.loc 1 31 20 is_stmt 0 view .LVU1238
 6649 0cd6 C4F8B820 		str	r2, [r4, #184]
  32:PSP/PlantConditioner.cpp **** }
 6650              		.loc 1 32 1 view .LVU1239
 6651 0cda 1BB0     		add	sp, sp, #108
 6652              		.cfi_def_cfa_offset 36
 6653              		@ sp needed
 6654 0cdc BDE8F08F 		pop	{r4, r5, r6, r7, r8, r9, r10, fp, pc}
 6655              	.LVL307:
 6656              	.L21:
 6657              		.loc 1 32 1 view .LVU1240
 6658              		.align	2
 6659              	.L20:
 6660 0ce0 0000DC43 		.word	1138491392
 6661              		.cfi_endproc
 6662              	.LFE5077:
 6664              		.section	.text._ZN16PlantConditioner8setScaleENS_5NotesENS_9ScaleTypeE,"ax",%progbits
 6665              		.align	1
 6666              		.p2align 2,,3
 6667              		.global	_ZN16PlantConditioner8setScaleENS_5NotesENS_9ScaleTypeE
 6668              		.syntax unified
 6669              		.thumb
 6670              		.thumb_func
 6671              		.fpu fpv5-d16
 6673              	_ZN16PlantConditioner8setScaleENS_5NotesENS_9ScaleTypeE:
 6674              	.LVL308:
 6675              	.LFB5078:
  33:PSP/PlantConditioner.cpp **** 
  34:PSP/PlantConditioner.cpp **** void PlantConditioner::setScale(enum Notes root_note, enum ScaleType scale_type) {
 6676              		.loc 1 34 82 is_stmt 1 view -0
 6677              		.cfi_startproc
 6678              		@ args = 0, pretend = 0, frame = 0
 6679              		@ frame_needed = 0, uses_anonymous_args = 0
  35:PSP/PlantConditioner.cpp ****     // Copia della scala base
  36:PSP/PlantConditioner.cpp ****     switch (scale_type) 
 6680              		.loc 1 36 5 view .LVU1242
  34:PSP/PlantConditioner.cpp ****     // Copia della scala base
 6681              		.loc 1 34 82 is_stmt 0 view .LVU1243
 6682 0000 70B5     		push	{r4, r5, r6, lr}
 6683              		.cfi_def_cfa_offset 16
 6684              		.cfi_offset 4, -16
 6685              		.cfi_offset 5, -12
 6686              		.cfi_offset 6, -8
 6687              		.cfi_offset 14, -4
 6688 0002 07EE901A 		vmov	s15, r1	@ int
 6689 0006 0446     		mov	r4, r0
 6690 0008 2DED028B 		vpush.64	{d8}
 6691              		.cfi_def_cfa_offset 24
 6692              		.cfi_offset 80, -24
 6693              		.cfi_offset 81, -20
 6694 000c 062A     		cmp	r2, #6
 6695 000e 27D8     		bhi	.L23
 6696 0010 DFE812F0 		tbh	[pc, r2, lsl #1]
 6697              	.L25:
 6698 0014 2600     		.2byte	(.L23-.L25)/2
 6699 0016 9E00     		.2byte	(.L30-.L25)/2
ARM GAS  C:\Users\skipi\AppData\Local\Temp\ccnEQq3j.s 			page 144


 6700 0018 C000     		.2byte	(.L29-.L25)/2
 6701 001a E200     		.2byte	(.L28-.L25)/2
 6702 001c 0401     		.2byte	(.L27-.L25)/2
 6703 001e 0700     		.2byte	(.L26-.L25)/2
 6704 0020 8000     		.2byte	(.L24-.L25)/2
 6705              		.p2align 1
 6706              	.L26:
 6707              	.LBB2458:
  37:PSP/PlantConditioner.cpp ****     {
  38:PSP/PlantConditioner.cpp ****     case Major:
  39:PSP/PlantConditioner.cpp ****         _scaleLength = 7;
  40:PSP/PlantConditioner.cpp ****         for (int i = 0; i < 7; i++) _scale[i] = _majorScale[i];
  41:PSP/PlantConditioner.cpp ****         break;
  42:PSP/PlantConditioner.cpp ****     case MinorNat:
  43:PSP/PlantConditioner.cpp ****         _scaleLength = 7;
  44:PSP/PlantConditioner.cpp ****         for (int i = 0; i < 7; i++) _scale[i] = _minorNScale[i];
  45:PSP/PlantConditioner.cpp ****         break;
  46:PSP/PlantConditioner.cpp ****     case MinorArm:
  47:PSP/PlantConditioner.cpp ****         _scaleLength = 7;
  48:PSP/PlantConditioner.cpp ****         for (int i = 0; i < 7; i++) _scale[i] = _minorAScale[i];
  49:PSP/PlantConditioner.cpp ****         break;
  50:PSP/PlantConditioner.cpp ****     case MinorMel:
  51:PSP/PlantConditioner.cpp ****         _scaleLength = 7;
  52:PSP/PlantConditioner.cpp ****         for (int i = 0; i < 7; i++) _scale[i] = _minorMScale[i];
  53:PSP/PlantConditioner.cpp ****         break;
  54:PSP/PlantConditioner.cpp ****     case Pentatonic:
  55:PSP/PlantConditioner.cpp ****         _scaleLength = 5;
  56:PSP/PlantConditioner.cpp ****         for (int i = 0; i < 5; i++) _scale[i] = _pentatonicScale[i];
  57:PSP/PlantConditioner.cpp ****         break;
  58:PSP/PlantConditioner.cpp ****     case Chromatic:
 6708              		.loc 1 58 5 is_stmt 1 view .LVU1244
  59:PSP/PlantConditioner.cpp ****         _scaleLength = 12;
 6709              		.loc 1 59 9 view .LVU1245
 6710              	.LBB2459:
  60:PSP/PlantConditioner.cpp ****         for (int i = 0; i < 12; i++) _scale[i] = _chromaticScale[i];
 6711              		.loc 1 60 48 is_stmt 0 view .LVU1246
 6712 0022 00F58A75 		add	r5, r0, #276
 6713              	.LBE2459:
  59:PSP/PlantConditioner.cpp ****         _scaleLength = 12;
 6714              		.loc 1 59 22 view .LVU1247
 6715 0026 0C21     		movs	r1, #12
 6716              	.LVL309:
 6717              	.LBB2460:
 6718              		.loc 1 60 48 view .LVU1248
 6719 0028 00F5E473 		add	r3, r0, #456
 6720 002c 00F5FC7E 		add	lr, r0, #504
 6721 0030 2A46     		mov	r2, r5
 6722              	.LVL310:
 6723              		.loc 1 60 48 view .LVU1249
 6724              	.LBE2460:
  59:PSP/PlantConditioner.cpp ****         _scaleLength = 12;
 6725              		.loc 1 59 22 view .LVU1250
 6726 0032 80F8C910 		strb	r1, [r0, #201]
 6727              		.loc 1 60 9 is_stmt 1 view .LVU1251
 6728              	.LVL311:
 6729              	.LBB2461:
 6730              		.loc 1 60 27 view .LVU1252
ARM GAS  C:\Users\skipi\AppData\Local\Temp\ccnEQq3j.s 			page 145


 6731              	.L33:
 6732              		.loc 1 60 48 is_stmt 0 view .LVU1253
 6733 0036 D3F800C0 		ldr	ip, [r3]	@ unaligned
 6734 003a 1033     		adds	r3, r3, #16
 6735 003c 53F80C6C 		ldr	r6, [r3, #-12]	@ unaligned
 6736 0040 1032     		adds	r2, r2, #16
 6737 0042 53F8080C 		ldr	r0, [r3, #-8]	@ unaligned
 6738 0046 53F8041C 		ldr	r1, [r3, #-4]	@ unaligned
 6739 004a 7345     		cmp	r3, lr
 6740 004c 42F810CC 		str	ip, [r2, #-16]	@ unaligned
 6741 0050 42F80C6C 		str	r6, [r2, #-12]	@ unaligned
 6742 0054 42F8080C 		str	r0, [r2, #-8]	@ unaligned
 6743 0058 42F8041C 		str	r1, [r2, #-4]	@ unaligned
 6744 005c EBD1     		bne	.L33
 6745 005e 20E0     		b	.L32
 6746              	.LVL312:
 6747              	.L23:
 6748              		.loc 1 60 48 view .LVU1254
 6749              	.LBE2461:
  61:PSP/PlantConditioner.cpp ****         break;
  62:PSP/PlantConditioner.cpp ****     case Esatonic:
  63:PSP/PlantConditioner.cpp ****         _scaleLength = 6;
  64:PSP/PlantConditioner.cpp ****         for (int i = 0; i < 6; i++) _scale[i] = _esatonic[i];
  65:PSP/PlantConditioner.cpp ****         break;
  66:PSP/PlantConditioner.cpp ****     default:
 6750              		.loc 1 66 5 is_stmt 1 view .LVU1255
  67:PSP/PlantConditioner.cpp ****         _scaleLength = 7;
 6751              		.loc 1 67 9 view .LVU1256
 6752              	.LBB2462:
  68:PSP/PlantConditioner.cpp ****         for (int i = 0; i < 7; i++) _scale[i] = _majorScale[i];
 6753              		.loc 1 68 47 is_stmt 0 view .LVU1257
 6754 0060 D0F84C31 		ldr	r3, [r0, #332]	@ unaligned
 6755 0064 04F58A75 		add	r5, r4, #276
 6756 0068 D0F84411 		ldr	r1, [r0, #324]	@ unaligned
 6757              	.LVL313:
 6758              		.loc 1 68 47 view .LVU1258
 6759 006c D0F84821 		ldr	r2, [r0, #328]	@ unaligned
 6760              	.LVL314:
 6761              		.loc 1 68 47 view .LVU1259
 6762              	.LBE2462:
  67:PSP/PlantConditioner.cpp ****         _scaleLength = 7;
 6763              		.loc 1 67 22 view .LVU1260
 6764 0070 0720     		movs	r0, #7
 6765              	.LVL315:
 6766              	.LBB2463:
 6767              		.loc 1 68 47 view .LVU1261
 6768 0072 C4F81C31 		str	r3, [r4, #284]	@ unaligned
 6769 0076 D4F85031 		ldr	r3, [r4, #336]	@ unaligned
 6770 007a C4F81411 		str	r1, [r4, #276]	@ unaligned
 6771 007e C4F81821 		str	r2, [r4, #280]	@ unaligned
 6772 0082 D4F85411 		ldr	r1, [r4, #340]	@ unaligned
 6773 0086 D4F85821 		ldr	r2, [r4, #344]	@ unaligned
 6774 008a C4F82031 		str	r3, [r4, #288]	@ unaligned
 6775 008e D4F85C31 		ldr	r3, [r4, #348]	@ unaligned
 6776              	.LBE2463:
  67:PSP/PlantConditioner.cpp ****         _scaleLength = 7;
 6777              		.loc 1 67 22 view .LVU1262
ARM GAS  C:\Users\skipi\AppData\Local\Temp\ccnEQq3j.s 			page 146


 6778 0092 84F8C900 		strb	r0, [r4, #201]
 6779              		.loc 1 68 9 is_stmt 1 view .LVU1263
 6780              	.LVL316:
 6781              	.LBB2464:
 6782              		.loc 1 68 27 view .LVU1264
 6783              		.loc 1 68 47 is_stmt 0 view .LVU1265
 6784 0096 C4F82411 		str	r1, [r4, #292]	@ unaligned
 6785 009a C4F82821 		str	r2, [r4, #296]	@ unaligned
 6786 009e C4F82C31 		str	r3, [r4, #300]	@ unaligned
 6787              	.LVL317:
 6788              	.L32:
 6789              		.loc 1 68 47 view .LVU1266
 6790              	.LBE2464:
 6791              	.LBE2458:
  69:PSP/PlantConditioner.cpp ****         break;
  70:PSP/PlantConditioner.cpp ****     }
  71:PSP/PlantConditioner.cpp **** 
  72:PSP/PlantConditioner.cpp ****     // Trasposizione (Pitch Shifting) in base alla nota fondamentale
  73:PSP/PlantConditioner.cpp ****     // powf(2, n/12) calcola il rapporto semitonale
  74:PSP/PlantConditioner.cpp ****     float transposition = powf(2.0f, (float)root_note / 12.0f);
 6792              		.loc 1 74 5 is_stmt 1 view .LVU1267
 6793              		.loc 1 74 38 is_stmt 0 view .LVU1268
 6794 00a2 F8EE677A 		vcvt.f32.u32	s15, s15
 6795              		.loc 1 74 31 view .LVU1269
 6796 00a6 F2EE080A 		vmov.f32	s1, #1.2e+1
 6797 00aa B0EE000A 		vmov.f32	s0, #2.0e+0
 6798 00ae C7EEA00A 		vdiv.f32	s1, s15, s1
 6799 00b2 FFF7FEFF 		bl	powf
 6800              	.LVL318:
 6801              	.LBB2480:
  75:PSP/PlantConditioner.cpp ****     for (int i = 0; i < _scaleLength; i++) {
 6802              		.loc 1 75 25 view .LVU1270
 6803 00b6 94F8C930 		ldrb	r3, [r4, #201]	@ zero_extendqisi2
 6804              	.LVL319:
 6805              		.loc 1 75 25 view .LVU1271
 6806              	.LBE2480:
 6807              		.loc 1 75 5 is_stmt 1 view .LVU1272
 6808              	.LBB2481:
 6809              		.loc 1 75 23 view .LVU1273
 6810 00ba 53B1     		cbz	r3, .L36
 6811 00bc 2A46     		mov	r2, r5
 6812 00be 05EB8301 		add	r1, r5, r3, lsl #2
 6813              	.LVL320:
 6814              	.L37:
  76:PSP/PlantConditioner.cpp ****         _scale[i] = _scale[i] * transposition; 
 6815              		.loc 1 76 9 discriminator 2 view .LVU1274
 6816              		.loc 1 76 29 is_stmt 0 discriminator 2 view .LVU1275
 6817 00c2 D2ED007A 		vldr.32	s15, [r2]
 6818              		.loc 1 76 31 discriminator 2 view .LVU1276
 6819 00c6 67EE807A 		vmul.f32	s15, s15, s0
 6820              		.loc 1 76 19 discriminator 2 view .LVU1277
 6821 00ca E2EC017A 		vstmia.32	r2!, {s15}
  75:PSP/PlantConditioner.cpp ****     for (int i = 0; i < _scaleLength; i++) {
 6822              		.loc 1 75 5 is_stmt 1 discriminator 2 view .LVU1278
  75:PSP/PlantConditioner.cpp ****     for (int i = 0; i < _scaleLength; i++) {
 6823              		.loc 1 75 23 discriminator 2 view .LVU1279
 6824 00ce 8A42     		cmp	r2, r1
ARM GAS  C:\Users\skipi\AppData\Local\Temp\ccnEQq3j.s 			page 147


 6825 00d0 F7D1     		bne	.L37
 6826              	.L36:
  75:PSP/PlantConditioner.cpp ****     for (int i = 0; i < _scaleLength; i++) {
 6827              		.loc 1 75 23 is_stmt 0 discriminator 2 view .LVU1280
 6828 00d2 04F1E006 		add	r6, r4, #224
 6829              	.LBE2481:
 6830              	.LBB2482:
 6831              	.LBB2483:
  77:PSP/PlantConditioner.cpp ****     }
  78:PSP/PlantConditioner.cpp ****     updateThresholds();
  79:PSP/PlantConditioner.cpp **** }
  80:PSP/PlantConditioner.cpp **** 
  81:PSP/PlantConditioner.cpp **** void PlantConditioner::setOctave(uint8_t octave) {
  82:PSP/PlantConditioner.cpp ****     _octave = octave;
  83:PSP/PlantConditioner.cpp **** }
  84:PSP/PlantConditioner.cpp **** 
  85:PSP/PlantConditioner.cpp **** PlantConditioner::PlantState PlantConditioner::Process() {
  86:PSP/PlantConditioner.cpp ****     float out = _lastFreq;
  87:PSP/PlantConditioner.cpp ****     if (_cap.Touched() & _BV(0))
  88:PSP/PlantConditioner.cpp ****     {
  89:PSP/PlantConditioner.cpp ****         if (!_isTouched) _isTouched = true; // New touch detected
  90:PSP/PlantConditioner.cpp ****         
  91:PSP/PlantConditioner.cpp ****         // Computation of filtered and clamped delta
  92:PSP/PlantConditioner.cpp ****         _delta = _cap.BaselineData(0) - _cap.FilteredData(0) - (float)_touchThreshold;
  93:PSP/PlantConditioner.cpp ****         _deltaFilt = _deltaFilter.Process(_deltaFilterMF.Process(_delta));
  94:PSP/PlantConditioner.cpp ****         _deltaFilt = fclamp(_deltaFilt, _deltaMin, _deltaMax - 0.001f);
  95:PSP/PlantConditioner.cpp ****         
  96:PSP/PlantConditioner.cpp ****         // ---------------------------------------------------------
  97:PSP/PlantConditioner.cpp ****         // STICKY CHECK (Current Note has the priority)
  98:PSP/PlantConditioner.cpp ****         // Controlliamo subito se possiamo rimanere sulla nota attuale
  99:PSP/PlantConditioner.cpp ****         // ---------------------------------------------------------
 100:PSP/PlantConditioner.cpp ****         if (_lastNoteIndex >= 0 && _lastNoteIndex < _scaleLength) {
 101:PSP/PlantConditioner.cpp ****             int i = _lastNoteIndex;
 102:PSP/PlantConditioner.cpp ****             
 103:PSP/PlantConditioner.cpp ****             float lower = _noteThresholds[i];
 104:PSP/PlantConditioner.cpp ****             float upper = _noteThresholds[i+1];
 105:PSP/PlantConditioner.cpp ****             
 106:PSP/PlantConditioner.cpp ****             // L'isteresi può essere una percentuale fissa del range totale
 107:PSP/PlantConditioner.cpp ****             float hyst = _histeresis * (_range / 100.0f); 
 108:PSP/PlantConditioner.cpp **** 
 109:PSP/PlantConditioner.cpp ****             if (_deltaFilt >= (lower - hyst) && _deltaFilt < (upper + hyst)) {
 110:PSP/PlantConditioner.cpp ****                 return {out, _isTouched}; 
 111:PSP/PlantConditioner.cpp ****             }
 112:PSP/PlantConditioner.cpp ****         }
 113:PSP/PlantConditioner.cpp **** 
 114:PSP/PlantConditioner.cpp ****         // ---------------------------------------------------------
 115:PSP/PlantConditioner.cpp ****         // NEW NOTE CHECK
 116:PSP/PlantConditioner.cpp ****         // ---------------------------------------------------------
 117:PSP/PlantConditioner.cpp ****         for (int i = 0; i < _scaleLength; i++) {
 118:PSP/PlantConditioner.cpp ****             float lower = _noteThresholds[i];
 119:PSP/PlantConditioner.cpp ****             float upper = _noteThresholds[i+1];
 120:PSP/PlantConditioner.cpp ****             
 121:PSP/PlantConditioner.cpp ****             // Controllo standard + sicurezza per l'ultimo bin
 122:PSP/PlantConditioner.cpp ****             if ((_deltaFilt >= lower && _deltaFilt < upper) || (i == _scaleLength - 1 && _deltaFilt
 123:PSP/PlantConditioner.cpp ****                 out = _scale[i] * (1 << _octave);
 124:PSP/PlantConditioner.cpp ****                 _lastNoteIndex = i; 
 125:PSP/PlantConditioner.cpp ****                 _lastFreq = out;    
ARM GAS  C:\Users\skipi\AppData\Local\Temp\ccnEQq3j.s 			page 148


 126:PSP/PlantConditioner.cpp ****                 break;
 127:PSP/PlantConditioner.cpp ****             }
 128:PSP/PlantConditioner.cpp ****         }
 129:PSP/PlantConditioner.cpp ****     } else {
 130:PSP/PlantConditioner.cpp ****         if (_isTouched) _isTouched = false; 
 131:PSP/PlantConditioner.cpp ****     }
 132:PSP/PlantConditioner.cpp **** 
 133:PSP/PlantConditioner.cpp ****     return {out, _isTouched};
 134:PSP/PlantConditioner.cpp **** }
 135:PSP/PlantConditioner.cpp **** 
 136:PSP/PlantConditioner.cpp **** void PlantConditioner::setCurve(float curve_type) {
 137:PSP/PlantConditioner.cpp ****     _curveType = curve_type;
 138:PSP/PlantConditioner.cpp ****     updateThresholds();
 139:PSP/PlantConditioner.cpp **** }
 140:PSP/PlantConditioner.cpp **** 
 141:PSP/PlantConditioner.cpp **** void PlantConditioner::setDelta(float delta_max) {
 142:PSP/PlantConditioner.cpp ****     if (delta_max <= _deltaMin) delta_max = _deltaMin + 1.0f;
 143:PSP/PlantConditioner.cpp ****     _deltaMax = delta_max;
 144:PSP/PlantConditioner.cpp ****     _range = _deltaMax - _deltaMin;
 145:PSP/PlantConditioner.cpp ****     updateThresholds();
 146:PSP/PlantConditioner.cpp **** }
 147:PSP/PlantConditioner.cpp **** 
 148:PSP/PlantConditioner.cpp **** void PlantConditioner::updateThresholds() {
 149:PSP/PlantConditioner.cpp ****     for (int i = 0; i <= _scaleLength; i++) {
 6832              		.loc 1 149 14 view .LVU1281
 6833 00d6 0025     		movs	r5, #0
 6834              	.LVL321:
 6835              	.L35:
 6836              	.LBB2484:
 150:PSP/PlantConditioner.cpp ****         float pct = (float)i / _scaleLength;
 6837              		.loc 1 150 9 is_stmt 1 view .LVU1282
 151:PSP/PlantConditioner.cpp ****         _noteThresholds[i] = _deltaMin + _range * powf(pct, _curveType);
 6838              		.loc 1 151 9 view .LVU1283
 150:PSP/PlantConditioner.cpp ****         float pct = (float)i / _scaleLength;
 6839              		.loc 1 150 30 is_stmt 0 view .LVU1284
 6840 00d8 07EE903A 		vmov	s15, r3	@ int
 150:PSP/PlantConditioner.cpp ****         float pct = (float)i / _scaleLength;
 6841              		.loc 1 150 21 view .LVU1285
 6842 00dc 07EE105A 		vmov	s14, r5	@ int
 6843              		.loc 1 151 30 view .LVU1286
 6844 00e0 94ED338A 		vldr.32	s16, [r4, #204]
 6845              	.LBE2484:
 149:PSP/PlantConditioner.cpp ****         float pct = (float)i / _scaleLength;
 6846              		.loc 1 149 5 view .LVU1287
 6847 00e4 0135     		adds	r5, r5, #1
 6848              	.LVL322:
 6849              	.LBB2485:
 150:PSP/PlantConditioner.cpp ****         float pct = (float)i / _scaleLength;
 6850              		.loc 1 150 30 view .LVU1288
 6851 00e6 F8EEE77A 		vcvt.f32.s32	s15, s15
 6852              		.loc 1 151 42 view .LVU1289
 6853 00ea D4ED358A 		vldr.32	s17, [r4, #212]
 150:PSP/PlantConditioner.cpp ****         float pct = (float)i / _scaleLength;
 6854              		.loc 1 150 21 view .LVU1290
 6855 00ee B8EEC70A 		vcvt.f32.s32	s0, s14
 6856              		.loc 1 151 55 view .LVU1291
 6857 00f2 D4ED310A 		vldr.32	s1, [r4, #196]
ARM GAS  C:\Users\skipi\AppData\Local\Temp\ccnEQq3j.s 			page 149


 6858 00f6 80EE270A 		vdiv.f32	s0, s0, s15
 6859              	.LVL323:
 6860              		.loc 1 151 55 view .LVU1292
 6861 00fa FFF7FEFF 		bl	powf
 6862              	.LVL324:
 6863              		.loc 1 151 40 view .LVU1293
 6864 00fe A8EE808A 		vfma.f32	s16, s17, s0
 6865              		.loc 1 151 28 view .LVU1294
 6866 0102 A6EC018A 		vstmia.32	r6!, {s16}
 6867              	.LBE2485:
 149:PSP/PlantConditioner.cpp ****         float pct = (float)i / _scaleLength;
 6868              		.loc 1 149 5 is_stmt 1 view .LVU1295
 6869              	.LVL325:
 149:PSP/PlantConditioner.cpp ****         float pct = (float)i / _scaleLength;
 6870              		.loc 1 149 23 view .LVU1296
 149:PSP/PlantConditioner.cpp ****         float pct = (float)i / _scaleLength;
 6871              		.loc 1 149 26 is_stmt 0 view .LVU1297
 6872 0106 94F8C930 		ldrb	r3, [r4, #201]	@ zero_extendqisi2
 149:PSP/PlantConditioner.cpp ****         float pct = (float)i / _scaleLength;
 6873              		.loc 1 149 23 view .LVU1298
 6874 010a AB42     		cmp	r3, r5
 6875 010c E4DA     		bge	.L35
 6876              	.LBE2483:
 6877              	.LBE2482:
  79:PSP/PlantConditioner.cpp **** 
 6878              		.loc 1 79 1 view .LVU1299
 6879 010e BDEC028B 		vldm	sp!, {d8}
 6880              		.cfi_remember_state
 6881              		.cfi_restore 80
 6882              		.cfi_restore 81
 6883              		.cfi_def_cfa_offset 16
 6884 0112 70BD     		pop	{r4, r5, r6, pc}
 6885              	.LVL326:
 6886              	.L24:
 6887              		.cfi_restore_state
 6888              	.LBB2486:
  62:PSP/PlantConditioner.cpp ****         _scaleLength = 6;
 6889              		.loc 1 62 5 is_stmt 1 view .LVU1300
  63:PSP/PlantConditioner.cpp ****         for (int i = 0; i < 6; i++) _scale[i] = _esatonic[i];
 6890              		.loc 1 63 9 view .LVU1301
 6891              	.LBB2465:
  64:PSP/PlantConditioner.cpp ****         break;
 6892              		.loc 1 64 47 is_stmt 0 view .LVU1302
 6893 0114 D0F8F821 		ldr	r2, [r0, #504]	@ unaligned
 6894              	.LVL327:
  64:PSP/PlantConditioner.cpp ****         break;
 6895              		.loc 1 64 47 view .LVU1303
 6896 0118 04F58A75 		add	r5, r4, #276
 6897 011c D0F8FC31 		ldr	r3, [r0, #508]	@ unaligned
 6898              	.LBE2465:
  63:PSP/PlantConditioner.cpp ****         for (int i = 0; i < 6; i++) _scale[i] = _esatonic[i];
 6899              		.loc 1 63 22 view .LVU1304
 6900 0120 0620     		movs	r0, #6
 6901              	.LVL328:
 6902              	.LBB2466:
  64:PSP/PlantConditioner.cpp ****         break;
 6903              		.loc 1 64 47 view .LVU1305
ARM GAS  C:\Users\skipi\AppData\Local\Temp\ccnEQq3j.s 			page 150


 6904 0122 D4F80062 		ldr	r6, [r4, #512]	@ unaligned
 6905 0126 D4F80412 		ldr	r1, [r4, #516]	@ unaligned
 6906              	.LVL329:
  64:PSP/PlantConditioner.cpp ****         break;
 6907              		.loc 1 64 47 view .LVU1306
 6908 012a C4F81421 		str	r2, [r4, #276]	@ unaligned
 6909 012e C4F81831 		str	r3, [r4, #280]	@ unaligned
 6910 0132 D4F80822 		ldr	r2, [r4, #520]	@ unaligned
 6911 0136 D4F80C32 		ldr	r3, [r4, #524]	@ unaligned
 6912 013a C4F82421 		str	r2, [r4, #292]	@ unaligned
 6913 013e C4F81C61 		str	r6, [r4, #284]	@ unaligned
 6914              	.LBE2466:
  63:PSP/PlantConditioner.cpp ****         for (int i = 0; i < 6; i++) _scale[i] = _esatonic[i];
 6915              		.loc 1 63 22 view .LVU1307
 6916 0142 84F8C900 		strb	r0, [r4, #201]
  64:PSP/PlantConditioner.cpp ****         break;
 6917              		.loc 1 64 9 is_stmt 1 view .LVU1308
 6918              	.LVL330:
 6919              	.LBB2467:
  64:PSP/PlantConditioner.cpp ****         break;
 6920              		.loc 1 64 27 view .LVU1309
  64:PSP/PlantConditioner.cpp ****         break;
 6921              		.loc 1 64 47 is_stmt 0 view .LVU1310
 6922 0146 C4F82011 		str	r1, [r4, #288]	@ unaligned
 6923 014a C4F82831 		str	r3, [r4, #296]	@ unaligned
 6924 014e A8E7     		b	.L32
 6925              	.LVL331:
 6926              	.L30:
  64:PSP/PlantConditioner.cpp ****         break;
 6927              		.loc 1 64 47 view .LVU1311
 6928              	.LBE2467:
  42:PSP/PlantConditioner.cpp ****         _scaleLength = 7;
 6929              		.loc 1 42 5 is_stmt 1 view .LVU1312
  43:PSP/PlantConditioner.cpp ****         for (int i = 0; i < 7; i++) _scale[i] = _minorNScale[i];
 6930              		.loc 1 43 9 view .LVU1313
 6931              	.LBB2468:
  44:PSP/PlantConditioner.cpp ****         break;
 6932              		.loc 1 44 47 is_stmt 0 view .LVU1314
 6933 0150 D0F86831 		ldr	r3, [r0, #360]	@ unaligned
 6934 0154 04F58A75 		add	r5, r4, #276
 6935 0158 D0F86011 		ldr	r1, [r0, #352]	@ unaligned
 6936              	.LVL332:
  44:PSP/PlantConditioner.cpp ****         break;
 6937              		.loc 1 44 47 view .LVU1315
 6938 015c D0F86421 		ldr	r2, [r0, #356]	@ unaligned
 6939              	.LVL333:
  44:PSP/PlantConditioner.cpp ****         break;
 6940              		.loc 1 44 47 view .LVU1316
 6941              	.LBE2468:
  43:PSP/PlantConditioner.cpp ****         for (int i = 0; i < 7; i++) _scale[i] = _minorNScale[i];
 6942              		.loc 1 43 22 view .LVU1317
 6943 0160 0720     		movs	r0, #7
 6944              	.LVL334:
 6945              	.LBB2469:
  44:PSP/PlantConditioner.cpp ****         break;
 6946              		.loc 1 44 47 view .LVU1318
 6947 0162 C4F81C31 		str	r3, [r4, #284]	@ unaligned
ARM GAS  C:\Users\skipi\AppData\Local\Temp\ccnEQq3j.s 			page 151


 6948 0166 D4F86C31 		ldr	r3, [r4, #364]	@ unaligned
 6949 016a C4F81411 		str	r1, [r4, #276]	@ unaligned
 6950 016e C4F81821 		str	r2, [r4, #280]	@ unaligned
 6951 0172 D4F87011 		ldr	r1, [r4, #368]	@ unaligned
 6952 0176 D4F87421 		ldr	r2, [r4, #372]	@ unaligned
 6953 017a C4F82031 		str	r3, [r4, #288]	@ unaligned
 6954 017e D4F87831 		ldr	r3, [r4, #376]	@ unaligned
 6955              	.LBE2469:
  43:PSP/PlantConditioner.cpp ****         for (int i = 0; i < 7; i++) _scale[i] = _minorNScale[i];
 6956              		.loc 1 43 22 view .LVU1319
 6957 0182 84F8C900 		strb	r0, [r4, #201]
  44:PSP/PlantConditioner.cpp ****         break;
 6958              		.loc 1 44 9 is_stmt 1 view .LVU1320
 6959              	.LVL335:
 6960              	.LBB2470:
  44:PSP/PlantConditioner.cpp ****         break;
 6961              		.loc 1 44 27 view .LVU1321
  44:PSP/PlantConditioner.cpp ****         break;
 6962              		.loc 1 44 47 is_stmt 0 view .LVU1322
 6963 0186 C4F82411 		str	r1, [r4, #292]	@ unaligned
 6964 018a C4F82821 		str	r2, [r4, #296]	@ unaligned
 6965 018e C4F82C31 		str	r3, [r4, #300]	@ unaligned
 6966 0192 86E7     		b	.L32
 6967              	.LVL336:
 6968              	.L29:
  44:PSP/PlantConditioner.cpp ****         break;
 6969              		.loc 1 44 47 view .LVU1323
 6970              	.LBE2470:
  46:PSP/PlantConditioner.cpp ****         _scaleLength = 7;
 6971              		.loc 1 46 5 is_stmt 1 view .LVU1324
  47:PSP/PlantConditioner.cpp ****         for (int i = 0; i < 7; i++) _scale[i] = _minorAScale[i];
 6972              		.loc 1 47 9 view .LVU1325
 6973              	.LBB2471:
  48:PSP/PlantConditioner.cpp ****         break;
 6974              		.loc 1 48 47 is_stmt 0 view .LVU1326
 6975 0194 D0F88431 		ldr	r3, [r0, #388]	@ unaligned
 6976 0198 04F58A75 		add	r5, r4, #276
 6977 019c D0F87C11 		ldr	r1, [r0, #380]	@ unaligned
 6978              	.LVL337:
  48:PSP/PlantConditioner.cpp ****         break;
 6979              		.loc 1 48 47 view .LVU1327
 6980 01a0 D0F88021 		ldr	r2, [r0, #384]	@ unaligned
 6981              	.LVL338:
  48:PSP/PlantConditioner.cpp ****         break;
 6982              		.loc 1 48 47 view .LVU1328
 6983              	.LBE2471:
  47:PSP/PlantConditioner.cpp ****         for (int i = 0; i < 7; i++) _scale[i] = _minorAScale[i];
 6984              		.loc 1 47 22 view .LVU1329
 6985 01a4 0720     		movs	r0, #7
 6986              	.LVL339:
 6987              	.LBB2472:
  48:PSP/PlantConditioner.cpp ****         break;
 6988              		.loc 1 48 47 view .LVU1330
 6989 01a6 C4F81C31 		str	r3, [r4, #284]	@ unaligned
 6990 01aa D4F88831 		ldr	r3, [r4, #392]	@ unaligned
 6991 01ae C4F81411 		str	r1, [r4, #276]	@ unaligned
 6992 01b2 C4F81821 		str	r2, [r4, #280]	@ unaligned
ARM GAS  C:\Users\skipi\AppData\Local\Temp\ccnEQq3j.s 			page 152


 6993 01b6 D4F88C11 		ldr	r1, [r4, #396]	@ unaligned
 6994 01ba D4F89021 		ldr	r2, [r4, #400]	@ unaligned
 6995 01be C4F82031 		str	r3, [r4, #288]	@ unaligned
 6996 01c2 D4F89431 		ldr	r3, [r4, #404]	@ unaligned
 6997              	.LBE2472:
  47:PSP/PlantConditioner.cpp ****         for (int i = 0; i < 7; i++) _scale[i] = _minorAScale[i];
 6998              		.loc 1 47 22 view .LVU1331
 6999 01c6 84F8C900 		strb	r0, [r4, #201]
  48:PSP/PlantConditioner.cpp ****         break;
 7000              		.loc 1 48 9 is_stmt 1 view .LVU1332
 7001              	.LVL340:
 7002              	.LBB2473:
  48:PSP/PlantConditioner.cpp ****         break;
 7003              		.loc 1 48 27 view .LVU1333
  48:PSP/PlantConditioner.cpp ****         break;
 7004              		.loc 1 48 47 is_stmt 0 view .LVU1334
 7005 01ca C4F82411 		str	r1, [r4, #292]	@ unaligned
 7006 01ce C4F82821 		str	r2, [r4, #296]	@ unaligned
 7007 01d2 C4F82C31 		str	r3, [r4, #300]	@ unaligned
 7008 01d6 64E7     		b	.L32
 7009              	.LVL341:
 7010              	.L28:
  48:PSP/PlantConditioner.cpp ****         break;
 7011              		.loc 1 48 47 view .LVU1335
 7012              	.LBE2473:
  50:PSP/PlantConditioner.cpp ****         _scaleLength = 7;
 7013              		.loc 1 50 5 is_stmt 1 view .LVU1336
  51:PSP/PlantConditioner.cpp ****         for (int i = 0; i < 7; i++) _scale[i] = _minorMScale[i];
 7014              		.loc 1 51 9 view .LVU1337
 7015              	.LBB2474:
  52:PSP/PlantConditioner.cpp ****         break;
 7016              		.loc 1 52 47 is_stmt 0 view .LVU1338
 7017 01d8 D0F8A031 		ldr	r3, [r0, #416]	@ unaligned
 7018 01dc 04F58A75 		add	r5, r4, #276
 7019 01e0 D0F89811 		ldr	r1, [r0, #408]	@ unaligned
 7020              	.LVL342:
  52:PSP/PlantConditioner.cpp ****         break;
 7021              		.loc 1 52 47 view .LVU1339
 7022 01e4 D0F89C21 		ldr	r2, [r0, #412]	@ unaligned
 7023              	.LVL343:
  52:PSP/PlantConditioner.cpp ****         break;
 7024              		.loc 1 52 47 view .LVU1340
 7025              	.LBE2474:
  51:PSP/PlantConditioner.cpp ****         for (int i = 0; i < 7; i++) _scale[i] = _minorMScale[i];
 7026              		.loc 1 51 22 view .LVU1341
 7027 01e8 0720     		movs	r0, #7
 7028              	.LVL344:
 7029              	.LBB2475:
  52:PSP/PlantConditioner.cpp ****         break;
 7030              		.loc 1 52 47 view .LVU1342
 7031 01ea C4F81C31 		str	r3, [r4, #284]	@ unaligned
 7032 01ee D4F8A431 		ldr	r3, [r4, #420]	@ unaligned
 7033 01f2 C4F81411 		str	r1, [r4, #276]	@ unaligned
 7034 01f6 C4F81821 		str	r2, [r4, #280]	@ unaligned
 7035 01fa D4F8A811 		ldr	r1, [r4, #424]	@ unaligned
 7036 01fe D4F8AC21 		ldr	r2, [r4, #428]	@ unaligned
 7037 0202 C4F82031 		str	r3, [r4, #288]	@ unaligned
ARM GAS  C:\Users\skipi\AppData\Local\Temp\ccnEQq3j.s 			page 153


 7038 0206 D4F8B031 		ldr	r3, [r4, #432]	@ unaligned
 7039              	.LBE2475:
  51:PSP/PlantConditioner.cpp ****         for (int i = 0; i < 7; i++) _scale[i] = _minorMScale[i];
 7040              		.loc 1 51 22 view .LVU1343
 7041 020a 84F8C900 		strb	r0, [r4, #201]
  52:PSP/PlantConditioner.cpp ****         break;
 7042              		.loc 1 52 9 is_stmt 1 view .LVU1344
 7043              	.LVL345:
 7044              	.LBB2476:
  52:PSP/PlantConditioner.cpp ****         break;
 7045              		.loc 1 52 27 view .LVU1345
  52:PSP/PlantConditioner.cpp ****         break;
 7046              		.loc 1 52 47 is_stmt 0 view .LVU1346
 7047 020e C4F82411 		str	r1, [r4, #292]	@ unaligned
 7048 0212 C4F82821 		str	r2, [r4, #296]	@ unaligned
 7049 0216 C4F82C31 		str	r3, [r4, #300]	@ unaligned
 7050 021a 42E7     		b	.L32
 7051              	.LVL346:
 7052              	.L27:
  52:PSP/PlantConditioner.cpp ****         break;
 7053              		.loc 1 52 47 view .LVU1347
 7054              	.LBE2476:
  54:PSP/PlantConditioner.cpp ****         _scaleLength = 5;
 7055              		.loc 1 54 5 is_stmt 1 view .LVU1348
  55:PSP/PlantConditioner.cpp ****         for (int i = 0; i < 5; i++) _scale[i] = _pentatonicScale[i];
 7056              		.loc 1 55 9 view .LVU1349
 7057              	.LBB2477:
  56:PSP/PlantConditioner.cpp ****         break;
 7058              		.loc 1 56 47 is_stmt 0 view .LVU1350
 7059 021c D0F8B431 		ldr	r3, [r0, #436]	@ unaligned
 7060              	.LBE2477:
  55:PSP/PlantConditioner.cpp ****         for (int i = 0; i < 5; i++) _scale[i] = _pentatonicScale[i];
 7061              		.loc 1 55 22 view .LVU1351
 7062 0220 0521     		movs	r1, #5
 7063              	.LVL347:
 7064              	.LBB2478:
  56:PSP/PlantConditioner.cpp ****         break;
 7065              		.loc 1 56 47 view .LVU1352
 7066 0222 04F58A75 		add	r5, r4, #276
 7067 0226 C0F81431 		str	r3, [r0, #276]	@ unaligned
 7068 022a D4F8BC31 		ldr	r3, [r4, #444]	@ unaligned
 7069 022e D0F8B801 		ldr	r0, [r0, #440]	@ unaligned
 7070              	.LVL348:
  56:PSP/PlantConditioner.cpp ****         break;
 7071              		.loc 1 56 47 view .LVU1353
 7072 0232 D4F8C021 		ldr	r2, [r4, #448]	@ unaligned
 7073              	.LVL349:
  56:PSP/PlantConditioner.cpp ****         break;
 7074              		.loc 1 56 47 view .LVU1354
 7075 0236 C4F81C31 		str	r3, [r4, #284]	@ unaligned
 7076 023a D4F8C431 		ldr	r3, [r4, #452]	@ unaligned
 7077 023e C4F81801 		str	r0, [r4, #280]	@ unaligned
 7078              	.LBE2478:
  55:PSP/PlantConditioner.cpp ****         for (int i = 0; i < 5; i++) _scale[i] = _pentatonicScale[i];
 7079              		.loc 1 55 22 view .LVU1355
 7080 0242 84F8C910 		strb	r1, [r4, #201]
  56:PSP/PlantConditioner.cpp ****         break;
ARM GAS  C:\Users\skipi\AppData\Local\Temp\ccnEQq3j.s 			page 154


 7081              		.loc 1 56 9 is_stmt 1 view .LVU1356
 7082              	.LVL350:
 7083              	.LBB2479:
  56:PSP/PlantConditioner.cpp ****         break;
 7084              		.loc 1 56 27 view .LVU1357
  56:PSP/PlantConditioner.cpp ****         break;
 7085              		.loc 1 56 47 is_stmt 0 view .LVU1358
 7086 0246 C4F82021 		str	r2, [r4, #288]	@ unaligned
 7087 024a C4F82431 		str	r3, [r4, #292]	@ unaligned
 7088 024e 28E7     		b	.L32
 7089              	.LBE2479:
 7090              	.LBE2486:
 7091              		.cfi_endproc
 7092              	.LFE5078:
 7094              		.section	.text._ZN16PlantConditioner9setOctaveEh,"ax",%progbits
 7095              		.align	1
 7096              		.p2align 2,,3
 7097              		.global	_ZN16PlantConditioner9setOctaveEh
 7098              		.syntax unified
 7099              		.thumb
 7100              		.thumb_func
 7101              		.fpu fpv5-d16
 7103              	_ZN16PlantConditioner9setOctaveEh:
 7104              	.LVL351:
 7105              	.LFB5079:
  81:PSP/PlantConditioner.cpp ****     _octave = octave;
 7106              		.loc 1 81 50 is_stmt 1 view -0
 7107              		.cfi_startproc
 7108              		@ args = 0, pretend = 0, frame = 0
 7109              		@ frame_needed = 0, uses_anonymous_args = 0
 7110              		@ link register save eliminated.
  82:PSP/PlantConditioner.cpp **** }
 7111              		.loc 1 82 5 view .LVU1360
  82:PSP/PlantConditioner.cpp **** }
 7112              		.loc 1 82 13 is_stmt 0 view .LVU1361
 7113 0000 80F8C810 		strb	r1, [r0, #200]
  83:PSP/PlantConditioner.cpp **** 
 7114              		.loc 1 83 1 view .LVU1362
 7115 0004 7047     		bx	lr
 7116              		.cfi_endproc
 7117              	.LFE5079:
 7119 0006 00BF     		.section	.text._ZN16PlantConditioner7ProcessEv,"ax",%progbits
 7120              		.align	1
 7121              		.p2align 2,,3
 7122              		.global	_ZN16PlantConditioner7ProcessEv
 7123              		.syntax unified
 7124              		.thumb
 7125              		.thumb_func
 7126              		.fpu fpv5-d16
 7128              	_ZN16PlantConditioner7ProcessEv:
 7129              	.LVL352:
 7130              	.LFB5080:
  85:PSP/PlantConditioner.cpp ****     float out = _lastFreq;
 7131              		.loc 1 85 58 is_stmt 1 view -0
 7132              		.cfi_startproc
 7133              		@ args = 0, pretend = 0, frame = 8
 7134              		@ frame_needed = 0, uses_anonymous_args = 0
ARM GAS  C:\Users\skipi\AppData\Local\Temp\ccnEQq3j.s 			page 155


  86:PSP/PlantConditioner.cpp ****     if (_cap.Touched() & _BV(0))
 7135              		.loc 1 86 5 view .LVU1364
  85:PSP/PlantConditioner.cpp ****     float out = _lastFreq;
 7136              		.loc 1 85 58 is_stmt 0 view .LVU1365
 7137 0000 2DE9F041 		push	{r4, r5, r6, r7, r8, lr}
 7138              		.cfi_def_cfa_offset 24
 7139              		.cfi_offset 4, -24
 7140              		.cfi_offset 5, -20
 7141              		.cfi_offset 6, -16
 7142              		.cfi_offset 7, -12
 7143              		.cfi_offset 8, -8
 7144              		.cfi_offset 14, -4
 7145 0004 2DED028B 		vpush.64	{d8}
 7146              		.cfi_def_cfa_offset 32
 7147              		.cfi_offset 80, -32
 7148              		.cfi_offset 81, -28
 7149 0008 86B0     		sub	sp, sp, #24
 7150              		.cfi_def_cfa_offset 56
 7151              	.LBB2526:
 7152              	.LBB2527:
 7153              	.LBB2528:
 7154              	.LBB2529:
 7155              	.LBB2530:
 7156              	.LBB2531:
 7157              	.LBB2532:
  66:../libs/PoliTeKDSP/libs/libDaisy/src/dev/mpr121.h ****                    config_.dev_addr, address, 1, data, size, 10);
 7158              		.loc 2 66 41 view .LVU1366
 7159 000a 0A22     		movs	r2, #10
 7160 000c 0223     		movs	r3, #2
 7161 000e 01F13407 		add	r7, r1, #52
 7162 0012 0DF11606 		add	r6, sp, #22
 7163              	.LBE2532:
 7164              	.LBE2531:
 7165              	.LBE2530:
 7166              	.LBE2529:
 7167              	.LBE2528:
 7168              	.LBE2527:
 7169              	.LBE2526:
  85:PSP/PlantConditioner.cpp ****     float out = _lastFreq;
 7170              		.loc 1 85 58 view .LVU1367
 7171 0016 0C46     		mov	r4, r1
 7172 0018 0546     		mov	r5, r0
 7173              	.LBB2633:
 7174              	.LBB2545:
 7175              	.LBB2543:
 7176              	.LBB2541:
 7177              	.LBB2539:
 7178              	.LBB2535:
 7179              	.LBB2533:
  66:../libs/PoliTeKDSP/libs/libDaisy/src/dev/mpr121.h ****                    config_.dev_addr, address, 1, data, size, 10);
 7180              		.loc 2 66 41 view .LVU1368
 7181 001a 3846     		mov	r0, r7
 7182              	.LVL353:
  66:../libs/PoliTeKDSP/libs/libDaisy/src/dev/mpr121.h ****                    config_.dev_addr, address, 1, data, size, 10);
 7183              		.loc 2 66 41 view .LVU1369
 7184 001c 0096     		str	r6, [sp]
 7185 001e CDE90132 		strd	r3, r2, [sp, #4]
ARM GAS  C:\Users\skipi\AppData\Local\Temp\ccnEQq3j.s 			page 156


 7186 0022 0123     		movs	r3, #1
 7187              	.LBE2533:
 7188              	.LBE2535:
 7189              	.LBE2539:
 7190              	.LBE2541:
 7191              	.LBE2543:
 7192              	.LBE2545:
 7193              	.LBE2633:
  86:PSP/PlantConditioner.cpp ****     if (_cap.Touched() & _BV(0))
 7194              		.loc 1 86 11 view .LVU1370
 7195 0024 91ED2F8A 		vldr.32	s16, [r1, #188]
 7196              	.LVL354:
  87:PSP/PlantConditioner.cpp ****     {
 7197              		.loc 1 87 5 is_stmt 1 view .LVU1371
 7198              	.LBB2634:
 7199              	.LBB2546:
 7200              	.LBI2527:
 222:../libs/PoliTeKDSP/libs/libDaisy/src/dev/mpr121.h ****     {
 7201              		.loc 2 222 14 view .LVU1372
 7202              	.LBB2544:
 7203              	.LBB2542:
 7204              	.LBI2529:
 244:../libs/PoliTeKDSP/libs/libDaisy/src/dev/mpr121.h ****     {
 7205              		.loc 2 244 14 view .LVU1373
 7206              	.LBB2540:
 7207              	.LBB2536:
 7208              	.LBI2531:
  63:../libs/PoliTeKDSP/libs/libDaisy/src/dev/mpr121.h ****     {
 7209              		.loc 2 63 10 view .LVU1374
 7210              	.LBB2534:
  65:../libs/PoliTeKDSP/libs/libDaisy/src/dev/mpr121.h ****                != i2c_.ReadDataAtAddress(
 7211              		.loc 2 65 9 view .LVU1375
  66:../libs/PoliTeKDSP/libs/libDaisy/src/dev/mpr121.h ****                    config_.dev_addr, address, 1, data, size, 10);
 7212              		.loc 2 66 41 is_stmt 0 view .LVU1376
 7213 0028 0022     		movs	r2, #0
 7214 002a 91F84810 		ldrb	r1, [r1, #72]	@ zero_extendqisi2
 7215              	.LVL355:
  66:../libs/PoliTeKDSP/libs/libDaisy/src/dev/mpr121.h ****                    config_.dev_addr, address, 1, data, size, 10);
 7216              		.loc 2 66 41 view .LVU1377
 7217 002e FFF7FEFF 		bl	_ZN5daisy9I2CHandle17ReadDataAtAddressEtttPhtm
 7218              	.LVL356:
  66:../libs/PoliTeKDSP/libs/libDaisy/src/dev/mpr121.h ****                    config_.dev_addr, address, 1, data, size, 10);
 7219              		.loc 2 66 41 view .LVU1378
 7220              	.LBE2534:
 7221              	.LBE2536:
 7222              	.LBB2537:
 7223              	.LBI2537:
 336:../libs/PoliTeKDSP/libs/libDaisy/src/dev/mpr121.h **** 
 7224              		.loc 2 336 10 is_stmt 1 view .LVU1379
 7225              	.LBB2538:
 336:../libs/PoliTeKDSP/libs/libDaisy/src/dev/mpr121.h **** 
 7226              		.loc 2 336 55 is_stmt 0 view .LVU1380
 7227 0032 94F84C30 		ldrb	r3, [r4, #76]	@ zero_extendqisi2
 7228 0036 0028     		cmp	r0, #0
 7229 0038 18BF     		it	ne
 7230 003a 43F00103 		orrne	r3, r3, #1
 7231 003e 84F84C30 		strb	r3, [r4, #76]
ARM GAS  C:\Users\skipi\AppData\Local\Temp\ccnEQq3j.s 			page 157


 7232              	.LVL357:
 336:../libs/PoliTeKDSP/libs/libDaisy/src/dev/mpr121.h **** 
 7233              		.loc 2 336 55 view .LVU1381
 7234              	.LBE2538:
 7235              	.LBE2537:
 250:../libs/PoliTeKDSP/libs/libDaisy/src/dev/mpr121.h ****     }
 7236              		.loc 2 250 16 view .LVU1382
 7237 0042 BDF81630 		ldrh	r3, [sp, #22]
 7238              	.LVL358:
 250:../libs/PoliTeKDSP/libs/libDaisy/src/dev/mpr121.h ****     }
 7239              		.loc 2 250 16 view .LVU1383
 7240              	.LBE2540:
 7241              	.LBE2542:
 7242              	.LBE2544:
 7243              	.LBE2546:
  87:PSP/PlantConditioner.cpp ****     {
 7244              		.loc 1 87 5 view .LVU1384
 7245 0046 13F00103 		ands	r3, r3, #1
 7246 004a 00F0A180 		beq	.L44
 7247              	.LBB2547:
  89:PSP/PlantConditioner.cpp ****         
 7248              		.loc 1 89 9 is_stmt 1 view .LVU1385
 7249 004e 94F8B430 		ldrb	r3, [r4, #180]	@ zero_extendqisi2
 7250 0052 13B9     		cbnz	r3, .L45
  89:PSP/PlantConditioner.cpp ****         
 7251              		.loc 1 89 26 discriminator 1 view .LVU1386
  89:PSP/PlantConditioner.cpp ****         
 7252              		.loc 1 89 37 is_stmt 0 discriminator 1 view .LVU1387
 7253 0054 0123     		movs	r3, #1
 7254 0056 84F8B430 		strb	r3, [r4, #180]
 7255              	.L45:
  92:PSP/PlantConditioner.cpp ****         _deltaFilt = _deltaFilter.Process(_deltaFilterMF.Process(_delta));
 7256              		.loc 1 92 9 is_stmt 1 view .LVU1388
 7257              	.LVL359:
 7258              	.LBB2548:
 7259              	.LBI2548:
 209:../libs/PoliTeKDSP/libs/libDaisy/src/dev/mpr121.h ****     {
 7260              		.loc 2 209 14 view .LVU1389
 7261              	.LBB2549:
 7262              	.LBB2550:
 7263              	.LBI2550:
 209:../libs/PoliTeKDSP/libs/libDaisy/src/dev/mpr121.h ****     {
 7264              		.loc 2 209 14 view .LVU1390
 7265              	.LBB2551:
 7266              	.LBB2552:
 7267              	.LBI2552:
 232:../libs/PoliTeKDSP/libs/libDaisy/src/dev/mpr121.h ****     {
 7268              		.loc 2 232 13 view .LVU1391
 7269              	.LBB2553:
 7270              	.LBB2554:
 7271              	.LBI2554:
  63:../libs/PoliTeKDSP/libs/libDaisy/src/dev/mpr121.h ****     {
 7272              		.loc 2 63 10 view .LVU1392
 7273              	.LBB2555:
  65:../libs/PoliTeKDSP/libs/libDaisy/src/dev/mpr121.h ****                != i2c_.ReadDataAtAddress(
 7274              		.loc 2 65 9 view .LVU1393
  66:../libs/PoliTeKDSP/libs/libDaisy/src/dev/mpr121.h ****                    config_.dev_addr, address, 1, data, size, 10);
ARM GAS  C:\Users\skipi\AppData\Local\Temp\ccnEQq3j.s 			page 158


 7275              		.loc 2 66 41 is_stmt 0 view .LVU1394
 7276 005a 0123     		movs	r3, #1
 7277 005c 4FF00A08 		mov	r8, #10
 7278 0060 0096     		str	r6, [sp]
 7279 0062 1E22     		movs	r2, #30
 7280 0064 0193     		str	r3, [sp, #4]
 7281 0066 3846     		mov	r0, r7
 7282 0068 CDF80880 		str	r8, [sp, #8]
 7283 006c 94F84810 		ldrb	r1, [r4, #72]	@ zero_extendqisi2
 7284 0070 FFF7FEFF 		bl	_ZN5daisy9I2CHandle17ReadDataAtAddressEtttPhtm
 7285              	.LVL360:
  66:../libs/PoliTeKDSP/libs/libDaisy/src/dev/mpr121.h ****                    config_.dev_addr, address, 1, data, size, 10);
 7286              		.loc 2 66 41 view .LVU1395
 7287              	.LBE2555:
 7288              	.LBE2554:
 7289              	.LBE2553:
 7290              	.LBE2552:
 7291              	.LBE2551:
 7292              	.LBE2550:
 7293              	.LBE2549:
 7294              	.LBE2548:
 7295              	.LBB2572:
 7296              	.LBB2573:
 7297              	.LBB2574:
 7298              	.LBB2575:
 7299              	.LBB2576:
 7300              	.LBB2577:
 7301 0074 0096     		str	r6, [sp]
 7302 0076 CDF80880 		str	r8, [sp, #8]
 7303              	.LBE2577:
 7304              	.LBE2576:
 7305              	.LBE2575:
 7306              	.LBE2574:
 7307              	.LBE2573:
 7308              	.LBE2572:
 7309              	.LBB2601:
 7310              	.LBB2570:
 7311              	.LBB2568:
 7312              	.LBB2566:
 7313              	.LBB2564:
 7314              	.LBB2562:
 7315              	.LBB2557:
 7316              	.LBB2556:
 7317 007a 0146     		mov	r1, r0
 7318              	.LVL361:
  66:../libs/PoliTeKDSP/libs/libDaisy/src/dev/mpr121.h ****                    config_.dev_addr, address, 1, data, size, 10);
 7319              		.loc 2 66 41 view .LVU1396
 7320              	.LBE2556:
 7321              	.LBE2557:
 7322              	.LBB2558:
 7323              	.LBI2558:
 336:../libs/PoliTeKDSP/libs/libDaisy/src/dev/mpr121.h **** 
 7324              		.loc 2 336 10 is_stmt 1 view .LVU1397
 7325              	.LBB2559:
 336:../libs/PoliTeKDSP/libs/libDaisy/src/dev/mpr121.h **** 
 7326              		.loc 2 336 55 is_stmt 0 view .LVU1398
 7327 007c 94F84C20 		ldrb	r2, [r4, #76]	@ zero_extendqisi2
ARM GAS  C:\Users\skipi\AppData\Local\Temp\ccnEQq3j.s 			page 159


 7328              	.LBE2559:
 7329              	.LBE2558:
 7330              	.LBE2562:
 7331              	.LBE2564:
 7332              	.LBE2566:
 7333              	.LBE2568:
 7334              	.LBE2570:
 7335              	.LBE2601:
 7336              	.LBB2602:
 7337              	.LBB2597:
 7338              	.LBB2593:
 7339              	.LBB2589:
 7340              	.LBB2580:
 7341              	.LBB2578:
  66:../libs/PoliTeKDSP/libs/libDaisy/src/dev/mpr121.h ****                    config_.dev_addr, address, 1, data, size, 10);
 7342              		.loc 2 66 41 view .LVU1399
 7343 0080 0123     		movs	r3, #1
 7344 0082 3846     		mov	r0, r7
 7345              	.LVL362:
  66:../libs/PoliTeKDSP/libs/libDaisy/src/dev/mpr121.h ****                    config_.dev_addr, address, 1, data, size, 10);
 7346              		.loc 2 66 41 view .LVU1400
 7347              	.LBE2578:
 7348              	.LBE2580:
 7349              	.LBE2589:
 7350              	.LBE2593:
 7351              	.LBE2597:
 7352              	.LBE2602:
 7353              	.LBB2603:
 7354              	.LBB2571:
 7355              	.LBB2569:
 7356              	.LBB2567:
 7357              	.LBB2565:
 7358              	.LBB2563:
 237:../libs/PoliTeKDSP/libs/libDaisy/src/dev/mpr121.h ****     }
 7359              		.loc 2 237 16 view .LVU1401
 7360 0084 9DF81660 		ldrb	r6, [sp, #22]	@ zero_extendqisi2
 7361              	.LBB2561:
 7362              	.LBB2560:
 336:../libs/PoliTeKDSP/libs/libDaisy/src/dev/mpr121.h **** 
 7363              		.loc 2 336 55 view .LVU1402
 7364 0088 0029     		cmp	r1, #0
 7365 008a 18BF     		it	ne
 7366 008c 42F00102 		orrne	r2, r2, #1
 7367 0090 84F84C20 		strb	r2, [r4, #76]
 7368              	.LVL363:
 336:../libs/PoliTeKDSP/libs/libDaisy/src/dev/mpr121.h **** 
 7369              		.loc 2 336 55 view .LVU1403
 7370              	.LBE2560:
 7371              	.LBE2561:
 7372              	.LBE2563:
 7373              	.LBE2565:
 7374              	.LBE2567:
 7375              	.LBE2569:
 7376              	.LBE2571:
 7377              	.LBE2603:
 7378              	.LBB2604:
 7379              	.LBI2572:
ARM GAS  C:\Users\skipi\AppData\Local\Temp\ccnEQq3j.s 			page 160


 196:../libs/PoliTeKDSP/libs/libDaisy/src/dev/mpr121.h ****     {
 7380              		.loc 2 196 14 is_stmt 1 view .LVU1404
 7381              	.LBB2598:
 7382              	.LBI2573:
 196:../libs/PoliTeKDSP/libs/libDaisy/src/dev/mpr121.h ****     {
 7383              		.loc 2 196 14 view .LVU1405
 7384              	.LBB2594:
 7385              	.LBI2574:
 244:../libs/PoliTeKDSP/libs/libDaisy/src/dev/mpr121.h ****     {
 7386              		.loc 2 244 14 view .LVU1406
 7387              	.LBB2590:
 7388              	.LBB2581:
 7389              	.LBI2576:
  63:../libs/PoliTeKDSP/libs/libDaisy/src/dev/mpr121.h ****     {
 7390              		.loc 2 63 10 view .LVU1407
 7391              	.LBB2579:
  65:../libs/PoliTeKDSP/libs/libDaisy/src/dev/mpr121.h ****                != i2c_.ReadDataAtAddress(
 7392              		.loc 2 65 9 view .LVU1408
  66:../libs/PoliTeKDSP/libs/libDaisy/src/dev/mpr121.h ****                    config_.dev_addr, address, 1, data, size, 10);
 7393              		.loc 2 66 41 is_stmt 0 view .LVU1409
 7394 0094 0222     		movs	r2, #2
 7395 0096 0192     		str	r2, [sp, #4]
 7396 0098 0422     		movs	r2, #4
 7397 009a 94F84810 		ldrb	r1, [r4, #72]	@ zero_extendqisi2
 7398 009e FFF7FEFF 		bl	_ZN5daisy9I2CHandle17ReadDataAtAddressEtttPhtm
 7399              	.LVL364:
  66:../libs/PoliTeKDSP/libs/libDaisy/src/dev/mpr121.h ****                    config_.dev_addr, address, 1, data, size, 10);
 7400              		.loc 2 66 41 view .LVU1410
 7401              	.LBE2579:
 7402              	.LBE2581:
 7403              	.LBB2582:
 7404              	.LBI2582:
 336:../libs/PoliTeKDSP/libs/libDaisy/src/dev/mpr121.h **** 
 7405              		.loc 2 336 10 is_stmt 1 view .LVU1411
 7406              	.LBE2582:
 250:../libs/PoliTeKDSP/libs/libDaisy/src/dev/mpr121.h ****     }
 7407              		.loc 2 250 16 is_stmt 0 view .LVU1412
 7408 00a2 BDF81630 		ldrh	r3, [sp, #22]
 7409              	.LBB2586:
 7410              	.LBB2583:
 336:../libs/PoliTeKDSP/libs/libDaisy/src/dev/mpr121.h **** 
 7411              		.loc 2 336 55 view .LVU1413
 7412 00a6 94F84C20 		ldrb	r2, [r4, #76]	@ zero_extendqisi2
 7413              	.LBE2583:
 7414              	.LBE2586:
 7415              	.LBE2590:
 7416              	.LBE2594:
 7417              	.LBE2598:
 7418              	.LBE2604:
  92:PSP/PlantConditioner.cpp ****         _deltaFilt = _deltaFilter.Process(_deltaFilterMF.Process(_delta));
 7419              		.loc 1 92 39 view .LVU1414
 7420 00aa C3EB8603 		rsb	r3, r3, r6, lsl #2
 7421              	.LBB2605:
 7422              	.LBB2599:
 7423              	.LBB2595:
 7424              	.LBB2591:
 7425              	.LBB2587:
ARM GAS  C:\Users\skipi\AppData\Local\Temp\ccnEQq3j.s 			page 161


 7426              	.LBB2584:
 336:../libs/PoliTeKDSP/libs/libDaisy/src/dev/mpr121.h **** 
 7427              		.loc 2 336 55 view .LVU1415
 7428 00ae 0028     		cmp	r0, #0
 7429 00b0 18BF     		it	ne
 7430 00b2 42F00102 		orrne	r2, r2, #1
 7431              	.LBE2584:
 7432              	.LBE2587:
 7433              	.LBE2591:
 7434              	.LBE2595:
 7435              	.LBE2599:
 7436              	.LBE2605:
  93:PSP/PlantConditioner.cpp ****         _deltaFilt = fclamp(_deltaFilt, _deltaMin, _deltaMax - 0.001f);
 7437              		.loc 1 93 42 view .LVU1416
 7438 00b6 04F19C00 		add	r0, r4, #156
 7439              	.LVL365:
  92:PSP/PlantConditioner.cpp ****         _deltaFilt = _deltaFilter.Process(_deltaFilterMF.Process(_delta));
 7440              		.loc 1 92 39 view .LVU1417
 7441 00ba 00EE103A 		vmov	s0, r3	@ int
  92:PSP/PlantConditioner.cpp ****         _deltaFilt = _deltaFilter.Process(_deltaFilterMF.Process(_delta));
 7442              		.loc 1 92 64 view .LVU1418
 7443 00be 94F85030 		ldrb	r3, [r4, #80]	@ zero_extendqisi2
 7444              	.LBB2606:
 7445              	.LBB2600:
 7446              	.LBB2596:
 7447              	.LBB2592:
 7448              	.LBB2588:
 7449              	.LBB2585:
 336:../libs/PoliTeKDSP/libs/libDaisy/src/dev/mpr121.h **** 
 7450              		.loc 2 336 55 view .LVU1419
 7451 00c2 84F84C20 		strb	r2, [r4, #76]
 7452              	.LVL366:
 336:../libs/PoliTeKDSP/libs/libDaisy/src/dev/mpr121.h **** 
 7453              		.loc 2 336 55 view .LVU1420
 7454              	.LBE2585:
 7455              	.LBE2588:
 7456              	.LBE2592:
 7457              	.LBE2596:
 7458              	.LBE2600:
 7459              	.LBE2606:
  92:PSP/PlantConditioner.cpp ****         _deltaFilt = _deltaFilter.Process(_deltaFilterMF.Process(_delta));
 7460              		.loc 1 92 64 view .LVU1421
 7461 00c6 07EE103A 		vmov	s14, r3	@ int
  92:PSP/PlantConditioner.cpp ****         _deltaFilt = _deltaFilter.Process(_deltaFilterMF.Process(_delta));
 7462              		.loc 1 92 62 view .LVU1422
 7463 00ca F8EEC07A 		vcvt.f32.s32	s15, s0
  92:PSP/PlantConditioner.cpp ****         _deltaFilt = _deltaFilter.Process(_deltaFilterMF.Process(_delta));
 7464              		.loc 1 92 64 view .LVU1423
 7465 00ce B8EE470A 		vcvt.f32.u32	s0, s14
  92:PSP/PlantConditioner.cpp ****         _deltaFilt = _deltaFilter.Process(_deltaFilterMF.Process(_delta));
 7466              		.loc 1 92 62 view .LVU1424
 7467 00d2 37EEC00A 		vsub.f32	s0, s15, s0
  92:PSP/PlantConditioner.cpp ****         _deltaFilt = _deltaFilter.Process(_deltaFilterMF.Process(_delta));
 7468              		.loc 1 92 16 view .LVU1425
 7469 00d6 84ED360A 		vstr.32	s0, [r4, #216]
  93:PSP/PlantConditioner.cpp ****         _deltaFilt = fclamp(_deltaFilt, _deltaMin, _deltaMax - 0.001f);
 7470              		.loc 1 93 9 is_stmt 1 view .LVU1426
ARM GAS  C:\Users\skipi\AppData\Local\Temp\ccnEQq3j.s 			page 162


  93:PSP/PlantConditioner.cpp ****         _deltaFilt = fclamp(_deltaFilt, _deltaMin, _deltaMax - 0.001f);
 7471              		.loc 1 93 42 is_stmt 0 view .LVU1427
 7472 00da FFF7FEFF 		bl	_ZN2MF7ProcessEf
 7473              	.LVL367:
 7474 00de 04F15400 		add	r0, r4, #84
 7475 00e2 FFF7FEFF 		bl	_ZN3IIR7ProcessEf
 7476              	.LVL368:
  94:PSP/PlantConditioner.cpp ****         
 7477              		.loc 1 94 9 is_stmt 1 view .LVU1428
 7478              	.LBB2607:
 7479              	.LBI2607:
 7480              		.file 5 "../libs/PoliTeKDSP/libs/DaisySP/Source/Utility/dsp.h"
   1:../libs/PoliTeKDSP/libs/DaisySP/Source/Utility/dsp.h **** /*
   2:../libs/PoliTeKDSP/libs/DaisySP/Source/Utility/dsp.h **** Copyright (c) 2020 Electrosmith, Corp, Emilie Gillet
   3:../libs/PoliTeKDSP/libs/DaisySP/Source/Utility/dsp.h **** 
   4:../libs/PoliTeKDSP/libs/DaisySP/Source/Utility/dsp.h **** Use of this source code is governed by an MIT-style
   5:../libs/PoliTeKDSP/libs/DaisySP/Source/Utility/dsp.h **** license that can be found in the LICENSE file or at
   6:../libs/PoliTeKDSP/libs/DaisySP/Source/Utility/dsp.h **** https://opensource.org/licenses/MIT.
   7:../libs/PoliTeKDSP/libs/DaisySP/Source/Utility/dsp.h **** */
   8:../libs/PoliTeKDSP/libs/DaisySP/Source/Utility/dsp.h **** 
   9:../libs/PoliTeKDSP/libs/DaisySP/Source/Utility/dsp.h **** /** Helpful defines, functions, and other utilities for use in/with daisysp modules.
  10:../libs/PoliTeKDSP/libs/DaisySP/Source/Utility/dsp.h **** */
  11:../libs/PoliTeKDSP/libs/DaisySP/Source/Utility/dsp.h **** #pragma once
  12:../libs/PoliTeKDSP/libs/DaisySP/Source/Utility/dsp.h **** #ifndef DSY_CORE_DSP
  13:../libs/PoliTeKDSP/libs/DaisySP/Source/Utility/dsp.h **** #define DSY_CORE_DSP
  14:../libs/PoliTeKDSP/libs/DaisySP/Source/Utility/dsp.h **** #include <cassert>
  15:../libs/PoliTeKDSP/libs/DaisySP/Source/Utility/dsp.h **** #include <cstdint>
  16:../libs/PoliTeKDSP/libs/DaisySP/Source/Utility/dsp.h **** #include <random>
  17:../libs/PoliTeKDSP/libs/DaisySP/Source/Utility/dsp.h **** #include <cmath>
  18:../libs/PoliTeKDSP/libs/DaisySP/Source/Utility/dsp.h **** 
  19:../libs/PoliTeKDSP/libs/DaisySP/Source/Utility/dsp.h **** /** PIs
  20:../libs/PoliTeKDSP/libs/DaisySP/Source/Utility/dsp.h **** */
  21:../libs/PoliTeKDSP/libs/DaisySP/Source/Utility/dsp.h **** #define PI_F 3.1415927410125732421875f
  22:../libs/PoliTeKDSP/libs/DaisySP/Source/Utility/dsp.h **** #define TWOPI_F (2.0f * PI_F)
  23:../libs/PoliTeKDSP/libs/DaisySP/Source/Utility/dsp.h **** #define HALFPI_F (PI_F * 0.5f)
  24:../libs/PoliTeKDSP/libs/DaisySP/Source/Utility/dsp.h **** #define DSY_MIN(in, mn) (in < mn ? in : mn)
  25:../libs/PoliTeKDSP/libs/DaisySP/Source/Utility/dsp.h **** #define DSY_MAX(in, mx) (in > mx ? in : mx)
  26:../libs/PoliTeKDSP/libs/DaisySP/Source/Utility/dsp.h **** #define DSY_CLAMP(in, mn, mx) (DSY_MIN(DSY_MAX(in, mn), mx))
  27:../libs/PoliTeKDSP/libs/DaisySP/Source/Utility/dsp.h **** #define DSY_COUNTOF(_arr) (sizeof(_arr) / sizeof(_arr[0]))
  28:../libs/PoliTeKDSP/libs/DaisySP/Source/Utility/dsp.h **** 
  29:../libs/PoliTeKDSP/libs/DaisySP/Source/Utility/dsp.h **** namespace daisysp
  30:../libs/PoliTeKDSP/libs/DaisySP/Source/Utility/dsp.h **** {
  31:../libs/PoliTeKDSP/libs/DaisySP/Source/Utility/dsp.h **** //Avoids division for random floats. e.g. rand() * kRandFrac
  32:../libs/PoliTeKDSP/libs/DaisySP/Source/Utility/dsp.h **** static constexpr float kRandFrac = 1.f / (float)RAND_MAX;
  33:../libs/PoliTeKDSP/libs/DaisySP/Source/Utility/dsp.h **** 
  34:../libs/PoliTeKDSP/libs/DaisySP/Source/Utility/dsp.h **** //Convert from semitones to other units. e.g. 2 ^ (kOneTwelfth * x)
  35:../libs/PoliTeKDSP/libs/DaisySP/Source/Utility/dsp.h **** static constexpr float kOneTwelfth = 1.f / 12.f;
  36:../libs/PoliTeKDSP/libs/DaisySP/Source/Utility/dsp.h **** 
  37:../libs/PoliTeKDSP/libs/DaisySP/Source/Utility/dsp.h **** /** efficient floating point min/max
  38:../libs/PoliTeKDSP/libs/DaisySP/Source/Utility/dsp.h **** c/o stephen mccaul
  39:../libs/PoliTeKDSP/libs/DaisySP/Source/Utility/dsp.h **** */
  40:../libs/PoliTeKDSP/libs/DaisySP/Source/Utility/dsp.h **** inline float fmax(float a, float b)
  41:../libs/PoliTeKDSP/libs/DaisySP/Source/Utility/dsp.h **** {
  42:../libs/PoliTeKDSP/libs/DaisySP/Source/Utility/dsp.h ****     float r;
  43:../libs/PoliTeKDSP/libs/DaisySP/Source/Utility/dsp.h **** #ifdef __arm__
  44:../libs/PoliTeKDSP/libs/DaisySP/Source/Utility/dsp.h ****     asm("vmaxnm.f32 %[d], %[n], %[m]" : [d] "=t"(r) : [n] "t"(a), [m] "t"(b) :);
  45:../libs/PoliTeKDSP/libs/DaisySP/Source/Utility/dsp.h **** #else
ARM GAS  C:\Users\skipi\AppData\Local\Temp\ccnEQq3j.s 			page 163


  46:../libs/PoliTeKDSP/libs/DaisySP/Source/Utility/dsp.h ****     r = (a > b) ? a : b;
  47:../libs/PoliTeKDSP/libs/DaisySP/Source/Utility/dsp.h **** #endif // __arm__
  48:../libs/PoliTeKDSP/libs/DaisySP/Source/Utility/dsp.h ****     return r;
  49:../libs/PoliTeKDSP/libs/DaisySP/Source/Utility/dsp.h **** }
  50:../libs/PoliTeKDSP/libs/DaisySP/Source/Utility/dsp.h **** 
  51:../libs/PoliTeKDSP/libs/DaisySP/Source/Utility/dsp.h **** inline float fmin(float a, float b)
  52:../libs/PoliTeKDSP/libs/DaisySP/Source/Utility/dsp.h **** {
  53:../libs/PoliTeKDSP/libs/DaisySP/Source/Utility/dsp.h ****     float r;
  54:../libs/PoliTeKDSP/libs/DaisySP/Source/Utility/dsp.h **** #ifdef __arm__
  55:../libs/PoliTeKDSP/libs/DaisySP/Source/Utility/dsp.h ****     asm("vminnm.f32 %[d], %[n], %[m]" : [d] "=t"(r) : [n] "t"(a), [m] "t"(b) :);
  56:../libs/PoliTeKDSP/libs/DaisySP/Source/Utility/dsp.h **** #else
  57:../libs/PoliTeKDSP/libs/DaisySP/Source/Utility/dsp.h ****     r = (a < b) ? a : b;
  58:../libs/PoliTeKDSP/libs/DaisySP/Source/Utility/dsp.h **** #endif // __arm__
  59:../libs/PoliTeKDSP/libs/DaisySP/Source/Utility/dsp.h ****     return r;
  60:../libs/PoliTeKDSP/libs/DaisySP/Source/Utility/dsp.h **** }
  61:../libs/PoliTeKDSP/libs/DaisySP/Source/Utility/dsp.h **** 
  62:../libs/PoliTeKDSP/libs/DaisySP/Source/Utility/dsp.h **** /** quick fp clamp
  63:../libs/PoliTeKDSP/libs/DaisySP/Source/Utility/dsp.h **** */
  64:../libs/PoliTeKDSP/libs/DaisySP/Source/Utility/dsp.h **** inline float fclamp(float in, float min, float max)
 7481              		.loc 5 64 14 view .LVU1429
 7482              	.LBE2607:
 7483              	.LBE2547:
 7484              	.LBE2634:
  65:../libs/PoliTeKDSP/libs/DaisySP/Source/Utility/dsp.h **** {
  66:../libs/PoliTeKDSP/libs/DaisySP/Source/Utility/dsp.h ****     return fmin(fmax(in, min), max);
 7485              		.loc 5 66 5 view .LVU1430
 7486              	.LBB2635:
 7487              	.LBB2630:
 7488              	.LBB2616:
 7489              	.LBB2608:
 7490              	.LBI2608:
  40:../libs/PoliTeKDSP/libs/DaisySP/Source/Utility/dsp.h **** {
 7491              		.loc 5 40 14 view .LVU1431
 7492              	.LBB2609:
  42:../libs/PoliTeKDSP/libs/DaisySP/Source/Utility/dsp.h **** #ifdef __arm__
 7493              		.loc 5 42 5 view .LVU1432
  44:../libs/PoliTeKDSP/libs/DaisySP/Source/Utility/dsp.h **** #else
 7494              		.loc 5 44 5 view .LVU1433
 7495              	.LBE2609:
 7496              	.LBE2608:
 7497              	.LBE2616:
 7498              	.LBB2617:
 100:PSP/PlantConditioner.cpp ****             int i = _lastNoteIndex;
 7499              		.loc 1 100 13 is_stmt 0 view .LVU1434
 7500 00e6 D4F8B830 		ldr	r3, [r4, #184]
 7501              	.LBE2617:
  94:PSP/PlantConditioner.cpp ****         
 7502              		.loc 1 94 28 view .LVU1435
 7503 00ea D4ED347A 		vldr.32	s15, [r4, #208]
 7504 00ee DFED406A 		vldr.32	s13, .L68
 7505              	.LBB2619:
 100:PSP/PlantConditioner.cpp ****             int i = _lastNoteIndex;
 7506              		.loc 1 100 9 view .LVU1436
 7507 00f2 002B     		cmp	r3, #0
 7508              	.LBE2619:
 7509              	.LBB2620:
 7510              	.LBB2612:
ARM GAS  C:\Users\skipi\AppData\Local\Temp\ccnEQq3j.s 			page 164


 7511              	.LBB2610:
  44:../libs/PoliTeKDSP/libs/DaisySP/Source/Utility/dsp.h **** #else
 7512              		.loc 5 44 5 view .LVU1437
 7513 00f4 94ED337A 		vldr.32	s14, [r4, #204]
 7514              	.LBE2610:
 7515              	.LBE2612:
 7516              	.LBE2620:
  94:PSP/PlantConditioner.cpp ****         
 7517              		.loc 1 94 28 view .LVU1438
 7518 00f8 77EEE67A 		vsub.f32	s15, s15, s13
 7519              	.LVL369:
 7520              	.LBB2621:
 100:PSP/PlantConditioner.cpp ****             int i = _lastNoteIndex;
 7521              		.loc 1 100 53 view .LVU1439
 7522 00fc 94F8C920 		ldrb	r2, [r4, #201]	@ zero_extendqisi2
 7523              	.LBE2621:
 7524              	.LBB2622:
 7525              	.LBB2613:
 7526              	.LBB2611:
  44:../libs/PoliTeKDSP/libs/DaisySP/Source/Utility/dsp.h **** #else
 7527              		.loc 5 44 5 view .LVU1440
 7528              		.syntax unified
 7529              	@ 44 "../libs/PoliTeKDSP/libs/DaisySP/Source/Utility/dsp.h" 1
 7530 0100 80FE070A 		vmaxnm.f32 s0, s0, s14
 7531              	@ 0 "" 2
 7532              	.LVL370:
  48:../libs/PoliTeKDSP/libs/DaisySP/Source/Utility/dsp.h **** }
 7533              		.loc 5 48 5 is_stmt 1 view .LVU1441
  48:../libs/PoliTeKDSP/libs/DaisySP/Source/Utility/dsp.h **** }
 7534              		.loc 5 48 5 is_stmt 0 view .LVU1442
 7535              		.thumb
 7536              		.syntax unified
 7537              	.LBE2611:
 7538              	.LBE2613:
 7539              	.LBB2614:
 7540              	.LBI2614:
  51:../libs/PoliTeKDSP/libs/DaisySP/Source/Utility/dsp.h **** {
 7541              		.loc 5 51 14 is_stmt 1 view .LVU1443
 7542              	.LBB2615:
  53:../libs/PoliTeKDSP/libs/DaisySP/Source/Utility/dsp.h **** #ifdef __arm__
 7543              		.loc 5 53 5 view .LVU1444
  55:../libs/PoliTeKDSP/libs/DaisySP/Source/Utility/dsp.h **** #else
 7544              		.loc 5 55 5 view .LVU1445
 7545              		.syntax unified
 7546              	@ 55 "../libs/PoliTeKDSP/libs/DaisySP/Source/Utility/dsp.h" 1
 7547 0104 80FE670A 		vminnm.f32 s0, s0, s15
 7548              	@ 0 "" 2
 7549              	.LVL371:
  59:../libs/PoliTeKDSP/libs/DaisySP/Source/Utility/dsp.h **** }
 7550              		.loc 5 59 5 view .LVU1446
  59:../libs/PoliTeKDSP/libs/DaisySP/Source/Utility/dsp.h **** }
 7551              		.loc 5 59 5 is_stmt 0 view .LVU1447
 7552              		.thumb
 7553              		.syntax unified
 7554              	.LBE2615:
 7555              	.LBE2614:
 7556              	.LBE2622:
ARM GAS  C:\Users\skipi\AppData\Local\Temp\ccnEQq3j.s 			page 165


  94:PSP/PlantConditioner.cpp ****         
 7557              		.loc 1 94 20 view .LVU1448
 7558 0108 84ED370A 		vstr.32	s0, [r4, #220]
 100:PSP/PlantConditioner.cpp ****             int i = _lastNoteIndex;
 7559              		.loc 1 100 9 is_stmt 1 view .LVU1449
 7560              	.LBB2623:
 7561 010c 01DB     		blt	.L47
 100:PSP/PlantConditioner.cpp ****             int i = _lastNoteIndex;
 7562              		.loc 1 100 33 is_stmt 0 discriminator 1 view .LVU1450
 7563 010e 9342     		cmp	r3, r2
 7564 0110 49DB     		blt	.L67
 7565              	.L47:
 7566              	.LVL372:
 100:PSP/PlantConditioner.cpp ****             int i = _lastNoteIndex;
 7567              		.loc 1 100 33 discriminator 1 view .LVU1451
 7568              	.LBE2623:
 7569              	.LBB2624:
 117:PSP/PlantConditioner.cpp ****             float lower = _noteThresholds[i];
 7570              		.loc 1 117 27 is_stmt 1 discriminator 1 view .LVU1452
 7571 0112 002A     		cmp	r2, #0
 7572 0114 44D0     		beq	.L66
 7573              	.LVL373:
 7574              	.L49:
 7575              	.LBB2625:
 118:PSP/PlantConditioner.cpp ****             float upper = _noteThresholds[i+1];
 7576              		.loc 1 118 19 is_stmt 0 view .LVU1453
 7577 0116 D4ED387A 		vldr.32	s15, [r4, #224]
 7578 011a 04F1E401 		add	r1, r4, #228
 7579 011e 0023     		movs	r3, #0
 7580 0120 02E0     		b	.L53
 7581              	.LVL374:
 7582              	.L57:
 118:PSP/PlantConditioner.cpp ****             float upper = _noteThresholds[i+1];
 7583              		.loc 1 118 19 view .LVU1454
 7584              	.LBE2625:
 117:PSP/PlantConditioner.cpp ****             float lower = _noteThresholds[i];
 7585              		.loc 1 117 27 discriminator 1 view .LVU1455
 7586 0122 0133     		adds	r3, r3, #1
 7587              	.LVL375:
 117:PSP/PlantConditioner.cpp ****             float lower = _noteThresholds[i];
 7588              		.loc 1 117 27 discriminator 1 view .LVU1456
 7589 0124 9342     		cmp	r3, r2
 7590 0126 3BDA     		bge	.L66
 7591              	.LVL376:
 7592              	.L53:
 117:PSP/PlantConditioner.cpp ****             float lower = _noteThresholds[i];
 7593              		.loc 1 117 27 is_stmt 1 view .LVU1457
 7594              	.LBB2626:
 118:PSP/PlantConditioner.cpp ****             float upper = _noteThresholds[i+1];
 7595              		.loc 1 118 13 view .LVU1458
 119:PSP/PlantConditioner.cpp ****             
 7596              		.loc 1 119 13 view .LVU1459
 7597 0128 B0EE677A 		vmov.f32	s14, s15
 122:PSP/PlantConditioner.cpp ****                 out = _scale[i] * (1 << _octave);
 7598              		.loc 1 122 83 is_stmt 0 view .LVU1460
 7599 012c 02F1FF3C 		add	ip, r2, #-1
 119:PSP/PlantConditioner.cpp ****             
ARM GAS  C:\Users\skipi\AppData\Local\Temp\ccnEQq3j.s 			page 166


 7600              		.loc 1 119 19 view .LVU1461
 7601 0130 F1EC017A 		vldmia.32	r1!, {s15}
 7602              	.LVL377:
 122:PSP/PlantConditioner.cpp ****                 out = _scale[i] * (1 << _octave);
 7603              		.loc 1 122 13 is_stmt 1 view .LVU1462
 7604 0134 B4EEC07A 		vcmpe.f32	s14, s0
 7605 0138 F1EE10FA 		vmrs	APSR_nzcv, FPSCR
 7606 013c 04D8     		bhi	.L54
 122:PSP/PlantConditioner.cpp ****                 out = _scale[i] * (1 << _octave);
 7607              		.loc 1 122 38 is_stmt 0 discriminator 1 view .LVU1463
 7608 013e F4EEC07A 		vcmpe.f32	s15, s0
 7609 0142 F1EE10FA 		vmrs	APSR_nzcv, FPSCR
 7610 0146 06DC     		bgt	.L56
 7611              	.L54:
 122:PSP/PlantConditioner.cpp ****                 out = _scale[i] * (1 << _octave);
 7612              		.loc 1 122 61 discriminator 3 view .LVU1464
 7613 0148 9C45     		cmp	ip, r3
 7614 014a EAD1     		bne	.L57
 122:PSP/PlantConditioner.cpp ****                 out = _scale[i] * (1 << _octave);
 7615              		.loc 1 122 87 discriminator 4 view .LVU1465
 7616 014c F4EEC07A 		vcmpe.f32	s15, s0
 7617 0150 F1EE10FA 		vmrs	APSR_nzcv, FPSCR
 7618 0154 E5D8     		bhi	.L57
 7619              	.L56:
 123:PSP/PlantConditioner.cpp ****                 _lastNoteIndex = i; 
 7620              		.loc 1 123 17 is_stmt 1 view .LVU1466
 123:PSP/PlantConditioner.cpp ****                 _lastNoteIndex = i; 
 7621              		.loc 1 123 41 is_stmt 0 view .LVU1467
 7622 0156 94F8C810 		ldrb	r1, [r4, #200]	@ zero_extendqisi2
 123:PSP/PlantConditioner.cpp ****                 _lastNoteIndex = i; 
 7623              		.loc 1 123 38 view .LVU1468
 7624 015a 0122     		movs	r2, #1
 7625 015c 8A40     		lsls	r2, r2, r1
 7626 015e 08EE102A 		vmov	s16, r2	@ int
 7627              	.LVL378:
 123:PSP/PlantConditioner.cpp ****                 _lastNoteIndex = i; 
 7628              		.loc 1 123 31 view .LVU1469
 7629 0162 04EB8302 		add	r2, r4, r3, lsl #2
 123:PSP/PlantConditioner.cpp ****                 _lastNoteIndex = i; 
 7630              		.loc 1 123 33 view .LVU1470
 7631 0166 B8EEC88A 		vcvt.f32.s32	s16, s16
 123:PSP/PlantConditioner.cpp ****                 _lastNoteIndex = i; 
 7632              		.loc 1 123 21 view .LVU1471
 7633 016a D2ED457A 		vldr.32	s15, [r2, #276]
 7634              	.LVL379:
 123:PSP/PlantConditioner.cpp ****                 _lastNoteIndex = i; 
 7635              		.loc 1 123 21 view .LVU1472
 7636              	.LBE2626:
 7637              	.LBE2624:
 7638              	.LBE2630:
 7639              	.LBE2635:
 133:PSP/PlantConditioner.cpp **** }
 7640              		.loc 1 133 18 view .LVU1473
 7641 016e 94F8B420 		ldrb	r2, [r4, #180]	@ zero_extendqisi2
 7642              	.LBB2636:
 7643              	.LBB2631:
 7644              	.LBB2628:
ARM GAS  C:\Users\skipi\AppData\Local\Temp\ccnEQq3j.s 			page 167


 7645              	.LBB2627:
 124:PSP/PlantConditioner.cpp ****                 _lastFreq = out;    
 7646              		.loc 1 124 32 view .LVU1474
 7647 0172 C4F8B830 		str	r3, [r4, #184]
 123:PSP/PlantConditioner.cpp ****                 _lastNoteIndex = i; 
 7648              		.loc 1 123 21 view .LVU1475
 7649 0176 28EE278A 		vmul.f32	s16, s16, s15
 7650              	.LVL380:
 124:PSP/PlantConditioner.cpp ****                 _lastFreq = out;    
 7651              		.loc 1 124 17 is_stmt 1 view .LVU1476
 125:PSP/PlantConditioner.cpp ****                 break;
 7652              		.loc 1 125 17 view .LVU1477
 125:PSP/PlantConditioner.cpp ****                 break;
 7653              		.loc 1 125 27 is_stmt 0 view .LVU1478
 7654 017a 84ED2F8A 		vstr.32	s16, [r4, #188]
 126:PSP/PlantConditioner.cpp ****             }
 7655              		.loc 1 126 17 is_stmt 1 view .LVU1479
 7656              	.LVL381:
 7657              	.L50:
 126:PSP/PlantConditioner.cpp ****             }
 7658              		.loc 1 126 17 is_stmt 0 view .LVU1480
 7659              	.LBE2627:
 7660              	.LBE2628:
 7661              	.LBE2631:
 7662              	.LBE2636:
 133:PSP/PlantConditioner.cpp **** }
 7663              		.loc 1 133 5 is_stmt 1 view .LVU1481
 133:PSP/PlantConditioner.cpp **** }
 7664              		.loc 1 133 28 is_stmt 0 view .LVU1482
 7665 017e 85ED008A 		vstr.32	s16, [r5]
 7666 0182 2A71     		strb	r2, [r5, #4]
 7667              	.L43:
 134:PSP/PlantConditioner.cpp **** 
 7668              		.loc 1 134 1 view .LVU1483
 7669 0184 2846     		mov	r0, r5
 7670 0186 06B0     		add	sp, sp, #24
 7671              		.cfi_remember_state
 7672              		.cfi_def_cfa_offset 32
 7673              		@ sp needed
 7674 0188 BDEC028B 		vldm	sp!, {d8}
 7675              		.cfi_restore 80
 7676              		.cfi_restore 81
 7677              		.cfi_def_cfa_offset 24
 7678              	.LVL382:
 134:PSP/PlantConditioner.cpp **** 
 7679              		.loc 1 134 1 view .LVU1484
 7680 018c BDE8F081 		pop	{r4, r5, r6, r7, r8, pc}
 7681              	.LVL383:
 7682              	.L44:
 7683              		.cfi_restore_state
 7684              	.LBB2637:
 130:PSP/PlantConditioner.cpp ****     }
 7685              		.loc 1 130 9 is_stmt 1 view .LVU1485
 130:PSP/PlantConditioner.cpp ****     }
 7686              		.loc 1 130 13 is_stmt 0 view .LVU1486
 7687 0190 94F8B420 		ldrb	r2, [r4, #180]	@ zero_extendqisi2
 130:PSP/PlantConditioner.cpp ****     }
ARM GAS  C:\Users\skipi\AppData\Local\Temp\ccnEQq3j.s 			page 168


 7688              		.loc 1 130 9 view .LVU1487
 7689 0194 002A     		cmp	r2, #0
 7690 0196 F2D0     		beq	.L50
 130:PSP/PlantConditioner.cpp ****     }
 7691              		.loc 1 130 25 is_stmt 1 discriminator 1 view .LVU1488
 7692 0198 1A46     		mov	r2, r3
 130:PSP/PlantConditioner.cpp ****     }
 7693              		.loc 1 130 36 is_stmt 0 discriminator 1 view .LVU1489
 7694 019a 84F8B430 		strb	r3, [r4, #180]
 7695 019e EEE7     		b	.L50
 7696              	.L66:
 130:PSP/PlantConditioner.cpp ****     }
 7697              		.loc 1 130 36 discriminator 1 view .LVU1490
 7698              	.LBE2637:
 133:PSP/PlantConditioner.cpp **** }
 7699              		.loc 1 133 18 view .LVU1491
 7700 01a0 94F8B420 		ldrb	r2, [r4, #180]	@ zero_extendqisi2
 7701 01a4 EBE7     		b	.L50
 7702              	.L67:
 7703              	.LBB2638:
 7704              	.LBB2632:
 7705              	.LBB2629:
 7706              	.LBB2618:
 101:PSP/PlantConditioner.cpp ****             
 7707              		.loc 1 101 13 is_stmt 1 view .LVU1492
 7708              	.LVL384:
 103:PSP/PlantConditioner.cpp ****             float upper = _noteThresholds[i+1];
 7709              		.loc 1 103 13 view .LVU1493
 107:PSP/PlantConditioner.cpp **** 
 7710              		.loc 1 107 48 is_stmt 0 view .LVU1494
 7711 01a6 9FED137A 		vldr.32	s14, .L68+4
 7712 01aa 04EB8303 		add	r3, r4, r3, lsl #2
 7713              	.LVL385:
 104:PSP/PlantConditioner.cpp ****             
 7714              		.loc 1 104 13 is_stmt 1 view .LVU1495
 107:PSP/PlantConditioner.cpp **** 
 7715              		.loc 1 107 13 view .LVU1496
 107:PSP/PlantConditioner.cpp **** 
 7716              		.loc 1 107 48 is_stmt 0 view .LVU1497
 7717 01ae 94ED356A 		vldr.32	s12, [r4, #212]
 107:PSP/PlantConditioner.cpp **** 
 7718              		.loc 1 107 19 view .LVU1498
 7719 01b2 D4ED306A 		vldr.32	s13, [r4, #192]
 107:PSP/PlantConditioner.cpp **** 
 7720              		.loc 1 107 48 view .LVU1499
 7721 01b6 C6EE077A 		vdiv.f32	s15, s12, s14
 109:PSP/PlantConditioner.cpp ****                 return {out, _isTouched}; 
 7722              		.loc 1 109 38 view .LVU1500
 7723 01ba 93ED387A 		vldr.32	s14, [r3, #224]
 107:PSP/PlantConditioner.cpp **** 
 7724              		.loc 1 107 19 view .LVU1501
 7725 01be 67EEA67A 		vmul.f32	s15, s15, s13
 7726              	.LVL386:
 109:PSP/PlantConditioner.cpp ****                 return {out, _isTouched}; 
 7727              		.loc 1 109 13 is_stmt 1 view .LVU1502
 109:PSP/PlantConditioner.cpp ****                 return {out, _isTouched}; 
 7728              		.loc 1 109 38 is_stmt 0 view .LVU1503
ARM GAS  C:\Users\skipi\AppData\Local\Temp\ccnEQq3j.s 			page 169


 7729 01c2 37EE677A 		vsub.f32	s14, s14, s15
 109:PSP/PlantConditioner.cpp ****                 return {out, _isTouched}; 
 7730              		.loc 1 109 13 view .LVU1504
 7731 01c6 B4EEC07A 		vcmpe.f32	s14, s0
 7732 01ca F1EE10FA 		vmrs	APSR_nzcv, FPSCR
 7733 01ce A2D8     		bhi	.L49
 109:PSP/PlantConditioner.cpp ****                 return {out, _isTouched}; 
 7734              		.loc 1 109 69 discriminator 1 view .LVU1505
 7735 01d0 93ED397A 		vldr.32	s14, [r3, #228]
 7736 01d4 77EE877A 		vadd.f32	s15, s15, s14
 7737              	.LVL387:
 109:PSP/PlantConditioner.cpp ****                 return {out, _isTouched}; 
 7738              		.loc 1 109 46 discriminator 1 view .LVU1506
 7739 01d8 F4EEC07A 		vcmpe.f32	s15, s0
 7740 01dc F1EE10FA 		vmrs	APSR_nzcv, FPSCR
 7741 01e0 99DD     		ble	.L49
 110:PSP/PlantConditioner.cpp ****             }
 7742              		.loc 1 110 17 is_stmt 1 view .LVU1507
 110:PSP/PlantConditioner.cpp ****             }
 7743              		.loc 1 110 40 is_stmt 0 view .LVU1508
 7744 01e2 94F8B430 		ldrb	r3, [r4, #180]	@ zero_extendqisi2
 7745              	.LVL388:
 110:PSP/PlantConditioner.cpp ****             }
 7746              		.loc 1 110 40 view .LVU1509
 7747 01e6 85ED008A 		vstr.32	s16, [r5]
 7748 01ea 2B71     		strb	r3, [r5, #4]
 7749 01ec CAE7     		b	.L43
 7750              	.L69:
 7751 01ee 00BF     		.align	2
 7752              	.L68:
 7753 01f0 6F12833A 		.word	981668463
 7754 01f4 0000C842 		.word	1120403456
 7755              	.LBE2618:
 7756              	.LBE2629:
 7757              	.LBE2632:
 7758              	.LBE2638:
 7759              		.cfi_endproc
 7760              	.LFE5080:
 7762              		.section	.text._ZN16PlantConditioner8setCurveEf,"ax",%progbits
 7763              		.align	1
 7764              		.p2align 2,,3
 7765              		.global	_ZN16PlantConditioner8setCurveEf
 7766              		.syntax unified
 7767              		.thumb
 7768              		.thumb_func
 7769              		.fpu fpv5-d16
 7771              	_ZN16PlantConditioner8setCurveEf:
 7772              	.LVL389:
 7773              	.LFB5081:
 136:PSP/PlantConditioner.cpp ****     _curveType = curve_type;
 7774              		.loc 1 136 51 is_stmt 1 view -0
 7775              		.cfi_startproc
 7776              		@ args = 0, pretend = 0, frame = 0
 7777              		@ frame_needed = 0, uses_anonymous_args = 0
 137:PSP/PlantConditioner.cpp ****     updateThresholds();
 7778              		.loc 1 137 5 view .LVU1511
 136:PSP/PlantConditioner.cpp ****     _curveType = curve_type;
ARM GAS  C:\Users\skipi\AppData\Local\Temp\ccnEQq3j.s 			page 170


 7779              		.loc 1 136 51 is_stmt 0 view .LVU1512
 7780 0000 70B5     		push	{r4, r5, r6, lr}
 7781              		.cfi_def_cfa_offset 16
 7782              		.cfi_offset 4, -16
 7783              		.cfi_offset 5, -12
 7784              		.cfi_offset 6, -8
 7785              		.cfi_offset 14, -4
 7786 0002 F0EE400A 		vmov.f32	s1, s0
 7787              	.LBB2643:
 7788              	.LBB2644:
 149:PSP/PlantConditioner.cpp ****         float pct = (float)i / _scaleLength;
 7789              		.loc 1 149 14 view .LVU1513
 7790 0006 0025     		movs	r5, #0
 7791              	.LBE2644:
 7792              	.LBE2643:
 136:PSP/PlantConditioner.cpp ****     _curveType = curve_type;
 7793              		.loc 1 136 51 view .LVU1514
 7794 0008 0446     		mov	r4, r0
 7795              	.LBB2650:
 7796              	.LBB2647:
 149:PSP/PlantConditioner.cpp ****         float pct = (float)i / _scaleLength;
 7797              		.loc 1 149 26 view .LVU1515
 7798 000a 90F8C930 		ldrb	r3, [r0, #201]	@ zero_extendqisi2
 7799 000e 00F1E006 		add	r6, r0, #224
 7800              	.LBE2647:
 7801              	.LBE2650:
 137:PSP/PlantConditioner.cpp ****     updateThresholds();
 7802              		.loc 1 137 16 view .LVU1516
 7803 0012 80ED310A 		vstr.32	s0, [r0, #196]
 138:PSP/PlantConditioner.cpp **** }
 7804              		.loc 1 138 5 is_stmt 1 view .LVU1517
 7805              	.LVL390:
 7806              	.LBB2651:
 7807              	.LBI2643:
 148:PSP/PlantConditioner.cpp ****     for (int i = 0; i <= _scaleLength; i++) {
 7808              		.loc 1 148 6 view .LVU1518
 7809              	.LBE2651:
 149:PSP/PlantConditioner.cpp ****         float pct = (float)i / _scaleLength;
 7810              		.loc 1 149 5 view .LVU1519
 7811              	.LBB2652:
 7812              	.LBB2648:
 149:PSP/PlantConditioner.cpp ****         float pct = (float)i / _scaleLength;
 7813              		.loc 1 149 23 view .LVU1520
 7814              	.LBE2648:
 7815              	.LBE2652:
 136:PSP/PlantConditioner.cpp ****     _curveType = curve_type;
 7816              		.loc 1 136 51 is_stmt 0 view .LVU1521
 7817 0016 2DED028B 		vpush.64	{d8}
 7818              		.cfi_def_cfa_offset 24
 7819              		.cfi_offset 80, -24
 7820              		.cfi_offset 81, -20
 7821 001a 01E0     		b	.L72
 7822              	.LVL391:
 7823              	.L74:
 7824              	.LBB2653:
 7825              	.LBB2649:
 7826              	.LBB2645:
ARM GAS  C:\Users\skipi\AppData\Local\Temp\ccnEQq3j.s 			page 171


 7827              		.loc 1 151 55 view .LVU1522
 7828 001c D4ED310A 		vldr.32	s1, [r4, #196]
 7829              	.LVL392:
 7830              	.L72:
 150:PSP/PlantConditioner.cpp ****         _noteThresholds[i] = _deltaMin + _range * powf(pct, _curveType);
 7831              		.loc 1 150 9 is_stmt 1 view .LVU1523
 7832              		.loc 1 151 9 view .LVU1524
 150:PSP/PlantConditioner.cpp ****         _noteThresholds[i] = _deltaMin + _range * powf(pct, _curveType);
 7833              		.loc 1 150 30 is_stmt 0 view .LVU1525
 7834 0020 07EE903A 		vmov	s15, r3	@ int
 150:PSP/PlantConditioner.cpp ****         _noteThresholds[i] = _deltaMin + _range * powf(pct, _curveType);
 7835              		.loc 1 150 21 view .LVU1526
 7836 0024 07EE105A 		vmov	s14, r5	@ int
 7837              		.loc 1 151 30 view .LVU1527
 7838 0028 94ED338A 		vldr.32	s16, [r4, #204]
 7839              	.LBE2645:
 149:PSP/PlantConditioner.cpp ****         float pct = (float)i / _scaleLength;
 7840              		.loc 1 149 5 view .LVU1528
 7841 002c 0135     		adds	r5, r5, #1
 7842              	.LVL393:
 7843              	.LBB2646:
 150:PSP/PlantConditioner.cpp ****         _noteThresholds[i] = _deltaMin + _range * powf(pct, _curveType);
 7844              		.loc 1 150 30 view .LVU1529
 7845 002e F8EEE77A 		vcvt.f32.s32	s15, s15
 7846              		.loc 1 151 42 view .LVU1530
 7847 0032 D4ED358A 		vldr.32	s17, [r4, #212]
 150:PSP/PlantConditioner.cpp ****         _noteThresholds[i] = _deltaMin + _range * powf(pct, _curveType);
 7848              		.loc 1 150 21 view .LVU1531
 7849 0036 B8EEC70A 		vcvt.f32.s32	s0, s14
 7850              		.loc 1 151 55 view .LVU1532
 7851 003a 80EE270A 		vdiv.f32	s0, s0, s15
 7852              	.LVL394:
 7853              		.loc 1 151 55 view .LVU1533
 7854 003e FFF7FEFF 		bl	powf
 7855              	.LVL395:
 7856              		.loc 1 151 40 view .LVU1534
 7857 0042 A8EE808A 		vfma.f32	s16, s17, s0
 7858              		.loc 1 151 28 view .LVU1535
 7859 0046 A6EC018A 		vstmia.32	r6!, {s16}
 7860              	.LBE2646:
 149:PSP/PlantConditioner.cpp ****         float pct = (float)i / _scaleLength;
 7861              		.loc 1 149 5 is_stmt 1 view .LVU1536
 7862              	.LVL396:
 149:PSP/PlantConditioner.cpp ****         float pct = (float)i / _scaleLength;
 7863              		.loc 1 149 23 view .LVU1537
 149:PSP/PlantConditioner.cpp ****         float pct = (float)i / _scaleLength;
 7864              		.loc 1 149 26 is_stmt 0 view .LVU1538
 7865 004a 94F8C930 		ldrb	r3, [r4, #201]	@ zero_extendqisi2
 149:PSP/PlantConditioner.cpp ****         float pct = (float)i / _scaleLength;
 7866              		.loc 1 149 23 view .LVU1539
 7867 004e AB42     		cmp	r3, r5
 7868 0050 E4DA     		bge	.L74
 7869              	.LBE2649:
 7870              	.LBE2653:
 139:PSP/PlantConditioner.cpp **** 
 7871              		.loc 1 139 1 view .LVU1540
 7872 0052 BDEC028B 		vldm	sp!, {d8}
ARM GAS  C:\Users\skipi\AppData\Local\Temp\ccnEQq3j.s 			page 172


 7873              		.cfi_restore 80
 7874              		.cfi_restore 81
 7875              		.cfi_def_cfa_offset 16
 7876 0056 70BD     		pop	{r4, r5, r6, pc}
 139:PSP/PlantConditioner.cpp **** 
 7877              		.loc 1 139 1 view .LVU1541
 7878              		.cfi_endproc
 7879              	.LFE5081:
 7881              		.section	.text._ZN16PlantConditioner8setDeltaEf,"ax",%progbits
 7882              		.align	1
 7883              		.p2align 2,,3
 7884              		.global	_ZN16PlantConditioner8setDeltaEf
 7885              		.syntax unified
 7886              		.thumb
 7887              		.thumb_func
 7888              		.fpu fpv5-d16
 7890              	_ZN16PlantConditioner8setDeltaEf:
 7891              	.LVL397:
 7892              	.LFB5082:
 141:PSP/PlantConditioner.cpp ****     if (delta_max <= _deltaMin) delta_max = _deltaMin + 1.0f;
 7893              		.loc 1 141 50 is_stmt 1 view -0
 7894              		.cfi_startproc
 7895              		@ args = 0, pretend = 0, frame = 0
 7896              		@ frame_needed = 0, uses_anonymous_args = 0
 142:PSP/PlantConditioner.cpp ****     _deltaMax = delta_max;
 7897              		.loc 1 142 5 view .LVU1543
 141:PSP/PlantConditioner.cpp ****     if (delta_max <= _deltaMin) delta_max = _deltaMin + 1.0f;
 7898              		.loc 1 141 50 is_stmt 0 view .LVU1544
 7899 0000 70B5     		push	{r4, r5, r6, lr}
 7900              		.cfi_def_cfa_offset 16
 7901              		.cfi_offset 4, -16
 7902              		.cfi_offset 5, -12
 7903              		.cfi_offset 6, -8
 7904              		.cfi_offset 14, -4
 7905 0002 2DED028B 		vpush.64	{d8}
 7906              		.cfi_def_cfa_offset 24
 7907              		.cfi_offset 80, -24
 7908              		.cfi_offset 81, -20
 142:PSP/PlantConditioner.cpp ****     _deltaMax = delta_max;
 7909              		.loc 1 142 22 view .LVU1545
 7910 0006 90ED338A 		vldr.32	s16, [r0, #204]
 141:PSP/PlantConditioner.cpp ****     if (delta_max <= _deltaMin) delta_max = _deltaMin + 1.0f;
 7911              		.loc 1 141 50 view .LVU1546
 7912 000a 0446     		mov	r4, r0
 142:PSP/PlantConditioner.cpp ****     _deltaMax = delta_max;
 7913              		.loc 1 142 5 view .LVU1547
 7914 000c B4EEC08A 		vcmpe.f32	s16, s0
 7915 0010 F1EE10FA 		vmrs	APSR_nzcv, FPSCR
 7916 0014 03DB     		blt	.L76
 142:PSP/PlantConditioner.cpp ****     _deltaMax = delta_max;
 7917              		.loc 1 142 33 is_stmt 1 discriminator 1 view .LVU1548
 142:PSP/PlantConditioner.cpp ****     _deltaMax = delta_max;
 7918              		.loc 1 142 43 is_stmt 0 discriminator 1 view .LVU1549
 7919 0016 B7EE000A 		vmov.f32	s0, #1.0e+0
 7920              	.LVL398:
 142:PSP/PlantConditioner.cpp ****     _deltaMax = delta_max;
 7921              		.loc 1 142 43 discriminator 1 view .LVU1550
ARM GAS  C:\Users\skipi\AppData\Local\Temp\ccnEQq3j.s 			page 173


 7922 001a 38EE000A 		vadd.f32	s0, s16, s0
 7923              	.LVL399:
 7924              	.L76:
 143:PSP/PlantConditioner.cpp ****     _range = _deltaMax - _deltaMin;
 7925              		.loc 1 143 5 is_stmt 1 view .LVU1551
 144:PSP/PlantConditioner.cpp ****     updateThresholds();
 7926              		.loc 1 144 24 is_stmt 0 view .LVU1552
 7927 001e 70EE488A 		vsub.f32	s17, s0, s16
 7928              	.LBB2658:
 7929              	.LBB2659:
 149:PSP/PlantConditioner.cpp ****         float pct = (float)i / _scaleLength;
 7930              		.loc 1 149 26 view .LVU1553
 7931 0022 94F8C930 		ldrb	r3, [r4, #201]	@ zero_extendqisi2
 7932 0026 04F1E006 		add	r6, r4, #224
 149:PSP/PlantConditioner.cpp ****         float pct = (float)i / _scaleLength;
 7933              		.loc 1 149 14 view .LVU1554
 7934 002a 0025     		movs	r5, #0
 7935              	.LBE2659:
 7936              	.LBE2658:
 143:PSP/PlantConditioner.cpp ****     _range = _deltaMax - _deltaMin;
 7937              		.loc 1 143 15 view .LVU1555
 7938 002c 84ED340A 		vstr.32	s0, [r4, #208]
 144:PSP/PlantConditioner.cpp ****     updateThresholds();
 7939              		.loc 1 144 5 is_stmt 1 view .LVU1556
 144:PSP/PlantConditioner.cpp ****     updateThresholds();
 7940              		.loc 1 144 12 is_stmt 0 view .LVU1557
 7941 0030 C4ED358A 		vstr.32	s17, [r4, #212]
 145:PSP/PlantConditioner.cpp **** }
 7942              		.loc 1 145 5 is_stmt 1 view .LVU1558
 7943              	.LVL400:
 7944              	.LBB2663:
 7945              	.LBI2658:
 148:PSP/PlantConditioner.cpp ****     for (int i = 0; i <= _scaleLength; i++) {
 7946              		.loc 1 148 6 view .LVU1559
 7947              	.LBE2663:
 149:PSP/PlantConditioner.cpp ****         float pct = (float)i / _scaleLength;
 7948              		.loc 1 149 5 view .LVU1560
 7949              	.LBB2664:
 7950              	.LBB2662:
 149:PSP/PlantConditioner.cpp ****         float pct = (float)i / _scaleLength;
 7951              		.loc 1 149 23 view .LVU1561
 7952 0034 03E0     		b	.L79
 7953              	.LVL401:
 7954              	.L82:
 7955              	.LBB2660:
 7956              		.loc 1 151 30 is_stmt 0 view .LVU1562
 7957 0036 94ED338A 		vldr.32	s16, [r4, #204]
 7958              		.loc 1 151 42 view .LVU1563
 7959 003a D4ED358A 		vldr.32	s17, [r4, #212]
 7960              	.LVL402:
 7961              	.L79:
 150:PSP/PlantConditioner.cpp ****         _noteThresholds[i] = _deltaMin + _range * powf(pct, _curveType);
 7962              		.loc 1 150 9 is_stmt 1 view .LVU1564
 7963              		.loc 1 151 9 view .LVU1565
 150:PSP/PlantConditioner.cpp ****         _noteThresholds[i] = _deltaMin + _range * powf(pct, _curveType);
 7964              		.loc 1 150 30 is_stmt 0 view .LVU1566
 7965 003e 07EE903A 		vmov	s15, r3	@ int
ARM GAS  C:\Users\skipi\AppData\Local\Temp\ccnEQq3j.s 			page 174


 150:PSP/PlantConditioner.cpp ****         _noteThresholds[i] = _deltaMin + _range * powf(pct, _curveType);
 7966              		.loc 1 150 21 view .LVU1567
 7967 0042 07EE105A 		vmov	s14, r5	@ int
 7968              		.loc 1 151 55 view .LVU1568
 7969 0046 D4ED310A 		vldr.32	s1, [r4, #196]
 7970              	.LBE2660:
 149:PSP/PlantConditioner.cpp ****         float pct = (float)i / _scaleLength;
 7971              		.loc 1 149 5 view .LVU1569
 7972 004a 0135     		adds	r5, r5, #1
 7973              	.LVL403:
 7974              	.LBB2661:
 150:PSP/PlantConditioner.cpp ****         _noteThresholds[i] = _deltaMin + _range * powf(pct, _curveType);
 7975              		.loc 1 150 30 view .LVU1570
 7976 004c F8EEE77A 		vcvt.f32.s32	s15, s15
 150:PSP/PlantConditioner.cpp ****         _noteThresholds[i] = _deltaMin + _range * powf(pct, _curveType);
 7977              		.loc 1 150 21 view .LVU1571
 7978 0050 B8EEC70A 		vcvt.f32.s32	s0, s14
 7979              		.loc 1 151 55 view .LVU1572
 7980 0054 80EE270A 		vdiv.f32	s0, s0, s15
 7981              	.LVL404:
 7982              		.loc 1 151 55 view .LVU1573
 7983 0058 FFF7FEFF 		bl	powf
 7984              	.LVL405:
 7985              		.loc 1 151 40 view .LVU1574
 7986 005c A0EE288A 		vfma.f32	s16, s0, s17
 7987              		.loc 1 151 28 view .LVU1575
 7988 0060 A6EC018A 		vstmia.32	r6!, {s16}
 7989              	.LBE2661:
 149:PSP/PlantConditioner.cpp ****         float pct = (float)i / _scaleLength;
 7990              		.loc 1 149 5 is_stmt 1 view .LVU1576
 7991              	.LVL406:
 149:PSP/PlantConditioner.cpp ****         float pct = (float)i / _scaleLength;
 7992              		.loc 1 149 23 view .LVU1577
 149:PSP/PlantConditioner.cpp ****         float pct = (float)i / _scaleLength;
 7993              		.loc 1 149 26 is_stmt 0 view .LVU1578
 7994 0064 94F8C930 		ldrb	r3, [r4, #201]	@ zero_extendqisi2
 149:PSP/PlantConditioner.cpp ****         float pct = (float)i / _scaleLength;
 7995              		.loc 1 149 23 view .LVU1579
 7996 0068 AB42     		cmp	r3, r5
 7997 006a E4DA     		bge	.L82
 7998              	.LBE2662:
 7999              	.LBE2664:
 146:PSP/PlantConditioner.cpp **** 
 8000              		.loc 1 146 1 view .LVU1580
 8001 006c BDEC028B 		vldm	sp!, {d8}
 8002              		.cfi_restore 80
 8003              		.cfi_restore 81
 8004              		.cfi_def_cfa_offset 16
 8005 0070 70BD     		pop	{r4, r5, r6, pc}
 146:PSP/PlantConditioner.cpp **** 
 8006              		.loc 1 146 1 view .LVU1581
 8007              		.cfi_endproc
 8008              	.LFE5082:
 8010 0072 00BF     		.section	.text._ZN16PlantConditioner16updateThresholdsEv,"ax",%progbits
 8011              		.align	1
 8012              		.p2align 2,,3
 8013              		.global	_ZN16PlantConditioner16updateThresholdsEv
ARM GAS  C:\Users\skipi\AppData\Local\Temp\ccnEQq3j.s 			page 175


 8014              		.syntax unified
 8015              		.thumb
 8016              		.thumb_func
 8017              		.fpu fpv5-d16
 8019              	_ZN16PlantConditioner16updateThresholdsEv:
 8020              	.LVL407:
 8021              	.LFB5083:
 148:PSP/PlantConditioner.cpp ****     for (int i = 0; i <= _scaleLength; i++) {
 8022              		.loc 1 148 43 is_stmt 1 view -0
 8023              		.cfi_startproc
 8024              		@ args = 0, pretend = 0, frame = 0
 8025              		@ frame_needed = 0, uses_anonymous_args = 0
 149:PSP/PlantConditioner.cpp ****         float pct = (float)i / _scaleLength;
 8026              		.loc 1 149 5 view .LVU1583
 8027              	.LBB2667:
 149:PSP/PlantConditioner.cpp ****         float pct = (float)i / _scaleLength;
 8028              		.loc 1 149 23 view .LVU1584
 8029              	.LBE2667:
 148:PSP/PlantConditioner.cpp ****     for (int i = 0; i <= _scaleLength; i++) {
 8030              		.loc 1 148 43 is_stmt 0 view .LVU1585
 8031 0000 70B5     		push	{r4, r5, r6, lr}
 8032              		.cfi_def_cfa_offset 16
 8033              		.cfi_offset 4, -16
 8034              		.cfi_offset 5, -12
 8035              		.cfi_offset 6, -8
 8036              		.cfi_offset 14, -4
 8037              	.LBB2670:
 149:PSP/PlantConditioner.cpp ****         float pct = (float)i / _scaleLength;
 8038              		.loc 1 149 26 view .LVU1586
 8039 0002 90F8C930 		ldrb	r3, [r0, #201]	@ zero_extendqisi2
 149:PSP/PlantConditioner.cpp ****         float pct = (float)i / _scaleLength;
 8040              		.loc 1 149 14 view .LVU1587
 8041 0006 0025     		movs	r5, #0
 8042              	.LBE2670:
 148:PSP/PlantConditioner.cpp ****     for (int i = 0; i <= _scaleLength; i++) {
 8043              		.loc 1 148 43 view .LVU1588
 8044 0008 0446     		mov	r4, r0
 8045 000a 00F1E006 		add	r6, r0, #224
 8046 000e 2DED028B 		vpush.64	{d8}
 8047              		.cfi_def_cfa_offset 24
 8048              		.cfi_offset 80, -24
 8049              		.cfi_offset 81, -20
 8050              	.LVL408:
 8051              	.L84:
 8052              	.LBB2671:
 8053              	.LBB2668:
 150:PSP/PlantConditioner.cpp ****         _noteThresholds[i] = _deltaMin + _range * powf(pct, _curveType);
 8054              		.loc 1 150 9 is_stmt 1 discriminator 2 view .LVU1589
 8055              		.loc 1 151 9 discriminator 2 view .LVU1590
 150:PSP/PlantConditioner.cpp ****         _noteThresholds[i] = _deltaMin + _range * powf(pct, _curveType);
 8056              		.loc 1 150 30 is_stmt 0 discriminator 2 view .LVU1591
 8057 0012 07EE903A 		vmov	s15, r3	@ int
 150:PSP/PlantConditioner.cpp ****         _noteThresholds[i] = _deltaMin + _range * powf(pct, _curveType);
 8058              		.loc 1 150 21 discriminator 2 view .LVU1592
 8059 0016 07EE105A 		vmov	s14, r5	@ int
 8060              		.loc 1 151 30 discriminator 2 view .LVU1593
 8061 001a 94ED338A 		vldr.32	s16, [r4, #204]
ARM GAS  C:\Users\skipi\AppData\Local\Temp\ccnEQq3j.s 			page 176


 8062              	.LBE2668:
 149:PSP/PlantConditioner.cpp ****         float pct = (float)i / _scaleLength;
 8063              		.loc 1 149 5 discriminator 2 view .LVU1594
 8064 001e 0135     		adds	r5, r5, #1
 8065              	.LVL409:
 8066              	.LBB2669:
 150:PSP/PlantConditioner.cpp ****         _noteThresholds[i] = _deltaMin + _range * powf(pct, _curveType);
 8067              		.loc 1 150 30 discriminator 2 view .LVU1595
 8068 0020 F8EEE77A 		vcvt.f32.s32	s15, s15
 8069              		.loc 1 151 42 discriminator 2 view .LVU1596
 8070 0024 D4ED358A 		vldr.32	s17, [r4, #212]
 150:PSP/PlantConditioner.cpp ****         _noteThresholds[i] = _deltaMin + _range * powf(pct, _curveType);
 8071              		.loc 1 150 21 discriminator 2 view .LVU1597
 8072 0028 B8EEC70A 		vcvt.f32.s32	s0, s14
 8073              		.loc 1 151 55 discriminator 2 view .LVU1598
 8074 002c D4ED310A 		vldr.32	s1, [r4, #196]
 8075 0030 80EE270A 		vdiv.f32	s0, s0, s15
 8076              	.LVL410:
 8077              		.loc 1 151 55 discriminator 2 view .LVU1599
 8078 0034 FFF7FEFF 		bl	powf
 8079              	.LVL411:
 8080              		.loc 1 151 40 discriminator 2 view .LVU1600
 8081 0038 A8EE808A 		vfma.f32	s16, s17, s0
 8082              		.loc 1 151 28 discriminator 2 view .LVU1601
 8083 003c A6EC018A 		vstmia.32	r6!, {s16}
 8084              	.LBE2669:
 149:PSP/PlantConditioner.cpp ****         float pct = (float)i / _scaleLength;
 8085              		.loc 1 149 5 is_stmt 1 discriminator 2 view .LVU1602
 8086              	.LVL412:
 149:PSP/PlantConditioner.cpp ****         float pct = (float)i / _scaleLength;
 8087              		.loc 1 149 23 discriminator 2 view .LVU1603
 149:PSP/PlantConditioner.cpp ****         float pct = (float)i / _scaleLength;
 8088              		.loc 1 149 26 is_stmt 0 discriminator 2 view .LVU1604
 8089 0040 94F8C930 		ldrb	r3, [r4, #201]	@ zero_extendqisi2
 149:PSP/PlantConditioner.cpp ****         float pct = (float)i / _scaleLength;
 8090              		.loc 1 149 23 discriminator 2 view .LVU1605
 8091 0044 AB42     		cmp	r3, r5
 8092 0046 E4DA     		bge	.L84
 8093              	.LBE2671:
 152:PSP/PlantConditioner.cpp ****     }
 153:PSP/PlantConditioner.cpp **** }
 8094              		.loc 1 153 1 view .LVU1606
 8095 0048 BDEC028B 		vldm	sp!, {d8}
 8096              		.cfi_restore 80
 8097              		.cfi_restore 81
 8098              		.cfi_def_cfa_offset 16
 8099 004c 70BD     		pop	{r4, r5, r6, pc}
 8100              		.loc 1 153 1 view .LVU1607
 8101              		.cfi_endproc
 8102              	.LFE5083:
 8104 004e 00BF     		.section	.text._ZN16PlantConditioner13setHisteresisEf,"ax",%progbits
 8105              		.align	1
 8106              		.p2align 2,,3
 8107              		.global	_ZN16PlantConditioner13setHisteresisEf
 8108              		.syntax unified
 8109              		.thumb
 8110              		.thumb_func
ARM GAS  C:\Users\skipi\AppData\Local\Temp\ccnEQq3j.s 			page 177


 8111              		.fpu fpv5-d16
 8113              	_ZN16PlantConditioner13setHisteresisEf:
 8114              	.LVL413:
 8115              	.LFB5084:
 154:PSP/PlantConditioner.cpp **** 
 155:PSP/PlantConditioner.cpp **** void PlantConditioner::setHisteresis(float histeresis) {
 8116              		.loc 1 155 56 is_stmt 1 view -0
 8117              		.cfi_startproc
 8118              		@ args = 0, pretend = 0, frame = 0
 8119              		@ frame_needed = 0, uses_anonymous_args = 0
 156:PSP/PlantConditioner.cpp ****     _histeresis = histeresis; updateThresholds(); 
 8120              		.loc 1 156 5 view .LVU1609
 155:PSP/PlantConditioner.cpp ****     _histeresis = histeresis; updateThresholds(); 
 8121              		.loc 1 155 56 is_stmt 0 view .LVU1610
 8122 0000 70B5     		push	{r4, r5, r6, lr}
 8123              		.cfi_def_cfa_offset 16
 8124              		.cfi_offset 4, -16
 8125              		.cfi_offset 5, -12
 8126              		.cfi_offset 6, -8
 8127              		.cfi_offset 14, -4
 8128              	.LBB2676:
 8129              	.LBB2677:
 149:PSP/PlantConditioner.cpp ****         float pct = (float)i / _scaleLength;
 8130              		.loc 1 149 26 view .LVU1611
 8131 0002 90F8C930 		ldrb	r3, [r0, #201]	@ zero_extendqisi2
 149:PSP/PlantConditioner.cpp ****         float pct = (float)i / _scaleLength;
 8132              		.loc 1 149 14 view .LVU1612
 8133 0006 0025     		movs	r5, #0
 8134              	.LBE2677:
 8135              	.LBE2676:
 155:PSP/PlantConditioner.cpp ****     _histeresis = histeresis; updateThresholds(); 
 8136              		.loc 1 155 56 view .LVU1613
 8137 0008 0446     		mov	r4, r0
 8138 000a 00F1E006 		add	r6, r0, #224
 8139              		.loc 1 156 17 view .LVU1614
 8140 000e 80ED300A 		vstr.32	s0, [r0, #192]
 8141              		.loc 1 156 31 is_stmt 1 view .LVU1615
 8142              	.LVL414:
 8143              	.LBB2682:
 8144              	.LBI2676:
 148:PSP/PlantConditioner.cpp ****     for (int i = 0; i <= _scaleLength; i++) {
 8145              		.loc 1 148 6 view .LVU1616
 8146              	.LBB2680:
 149:PSP/PlantConditioner.cpp ****         float pct = (float)i / _scaleLength;
 8147              		.loc 1 149 23 view .LVU1617
 8148              	.LBE2680:
 8149              	.LBE2682:
 155:PSP/PlantConditioner.cpp ****     _histeresis = histeresis; updateThresholds(); 
 8150              		.loc 1 155 56 is_stmt 0 view .LVU1618
 8151 0012 2DED028B 		vpush.64	{d8}
 8152              		.cfi_def_cfa_offset 24
 8153              		.cfi_offset 80, -24
 8154              		.cfi_offset 81, -20
 8155              	.LVL415:
 8156              	.L88:
 8157              	.LBB2683:
 8158              	.LBB2681:
ARM GAS  C:\Users\skipi\AppData\Local\Temp\ccnEQq3j.s 			page 178


 8159              	.LBB2678:
 150:PSP/PlantConditioner.cpp ****         _noteThresholds[i] = _deltaMin + _range * powf(pct, _curveType);
 8160              		.loc 1 150 9 is_stmt 1 view .LVU1619
 151:PSP/PlantConditioner.cpp ****     }
 8161              		.loc 1 151 9 view .LVU1620
 150:PSP/PlantConditioner.cpp ****         _noteThresholds[i] = _deltaMin + _range * powf(pct, _curveType);
 8162              		.loc 1 150 30 is_stmt 0 view .LVU1621
 8163 0016 07EE903A 		vmov	s15, r3	@ int
 150:PSP/PlantConditioner.cpp ****         _noteThresholds[i] = _deltaMin + _range * powf(pct, _curveType);
 8164              		.loc 1 150 21 view .LVU1622
 8165 001a 07EE105A 		vmov	s14, r5	@ int
 151:PSP/PlantConditioner.cpp ****     }
 8166              		.loc 1 151 30 view .LVU1623
 8167 001e 94ED338A 		vldr.32	s16, [r4, #204]
 8168              	.LBE2678:
 149:PSP/PlantConditioner.cpp ****         float pct = (float)i / _scaleLength;
 8169              		.loc 1 149 5 view .LVU1624
 8170 0022 0135     		adds	r5, r5, #1
 8171              	.LVL416:
 8172              	.LBB2679:
 150:PSP/PlantConditioner.cpp ****         _noteThresholds[i] = _deltaMin + _range * powf(pct, _curveType);
 8173              		.loc 1 150 30 view .LVU1625
 8174 0024 F8EEE77A 		vcvt.f32.s32	s15, s15
 151:PSP/PlantConditioner.cpp ****     }
 8175              		.loc 1 151 42 view .LVU1626
 8176 0028 D4ED358A 		vldr.32	s17, [r4, #212]
 150:PSP/PlantConditioner.cpp ****         _noteThresholds[i] = _deltaMin + _range * powf(pct, _curveType);
 8177              		.loc 1 150 21 view .LVU1627
 8178 002c B8EEC70A 		vcvt.f32.s32	s0, s14
 151:PSP/PlantConditioner.cpp ****     }
 8179              		.loc 1 151 55 view .LVU1628
 8180 0030 D4ED310A 		vldr.32	s1, [r4, #196]
 8181 0034 80EE270A 		vdiv.f32	s0, s0, s15
 8182              	.LVL417:
 151:PSP/PlantConditioner.cpp ****     }
 8183              		.loc 1 151 55 view .LVU1629
 8184 0038 FFF7FEFF 		bl	powf
 8185              	.LVL418:
 151:PSP/PlantConditioner.cpp ****     }
 8186              		.loc 1 151 40 view .LVU1630
 8187 003c A8EE808A 		vfma.f32	s16, s17, s0
 151:PSP/PlantConditioner.cpp ****     }
 8188              		.loc 1 151 28 view .LVU1631
 8189 0040 A6EC018A 		vstmia.32	r6!, {s16}
 8190              	.LBE2679:
 149:PSP/PlantConditioner.cpp ****         float pct = (float)i / _scaleLength;
 8191              		.loc 1 149 5 is_stmt 1 view .LVU1632
 8192              	.LVL419:
 149:PSP/PlantConditioner.cpp ****         float pct = (float)i / _scaleLength;
 8193              		.loc 1 149 23 view .LVU1633
 149:PSP/PlantConditioner.cpp ****         float pct = (float)i / _scaleLength;
 8194              		.loc 1 149 26 is_stmt 0 view .LVU1634
 8195 0044 94F8C930 		ldrb	r3, [r4, #201]	@ zero_extendqisi2
 149:PSP/PlantConditioner.cpp ****         float pct = (float)i / _scaleLength;
 8196              		.loc 1 149 23 view .LVU1635
 8197 0048 AB42     		cmp	r3, r5
 8198 004a E4DA     		bge	.L88
ARM GAS  C:\Users\skipi\AppData\Local\Temp\ccnEQq3j.s 			page 179


 8199              	.LBE2681:
 8200              	.LBE2683:
 157:PSP/PlantConditioner.cpp **** }
 8201              		.loc 1 157 1 view .LVU1636
 8202 004c BDEC028B 		vldm	sp!, {d8}
 8203              		.cfi_restore 80
 8204              		.cfi_restore 81
 8205              		.cfi_def_cfa_offset 16
 8206 0050 70BD     		pop	{r4, r5, r6, pc}
 8207              		.loc 1 157 1 view .LVU1637
 8208              		.cfi_endproc
 8209              	.LFE5084:
 8211 0052 00BF     		.section	.rodata
 8212              		.align	2
 8213              		.set	.LANCHOR0,. + 0
 8214              	.LC0:
 8215 0000 CDCC8241 		.word	1099091149
 8216 0004 CDCC9241 		.word	1100139725
 8217 0008 CDCCA441 		.word	1101319373
 8218 000c D7A3AE41 		.word	1101964247
 8219 0010 0000C441 		.word	1103364096
 8220 0014 0000DC41 		.word	1104936960
 8221 0018 C3F5F641 		.word	1106703811
 8222              	.LC1:
 8223 001c CDCC8241 		.word	1099091149
 8224 0020 CDCC9241 		.word	1100139725
 8225 0024 9A999B41 		.word	1100716442
 8226 0028 D7A3AE41 		.word	1101964247
 8227 002c 0000C441 		.word	1103364096
 8228 0030 14AECF41 		.word	1104129556
 8229 0034 B81EE941 		.word	1105796792
 8230              	.LC2:
 8231 0038 CDCC8241 		.word	1099091149
 8232 003c CDCC9241 		.word	1100139725
 8233 0040 9A999B41 		.word	1100716442
 8234 0044 D7A3AE41 		.word	1101964247
 8235 0048 0000C441 		.word	1103364096
 8236 004c 14AECF41 		.word	1104129556
 8237 0050 C3F5F641 		.word	1106703811
 8238              	.LC3:
 8239 0054 CDCC8241 		.word	1099091149
 8240 0058 CDCC9241 		.word	1100139725
 8241 005c 9A999B41 		.word	1100716442
 8242 0060 D7A3AE41 		.word	1101964247
 8243 0064 C3F5B841 		.word	1102640579
 8244 0068 0000DC41 		.word	1104936960
 8245 006c C3F5F641 		.word	1106703811
 8246              	.LC4:
 8247 0070 CDCC8241 		.word	1099091149
 8248 0074 CDCC9241 		.word	1100139725
 8249 0078 D7A3AE41 		.word	1101964247
 8250 007c 0000C441 		.word	1103364096
 8251 0080 0000DC41 		.word	1104936960
 8252              	.LC5:
 8253 0084 CDCC8241 		.word	1099091149
 8254 0088 5C8F8A41 		.word	1099599708
 8255 008c CDCC9241 		.word	1100139725
ARM GAS  C:\Users\skipi\AppData\Local\Temp\ccnEQq3j.s 			page 180


 8256 0090 9A999B41 		.word	1100716442
 8257 0094 CDCCA441 		.word	1101319373
 8258 0098 D7A3AE41 		.word	1101964247
 8259 009c C3F5B841 		.word	1102640579
 8260 00a0 0000C441 		.word	1103364096
 8261 00a4 14AECF41 		.word	1104129556
 8262 00a8 0000DC41 		.word	1104936960
 8263 00ac B81EE941 		.word	1105796792
 8264 00b0 C3F5F641 		.word	1106703811
 8265              	.LC6:
 8266 00b4 CDCC8241 		.word	1099091149
 8267 00b8 CDCC9241 		.word	1100139725
 8268 00bc CDCCA441 		.word	1101319373
 8269 00c0 D7A3AE41 		.word	1101964247
 8270 00c4 0000C441 		.word	1103364096
 8271 00c8 0000DC41 		.word	1104936960
 8272              		.text
 8273              	.Letext0:
 8274              		.file 6 "c:\\program files\\daisytoolchain\\arm-none-eabi\\include\\machine\\_default_types.h"
 8275              		.file 7 "c:\\program files\\daisytoolchain\\arm-none-eabi\\include\\sys\\_stdint.h"
 8276              		.file 8 "c:\\program files\\daisytoolchain\\arm-none-eabi\\include\\stdint.h"
 8277              		.file 9 "c:\\program files\\daisytoolchain\\lib\\gcc\\arm-none-eabi\\10.2.1\\include\\stddef.h"
 8278              		.file 10 "c:\\program files\\daisytoolchain\\arm-none-eabi\\include\\c++\\10.2.1\\cmath"
 8279              		.file 11 "c:\\program files\\daisytoolchain\\arm-none-eabi\\include\\c++\\10.2.1\\bits\\std_abs.h"
 8280              		.file 12 "c:\\program files\\daisytoolchain\\arm-none-eabi\\include\\c++\\10.2.1\\cstdint"
 8281              		.file 13 "c:\\program files\\daisytoolchain\\arm-none-eabi\\include\\c++\\10.2.1\\cstdlib"
 8282              		.file 14 "c:\\program files\\daisytoolchain\\arm-none-eabi\\include\\c++\\10.2.1\\type_traits"
 8283              		.file 15 "c:\\program files\\daisytoolchain\\arm-none-eabi\\include\\c++\\10.2.1\\debug\\debug.h"
 8284              		.file 16 "c:\\program files\\daisytoolchain\\arm-none-eabi\\include\\c++\\10.2.1\\cwchar"
 8285              		.file 17 "c:\\program files\\daisytoolchain\\arm-none-eabi\\include\\c++\\10.2.1\\bits\\stl_pair.h
 8286              		.file 18 "c:\\program files\\daisytoolchain\\arm-none-eabi\\include\\c++\\10.2.1\\bits\\exception_
 8287              		.file 19 "c:\\program files\\daisytoolchain\\arm-none-eabi\\include\\c++\\10.2.1\\arm-none-eabi\\t
 8288              		.file 20 "c:\\program files\\daisytoolchain\\arm-none-eabi\\include\\c++\\10.2.1\\clocale"
 8289              		.file 21 "c:\\program files\\daisytoolchain\\arm-none-eabi\\include\\c++\\10.2.1\\cstdio"
 8290              		.file 22 "c:\\program files\\daisytoolchain\\arm-none-eabi\\include\\c++\\10.2.1\\bits\\basic_stri
 8291              		.file 23 "c:\\program files\\daisytoolchain\\arm-none-eabi\\include\\c++\\10.2.1\\bits\\charconv.h
 8292              		.file 24 "c:\\program files\\daisytoolchain\\arm-none-eabi\\include\\c++\\10.2.1\\bits\\algorithmf
 8293              		.file 25 "c:\\program files\\daisytoolchain\\arm-none-eabi\\include\\c++\\10.2.1\\cstring"
 8294              		.file 26 "c:\\program files\\daisytoolchain\\arm-none-eabi\\include\\c++\\10.2.1\\cstdarg"
 8295              		.file 27 "c:\\program files\\daisytoolchain\\arm-none-eabi\\include\\c++\\10.2.1\\cstddef"
 8296              		.file 28 "c:\\program files\\daisytoolchain\\arm-none-eabi\\include\\c++\\10.2.1\\bits\\predefined
 8297              		.file 29 "c:\\program files\\daisytoolchain\\arm-none-eabi\\include\\sys\\_types.h"
 8298              		.file 30 "c:\\program files\\daisytoolchain\\arm-none-eabi\\include\\sys\\reent.h"
 8299              		.file 31 "c:\\program files\\daisytoolchain\\arm-none-eabi\\include\\sys\\lock.h"
 8300              		.file 32 "c:\\program files\\daisytoolchain\\arm-none-eabi\\include\\math.h"
 8301              		.file 33 "c:\\program files\\daisytoolchain\\arm-none-eabi\\include\\stdlib.h"
 8302              		.file 34 "c:\\program files\\daisytoolchain\\arm-none-eabi\\include\\c++\\10.2.1\\math.h"
 8303              		.file 35 "../libs/PoliTeKDSP/libs/DaisySP/Source/Control/adenv.h"
 8304              		.file 36 "c:\\program files\\daisytoolchain\\lib\\gcc\\arm-none-eabi\\10.2.1\\include\\stdarg.h"
 8305              		.file 37 "c:\\program files\\daisytoolchain\\arm-none-eabi\\include\\wchar.h"
 8306              		.file 38 "c:\\program files\\daisytoolchain\\arm-none-eabi\\include\\locale.h"
 8307              		.file 39 "c:\\program files\\daisytoolchain\\arm-none-eabi\\include\\stdio.h"
 8308              		.file 40 "c:\\program files\\daisytoolchain\\arm-none-eabi\\include\\c++\\10.2.1\\stdlib.h"
 8309              		.file 41 "c:\\program files\\daisytoolchain\\arm-none-eabi\\include\\string.h"
 8310              		.file 42 "../libs/PoliTeKDSP/libs/libDaisy/src/per/tim.h"
 8311              		.file 43 "../libs/PoliTeKDSP/libs/libDaisy/src/sys/system.h"
 8312              		.file 44 "../libs/PoliTeKDSP/libs/libDaisy/src/per/qspi.h"
ARM GAS  C:\Users\skipi\AppData\Local\Temp\ccnEQq3j.s 			page 181


 8313              		.file 45 "../libs/PoliTeKDSP/libs/libDaisy/src/per/dac.h"
 8314              		.file 46 "../libs/PoliTeKDSP/libs/libDaisy/src/per/gpio.h"
 8315              		.file 47 "../libs/PoliTeKDSP/libs/libDaisy/src/per/sai.h"
 8316              		.file 48 "../libs/PoliTeKDSP/libs/libDaisy/src/hid/audio.h"
 8317              		.file 49 "../libs/PoliTeKDSP/libs/libDaisy/src/per/adc.h"
 8318              		.file 50 "../libs/PoliTeKDSP/libs/libDaisy/src/hid/usb.h"
 8319              		.file 51 "../libs/PoliTeKDSP/libs/libDaisy/src/dev/codec_ak4556.h"
 8320              		.file 52 "../libs/PoliTeKDSP/libs/libDaisy/src/dev/max11300.h"
 8321              		.file 53 "../libs/PoliTeKDSP/libs/libDaisy/src/dev/sr_595.h"
 8322              		.file 54 "../libs/PoliTeKDSP/libs/libDaisy/src/util/wav_format.h"
 8323              		.file 55 "../libs/PoliTeKDSP/libs/libDaisy/src/daisy_seed.h"
 8324              		.file 56 "../libs/PoliTeKDSP/libs/libDaisy/src/dev/sdram.h"
 8325              		.file 57 "../libs/PoliTeKDSP/libs/libDaisy/Middlewares/Third_Party/FatFs/src/integer.h"
 8326              		.file 58 "../libs/PoliTeKDSP/libs/libDaisy/Middlewares/Third_Party/FatFs/src/ff.h"
 8327              		.file 59 "PSP/../../libs/PoliTeKDSP/Utilities/DataFilter/IIR/iir.h"
 8328              		.file 60 "PSP/../../libs/PoliTeKDSP/Utilities/DataFilter/MF/MF.h"
 8329              		.file 61 "PSP/PlantConditioner.h"
 8330              		.file 62 "<built-in>"
ARM GAS  C:\Users\skipi\AppData\Local\Temp\ccnEQq3j.s 			page 182


DEFINED SYMBOLS
                            *ABS*:00000000 PlantConditioner.cpp
C:\Users\skipi\AppData\Local\Temp\ccnEQq3j.s:17     .text._ZN16PlantConditionerC2Ev:00000000 $t
C:\Users\skipi\AppData\Local\Temp\ccnEQq3j.s:26     .text._ZN16PlantConditionerC2Ev:00000000 _ZN16PlantConditionerC2Ev
C:\Users\skipi\AppData\Local\Temp\ccnEQq3j.s:413    .text._ZN16PlantConditionerC2Ev:00000150 $d
C:\Users\skipi\AppData\Local\Temp\ccnEQq3j.s:26     .text._ZN16PlantConditionerC2Ev:00000000 _ZN16PlantConditionerC1Ev
C:\Users\skipi\AppData\Local\Temp\ccnEQq3j.s:422    .text._ZN16PlantConditionerD2Ev:00000000 $t
C:\Users\skipi\AppData\Local\Temp\ccnEQq3j.s:430    .text._ZN16PlantConditionerD2Ev:00000000 _ZN16PlantConditionerD2Ev
C:\Users\skipi\AppData\Local\Temp\ccnEQq3j.s:430    .text._ZN16PlantConditionerD2Ev:00000000 _ZN16PlantConditionerD1Ev
C:\Users\skipi\AppData\Local\Temp\ccnEQq3j.s:474    .text._ZN16PlantConditioner4InitEN3IIR10FilterTypeEPN5daisy9DaisySeedE:00000000 $t
C:\Users\skipi\AppData\Local\Temp\ccnEQq3j.s:482    .text._ZN16PlantConditioner4InitEN3IIR10FilterTypeEPN5daisy9DaisySeedE:00000000 _ZN16PlantConditioner4InitEN3IIR10FilterTypeEPN5daisy9DaisySeedE
C:\Users\skipi\AppData\Local\Temp\ccnEQq3j.s:6660   .text._ZN16PlantConditioner4InitEN3IIR10FilterTypeEPN5daisy9DaisySeedE:00000ce0 $d
C:\Users\skipi\AppData\Local\Temp\ccnEQq3j.s:6665   .text._ZN16PlantConditioner8setScaleENS_5NotesENS_9ScaleTypeE:00000000 $t
C:\Users\skipi\AppData\Local\Temp\ccnEQq3j.s:6673   .text._ZN16PlantConditioner8setScaleENS_5NotesENS_9ScaleTypeE:00000000 _ZN16PlantConditioner8setScaleENS_5NotesENS_9ScaleTypeE
C:\Users\skipi\AppData\Local\Temp\ccnEQq3j.s:6698   .text._ZN16PlantConditioner8setScaleENS_5NotesENS_9ScaleTypeE:00000014 $d
C:\Users\skipi\AppData\Local\Temp\ccnEQq3j.s:6705   .text._ZN16PlantConditioner8setScaleENS_5NotesENS_9ScaleTypeE:00000022 $t
C:\Users\skipi\AppData\Local\Temp\ccnEQq3j.s:7095   .text._ZN16PlantConditioner9setOctaveEh:00000000 $t
C:\Users\skipi\AppData\Local\Temp\ccnEQq3j.s:7103   .text._ZN16PlantConditioner9setOctaveEh:00000000 _ZN16PlantConditioner9setOctaveEh
C:\Users\skipi\AppData\Local\Temp\ccnEQq3j.s:7120   .text._ZN16PlantConditioner7ProcessEv:00000000 $t
C:\Users\skipi\AppData\Local\Temp\ccnEQq3j.s:7128   .text._ZN16PlantConditioner7ProcessEv:00000000 _ZN16PlantConditioner7ProcessEv
C:\Users\skipi\AppData\Local\Temp\ccnEQq3j.s:7753   .text._ZN16PlantConditioner7ProcessEv:000001f0 $d
C:\Users\skipi\AppData\Local\Temp\ccnEQq3j.s:7763   .text._ZN16PlantConditioner8setCurveEf:00000000 $t
C:\Users\skipi\AppData\Local\Temp\ccnEQq3j.s:7771   .text._ZN16PlantConditioner8setCurveEf:00000000 _ZN16PlantConditioner8setCurveEf
C:\Users\skipi\AppData\Local\Temp\ccnEQq3j.s:7882   .text._ZN16PlantConditioner8setDeltaEf:00000000 $t
C:\Users\skipi\AppData\Local\Temp\ccnEQq3j.s:7890   .text._ZN16PlantConditioner8setDeltaEf:00000000 _ZN16PlantConditioner8setDeltaEf
C:\Users\skipi\AppData\Local\Temp\ccnEQq3j.s:8011   .text._ZN16PlantConditioner16updateThresholdsEv:00000000 $t
C:\Users\skipi\AppData\Local\Temp\ccnEQq3j.s:8019   .text._ZN16PlantConditioner16updateThresholdsEv:00000000 _ZN16PlantConditioner16updateThresholdsEv
C:\Users\skipi\AppData\Local\Temp\ccnEQq3j.s:8105   .text._ZN16PlantConditioner13setHisteresisEf:00000000 $t
C:\Users\skipi\AppData\Local\Temp\ccnEQq3j.s:8113   .text._ZN16PlantConditioner13setHisteresisEf:00000000 _ZN16PlantConditioner13setHisteresisEf
C:\Users\skipi\AppData\Local\Temp\ccnEQq3j.s:8212   .rodata:00000000 $d

UNDEFINED SYMBOLS
_ZN3IIRC1Ev
_ZN2MFC1Ev
_ZN2MFD1Ev
_ZN3IIRD1Ev
_ZN5daisy9I2CHandle4InitERKNS0_6ConfigE
_ZN5daisy9I2CHandle17ReadDataAtAddressEtttPhtm
_ZN5daisy9I2CHandle18WriteDataAtAddressEtttPhtm
_ZN5daisy6System5DelayEm
_ZN5daisy9DaisySeed6SetLedEb
_ZN5daisy9DaisySeed7DelayMsEj
_ZN3IIR4InitENS_10FilterTypeE
_ZN2MF4InitEv
powf
_ZN2MF7ProcessEf
_ZN3IIR7ProcessEf
