ARM GAS  C:\Users\skipi\AppData\Local\Temp\ccUZkxb5.s 			page 1


   1              		.cpu cortex-m7
   2              		.eabi_attribute 28, 1
   3              		.eabi_attribute 20, 1
   4              		.eabi_attribute 21, 1
   5              		.eabi_attribute 23, 3
   6              		.eabi_attribute 24, 1
   7              		.eabi_attribute 25, 1
   8              		.eabi_attribute 26, 1
   9              		.eabi_attribute 30, 2
  10              		.eabi_attribute 34, 1
  11              		.eabi_attribute 18, 4
  12              		.file	"PlantConditioner.cpp"
  13              		.text
  14              	.Ltext0:
  15              		.cfi_sections	.debug_frame
  16              		.section	.text._ZN16PlantConditionerC2Ev,"ax",%progbits
  17              		.align	1
  18              		.p2align 2,,3
  19              		.global	_ZN16PlantConditionerC2Ev
  20              		.arch armv7e-m
  21              		.syntax unified
  22              		.thumb
  23              		.thumb_func
  24              		.fpu fpv5-d16
  26              	_ZN16PlantConditionerC2Ev:
  27              	.LVL0:
  28              	.LFB5072:
  29              		.file 1 "PSP/PlantConditioner.cpp"
   1:PSP/PlantConditioner.cpp **** #include "PlantConditioner.h"
   2:PSP/PlantConditioner.cpp **** 
   3:PSP/PlantConditioner.cpp **** 
   4:PSP/PlantConditioner.cpp **** using namespace daisysp;
   5:PSP/PlantConditioner.cpp **** 
   6:PSP/PlantConditioner.cpp **** PlantConditioner::PlantConditioner() {}
  30              		.loc 1 6 1 view -0
  31              		.cfi_startproc
  32              		@ args = 0, pretend = 0, frame = 24
  33              		@ frame_needed = 0, uses_anonymous_args = 0
  34              		.loc 1 6 1 is_stmt 0 view .LVU1
  35 0000 2DE9F04F 		push	{r4, r5, r6, r7, r8, r9, r10, fp, lr}
  36              		.cfi_def_cfa_offset 36
  37              		.cfi_offset 4, -36
  38              		.cfi_offset 5, -32
  39              		.cfi_offset 6, -28
  40              		.cfi_offset 7, -24
  41              		.cfi_offset 8, -20
  42              		.cfi_offset 9, -16
  43              		.cfi_offset 10, -12
  44              		.cfi_offset 11, -8
  45              		.cfi_offset 14, -4
  46              	.LBB196:
  47              	.LBB197:
  48              	.LBB198:
  49              	.LBB199:
  50              	.LBB200:
  51              		.file 2 "../libs/PoliTeKDSP/libs/libDaisy/src/dev/mpr121.h"
   1:../libs/PoliTeKDSP/libs/libDaisy/src/dev/mpr121.h **** #pragma once
ARM GAS  C:\Users\skipi\AppData\Local\Temp\ccUZkxb5.s 			page 2


   2:../libs/PoliTeKDSP/libs/libDaisy/src/dev/mpr121.h **** #ifndef DSY_MPR121_H
   3:../libs/PoliTeKDSP/libs/libDaisy/src/dev/mpr121.h **** #define DSY_MPR121_H
   4:../libs/PoliTeKDSP/libs/libDaisy/src/dev/mpr121.h **** 
   5:../libs/PoliTeKDSP/libs/libDaisy/src/dev/mpr121.h **** // The default I2C address
   6:../libs/PoliTeKDSP/libs/libDaisy/src/dev/mpr121.h **** #define MPR121_I2CADDR_DEFAULT 0x5A        ///< default I2C address
   7:../libs/PoliTeKDSP/libs/libDaisy/src/dev/mpr121.h **** #define MPR121_TOUCH_THRESHOLD_DEFAULT 3  ///< default touch threshold value
   8:../libs/PoliTeKDSP/libs/libDaisy/src/dev/mpr121.h **** #define MPR121_RELEASE_THRESHOLD_DEFAULT 2 ///< default relese threshold value
   9:../libs/PoliTeKDSP/libs/libDaisy/src/dev/mpr121.h **** 
  10:../libs/PoliTeKDSP/libs/libDaisy/src/dev/mpr121.h **** namespace daisy
  11:../libs/PoliTeKDSP/libs/libDaisy/src/dev/mpr121.h **** {
  12:../libs/PoliTeKDSP/libs/libDaisy/src/dev/mpr121.h **** /** @addtogroup external 
  13:../libs/PoliTeKDSP/libs/libDaisy/src/dev/mpr121.h ****     @{ 
  14:../libs/PoliTeKDSP/libs/libDaisy/src/dev/mpr121.h **** */
  15:../libs/PoliTeKDSP/libs/libDaisy/src/dev/mpr121.h **** 
  16:../libs/PoliTeKDSP/libs/libDaisy/src/dev/mpr121.h **** /** I2C Transport for MPR121 */
  17:../libs/PoliTeKDSP/libs/libDaisy/src/dev/mpr121.h **** class Mpr121I2CTransport
  18:../libs/PoliTeKDSP/libs/libDaisy/src/dev/mpr121.h **** {
  19:../libs/PoliTeKDSP/libs/libDaisy/src/dev/mpr121.h ****   public:
  20:../libs/PoliTeKDSP/libs/libDaisy/src/dev/mpr121.h ****     Mpr121I2CTransport() {}
  21:../libs/PoliTeKDSP/libs/libDaisy/src/dev/mpr121.h ****     ~Mpr121I2CTransport() {}
  22:../libs/PoliTeKDSP/libs/libDaisy/src/dev/mpr121.h **** 
  23:../libs/PoliTeKDSP/libs/libDaisy/src/dev/mpr121.h ****     struct Config
  24:../libs/PoliTeKDSP/libs/libDaisy/src/dev/mpr121.h ****     {
  25:../libs/PoliTeKDSP/libs/libDaisy/src/dev/mpr121.h ****         I2CHandle::Config::Peripheral periph;
  26:../libs/PoliTeKDSP/libs/libDaisy/src/dev/mpr121.h ****         I2CHandle::Config::Speed      speed;
  27:../libs/PoliTeKDSP/libs/libDaisy/src/dev/mpr121.h ****         Pin                           scl;
  28:../libs/PoliTeKDSP/libs/libDaisy/src/dev/mpr121.h ****         Pin                           sda;
  29:../libs/PoliTeKDSP/libs/libDaisy/src/dev/mpr121.h **** 
  30:../libs/PoliTeKDSP/libs/libDaisy/src/dev/mpr121.h ****         I2CHandle::Config::Mode mode;
  31:../libs/PoliTeKDSP/libs/libDaisy/src/dev/mpr121.h **** 
  32:../libs/PoliTeKDSP/libs/libDaisy/src/dev/mpr121.h ****         uint8_t dev_addr;
  33:../libs/PoliTeKDSP/libs/libDaisy/src/dev/mpr121.h **** 
  34:../libs/PoliTeKDSP/libs/libDaisy/src/dev/mpr121.h ****         Config()
  35:../libs/PoliTeKDSP/libs/libDaisy/src/dev/mpr121.h ****         {
  36:../libs/PoliTeKDSP/libs/libDaisy/src/dev/mpr121.h ****             periph = I2CHandle::Config::Peripheral::I2C_1;
  37:../libs/PoliTeKDSP/libs/libDaisy/src/dev/mpr121.h ****             speed  = I2CHandle::Config::Speed::I2C_400KHZ;
  52              		.loc 2 37 20 view .LVU2
  53 0004 0121     		movs	r1, #1
  36:../libs/PoliTeKDSP/libs/libDaisy/src/dev/mpr121.h ****             speed  = I2CHandle::Config::Speed::I2C_400KHZ;
  54              		.loc 2 36 20 view .LVU3
  55 0006 0024     		movs	r4, #0
  38:../libs/PoliTeKDSP/libs/libDaisy/src/dev/mpr121.h **** 
  39:../libs/PoliTeKDSP/libs/libDaisy/src/dev/mpr121.h ****             scl = Pin(PORTB, 8);
  40:../libs/PoliTeKDSP/libs/libDaisy/src/dev/mpr121.h ****             sda = Pin(PORTB, 9);
  41:../libs/PoliTeKDSP/libs/libDaisy/src/dev/mpr121.h **** 
  42:../libs/PoliTeKDSP/libs/libDaisy/src/dev/mpr121.h ****             dev_addr = MPR121_I2CADDR_DEFAULT;
  56              		.loc 2 42 22 view .LVU4
  57 0008 5A23     		movs	r3, #90
  58              	.LBE200:
  59              	.LBE199:
  60              	.LBE198:
  61              	.LBE197:
  62              	.LBE196:
  63              		.loc 1 6 1 view .LVU5
  64 000a 0546     		mov	r5, r0
  65              	.LVL1:
  66              	.LBB269:
ARM GAS  C:\Users\skipi\AppData\Local\Temp\ccUZkxb5.s 			page 3


  67              	.LBB218:
  68              	.LBI197:
  43:../libs/PoliTeKDSP/libs/libDaisy/src/dev/mpr121.h ****         }
  44:../libs/PoliTeKDSP/libs/libDaisy/src/dev/mpr121.h ****     };
  45:../libs/PoliTeKDSP/libs/libDaisy/src/dev/mpr121.h **** 
  46:../libs/PoliTeKDSP/libs/libDaisy/src/dev/mpr121.h ****     /** \return Did the transaction error? i.e. Return true if error, false if ok */
  47:../libs/PoliTeKDSP/libs/libDaisy/src/dev/mpr121.h ****     inline bool Init(Config config)
  48:../libs/PoliTeKDSP/libs/libDaisy/src/dev/mpr121.h ****     {
  49:../libs/PoliTeKDSP/libs/libDaisy/src/dev/mpr121.h ****         config_ = config;
  50:../libs/PoliTeKDSP/libs/libDaisy/src/dev/mpr121.h **** 
  51:../libs/PoliTeKDSP/libs/libDaisy/src/dev/mpr121.h ****         I2CHandle::Config i2c_conf;
  52:../libs/PoliTeKDSP/libs/libDaisy/src/dev/mpr121.h ****         i2c_conf.mode   = I2CHandle::Config::Mode::I2C_MASTER;
  53:../libs/PoliTeKDSP/libs/libDaisy/src/dev/mpr121.h ****         i2c_conf.periph = config.periph;
  54:../libs/PoliTeKDSP/libs/libDaisy/src/dev/mpr121.h ****         i2c_conf.speed  = config.speed;
  55:../libs/PoliTeKDSP/libs/libDaisy/src/dev/mpr121.h **** 
  56:../libs/PoliTeKDSP/libs/libDaisy/src/dev/mpr121.h ****         i2c_conf.pin_config.scl = config.scl;
  57:../libs/PoliTeKDSP/libs/libDaisy/src/dev/mpr121.h ****         i2c_conf.pin_config.sda = config.sda;
  58:../libs/PoliTeKDSP/libs/libDaisy/src/dev/mpr121.h **** 
  59:../libs/PoliTeKDSP/libs/libDaisy/src/dev/mpr121.h ****         return I2CHandle::Result::OK != i2c_.Init(i2c_conf);
  60:../libs/PoliTeKDSP/libs/libDaisy/src/dev/mpr121.h ****     }
  61:../libs/PoliTeKDSP/libs/libDaisy/src/dev/mpr121.h **** 
  62:../libs/PoliTeKDSP/libs/libDaisy/src/dev/mpr121.h ****     /** \return Did the transaction error? i.e. Return true if error, false if ok */
  63:../libs/PoliTeKDSP/libs/libDaisy/src/dev/mpr121.h ****     bool ReadDataAtAddress(uint8_t address, uint8_t *data, uint16_t size)
  64:../libs/PoliTeKDSP/libs/libDaisy/src/dev/mpr121.h ****     {
  65:../libs/PoliTeKDSP/libs/libDaisy/src/dev/mpr121.h ****         return I2CHandle::Result::OK
  66:../libs/PoliTeKDSP/libs/libDaisy/src/dev/mpr121.h ****                != i2c_.ReadDataAtAddress(
  67:../libs/PoliTeKDSP/libs/libDaisy/src/dev/mpr121.h ****                    config_.dev_addr, address, 1, data, size, 10);
  68:../libs/PoliTeKDSP/libs/libDaisy/src/dev/mpr121.h ****     }
  69:../libs/PoliTeKDSP/libs/libDaisy/src/dev/mpr121.h **** 
  70:../libs/PoliTeKDSP/libs/libDaisy/src/dev/mpr121.h ****     /** \return Did the transaction error? i.e. Return true if error, false if ok */
  71:../libs/PoliTeKDSP/libs/libDaisy/src/dev/mpr121.h ****     bool WriteDataAtAddress(uint8_t address, uint8_t *data, uint16_t size)
  72:../libs/PoliTeKDSP/libs/libDaisy/src/dev/mpr121.h ****     {
  73:../libs/PoliTeKDSP/libs/libDaisy/src/dev/mpr121.h ****         return I2CHandle::Result::OK
  74:../libs/PoliTeKDSP/libs/libDaisy/src/dev/mpr121.h ****                != i2c_.WriteDataAtAddress(
  75:../libs/PoliTeKDSP/libs/libDaisy/src/dev/mpr121.h ****                    config_.dev_addr, address, 1, data, size, 10);
  76:../libs/PoliTeKDSP/libs/libDaisy/src/dev/mpr121.h ****     }
  77:../libs/PoliTeKDSP/libs/libDaisy/src/dev/mpr121.h **** 
  78:../libs/PoliTeKDSP/libs/libDaisy/src/dev/mpr121.h ****   private:
  79:../libs/PoliTeKDSP/libs/libDaisy/src/dev/mpr121.h ****     I2CHandle i2c_;
  80:../libs/PoliTeKDSP/libs/libDaisy/src/dev/mpr121.h ****     Config    config_;
  81:../libs/PoliTeKDSP/libs/libDaisy/src/dev/mpr121.h **** };
  82:../libs/PoliTeKDSP/libs/libDaisy/src/dev/mpr121.h **** 
  83:../libs/PoliTeKDSP/libs/libDaisy/src/dev/mpr121.h **** 
  84:../libs/PoliTeKDSP/libs/libDaisy/src/dev/mpr121.h **** /** @brief Device support for MPR121 12x Capacitive Touch Sensor
  85:../libs/PoliTeKDSP/libs/libDaisy/src/dev/mpr121.h ****     @author beserge
  86:../libs/PoliTeKDSP/libs/libDaisy/src/dev/mpr121.h ****     @date December 2021
  87:../libs/PoliTeKDSP/libs/libDaisy/src/dev/mpr121.h **** */
  88:../libs/PoliTeKDSP/libs/libDaisy/src/dev/mpr121.h **** template <typename Transport>
  89:../libs/PoliTeKDSP/libs/libDaisy/src/dev/mpr121.h **** class Mpr121
  90:../libs/PoliTeKDSP/libs/libDaisy/src/dev/mpr121.h **** {
  91:../libs/PoliTeKDSP/libs/libDaisy/src/dev/mpr121.h ****   public:
  92:../libs/PoliTeKDSP/libs/libDaisy/src/dev/mpr121.h ****     Mpr121() {}
  93:../libs/PoliTeKDSP/libs/libDaisy/src/dev/mpr121.h ****     ~Mpr121() {}
  94:../libs/PoliTeKDSP/libs/libDaisy/src/dev/mpr121.h **** 
  95:../libs/PoliTeKDSP/libs/libDaisy/src/dev/mpr121.h ****     struct Config
  96:../libs/PoliTeKDSP/libs/libDaisy/src/dev/mpr121.h ****     {
  97:../libs/PoliTeKDSP/libs/libDaisy/src/dev/mpr121.h ****         typename Transport::Config transport_config;
ARM GAS  C:\Users\skipi\AppData\Local\Temp\ccUZkxb5.s 			page 4


  98:../libs/PoliTeKDSP/libs/libDaisy/src/dev/mpr121.h ****         uint8_t                    touch_threshold;
  99:../libs/PoliTeKDSP/libs/libDaisy/src/dev/mpr121.h ****         uint8_t                    release_threshold;
 100:../libs/PoliTeKDSP/libs/libDaisy/src/dev/mpr121.h **** 
 101:../libs/PoliTeKDSP/libs/libDaisy/src/dev/mpr121.h ****         Config()
  69              		.loc 2 101 9 is_stmt 1 view .LVU6
  70              	.LBB213:
  71              	.LBB209:
  72              	.LBI199:
  34:../libs/PoliTeKDSP/libs/libDaisy/src/dev/mpr121.h ****         {
  73              		.loc 2 34 9 view .LVU7
  74              	.LBB205:
  75              	.LBB201:
  76              	.LBI201:
  77              		.file 3 "../libs/PoliTeKDSP/libs/libDaisy/src/daisy_core.h"
   1:../libs/PoliTeKDSP/libs/libDaisy/src/daisy_core.h **** #pragma once
   2:../libs/PoliTeKDSP/libs/libDaisy/src/daisy_core.h **** #ifndef DSY_CORE_HW_H
   3:../libs/PoliTeKDSP/libs/libDaisy/src/daisy_core.h **** #define DSY_CORE_HW_H /**< & */
   4:../libs/PoliTeKDSP/libs/libDaisy/src/daisy_core.h **** #include <stdint.h>
   5:../libs/PoliTeKDSP/libs/libDaisy/src/daisy_core.h **** #include <stdlib.h>
   6:../libs/PoliTeKDSP/libs/libDaisy/src/daisy_core.h **** 
   7:../libs/PoliTeKDSP/libs/libDaisy/src/daisy_core.h **** #if defined(_MSC_VER)
   8:../libs/PoliTeKDSP/libs/libDaisy/src/daisy_core.h **** #define FORCE_INLINE __forceinline /**< & */
   9:../libs/PoliTeKDSP/libs/libDaisy/src/daisy_core.h **** #elif defined(__clang__)
  10:../libs/PoliTeKDSP/libs/libDaisy/src/daisy_core.h **** #define FORCE_INLINE inline __attribute__((always_inline)) /**< & */
  11:../libs/PoliTeKDSP/libs/libDaisy/src/daisy_core.h **** #pragma clang diagnostic ignored "-Wduplicate-decl-specifier"
  12:../libs/PoliTeKDSP/libs/libDaisy/src/daisy_core.h **** #elif defined(__GNUC__)
  13:../libs/PoliTeKDSP/libs/libDaisy/src/daisy_core.h **** #define FORCE_INLINE inline __attribute__((always_inline)) /**< & */
  14:../libs/PoliTeKDSP/libs/libDaisy/src/daisy_core.h **** #else
  15:../libs/PoliTeKDSP/libs/libDaisy/src/daisy_core.h **** #error unknown compiler
  16:../libs/PoliTeKDSP/libs/libDaisy/src/daisy_core.h **** #endif
  17:../libs/PoliTeKDSP/libs/libDaisy/src/daisy_core.h **** 
  18:../libs/PoliTeKDSP/libs/libDaisy/src/daisy_core.h **** /** @addtogroup utility
  19:../libs/PoliTeKDSP/libs/libDaisy/src/daisy_core.h ****     @{
  20:../libs/PoliTeKDSP/libs/libDaisy/src/daisy_core.h **** */
  21:../libs/PoliTeKDSP/libs/libDaisy/src/daisy_core.h **** 
  22:../libs/PoliTeKDSP/libs/libDaisy/src/daisy_core.h **** /** Macro for area of memory that is configured as cacheless
  23:../libs/PoliTeKDSP/libs/libDaisy/src/daisy_core.h **** This should be used primarily for DMA buffers, and the like.
  24:../libs/PoliTeKDSP/libs/libDaisy/src/daisy_core.h **** */
  25:../libs/PoliTeKDSP/libs/libDaisy/src/daisy_core.h **** #define DMA_BUFFER_MEM_SECTION __attribute__((section(".sram1_bss")))
  26:../libs/PoliTeKDSP/libs/libDaisy/src/daisy_core.h **** /** 
  27:../libs/PoliTeKDSP/libs/libDaisy/src/daisy_core.h **** THE DTCM RAM section is also non-cached. However, is not suitable 
  28:../libs/PoliTeKDSP/libs/libDaisy/src/daisy_core.h **** for DMA transfers. Performance is on par with internal SRAM w/ 
  29:../libs/PoliTeKDSP/libs/libDaisy/src/daisy_core.h **** cache enabled.
  30:../libs/PoliTeKDSP/libs/libDaisy/src/daisy_core.h **** */
  31:../libs/PoliTeKDSP/libs/libDaisy/src/daisy_core.h **** #define DTCM_MEM_SECTION __attribute__((section(".dtcmram_bss")))
  32:../libs/PoliTeKDSP/libs/libDaisy/src/daisy_core.h **** 
  33:../libs/PoliTeKDSP/libs/libDaisy/src/daisy_core.h **** #define FBIPMAX 0.999985f             /**< close to 1.0f-LSB at 16 bit */
  34:../libs/PoliTeKDSP/libs/libDaisy/src/daisy_core.h **** #define FBIPMIN (-FBIPMAX)            /**< - (1 - LSB) */
  35:../libs/PoliTeKDSP/libs/libDaisy/src/daisy_core.h **** #define U82F_SCALE 0.0078740f         /**< 1 / 127 */
  36:../libs/PoliTeKDSP/libs/libDaisy/src/daisy_core.h **** #define F2U8_SCALE 127.0f             /**< 128 - 1 */
  37:../libs/PoliTeKDSP/libs/libDaisy/src/daisy_core.h **** #define S82F_SCALE 0.0078125f         /**< 1 / (2**7) */
  38:../libs/PoliTeKDSP/libs/libDaisy/src/daisy_core.h **** #define F2S8_SCALE 127.0f             /**< (2 ** 7) - 1 */
  39:../libs/PoliTeKDSP/libs/libDaisy/src/daisy_core.h **** #define S162F_SCALE 3.0517578125e-05f /**< 1 / (2** 15) */
  40:../libs/PoliTeKDSP/libs/libDaisy/src/daisy_core.h **** #define F2S16_SCALE 32767.0f          /**< (2 ** 15) - 1 */
  41:../libs/PoliTeKDSP/libs/libDaisy/src/daisy_core.h **** #define F2S24_SCALE 8388608.0f        /**< 2 ** 23 */
  42:../libs/PoliTeKDSP/libs/libDaisy/src/daisy_core.h **** #define S242F_SCALE 1.192092896e-07f  /**< 1 / (2 ** 23) */
  43:../libs/PoliTeKDSP/libs/libDaisy/src/daisy_core.h **** #define S24SIGN 0x800000              /**< 2 ** 23 */
ARM GAS  C:\Users\skipi\AppData\Local\Temp\ccUZkxb5.s 			page 5


  44:../libs/PoliTeKDSP/libs/libDaisy/src/daisy_core.h **** #define S322F_SCALE 4.6566129e-10f    /**< 1 / (2** 31) */
  45:../libs/PoliTeKDSP/libs/libDaisy/src/daisy_core.h **** #define F2S32_SCALE 2147483647.f      /**< (2 ** 31) - 1 */
  46:../libs/PoliTeKDSP/libs/libDaisy/src/daisy_core.h **** 
  47:../libs/PoliTeKDSP/libs/libDaisy/src/daisy_core.h **** 
  48:../libs/PoliTeKDSP/libs/libDaisy/src/daisy_core.h **** /** shorthand macro for simplifying the reading of the left 
  49:../libs/PoliTeKDSP/libs/libDaisy/src/daisy_core.h ****  *  channel of a non-interleaved output buffer named out */
  50:../libs/PoliTeKDSP/libs/libDaisy/src/daisy_core.h **** #define OUT_L out[0]
  51:../libs/PoliTeKDSP/libs/libDaisy/src/daisy_core.h **** 
  52:../libs/PoliTeKDSP/libs/libDaisy/src/daisy_core.h **** /** shorthand macro for simplifying the reading of the right 
  53:../libs/PoliTeKDSP/libs/libDaisy/src/daisy_core.h ****  *  channel of a non-interleaved output buffer named out */
  54:../libs/PoliTeKDSP/libs/libDaisy/src/daisy_core.h **** #define OUT_R out[1]
  55:../libs/PoliTeKDSP/libs/libDaisy/src/daisy_core.h **** 
  56:../libs/PoliTeKDSP/libs/libDaisy/src/daisy_core.h **** /** shorthand macro for simplifying the reading of the left 
  57:../libs/PoliTeKDSP/libs/libDaisy/src/daisy_core.h ****  *  channel of a non-interleaved input buffer named in */
  58:../libs/PoliTeKDSP/libs/libDaisy/src/daisy_core.h **** #define IN_L in[0]
  59:../libs/PoliTeKDSP/libs/libDaisy/src/daisy_core.h **** 
  60:../libs/PoliTeKDSP/libs/libDaisy/src/daisy_core.h **** /** shorthand macro for simplifying the reading of the right 
  61:../libs/PoliTeKDSP/libs/libDaisy/src/daisy_core.h ****  *  channel of a non-interleaved input buffer named in */
  62:../libs/PoliTeKDSP/libs/libDaisy/src/daisy_core.h **** #define IN_R in[1]
  63:../libs/PoliTeKDSP/libs/libDaisy/src/daisy_core.h **** 
  64:../libs/PoliTeKDSP/libs/libDaisy/src/daisy_core.h **** /** 
  65:../libs/PoliTeKDSP/libs/libDaisy/src/daisy_core.h ****     Computes cube.
  66:../libs/PoliTeKDSP/libs/libDaisy/src/daisy_core.h ****     \param x Number to be cubed
  67:../libs/PoliTeKDSP/libs/libDaisy/src/daisy_core.h ****     \return x ^ 3
  68:../libs/PoliTeKDSP/libs/libDaisy/src/daisy_core.h **** */
  69:../libs/PoliTeKDSP/libs/libDaisy/src/daisy_core.h **** FORCE_INLINE float cube(float x)
  70:../libs/PoliTeKDSP/libs/libDaisy/src/daisy_core.h **** {
  71:../libs/PoliTeKDSP/libs/libDaisy/src/daisy_core.h ****     return (x * x) * x;
  72:../libs/PoliTeKDSP/libs/libDaisy/src/daisy_core.h **** }
  73:../libs/PoliTeKDSP/libs/libDaisy/src/daisy_core.h **** 
  74:../libs/PoliTeKDSP/libs/libDaisy/src/daisy_core.h **** /** 
  75:../libs/PoliTeKDSP/libs/libDaisy/src/daisy_core.h ****     Converts unsigned 8-bit to float
  76:../libs/PoliTeKDSP/libs/libDaisy/src/daisy_core.h ****     \param x Number to be scaled.
  77:../libs/PoliTeKDSP/libs/libDaisy/src/daisy_core.h ****     \return Scaled number.
  78:../libs/PoliTeKDSP/libs/libDaisy/src/daisy_core.h **** */
  79:../libs/PoliTeKDSP/libs/libDaisy/src/daisy_core.h **** FORCE_INLINE float u82f(uint8_t x)
  80:../libs/PoliTeKDSP/libs/libDaisy/src/daisy_core.h **** {
  81:../libs/PoliTeKDSP/libs/libDaisy/src/daisy_core.h ****     return ((float)x - 127.f) * U82F_SCALE;
  82:../libs/PoliTeKDSP/libs/libDaisy/src/daisy_core.h **** }
  83:../libs/PoliTeKDSP/libs/libDaisy/src/daisy_core.h **** 
  84:../libs/PoliTeKDSP/libs/libDaisy/src/daisy_core.h **** /**
  85:../libs/PoliTeKDSP/libs/libDaisy/src/daisy_core.h ****     Converts float to unsigned 8-bit
  86:../libs/PoliTeKDSP/libs/libDaisy/src/daisy_core.h **** */
  87:../libs/PoliTeKDSP/libs/libDaisy/src/daisy_core.h **** FORCE_INLINE uint8_t f2u8(float x)
  88:../libs/PoliTeKDSP/libs/libDaisy/src/daisy_core.h **** {
  89:../libs/PoliTeKDSP/libs/libDaisy/src/daisy_core.h ****     x = x <= FBIPMIN ? FBIPMIN : x;
  90:../libs/PoliTeKDSP/libs/libDaisy/src/daisy_core.h ****     x = x >= FBIPMAX ? FBIPMAX : x;
  91:../libs/PoliTeKDSP/libs/libDaisy/src/daisy_core.h ****     return (uint8_t)((x * F2U8_SCALE) + F2U8_SCALE);
  92:../libs/PoliTeKDSP/libs/libDaisy/src/daisy_core.h **** }
  93:../libs/PoliTeKDSP/libs/libDaisy/src/daisy_core.h **** 
  94:../libs/PoliTeKDSP/libs/libDaisy/src/daisy_core.h **** 
  95:../libs/PoliTeKDSP/libs/libDaisy/src/daisy_core.h **** /** 
  96:../libs/PoliTeKDSP/libs/libDaisy/src/daisy_core.h ****     Converts Signed 8-bit to float
  97:../libs/PoliTeKDSP/libs/libDaisy/src/daisy_core.h ****     \param x Number to be scaled.
  98:../libs/PoliTeKDSP/libs/libDaisy/src/daisy_core.h ****     \return Scaled number.
  99:../libs/PoliTeKDSP/libs/libDaisy/src/daisy_core.h **** */
 100:../libs/PoliTeKDSP/libs/libDaisy/src/daisy_core.h **** FORCE_INLINE float s82f(int8_t x)
ARM GAS  C:\Users\skipi\AppData\Local\Temp\ccUZkxb5.s 			page 6


 101:../libs/PoliTeKDSP/libs/libDaisy/src/daisy_core.h **** {
 102:../libs/PoliTeKDSP/libs/libDaisy/src/daisy_core.h ****     return (float)x * S82F_SCALE;
 103:../libs/PoliTeKDSP/libs/libDaisy/src/daisy_core.h **** }
 104:../libs/PoliTeKDSP/libs/libDaisy/src/daisy_core.h **** 
 105:../libs/PoliTeKDSP/libs/libDaisy/src/daisy_core.h **** /**
 106:../libs/PoliTeKDSP/libs/libDaisy/src/daisy_core.h ****     Converts float to Signed 8-bit
 107:../libs/PoliTeKDSP/libs/libDaisy/src/daisy_core.h **** */
 108:../libs/PoliTeKDSP/libs/libDaisy/src/daisy_core.h **** FORCE_INLINE int8_t f2s8(float x)
 109:../libs/PoliTeKDSP/libs/libDaisy/src/daisy_core.h **** {
 110:../libs/PoliTeKDSP/libs/libDaisy/src/daisy_core.h ****     x = x <= FBIPMIN ? FBIPMIN : x;
 111:../libs/PoliTeKDSP/libs/libDaisy/src/daisy_core.h ****     x = x >= FBIPMAX ? FBIPMAX : x;
 112:../libs/PoliTeKDSP/libs/libDaisy/src/daisy_core.h ****     return (int32_t)(x * F2S8_SCALE);
 113:../libs/PoliTeKDSP/libs/libDaisy/src/daisy_core.h **** }
 114:../libs/PoliTeKDSP/libs/libDaisy/src/daisy_core.h **** 
 115:../libs/PoliTeKDSP/libs/libDaisy/src/daisy_core.h **** /** 
 116:../libs/PoliTeKDSP/libs/libDaisy/src/daisy_core.h ****     Converts Signed 16-bit to float
 117:../libs/PoliTeKDSP/libs/libDaisy/src/daisy_core.h ****     \param x Number to be scaled.
 118:../libs/PoliTeKDSP/libs/libDaisy/src/daisy_core.h ****     \return Scaled number.
 119:../libs/PoliTeKDSP/libs/libDaisy/src/daisy_core.h **** */
 120:../libs/PoliTeKDSP/libs/libDaisy/src/daisy_core.h **** FORCE_INLINE float s162f(int16_t x)
 121:../libs/PoliTeKDSP/libs/libDaisy/src/daisy_core.h **** {
 122:../libs/PoliTeKDSP/libs/libDaisy/src/daisy_core.h ****     return (float)x * S162F_SCALE;
 123:../libs/PoliTeKDSP/libs/libDaisy/src/daisy_core.h **** }
 124:../libs/PoliTeKDSP/libs/libDaisy/src/daisy_core.h **** 
 125:../libs/PoliTeKDSP/libs/libDaisy/src/daisy_core.h **** /**
 126:../libs/PoliTeKDSP/libs/libDaisy/src/daisy_core.h ****     Converts float to Signed 16-bit
 127:../libs/PoliTeKDSP/libs/libDaisy/src/daisy_core.h **** */
 128:../libs/PoliTeKDSP/libs/libDaisy/src/daisy_core.h **** FORCE_INLINE int16_t f2s16(float x)
 129:../libs/PoliTeKDSP/libs/libDaisy/src/daisy_core.h **** {
 130:../libs/PoliTeKDSP/libs/libDaisy/src/daisy_core.h ****     x = x <= FBIPMIN ? FBIPMIN : x;
 131:../libs/PoliTeKDSP/libs/libDaisy/src/daisy_core.h ****     x = x >= FBIPMAX ? FBIPMAX : x;
 132:../libs/PoliTeKDSP/libs/libDaisy/src/daisy_core.h ****     return (int32_t)(x * F2S16_SCALE);
 133:../libs/PoliTeKDSP/libs/libDaisy/src/daisy_core.h **** }
 134:../libs/PoliTeKDSP/libs/libDaisy/src/daisy_core.h **** 
 135:../libs/PoliTeKDSP/libs/libDaisy/src/daisy_core.h **** /**
 136:../libs/PoliTeKDSP/libs/libDaisy/src/daisy_core.h ****     Converts Signed 24-bit to float
 137:../libs/PoliTeKDSP/libs/libDaisy/src/daisy_core.h ****  */
 138:../libs/PoliTeKDSP/libs/libDaisy/src/daisy_core.h **** FORCE_INLINE float s242f(int32_t x)
 139:../libs/PoliTeKDSP/libs/libDaisy/src/daisy_core.h **** {
 140:../libs/PoliTeKDSP/libs/libDaisy/src/daisy_core.h ****     x = (x ^ S24SIGN) - S24SIGN; //sign extend aka ((x<<8)>>8)
 141:../libs/PoliTeKDSP/libs/libDaisy/src/daisy_core.h ****     return (float)x * S242F_SCALE;
 142:../libs/PoliTeKDSP/libs/libDaisy/src/daisy_core.h **** }
 143:../libs/PoliTeKDSP/libs/libDaisy/src/daisy_core.h **** /**
 144:../libs/PoliTeKDSP/libs/libDaisy/src/daisy_core.h ****     Converts float to Signed 24-bit
 145:../libs/PoliTeKDSP/libs/libDaisy/src/daisy_core.h ****  */
 146:../libs/PoliTeKDSP/libs/libDaisy/src/daisy_core.h **** FORCE_INLINE int32_t f2s24(float x)
 147:../libs/PoliTeKDSP/libs/libDaisy/src/daisy_core.h **** {
 148:../libs/PoliTeKDSP/libs/libDaisy/src/daisy_core.h ****     x = x <= FBIPMIN ? FBIPMIN : x;
 149:../libs/PoliTeKDSP/libs/libDaisy/src/daisy_core.h ****     x = x >= FBIPMAX ? FBIPMAX : x;
 150:../libs/PoliTeKDSP/libs/libDaisy/src/daisy_core.h ****     return (int32_t)(x * F2S24_SCALE);
 151:../libs/PoliTeKDSP/libs/libDaisy/src/daisy_core.h **** }
 152:../libs/PoliTeKDSP/libs/libDaisy/src/daisy_core.h **** 
 153:../libs/PoliTeKDSP/libs/libDaisy/src/daisy_core.h **** /**
 154:../libs/PoliTeKDSP/libs/libDaisy/src/daisy_core.h ****     Converts Signed 32-bit to float
 155:../libs/PoliTeKDSP/libs/libDaisy/src/daisy_core.h ****  */
 156:../libs/PoliTeKDSP/libs/libDaisy/src/daisy_core.h **** FORCE_INLINE float s322f(int32_t x)
 157:../libs/PoliTeKDSP/libs/libDaisy/src/daisy_core.h **** {
ARM GAS  C:\Users\skipi\AppData\Local\Temp\ccUZkxb5.s 			page 7


 158:../libs/PoliTeKDSP/libs/libDaisy/src/daisy_core.h ****     return (float)x * S322F_SCALE;
 159:../libs/PoliTeKDSP/libs/libDaisy/src/daisy_core.h **** }
 160:../libs/PoliTeKDSP/libs/libDaisy/src/daisy_core.h **** /**
 161:../libs/PoliTeKDSP/libs/libDaisy/src/daisy_core.h ****     Converts float to Signed 24-bit
 162:../libs/PoliTeKDSP/libs/libDaisy/src/daisy_core.h ****  */
 163:../libs/PoliTeKDSP/libs/libDaisy/src/daisy_core.h **** FORCE_INLINE int32_t f2s32(float x)
 164:../libs/PoliTeKDSP/libs/libDaisy/src/daisy_core.h **** {
 165:../libs/PoliTeKDSP/libs/libDaisy/src/daisy_core.h ****     x = x <= FBIPMIN ? FBIPMIN : x;
 166:../libs/PoliTeKDSP/libs/libDaisy/src/daisy_core.h ****     x = x >= FBIPMAX ? FBIPMAX : x;
 167:../libs/PoliTeKDSP/libs/libDaisy/src/daisy_core.h ****     return (int32_t)(x * F2S32_SCALE);
 168:../libs/PoliTeKDSP/libs/libDaisy/src/daisy_core.h **** }
 169:../libs/PoliTeKDSP/libs/libDaisy/src/daisy_core.h **** 
 170:../libs/PoliTeKDSP/libs/libDaisy/src/daisy_core.h **** #ifdef __cplusplus
 171:../libs/PoliTeKDSP/libs/libDaisy/src/daisy_core.h **** 
 172:../libs/PoliTeKDSP/libs/libDaisy/src/daisy_core.h **** namespace daisy
 173:../libs/PoliTeKDSP/libs/libDaisy/src/daisy_core.h **** {
 174:../libs/PoliTeKDSP/libs/libDaisy/src/daisy_core.h **** /** @brief GPIO Port names */
 175:../libs/PoliTeKDSP/libs/libDaisy/src/daisy_core.h **** enum GPIOPort
 176:../libs/PoliTeKDSP/libs/libDaisy/src/daisy_core.h **** {
 177:../libs/PoliTeKDSP/libs/libDaisy/src/daisy_core.h ****     PORTA, /**< Port A */
 178:../libs/PoliTeKDSP/libs/libDaisy/src/daisy_core.h ****     PORTB, /**< Port B */
 179:../libs/PoliTeKDSP/libs/libDaisy/src/daisy_core.h ****     PORTC, /**< Port C */
 180:../libs/PoliTeKDSP/libs/libDaisy/src/daisy_core.h ****     PORTD, /**< Port D */
 181:../libs/PoliTeKDSP/libs/libDaisy/src/daisy_core.h ****     PORTE, /**< Port E */
 182:../libs/PoliTeKDSP/libs/libDaisy/src/daisy_core.h ****     PORTF, /**< Port F */
 183:../libs/PoliTeKDSP/libs/libDaisy/src/daisy_core.h ****     PORTG, /**< Port G */
 184:../libs/PoliTeKDSP/libs/libDaisy/src/daisy_core.h ****     PORTH, /**< Port H */
 185:../libs/PoliTeKDSP/libs/libDaisy/src/daisy_core.h ****     PORTI, /**< Port I */
 186:../libs/PoliTeKDSP/libs/libDaisy/src/daisy_core.h ****     PORTJ, /**< Port J */
 187:../libs/PoliTeKDSP/libs/libDaisy/src/daisy_core.h ****     PORTK, /**< Port K */
 188:../libs/PoliTeKDSP/libs/libDaisy/src/daisy_core.h ****     PORTX, /**< Used as a dummy port to signal an invalid pin. */
 189:../libs/PoliTeKDSP/libs/libDaisy/src/daisy_core.h **** };
 190:../libs/PoliTeKDSP/libs/libDaisy/src/daisy_core.h **** 
 191:../libs/PoliTeKDSP/libs/libDaisy/src/daisy_core.h **** /** @brief representation of hardware port/pin combination */
 192:../libs/PoliTeKDSP/libs/libDaisy/src/daisy_core.h **** struct Pin
 193:../libs/PoliTeKDSP/libs/libDaisy/src/daisy_core.h **** {
 194:../libs/PoliTeKDSP/libs/libDaisy/src/daisy_core.h ****     GPIOPort port;
 195:../libs/PoliTeKDSP/libs/libDaisy/src/daisy_core.h ****     uint8_t  pin;
 196:../libs/PoliTeKDSP/libs/libDaisy/src/daisy_core.h **** 
 197:../libs/PoliTeKDSP/libs/libDaisy/src/daisy_core.h ****     /** @brief Constructor creates a valid pin. 
 198:../libs/PoliTeKDSP/libs/libDaisy/src/daisy_core.h ****      *  @param pt GPIOPort between PA, and PK corresponding to STM32 Port.
 199:../libs/PoliTeKDSP/libs/libDaisy/src/daisy_core.h ****      *  @param pn pin number in range of 0-15
 200:../libs/PoliTeKDSP/libs/libDaisy/src/daisy_core.h ****     */
 201:../libs/PoliTeKDSP/libs/libDaisy/src/daisy_core.h ****     constexpr Pin(const GPIOPort pt, const uint8_t pn) : port(pt), pin(pn) {}
 202:../libs/PoliTeKDSP/libs/libDaisy/src/daisy_core.h **** 
 203:../libs/PoliTeKDSP/libs/libDaisy/src/daisy_core.h ****     /** @brief Basic Constructor creates an invalid Pin object */
 204:../libs/PoliTeKDSP/libs/libDaisy/src/daisy_core.h ****     constexpr Pin() : port(PORTX), pin(255) {}
  78              		.loc 3 204 15 view .LVU8
  79              		.loc 3 204 15 is_stmt 0 view .LVU9
  80              	.LBE201:
  81              	.LBB202:
  82              	.LBI202:
  83              		.loc 3 204 15 is_stmt 1 view .LVU10
  84              		.loc 3 204 15 is_stmt 0 view .LVU11
  85              	.LBE202:
  36:../libs/PoliTeKDSP/libs/libDaisy/src/dev/mpr121.h ****             speed  = I2CHandle::Config::Speed::I2C_400KHZ;
  86              		.loc 2 36 13 is_stmt 1 view .LVU12
ARM GAS  C:\Users\skipi\AppData\Local\Temp\ccUZkxb5.s 			page 8


  37:../libs/PoliTeKDSP/libs/libDaisy/src/dev/mpr121.h **** 
  87              		.loc 2 37 13 view .LVU13
  39:../libs/PoliTeKDSP/libs/libDaisy/src/dev/mpr121.h ****             sda = Pin(PORTB, 9);
  88              		.loc 2 39 13 view .LVU14
  89              	.LBB203:
  90              	.LBI203:
 201:../libs/PoliTeKDSP/libs/libDaisy/src/daisy_core.h **** 
  91              		.loc 3 201 15 view .LVU15
 201:../libs/PoliTeKDSP/libs/libDaisy/src/daisy_core.h **** 
  92              		.loc 3 201 15 is_stmt 0 view .LVU16
  93              	.LBE203:
  40:../libs/PoliTeKDSP/libs/libDaisy/src/dev/mpr121.h **** 
  94              		.loc 2 40 13 is_stmt 1 view .LVU17
  95              	.LBB204:
  96              	.LBI204:
 201:../libs/PoliTeKDSP/libs/libDaisy/src/daisy_core.h **** 
  97              		.loc 3 201 15 view .LVU18
 201:../libs/PoliTeKDSP/libs/libDaisy/src/daisy_core.h **** 
  98              		.loc 3 201 15 is_stmt 0 view .LVU19
  99              	.LBE204:
  39:../libs/PoliTeKDSP/libs/libDaisy/src/dev/mpr121.h ****             sda = Pin(PORTB, 9);
 100              		.loc 2 39 17 view .LVU20
 101 000c 564A     		ldr	r2, .L4
 102              	.LBE205:
 103              	.LBE209:
 104              	.LBE213:
 105              	.LBE218:
 106              	.LBE269:
 107              		.loc 1 6 1 view .LVU21
 108 000e 87B0     		sub	sp, sp, #28
 109              		.cfi_def_cfa_offset 64
 110              	.LBB270:
 111              	.LBB219:
 112              	.LBB214:
 113              	.LBB210:
 114              	.LBB206:
  42:../libs/PoliTeKDSP/libs/libDaisy/src/dev/mpr121.h ****         }
 115              		.loc 2 42 22 view .LVU22
 116 0010 0375     		strb	r3, [r0, #20]
 117              	.LBE206:
 118              	.LBE210:
 119              	.LBE214:
 120              	.LBE219:
 121              		.loc 1 6 36 view .LVU23
 122 0012 05F57A78 		add	r8, r5, #1000
 123              	.LBB220:
 124              	.LBB221:
 125              	.LBB222:
 126              	.LBB223:
  37:../libs/PoliTeKDSP/libs/libDaisy/src/dev/mpr121.h **** 
 127              		.loc 2 37 20 view .LVU24
 128 0016 C163     		str	r1, [r0, #60]
 129              	.LBE223:
 130              	.LBE222:
 131              	.LBE221:
 132              	.LBE220:
 133              		.loc 1 6 36 view .LVU25
ARM GAS  C:\Users\skipi\AppData\Local\Temp\ccUZkxb5.s 			page 9


 134 0018 05F23C4A 		addw	r10, r5, #1084
 135              	.LBB261:
 136              	.LBB237:
 137              	.LBB238:
 138              	.LBB239:
 139              	.LBB240:
  42:../libs/PoliTeKDSP/libs/libDaisy/src/dev/mpr121.h ****         }
 140              		.loc 2 42 22 view .LVU26
 141 001c 80F82C30 		strb	r3, [r0, #44]
 142              	.LBE240:
 143              	.LBE239:
 144              	.LBE238:
 145              	.LBE237:
 146              	.LBB254:
 147              	.LBB232:
 148              	.LBB228:
 149 0020 80F84830 		strb	r3, [r0, #72]
 150              	.LBE228:
 151              	.LBE232:
 152              	.LBE254:
 153              	.LBE261:
 154              	.LBB262:
 155              	.LBB215:
 102:../libs/PoliTeKDSP/libs/libDaisy/src/dev/mpr121.h ****         {
 103:../libs/PoliTeKDSP/libs/libDaisy/src/dev/mpr121.h ****             touch_threshold   = MPR121_TOUCH_THRESHOLD_DEFAULT;
 156              		.loc 2 103 31 view .LVU27
 157 0024 40F20323 		movw	r3, #515
 158              	.LBB211:
 159              	.LBB207:
  39:../libs/PoliTeKDSP/libs/libDaisy/src/dev/mpr121.h ****             sda = Pin(PORTB, 9);
 160              		.loc 2 39 17 view .LVU28
 161 0028 C260     		str	r2, [r0, #12]
  42:../libs/PoliTeKDSP/libs/libDaisy/src/dev/mpr121.h ****         }
 162              		.loc 2 42 13 is_stmt 1 view .LVU29
 163              	.LVL2:
  42:../libs/PoliTeKDSP/libs/libDaisy/src/dev/mpr121.h ****         }
 164              		.loc 2 42 13 is_stmt 0 view .LVU30
 165              	.LBE207:
 166              	.LBE211:
 167              	.LBE215:
 168              	.LBE262:
 169              	.LBB263:
 170              	.LBB255:
 171              	.LBB251:
 172              	.LBB248:
 173              	.LBB245:
  39:../libs/PoliTeKDSP/libs/libDaisy/src/dev/mpr121.h ****             sda = Pin(PORTB, 9);
 174              		.loc 2 39 17 view .LVU31
 175 002a 4262     		str	r2, [r0, #36]
 176              	.LBE245:
 177              	.LBE248:
 178              	.LBE251:
 179              	.LBE255:
 180              	.LBB256:
 181              	.LBB233:
 182              	.LBB229:
 183 002c 0264     		str	r2, [r0, #64]
ARM GAS  C:\Users\skipi\AppData\Local\Temp\ccUZkxb5.s 			page 10


 184              	.LBE229:
 185              	.LBE233:
 186              	.LBE256:
 187              	.LBE263:
 188              	.LBB264:
 189              	.LBB216:
 190              	.LBB212:
 191              	.LBB208:
  37:../libs/PoliTeKDSP/libs/libDaisy/src/dev/mpr121.h **** 
 192              		.loc 2 37 20 view .LVU32
 193 002e C0E90141 		strd	r4, r1, [r0, #4]
 194              	.LBE208:
 195              	.LBE212:
 196              	.LBE216:
 197              	.LBE264:
 198              	.LBB265:
 199              	.LBB257:
 200              	.LBB252:
 201              	.LBB249:
 202              	.LBB246:
 203 0032 C0E90741 		strd	r4, r1, [r0, #28]
 204              	.LBE246:
 205              	.LBE249:
 206              	.LBE252:
 207              	.LBE257:
 208              	.LBE265:
 209              		.loc 1 6 36 view .LVU33
 210 0036 0321     		movs	r1, #3
 211              	.LBB266:
 212              	.LBB258:
 213              	.LBB234:
 214              	.LBB230:
  36:../libs/PoliTeKDSP/libs/libDaisy/src/dev/mpr121.h ****             speed  = I2CHandle::Config::Speed::I2C_400KHZ;
 215              		.loc 2 36 20 view .LVU34
 216 0038 C0E90D44 		strd	r4, r4, [r0, #52]
 217              	.LBE230:
 218              	.LBE234:
 219              	.LBE258:
 220              	.LBE266:
 221              		.loc 1 6 36 view .LVU35
 222 003c 85F85010 		strb	r1, [r5, #80]
 223 0040 5430     		adds	r0, r0, #84
 224              	.LVL3:
 225              	.LBB267:
 226              	.LBB217:
 227              		.loc 2 103 31 view .LVU36
 228 0042 2B83     		strh	r3, [r5, #24]	@ movhi
 229              	.LVL4:
 230              		.loc 2 103 31 view .LVU37
 231              	.LBE217:
 232              	.LBE267:
 233              	.LBB268:
 234              	.LBI220:
  92:../libs/PoliTeKDSP/libs/libDaisy/src/dev/mpr121.h ****     ~Mpr121() {}
 235              		.loc 2 92 5 is_stmt 1 view .LVU38
 236              	.LBB259:
 237              	.LBI237:
ARM GAS  C:\Users\skipi\AppData\Local\Temp\ccUZkxb5.s 			page 11


 101:../libs/PoliTeKDSP/libs/libDaisy/src/dev/mpr121.h ****         {
 238              		.loc 2 101 9 view .LVU39
 239              	.LBB253:
 240              	.LBB250:
 241              	.LBI239:
  34:../libs/PoliTeKDSP/libs/libDaisy/src/dev/mpr121.h ****         {
 242              		.loc 2 34 9 view .LVU40
 243              	.LBB247:
 244              	.LBB241:
 245              	.LBI241:
 246              		.loc 3 204 15 view .LVU41
 247              		.loc 3 204 15 is_stmt 0 view .LVU42
 248              	.LBE241:
 249              	.LBB242:
 250              	.LBI242:
 251              		.loc 3 204 15 is_stmt 1 view .LVU43
 252              		.loc 3 204 15 is_stmt 0 view .LVU44
 253              	.LBE242:
  36:../libs/PoliTeKDSP/libs/libDaisy/src/dev/mpr121.h ****             speed  = I2CHandle::Config::Speed::I2C_400KHZ;
 254              		.loc 2 36 13 is_stmt 1 view .LVU45
  37:../libs/PoliTeKDSP/libs/libDaisy/src/dev/mpr121.h **** 
 255              		.loc 2 37 13 view .LVU46
  39:../libs/PoliTeKDSP/libs/libDaisy/src/dev/mpr121.h ****             sda = Pin(PORTB, 9);
 256              		.loc 2 39 13 view .LVU47
 257              	.LBB243:
 258              	.LBI243:
 201:../libs/PoliTeKDSP/libs/libDaisy/src/daisy_core.h **** 
 259              		.loc 3 201 15 view .LVU48
 201:../libs/PoliTeKDSP/libs/libDaisy/src/daisy_core.h **** 
 260              		.loc 3 201 15 is_stmt 0 view .LVU49
 261              	.LBE243:
  40:../libs/PoliTeKDSP/libs/libDaisy/src/dev/mpr121.h **** 
 262              		.loc 2 40 13 is_stmt 1 view .LVU50
 263              	.LBB244:
 264              	.LBI244:
 201:../libs/PoliTeKDSP/libs/libDaisy/src/daisy_core.h **** 
 265              		.loc 3 201 15 view .LVU51
 201:../libs/PoliTeKDSP/libs/libDaisy/src/daisy_core.h **** 
 266              		.loc 3 201 15 is_stmt 0 view .LVU52
 267              	.LBE244:
  42:../libs/PoliTeKDSP/libs/libDaisy/src/dev/mpr121.h ****         }
 268              		.loc 2 42 13 is_stmt 1 view .LVU53
  42:../libs/PoliTeKDSP/libs/libDaisy/src/dev/mpr121.h ****         }
 269              		.loc 2 42 13 is_stmt 0 view .LVU54
 270              	.LBE247:
 271              	.LBE250:
 272              		.loc 2 103 31 view .LVU55
 273 0044 2B86     		strh	r3, [r5, #48]	@ movhi
 274              	.LVL5:
 275              		.loc 2 103 31 view .LVU56
 276              	.LBE253:
 277              	.LBE259:
 278              	.LBB260:
 279              	.LBI221:
  20:../libs/PoliTeKDSP/libs/libDaisy/src/dev/mpr121.h ****     ~Mpr121I2CTransport() {}
 280              		.loc 2 20 5 is_stmt 1 view .LVU57
 281              	.LBB235:
ARM GAS  C:\Users\skipi\AppData\Local\Temp\ccUZkxb5.s 			page 12


 282              	.LBI235:
 283              		.file 4 "../libs/PoliTeKDSP/libs/libDaisy/src/per/i2c.h"
   1:../libs/PoliTeKDSP/libs/libDaisy/src/per/i2c.h **** #pragma once
   2:../libs/PoliTeKDSP/libs/libDaisy/src/per/i2c.h **** #include "util/hal_map.h"
   3:../libs/PoliTeKDSP/libs/libDaisy/src/per/i2c.h **** #include "daisy_core.h"
   4:../libs/PoliTeKDSP/libs/libDaisy/src/per/i2c.h **** 
   5:../libs/PoliTeKDSP/libs/libDaisy/src/per/i2c.h **** namespace daisy
   6:../libs/PoliTeKDSP/libs/libDaisy/src/per/i2c.h **** {
   7:../libs/PoliTeKDSP/libs/libDaisy/src/per/i2c.h **** /** A handle for interacting with an I2C peripheral. This is a dumb
   8:../libs/PoliTeKDSP/libs/libDaisy/src/per/i2c.h ****  *  gateway that internally points to one of the four I2C peripherals
   9:../libs/PoliTeKDSP/libs/libDaisy/src/per/i2c.h ****  *  after it was initialised. It can then be copied and passed around.
  10:../libs/PoliTeKDSP/libs/libDaisy/src/per/i2c.h ****  *  Use an I2CHandle like this:
  11:../libs/PoliTeKDSP/libs/libDaisy/src/per/i2c.h ****  *  
  12:../libs/PoliTeKDSP/libs/libDaisy/src/per/i2c.h ****  *      // setup the configuration
  13:../libs/PoliTeKDSP/libs/libDaisy/src/per/i2c.h ****  *      I2CHandle::Config i2c_conf;
  14:../libs/PoliTeKDSP/libs/libDaisy/src/per/i2c.h ****  *      i2c_conf.periph = I2CHandle::Config::Peripheral::I2C_1;
  15:../libs/PoliTeKDSP/libs/libDaisy/src/per/i2c.h ****  *      i2c_conf.speed  = I2CHandle::Config::Speed::I2C_400KHZ;
  16:../libs/PoliTeKDSP/libs/libDaisy/src/per/i2c.h ****  *      i2c_conf.mode   = I2CHandle::Config::Mode::Master;
  17:../libs/PoliTeKDSP/libs/libDaisy/src/per/i2c.h ****  *      i2c_conf.pin_config.scl  = {DSY_GPIOB, 8};
  18:../libs/PoliTeKDSP/libs/libDaisy/src/per/i2c.h ****  *      i2c_conf.pin_config.sda  = {DSY_GPIOB, 9};
  19:../libs/PoliTeKDSP/libs/libDaisy/src/per/i2c.h ****  *      // initialise the peripheral
  20:../libs/PoliTeKDSP/libs/libDaisy/src/per/i2c.h ****  *      I2CHandle i2c;
  21:../libs/PoliTeKDSP/libs/libDaisy/src/per/i2c.h ****  *      i2c.Init(i2c_conf);
  22:../libs/PoliTeKDSP/libs/libDaisy/src/per/i2c.h ****  *      // now i2c points to the corresponding peripheral and can be used.
  23:../libs/PoliTeKDSP/libs/libDaisy/src/per/i2c.h ****  *      i2c.TransmitBlocking( ... );
  24:../libs/PoliTeKDSP/libs/libDaisy/src/per/i2c.h ****  */
  25:../libs/PoliTeKDSP/libs/libDaisy/src/per/i2c.h **** class I2CHandle
  26:../libs/PoliTeKDSP/libs/libDaisy/src/per/i2c.h **** {
  27:../libs/PoliTeKDSP/libs/libDaisy/src/per/i2c.h ****   public:
  28:../libs/PoliTeKDSP/libs/libDaisy/src/per/i2c.h ****     /** Contains settings for initialising an I2C interface. */
  29:../libs/PoliTeKDSP/libs/libDaisy/src/per/i2c.h ****     struct Config
  30:../libs/PoliTeKDSP/libs/libDaisy/src/per/i2c.h ****     {
  31:../libs/PoliTeKDSP/libs/libDaisy/src/per/i2c.h ****         /** Specifies whether the interface will operate in master or slave mode. */
  32:../libs/PoliTeKDSP/libs/libDaisy/src/per/i2c.h ****         enum class Mode
  33:../libs/PoliTeKDSP/libs/libDaisy/src/per/i2c.h ****         {
  34:../libs/PoliTeKDSP/libs/libDaisy/src/per/i2c.h ****             I2C_MASTER,
  35:../libs/PoliTeKDSP/libs/libDaisy/src/per/i2c.h ****             I2C_SLAVE,
  36:../libs/PoliTeKDSP/libs/libDaisy/src/per/i2c.h ****         };
  37:../libs/PoliTeKDSP/libs/libDaisy/src/per/i2c.h **** 
  38:../libs/PoliTeKDSP/libs/libDaisy/src/per/i2c.h ****         /** Specifices the internal peripheral to use (these are mapped to different pins on the ha
  39:../libs/PoliTeKDSP/libs/libDaisy/src/per/i2c.h ****         enum class Peripheral
  40:../libs/PoliTeKDSP/libs/libDaisy/src/per/i2c.h ****         {
  41:../libs/PoliTeKDSP/libs/libDaisy/src/per/i2c.h ****             I2C_1 = 0, /**< & */
  42:../libs/PoliTeKDSP/libs/libDaisy/src/per/i2c.h ****             I2C_2,     /**< & */
  43:../libs/PoliTeKDSP/libs/libDaisy/src/per/i2c.h ****             I2C_3,     /**< & */
  44:../libs/PoliTeKDSP/libs/libDaisy/src/per/i2c.h ****             I2C_4,     /**< & */
  45:../libs/PoliTeKDSP/libs/libDaisy/src/per/i2c.h ****         };
  46:../libs/PoliTeKDSP/libs/libDaisy/src/per/i2c.h **** 
  47:../libs/PoliTeKDSP/libs/libDaisy/src/per/i2c.h ****         /** Rate at which the clock/data will be sent/received. The device being used will have max
  48:../libs/PoliTeKDSP/libs/libDaisy/src/per/i2c.h ****          *  1MHZ Mode is currently 886kHz
  49:../libs/PoliTeKDSP/libs/libDaisy/src/per/i2c.h ****          */
  50:../libs/PoliTeKDSP/libs/libDaisy/src/per/i2c.h ****         enum class Speed
  51:../libs/PoliTeKDSP/libs/libDaisy/src/per/i2c.h ****         {
  52:../libs/PoliTeKDSP/libs/libDaisy/src/per/i2c.h ****             I2C_100KHZ, /**< & */
  53:../libs/PoliTeKDSP/libs/libDaisy/src/per/i2c.h ****             I2C_400KHZ, /**< & */
  54:../libs/PoliTeKDSP/libs/libDaisy/src/per/i2c.h ****             I2C_1MHZ,   /**< & */
  55:../libs/PoliTeKDSP/libs/libDaisy/src/per/i2c.h ****         };
ARM GAS  C:\Users\skipi\AppData\Local\Temp\ccUZkxb5.s 			page 13


  56:../libs/PoliTeKDSP/libs/libDaisy/src/per/i2c.h **** 
  57:../libs/PoliTeKDSP/libs/libDaisy/src/per/i2c.h ****         Peripheral periph; /**< & */
  58:../libs/PoliTeKDSP/libs/libDaisy/src/per/i2c.h ****         struct
  59:../libs/PoliTeKDSP/libs/libDaisy/src/per/i2c.h ****         {
  60:../libs/PoliTeKDSP/libs/libDaisy/src/per/i2c.h ****             Pin scl;  /**< & */
  61:../libs/PoliTeKDSP/libs/libDaisy/src/per/i2c.h ****             Pin sda;  /**< & */
  62:../libs/PoliTeKDSP/libs/libDaisy/src/per/i2c.h ****         } pin_config; /**< & */
  63:../libs/PoliTeKDSP/libs/libDaisy/src/per/i2c.h **** 
  64:../libs/PoliTeKDSP/libs/libDaisy/src/per/i2c.h ****         Speed speed; /**< & */
  65:../libs/PoliTeKDSP/libs/libDaisy/src/per/i2c.h ****         Mode  mode;  /**< & */
  66:../libs/PoliTeKDSP/libs/libDaisy/src/per/i2c.h ****         // 0x10 is chosen as a default to avoid conflicts with reserved addresses
  67:../libs/PoliTeKDSP/libs/libDaisy/src/per/i2c.h ****         uint8_t address = 0x10; /**< & */
  68:../libs/PoliTeKDSP/libs/libDaisy/src/per/i2c.h ****     };
  69:../libs/PoliTeKDSP/libs/libDaisy/src/per/i2c.h **** 
  70:../libs/PoliTeKDSP/libs/libDaisy/src/per/i2c.h ****     /** Return values for I2C functions. */
  71:../libs/PoliTeKDSP/libs/libDaisy/src/per/i2c.h ****     enum class Result
  72:../libs/PoliTeKDSP/libs/libDaisy/src/per/i2c.h ****     {
  73:../libs/PoliTeKDSP/libs/libDaisy/src/per/i2c.h ****         OK, /**< & */
  74:../libs/PoliTeKDSP/libs/libDaisy/src/per/i2c.h ****         ERR /**< & */
  75:../libs/PoliTeKDSP/libs/libDaisy/src/per/i2c.h ****     };
  76:../libs/PoliTeKDSP/libs/libDaisy/src/per/i2c.h **** 
  77:../libs/PoliTeKDSP/libs/libDaisy/src/per/i2c.h ****     enum class Direction
  78:../libs/PoliTeKDSP/libs/libDaisy/src/per/i2c.h ****     {
  79:../libs/PoliTeKDSP/libs/libDaisy/src/per/i2c.h ****         TRANSMIT, /**< & */
  80:../libs/PoliTeKDSP/libs/libDaisy/src/per/i2c.h ****         RECEIVE,  /**< & */
  81:../libs/PoliTeKDSP/libs/libDaisy/src/per/i2c.h ****     };
  82:../libs/PoliTeKDSP/libs/libDaisy/src/per/i2c.h **** 
  83:../libs/PoliTeKDSP/libs/libDaisy/src/per/i2c.h ****     I2CHandle() : pimpl_(nullptr) {}
 284              		.loc 4 83 5 view .LVU58
 285              		.loc 4 83 5 is_stmt 0 view .LVU59
 286              	.LBE235:
 287              	.LBB236:
 288              	.LBI222:
  34:../libs/PoliTeKDSP/libs/libDaisy/src/dev/mpr121.h ****         {
 289              		.loc 2 34 9 is_stmt 1 view .LVU60
 290              	.LBB231:
 291              	.LBB224:
 292              	.LBI224:
 293              		.loc 3 204 15 view .LVU61
 294              		.loc 3 204 15 is_stmt 0 view .LVU62
 295              	.LBE224:
 296              	.LBB225:
 297              	.LBI225:
 298              		.loc 3 204 15 is_stmt 1 view .LVU63
 299              		.loc 3 204 15 is_stmt 0 view .LVU64
 300              	.LBE225:
  36:../libs/PoliTeKDSP/libs/libDaisy/src/dev/mpr121.h ****             speed  = I2CHandle::Config::Speed::I2C_400KHZ;
 301              		.loc 2 36 13 is_stmt 1 view .LVU65
  37:../libs/PoliTeKDSP/libs/libDaisy/src/dev/mpr121.h **** 
 302              		.loc 2 37 13 view .LVU66
  39:../libs/PoliTeKDSP/libs/libDaisy/src/dev/mpr121.h ****             sda = Pin(PORTB, 9);
 303              		.loc 2 39 13 view .LVU67
 304              	.LBB226:
 305              	.LBI226:
 201:../libs/PoliTeKDSP/libs/libDaisy/src/daisy_core.h **** 
 306              		.loc 3 201 15 view .LVU68
 201:../libs/PoliTeKDSP/libs/libDaisy/src/daisy_core.h **** 
ARM GAS  C:\Users\skipi\AppData\Local\Temp\ccUZkxb5.s 			page 14


 307              		.loc 3 201 15 is_stmt 0 view .LVU69
 308              	.LBE226:
  40:../libs/PoliTeKDSP/libs/libDaisy/src/dev/mpr121.h **** 
 309              		.loc 2 40 13 is_stmt 1 view .LVU70
 310              	.LBB227:
 311              	.LBI227:
 201:../libs/PoliTeKDSP/libs/libDaisy/src/daisy_core.h **** 
 312              		.loc 3 201 15 view .LVU71
 201:../libs/PoliTeKDSP/libs/libDaisy/src/daisy_core.h **** 
 313              		.loc 3 201 15 is_stmt 0 view .LVU72
 314              	.LBE227:
  42:../libs/PoliTeKDSP/libs/libDaisy/src/dev/mpr121.h ****         }
 315              		.loc 2 42 13 is_stmt 1 view .LVU73
  42:../libs/PoliTeKDSP/libs/libDaisy/src/dev/mpr121.h ****         }
 316              		.loc 2 42 13 is_stmt 0 view .LVU74
 317              	.LBE231:
 318              	.LBE236:
 319              	.LBE260:
 320              	.LBE268:
 321              		.loc 1 6 36 view .LVU75
 322 0046 FFF7FEFF 		bl	_ZN3IIRC1Ev
 323              	.LVL6:
 324 004a 05F58470 		add	r0, r5, #264
 325 004e FFF7FEFF 		bl	_ZN3IIRC1Ev
 326              	.LVL7:
 327 0052 05F5DE70 		add	r0, r5, #444
 328 0056 FFF7FEFF 		bl	_ZN3IIRC1Ev
 329              	.LVL8:
 330 005a 05F51C70 		add	r0, r5, #624
 331 005e FFF7FEFF 		bl	_ZN3IIRC1Ev
 332              	.LVL9:
 333 0062 05F54970 		add	r0, r5, #804
 334 0066 FFF7FEFF 		bl	_ZN2MFC1Ev
 335              	.LVL10:
 336 006a 4FF08040 		mov	r0, #1073741824
 337 006e 4FF07E52 		mov	r2, #1065353216
 338 0072 0023     		movs	r3, #0
 339 0074 C5F84803 		str	r0, [r5, #840]	@ float
 340 0078 4FF0FF30 		mov	r0, #-1
 341 007c C5F84C23 		str	r2, [r5, #844]	@ float
 342 0080 05F58A6C 		add	ip, r5, #1104
 343 0084 394A     		ldr	r2, .L4+4
 344 0086 3A49     		ldr	r1, .L4+8
 345 0088 C5F84003 		str	r0, [r5, #832]
 346 008c 40F20470 		movw	r0, #1796
 347 0090 85F83D43 		strb	r4, [r5, #829]
 348 0094 0C46     		mov	r4, r1
 349 0096 C5F84433 		str	r3, [r5, #836]	@ float
 350 009a 05F57371 		add	r1, r5, #972
 351 009e C5F85433 		str	r3, [r5, #852]	@ float
 352 00a2 04F11C09 		add	r9, r4, #28
 353 00a6 C5F86033 		str	r3, [r5, #864]	@ float
 354 00aa 0E46     		mov	r6, r1
 355 00ac C5F85823 		str	r2, [r5, #856]	@ float
 356 00b0 04F13807 		add	r7, r4, #56
 357 00b4 C5F85C23 		str	r2, [r5, #860]	@ float
 358 00b8 05F58462 		add	r2, r5, #1056
ARM GAS  C:\Users\skipi\AppData\Local\Temp\ccUZkxb5.s 			page 15


 359 00bc C5F86433 		str	r3, [r5, #868]	@ float
 360 00c0 05F20443 		addw	r3, r5, #1028
 361 00c4 A5F85003 		strh	r0, [r5, #848]	@ movhi
 362 00c8 04F1B400 		add	r0, r4, #180
 363 00cc 0193     		str	r3, [sp, #4]
 364 00ce 04F15403 		add	r3, r4, #84
 365 00d2 0292     		str	r2, [sp, #8]
 366 00d4 05F59062 		add	r2, r5, #1152
 367 00d8 0393     		str	r3, [sp, #12]
 368 00da 04F1700B 		add	fp, r4, #112
 369 00de 0590     		str	r0, [sp, #20]
 370 00e0 04F1840E 		add	lr, r4, #132
 371 00e4 0492     		str	r2, [sp, #16]
 372 00e6 0FCC     		ldmia	r4!, {r0, r1, r2, r3}
 373 00e8 0FC6     		stmia	r6!, {r0, r1, r2, r3}
 374 00ea 94E80700 		ldm	r4, {r0, r1, r2}
 375 00ee 86E80700 		stm	r6, {r0, r1, r2}
 376 00f2 B9E80F00 		ldmia	r9!, {r0, r1, r2, r3}
 377 00f6 A8E80F00 		stmia	r8!, {r0, r1, r2, r3}
 378 00fa 99E80700 		ldm	r9, {r0, r1, r2}
 379 00fe 019C     		ldr	r4, [sp, #4]
 380 0100 88E80700 		stm	r8, {r0, r1, r2}
 381 0104 0FCF     		ldmia	r7!, {r0, r1, r2, r3}
 382 0106 0FC4     		stmia	r4!, {r0, r1, r2, r3}
 383 0108 039B     		ldr	r3, [sp, #12]
 384 010a 97E80700 		ldm	r7, {r0, r1, r2}
 385 010e 1E46     		mov	r6, r3
 386 0110 84E80700 		stm	r4, {r0, r1, r2}
 387 0114 0FCE     		ldmia	r6!, {r0, r1, r2, r3}
 388 0116 029C     		ldr	r4, [sp, #8]
 389 0118 2746     		mov	r7, r4
 390 011a 0FC7     		stmia	r7!, {r0, r1, r2, r3}
 391 011c 96E80700 		ldm	r6, {r0, r1, r2}
 392 0120 87E80700 		stm	r7, {r0, r1, r2}
 393 0124 BBE80F00 		ldmia	fp!, {r0, r1, r2, r3}
 394 0128 AAE80F00 		stmia	r10!, {r0, r1, r2, r3}
 395 012c DBF80030 		ldr	r3, [fp]
 396 0130 CAF80030 		str	r3, [r10]
 397 0134 BEE80F00 		ldmia	lr!, {r0, r1, r2, r3}
 398 0138 ACE80F00 		stmia	ip!, {r0, r1, r2, r3}
 399 013c BEE80F00 		ldmia	lr!, {r0, r1, r2, r3}
 400 0140 ACE80F00 		stmia	ip!, {r0, r1, r2, r3}
 401 0144 9EE80F00 		ldm	lr, {r0, r1, r2, r3}
 402 0148 8CE80F00 		stm	ip, {r0, r1, r2, r3}
 403 014c 0598     		ldr	r0, [sp, #20]
 404 014e 049C     		ldr	r4, [sp, #16]
 405 0150 0646     		mov	r6, r0
 406 0152 0FCE     		ldmia	r6!, {r0, r1, r2, r3}
 407 0154 0FC4     		stmia	r4!, {r0, r1, r2, r3}
 408 0156 96E80300 		ldm	r6, {r0, r1}
 409 015a 84E80300 		stm	r4, {r0, r1}
 410              	.LBE270:
 411              		.loc 1 6 39 view .LVU76
 412 015e 2846     		mov	r0, r5
 413 0160 07B0     		add	sp, sp, #28
 414              		.cfi_def_cfa_offset 36
 415              		@ sp needed
ARM GAS  C:\Users\skipi\AppData\Local\Temp\ccUZkxb5.s 			page 16


 416 0162 BDE8F08F 		pop	{r4, r5, r6, r7, r8, r9, r10, fp, pc}
 417              	.LVL11:
 418              	.L5:
 419              		.loc 1 6 39 view .LVU77
 420 0166 00BF     		.align	2
 421              	.L4:
 422 0168 01080109 		.word	151062529
 423 016c 00004842 		.word	1112014848
 424 0170 00000000 		.word	.LANCHOR0
 425              		.cfi_endproc
 426              	.LFE5072:
 428              		.global	_ZN16PlantConditionerC1Ev
 429              		.thumb_set _ZN16PlantConditionerC1Ev,_ZN16PlantConditionerC2Ev
 430              		.section	.text._ZN16PlantConditionerD2Ev,"ax",%progbits
 431              		.align	1
 432              		.p2align 2,,3
 433              		.global	_ZN16PlantConditionerD2Ev
 434              		.syntax unified
 435              		.thumb
 436              		.thumb_func
 437              		.fpu fpv5-d16
 439              	_ZN16PlantConditionerD2Ev:
 440              	.LVL12:
 441              	.LFB5075:
   7:PSP/PlantConditioner.cpp **** PlantConditioner::~PlantConditioner() {}
 442              		.loc 1 7 1 is_stmt 1 view -0
 443              		.cfi_startproc
 444              		@ args = 0, pretend = 0, frame = 0
 445              		@ frame_needed = 0, uses_anonymous_args = 0
 446              		.loc 1 7 1 is_stmt 0 view .LVU79
 447 0000 10B5     		push	{r4, lr}
 448              		.cfi_def_cfa_offset 8
 449              		.cfi_offset 4, -8
 450              		.cfi_offset 14, -4
 451              		.loc 1 7 1 view .LVU80
 452 0002 0446     		mov	r4, r0
 453              	.LBB271:
 454              		.loc 1 7 37 view .LVU81
 455 0004 00F54970 		add	r0, r0, #804
 456              	.LVL13:
 457              		.loc 1 7 37 view .LVU82
 458 0008 FFF7FEFF 		bl	_ZN2MFD1Ev
 459              	.LVL14:
 460 000c 04F51C70 		add	r0, r4, #624
 461 0010 FFF7FEFF 		bl	_ZN3IIRD1Ev
 462              	.LVL15:
 463 0014 04F5DE70 		add	r0, r4, #444
 464 0018 FFF7FEFF 		bl	_ZN3IIRD1Ev
 465              	.LVL16:
 466 001c 04F58470 		add	r0, r4, #264
 467 0020 FFF7FEFF 		bl	_ZN3IIRD1Ev
 468              	.LVL17:
 469 0024 04F15400 		add	r0, r4, #84
 470 0028 FFF7FEFF 		bl	_ZN3IIRD1Ev
 471              	.LVL18:
 472              	.LBB272:
 473              	.LBI272:
ARM GAS  C:\Users\skipi\AppData\Local\Temp\ccUZkxb5.s 			page 17


  93:../libs/PoliTeKDSP/libs/libDaisy/src/dev/mpr121.h **** 
 474              		.loc 2 93 5 is_stmt 1 view .LVU83
 475              	.LBB273:
 476              	.LBI273:
  21:../libs/PoliTeKDSP/libs/libDaisy/src/dev/mpr121.h **** 
 477              		.loc 2 21 5 view .LVU84
  21:../libs/PoliTeKDSP/libs/libDaisy/src/dev/mpr121.h **** 
 478              		.loc 2 21 5 is_stmt 0 view .LVU85
 479              	.LBE273:
 480              	.LBE272:
 481              	.LBE271:
 482              		.loc 1 7 40 view .LVU86
 483 002c 2046     		mov	r0, r4
 484 002e 10BD     		pop	{r4, pc}
 485              		.loc 1 7 40 view .LVU87
 486              		.cfi_endproc
 487              	.LFE5075:
 489              		.global	_ZN16PlantConditionerD1Ev
 490              		.thumb_set _ZN16PlantConditionerD1Ev,_ZN16PlantConditionerD2Ev
 491              		.section	.text._ZN16PlantConditioner4InitEN3IIR10FilterTypeEPN5daisy9DaisySeedE,"ax",%progbits
 492              		.align	1
 493              		.p2align 2,,3
 494              		.global	_ZN16PlantConditioner4InitEN3IIR10FilterTypeEPN5daisy9DaisySeedE
 495              		.syntax unified
 496              		.thumb
 497              		.thumb_func
 498              		.fpu fpv5-d16
 500              	_ZN16PlantConditioner4InitEN3IIR10FilterTypeEPN5daisy9DaisySeedE:
 501              	.LVL19:
 502              	.LFB5077:
   8:PSP/PlantConditioner.cpp **** 
   9:PSP/PlantConditioner.cpp **** 
  10:PSP/PlantConditioner.cpp **** 
  11:PSP/PlantConditioner.cpp **** void PlantConditioner::Init(IIR::FilterType filter_type, daisy::DaisySeed* hw) {
 503              		.loc 1 11 80 is_stmt 1 view -0
 504              		.cfi_startproc
 505              		@ args = 0, pretend = 0, frame = 80
 506              		@ frame_needed = 0, uses_anonymous_args = 0
  12:PSP/PlantConditioner.cpp ****     
  13:PSP/PlantConditioner.cpp ****     _hw = hw;
 507              		.loc 1 13 5 view .LVU89
  11:PSP/PlantConditioner.cpp ****     
 508              		.loc 1 11 80 is_stmt 0 view .LVU90
 509 0000 2DE9F04F 		push	{r4, r5, r6, r7, r8, r9, r10, fp, lr}
 510              		.cfi_def_cfa_offset 36
 511              		.cfi_offset 4, -36
 512              		.cfi_offset 5, -32
 513              		.cfi_offset 6, -28
 514              		.cfi_offset 7, -24
 515              		.cfi_offset 8, -20
 516              		.cfi_offset 9, -16
 517              		.cfi_offset 10, -12
 518              		.cfi_offset 11, -8
 519              		.cfi_offset 14, -4
 520 0004 0446     		mov	r4, r0
 521 0006 99B0     		sub	sp, sp, #100
 522              		.cfi_def_cfa_offset 136
ARM GAS  C:\Users\skipi\AppData\Local\Temp\ccUZkxb5.s 			page 18


  14:PSP/PlantConditioner.cpp **** 
  15:PSP/PlantConditioner.cpp ****     _mpr121ObjConf.transport_config.speed = daisy::I2CHandle::Config::Speed::I2C_400KHZ;
 523              		.loc 1 15 43 view .LVU91
 524 0008 0125     		movs	r5, #1
 525 000a 4068     		ldr	r0, [r0, #4]	@ unaligned
 526              	.LVL20:
 527              		.loc 1 15 43 view .LVU92
 528 000c 2369     		ldr	r3, [r4, #16]	@ unaligned
 529 000e 0DF1480E 		add	lr, sp, #72
 530 0012 A560     		str	r5, [r4, #8]
 531              	.LBB716:
 532              	.LBB717:
 104:../libs/PoliTeKDSP/libs/libDaisy/src/dev/mpr121.h ****             release_threshold = MPR121_RELEASE_THRESHOLD_DEFAULT;
 105:../libs/PoliTeKDSP/libs/libDaisy/src/dev/mpr121.h ****         }
 106:../libs/PoliTeKDSP/libs/libDaisy/src/dev/mpr121.h ****     };
 107:../libs/PoliTeKDSP/libs/libDaisy/src/dev/mpr121.h **** 
 108:../libs/PoliTeKDSP/libs/libDaisy/src/dev/mpr121.h ****     enum Result
 109:../libs/PoliTeKDSP/libs/libDaisy/src/dev/mpr121.h ****     {
 110:../libs/PoliTeKDSP/libs/libDaisy/src/dev/mpr121.h ****         OK = 0,
 111:../libs/PoliTeKDSP/libs/libDaisy/src/dev/mpr121.h ****         ERR
 112:../libs/PoliTeKDSP/libs/libDaisy/src/dev/mpr121.h ****     };
 113:../libs/PoliTeKDSP/libs/libDaisy/src/dev/mpr121.h **** 
 114:../libs/PoliTeKDSP/libs/libDaisy/src/dev/mpr121.h ****     /** Initialize the MPR121 device
 115:../libs/PoliTeKDSP/libs/libDaisy/src/dev/mpr121.h ****         \param config Configuration settings
 116:../libs/PoliTeKDSP/libs/libDaisy/src/dev/mpr121.h ****     */
 117:../libs/PoliTeKDSP/libs/libDaisy/src/dev/mpr121.h ****     Result Init(Config config)
 118:../libs/PoliTeKDSP/libs/libDaisy/src/dev/mpr121.h ****     {
 119:../libs/PoliTeKDSP/libs/libDaisy/src/dev/mpr121.h ****         config_ = config;
 533              		.loc 2 119 9 view .LVU93
 534 0014 0DF1480A 		add	r10, sp, #72
 535 0018 A168     		ldr	r1, [r4, #8]	@ unaligned
 536              	.LVL21:
 537              		.loc 2 119 9 view .LVU94
 538 001a 04F11C0C 		add	ip, r4, #28
 539              	.LBE717:
 540              	.LBE716:
  13:PSP/PlantConditioner.cpp **** 
 541              		.loc 1 13 9 view .LVU95
 542 001e 2260     		str	r2, [r4]
 543              		.loc 1 15 5 is_stmt 1 view .LVU96
  16:PSP/PlantConditioner.cpp ****     if (_cap.Init(_mpr121ObjConf) != daisy::Mpr121I2C::Result::OK)
 544              		.loc 1 16 5 view .LVU97
 545              	.LVL22:
 546              		.loc 1 16 5 is_stmt 0 view .LVU98
 547 0020 08AF     		add	r7, sp, #32
 548 0022 E268     		ldr	r2, [r4, #12]	@ unaligned
 549              	.LVL23:
 550              	.LBB2436:
 551              	.LBB2432:
 120:../libs/PoliTeKDSP/libs/libDaisy/src/dev/mpr121.h **** 
 121:../libs/PoliTeKDSP/libs/libDaisy/src/dev/mpr121.h ****         SetTransportErr(transport_.Init(config_.transport_config));
 552              		.loc 2 121 24 view .LVU99
 553 0024 04F13406 		add	r6, r4, #52
 554              	.LBB718:
 555              	.LBB719:
  59:../libs/PoliTeKDSP/libs/libDaisy/src/dev/mpr121.h ****     }
 556              		.loc 2 59 50 view .LVU100
ARM GAS  C:\Users\skipi\AppData\Local\Temp\ccUZkxb5.s 			page 19


 557 0028 0DF13408 		add	r8, sp, #52
 558              	.LBE719:
 559              	.LBE718:
 560              	.LBB733:
 561              	.LBB734:
 562              	.LBB735:
 563              	.LBB736:
 564              	.LBB737:
 565              	.LBB738:
 566              	.LBB739:
  66:../libs/PoliTeKDSP/libs/libDaisy/src/dev/mpr121.h ****                    config_.dev_addr, address, 1, data, size, 10);
 567              		.loc 2 66 41 view .LVU101
 568 002c 4FF00A09 		mov	r9, #10
 569              	.LBE739:
 570              	.LBE738:
 571              	.LBE737:
 572              	.LBE736:
 573              	.LBE735:
 574              	.LBB786:
 575              	.LBB787:
  74:../libs/PoliTeKDSP/libs/libDaisy/src/dev/mpr121.h ****                    config_.dev_addr, address, 1, data, size, 10);
 576              		.loc 2 74 42 view .LVU102
 577 0030 0DF11F0B 		add	fp, sp, #31
 578 0034 AEE80F00 		stmia	lr!, {r0, r1, r2, r3}
 579 0038 238B     		ldrh	r3, [r4, #24]	@ unaligned
 580 003a 6069     		ldr	r0, [r4, #20]	@ unaligned
 581 003c AEF80430 		strh	r3, [lr, #4]	@ unaligned
 582              	.LBE787:
 583              	.LBE786:
 584              	.LBE734:
 585              	.LBE733:
 586              	.LBE2432:
 587              	.LBI716:
 117:../libs/PoliTeKDSP/libs/libDaisy/src/dev/mpr121.h ****     {
 588              		.loc 2 117 12 is_stmt 1 view .LVU103
 589              	.LVL24:
 590              	.LBB2433:
 119:../libs/PoliTeKDSP/libs/libDaisy/src/dev/mpr121.h **** 
 591              		.loc 2 119 9 is_stmt 0 view .LVU104
 592 0040 BEF80430 		ldrh	r3, [lr, #4]	@ unaligned
 593 0044 CEF80000 		str	r0, [lr]
 594              	.LBB829:
 595              	.LBB729:
  49:../libs/PoliTeKDSP/libs/libDaisy/src/dev/mpr121.h **** 
 596              		.loc 2 49 17 view .LVU105
 597 0048 BE46     		mov	lr, r7
 598              	.LBE729:
 599              	.LBE829:
 119:../libs/PoliTeKDSP/libs/libDaisy/src/dev/mpr121.h **** 
 600              		.loc 2 119 9 view .LVU106
 601 004a E062     		str	r0, [r4, #44]	@ unaligned
 602 004c 2386     		strh	r3, [r4, #48]	@ unaligned
 603 004e BAE80F00 		ldmia	r10!, {r0, r1, r2, r3}
 604 0052 E061     		str	r0, [r4, #28]	@ unaligned
 605 0054 2162     		str	r1, [r4, #32]	@ unaligned
 606 0056 6262     		str	r2, [r4, #36]	@ unaligned
 607 0058 A362     		str	r3, [r4, #40]	@ unaligned
ARM GAS  C:\Users\skipi\AppData\Local\Temp\ccUZkxb5.s 			page 20


 608 005a BCE80F00 		ldmia	ip!, {r0, r1, r2, r3}
 609              	.LVL25:
 119:../libs/PoliTeKDSP/libs/libDaisy/src/dev/mpr121.h **** 
 610              		.loc 2 119 9 view .LVU107
 611 005e 0FC7     		stmia	r7!, {r0, r1, r2, r3}
 612              	.LBB830:
 613              	.LBB730:
 614              	.LBB720:
 615              	.LBB721:
  29:../libs/PoliTeKDSP/libs/libDaisy/src/per/i2c.h ****     {
 616              		.loc 4 29 12 view .LVU108
 617 0060 4FF01003 		mov	r3, #16
 618              	.LBE721:
 619              	.LBE720:
  53:../libs/PoliTeKDSP/libs/libDaisy/src/dev/mpr121.h ****         i2c_conf.speed  = config.speed;
 620              		.loc 2 53 25 view .LVU109
 621 0064 0D90     		str	r0, [sp, #52]
 622              	.LBB727:
 623              	.LBB725:
  29:../libs/PoliTeKDSP/libs/libDaisy/src/per/i2c.h ****     {
 624              		.loc 4 29 12 view .LVU110
 625 0066 8DF84430 		strb	r3, [sp, #68]
 626 006a DCF80030 		ldr	r3, [ip]
 627 006e 3B60     		str	r3, [r7]
 628              	.LBE725:
 629              	.LBE727:
 630              	.LBE730:
 631              	.LBE830:
 632              	.LBB831:
 633              	.LBB823:
 634              	.LBB792:
 122:../libs/PoliTeKDSP/libs/libDaisy/src/dev/mpr121.h **** 
 123:../libs/PoliTeKDSP/libs/libDaisy/src/dev/mpr121.h ****         // soft reset
 124:../libs/PoliTeKDSP/libs/libDaisy/src/dev/mpr121.h ****         WriteRegister(MPR121_SOFTRESET, 0x63);
 125:../libs/PoliTeKDSP/libs/libDaisy/src/dev/mpr121.h ****         System::Delay(1);
 126:../libs/PoliTeKDSP/libs/libDaisy/src/dev/mpr121.h **** 
 127:../libs/PoliTeKDSP/libs/libDaisy/src/dev/mpr121.h ****         WriteRegister(MPR121_ECR, 0x0);
 128:../libs/PoliTeKDSP/libs/libDaisy/src/dev/mpr121.h **** 
 129:../libs/PoliTeKDSP/libs/libDaisy/src/dev/mpr121.h ****         uint8_t c = ReadRegister8(MPR121_CONFIG2);
 130:../libs/PoliTeKDSP/libs/libDaisy/src/dev/mpr121.h **** 
 131:../libs/PoliTeKDSP/libs/libDaisy/src/dev/mpr121.h ****         if(c != 0x24)
 132:../libs/PoliTeKDSP/libs/libDaisy/src/dev/mpr121.h ****             return ERR;
 133:../libs/PoliTeKDSP/libs/libDaisy/src/dev/mpr121.h **** 
 134:../libs/PoliTeKDSP/libs/libDaisy/src/dev/mpr121.h ****         SetThresholds(config_.touch_threshold, config_.release_threshold);
 135:../libs/PoliTeKDSP/libs/libDaisy/src/dev/mpr121.h ****         WriteRegister(MPR121_MHDR, 0x01);
 136:../libs/PoliTeKDSP/libs/libDaisy/src/dev/mpr121.h ****         WriteRegister(MPR121_NHDR, 0x01);
 137:../libs/PoliTeKDSP/libs/libDaisy/src/dev/mpr121.h ****         WriteRegister(MPR121_NCLR, 0x0E);
 138:../libs/PoliTeKDSP/libs/libDaisy/src/dev/mpr121.h ****         WriteRegister(MPR121_FDLR, 0x00);
 139:../libs/PoliTeKDSP/libs/libDaisy/src/dev/mpr121.h **** 
 140:../libs/PoliTeKDSP/libs/libDaisy/src/dev/mpr121.h ****         WriteRegister(MPR121_MHDF, 0x01);
 141:../libs/PoliTeKDSP/libs/libDaisy/src/dev/mpr121.h ****         WriteRegister(MPR121_NHDF, 0x05);
 142:../libs/PoliTeKDSP/libs/libDaisy/src/dev/mpr121.h ****         WriteRegister(MPR121_NCLF, 0x01);
 143:../libs/PoliTeKDSP/libs/libDaisy/src/dev/mpr121.h ****         WriteRegister(MPR121_FDLF, 0x00);
 144:../libs/PoliTeKDSP/libs/libDaisy/src/dev/mpr121.h **** 
 145:../libs/PoliTeKDSP/libs/libDaisy/src/dev/mpr121.h ****         WriteRegister(MPR121_NHDT, 0x00);
 146:../libs/PoliTeKDSP/libs/libDaisy/src/dev/mpr121.h ****         WriteRegister(MPR121_NCLT, 0x00);
 147:../libs/PoliTeKDSP/libs/libDaisy/src/dev/mpr121.h ****         WriteRegister(MPR121_FDLT, 0x00);
ARM GAS  C:\Users\skipi\AppData\Local\Temp\ccUZkxb5.s 			page 21


 148:../libs/PoliTeKDSP/libs/libDaisy/src/dev/mpr121.h **** 
 149:../libs/PoliTeKDSP/libs/libDaisy/src/dev/mpr121.h ****         WriteRegister(MPR121_DEBOUNCE, 0);
 150:../libs/PoliTeKDSP/libs/libDaisy/src/dev/mpr121.h ****         WriteRegister(MPR121_CONFIG1, 0x10); // default, 16uA charge current
 151:../libs/PoliTeKDSP/libs/libDaisy/src/dev/mpr121.h ****         WriteRegister(MPR121_CONFIG2, 0x20); // 0.5uS encoding, 1ms period
 152:../libs/PoliTeKDSP/libs/libDaisy/src/dev/mpr121.h **** 
 153:../libs/PoliTeKDSP/libs/libDaisy/src/dev/mpr121.h ****         // autoconfig
 154:../libs/PoliTeKDSP/libs/libDaisy/src/dev/mpr121.h ****         // WriteRegister(MPR121_AUTOCONFIG0, 0x0B);
 155:../libs/PoliTeKDSP/libs/libDaisy/src/dev/mpr121.h **** 
 156:../libs/PoliTeKDSP/libs/libDaisy/src/dev/mpr121.h ****         // correct values for Vdd = 3.3V
 157:../libs/PoliTeKDSP/libs/libDaisy/src/dev/mpr121.h ****         // WriteRegister(MPR121_UPLIMIT, 200);     // ((Vdd - 0.7)/Vdd) * 256
 158:../libs/PoliTeKDSP/libs/libDaisy/src/dev/mpr121.h ****         // WriteRegister(MPR121_TARGETLIMIT, 180); // UPLIMIT * 0.9
 159:../libs/PoliTeKDSP/libs/libDaisy/src/dev/mpr121.h ****         // WriteRegister(MPR121_LOWLIMIT, 130);    // UPLIMIT * 0.65
 160:../libs/PoliTeKDSP/libs/libDaisy/src/dev/mpr121.h ****         // autoconfig
 161:../libs/PoliTeKDSP/libs/libDaisy/src/dev/mpr121.h **** 
 162:../libs/PoliTeKDSP/libs/libDaisy/src/dev/mpr121.h ****         // enable X electrodes and start MPR121
 163:../libs/PoliTeKDSP/libs/libDaisy/src/dev/mpr121.h ****         uint8_t ECR_SETTING
 164:../libs/PoliTeKDSP/libs/libDaisy/src/dev/mpr121.h ****             = 0x80
 165:../libs/PoliTeKDSP/libs/libDaisy/src/dev/mpr121.h ****               + 12; // enable baseline tracking (10) & disable proximity (00) + X
 166:../libs/PoliTeKDSP/libs/libDaisy/src/dev/mpr121.h ****                     // amount of electrodes running (12)
 167:../libs/PoliTeKDSP/libs/libDaisy/src/dev/mpr121.h ****         WriteRegister(MPR121_ECR,
 168:../libs/PoliTeKDSP/libs/libDaisy/src/dev/mpr121.h ****                       ECR_SETTING); // start with above ECR setting
 169:../libs/PoliTeKDSP/libs/libDaisy/src/dev/mpr121.h **** 
 170:../libs/PoliTeKDSP/libs/libDaisy/src/dev/mpr121.h ****         return GetTransportErr();
 171:../libs/PoliTeKDSP/libs/libDaisy/src/dev/mpr121.h ****     }
 172:../libs/PoliTeKDSP/libs/libDaisy/src/dev/mpr121.h **** 
 173:../libs/PoliTeKDSP/libs/libDaisy/src/dev/mpr121.h ****     /** Set the touch and release thresholds for all 13 channels on the
 174:../libs/PoliTeKDSP/libs/libDaisy/src/dev/mpr121.h ****         device to the passed values.
 175:../libs/PoliTeKDSP/libs/libDaisy/src/dev/mpr121.h ****         \param      touch The touch threshold value from 0 to 255.
 176:../libs/PoliTeKDSP/libs/libDaisy/src/dev/mpr121.h ****         \param      release The release threshold from 0 to 255.
 177:../libs/PoliTeKDSP/libs/libDaisy/src/dev/mpr121.h ****     */
 178:../libs/PoliTeKDSP/libs/libDaisy/src/dev/mpr121.h ****     void SetThresholds(uint8_t touch, uint8_t release)
 179:../libs/PoliTeKDSP/libs/libDaisy/src/dev/mpr121.h ****     {
 180:../libs/PoliTeKDSP/libs/libDaisy/src/dev/mpr121.h ****         // set all thresholds (the same)
 181:../libs/PoliTeKDSP/libs/libDaisy/src/dev/mpr121.h ****         for(uint8_t i = 0; i < 12; i++)
 182:../libs/PoliTeKDSP/libs/libDaisy/src/dev/mpr121.h ****         {
 183:../libs/PoliTeKDSP/libs/libDaisy/src/dev/mpr121.h ****             WriteRegister(MPR121_TOUCHTH_0 + 2 * i, touch);
 184:../libs/PoliTeKDSP/libs/libDaisy/src/dev/mpr121.h ****             WriteRegister(MPR121_RELEASETH_0 + 2 * i, release);
 185:../libs/PoliTeKDSP/libs/libDaisy/src/dev/mpr121.h ****         }
 186:../libs/PoliTeKDSP/libs/libDaisy/src/dev/mpr121.h ****     }
 187:../libs/PoliTeKDSP/libs/libDaisy/src/dev/mpr121.h **** 
 188:../libs/PoliTeKDSP/libs/libDaisy/src/dev/mpr121.h **** 
 189:../libs/PoliTeKDSP/libs/libDaisy/src/dev/mpr121.h ****     /** Read the filtered data from channel t. The ADC raw data outputs
 190:../libs/PoliTeKDSP/libs/libDaisy/src/dev/mpr121.h ****         run through 3 levels of digital filtering to filter out the high
 191:../libs/PoliTeKDSP/libs/libDaisy/src/dev/mpr121.h ****         frequency and low frequency noise encountered. For detailed information on
 192:../libs/PoliTeKDSP/libs/libDaisy/src/dev/mpr121.h ****         this filtering see page 6 of the device datasheet.
 193:../libs/PoliTeKDSP/libs/libDaisy/src/dev/mpr121.h ****         \param      t the channel to read
 194:../libs/PoliTeKDSP/libs/libDaisy/src/dev/mpr121.h ****         \returns    the filtered reading as a 10 bit unsigned value
 195:../libs/PoliTeKDSP/libs/libDaisy/src/dev/mpr121.h ****     */
 196:../libs/PoliTeKDSP/libs/libDaisy/src/dev/mpr121.h ****     uint16_t FilteredData(uint8_t t)
 197:../libs/PoliTeKDSP/libs/libDaisy/src/dev/mpr121.h ****     {
 198:../libs/PoliTeKDSP/libs/libDaisy/src/dev/mpr121.h ****         if(t > 12)
 199:../libs/PoliTeKDSP/libs/libDaisy/src/dev/mpr121.h ****             return 0;
 200:../libs/PoliTeKDSP/libs/libDaisy/src/dev/mpr121.h ****         return ReadRegister16(MPR121_FILTDATA_0L + t * 2);
 201:../libs/PoliTeKDSP/libs/libDaisy/src/dev/mpr121.h ****     }
 202:../libs/PoliTeKDSP/libs/libDaisy/src/dev/mpr121.h **** 
 203:../libs/PoliTeKDSP/libs/libDaisy/src/dev/mpr121.h ****     /** Read the baseline value for the channel. The 3rd level filtered
 204:../libs/PoliTeKDSP/libs/libDaisy/src/dev/mpr121.h ****         result is internally 10bit but only high 8 bits are readable
ARM GAS  C:\Users\skipi\AppData\Local\Temp\ccUZkxb5.s 			page 22


 205:../libs/PoliTeKDSP/libs/libDaisy/src/dev/mpr121.h ****         from registers 0x1E~0x2A as the baseline value output for each channel.
 206:../libs/PoliTeKDSP/libs/libDaisy/src/dev/mpr121.h ****         \param      t the channel to read.
 207:../libs/PoliTeKDSP/libs/libDaisy/src/dev/mpr121.h ****         \returns    the baseline data that was read
 208:../libs/PoliTeKDSP/libs/libDaisy/src/dev/mpr121.h ****     */
 209:../libs/PoliTeKDSP/libs/libDaisy/src/dev/mpr121.h ****     uint16_t BaselineData(uint8_t t)
 210:../libs/PoliTeKDSP/libs/libDaisy/src/dev/mpr121.h ****     {
 211:../libs/PoliTeKDSP/libs/libDaisy/src/dev/mpr121.h ****         if(t > 12)
 212:../libs/PoliTeKDSP/libs/libDaisy/src/dev/mpr121.h ****             return 0;
 213:../libs/PoliTeKDSP/libs/libDaisy/src/dev/mpr121.h ****         uint16_t bl = ReadRegister8(MPR121_BASELINE_0 + t);
 214:../libs/PoliTeKDSP/libs/libDaisy/src/dev/mpr121.h ****         return (bl << 2);
 215:../libs/PoliTeKDSP/libs/libDaisy/src/dev/mpr121.h ****     }
 216:../libs/PoliTeKDSP/libs/libDaisy/src/dev/mpr121.h **** 
 217:../libs/PoliTeKDSP/libs/libDaisy/src/dev/mpr121.h ****     /** Read the touch status of all 13 channels as bit values in a 12 bit integer.
 218:../libs/PoliTeKDSP/libs/libDaisy/src/dev/mpr121.h ****         \returns    a 12 bit integer with each bit corresponding to the touch status
 219:../libs/PoliTeKDSP/libs/libDaisy/src/dev/mpr121.h ****         of a sensor. For example, if bit 0 is set then channel 0 of the
 220:../libs/PoliTeKDSP/libs/libDaisy/src/dev/mpr121.h ****         device is currently deemed to be touched.
 221:../libs/PoliTeKDSP/libs/libDaisy/src/dev/mpr121.h ****     */
 222:../libs/PoliTeKDSP/libs/libDaisy/src/dev/mpr121.h ****     uint16_t Touched()
 223:../libs/PoliTeKDSP/libs/libDaisy/src/dev/mpr121.h ****     {
 224:../libs/PoliTeKDSP/libs/libDaisy/src/dev/mpr121.h ****         uint16_t t = ReadRegister16(MPR121_TOUCHSTATUS_L);
 225:../libs/PoliTeKDSP/libs/libDaisy/src/dev/mpr121.h ****         return t & 0x0FFF;
 226:../libs/PoliTeKDSP/libs/libDaisy/src/dev/mpr121.h ****     }
 227:../libs/PoliTeKDSP/libs/libDaisy/src/dev/mpr121.h **** 
 228:../libs/PoliTeKDSP/libs/libDaisy/src/dev/mpr121.h ****     /** Read the contents of an 8 bit device register.
 229:../libs/PoliTeKDSP/libs/libDaisy/src/dev/mpr121.h ****         \param      reg the register address to read from
 230:../libs/PoliTeKDSP/libs/libDaisy/src/dev/mpr121.h ****         \returns    the 8 bit value that was read.
 231:../libs/PoliTeKDSP/libs/libDaisy/src/dev/mpr121.h ****     */
 232:../libs/PoliTeKDSP/libs/libDaisy/src/dev/mpr121.h ****     uint8_t ReadRegister8(uint8_t reg)
 233:../libs/PoliTeKDSP/libs/libDaisy/src/dev/mpr121.h ****     {
 234:../libs/PoliTeKDSP/libs/libDaisy/src/dev/mpr121.h ****         uint8_t buff;
 235:../libs/PoliTeKDSP/libs/libDaisy/src/dev/mpr121.h ****         SetTransportErr(transport_.ReadDataAtAddress(reg, &buff, 1));
 236:../libs/PoliTeKDSP/libs/libDaisy/src/dev/mpr121.h **** 
 237:../libs/PoliTeKDSP/libs/libDaisy/src/dev/mpr121.h ****         return buff;
 238:../libs/PoliTeKDSP/libs/libDaisy/src/dev/mpr121.h ****     }
 239:../libs/PoliTeKDSP/libs/libDaisy/src/dev/mpr121.h **** 
 240:../libs/PoliTeKDSP/libs/libDaisy/src/dev/mpr121.h ****     /** Read the contents of a 16 bit device register.
 241:../libs/PoliTeKDSP/libs/libDaisy/src/dev/mpr121.h ****         \param      reg the register address to read from
 242:../libs/PoliTeKDSP/libs/libDaisy/src/dev/mpr121.h ****         \returns    the 16 bit value that was read.
 243:../libs/PoliTeKDSP/libs/libDaisy/src/dev/mpr121.h ****     */
 244:../libs/PoliTeKDSP/libs/libDaisy/src/dev/mpr121.h ****     uint16_t ReadRegister16(uint8_t reg)
 245:../libs/PoliTeKDSP/libs/libDaisy/src/dev/mpr121.h ****     {
 246:../libs/PoliTeKDSP/libs/libDaisy/src/dev/mpr121.h ****         uint16_t buff;
 247:../libs/PoliTeKDSP/libs/libDaisy/src/dev/mpr121.h ****         SetTransportErr(
 248:../libs/PoliTeKDSP/libs/libDaisy/src/dev/mpr121.h ****             transport_.ReadDataAtAddress(reg, (uint8_t *)(&buff), 2));
 249:../libs/PoliTeKDSP/libs/libDaisy/src/dev/mpr121.h **** 
 250:../libs/PoliTeKDSP/libs/libDaisy/src/dev/mpr121.h ****         return buff;
 251:../libs/PoliTeKDSP/libs/libDaisy/src/dev/mpr121.h ****     }
 252:../libs/PoliTeKDSP/libs/libDaisy/src/dev/mpr121.h **** 
 253:../libs/PoliTeKDSP/libs/libDaisy/src/dev/mpr121.h ****     /** Writes 8-bits to the specified destination register
 254:../libs/PoliTeKDSP/libs/libDaisy/src/dev/mpr121.h ****         \param  reg the register address to write to
 255:../libs/PoliTeKDSP/libs/libDaisy/src/dev/mpr121.h ****         \param  value the value to write
 256:../libs/PoliTeKDSP/libs/libDaisy/src/dev/mpr121.h ****     */
 257:../libs/PoliTeKDSP/libs/libDaisy/src/dev/mpr121.h ****     void WriteRegister(uint8_t reg, uint8_t value)
 258:../libs/PoliTeKDSP/libs/libDaisy/src/dev/mpr121.h ****     {
 259:../libs/PoliTeKDSP/libs/libDaisy/src/dev/mpr121.h ****         // MPR121 must be put in Stop Mode to write to most registers
 260:../libs/PoliTeKDSP/libs/libDaisy/src/dev/mpr121.h ****         bool stop_required = true;
 261:../libs/PoliTeKDSP/libs/libDaisy/src/dev/mpr121.h ****         if((reg == MPR121_ECR) || ((0x73 <= reg) && (reg <= 0x7A)))
ARM GAS  C:\Users\skipi\AppData\Local\Temp\ccUZkxb5.s 			page 23


 262:../libs/PoliTeKDSP/libs/libDaisy/src/dev/mpr121.h ****         {
 263:../libs/PoliTeKDSP/libs/libDaisy/src/dev/mpr121.h ****             stop_required = false;
 264:../libs/PoliTeKDSP/libs/libDaisy/src/dev/mpr121.h ****         }
 265:../libs/PoliTeKDSP/libs/libDaisy/src/dev/mpr121.h **** 
 266:../libs/PoliTeKDSP/libs/libDaisy/src/dev/mpr121.h ****         uint8_t ecr_backup;
 267:../libs/PoliTeKDSP/libs/libDaisy/src/dev/mpr121.h **** 
 268:../libs/PoliTeKDSP/libs/libDaisy/src/dev/mpr121.h ****         if(stop_required)
 269:../libs/PoliTeKDSP/libs/libDaisy/src/dev/mpr121.h ****         {
 270:../libs/PoliTeKDSP/libs/libDaisy/src/dev/mpr121.h ****             ecr_backup   = ReadRegister8(MPR121_ECR);
 271:../libs/PoliTeKDSP/libs/libDaisy/src/dev/mpr121.h ****             uint8_t zero = 0x00;
 635              		.loc 2 271 21 view .LVU111
 636 0070 4FF00007 		mov	r7, #0
 637              	.LBE792:
 638              	.LBE823:
 639              	.LBE831:
 640              	.LBB832:
 641              	.LBB731:
  49:../libs/PoliTeKDSP/libs/libDaisy/src/dev/mpr121.h **** 
 642              		.loc 2 49 17 view .LVU112
 643 0074 84F84830 		strb	r3, [r4, #72]
  52:../libs/PoliTeKDSP/libs/libDaisy/src/dev/mpr121.h ****         i2c_conf.periph = config.periph;
 644              		.loc 2 52 25 view .LVU113
 645 0078 0023     		movs	r3, #0
  49:../libs/PoliTeKDSP/libs/libDaisy/src/dev/mpr121.h **** 
 646              		.loc 2 49 17 view .LVU114
 647 007a 0890     		str	r0, [sp, #32]
  54:../libs/PoliTeKDSP/libs/libDaisy/src/dev/mpr121.h **** 
 648              		.loc 2 54 25 view .LVU115
 649 007c CDE90F53 		strd	r5, r3, [sp, #60]
 650              	.LVL26:
  54:../libs/PoliTeKDSP/libs/libDaisy/src/dev/mpr121.h **** 
 651              		.loc 2 54 25 view .LVU116
 652              	.LBE731:
 653              	.LBI718:
  47:../libs/PoliTeKDSP/libs/libDaisy/src/dev/mpr121.h ****     {
 654              		.loc 2 47 17 is_stmt 1 view .LVU117
 655              	.LBB732:
  49:../libs/PoliTeKDSP/libs/libDaisy/src/dev/mpr121.h **** 
 656              		.loc 2 49 9 view .LVU118
  51:../libs/PoliTeKDSP/libs/libDaisy/src/dev/mpr121.h ****         i2c_conf.mode   = I2CHandle::Config::Mode::I2C_MASTER;
 657              		.loc 2 51 9 view .LVU119
 658              	.LBB728:
 659              	.LBI720:
  29:../libs/PoliTeKDSP/libs/libDaisy/src/per/i2c.h ****     {
 660              		.loc 4 29 12 view .LVU120
 661              	.LBB726:
 662              	.LBB722:
 663              	.LBI722:
  59:../libs/PoliTeKDSP/libs/libDaisy/src/per/i2c.h ****             Pin scl;  /**< & */
 664              		.loc 4 59 9 view .LVU121
 665              	.LBB723:
 666              	.LBI723:
 667              		.loc 3 204 15 view .LVU122
 668              		.loc 3 204 15 is_stmt 0 view .LVU123
 669              	.LBE723:
 670              	.LBB724:
 671              	.LBI724:
ARM GAS  C:\Users\skipi\AppData\Local\Temp\ccUZkxb5.s 			page 24


 672              		.loc 3 204 15 is_stmt 1 view .LVU124
 673              		.loc 3 204 15 is_stmt 0 view .LVU125
 674              	.LBE724:
 675              	.LBE722:
 676              	.LBE726:
 677              	.LBE728:
  52:../libs/PoliTeKDSP/libs/libDaisy/src/dev/mpr121.h ****         i2c_conf.periph = config.periph;
 678              		.loc 2 52 9 is_stmt 1 view .LVU126
  53:../libs/PoliTeKDSP/libs/libDaisy/src/dev/mpr121.h ****         i2c_conf.speed  = config.speed;
 679              		.loc 2 53 9 view .LVU127
  54:../libs/PoliTeKDSP/libs/libDaisy/src/dev/mpr121.h **** 
 680              		.loc 2 54 9 view .LVU128
  56:../libs/PoliTeKDSP/libs/libDaisy/src/dev/mpr121.h ****         i2c_conf.pin_config.sda = config.sda;
 681              		.loc 2 56 9 view .LVU129
  56:../libs/PoliTeKDSP/libs/libDaisy/src/dev/mpr121.h ****         i2c_conf.pin_config.sda = config.sda;
 682              		.loc 2 56 33 is_stmt 0 view .LVU130
 683 0080 BDF82830 		ldrh	r3, [sp, #40]
 684 0084 ADF83830 		strh	r3, [sp, #56]	@ movhi
  57:../libs/PoliTeKDSP/libs/libDaisy/src/dev/mpr121.h **** 
 685              		.loc 2 57 9 is_stmt 1 view .LVU131
  57:../libs/PoliTeKDSP/libs/libDaisy/src/dev/mpr121.h **** 
 686              		.loc 2 57 33 is_stmt 0 view .LVU132
 687 0088 BDF82A30 		ldrh	r3, [sp, #42]
 688 008c ADF83A30 		strh	r3, [sp, #58]	@ movhi
  59:../libs/PoliTeKDSP/libs/libDaisy/src/dev/mpr121.h ****     }
 689              		.loc 2 59 9 is_stmt 1 view .LVU133
  49:../libs/PoliTeKDSP/libs/libDaisy/src/dev/mpr121.h **** 
 690              		.loc 2 49 17 is_stmt 0 view .LVU134
 691 0090 BEE80F00 		ldmia	lr!, {r0, r1, r2, r3}
  49:../libs/PoliTeKDSP/libs/libDaisy/src/dev/mpr121.h **** 
 692              		.loc 2 49 17 view .LVU135
 693 0094 A063     		str	r0, [r4, #56]	@ unaligned
  59:../libs/PoliTeKDSP/libs/libDaisy/src/dev/mpr121.h ****     }
 694              		.loc 2 59 50 view .LVU136
 695 0096 3046     		mov	r0, r6
 696              	.LVL27:
  49:../libs/PoliTeKDSP/libs/libDaisy/src/dev/mpr121.h **** 
 697              		.loc 2 49 17 view .LVU137
 698 0098 E163     		str	r1, [r4, #60]	@ unaligned
  59:../libs/PoliTeKDSP/libs/libDaisy/src/dev/mpr121.h ****     }
 699              		.loc 2 59 50 view .LVU138
 700 009a 4146     		mov	r1, r8
  49:../libs/PoliTeKDSP/libs/libDaisy/src/dev/mpr121.h **** 
 701              		.loc 2 49 17 view .LVU139
 702 009c 2264     		str	r2, [r4, #64]	@ unaligned
 703 009e 6364     		str	r3, [r4, #68]	@ unaligned
  59:../libs/PoliTeKDSP/libs/libDaisy/src/dev/mpr121.h ****     }
 704              		.loc 2 59 50 view .LVU140
 705 00a0 FFF7FEFF 		bl	_ZN5daisy9I2CHandle4InitERKNS0_6ConfigE
 706              	.LVL28:
  59:../libs/PoliTeKDSP/libs/libDaisy/src/dev/mpr121.h ****     }
 707              		.loc 2 59 50 view .LVU141
 708              	.LBE732:
 709              	.LBE832:
 710              	.LBB833:
 711              	.LBI833:
 272:../libs/PoliTeKDSP/libs/libDaisy/src/dev/mpr121.h ****             // clear this register to set stop mode
ARM GAS  C:\Users\skipi\AppData\Local\Temp\ccUZkxb5.s 			page 25


 273:../libs/PoliTeKDSP/libs/libDaisy/src/dev/mpr121.h ****             SetTransportErr(
 274:../libs/PoliTeKDSP/libs/libDaisy/src/dev/mpr121.h ****                 transport_.WriteDataAtAddress(MPR121_ECR, &zero, 1));
 275:../libs/PoliTeKDSP/libs/libDaisy/src/dev/mpr121.h ****         }
 276:../libs/PoliTeKDSP/libs/libDaisy/src/dev/mpr121.h **** 
 277:../libs/PoliTeKDSP/libs/libDaisy/src/dev/mpr121.h ****         SetTransportErr(transport_.WriteDataAtAddress(reg, &value, 1));
 278:../libs/PoliTeKDSP/libs/libDaisy/src/dev/mpr121.h **** 
 279:../libs/PoliTeKDSP/libs/libDaisy/src/dev/mpr121.h ****         if(stop_required)
 280:../libs/PoliTeKDSP/libs/libDaisy/src/dev/mpr121.h ****         {
 281:../libs/PoliTeKDSP/libs/libDaisy/src/dev/mpr121.h ****             // write back the previous set ECR settings
 282:../libs/PoliTeKDSP/libs/libDaisy/src/dev/mpr121.h ****             SetTransportErr(
 283:../libs/PoliTeKDSP/libs/libDaisy/src/dev/mpr121.h ****                 transport_.WriteDataAtAddress(MPR121_ECR, &ecr_backup, 1));
 284:../libs/PoliTeKDSP/libs/libDaisy/src/dev/mpr121.h ****         }
 285:../libs/PoliTeKDSP/libs/libDaisy/src/dev/mpr121.h ****     }
 286:../libs/PoliTeKDSP/libs/libDaisy/src/dev/mpr121.h **** 
 287:../libs/PoliTeKDSP/libs/libDaisy/src/dev/mpr121.h ****     /** Device register map */
 288:../libs/PoliTeKDSP/libs/libDaisy/src/dev/mpr121.h ****     enum RegMap
 289:../libs/PoliTeKDSP/libs/libDaisy/src/dev/mpr121.h ****     {
 290:../libs/PoliTeKDSP/libs/libDaisy/src/dev/mpr121.h ****         MPR121_TOUCHSTATUS_L = 0x00,
 291:../libs/PoliTeKDSP/libs/libDaisy/src/dev/mpr121.h ****         MPR121_TOUCHSTATUS_H = 0x01,
 292:../libs/PoliTeKDSP/libs/libDaisy/src/dev/mpr121.h ****         MPR121_FILTDATA_0L   = 0x04,
 293:../libs/PoliTeKDSP/libs/libDaisy/src/dev/mpr121.h ****         MPR121_FILTDATA_0H   = 0x05,
 294:../libs/PoliTeKDSP/libs/libDaisy/src/dev/mpr121.h ****         MPR121_BASELINE_0    = 0x1E,
 295:../libs/PoliTeKDSP/libs/libDaisy/src/dev/mpr121.h ****         MPR121_MHDR          = 0x2B,
 296:../libs/PoliTeKDSP/libs/libDaisy/src/dev/mpr121.h ****         MPR121_NHDR          = 0x2C,
 297:../libs/PoliTeKDSP/libs/libDaisy/src/dev/mpr121.h ****         MPR121_NCLR          = 0x2D,
 298:../libs/PoliTeKDSP/libs/libDaisy/src/dev/mpr121.h ****         MPR121_FDLR          = 0x2E,
 299:../libs/PoliTeKDSP/libs/libDaisy/src/dev/mpr121.h ****         MPR121_MHDF          = 0x2F,
 300:../libs/PoliTeKDSP/libs/libDaisy/src/dev/mpr121.h ****         MPR121_NHDF          = 0x30,
 301:../libs/PoliTeKDSP/libs/libDaisy/src/dev/mpr121.h ****         MPR121_NCLF          = 0x31,
 302:../libs/PoliTeKDSP/libs/libDaisy/src/dev/mpr121.h ****         MPR121_FDLF          = 0x32,
 303:../libs/PoliTeKDSP/libs/libDaisy/src/dev/mpr121.h ****         MPR121_NHDT          = 0x33,
 304:../libs/PoliTeKDSP/libs/libDaisy/src/dev/mpr121.h ****         MPR121_NCLT          = 0x34,
 305:../libs/PoliTeKDSP/libs/libDaisy/src/dev/mpr121.h ****         MPR121_FDLT          = 0x35,
 306:../libs/PoliTeKDSP/libs/libDaisy/src/dev/mpr121.h **** 
 307:../libs/PoliTeKDSP/libs/libDaisy/src/dev/mpr121.h ****         MPR121_TOUCHTH_0    = 0x41,
 308:../libs/PoliTeKDSP/libs/libDaisy/src/dev/mpr121.h ****         MPR121_RELEASETH_0  = 0x42,
 309:../libs/PoliTeKDSP/libs/libDaisy/src/dev/mpr121.h ****         MPR121_DEBOUNCE     = 0x5B,
 310:../libs/PoliTeKDSP/libs/libDaisy/src/dev/mpr121.h ****         MPR121_CONFIG1      = 0x5C,
 311:../libs/PoliTeKDSP/libs/libDaisy/src/dev/mpr121.h ****         MPR121_CONFIG2      = 0x5D,
 312:../libs/PoliTeKDSP/libs/libDaisy/src/dev/mpr121.h ****         MPR121_CHARGECURR_0 = 0x5F,
 313:../libs/PoliTeKDSP/libs/libDaisy/src/dev/mpr121.h ****         MPR121_CHARGETIME_1 = 0x6C,
 314:../libs/PoliTeKDSP/libs/libDaisy/src/dev/mpr121.h ****         MPR121_ECR          = 0x5E,
 315:../libs/PoliTeKDSP/libs/libDaisy/src/dev/mpr121.h ****         MPR121_AUTOCONFIG0  = 0x7B,
 316:../libs/PoliTeKDSP/libs/libDaisy/src/dev/mpr121.h ****         MPR121_AUTOCONFIG1  = 0x7C,
 317:../libs/PoliTeKDSP/libs/libDaisy/src/dev/mpr121.h ****         MPR121_UPLIMIT      = 0x7D,
 318:../libs/PoliTeKDSP/libs/libDaisy/src/dev/mpr121.h ****         MPR121_LOWLIMIT     = 0x7E,
 319:../libs/PoliTeKDSP/libs/libDaisy/src/dev/mpr121.h ****         MPR121_TARGETLIMIT  = 0x7F,
 320:../libs/PoliTeKDSP/libs/libDaisy/src/dev/mpr121.h **** 
 321:../libs/PoliTeKDSP/libs/libDaisy/src/dev/mpr121.h ****         MPR121_GPIODIR    = 0x76,
 322:../libs/PoliTeKDSP/libs/libDaisy/src/dev/mpr121.h ****         MPR121_GPIOEN     = 0x77,
 323:../libs/PoliTeKDSP/libs/libDaisy/src/dev/mpr121.h ****         MPR121_GPIOSET    = 0x78,
 324:../libs/PoliTeKDSP/libs/libDaisy/src/dev/mpr121.h ****         MPR121_GPIOCLR    = 0x79,
 325:../libs/PoliTeKDSP/libs/libDaisy/src/dev/mpr121.h ****         MPR121_GPIOTOGGLE = 0x7A,
 326:../libs/PoliTeKDSP/libs/libDaisy/src/dev/mpr121.h **** 
 327:../libs/PoliTeKDSP/libs/libDaisy/src/dev/mpr121.h ****         MPR121_SOFTRESET = 0x80,
 328:../libs/PoliTeKDSP/libs/libDaisy/src/dev/mpr121.h ****     };
 329:../libs/PoliTeKDSP/libs/libDaisy/src/dev/mpr121.h **** 
ARM GAS  C:\Users\skipi\AppData\Local\Temp\ccUZkxb5.s 			page 26


 330:../libs/PoliTeKDSP/libs/libDaisy/src/dev/mpr121.h ****   private:
 331:../libs/PoliTeKDSP/libs/libDaisy/src/dev/mpr121.h ****     Config    config_;
 332:../libs/PoliTeKDSP/libs/libDaisy/src/dev/mpr121.h ****     Transport transport_;
 333:../libs/PoliTeKDSP/libs/libDaisy/src/dev/mpr121.h ****     bool      transport_error_;
 334:../libs/PoliTeKDSP/libs/libDaisy/src/dev/mpr121.h **** 
 335:../libs/PoliTeKDSP/libs/libDaisy/src/dev/mpr121.h ****     /** Set the global transport_error_ bool */
 336:../libs/PoliTeKDSP/libs/libDaisy/src/dev/mpr121.h ****     void SetTransportErr(bool err) { transport_error_ |= err; }
 712              		.loc 2 336 10 is_stmt 1 view .LVU142
 713              	.LBE833:
 714              	.LBB837:
 715              	.LBB824:
 716              	.LBB793:
 717              	.LBB762:
 718              	.LBB755:
 719              	.LBB744:
 720              	.LBB740:
  66:../libs/PoliTeKDSP/libs/libDaisy/src/dev/mpr121.h ****                    config_.dev_addr, address, 1, data, size, 10);
 721              		.loc 2 66 41 is_stmt 0 view .LVU143
 722 00a4 CDF80080 		str	r8, [sp]
 723 00a8 5E22     		movs	r2, #94
 724 00aa CDE90159 		strd	r5, r9, [sp, #4]
 725              	.LBE740:
 726              	.LBE744:
 727              	.LBE755:
 728              	.LBE762:
 729              	.LBE793:
 730              	.LBE824:
 731              	.LBE837:
 732              	.LBB838:
 733              	.LBB834:
 734              		.loc 2 336 55 view .LVU144
 735 00ae 94F84C30 		ldrb	r3, [r4, #76]	@ zero_extendqisi2
 736              	.LBE834:
 737              	.LBE838:
 738              	.LBB839:
 739              	.LBB825:
 740              	.LBB794:
 741              	.LBB763:
 742              	.LBB756:
 743              	.LBB745:
 744              	.LBB741:
  66:../libs/PoliTeKDSP/libs/libDaisy/src/dev/mpr121.h ****                    config_.dev_addr, address, 1, data, size, 10);
 745              		.loc 2 66 41 view .LVU145
 746 00b2 94F84810 		ldrb	r1, [r4, #72]	@ zero_extendqisi2
 747              	.LBE741:
 748              	.LBE745:
 749              	.LBE756:
 750              	.LBE763:
 751              	.LBE794:
 752              	.LBE825:
 753              	.LBE839:
 754              	.LBB840:
 755              	.LBB835:
 756              		.loc 2 336 55 view .LVU146
 757 00b6 0028     		cmp	r0, #0
 758 00b8 18BF     		it	ne
 759 00ba 43F00103 		orrne	r3, r3, #1
ARM GAS  C:\Users\skipi\AppData\Local\Temp\ccUZkxb5.s 			page 27


 760              	.LBE835:
 761              	.LBE840:
 762              	.LBB841:
 763              	.LBB826:
 764              	.LBB795:
 765              	.LBB764:
 766              	.LBB757:
 767              	.LBB746:
 768              	.LBB742:
  66:../libs/PoliTeKDSP/libs/libDaisy/src/dev/mpr121.h ****                    config_.dev_addr, address, 1, data, size, 10);
 769              		.loc 2 66 41 view .LVU147
 770 00be 3046     		mov	r0, r6
 771              	.LVL29:
  66:../libs/PoliTeKDSP/libs/libDaisy/src/dev/mpr121.h ****                    config_.dev_addr, address, 1, data, size, 10);
 772              		.loc 2 66 41 view .LVU148
 773              	.LBE742:
 774              	.LBE746:
 775              	.LBE757:
 776              	.LBE764:
 777              	.LBE795:
 778              	.LBE826:
 779              	.LBE841:
 780              	.LBB842:
 781              	.LBB836:
 782              		.loc 2 336 55 view .LVU149
 783 00c0 84F84C30 		strb	r3, [r4, #76]
 784              	.LVL30:
 785              		.loc 2 336 55 view .LVU150
 786 00c4 6323     		movs	r3, #99
 787 00c6 8DF81F30 		strb	r3, [sp, #31]
 788              	.LVL31:
 789              		.loc 2 336 55 view .LVU151
 790              	.LBE836:
 791              	.LBE842:
 792              	.LBB843:
 793              	.LBI733:
 257:../libs/PoliTeKDSP/libs/libDaisy/src/dev/mpr121.h ****     {
 794              		.loc 2 257 10 is_stmt 1 view .LVU152
 795              	.LBB827:
 796              	.LBB796:
 797              	.LBB765:
 798              	.LBI736:
 232:../libs/PoliTeKDSP/libs/libDaisy/src/dev/mpr121.h ****     {
 799              		.loc 2 232 13 view .LVU153
 800              	.LBB758:
 801              	.LBB747:
 802              	.LBI738:
  63:../libs/PoliTeKDSP/libs/libDaisy/src/dev/mpr121.h ****     {
 803              		.loc 2 63 10 view .LVU154
 804              	.LBB743:
  65:../libs/PoliTeKDSP/libs/libDaisy/src/dev/mpr121.h ****                != i2c_.ReadDataAtAddress(
 805              		.loc 2 65 9 view .LVU155
  66:../libs/PoliTeKDSP/libs/libDaisy/src/dev/mpr121.h ****                    config_.dev_addr, address, 1, data, size, 10);
 806              		.loc 2 66 41 is_stmt 0 view .LVU156
 807 00ca 2B46     		mov	r3, r5
 808              	.LVL32:
  66:../libs/PoliTeKDSP/libs/libDaisy/src/dev/mpr121.h ****                    config_.dev_addr, address, 1, data, size, 10);
ARM GAS  C:\Users\skipi\AppData\Local\Temp\ccUZkxb5.s 			page 28


 809              		.loc 2 66 41 view .LVU157
 810 00cc FFF7FEFF 		bl	_ZN5daisy9I2CHandle17ReadDataAtAddressEtttPhtm
 811              	.LVL33:
  66:../libs/PoliTeKDSP/libs/libDaisy/src/dev/mpr121.h ****                    config_.dev_addr, address, 1, data, size, 10);
 812              		.loc 2 66 41 view .LVU158
 813              	.LBE743:
 814              	.LBE747:
 815              	.LBB748:
 816              	.LBI748:
 817              		.loc 2 336 10 is_stmt 1 view .LVU159
 818              	.LBE748:
 819              	.LBE758:
 820              	.LBE765:
 821              	.LBB766:
 822              	.LBB767:
  74:../libs/PoliTeKDSP/libs/libDaisy/src/dev/mpr121.h ****                    config_.dev_addr, address, 1, data, size, 10);
 823              		.loc 2 74 42 is_stmt 0 view .LVU160
 824 00d0 CDF80080 		str	r8, [sp]
 825 00d4 5E22     		movs	r2, #94
 826 00d6 CDE90159 		strd	r5, r9, [sp, #4]
 827              	.LBE767:
 828              	.LBE766:
 829              	.LBB772:
 830              	.LBB759:
 831              	.LBB752:
 832              	.LBB749:
 833              		.loc 2 336 55 view .LVU161
 834 00da 94F84C30 		ldrb	r3, [r4, #76]	@ zero_extendqisi2
 835              	.LBE749:
 836              	.LBE752:
 837              	.LBE759:
 838              	.LBE772:
 839              	.LBB773:
 840              	.LBB768:
  74:../libs/PoliTeKDSP/libs/libDaisy/src/dev/mpr121.h ****                    config_.dev_addr, address, 1, data, size, 10);
 841              		.loc 2 74 42 view .LVU162
 842 00de 94F84810 		ldrb	r1, [r4, #72]	@ zero_extendqisi2
 843              	.LBE768:
 844              	.LBE773:
 845              	.LBB774:
 846              	.LBB760:
 847              	.LBB753:
 848              	.LBB750:
 849              		.loc 2 336 55 view .LVU163
 850 00e2 0028     		cmp	r0, #0
 851 00e4 18BF     		it	ne
 852 00e6 43F00103 		orrne	r3, r3, #1
 853              	.LBE750:
 854              	.LBE753:
 855              	.LBE760:
 856              	.LBE774:
 857              	.LBB775:
 858              	.LBB769:
  74:../libs/PoliTeKDSP/libs/libDaisy/src/dev/mpr121.h ****                    config_.dev_addr, address, 1, data, size, 10);
 859              		.loc 2 74 42 view .LVU164
 860 00ea 3046     		mov	r0, r6
 861              	.LVL34:
ARM GAS  C:\Users\skipi\AppData\Local\Temp\ccUZkxb5.s 			page 29


  74:../libs/PoliTeKDSP/libs/libDaisy/src/dev/mpr121.h ****                    config_.dev_addr, address, 1, data, size, 10);
 862              		.loc 2 74 42 view .LVU165
 863              	.LBE769:
 864              	.LBE775:
 865              	.LBB776:
 866              	.LBB761:
 867              	.LBB754:
 868              	.LBB751:
 869              		.loc 2 336 55 view .LVU166
 870 00ec 84F84C30 		strb	r3, [r4, #76]
 871              	.LVL35:
 872              		.loc 2 336 55 view .LVU167
 873              	.LBE751:
 874              	.LBE754:
 237:../libs/PoliTeKDSP/libs/libDaisy/src/dev/mpr121.h ****     }
 875              		.loc 2 237 16 view .LVU168
 876 00f0 9DF83430 		ldrb	r3, [sp, #52]	@ zero_extendqisi2
 877              	.LVL36:
 237:../libs/PoliTeKDSP/libs/libDaisy/src/dev/mpr121.h ****     }
 878              		.loc 2 237 16 view .LVU169
 879              	.LBE761:
 880              	.LBE776:
 271:../libs/PoliTeKDSP/libs/libDaisy/src/dev/mpr121.h ****             // clear this register to set stop mode
 881              		.loc 2 271 21 view .LVU170
 882 00f4 8DF83470 		strb	r7, [sp, #52]
 883              	.LVL37:
 884              	.LBB777:
 885              	.LBI766:
  71:../libs/PoliTeKDSP/libs/libDaisy/src/dev/mpr121.h ****     {
 886              		.loc 2 71 10 is_stmt 1 view .LVU171
 887              	.LBB770:
  73:../libs/PoliTeKDSP/libs/libDaisy/src/dev/mpr121.h ****                != i2c_.WriteDataAtAddress(
 888              		.loc 2 73 9 view .LVU172
 889              	.LBE770:
 890              	.LBE777:
 270:../libs/PoliTeKDSP/libs/libDaisy/src/dev/mpr121.h ****             uint8_t zero = 0x00;
 891              		.loc 2 270 26 is_stmt 0 view .LVU173
 892 00f8 8DF82030 		strb	r3, [sp, #32]
 893              	.LBB778:
 894              	.LBB771:
  74:../libs/PoliTeKDSP/libs/libDaisy/src/dev/mpr121.h ****                    config_.dev_addr, address, 1, data, size, 10);
 895              		.loc 2 74 42 view .LVU174
 896 00fc 2B46     		mov	r3, r5
 897 00fe FFF7FEFF 		bl	_ZN5daisy9I2CHandle18WriteDataAtAddressEtttPhtm
 898              	.LVL38:
  74:../libs/PoliTeKDSP/libs/libDaisy/src/dev/mpr121.h ****                    config_.dev_addr, address, 1, data, size, 10);
 899              		.loc 2 74 42 view .LVU175
 900              	.LBE771:
 901              	.LBE778:
 902              	.LBB779:
 903              	.LBI779:
 904              		.loc 2 336 10 is_stmt 1 view .LVU176
 905              	.LBE779:
 906              	.LBE796:
 907              	.LBB797:
 908              	.LBB788:
  74:../libs/PoliTeKDSP/libs/libDaisy/src/dev/mpr121.h ****                    config_.dev_addr, address, 1, data, size, 10);
ARM GAS  C:\Users\skipi\AppData\Local\Temp\ccUZkxb5.s 			page 30


 909              		.loc 2 74 42 is_stmt 0 view .LVU177
 910 0102 CDF800B0 		str	fp, [sp]
 911 0106 8022     		movs	r2, #128
 912 0108 CDE90159 		strd	r5, r9, [sp, #4]
 913              	.LBE788:
 914              	.LBE797:
 915              	.LBB798:
 916              	.LBB783:
 917              	.LBB780:
 918              		.loc 2 336 55 view .LVU178
 919 010c 94F84C30 		ldrb	r3, [r4, #76]	@ zero_extendqisi2
 920              	.LBE780:
 921              	.LBE783:
 922              	.LBE798:
 923              	.LBB799:
 924              	.LBB789:
  74:../libs/PoliTeKDSP/libs/libDaisy/src/dev/mpr121.h ****                    config_.dev_addr, address, 1, data, size, 10);
 925              		.loc 2 74 42 view .LVU179
 926 0110 94F84810 		ldrb	r1, [r4, #72]	@ zero_extendqisi2
 927              	.LBE789:
 928              	.LBE799:
 929              	.LBB800:
 930              	.LBB784:
 931              	.LBB781:
 932              		.loc 2 336 55 view .LVU180
 933 0114 0028     		cmp	r0, #0
 934 0116 18BF     		it	ne
 935 0118 43F00103 		orrne	r3, r3, #1
 936              	.LBE781:
 937              	.LBE784:
 938              	.LBE800:
 939              	.LBB801:
 940              	.LBB790:
  74:../libs/PoliTeKDSP/libs/libDaisy/src/dev/mpr121.h ****                    config_.dev_addr, address, 1, data, size, 10);
 941              		.loc 2 74 42 view .LVU181
 942 011c 3046     		mov	r0, r6
 943              	.LVL39:
  74:../libs/PoliTeKDSP/libs/libDaisy/src/dev/mpr121.h ****                    config_.dev_addr, address, 1, data, size, 10);
 944              		.loc 2 74 42 view .LVU182
 945              	.LBE790:
 946              	.LBE801:
 947              	.LBB802:
 948              	.LBB785:
 949              	.LBB782:
 950              		.loc 2 336 55 view .LVU183
 951 011e 84F84C30 		strb	r3, [r4, #76]
 952              	.LVL40:
 953              		.loc 2 336 55 view .LVU184
 954              	.LBE782:
 955              	.LBE785:
 956              	.LBE802:
 957              	.LBB803:
 958              	.LBI786:
  71:../libs/PoliTeKDSP/libs/libDaisy/src/dev/mpr121.h ****     {
 959              		.loc 2 71 10 is_stmt 1 view .LVU185
 960              	.LBB791:
  73:../libs/PoliTeKDSP/libs/libDaisy/src/dev/mpr121.h ****                != i2c_.WriteDataAtAddress(
ARM GAS  C:\Users\skipi\AppData\Local\Temp\ccUZkxb5.s 			page 31


 961              		.loc 2 73 9 view .LVU186
  74:../libs/PoliTeKDSP/libs/libDaisy/src/dev/mpr121.h ****                    config_.dev_addr, address, 1, data, size, 10);
 962              		.loc 2 74 42 is_stmt 0 view .LVU187
 963 0122 2B46     		mov	r3, r5
 964 0124 FFF7FEFF 		bl	_ZN5daisy9I2CHandle18WriteDataAtAddressEtttPhtm
 965              	.LVL41:
  74:../libs/PoliTeKDSP/libs/libDaisy/src/dev/mpr121.h ****                    config_.dev_addr, address, 1, data, size, 10);
 966              		.loc 2 74 42 view .LVU188
 967              	.LBE791:
 968              	.LBE803:
 969              	.LBB804:
 970              	.LBI804:
 971              		.loc 2 336 10 is_stmt 1 view .LVU189
 972              	.LBE804:
 973              	.LBB808:
 974              	.LBB809:
  74:../libs/PoliTeKDSP/libs/libDaisy/src/dev/mpr121.h ****                    config_.dev_addr, address, 1, data, size, 10);
 975              		.loc 2 74 42 is_stmt 0 view .LVU190
 976 0128 08AB     		add	r3, sp, #32
 977 012a 5E22     		movs	r2, #94
 978 012c 0093     		str	r3, [sp]
 979 012e CDE90159 		strd	r5, r9, [sp, #4]
 980              	.LBE809:
 981              	.LBE808:
 982              	.LBB813:
 983              	.LBB805:
 984              		.loc 2 336 55 view .LVU191
 985 0132 94F84C30 		ldrb	r3, [r4, #76]	@ zero_extendqisi2
 986              	.LBE805:
 987              	.LBE813:
 988              	.LBB814:
 989              	.LBB810:
  74:../libs/PoliTeKDSP/libs/libDaisy/src/dev/mpr121.h ****                    config_.dev_addr, address, 1, data, size, 10);
 990              		.loc 2 74 42 view .LVU192
 991 0136 94F84810 		ldrb	r1, [r4, #72]	@ zero_extendqisi2
 992              	.LBE810:
 993              	.LBE814:
 994              	.LBB815:
 995              	.LBB806:
 996              		.loc 2 336 55 view .LVU193
 997 013a 0028     		cmp	r0, #0
 998 013c 18BF     		it	ne
 999 013e 43F00103 		orrne	r3, r3, #1
 1000              	.LBE806:
 1001              	.LBE815:
 1002              	.LBB816:
 1003              	.LBB811:
  74:../libs/PoliTeKDSP/libs/libDaisy/src/dev/mpr121.h ****                    config_.dev_addr, address, 1, data, size, 10);
 1004              		.loc 2 74 42 view .LVU194
 1005 0142 3046     		mov	r0, r6
 1006              	.LVL42:
  74:../libs/PoliTeKDSP/libs/libDaisy/src/dev/mpr121.h ****                    config_.dev_addr, address, 1, data, size, 10);
 1007              		.loc 2 74 42 view .LVU195
 1008              	.LBE811:
 1009              	.LBE816:
 1010              	.LBB817:
 1011              	.LBB807:
ARM GAS  C:\Users\skipi\AppData\Local\Temp\ccUZkxb5.s 			page 32


 1012              		.loc 2 336 55 view .LVU196
 1013 0144 84F84C30 		strb	r3, [r4, #76]
 1014              	.LVL43:
 1015              		.loc 2 336 55 view .LVU197
 1016              	.LBE807:
 1017              	.LBE817:
 1018              	.LBB818:
 1019              	.LBI808:
  71:../libs/PoliTeKDSP/libs/libDaisy/src/dev/mpr121.h ****     {
 1020              		.loc 2 71 10 is_stmt 1 view .LVU198
 1021              	.LBB812:
  73:../libs/PoliTeKDSP/libs/libDaisy/src/dev/mpr121.h ****                != i2c_.WriteDataAtAddress(
 1022              		.loc 2 73 9 view .LVU199
  74:../libs/PoliTeKDSP/libs/libDaisy/src/dev/mpr121.h ****                    config_.dev_addr, address, 1, data, size, 10);
 1023              		.loc 2 74 42 is_stmt 0 view .LVU200
 1024 0148 2B46     		mov	r3, r5
 1025 014a FFF7FEFF 		bl	_ZN5daisy9I2CHandle18WriteDataAtAddressEtttPhtm
 1026              	.LVL44:
  74:../libs/PoliTeKDSP/libs/libDaisy/src/dev/mpr121.h ****                    config_.dev_addr, address, 1, data, size, 10);
 1027              		.loc 2 74 42 view .LVU201
 1028              	.LBE812:
 1029              	.LBE818:
 1030              	.LBB819:
 1031              	.LBI819:
 1032              		.loc 2 336 10 is_stmt 1 view .LVU202
 1033              	.LBB820:
 1034              		.loc 2 336 55 is_stmt 0 view .LVU203
 1035 014e 94F84C30 		ldrb	r3, [r4, #76]	@ zero_extendqisi2
 1036 0152 0028     		cmp	r0, #0
 1037 0154 18BF     		it	ne
 1038 0156 43F00103 		orrne	r3, r3, #1
 1039              	.LBE820:
 1040              	.LBE819:
 1041              	.LBE827:
 1042              	.LBE843:
 125:../libs/PoliTeKDSP/libs/libDaisy/src/dev/mpr121.h **** 
 1043              		.loc 2 125 22 view .LVU204
 1044 015a 2846     		mov	r0, r5
 1045              	.LVL45:
 1046              	.LBB844:
 1047              	.LBB828:
 1048              	.LBB822:
 1049              	.LBB821:
 1050              		.loc 2 336 55 view .LVU205
 1051 015c 84F84C30 		strb	r3, [r4, #76]
 1052              	.LVL46:
 1053              		.loc 2 336 55 view .LVU206
 1054              	.LBE821:
 1055              	.LBE822:
 1056              	.LBE828:
 1057              	.LBE844:
 125:../libs/PoliTeKDSP/libs/libDaisy/src/dev/mpr121.h **** 
 1058              		.loc 2 125 22 view .LVU207
 1059 0160 FFF7FEFF 		bl	_ZN5daisy6System5DelayEm
 1060              	.LVL47:
 1061              	.LBB845:
 1062              	.LBB846:
ARM GAS  C:\Users\skipi\AppData\Local\Temp\ccUZkxb5.s 			page 33


 1063              	.LBB847:
 1064              	.LBB848:
  74:../libs/PoliTeKDSP/libs/libDaisy/src/dev/mpr121.h ****                    config_.dev_addr, address, 1, data, size, 10);
 1065              		.loc 2 74 42 view .LVU208
 1066 0164 2B46     		mov	r3, r5
 1067 0166 5E22     		movs	r2, #94
 1068 0168 CDF80080 		str	r8, [sp]
 1069 016c 3046     		mov	r0, r6
 1070 016e 8DF83470 		strb	r7, [sp, #52]
 1071              	.LVL48:
  74:../libs/PoliTeKDSP/libs/libDaisy/src/dev/mpr121.h ****                    config_.dev_addr, address, 1, data, size, 10);
 1072              		.loc 2 74 42 view .LVU209
 1073              	.LBE848:
 1074              	.LBE847:
 1075              	.LBE846:
 1076              	.LBI845:
 257:../libs/PoliTeKDSP/libs/libDaisy/src/dev/mpr121.h ****     {
 1077              		.loc 2 257 10 is_stmt 1 view .LVU210
 1078              	.LBB858:
 1079              	.LBB850:
 1080              	.LBI847:
  71:../libs/PoliTeKDSP/libs/libDaisy/src/dev/mpr121.h ****     {
 1081              		.loc 2 71 10 view .LVU211
 1082              	.LBB849:
  73:../libs/PoliTeKDSP/libs/libDaisy/src/dev/mpr121.h ****                != i2c_.WriteDataAtAddress(
 1083              		.loc 2 73 9 view .LVU212
  74:../libs/PoliTeKDSP/libs/libDaisy/src/dev/mpr121.h ****                    config_.dev_addr, address, 1, data, size, 10);
 1084              		.loc 2 74 42 is_stmt 0 view .LVU213
 1085 0172 CDE90159 		strd	r5, r9, [sp, #4]
 1086 0176 94F84810 		ldrb	r1, [r4, #72]	@ zero_extendqisi2
 1087 017a FFF7FEFF 		bl	_ZN5daisy9I2CHandle18WriteDataAtAddressEtttPhtm
 1088              	.LVL49:
  74:../libs/PoliTeKDSP/libs/libDaisy/src/dev/mpr121.h ****                    config_.dev_addr, address, 1, data, size, 10);
 1089              		.loc 2 74 42 view .LVU214
 1090              	.LBE849:
 1091              	.LBE850:
 1092              	.LBB851:
 1093              	.LBI851:
 1094              		.loc 2 336 10 is_stmt 1 view .LVU215
 1095              	.LBE851:
 1096              	.LBE858:
 1097              	.LBE845:
 1098              	.LBB862:
 1099              	.LBB863:
 1100              	.LBB864:
 1101              	.LBB865:
  66:../libs/PoliTeKDSP/libs/libDaisy/src/dev/mpr121.h ****                    config_.dev_addr, address, 1, data, size, 10);
 1102              		.loc 2 66 41 is_stmt 0 view .LVU216
 1103 017e CDF80080 		str	r8, [sp]
 1104 0182 2B46     		mov	r3, r5
 1105 0184 CDE90159 		strd	r5, r9, [sp, #4]
 1106              	.LBE865:
 1107              	.LBE864:
 1108              	.LBE863:
 1109              	.LBE862:
 1110              	.LBB877:
 1111              	.LBB859:
ARM GAS  C:\Users\skipi\AppData\Local\Temp\ccUZkxb5.s 			page 34


 1112              	.LBB855:
 1113              	.LBB852:
 1114              		.loc 2 336 55 view .LVU217
 1115 0188 94F84C20 		ldrb	r2, [r4, #76]	@ zero_extendqisi2
 1116              	.LBE852:
 1117              	.LBE855:
 1118              	.LBE859:
 1119              	.LBE877:
 1120              	.LBB878:
 1121              	.LBB874:
 1122              	.LBB869:
 1123              	.LBB866:
  66:../libs/PoliTeKDSP/libs/libDaisy/src/dev/mpr121.h ****                    config_.dev_addr, address, 1, data, size, 10);
 1124              		.loc 2 66 41 view .LVU218
 1125 018c 94F84810 		ldrb	r1, [r4, #72]	@ zero_extendqisi2
 1126              	.LBE866:
 1127              	.LBE869:
 1128              	.LBE874:
 1129              	.LBE878:
 1130              	.LBB879:
 1131              	.LBB860:
 1132              	.LBB856:
 1133              	.LBB853:
 1134              		.loc 2 336 55 view .LVU219
 1135 0190 0028     		cmp	r0, #0
 1136 0192 18BF     		it	ne
 1137 0194 42F00102 		orrne	r2, r2, #1
 1138              	.LBE853:
 1139              	.LBE856:
 1140              	.LBE860:
 1141              	.LBE879:
 1142              	.LBB880:
 1143              	.LBB875:
 1144              	.LBB870:
 1145              	.LBB867:
  66:../libs/PoliTeKDSP/libs/libDaisy/src/dev/mpr121.h ****                    config_.dev_addr, address, 1, data, size, 10);
 1146              		.loc 2 66 41 view .LVU220
 1147 0198 3046     		mov	r0, r6
 1148              	.LVL50:
  66:../libs/PoliTeKDSP/libs/libDaisy/src/dev/mpr121.h ****                    config_.dev_addr, address, 1, data, size, 10);
 1149              		.loc 2 66 41 view .LVU221
 1150              	.LBE867:
 1151              	.LBE870:
 1152              	.LBE875:
 1153              	.LBE880:
 1154              	.LBB881:
 1155              	.LBB861:
 1156              	.LBB857:
 1157              	.LBB854:
 1158              		.loc 2 336 55 view .LVU222
 1159 019a 84F84C20 		strb	r2, [r4, #76]
 1160              	.LVL51:
 1161              		.loc 2 336 55 view .LVU223
 1162              	.LBE854:
 1163              	.LBE857:
 1164              	.LBE861:
 1165              	.LBE881:
ARM GAS  C:\Users\skipi\AppData\Local\Temp\ccUZkxb5.s 			page 35


 1166              	.LBB882:
 1167              	.LBI862:
 232:../libs/PoliTeKDSP/libs/libDaisy/src/dev/mpr121.h ****     {
 1168              		.loc 2 232 13 is_stmt 1 view .LVU224
 1169              	.LBB876:
 1170              	.LBB871:
 1171              	.LBI864:
  63:../libs/PoliTeKDSP/libs/libDaisy/src/dev/mpr121.h ****     {
 1172              		.loc 2 63 10 view .LVU225
 1173              	.LBB868:
  65:../libs/PoliTeKDSP/libs/libDaisy/src/dev/mpr121.h ****                != i2c_.ReadDataAtAddress(
 1174              		.loc 2 65 9 view .LVU226
  66:../libs/PoliTeKDSP/libs/libDaisy/src/dev/mpr121.h ****                    config_.dev_addr, address, 1, data, size, 10);
 1175              		.loc 2 66 41 is_stmt 0 view .LVU227
 1176 019e 5D22     		movs	r2, #93
 1177 01a0 FFF7FEFF 		bl	_ZN5daisy9I2CHandle17ReadDataAtAddressEtttPhtm
 1178              	.LVL52:
  66:../libs/PoliTeKDSP/libs/libDaisy/src/dev/mpr121.h ****                    config_.dev_addr, address, 1, data, size, 10);
 1179              		.loc 2 66 41 view .LVU228
 1180              	.LBE868:
 1181              	.LBE871:
 1182              	.LBB872:
 1183              	.LBI872:
 1184              		.loc 2 336 10 is_stmt 1 view .LVU229
 1185              	.LBB873:
 1186              		.loc 2 336 55 is_stmt 0 view .LVU230
 1187 01a4 94F84C30 		ldrb	r3, [r4, #76]	@ zero_extendqisi2
 1188 01a8 0028     		cmp	r0, #0
 1189 01aa 18BF     		it	ne
 1190 01ac 43F00103 		orrne	r3, r3, #1
 1191 01b0 84F84C30 		strb	r3, [r4, #76]
 1192              	.LVL53:
 1193              		.loc 2 336 55 view .LVU231
 1194              	.LBE873:
 1195              	.LBE872:
 237:../libs/PoliTeKDSP/libs/libDaisy/src/dev/mpr121.h ****     }
 1196              		.loc 2 237 16 view .LVU232
 1197 01b4 9DF83430 		ldrb	r3, [sp, #52]	@ zero_extendqisi2
 1198              	.LVL54:
 237:../libs/PoliTeKDSP/libs/libDaisy/src/dev/mpr121.h ****     }
 1199              		.loc 2 237 16 view .LVU233
 1200              	.LBE876:
 1201              	.LBE882:
 131:../libs/PoliTeKDSP/libs/libDaisy/src/dev/mpr121.h ****             return ERR;
 1202              		.loc 2 131 9 view .LVU234
 1203 01b8 242B     		cmp	r3, #36
 1204 01ba 10D0     		beq	.L18
 1205              	.LVL55:
 1206              	.L13:
 131:../libs/PoliTeKDSP/libs/libDaisy/src/dev/mpr121.h ****             return ERR;
 1207              		.loc 2 131 9 view .LVU235
 1208              	.LBE2433:
 1209              	.LBE2436:
  17:PSP/PlantConditioner.cpp ****     {
  18:PSP/PlantConditioner.cpp ****         while (1) {
 1210              		.loc 1 18 9 is_stmt 1 discriminator 1 view .LVU236
  19:PSP/PlantConditioner.cpp ****             _hw->SetLed(true); _hw->DelayMs(100);
ARM GAS  C:\Users\skipi\AppData\Local\Temp\ccUZkxb5.s 			page 36


 1211              		.loc 1 19 13 discriminator 1 view .LVU237
 1212              		.loc 1 19 24 is_stmt 0 discriminator 1 view .LVU238
 1213 01bc 2068     		ldr	r0, [r4]
 1214 01be 0121     		movs	r1, #1
 1215 01c0 FFF7FEFF 		bl	_ZN5daisy9DaisySeed6SetLedEb
 1216              	.LVL56:
 1217              		.loc 1 19 32 is_stmt 1 discriminator 1 view .LVU239
 1218              		.loc 1 19 44 is_stmt 0 discriminator 1 view .LVU240
 1219 01c4 2068     		ldr	r0, [r4]
 1220 01c6 6421     		movs	r1, #100
 1221 01c8 FFF7FEFF 		bl	_ZN5daisy9DaisySeed7DelayMsEj
 1222              	.LVL57:
  20:PSP/PlantConditioner.cpp ****             _hw->SetLed(false); _hw->DelayMs(100);
 1223              		.loc 1 20 13 is_stmt 1 discriminator 1 view .LVU241
 1224              		.loc 1 20 24 is_stmt 0 discriminator 1 view .LVU242
 1225 01cc 2068     		ldr	r0, [r4]
 1226 01ce 0021     		movs	r1, #0
 1227 01d0 FFF7FEFF 		bl	_ZN5daisy9DaisySeed6SetLedEb
 1228              	.LVL58:
 1229              		.loc 1 20 33 is_stmt 1 discriminator 1 view .LVU243
 1230              		.loc 1 20 45 is_stmt 0 discriminator 1 view .LVU244
 1231 01d4 6421     		movs	r1, #100
 1232 01d6 2068     		ldr	r0, [r4]
 1233 01d8 FFF7FEFF 		bl	_ZN5daisy9DaisySeed7DelayMsEj
 1234              	.LVL59:
  18:PSP/PlantConditioner.cpp ****             _hw->SetLed(true); _hw->DelayMs(100);
 1235              		.loc 1 18 9 is_stmt 1 discriminator 1 view .LVU245
 1236 01dc EEE7     		b	.L13
 1237              	.LVL60:
 1238              	.L18:
 1239              	.LBB2437:
 1240              	.LBB2434:
 134:../libs/PoliTeKDSP/libs/libDaisy/src/dev/mpr121.h ****         WriteRegister(MPR121_MHDR, 0x01);
 1241              		.loc 2 134 22 is_stmt 0 view .LVU246
 1242 01de 94F83030 		ldrb	r3, [r4, #48]	@ zero_extendqisi2
 1243              	.LVL61:
 134:../libs/PoliTeKDSP/libs/libDaisy/src/dev/mpr121.h ****         WriteRegister(MPR121_MHDR, 0x01);
 1244              		.loc 2 134 22 view .LVU247
 1245 01e2 4FF04109 		mov	r9, #65
 1246 01e6 0493     		str	r3, [sp, #16]
 1247 01e8 94F83130 		ldrb	r3, [r4, #49]	@ zero_extendqisi2
 1248 01ec 0593     		str	r3, [sp, #20]
 1249              	.LVL62:
 1250              	.LBB883:
 1251              	.LBI883:
 178:../libs/PoliTeKDSP/libs/libDaisy/src/dev/mpr121.h ****     {
 1252              		.loc 2 178 10 is_stmt 1 view .LVU248
 1253              	.LBB884:
 181:../libs/PoliTeKDSP/libs/libDaisy/src/dev/mpr121.h ****         {
 1254              		.loc 2 181 30 view .LVU249
 1255              	.L11:
 1256              	.LBB885:
 1257              	.LBB886:
 1258              	.LBB887:
 1259              	.LBB888:
 1260              	.LBB889:
 1261              	.LBB890:
ARM GAS  C:\Users\skipi\AppData\Local\Temp\ccUZkxb5.s 			page 37


 1262              	.LBB891:
  66:../libs/PoliTeKDSP/libs/libDaisy/src/dev/mpr121.h ****                    config_.dev_addr, address, 1, data, size, 10);
 1263              		.loc 2 66 41 is_stmt 0 view .LVU250
 1264 01ee 0125     		movs	r5, #1
 1265 01f0 0A27     		movs	r7, #10
 1266 01f2 049B     		ldr	r3, [sp, #16]
 1267 01f4 5E22     		movs	r2, #94
 1268 01f6 CDF80080 		str	r8, [sp]
 1269 01fa 3046     		mov	r0, r6
 1270 01fc 8DF81F30 		strb	r3, [sp, #31]
 1271              	.LVL63:
  66:../libs/PoliTeKDSP/libs/libDaisy/src/dev/mpr121.h ****                    config_.dev_addr, address, 1, data, size, 10);
 1272              		.loc 2 66 41 view .LVU251
 1273              	.LBE891:
 1274              	.LBE890:
 1275              	.LBE889:
 1276              	.LBE888:
 1277              	.LBE887:
 1278              	.LBE886:
 1279              	.LBI885:
 257:../libs/PoliTeKDSP/libs/libDaisy/src/dev/mpr121.h ****     {
 1280              		.loc 2 257 10 is_stmt 1 view .LVU252
 1281              	.LBB964:
 1282              	.LBB930:
 1283              	.LBB908:
 1284              	.LBI888:
 232:../libs/PoliTeKDSP/libs/libDaisy/src/dev/mpr121.h ****     {
 1285              		.loc 2 232 13 view .LVU253
 1286              	.LBB903:
 1287              	.LBB894:
 1288              	.LBI890:
  63:../libs/PoliTeKDSP/libs/libDaisy/src/dev/mpr121.h ****     {
 1289              		.loc 2 63 10 view .LVU254
 1290              	.LBB892:
  65:../libs/PoliTeKDSP/libs/libDaisy/src/dev/mpr121.h ****                != i2c_.ReadDataAtAddress(
 1291              		.loc 2 65 9 view .LVU255
  66:../libs/PoliTeKDSP/libs/libDaisy/src/dev/mpr121.h ****                    config_.dev_addr, address, 1, data, size, 10);
 1292              		.loc 2 66 41 is_stmt 0 view .LVU256
 1293 0200 2B46     		mov	r3, r5
 1294              	.LVL64:
  66:../libs/PoliTeKDSP/libs/libDaisy/src/dev/mpr121.h ****                    config_.dev_addr, address, 1, data, size, 10);
 1295              		.loc 2 66 41 view .LVU257
 1296              	.LBE892:
 1297              	.LBE894:
 1298              	.LBE903:
 1299              	.LBE908:
 271:../libs/PoliTeKDSP/libs/libDaisy/src/dev/mpr121.h ****             // clear this register to set stop mode
 1300              		.loc 2 271 21 view .LVU258
 1301 0202 4FF0000A 		mov	r10, #0
 1302              	.LBB909:
 1303              	.LBB904:
 1304              	.LBB895:
 1305              	.LBB893:
  66:../libs/PoliTeKDSP/libs/libDaisy/src/dev/mpr121.h ****                    config_.dev_addr, address, 1, data, size, 10);
 1306              		.loc 2 66 41 view .LVU259
 1307 0206 CDE90157 		strd	r5, r7, [sp, #4]
 1308 020a 94F84810 		ldrb	r1, [r4, #72]	@ zero_extendqisi2
ARM GAS  C:\Users\skipi\AppData\Local\Temp\ccUZkxb5.s 			page 38


 1309 020e FFF7FEFF 		bl	_ZN5daisy9I2CHandle17ReadDataAtAddressEtttPhtm
 1310              	.LVL65:
  66:../libs/PoliTeKDSP/libs/libDaisy/src/dev/mpr121.h ****                    config_.dev_addr, address, 1, data, size, 10);
 1311              		.loc 2 66 41 view .LVU260
 1312              	.LBE893:
 1313              	.LBE895:
 1314              	.LBB896:
 1315              	.LBI896:
 1316              		.loc 2 336 10 is_stmt 1 view .LVU261
 1317              	.LBE896:
 1318              	.LBE904:
 1319              	.LBE909:
 1320              	.LBB910:
 1321              	.LBB911:
  74:../libs/PoliTeKDSP/libs/libDaisy/src/dev/mpr121.h ****                    config_.dev_addr, address, 1, data, size, 10);
 1322              		.loc 2 74 42 is_stmt 0 view .LVU262
 1323 0212 CDF80080 		str	r8, [sp]
 1324 0216 5E22     		movs	r2, #94
 1325 0218 CDE90157 		strd	r5, r7, [sp, #4]
 1326              	.LBE911:
 1327              	.LBE910:
 1328              	.LBB916:
 1329              	.LBB905:
 1330              	.LBB900:
 1331              	.LBB897:
 1332              		.loc 2 336 55 view .LVU263
 1333 021c 94F84C30 		ldrb	r3, [r4, #76]	@ zero_extendqisi2
 1334              	.LBE897:
 1335              	.LBE900:
 1336              	.LBE905:
 1337              	.LBE916:
 1338              	.LBB917:
 1339              	.LBB912:
  74:../libs/PoliTeKDSP/libs/libDaisy/src/dev/mpr121.h ****                    config_.dev_addr, address, 1, data, size, 10);
 1340              		.loc 2 74 42 view .LVU264
 1341 0220 94F84810 		ldrb	r1, [r4, #72]	@ zero_extendqisi2
 1342              	.LBE912:
 1343              	.LBE917:
 1344              	.LBB918:
 1345              	.LBB906:
 1346              	.LBB901:
 1347              	.LBB898:
 1348              		.loc 2 336 55 view .LVU265
 1349 0224 0028     		cmp	r0, #0
 1350 0226 18BF     		it	ne
 1351 0228 43F00103 		orrne	r3, r3, #1
 1352              	.LBE898:
 1353              	.LBE901:
 1354              	.LBE906:
 1355              	.LBE918:
 1356              	.LBB919:
 1357              	.LBB913:
  74:../libs/PoliTeKDSP/libs/libDaisy/src/dev/mpr121.h ****                    config_.dev_addr, address, 1, data, size, 10);
 1358              		.loc 2 74 42 view .LVU266
 1359 022c 3046     		mov	r0, r6
 1360              	.LVL66:
  74:../libs/PoliTeKDSP/libs/libDaisy/src/dev/mpr121.h ****                    config_.dev_addr, address, 1, data, size, 10);
ARM GAS  C:\Users\skipi\AppData\Local\Temp\ccUZkxb5.s 			page 39


 1361              		.loc 2 74 42 view .LVU267
 1362              	.LBE913:
 1363              	.LBE919:
 1364              	.LBB920:
 1365              	.LBB907:
 1366              	.LBB902:
 1367              	.LBB899:
 1368              		.loc 2 336 55 view .LVU268
 1369 022e 84F84C30 		strb	r3, [r4, #76]
 1370              	.LVL67:
 1371              		.loc 2 336 55 view .LVU269
 1372              	.LBE899:
 1373              	.LBE902:
 237:../libs/PoliTeKDSP/libs/libDaisy/src/dev/mpr121.h ****     }
 1374              		.loc 2 237 16 view .LVU270
 1375 0232 9DF83430 		ldrb	r3, [sp, #52]	@ zero_extendqisi2
 1376              	.LVL68:
 237:../libs/PoliTeKDSP/libs/libDaisy/src/dev/mpr121.h ****     }
 1377              		.loc 2 237 16 view .LVU271
 1378              	.LBE907:
 1379              	.LBE920:
 271:../libs/PoliTeKDSP/libs/libDaisy/src/dev/mpr121.h ****             // clear this register to set stop mode
 1380              		.loc 2 271 21 view .LVU272
 1381 0236 8DF834A0 		strb	r10, [sp, #52]
 1382              	.LVL69:
 1383              	.LBB921:
 1384              	.LBI910:
  71:../libs/PoliTeKDSP/libs/libDaisy/src/dev/mpr121.h ****     {
 1385              		.loc 2 71 10 is_stmt 1 view .LVU273
 1386              	.LBB914:
  73:../libs/PoliTeKDSP/libs/libDaisy/src/dev/mpr121.h ****                != i2c_.WriteDataAtAddress(
 1387              		.loc 2 73 9 view .LVU274
 1388              	.LBE914:
 1389              	.LBE921:
 270:../libs/PoliTeKDSP/libs/libDaisy/src/dev/mpr121.h ****             uint8_t zero = 0x00;
 1390              		.loc 2 270 26 is_stmt 0 view .LVU275
 1391 023a 8DF82030 		strb	r3, [sp, #32]
 1392              	.LBB922:
 1393              	.LBB915:
  74:../libs/PoliTeKDSP/libs/libDaisy/src/dev/mpr121.h ****                    config_.dev_addr, address, 1, data, size, 10);
 1394              		.loc 2 74 42 view .LVU276
 1395 023e 2B46     		mov	r3, r5
 1396 0240 FFF7FEFF 		bl	_ZN5daisy9I2CHandle18WriteDataAtAddressEtttPhtm
 1397              	.LVL70:
  74:../libs/PoliTeKDSP/libs/libDaisy/src/dev/mpr121.h ****                    config_.dev_addr, address, 1, data, size, 10);
 1398              		.loc 2 74 42 view .LVU277
 1399              	.LBE915:
 1400              	.LBE922:
 1401              	.LBB923:
 1402              	.LBI923:
 1403              		.loc 2 336 10 is_stmt 1 view .LVU278
 1404              	.LBE923:
 1405              	.LBE930:
 1406              	.LBB931:
 1407              	.LBB932:
  74:../libs/PoliTeKDSP/libs/libDaisy/src/dev/mpr121.h ****                    config_.dev_addr, address, 1, data, size, 10);
 1408              		.loc 2 74 42 is_stmt 0 view .LVU279
ARM GAS  C:\Users\skipi\AppData\Local\Temp\ccUZkxb5.s 			page 40


 1409 0244 CDF800B0 		str	fp, [sp]
 1410 0248 4A46     		mov	r2, r9
 1411 024a CDE90157 		strd	r5, r7, [sp, #4]
 1412              	.LBE932:
 1413              	.LBE931:
 1414              	.LBB936:
 1415              	.LBB927:
 1416              	.LBB924:
 1417              		.loc 2 336 55 view .LVU280
 1418 024e 94F84C30 		ldrb	r3, [r4, #76]	@ zero_extendqisi2
 1419              	.LBE924:
 1420              	.LBE927:
 1421              	.LBE936:
 1422              	.LBB937:
 1423              	.LBB933:
  74:../libs/PoliTeKDSP/libs/libDaisy/src/dev/mpr121.h ****                    config_.dev_addr, address, 1, data, size, 10);
 1424              		.loc 2 74 42 view .LVU281
 1425 0252 94F84810 		ldrb	r1, [r4, #72]	@ zero_extendqisi2
 1426              	.LBE933:
 1427              	.LBE937:
 1428              	.LBB938:
 1429              	.LBB928:
 1430              	.LBB925:
 1431              		.loc 2 336 55 view .LVU282
 1432 0256 5045     		cmp	r0, r10
 1433 0258 18BF     		it	ne
 1434 025a 43F00103 		orrne	r3, r3, #1
 1435              	.LBE925:
 1436              	.LBE928:
 1437              	.LBE938:
 1438              	.LBB939:
 1439              	.LBB934:
  74:../libs/PoliTeKDSP/libs/libDaisy/src/dev/mpr121.h ****                    config_.dev_addr, address, 1, data, size, 10);
 1440              		.loc 2 74 42 view .LVU283
 1441 025e 3046     		mov	r0, r6
 1442              	.LVL71:
  74:../libs/PoliTeKDSP/libs/libDaisy/src/dev/mpr121.h ****                    config_.dev_addr, address, 1, data, size, 10);
 1443              		.loc 2 74 42 view .LVU284
 1444              	.LBE934:
 1445              	.LBE939:
 1446              	.LBB940:
 1447              	.LBB929:
 1448              	.LBB926:
 1449              		.loc 2 336 55 view .LVU285
 1450 0260 84F84C30 		strb	r3, [r4, #76]
 1451              	.LVL72:
 1452              		.loc 2 336 55 view .LVU286
 1453              	.LBE926:
 1454              	.LBE929:
 1455              	.LBE940:
 1456              	.LBB941:
 1457              	.LBI931:
  71:../libs/PoliTeKDSP/libs/libDaisy/src/dev/mpr121.h ****     {
 1458              		.loc 2 71 10 is_stmt 1 view .LVU287
 1459              	.LBB935:
  73:../libs/PoliTeKDSP/libs/libDaisy/src/dev/mpr121.h ****                != i2c_.WriteDataAtAddress(
 1460              		.loc 2 73 9 view .LVU288
ARM GAS  C:\Users\skipi\AppData\Local\Temp\ccUZkxb5.s 			page 41


  74:../libs/PoliTeKDSP/libs/libDaisy/src/dev/mpr121.h ****                    config_.dev_addr, address, 1, data, size, 10);
 1461              		.loc 2 74 42 is_stmt 0 view .LVU289
 1462 0264 2B46     		mov	r3, r5
 1463 0266 FFF7FEFF 		bl	_ZN5daisy9I2CHandle18WriteDataAtAddressEtttPhtm
 1464              	.LVL73:
  74:../libs/PoliTeKDSP/libs/libDaisy/src/dev/mpr121.h ****                    config_.dev_addr, address, 1, data, size, 10);
 1465              		.loc 2 74 42 view .LVU290
 1466              	.LBE935:
 1467              	.LBE941:
 1468              	.LBB942:
 1469              	.LBI942:
 1470              		.loc 2 336 10 is_stmt 1 view .LVU291
 1471              	.LBE942:
 1472              	.LBB946:
 1473              	.LBB947:
  74:../libs/PoliTeKDSP/libs/libDaisy/src/dev/mpr121.h ****                    config_.dev_addr, address, 1, data, size, 10);
 1474              		.loc 2 74 42 is_stmt 0 view .LVU292
 1475 026a 08AB     		add	r3, sp, #32
 1476 026c 5E22     		movs	r2, #94
 1477 026e 0093     		str	r3, [sp]
 1478 0270 CDE90157 		strd	r5, r7, [sp, #4]
 1479              	.LBE947:
 1480              	.LBE946:
 1481              	.LBB951:
 1482              	.LBB943:
 1483              		.loc 2 336 55 view .LVU293
 1484 0274 94F84C30 		ldrb	r3, [r4, #76]	@ zero_extendqisi2
 1485              	.LBE943:
 1486              	.LBE951:
 1487              	.LBB952:
 1488              	.LBB948:
  74:../libs/PoliTeKDSP/libs/libDaisy/src/dev/mpr121.h ****                    config_.dev_addr, address, 1, data, size, 10);
 1489              		.loc 2 74 42 view .LVU294
 1490 0278 94F84810 		ldrb	r1, [r4, #72]	@ zero_extendqisi2
 1491              	.LBE948:
 1492              	.LBE952:
 1493              	.LBB953:
 1494              	.LBB944:
 1495              		.loc 2 336 55 view .LVU295
 1496 027c 5045     		cmp	r0, r10
 1497 027e 18BF     		it	ne
 1498 0280 43F00103 		orrne	r3, r3, #1
 1499              	.LBE944:
 1500              	.LBE953:
 1501              	.LBB954:
 1502              	.LBB949:
  74:../libs/PoliTeKDSP/libs/libDaisy/src/dev/mpr121.h ****                    config_.dev_addr, address, 1, data, size, 10);
 1503              		.loc 2 74 42 view .LVU296
 1504 0284 3046     		mov	r0, r6
 1505              	.LVL74:
  74:../libs/PoliTeKDSP/libs/libDaisy/src/dev/mpr121.h ****                    config_.dev_addr, address, 1, data, size, 10);
 1506              		.loc 2 74 42 view .LVU297
 1507              	.LBE949:
 1508              	.LBE954:
 1509              	.LBB955:
 1510              	.LBB945:
 1511              		.loc 2 336 55 view .LVU298
ARM GAS  C:\Users\skipi\AppData\Local\Temp\ccUZkxb5.s 			page 42


 1512 0286 84F84C30 		strb	r3, [r4, #76]
 1513              	.LVL75:
 1514              		.loc 2 336 55 view .LVU299
 1515              	.LBE945:
 1516              	.LBE955:
 1517              	.LBB956:
 1518              	.LBI946:
  71:../libs/PoliTeKDSP/libs/libDaisy/src/dev/mpr121.h ****     {
 1519              		.loc 2 71 10 is_stmt 1 view .LVU300
 1520              	.LBB950:
  73:../libs/PoliTeKDSP/libs/libDaisy/src/dev/mpr121.h ****                != i2c_.WriteDataAtAddress(
 1521              		.loc 2 73 9 view .LVU301
  74:../libs/PoliTeKDSP/libs/libDaisy/src/dev/mpr121.h ****                    config_.dev_addr, address, 1, data, size, 10);
 1522              		.loc 2 74 42 is_stmt 0 view .LVU302
 1523 028a 2B46     		mov	r3, r5
 1524 028c FFF7FEFF 		bl	_ZN5daisy9I2CHandle18WriteDataAtAddressEtttPhtm
 1525              	.LVL76:
  74:../libs/PoliTeKDSP/libs/libDaisy/src/dev/mpr121.h ****                    config_.dev_addr, address, 1, data, size, 10);
 1526              		.loc 2 74 42 view .LVU303
 1527              	.LBE950:
 1528              	.LBE956:
 1529              	.LBB957:
 1530              	.LBI957:
 1531              		.loc 2 336 10 is_stmt 1 view .LVU304
 1532 0290 059B     		ldr	r3, [sp, #20]
 1533              	.LBE957:
 1534              	.LBE964:
 1535              	.LBE885:
 1536              	.LBB968:
 1537              	.LBB969:
 1538              	.LBB970:
 1539              	.LBB971:
 1540              	.LBB972:
 1541              	.LBB973:
 1542              	.LBB974:
  66:../libs/PoliTeKDSP/libs/libDaisy/src/dev/mpr121.h ****                    config_.dev_addr, address, 1, data, size, 10);
 1543              		.loc 2 66 41 is_stmt 0 view .LVU305
 1544 0292 CDF80080 		str	r8, [sp]
 1545 0296 5E22     		movs	r2, #94
 1546 0298 8DF81F30 		strb	r3, [sp, #31]
 1547 029c CDE90157 		strd	r5, r7, [sp, #4]
 1548              	.LBE974:
 1549              	.LBE973:
 1550              	.LBE972:
 1551              	.LBE971:
 1552              	.LBE970:
 1553              	.LBE969:
 1554              	.LBE968:
 1555              	.LBB1058:
 1556              	.LBB965:
 1557              	.LBB961:
 1558              	.LBB958:
 1559              		.loc 2 336 55 view .LVU306
 1560 02a0 94F84C30 		ldrb	r3, [r4, #76]	@ zero_extendqisi2
 1561              	.LBE958:
 1562              	.LBE961:
 1563              	.LBE965:
ARM GAS  C:\Users\skipi\AppData\Local\Temp\ccUZkxb5.s 			page 43


 1564              	.LBE1058:
 1565              	.LBB1059:
 1566              	.LBB1052:
 1567              	.LBB1017:
 1568              	.LBB994:
 1569              	.LBB988:
 1570              	.LBB978:
 1571              	.LBB975:
  66:../libs/PoliTeKDSP/libs/libDaisy/src/dev/mpr121.h ****                    config_.dev_addr, address, 1, data, size, 10);
 1572              		.loc 2 66 41 view .LVU307
 1573 02a4 94F84810 		ldrb	r1, [r4, #72]	@ zero_extendqisi2
 1574              	.LBE975:
 1575              	.LBE978:
 1576              	.LBE988:
 1577              	.LBE994:
 1578              	.LBE1017:
 1579              	.LBE1052:
 1580              	.LBE1059:
 1581              	.LBB1060:
 1582              	.LBB966:
 1583              	.LBB962:
 1584              	.LBB959:
 1585              		.loc 2 336 55 view .LVU308
 1586 02a8 5045     		cmp	r0, r10
 1587 02aa 18BF     		it	ne
 1588 02ac 43F00103 		orrne	r3, r3, #1
 1589              	.LBE959:
 1590              	.LBE962:
 1591              	.LBE966:
 1592              	.LBE1060:
 1593              	.LBB1061:
 1594              	.LBB1053:
 1595              	.LBB1018:
 1596              	.LBB995:
 1597              	.LBB989:
 1598              	.LBB979:
 1599              	.LBB976:
  66:../libs/PoliTeKDSP/libs/libDaisy/src/dev/mpr121.h ****                    config_.dev_addr, address, 1, data, size, 10);
 1600              		.loc 2 66 41 view .LVU309
 1601 02b0 3046     		mov	r0, r6
 1602              	.LVL77:
  66:../libs/PoliTeKDSP/libs/libDaisy/src/dev/mpr121.h ****                    config_.dev_addr, address, 1, data, size, 10);
 1603              		.loc 2 66 41 view .LVU310
 1604              	.LBE976:
 1605              	.LBE979:
 1606              	.LBE989:
 1607              	.LBE995:
 1608              	.LBE1018:
 1609              	.LBE1053:
 1610              	.LBE1061:
 1611              	.LBB1062:
 1612              	.LBB967:
 1613              	.LBB963:
 1614              	.LBB960:
 1615              		.loc 2 336 55 view .LVU311
 1616 02b2 84F84C30 		strb	r3, [r4, #76]
 1617              	.LVL78:
ARM GAS  C:\Users\skipi\AppData\Local\Temp\ccUZkxb5.s 			page 44


 1618              		.loc 2 336 55 view .LVU312
 1619              	.LBE960:
 1620              	.LBE963:
 1621              	.LBE967:
 1622              	.LBE1062:
 1623              	.LBB1063:
 1624              	.LBI968:
 257:../libs/PoliTeKDSP/libs/libDaisy/src/dev/mpr121.h ****     {
 1625              		.loc 2 257 10 is_stmt 1 view .LVU313
 1626              	.LBB1054:
 1627              	.LBB1019:
 1628              	.LBB996:
 1629              	.LBI971:
 232:../libs/PoliTeKDSP/libs/libDaisy/src/dev/mpr121.h ****     {
 1630              		.loc 2 232 13 view .LVU314
 1631              	.LBB990:
 1632              	.LBB980:
 1633              	.LBI973:
  63:../libs/PoliTeKDSP/libs/libDaisy/src/dev/mpr121.h ****     {
 1634              		.loc 2 63 10 view .LVU315
 1635              	.LBB977:
  65:../libs/PoliTeKDSP/libs/libDaisy/src/dev/mpr121.h ****                != i2c_.ReadDataAtAddress(
 1636              		.loc 2 65 9 view .LVU316
  66:../libs/PoliTeKDSP/libs/libDaisy/src/dev/mpr121.h ****                    config_.dev_addr, address, 1, data, size, 10);
 1637              		.loc 2 66 41 is_stmt 0 view .LVU317
 1638 02b6 2B46     		mov	r3, r5
 1639 02b8 FFF7FEFF 		bl	_ZN5daisy9I2CHandle17ReadDataAtAddressEtttPhtm
 1640              	.LVL79:
  66:../libs/PoliTeKDSP/libs/libDaisy/src/dev/mpr121.h ****                    config_.dev_addr, address, 1, data, size, 10);
 1641              		.loc 2 66 41 view .LVU318
 1642              	.LBE977:
 1643              	.LBE980:
 1644              	.LBB981:
 1645              	.LBI981:
 1646              		.loc 2 336 10 is_stmt 1 view .LVU319
 1647              	.LBE981:
 1648              	.LBE990:
 1649              	.LBE996:
 1650              	.LBB997:
 1651              	.LBB998:
  74:../libs/PoliTeKDSP/libs/libDaisy/src/dev/mpr121.h ****                    config_.dev_addr, address, 1, data, size, 10);
 1652              		.loc 2 74 42 is_stmt 0 view .LVU320
 1653 02bc CDF80080 		str	r8, [sp]
 1654 02c0 5E22     		movs	r2, #94
 1655 02c2 CDE90157 		strd	r5, r7, [sp, #4]
 1656              	.LBE998:
 1657              	.LBE997:
 1658              	.LBB1003:
 1659              	.LBB991:
 1660              	.LBB985:
 1661              	.LBB982:
 1662              		.loc 2 336 55 view .LVU321
 1663 02c6 94F84C30 		ldrb	r3, [r4, #76]	@ zero_extendqisi2
 1664              	.LBE982:
 1665              	.LBE985:
 1666              	.LBE991:
 1667              	.LBE1003:
ARM GAS  C:\Users\skipi\AppData\Local\Temp\ccUZkxb5.s 			page 45


 1668              	.LBB1004:
 1669              	.LBB999:
  74:../libs/PoliTeKDSP/libs/libDaisy/src/dev/mpr121.h ****                    config_.dev_addr, address, 1, data, size, 10);
 1670              		.loc 2 74 42 view .LVU322
 1671 02ca 94F84810 		ldrb	r1, [r4, #72]	@ zero_extendqisi2
 1672              	.LBE999:
 1673              	.LBE1004:
 1674              	.LBB1005:
 1675              	.LBB992:
 1676              	.LBB986:
 1677              	.LBB983:
 1678              		.loc 2 336 55 view .LVU323
 1679 02ce 5045     		cmp	r0, r10
 1680 02d0 18BF     		it	ne
 1681 02d2 43F00103 		orrne	r3, r3, #1
 1682              	.LBE983:
 1683              	.LBE986:
 1684              	.LBE992:
 1685              	.LBE1005:
 1686              	.LBB1006:
 1687              	.LBB1000:
  74:../libs/PoliTeKDSP/libs/libDaisy/src/dev/mpr121.h ****                    config_.dev_addr, address, 1, data, size, 10);
 1688              		.loc 2 74 42 view .LVU324
 1689 02d6 3046     		mov	r0, r6
 1690              	.LVL80:
  74:../libs/PoliTeKDSP/libs/libDaisy/src/dev/mpr121.h ****                    config_.dev_addr, address, 1, data, size, 10);
 1691              		.loc 2 74 42 view .LVU325
 1692              	.LBE1000:
 1693              	.LBE1006:
 1694              	.LBB1007:
 1695              	.LBB993:
 1696              	.LBB987:
 1697              	.LBB984:
 1698              		.loc 2 336 55 view .LVU326
 1699 02d8 84F84C30 		strb	r3, [r4, #76]
 1700              	.LVL81:
 1701              		.loc 2 336 55 view .LVU327
 1702              	.LBE984:
 1703              	.LBE987:
 237:../libs/PoliTeKDSP/libs/libDaisy/src/dev/mpr121.h ****     }
 1704              		.loc 2 237 16 view .LVU328
 1705 02dc 9DF83430 		ldrb	r3, [sp, #52]	@ zero_extendqisi2
 1706              	.LVL82:
 237:../libs/PoliTeKDSP/libs/libDaisy/src/dev/mpr121.h ****     }
 1707              		.loc 2 237 16 view .LVU329
 1708              	.LBE993:
 1709              	.LBE1007:
 271:../libs/PoliTeKDSP/libs/libDaisy/src/dev/mpr121.h ****             // clear this register to set stop mode
 1710              		.loc 2 271 21 view .LVU330
 1711 02e0 8DF834A0 		strb	r10, [sp, #52]
 1712              	.LVL83:
 1713              	.LBB1008:
 1714              	.LBI997:
  71:../libs/PoliTeKDSP/libs/libDaisy/src/dev/mpr121.h ****     {
 1715              		.loc 2 71 10 is_stmt 1 view .LVU331
 1716              	.LBB1001:
  73:../libs/PoliTeKDSP/libs/libDaisy/src/dev/mpr121.h ****                != i2c_.WriteDataAtAddress(
ARM GAS  C:\Users\skipi\AppData\Local\Temp\ccUZkxb5.s 			page 46


 1717              		.loc 2 73 9 view .LVU332
 1718              	.LBE1001:
 1719              	.LBE1008:
 270:../libs/PoliTeKDSP/libs/libDaisy/src/dev/mpr121.h ****             uint8_t zero = 0x00;
 1720              		.loc 2 270 26 is_stmt 0 view .LVU333
 1721 02e4 8DF82030 		strb	r3, [sp, #32]
 1722              	.LBB1009:
 1723              	.LBB1002:
  74:../libs/PoliTeKDSP/libs/libDaisy/src/dev/mpr121.h ****                    config_.dev_addr, address, 1, data, size, 10);
 1724              		.loc 2 74 42 view .LVU334
 1725 02e8 2B46     		mov	r3, r5
 1726 02ea FFF7FEFF 		bl	_ZN5daisy9I2CHandle18WriteDataAtAddressEtttPhtm
 1727              	.LVL84:
  74:../libs/PoliTeKDSP/libs/libDaisy/src/dev/mpr121.h ****                    config_.dev_addr, address, 1, data, size, 10);
 1728              		.loc 2 74 42 view .LVU335
 1729              	.LBE1002:
 1730              	.LBE1009:
 1731              	.LBB1010:
 1732              	.LBI1010:
 1733              		.loc 2 336 10 is_stmt 1 view .LVU336
 1734              	.LBE1010:
 1735              	.LBE1019:
 1736              	.LBB1020:
 1737              	.LBB1021:
  74:../libs/PoliTeKDSP/libs/libDaisy/src/dev/mpr121.h ****                    config_.dev_addr, address, 1, data, size, 10);
 1738              		.loc 2 74 42 is_stmt 0 view .LVU337
 1739 02ee CDF800B0 		str	fp, [sp]
 1740 02f2 09EB0502 		add	r2, r9, r5
 1741              	.LBE1021:
 1742              	.LBE1020:
 1743              	.LBE1054:
 1744              	.LBE1063:
 181:../libs/PoliTeKDSP/libs/libDaisy/src/dev/mpr121.h ****         {
 1745              		.loc 2 181 30 view .LVU338
 1746 02f6 09F10209 		add	r9, r9, #2
 1747              	.LVL85:
 1748              	.LBB1064:
 1749              	.LBB1055:
 1750              	.LBB1026:
 1751              	.LBB1022:
  74:../libs/PoliTeKDSP/libs/libDaisy/src/dev/mpr121.h ****                    config_.dev_addr, address, 1, data, size, 10);
 1752              		.loc 2 74 42 view .LVU339
 1753 02fa CDE90157 		strd	r5, r7, [sp, #4]
 1754              	.LBE1022:
 1755              	.LBE1026:
 1756              	.LBB1027:
 1757              	.LBB1014:
 1758              	.LBB1011:
 1759              		.loc 2 336 55 view .LVU340
 1760 02fe 94F84C30 		ldrb	r3, [r4, #76]	@ zero_extendqisi2
 1761              	.LBE1011:
 1762              	.LBE1014:
 1763              	.LBE1027:
 1764              	.LBB1028:
 1765              	.LBB1023:
  74:../libs/PoliTeKDSP/libs/libDaisy/src/dev/mpr121.h ****                    config_.dev_addr, address, 1, data, size, 10);
 1766              		.loc 2 74 42 view .LVU341
ARM GAS  C:\Users\skipi\AppData\Local\Temp\ccUZkxb5.s 			page 47


 1767 0302 92B2     		uxth	r2, r2
 1768 0304 94F84810 		ldrb	r1, [r4, #72]	@ zero_extendqisi2
 1769              	.LBE1023:
 1770              	.LBE1028:
 1771              	.LBE1055:
 1772              	.LBE1064:
 181:../libs/PoliTeKDSP/libs/libDaisy/src/dev/mpr121.h ****         {
 1773              		.loc 2 181 30 view .LVU342
 1774 0308 1FFA89F9 		uxth	r9, r9
 1775              	.LBB1065:
 1776              	.LBB1056:
 1777              	.LBB1029:
 1778              	.LBB1015:
 1779              	.LBB1012:
 1780              		.loc 2 336 55 view .LVU343
 1781 030c 5045     		cmp	r0, r10
 1782 030e 18BF     		it	ne
 1783 0310 43F00103 		orrne	r3, r3, #1
 1784              	.LBE1012:
 1785              	.LBE1015:
 1786              	.LBE1029:
 1787              	.LBB1030:
 1788              	.LBB1024:
  74:../libs/PoliTeKDSP/libs/libDaisy/src/dev/mpr121.h ****                    config_.dev_addr, address, 1, data, size, 10);
 1789              		.loc 2 74 42 view .LVU344
 1790 0314 3046     		mov	r0, r6
 1791              	.LVL86:
  74:../libs/PoliTeKDSP/libs/libDaisy/src/dev/mpr121.h ****                    config_.dev_addr, address, 1, data, size, 10);
 1792              		.loc 2 74 42 view .LVU345
 1793              	.LBE1024:
 1794              	.LBE1030:
 1795              	.LBB1031:
 1796              	.LBB1016:
 1797              	.LBB1013:
 1798              		.loc 2 336 55 view .LVU346
 1799 0316 84F84C30 		strb	r3, [r4, #76]
 1800              	.LVL87:
 1801              		.loc 2 336 55 view .LVU347
 1802              	.LBE1013:
 1803              	.LBE1016:
 1804              	.LBE1031:
 1805              	.LBB1032:
 1806              	.LBI1020:
  71:../libs/PoliTeKDSP/libs/libDaisy/src/dev/mpr121.h ****     {
 1807              		.loc 2 71 10 is_stmt 1 view .LVU348
 1808              	.LBB1025:
  73:../libs/PoliTeKDSP/libs/libDaisy/src/dev/mpr121.h ****                != i2c_.WriteDataAtAddress(
 1809              		.loc 2 73 9 view .LVU349
  74:../libs/PoliTeKDSP/libs/libDaisy/src/dev/mpr121.h ****                    config_.dev_addr, address, 1, data, size, 10);
 1810              		.loc 2 74 42 is_stmt 0 view .LVU350
 1811 031a 2B46     		mov	r3, r5
 1812 031c FFF7FEFF 		bl	_ZN5daisy9I2CHandle18WriteDataAtAddressEtttPhtm
 1813              	.LVL88:
  74:../libs/PoliTeKDSP/libs/libDaisy/src/dev/mpr121.h ****                    config_.dev_addr, address, 1, data, size, 10);
 1814              		.loc 2 74 42 view .LVU351
 1815              	.LBE1025:
 1816              	.LBE1032:
ARM GAS  C:\Users\skipi\AppData\Local\Temp\ccUZkxb5.s 			page 48


 1817              	.LBB1033:
 1818              	.LBI1033:
 1819              		.loc 2 336 10 is_stmt 1 view .LVU352
 1820              	.LBE1033:
 1821              	.LBB1037:
 1822              	.LBB1038:
  74:../libs/PoliTeKDSP/libs/libDaisy/src/dev/mpr121.h ****                    config_.dev_addr, address, 1, data, size, 10);
 1823              		.loc 2 74 42 is_stmt 0 view .LVU353
 1824 0320 08AB     		add	r3, sp, #32
 1825 0322 5E22     		movs	r2, #94
 1826 0324 0093     		str	r3, [sp]
 1827 0326 CDE90157 		strd	r5, r7, [sp, #4]
 1828              	.LBE1038:
 1829              	.LBE1037:
 1830              	.LBB1042:
 1831              	.LBB1034:
 1832              		.loc 2 336 55 view .LVU354
 1833 032a 94F84C30 		ldrb	r3, [r4, #76]	@ zero_extendqisi2
 1834              	.LBE1034:
 1835              	.LBE1042:
 1836              	.LBB1043:
 1837              	.LBB1039:
  74:../libs/PoliTeKDSP/libs/libDaisy/src/dev/mpr121.h ****                    config_.dev_addr, address, 1, data, size, 10);
 1838              		.loc 2 74 42 view .LVU355
 1839 032e 94F84810 		ldrb	r1, [r4, #72]	@ zero_extendqisi2
 1840              	.LBE1039:
 1841              	.LBE1043:
 1842              	.LBB1044:
 1843              	.LBB1035:
 1844              		.loc 2 336 55 view .LVU356
 1845 0332 5045     		cmp	r0, r10
 1846 0334 18BF     		it	ne
 1847 0336 43F00103 		orrne	r3, r3, #1
 1848              	.LBE1035:
 1849              	.LBE1044:
 1850              	.LBB1045:
 1851              	.LBB1040:
  74:../libs/PoliTeKDSP/libs/libDaisy/src/dev/mpr121.h ****                    config_.dev_addr, address, 1, data, size, 10);
 1852              		.loc 2 74 42 view .LVU357
 1853 033a 3046     		mov	r0, r6
 1854              	.LVL89:
  74:../libs/PoliTeKDSP/libs/libDaisy/src/dev/mpr121.h ****                    config_.dev_addr, address, 1, data, size, 10);
 1855              		.loc 2 74 42 view .LVU358
 1856              	.LBE1040:
 1857              	.LBE1045:
 1858              	.LBB1046:
 1859              	.LBB1036:
 1860              		.loc 2 336 55 view .LVU359
 1861 033c 84F84C30 		strb	r3, [r4, #76]
 1862              	.LVL90:
 1863              		.loc 2 336 55 view .LVU360
 1864              	.LBE1036:
 1865              	.LBE1046:
 1866              	.LBB1047:
 1867              	.LBI1037:
  71:../libs/PoliTeKDSP/libs/libDaisy/src/dev/mpr121.h ****     {
 1868              		.loc 2 71 10 is_stmt 1 view .LVU361
ARM GAS  C:\Users\skipi\AppData\Local\Temp\ccUZkxb5.s 			page 49


 1869              	.LBB1041:
  73:../libs/PoliTeKDSP/libs/libDaisy/src/dev/mpr121.h ****                != i2c_.WriteDataAtAddress(
 1870              		.loc 2 73 9 view .LVU362
  74:../libs/PoliTeKDSP/libs/libDaisy/src/dev/mpr121.h ****                    config_.dev_addr, address, 1, data, size, 10);
 1871              		.loc 2 74 42 is_stmt 0 view .LVU363
 1872 0340 2B46     		mov	r3, r5
 1873 0342 FFF7FEFF 		bl	_ZN5daisy9I2CHandle18WriteDataAtAddressEtttPhtm
 1874              	.LVL91:
  74:../libs/PoliTeKDSP/libs/libDaisy/src/dev/mpr121.h ****                    config_.dev_addr, address, 1, data, size, 10);
 1875              		.loc 2 74 42 view .LVU364
 1876              	.LBE1041:
 1877              	.LBE1047:
 1878              	.LBB1048:
 1879              	.LBI1048:
 1880              		.loc 2 336 10 is_stmt 1 view .LVU365
 1881              	.LBB1049:
 1882              		.loc 2 336 55 is_stmt 0 view .LVU366
 1883 0346 94F84C30 		ldrb	r3, [r4, #76]	@ zero_extendqisi2
 1884 034a 5045     		cmp	r0, r10
 1885 034c 18BF     		it	ne
 1886 034e 43F00103 		orrne	r3, r3, #1
 1887              	.LBE1049:
 1888              	.LBE1048:
 1889              	.LBE1056:
 1890              	.LBE1065:
 181:../libs/PoliTeKDSP/libs/libDaisy/src/dev/mpr121.h ****         {
 1891              		.loc 2 181 30 view .LVU367
 1892 0352 B9F1590F 		cmp	r9, #89
 1893              	.LBB1066:
 1894              	.LBB1057:
 1895              	.LBB1051:
 1896              	.LBB1050:
 1897              		.loc 2 336 55 view .LVU368
 1898 0356 84F84C30 		strb	r3, [r4, #76]
 1899              	.LVL92:
 1900              		.loc 2 336 55 view .LVU369
 1901              	.LBE1050:
 1902              	.LBE1051:
 1903              	.LBE1057:
 1904              	.LBE1066:
 181:../libs/PoliTeKDSP/libs/libDaisy/src/dev/mpr121.h ****         {
 1905              		.loc 2 181 9 is_stmt 1 view .LVU370
 181:../libs/PoliTeKDSP/libs/libDaisy/src/dev/mpr121.h ****         {
 1906              		.loc 2 181 30 view .LVU371
 1907 035a 7FF448AF 		bne	.L11
 1908              	.LVL93:
 181:../libs/PoliTeKDSP/libs/libDaisy/src/dev/mpr121.h ****         {
 1909              		.loc 2 181 30 is_stmt 0 view .LVU372
 1910              	.LBE884:
 1911              	.LBE883:
 1912              	.LBB1067:
 1913              	.LBB1068:
 1914              	.LBB1069:
 1915              	.LBB1070:
 1916              	.LBB1071:
 1917              	.LBB1072:
 1918              	.LBB1073:
ARM GAS  C:\Users\skipi\AppData\Local\Temp\ccUZkxb5.s 			page 50


  66:../libs/PoliTeKDSP/libs/libDaisy/src/dev/mpr121.h ****                    config_.dev_addr, address, 1, data, size, 10);
 1919              		.loc 2 66 41 view .LVU373
 1920 035e 2B46     		mov	r3, r5
 1921 0360 5E22     		movs	r2, #94
 1922 0362 CDF80080 		str	r8, [sp]
 1923 0366 3046     		mov	r0, r6
 1924 0368 8DF81F50 		strb	r5, [sp, #31]
 1925              	.LVL94:
  66:../libs/PoliTeKDSP/libs/libDaisy/src/dev/mpr121.h ****                    config_.dev_addr, address, 1, data, size, 10);
 1926              		.loc 2 66 41 view .LVU374
 1927              	.LBE1073:
 1928              	.LBE1072:
 1929              	.LBE1071:
 1930              	.LBE1070:
 1931              	.LBE1069:
 1932              	.LBE1068:
 1933              	.LBI1067:
 257:../libs/PoliTeKDSP/libs/libDaisy/src/dev/mpr121.h ****     {
 1934              		.loc 2 257 10 is_stmt 1 view .LVU375
 1935              	.LBB1142:
 1936              	.LBB1108:
 1937              	.LBB1087:
 1938              	.LBI1070:
 232:../libs/PoliTeKDSP/libs/libDaisy/src/dev/mpr121.h ****     {
 1939              		.loc 2 232 13 view .LVU376
 1940              	.LBB1083:
 1941              	.LBB1075:
 1942              	.LBI1072:
  63:../libs/PoliTeKDSP/libs/libDaisy/src/dev/mpr121.h ****     {
 1943              		.loc 2 63 10 view .LVU377
 1944              	.LBB1074:
  65:../libs/PoliTeKDSP/libs/libDaisy/src/dev/mpr121.h ****                != i2c_.ReadDataAtAddress(
 1945              		.loc 2 65 9 view .LVU378
  66:../libs/PoliTeKDSP/libs/libDaisy/src/dev/mpr121.h ****                    config_.dev_addr, address, 1, data, size, 10);
 1946              		.loc 2 66 41 is_stmt 0 view .LVU379
 1947 036c CDE90157 		strd	r5, r7, [sp, #4]
 1948 0370 94F84810 		ldrb	r1, [r4, #72]	@ zero_extendqisi2
 1949 0374 FFF7FEFF 		bl	_ZN5daisy9I2CHandle17ReadDataAtAddressEtttPhtm
 1950              	.LVL95:
  66:../libs/PoliTeKDSP/libs/libDaisy/src/dev/mpr121.h ****                    config_.dev_addr, address, 1, data, size, 10);
 1951              		.loc 2 66 41 view .LVU380
 1952              	.LBE1074:
 1953              	.LBE1075:
 1954              	.LBB1076:
 1955              	.LBI1076:
 1956              		.loc 2 336 10 is_stmt 1 view .LVU381
 1957              	.LBE1076:
 1958              	.LBE1083:
 1959              	.LBE1087:
 1960              	.LBB1088:
 1961              	.LBB1089:
  74:../libs/PoliTeKDSP/libs/libDaisy/src/dev/mpr121.h ****                    config_.dev_addr, address, 1, data, size, 10);
 1962              		.loc 2 74 42 is_stmt 0 view .LVU382
 1963 0378 CDF80080 		str	r8, [sp]
 1964 037c 5E22     		movs	r2, #94
 1965 037e CDE90157 		strd	r5, r7, [sp, #4]
 1966              	.LBE1089:
ARM GAS  C:\Users\skipi\AppData\Local\Temp\ccUZkxb5.s 			page 51


 1967              	.LBE1088:
 1968              	.LBB1094:
 1969              	.LBB1084:
 1970              	.LBB1080:
 1971              	.LBB1077:
 1972              		.loc 2 336 55 view .LVU383
 1973 0382 94F84C30 		ldrb	r3, [r4, #76]	@ zero_extendqisi2
 1974              	.LBE1077:
 1975              	.LBE1080:
 1976              	.LBE1084:
 1977              	.LBE1094:
 1978              	.LBB1095:
 1979              	.LBB1090:
  74:../libs/PoliTeKDSP/libs/libDaisy/src/dev/mpr121.h ****                    config_.dev_addr, address, 1, data, size, 10);
 1980              		.loc 2 74 42 view .LVU384
 1981 0386 94F84810 		ldrb	r1, [r4, #72]	@ zero_extendqisi2
 1982              	.LBE1090:
 1983              	.LBE1095:
 1984              	.LBB1096:
 1985              	.LBB1085:
 1986              	.LBB1081:
 1987              	.LBB1078:
 1988              		.loc 2 336 55 view .LVU385
 1989 038a 5045     		cmp	r0, r10
 1990 038c 18BF     		it	ne
 1991 038e 43F00103 		orrne	r3, r3, #1
 1992              	.LBE1078:
 1993              	.LBE1081:
 1994              	.LBE1085:
 1995              	.LBE1096:
 1996              	.LBB1097:
 1997              	.LBB1091:
  74:../libs/PoliTeKDSP/libs/libDaisy/src/dev/mpr121.h ****                    config_.dev_addr, address, 1, data, size, 10);
 1998              		.loc 2 74 42 view .LVU386
 1999 0392 3046     		mov	r0, r6
 2000              	.LVL96:
  74:../libs/PoliTeKDSP/libs/libDaisy/src/dev/mpr121.h ****                    config_.dev_addr, address, 1, data, size, 10);
 2001              		.loc 2 74 42 view .LVU387
 2002              	.LBE1091:
 2003              	.LBE1097:
 2004              	.LBB1098:
 2005              	.LBB1086:
 2006              	.LBB1082:
 2007              	.LBB1079:
 2008              		.loc 2 336 55 view .LVU388
 2009 0394 84F84C30 		strb	r3, [r4, #76]
 2010              	.LVL97:
 2011              		.loc 2 336 55 view .LVU389
 2012              	.LBE1079:
 2013              	.LBE1082:
 237:../libs/PoliTeKDSP/libs/libDaisy/src/dev/mpr121.h ****     }
 2014              		.loc 2 237 16 view .LVU390
 2015 0398 9DF83430 		ldrb	r3, [sp, #52]	@ zero_extendqisi2
 2016              	.LVL98:
 237:../libs/PoliTeKDSP/libs/libDaisy/src/dev/mpr121.h ****     }
 2017              		.loc 2 237 16 view .LVU391
 2018              	.LBE1086:
ARM GAS  C:\Users\skipi\AppData\Local\Temp\ccUZkxb5.s 			page 52


 2019              	.LBE1098:
 271:../libs/PoliTeKDSP/libs/libDaisy/src/dev/mpr121.h ****             // clear this register to set stop mode
 2020              		.loc 2 271 21 view .LVU392
 2021 039c 8DF834A0 		strb	r10, [sp, #52]
 2022              	.LVL99:
 2023              	.LBB1099:
 2024              	.LBI1088:
  71:../libs/PoliTeKDSP/libs/libDaisy/src/dev/mpr121.h ****     {
 2025              		.loc 2 71 10 is_stmt 1 view .LVU393
 2026              	.LBB1092:
  73:../libs/PoliTeKDSP/libs/libDaisy/src/dev/mpr121.h ****                != i2c_.WriteDataAtAddress(
 2027              		.loc 2 73 9 view .LVU394
 2028              	.LBE1092:
 2029              	.LBE1099:
 270:../libs/PoliTeKDSP/libs/libDaisy/src/dev/mpr121.h ****             uint8_t zero = 0x00;
 2030              		.loc 2 270 26 is_stmt 0 view .LVU395
 2031 03a0 8DF82030 		strb	r3, [sp, #32]
 2032              	.LBB1100:
 2033              	.LBB1093:
  74:../libs/PoliTeKDSP/libs/libDaisy/src/dev/mpr121.h ****                    config_.dev_addr, address, 1, data, size, 10);
 2034              		.loc 2 74 42 view .LVU396
 2035 03a4 2B46     		mov	r3, r5
 2036 03a6 FFF7FEFF 		bl	_ZN5daisy9I2CHandle18WriteDataAtAddressEtttPhtm
 2037              	.LVL100:
  74:../libs/PoliTeKDSP/libs/libDaisy/src/dev/mpr121.h ****                    config_.dev_addr, address, 1, data, size, 10);
 2038              		.loc 2 74 42 view .LVU397
 2039              	.LBE1093:
 2040              	.LBE1100:
 2041              	.LBB1101:
 2042              	.LBI1101:
 2043              		.loc 2 336 10 is_stmt 1 view .LVU398
 2044              	.LBE1101:
 2045              	.LBE1108:
 2046              	.LBB1109:
 2047              	.LBB1110:
  74:../libs/PoliTeKDSP/libs/libDaisy/src/dev/mpr121.h ****                    config_.dev_addr, address, 1, data, size, 10);
 2048              		.loc 2 74 42 is_stmt 0 view .LVU399
 2049 03aa CDF800B0 		str	fp, [sp]
 2050 03ae 2B22     		movs	r2, #43
 2051 03b0 CDE90157 		strd	r5, r7, [sp, #4]
 2052              	.LBE1110:
 2053              	.LBE1109:
 2054              	.LBB1114:
 2055              	.LBB1105:
 2056              	.LBB1102:
 2057              		.loc 2 336 55 view .LVU400
 2058 03b4 94F84C30 		ldrb	r3, [r4, #76]	@ zero_extendqisi2
 2059              	.LBE1102:
 2060              	.LBE1105:
 2061              	.LBE1114:
 2062              	.LBB1115:
 2063              	.LBB1111:
  74:../libs/PoliTeKDSP/libs/libDaisy/src/dev/mpr121.h ****                    config_.dev_addr, address, 1, data, size, 10);
 2064              		.loc 2 74 42 view .LVU401
 2065 03b8 94F84810 		ldrb	r1, [r4, #72]	@ zero_extendqisi2
 2066              	.LBE1111:
 2067              	.LBE1115:
ARM GAS  C:\Users\skipi\AppData\Local\Temp\ccUZkxb5.s 			page 53


 2068              	.LBB1116:
 2069              	.LBB1106:
 2070              	.LBB1103:
 2071              		.loc 2 336 55 view .LVU402
 2072 03bc 5045     		cmp	r0, r10
 2073 03be 18BF     		it	ne
 2074 03c0 43F00103 		orrne	r3, r3, #1
 2075              	.LBE1103:
 2076              	.LBE1106:
 2077              	.LBE1116:
 2078              	.LBB1117:
 2079              	.LBB1112:
  74:../libs/PoliTeKDSP/libs/libDaisy/src/dev/mpr121.h ****                    config_.dev_addr, address, 1, data, size, 10);
 2080              		.loc 2 74 42 view .LVU403
 2081 03c4 3046     		mov	r0, r6
 2082              	.LVL101:
  74:../libs/PoliTeKDSP/libs/libDaisy/src/dev/mpr121.h ****                    config_.dev_addr, address, 1, data, size, 10);
 2083              		.loc 2 74 42 view .LVU404
 2084              	.LBE1112:
 2085              	.LBE1117:
 2086              	.LBB1118:
 2087              	.LBB1107:
 2088              	.LBB1104:
 2089              		.loc 2 336 55 view .LVU405
 2090 03c6 84F84C30 		strb	r3, [r4, #76]
 2091              	.LVL102:
 2092              		.loc 2 336 55 view .LVU406
 2093              	.LBE1104:
 2094              	.LBE1107:
 2095              	.LBE1118:
 2096              	.LBB1119:
 2097              	.LBI1109:
  71:../libs/PoliTeKDSP/libs/libDaisy/src/dev/mpr121.h ****     {
 2098              		.loc 2 71 10 is_stmt 1 view .LVU407
 2099              	.LBB1113:
  73:../libs/PoliTeKDSP/libs/libDaisy/src/dev/mpr121.h ****                != i2c_.WriteDataAtAddress(
 2100              		.loc 2 73 9 view .LVU408
  74:../libs/PoliTeKDSP/libs/libDaisy/src/dev/mpr121.h ****                    config_.dev_addr, address, 1, data, size, 10);
 2101              		.loc 2 74 42 is_stmt 0 view .LVU409
 2102 03ca 2B46     		mov	r3, r5
 2103 03cc FFF7FEFF 		bl	_ZN5daisy9I2CHandle18WriteDataAtAddressEtttPhtm
 2104              	.LVL103:
  74:../libs/PoliTeKDSP/libs/libDaisy/src/dev/mpr121.h ****                    config_.dev_addr, address, 1, data, size, 10);
 2105              		.loc 2 74 42 view .LVU410
 2106              	.LBE1113:
 2107              	.LBE1119:
 2108              	.LBB1120:
 2109              	.LBI1120:
 2110              		.loc 2 336 10 is_stmt 1 view .LVU411
 2111              	.LBE1120:
 2112              	.LBB1124:
 2113              	.LBB1125:
  74:../libs/PoliTeKDSP/libs/libDaisy/src/dev/mpr121.h ****                    config_.dev_addr, address, 1, data, size, 10);
 2114              		.loc 2 74 42 is_stmt 0 view .LVU412
 2115 03d0 08AB     		add	r3, sp, #32
 2116 03d2 5E22     		movs	r2, #94
 2117 03d4 0093     		str	r3, [sp]
ARM GAS  C:\Users\skipi\AppData\Local\Temp\ccUZkxb5.s 			page 54


 2118 03d6 CDE90157 		strd	r5, r7, [sp, #4]
 2119              	.LBE1125:
 2120              	.LBE1124:
 2121              	.LBB1129:
 2122              	.LBB1121:
 2123              		.loc 2 336 55 view .LVU413
 2124 03da 94F84C30 		ldrb	r3, [r4, #76]	@ zero_extendqisi2
 2125              	.LBE1121:
 2126              	.LBE1129:
 2127              	.LBB1130:
 2128              	.LBB1126:
  74:../libs/PoliTeKDSP/libs/libDaisy/src/dev/mpr121.h ****                    config_.dev_addr, address, 1, data, size, 10);
 2129              		.loc 2 74 42 view .LVU414
 2130 03de 94F84810 		ldrb	r1, [r4, #72]	@ zero_extendqisi2
 2131              	.LBE1126:
 2132              	.LBE1130:
 2133              	.LBB1131:
 2134              	.LBB1122:
 2135              		.loc 2 336 55 view .LVU415
 2136 03e2 5045     		cmp	r0, r10
 2137 03e4 18BF     		it	ne
 2138 03e6 43F00103 		orrne	r3, r3, #1
 2139              	.LBE1122:
 2140              	.LBE1131:
 2141              	.LBB1132:
 2142              	.LBB1127:
  74:../libs/PoliTeKDSP/libs/libDaisy/src/dev/mpr121.h ****                    config_.dev_addr, address, 1, data, size, 10);
 2143              		.loc 2 74 42 view .LVU416
 2144 03ea 3046     		mov	r0, r6
 2145              	.LVL104:
  74:../libs/PoliTeKDSP/libs/libDaisy/src/dev/mpr121.h ****                    config_.dev_addr, address, 1, data, size, 10);
 2146              		.loc 2 74 42 view .LVU417
 2147              	.LBE1127:
 2148              	.LBE1132:
 2149              	.LBB1133:
 2150              	.LBB1123:
 2151              		.loc 2 336 55 view .LVU418
 2152 03ec 84F84C30 		strb	r3, [r4, #76]
 2153              	.LVL105:
 2154              		.loc 2 336 55 view .LVU419
 2155              	.LBE1123:
 2156              	.LBE1133:
 2157              	.LBB1134:
 2158              	.LBI1124:
  71:../libs/PoliTeKDSP/libs/libDaisy/src/dev/mpr121.h ****     {
 2159              		.loc 2 71 10 is_stmt 1 view .LVU420
 2160              	.LBB1128:
  73:../libs/PoliTeKDSP/libs/libDaisy/src/dev/mpr121.h ****                != i2c_.WriteDataAtAddress(
 2161              		.loc 2 73 9 view .LVU421
  74:../libs/PoliTeKDSP/libs/libDaisy/src/dev/mpr121.h ****                    config_.dev_addr, address, 1, data, size, 10);
 2162              		.loc 2 74 42 is_stmt 0 view .LVU422
 2163 03f0 2B46     		mov	r3, r5
 2164 03f2 FFF7FEFF 		bl	_ZN5daisy9I2CHandle18WriteDataAtAddressEtttPhtm
 2165              	.LVL106:
  74:../libs/PoliTeKDSP/libs/libDaisy/src/dev/mpr121.h ****                    config_.dev_addr, address, 1, data, size, 10);
 2166              		.loc 2 74 42 view .LVU423
 2167              	.LBE1128:
ARM GAS  C:\Users\skipi\AppData\Local\Temp\ccUZkxb5.s 			page 55


 2168              	.LBE1134:
 2169              	.LBB1135:
 2170              	.LBI1135:
 2171              		.loc 2 336 10 is_stmt 1 view .LVU424
 2172              	.LBE1135:
 2173              	.LBE1142:
 2174              	.LBE1067:
 2175              	.LBB1146:
 2176              	.LBB1147:
 2177              	.LBB1148:
 2178              	.LBB1149:
 2179              	.LBB1150:
 2180              	.LBB1151:
 2181              	.LBB1152:
  66:../libs/PoliTeKDSP/libs/libDaisy/src/dev/mpr121.h ****                    config_.dev_addr, address, 1, data, size, 10);
 2182              		.loc 2 66 41 is_stmt 0 view .LVU425
 2183 03f6 CDF80080 		str	r8, [sp]
 2184 03fa 5E22     		movs	r2, #94
 2185 03fc 8DF81F50 		strb	r5, [sp, #31]
 2186 0400 CDE90157 		strd	r5, r7, [sp, #4]
 2187              	.LBE1152:
 2188              	.LBE1151:
 2189              	.LBE1150:
 2190              	.LBE1149:
 2191              	.LBE1148:
 2192              	.LBE1147:
 2193              	.LBE1146:
 2194              	.LBB1237:
 2195              	.LBB1143:
 2196              	.LBB1139:
 2197              	.LBB1136:
 2198              		.loc 2 336 55 view .LVU426
 2199 0404 94F84C30 		ldrb	r3, [r4, #76]	@ zero_extendqisi2
 2200              	.LBE1136:
 2201              	.LBE1139:
 2202              	.LBE1143:
 2203              	.LBE1237:
 2204              	.LBB1238:
 2205              	.LBB1231:
 2206              	.LBB1195:
 2207              	.LBB1172:
 2208              	.LBB1166:
 2209              	.LBB1156:
 2210              	.LBB1153:
  66:../libs/PoliTeKDSP/libs/libDaisy/src/dev/mpr121.h ****                    config_.dev_addr, address, 1, data, size, 10);
 2211              		.loc 2 66 41 view .LVU427
 2212 0408 94F84810 		ldrb	r1, [r4, #72]	@ zero_extendqisi2
 2213              	.LBE1153:
 2214              	.LBE1156:
 2215              	.LBE1166:
 2216              	.LBE1172:
 2217              	.LBE1195:
 2218              	.LBE1231:
 2219              	.LBE1238:
 2220              	.LBB1239:
 2221              	.LBB1144:
 2222              	.LBB1140:
ARM GAS  C:\Users\skipi\AppData\Local\Temp\ccUZkxb5.s 			page 56


 2223              	.LBB1137:
 2224              		.loc 2 336 55 view .LVU428
 2225 040c 5045     		cmp	r0, r10
 2226 040e 18BF     		it	ne
 2227 0410 43F00103 		orrne	r3, r3, #1
 2228              	.LBE1137:
 2229              	.LBE1140:
 2230              	.LBE1144:
 2231              	.LBE1239:
 2232              	.LBB1240:
 2233              	.LBB1232:
 2234              	.LBB1196:
 2235              	.LBB1173:
 2236              	.LBB1167:
 2237              	.LBB1157:
 2238              	.LBB1154:
  66:../libs/PoliTeKDSP/libs/libDaisy/src/dev/mpr121.h ****                    config_.dev_addr, address, 1, data, size, 10);
 2239              		.loc 2 66 41 view .LVU429
 2240 0414 3046     		mov	r0, r6
 2241              	.LVL107:
  66:../libs/PoliTeKDSP/libs/libDaisy/src/dev/mpr121.h ****                    config_.dev_addr, address, 1, data, size, 10);
 2242              		.loc 2 66 41 view .LVU430
 2243              	.LBE1154:
 2244              	.LBE1157:
 2245              	.LBE1167:
 2246              	.LBE1173:
 2247              	.LBE1196:
 2248              	.LBE1232:
 2249              	.LBE1240:
 2250              	.LBB1241:
 2251              	.LBB1145:
 2252              	.LBB1141:
 2253              	.LBB1138:
 2254              		.loc 2 336 55 view .LVU431
 2255 0416 84F84C30 		strb	r3, [r4, #76]
 2256              	.LVL108:
 2257              		.loc 2 336 55 view .LVU432
 2258              	.LBE1138:
 2259              	.LBE1141:
 2260              	.LBE1145:
 2261              	.LBE1241:
 2262              	.LBB1242:
 2263              	.LBI1146:
 257:../libs/PoliTeKDSP/libs/libDaisy/src/dev/mpr121.h ****     {
 2264              		.loc 2 257 10 is_stmt 1 view .LVU433
 2265              	.LBB1233:
 2266              	.LBB1197:
 2267              	.LBB1174:
 2268              	.LBI1149:
 232:../libs/PoliTeKDSP/libs/libDaisy/src/dev/mpr121.h ****     {
 2269              		.loc 2 232 13 view .LVU434
 2270              	.LBB1168:
 2271              	.LBB1158:
 2272              	.LBI1151:
  63:../libs/PoliTeKDSP/libs/libDaisy/src/dev/mpr121.h ****     {
 2273              		.loc 2 63 10 view .LVU435
 2274              	.LBB1155:
ARM GAS  C:\Users\skipi\AppData\Local\Temp\ccUZkxb5.s 			page 57


  65:../libs/PoliTeKDSP/libs/libDaisy/src/dev/mpr121.h ****                != i2c_.ReadDataAtAddress(
 2275              		.loc 2 65 9 view .LVU436
  66:../libs/PoliTeKDSP/libs/libDaisy/src/dev/mpr121.h ****                    config_.dev_addr, address, 1, data, size, 10);
 2276              		.loc 2 66 41 is_stmt 0 view .LVU437
 2277 041a 2B46     		mov	r3, r5
 2278 041c FFF7FEFF 		bl	_ZN5daisy9I2CHandle17ReadDataAtAddressEtttPhtm
 2279              	.LVL109:
  66:../libs/PoliTeKDSP/libs/libDaisy/src/dev/mpr121.h ****                    config_.dev_addr, address, 1, data, size, 10);
 2280              		.loc 2 66 41 view .LVU438
 2281              	.LBE1155:
 2282              	.LBE1158:
 2283              	.LBB1159:
 2284              	.LBI1159:
 2285              		.loc 2 336 10 is_stmt 1 view .LVU439
 2286              	.LBE1159:
 2287              	.LBE1168:
 2288              	.LBE1174:
 2289              	.LBB1175:
 2290              	.LBB1176:
  74:../libs/PoliTeKDSP/libs/libDaisy/src/dev/mpr121.h ****                    config_.dev_addr, address, 1, data, size, 10);
 2291              		.loc 2 74 42 is_stmt 0 view .LVU440
 2292 0420 CDF80080 		str	r8, [sp]
 2293 0424 5E22     		movs	r2, #94
 2294 0426 CDE90157 		strd	r5, r7, [sp, #4]
 2295              	.LBE1176:
 2296              	.LBE1175:
 2297              	.LBB1181:
 2298              	.LBB1169:
 2299              	.LBB1163:
 2300              	.LBB1160:
 2301              		.loc 2 336 55 view .LVU441
 2302 042a 94F84C30 		ldrb	r3, [r4, #76]	@ zero_extendqisi2
 2303              	.LBE1160:
 2304              	.LBE1163:
 2305              	.LBE1169:
 2306              	.LBE1181:
 2307              	.LBB1182:
 2308              	.LBB1177:
  74:../libs/PoliTeKDSP/libs/libDaisy/src/dev/mpr121.h ****                    config_.dev_addr, address, 1, data, size, 10);
 2309              		.loc 2 74 42 view .LVU442
 2310 042e 94F84810 		ldrb	r1, [r4, #72]	@ zero_extendqisi2
 2311              	.LBE1177:
 2312              	.LBE1182:
 2313              	.LBB1183:
 2314              	.LBB1170:
 2315              	.LBB1164:
 2316              	.LBB1161:
 2317              		.loc 2 336 55 view .LVU443
 2318 0432 5045     		cmp	r0, r10
 2319 0434 18BF     		it	ne
 2320 0436 43F00103 		orrne	r3, r3, #1
 2321              	.LBE1161:
 2322              	.LBE1164:
 2323              	.LBE1170:
 2324              	.LBE1183:
 2325              	.LBB1184:
 2326              	.LBB1178:
ARM GAS  C:\Users\skipi\AppData\Local\Temp\ccUZkxb5.s 			page 58


  74:../libs/PoliTeKDSP/libs/libDaisy/src/dev/mpr121.h ****                    config_.dev_addr, address, 1, data, size, 10);
 2327              		.loc 2 74 42 view .LVU444
 2328 043a 3046     		mov	r0, r6
 2329              	.LVL110:
  74:../libs/PoliTeKDSP/libs/libDaisy/src/dev/mpr121.h ****                    config_.dev_addr, address, 1, data, size, 10);
 2330              		.loc 2 74 42 view .LVU445
 2331              	.LBE1178:
 2332              	.LBE1184:
 2333              	.LBB1185:
 2334              	.LBB1171:
 2335              	.LBB1165:
 2336              	.LBB1162:
 2337              		.loc 2 336 55 view .LVU446
 2338 043c 84F84C30 		strb	r3, [r4, #76]
 2339              	.LVL111:
 2340              		.loc 2 336 55 view .LVU447
 2341              	.LBE1162:
 2342              	.LBE1165:
 237:../libs/PoliTeKDSP/libs/libDaisy/src/dev/mpr121.h ****     }
 2343              		.loc 2 237 16 view .LVU448
 2344 0440 9DF83430 		ldrb	r3, [sp, #52]	@ zero_extendqisi2
 2345              	.LVL112:
 237:../libs/PoliTeKDSP/libs/libDaisy/src/dev/mpr121.h ****     }
 2346              		.loc 2 237 16 view .LVU449
 2347              	.LBE1171:
 2348              	.LBE1185:
 271:../libs/PoliTeKDSP/libs/libDaisy/src/dev/mpr121.h ****             // clear this register to set stop mode
 2349              		.loc 2 271 21 view .LVU450
 2350 0444 8DF834A0 		strb	r10, [sp, #52]
 2351              	.LVL113:
 2352              	.LBB1186:
 2353              	.LBI1175:
  71:../libs/PoliTeKDSP/libs/libDaisy/src/dev/mpr121.h ****     {
 2354              		.loc 2 71 10 is_stmt 1 view .LVU451
 2355              	.LBB1179:
  73:../libs/PoliTeKDSP/libs/libDaisy/src/dev/mpr121.h ****                != i2c_.WriteDataAtAddress(
 2356              		.loc 2 73 9 view .LVU452
 2357              	.LBE1179:
 2358              	.LBE1186:
 270:../libs/PoliTeKDSP/libs/libDaisy/src/dev/mpr121.h ****             uint8_t zero = 0x00;
 2359              		.loc 2 270 26 is_stmt 0 view .LVU453
 2360 0448 8DF82030 		strb	r3, [sp, #32]
 2361              	.LBB1187:
 2362              	.LBB1180:
  74:../libs/PoliTeKDSP/libs/libDaisy/src/dev/mpr121.h ****                    config_.dev_addr, address, 1, data, size, 10);
 2363              		.loc 2 74 42 view .LVU454
 2364 044c 2B46     		mov	r3, r5
 2365 044e FFF7FEFF 		bl	_ZN5daisy9I2CHandle18WriteDataAtAddressEtttPhtm
 2366              	.LVL114:
  74:../libs/PoliTeKDSP/libs/libDaisy/src/dev/mpr121.h ****                    config_.dev_addr, address, 1, data, size, 10);
 2367              		.loc 2 74 42 view .LVU455
 2368              	.LBE1180:
 2369              	.LBE1187:
 2370              	.LBB1188:
 2371              	.LBI1188:
 2372              		.loc 2 336 10 is_stmt 1 view .LVU456
 2373              	.LBE1188:
ARM GAS  C:\Users\skipi\AppData\Local\Temp\ccUZkxb5.s 			page 59


 2374              	.LBE1197:
 2375              	.LBB1198:
 2376              	.LBB1199:
  74:../libs/PoliTeKDSP/libs/libDaisy/src/dev/mpr121.h ****                    config_.dev_addr, address, 1, data, size, 10);
 2377              		.loc 2 74 42 is_stmt 0 view .LVU457
 2378 0452 CDF800B0 		str	fp, [sp]
 2379 0456 2C22     		movs	r2, #44
 2380 0458 CDE90157 		strd	r5, r7, [sp, #4]
 2381              	.LBE1199:
 2382              	.LBE1198:
 2383              	.LBB1203:
 2384              	.LBB1192:
 2385              	.LBB1189:
 2386              		.loc 2 336 55 view .LVU458
 2387 045c 94F84C30 		ldrb	r3, [r4, #76]	@ zero_extendqisi2
 2388              	.LBE1189:
 2389              	.LBE1192:
 2390              	.LBE1203:
 2391              	.LBB1204:
 2392              	.LBB1200:
  74:../libs/PoliTeKDSP/libs/libDaisy/src/dev/mpr121.h ****                    config_.dev_addr, address, 1, data, size, 10);
 2393              		.loc 2 74 42 view .LVU459
 2394 0460 94F84810 		ldrb	r1, [r4, #72]	@ zero_extendqisi2
 2395              	.LBE1200:
 2396              	.LBE1204:
 2397              	.LBB1205:
 2398              	.LBB1193:
 2399              	.LBB1190:
 2400              		.loc 2 336 55 view .LVU460
 2401 0464 5045     		cmp	r0, r10
 2402 0466 18BF     		it	ne
 2403 0468 43F00103 		orrne	r3, r3, #1
 2404              	.LBE1190:
 2405              	.LBE1193:
 2406              	.LBE1205:
 2407              	.LBB1206:
 2408              	.LBB1201:
  74:../libs/PoliTeKDSP/libs/libDaisy/src/dev/mpr121.h ****                    config_.dev_addr, address, 1, data, size, 10);
 2409              		.loc 2 74 42 view .LVU461
 2410 046c 3046     		mov	r0, r6
 2411              	.LVL115:
  74:../libs/PoliTeKDSP/libs/libDaisy/src/dev/mpr121.h ****                    config_.dev_addr, address, 1, data, size, 10);
 2412              		.loc 2 74 42 view .LVU462
 2413              	.LBE1201:
 2414              	.LBE1206:
 2415              	.LBB1207:
 2416              	.LBB1194:
 2417              	.LBB1191:
 2418              		.loc 2 336 55 view .LVU463
 2419 046e 84F84C30 		strb	r3, [r4, #76]
 2420              	.LVL116:
 2421              		.loc 2 336 55 view .LVU464
 2422              	.LBE1191:
 2423              	.LBE1194:
 2424              	.LBE1207:
 2425              	.LBB1208:
 2426              	.LBI1198:
ARM GAS  C:\Users\skipi\AppData\Local\Temp\ccUZkxb5.s 			page 60


  71:../libs/PoliTeKDSP/libs/libDaisy/src/dev/mpr121.h ****     {
 2427              		.loc 2 71 10 is_stmt 1 view .LVU465
 2428              	.LBB1202:
  73:../libs/PoliTeKDSP/libs/libDaisy/src/dev/mpr121.h ****                != i2c_.WriteDataAtAddress(
 2429              		.loc 2 73 9 view .LVU466
  74:../libs/PoliTeKDSP/libs/libDaisy/src/dev/mpr121.h ****                    config_.dev_addr, address, 1, data, size, 10);
 2430              		.loc 2 74 42 is_stmt 0 view .LVU467
 2431 0472 2B46     		mov	r3, r5
 2432 0474 FFF7FEFF 		bl	_ZN5daisy9I2CHandle18WriteDataAtAddressEtttPhtm
 2433              	.LVL117:
  74:../libs/PoliTeKDSP/libs/libDaisy/src/dev/mpr121.h ****                    config_.dev_addr, address, 1, data, size, 10);
 2434              		.loc 2 74 42 view .LVU468
 2435              	.LBE1202:
 2436              	.LBE1208:
 2437              	.LBB1209:
 2438              	.LBI1209:
 2439              		.loc 2 336 10 is_stmt 1 view .LVU469
 2440              	.LBE1209:
 2441              	.LBB1213:
 2442              	.LBB1214:
  74:../libs/PoliTeKDSP/libs/libDaisy/src/dev/mpr121.h ****                    config_.dev_addr, address, 1, data, size, 10);
 2443              		.loc 2 74 42 is_stmt 0 view .LVU470
 2444 0478 08AB     		add	r3, sp, #32
 2445 047a 5E22     		movs	r2, #94
 2446 047c 0093     		str	r3, [sp]
 2447 047e CDE90157 		strd	r5, r7, [sp, #4]
 2448              	.LBE1214:
 2449              	.LBE1213:
 2450              	.LBB1218:
 2451              	.LBB1210:
 2452              		.loc 2 336 55 view .LVU471
 2453 0482 94F84C30 		ldrb	r3, [r4, #76]	@ zero_extendqisi2
 2454              	.LBE1210:
 2455              	.LBE1218:
 2456              	.LBB1219:
 2457              	.LBB1215:
  74:../libs/PoliTeKDSP/libs/libDaisy/src/dev/mpr121.h ****                    config_.dev_addr, address, 1, data, size, 10);
 2458              		.loc 2 74 42 view .LVU472
 2459 0486 94F84810 		ldrb	r1, [r4, #72]	@ zero_extendqisi2
 2460              	.LBE1215:
 2461              	.LBE1219:
 2462              	.LBB1220:
 2463              	.LBB1211:
 2464              		.loc 2 336 55 view .LVU473
 2465 048a 5045     		cmp	r0, r10
 2466 048c 18BF     		it	ne
 2467 048e 43F00103 		orrne	r3, r3, #1
 2468              	.LBE1211:
 2469              	.LBE1220:
 2470              	.LBB1221:
 2471              	.LBB1216:
  74:../libs/PoliTeKDSP/libs/libDaisy/src/dev/mpr121.h ****                    config_.dev_addr, address, 1, data, size, 10);
 2472              		.loc 2 74 42 view .LVU474
 2473 0492 3046     		mov	r0, r6
 2474              	.LVL118:
  74:../libs/PoliTeKDSP/libs/libDaisy/src/dev/mpr121.h ****                    config_.dev_addr, address, 1, data, size, 10);
 2475              		.loc 2 74 42 view .LVU475
ARM GAS  C:\Users\skipi\AppData\Local\Temp\ccUZkxb5.s 			page 61


 2476              	.LBE1216:
 2477              	.LBE1221:
 2478              	.LBB1222:
 2479              	.LBB1212:
 2480              		.loc 2 336 55 view .LVU476
 2481 0494 84F84C30 		strb	r3, [r4, #76]
 2482              	.LVL119:
 2483              		.loc 2 336 55 view .LVU477
 2484              	.LBE1212:
 2485              	.LBE1222:
 2486              	.LBB1223:
 2487              	.LBI1213:
  71:../libs/PoliTeKDSP/libs/libDaisy/src/dev/mpr121.h ****     {
 2488              		.loc 2 71 10 is_stmt 1 view .LVU478
 2489              	.LBB1217:
  73:../libs/PoliTeKDSP/libs/libDaisy/src/dev/mpr121.h ****                != i2c_.WriteDataAtAddress(
 2490              		.loc 2 73 9 view .LVU479
  74:../libs/PoliTeKDSP/libs/libDaisy/src/dev/mpr121.h ****                    config_.dev_addr, address, 1, data, size, 10);
 2491              		.loc 2 74 42 is_stmt 0 view .LVU480
 2492 0498 2B46     		mov	r3, r5
 2493 049a FFF7FEFF 		bl	_ZN5daisy9I2CHandle18WriteDataAtAddressEtttPhtm
 2494              	.LVL120:
  74:../libs/PoliTeKDSP/libs/libDaisy/src/dev/mpr121.h ****                    config_.dev_addr, address, 1, data, size, 10);
 2495              		.loc 2 74 42 view .LVU481
 2496              	.LBE1217:
 2497              	.LBE1223:
 2498              	.LBB1224:
 2499              	.LBI1224:
 2500              		.loc 2 336 10 is_stmt 1 view .LVU482
 2501              	.LBE1224:
 2502              	.LBE1233:
 2503              	.LBE1242:
 2504              	.LBB1243:
 2505              	.LBB1244:
 2506              	.LBB1245:
 2507              	.LBB1246:
 2508              	.LBB1247:
 2509              	.LBB1248:
 2510              	.LBB1249:
  66:../libs/PoliTeKDSP/libs/libDaisy/src/dev/mpr121.h ****                    config_.dev_addr, address, 1, data, size, 10);
 2511              		.loc 2 66 41 is_stmt 0 view .LVU483
 2512 049e CDF80080 		str	r8, [sp]
 2513 04a2 5E22     		movs	r2, #94
 2514 04a4 CDE90157 		strd	r5, r7, [sp, #4]
 2515              	.LBE1249:
 2516              	.LBE1248:
 2517              	.LBE1247:
 2518              	.LBE1246:
 2519              	.LBE1245:
 2520              	.LBE1244:
 2521              	.LBE1243:
 2522              	.LBB1334:
 2523              	.LBB1234:
 2524              	.LBB1228:
 2525              	.LBB1225:
 2526              		.loc 2 336 55 view .LVU484
 2527 04a8 94F84C30 		ldrb	r3, [r4, #76]	@ zero_extendqisi2
ARM GAS  C:\Users\skipi\AppData\Local\Temp\ccUZkxb5.s 			page 62


 2528              	.LBE1225:
 2529              	.LBE1228:
 2530              	.LBE1234:
 2531              	.LBE1334:
 2532              	.LBB1335:
 2533              	.LBB1328:
 2534              	.LBB1292:
 2535              	.LBB1269:
 2536              	.LBB1263:
 2537              	.LBB1253:
 2538              	.LBB1250:
  66:../libs/PoliTeKDSP/libs/libDaisy/src/dev/mpr121.h ****                    config_.dev_addr, address, 1, data, size, 10);
 2539              		.loc 2 66 41 view .LVU485
 2540 04ac 94F84810 		ldrb	r1, [r4, #72]	@ zero_extendqisi2
 2541              	.LBE1250:
 2542              	.LBE1253:
 2543              	.LBE1263:
 2544              	.LBE1269:
 2545              	.LBE1292:
 2546              	.LBE1328:
 2547              	.LBE1335:
 2548              	.LBB1336:
 2549              	.LBB1235:
 2550              	.LBB1229:
 2551              	.LBB1226:
 2552              		.loc 2 336 55 view .LVU486
 2553 04b0 5045     		cmp	r0, r10
 2554 04b2 18BF     		it	ne
 2555 04b4 43F00103 		orrne	r3, r3, #1
 2556              	.LBE1226:
 2557              	.LBE1229:
 2558              	.LBE1235:
 2559              	.LBE1336:
 2560              	.LBB1337:
 2561              	.LBB1329:
 2562              	.LBB1293:
 2563              	.LBB1270:
 2564              	.LBB1264:
 2565              	.LBB1254:
 2566              	.LBB1251:
  66:../libs/PoliTeKDSP/libs/libDaisy/src/dev/mpr121.h ****                    config_.dev_addr, address, 1, data, size, 10);
 2567              		.loc 2 66 41 view .LVU487
 2568 04b8 3046     		mov	r0, r6
 2569              	.LVL121:
  66:../libs/PoliTeKDSP/libs/libDaisy/src/dev/mpr121.h ****                    config_.dev_addr, address, 1, data, size, 10);
 2570              		.loc 2 66 41 view .LVU488
 2571              	.LBE1251:
 2572              	.LBE1254:
 2573              	.LBE1264:
 2574              	.LBE1270:
 2575              	.LBE1293:
 2576              	.LBE1329:
 2577              	.LBE1337:
 2578              	.LBB1338:
 2579              	.LBB1236:
 2580              	.LBB1230:
 2581              	.LBB1227:
ARM GAS  C:\Users\skipi\AppData\Local\Temp\ccUZkxb5.s 			page 63


 2582              		.loc 2 336 55 view .LVU489
 2583 04ba 84F84C30 		strb	r3, [r4, #76]
 2584              	.LVL122:
 2585              		.loc 2 336 55 view .LVU490
 2586 04be 0E23     		movs	r3, #14
 2587 04c0 8DF81F30 		strb	r3, [sp, #31]
 2588              	.LVL123:
 2589              		.loc 2 336 55 view .LVU491
 2590              	.LBE1227:
 2591              	.LBE1230:
 2592              	.LBE1236:
 2593              	.LBE1338:
 2594              	.LBB1339:
 2595              	.LBI1243:
 257:../libs/PoliTeKDSP/libs/libDaisy/src/dev/mpr121.h ****     {
 2596              		.loc 2 257 10 is_stmt 1 view .LVU492
 2597              	.LBB1330:
 2598              	.LBB1294:
 2599              	.LBB1271:
 2600              	.LBI1246:
 232:../libs/PoliTeKDSP/libs/libDaisy/src/dev/mpr121.h ****     {
 2601              		.loc 2 232 13 view .LVU493
 2602              	.LBB1265:
 2603              	.LBB1255:
 2604              	.LBI1248:
  63:../libs/PoliTeKDSP/libs/libDaisy/src/dev/mpr121.h ****     {
 2605              		.loc 2 63 10 view .LVU494
 2606              	.LBB1252:
  65:../libs/PoliTeKDSP/libs/libDaisy/src/dev/mpr121.h ****                != i2c_.ReadDataAtAddress(
 2607              		.loc 2 65 9 view .LVU495
  66:../libs/PoliTeKDSP/libs/libDaisy/src/dev/mpr121.h ****                    config_.dev_addr, address, 1, data, size, 10);
 2608              		.loc 2 66 41 is_stmt 0 view .LVU496
 2609 04c4 2B46     		mov	r3, r5
 2610              	.LVL124:
  66:../libs/PoliTeKDSP/libs/libDaisy/src/dev/mpr121.h ****                    config_.dev_addr, address, 1, data, size, 10);
 2611              		.loc 2 66 41 view .LVU497
 2612 04c6 FFF7FEFF 		bl	_ZN5daisy9I2CHandle17ReadDataAtAddressEtttPhtm
 2613              	.LVL125:
  66:../libs/PoliTeKDSP/libs/libDaisy/src/dev/mpr121.h ****                    config_.dev_addr, address, 1, data, size, 10);
 2614              		.loc 2 66 41 view .LVU498
 2615              	.LBE1252:
 2616              	.LBE1255:
 2617              	.LBB1256:
 2618              	.LBI1256:
 2619              		.loc 2 336 10 is_stmt 1 view .LVU499
 2620              	.LBE1256:
 2621              	.LBE1265:
 2622              	.LBE1271:
 2623              	.LBB1272:
 2624              	.LBB1273:
  74:../libs/PoliTeKDSP/libs/libDaisy/src/dev/mpr121.h ****                    config_.dev_addr, address, 1, data, size, 10);
 2625              		.loc 2 74 42 is_stmt 0 view .LVU500
 2626 04ca CDF80080 		str	r8, [sp]
 2627 04ce 5E22     		movs	r2, #94
 2628 04d0 CDE90157 		strd	r5, r7, [sp, #4]
 2629              	.LBE1273:
 2630              	.LBE1272:
ARM GAS  C:\Users\skipi\AppData\Local\Temp\ccUZkxb5.s 			page 64


 2631              	.LBB1278:
 2632              	.LBB1266:
 2633              	.LBB1260:
 2634              	.LBB1257:
 2635              		.loc 2 336 55 view .LVU501
 2636 04d4 94F84C30 		ldrb	r3, [r4, #76]	@ zero_extendqisi2
 2637              	.LBE1257:
 2638              	.LBE1260:
 2639              	.LBE1266:
 2640              	.LBE1278:
 2641              	.LBB1279:
 2642              	.LBB1274:
  74:../libs/PoliTeKDSP/libs/libDaisy/src/dev/mpr121.h ****                    config_.dev_addr, address, 1, data, size, 10);
 2643              		.loc 2 74 42 view .LVU502
 2644 04d8 94F84810 		ldrb	r1, [r4, #72]	@ zero_extendqisi2
 2645              	.LBE1274:
 2646              	.LBE1279:
 2647              	.LBB1280:
 2648              	.LBB1267:
 2649              	.LBB1261:
 2650              	.LBB1258:
 2651              		.loc 2 336 55 view .LVU503
 2652 04dc 5045     		cmp	r0, r10
 2653 04de 18BF     		it	ne
 2654 04e0 43F00103 		orrne	r3, r3, #1
 2655              	.LBE1258:
 2656              	.LBE1261:
 2657              	.LBE1267:
 2658              	.LBE1280:
 2659              	.LBB1281:
 2660              	.LBB1275:
  74:../libs/PoliTeKDSP/libs/libDaisy/src/dev/mpr121.h ****                    config_.dev_addr, address, 1, data, size, 10);
 2661              		.loc 2 74 42 view .LVU504
 2662 04e4 3046     		mov	r0, r6
 2663              	.LVL126:
  74:../libs/PoliTeKDSP/libs/libDaisy/src/dev/mpr121.h ****                    config_.dev_addr, address, 1, data, size, 10);
 2664              		.loc 2 74 42 view .LVU505
 2665              	.LBE1275:
 2666              	.LBE1281:
 2667              	.LBB1282:
 2668              	.LBB1268:
 2669              	.LBB1262:
 2670              	.LBB1259:
 2671              		.loc 2 336 55 view .LVU506
 2672 04e6 84F84C30 		strb	r3, [r4, #76]
 2673              	.LVL127:
 2674              		.loc 2 336 55 view .LVU507
 2675              	.LBE1259:
 2676              	.LBE1262:
 237:../libs/PoliTeKDSP/libs/libDaisy/src/dev/mpr121.h ****     }
 2677              		.loc 2 237 16 view .LVU508
 2678 04ea 9DF83430 		ldrb	r3, [sp, #52]	@ zero_extendqisi2
 2679              	.LVL128:
 237:../libs/PoliTeKDSP/libs/libDaisy/src/dev/mpr121.h ****     }
 2680              		.loc 2 237 16 view .LVU509
 2681              	.LBE1268:
 2682              	.LBE1282:
ARM GAS  C:\Users\skipi\AppData\Local\Temp\ccUZkxb5.s 			page 65


 271:../libs/PoliTeKDSP/libs/libDaisy/src/dev/mpr121.h ****             // clear this register to set stop mode
 2683              		.loc 2 271 21 view .LVU510
 2684 04ee 8DF834A0 		strb	r10, [sp, #52]
 2685              	.LVL129:
 2686              	.LBB1283:
 2687              	.LBI1272:
  71:../libs/PoliTeKDSP/libs/libDaisy/src/dev/mpr121.h ****     {
 2688              		.loc 2 71 10 is_stmt 1 view .LVU511
 2689              	.LBB1276:
  73:../libs/PoliTeKDSP/libs/libDaisy/src/dev/mpr121.h ****                != i2c_.WriteDataAtAddress(
 2690              		.loc 2 73 9 view .LVU512
 2691              	.LBE1276:
 2692              	.LBE1283:
 270:../libs/PoliTeKDSP/libs/libDaisy/src/dev/mpr121.h ****             uint8_t zero = 0x00;
 2693              		.loc 2 270 26 is_stmt 0 view .LVU513
 2694 04f2 8DF82030 		strb	r3, [sp, #32]
 2695              	.LBB1284:
 2696              	.LBB1277:
  74:../libs/PoliTeKDSP/libs/libDaisy/src/dev/mpr121.h ****                    config_.dev_addr, address, 1, data, size, 10);
 2697              		.loc 2 74 42 view .LVU514
 2698 04f6 2B46     		mov	r3, r5
 2699 04f8 FFF7FEFF 		bl	_ZN5daisy9I2CHandle18WriteDataAtAddressEtttPhtm
 2700              	.LVL130:
  74:../libs/PoliTeKDSP/libs/libDaisy/src/dev/mpr121.h ****                    config_.dev_addr, address, 1, data, size, 10);
 2701              		.loc 2 74 42 view .LVU515
 2702              	.LBE1277:
 2703              	.LBE1284:
 2704              	.LBB1285:
 2705              	.LBI1285:
 2706              		.loc 2 336 10 is_stmt 1 view .LVU516
 2707              	.LBE1285:
 2708              	.LBE1294:
 2709              	.LBB1295:
 2710              	.LBB1296:
  74:../libs/PoliTeKDSP/libs/libDaisy/src/dev/mpr121.h ****                    config_.dev_addr, address, 1, data, size, 10);
 2711              		.loc 2 74 42 is_stmt 0 view .LVU517
 2712 04fc CDF800B0 		str	fp, [sp]
 2713 0500 2D22     		movs	r2, #45
 2714 0502 CDE90157 		strd	r5, r7, [sp, #4]
 2715              	.LBE1296:
 2716              	.LBE1295:
 2717              	.LBB1300:
 2718              	.LBB1289:
 2719              	.LBB1286:
 2720              		.loc 2 336 55 view .LVU518
 2721 0506 94F84C30 		ldrb	r3, [r4, #76]	@ zero_extendqisi2
 2722              	.LBE1286:
 2723              	.LBE1289:
 2724              	.LBE1300:
 2725              	.LBB1301:
 2726              	.LBB1297:
  74:../libs/PoliTeKDSP/libs/libDaisy/src/dev/mpr121.h ****                    config_.dev_addr, address, 1, data, size, 10);
 2727              		.loc 2 74 42 view .LVU519
 2728 050a 94F84810 		ldrb	r1, [r4, #72]	@ zero_extendqisi2
 2729              	.LBE1297:
 2730              	.LBE1301:
 2731              	.LBB1302:
ARM GAS  C:\Users\skipi\AppData\Local\Temp\ccUZkxb5.s 			page 66


 2732              	.LBB1290:
 2733              	.LBB1287:
 2734              		.loc 2 336 55 view .LVU520
 2735 050e 5045     		cmp	r0, r10
 2736 0510 18BF     		it	ne
 2737 0512 43F00103 		orrne	r3, r3, #1
 2738              	.LBE1287:
 2739              	.LBE1290:
 2740              	.LBE1302:
 2741              	.LBB1303:
 2742              	.LBB1298:
  74:../libs/PoliTeKDSP/libs/libDaisy/src/dev/mpr121.h ****                    config_.dev_addr, address, 1, data, size, 10);
 2743              		.loc 2 74 42 view .LVU521
 2744 0516 3046     		mov	r0, r6
 2745              	.LVL131:
  74:../libs/PoliTeKDSP/libs/libDaisy/src/dev/mpr121.h ****                    config_.dev_addr, address, 1, data, size, 10);
 2746              		.loc 2 74 42 view .LVU522
 2747              	.LBE1298:
 2748              	.LBE1303:
 2749              	.LBB1304:
 2750              	.LBB1291:
 2751              	.LBB1288:
 2752              		.loc 2 336 55 view .LVU523
 2753 0518 84F84C30 		strb	r3, [r4, #76]
 2754              	.LVL132:
 2755              		.loc 2 336 55 view .LVU524
 2756              	.LBE1288:
 2757              	.LBE1291:
 2758              	.LBE1304:
 2759              	.LBB1305:
 2760              	.LBI1295:
  71:../libs/PoliTeKDSP/libs/libDaisy/src/dev/mpr121.h ****     {
 2761              		.loc 2 71 10 is_stmt 1 view .LVU525
 2762              	.LBB1299:
  73:../libs/PoliTeKDSP/libs/libDaisy/src/dev/mpr121.h ****                != i2c_.WriteDataAtAddress(
 2763              		.loc 2 73 9 view .LVU526
  74:../libs/PoliTeKDSP/libs/libDaisy/src/dev/mpr121.h ****                    config_.dev_addr, address, 1, data, size, 10);
 2764              		.loc 2 74 42 is_stmt 0 view .LVU527
 2765 051c 2B46     		mov	r3, r5
 2766 051e FFF7FEFF 		bl	_ZN5daisy9I2CHandle18WriteDataAtAddressEtttPhtm
 2767              	.LVL133:
  74:../libs/PoliTeKDSP/libs/libDaisy/src/dev/mpr121.h ****                    config_.dev_addr, address, 1, data, size, 10);
 2768              		.loc 2 74 42 view .LVU528
 2769              	.LBE1299:
 2770              	.LBE1305:
 2771              	.LBB1306:
 2772              	.LBI1306:
 2773              		.loc 2 336 10 is_stmt 1 view .LVU529
 2774              	.LBE1306:
 2775              	.LBB1310:
 2776              	.LBB1311:
  74:../libs/PoliTeKDSP/libs/libDaisy/src/dev/mpr121.h ****                    config_.dev_addr, address, 1, data, size, 10);
 2777              		.loc 2 74 42 is_stmt 0 view .LVU530
 2778 0522 08AB     		add	r3, sp, #32
 2779 0524 5E22     		movs	r2, #94
 2780 0526 0093     		str	r3, [sp]
 2781 0528 CDE90157 		strd	r5, r7, [sp, #4]
ARM GAS  C:\Users\skipi\AppData\Local\Temp\ccUZkxb5.s 			page 67


 2782              	.LBE1311:
 2783              	.LBE1310:
 2784              	.LBB1315:
 2785              	.LBB1307:
 2786              		.loc 2 336 55 view .LVU531
 2787 052c 94F84C30 		ldrb	r3, [r4, #76]	@ zero_extendqisi2
 2788              	.LBE1307:
 2789              	.LBE1315:
 2790              	.LBB1316:
 2791              	.LBB1312:
  74:../libs/PoliTeKDSP/libs/libDaisy/src/dev/mpr121.h ****                    config_.dev_addr, address, 1, data, size, 10);
 2792              		.loc 2 74 42 view .LVU532
 2793 0530 94F84810 		ldrb	r1, [r4, #72]	@ zero_extendqisi2
 2794              	.LBE1312:
 2795              	.LBE1316:
 2796              	.LBB1317:
 2797              	.LBB1308:
 2798              		.loc 2 336 55 view .LVU533
 2799 0534 5045     		cmp	r0, r10
 2800 0536 18BF     		it	ne
 2801 0538 43F00103 		orrne	r3, r3, #1
 2802              	.LBE1308:
 2803              	.LBE1317:
 2804              	.LBB1318:
 2805              	.LBB1313:
  74:../libs/PoliTeKDSP/libs/libDaisy/src/dev/mpr121.h ****                    config_.dev_addr, address, 1, data, size, 10);
 2806              		.loc 2 74 42 view .LVU534
 2807 053c 3046     		mov	r0, r6
 2808              	.LVL134:
  74:../libs/PoliTeKDSP/libs/libDaisy/src/dev/mpr121.h ****                    config_.dev_addr, address, 1, data, size, 10);
 2809              		.loc 2 74 42 view .LVU535
 2810              	.LBE1313:
 2811              	.LBE1318:
 2812              	.LBB1319:
 2813              	.LBB1309:
 2814              		.loc 2 336 55 view .LVU536
 2815 053e 84F84C30 		strb	r3, [r4, #76]
 2816              	.LVL135:
 2817              		.loc 2 336 55 view .LVU537
 2818              	.LBE1309:
 2819              	.LBE1319:
 2820              	.LBB1320:
 2821              	.LBI1310:
  71:../libs/PoliTeKDSP/libs/libDaisy/src/dev/mpr121.h ****     {
 2822              		.loc 2 71 10 is_stmt 1 view .LVU538
 2823              	.LBB1314:
  73:../libs/PoliTeKDSP/libs/libDaisy/src/dev/mpr121.h ****                != i2c_.WriteDataAtAddress(
 2824              		.loc 2 73 9 view .LVU539
  74:../libs/PoliTeKDSP/libs/libDaisy/src/dev/mpr121.h ****                    config_.dev_addr, address, 1, data, size, 10);
 2825              		.loc 2 74 42 is_stmt 0 view .LVU540
 2826 0542 2B46     		mov	r3, r5
 2827 0544 FFF7FEFF 		bl	_ZN5daisy9I2CHandle18WriteDataAtAddressEtttPhtm
 2828              	.LVL136:
  74:../libs/PoliTeKDSP/libs/libDaisy/src/dev/mpr121.h ****                    config_.dev_addr, address, 1, data, size, 10);
 2829              		.loc 2 74 42 view .LVU541
 2830              	.LBE1314:
 2831              	.LBE1320:
ARM GAS  C:\Users\skipi\AppData\Local\Temp\ccUZkxb5.s 			page 68


 2832              	.LBB1321:
 2833              	.LBI1321:
 2834              		.loc 2 336 10 is_stmt 1 view .LVU542
 2835              	.LBE1321:
 2836              	.LBE1330:
 2837              	.LBE1339:
 2838              	.LBB1340:
 2839              	.LBB1341:
 2840              	.LBB1342:
 2841              	.LBB1343:
 2842              	.LBB1344:
 2843              	.LBB1345:
 2844              	.LBB1346:
  66:../libs/PoliTeKDSP/libs/libDaisy/src/dev/mpr121.h ****                    config_.dev_addr, address, 1, data, size, 10);
 2845              		.loc 2 66 41 is_stmt 0 view .LVU543
 2846 0548 CDF80080 		str	r8, [sp]
 2847 054c 5E22     		movs	r2, #94
 2848 054e 8DF81FA0 		strb	r10, [sp, #31]
 2849 0552 CDE90157 		strd	r5, r7, [sp, #4]
 2850              	.LBE1346:
 2851              	.LBE1345:
 2852              	.LBE1344:
 2853              	.LBE1343:
 2854              	.LBE1342:
 2855              	.LBE1341:
 2856              	.LBE1340:
 2857              	.LBB1431:
 2858              	.LBB1331:
 2859              	.LBB1325:
 2860              	.LBB1322:
 2861              		.loc 2 336 55 view .LVU544
 2862 0556 94F84C30 		ldrb	r3, [r4, #76]	@ zero_extendqisi2
 2863              	.LBE1322:
 2864              	.LBE1325:
 2865              	.LBE1331:
 2866              	.LBE1431:
 2867              	.LBB1432:
 2868              	.LBB1425:
 2869              	.LBB1389:
 2870              	.LBB1366:
 2871              	.LBB1360:
 2872              	.LBB1350:
 2873              	.LBB1347:
  66:../libs/PoliTeKDSP/libs/libDaisy/src/dev/mpr121.h ****                    config_.dev_addr, address, 1, data, size, 10);
 2874              		.loc 2 66 41 view .LVU545
 2875 055a 94F84810 		ldrb	r1, [r4, #72]	@ zero_extendqisi2
 2876              	.LBE1347:
 2877              	.LBE1350:
 2878              	.LBE1360:
 2879              	.LBE1366:
 2880              	.LBE1389:
 2881              	.LBE1425:
 2882              	.LBE1432:
 2883              	.LBB1433:
 2884              	.LBB1332:
 2885              	.LBB1326:
 2886              	.LBB1323:
ARM GAS  C:\Users\skipi\AppData\Local\Temp\ccUZkxb5.s 			page 69


 2887              		.loc 2 336 55 view .LVU546
 2888 055e 5045     		cmp	r0, r10
 2889 0560 18BF     		it	ne
 2890 0562 43F00103 		orrne	r3, r3, #1
 2891              	.LBE1323:
 2892              	.LBE1326:
 2893              	.LBE1332:
 2894              	.LBE1433:
 2895              	.LBB1434:
 2896              	.LBB1426:
 2897              	.LBB1390:
 2898              	.LBB1367:
 2899              	.LBB1361:
 2900              	.LBB1351:
 2901              	.LBB1348:
  66:../libs/PoliTeKDSP/libs/libDaisy/src/dev/mpr121.h ****                    config_.dev_addr, address, 1, data, size, 10);
 2902              		.loc 2 66 41 view .LVU547
 2903 0566 3046     		mov	r0, r6
 2904              	.LVL137:
  66:../libs/PoliTeKDSP/libs/libDaisy/src/dev/mpr121.h ****                    config_.dev_addr, address, 1, data, size, 10);
 2905              		.loc 2 66 41 view .LVU548
 2906              	.LBE1348:
 2907              	.LBE1351:
 2908              	.LBE1361:
 2909              	.LBE1367:
 2910              	.LBE1390:
 2911              	.LBE1426:
 2912              	.LBE1434:
 2913              	.LBB1435:
 2914              	.LBB1333:
 2915              	.LBB1327:
 2916              	.LBB1324:
 2917              		.loc 2 336 55 view .LVU549
 2918 0568 84F84C30 		strb	r3, [r4, #76]
 2919              	.LVL138:
 2920              		.loc 2 336 55 view .LVU550
 2921              	.LBE1324:
 2922              	.LBE1327:
 2923              	.LBE1333:
 2924              	.LBE1435:
 2925              	.LBB1436:
 2926              	.LBI1340:
 257:../libs/PoliTeKDSP/libs/libDaisy/src/dev/mpr121.h ****     {
 2927              		.loc 2 257 10 is_stmt 1 view .LVU551
 2928              	.LBB1427:
 2929              	.LBB1391:
 2930              	.LBB1368:
 2931              	.LBI1343:
 232:../libs/PoliTeKDSP/libs/libDaisy/src/dev/mpr121.h ****     {
 2932              		.loc 2 232 13 view .LVU552
 2933              	.LBB1362:
 2934              	.LBB1352:
 2935              	.LBI1345:
  63:../libs/PoliTeKDSP/libs/libDaisy/src/dev/mpr121.h ****     {
 2936              		.loc 2 63 10 view .LVU553
 2937              	.LBB1349:
  65:../libs/PoliTeKDSP/libs/libDaisy/src/dev/mpr121.h ****                != i2c_.ReadDataAtAddress(
ARM GAS  C:\Users\skipi\AppData\Local\Temp\ccUZkxb5.s 			page 70


 2938              		.loc 2 65 9 view .LVU554
  66:../libs/PoliTeKDSP/libs/libDaisy/src/dev/mpr121.h ****                    config_.dev_addr, address, 1, data, size, 10);
 2939              		.loc 2 66 41 is_stmt 0 view .LVU555
 2940 056c 2B46     		mov	r3, r5
 2941 056e FFF7FEFF 		bl	_ZN5daisy9I2CHandle17ReadDataAtAddressEtttPhtm
 2942              	.LVL139:
  66:../libs/PoliTeKDSP/libs/libDaisy/src/dev/mpr121.h ****                    config_.dev_addr, address, 1, data, size, 10);
 2943              		.loc 2 66 41 view .LVU556
 2944              	.LBE1349:
 2945              	.LBE1352:
 2946              	.LBB1353:
 2947              	.LBI1353:
 2948              		.loc 2 336 10 is_stmt 1 view .LVU557
 2949              	.LBE1353:
 2950              	.LBE1362:
 2951              	.LBE1368:
 2952              	.LBB1369:
 2953              	.LBB1370:
  74:../libs/PoliTeKDSP/libs/libDaisy/src/dev/mpr121.h ****                    config_.dev_addr, address, 1, data, size, 10);
 2954              		.loc 2 74 42 is_stmt 0 view .LVU558
 2955 0572 CDF80080 		str	r8, [sp]
 2956 0576 5E22     		movs	r2, #94
 2957 0578 CDE90157 		strd	r5, r7, [sp, #4]
 2958              	.LBE1370:
 2959              	.LBE1369:
 2960              	.LBB1375:
 2961              	.LBB1363:
 2962              	.LBB1357:
 2963              	.LBB1354:
 2964              		.loc 2 336 55 view .LVU559
 2965 057c 94F84C30 		ldrb	r3, [r4, #76]	@ zero_extendqisi2
 2966              	.LBE1354:
 2967              	.LBE1357:
 2968              	.LBE1363:
 2969              	.LBE1375:
 2970              	.LBB1376:
 2971              	.LBB1371:
  74:../libs/PoliTeKDSP/libs/libDaisy/src/dev/mpr121.h ****                    config_.dev_addr, address, 1, data, size, 10);
 2972              		.loc 2 74 42 view .LVU560
 2973 0580 94F84810 		ldrb	r1, [r4, #72]	@ zero_extendqisi2
 2974              	.LBE1371:
 2975              	.LBE1376:
 2976              	.LBB1377:
 2977              	.LBB1364:
 2978              	.LBB1358:
 2979              	.LBB1355:
 2980              		.loc 2 336 55 view .LVU561
 2981 0584 5045     		cmp	r0, r10
 2982 0586 18BF     		it	ne
 2983 0588 43F00103 		orrne	r3, r3, #1
 2984              	.LBE1355:
 2985              	.LBE1358:
 2986              	.LBE1364:
 2987              	.LBE1377:
 2988              	.LBB1378:
 2989              	.LBB1372:
  74:../libs/PoliTeKDSP/libs/libDaisy/src/dev/mpr121.h ****                    config_.dev_addr, address, 1, data, size, 10);
ARM GAS  C:\Users\skipi\AppData\Local\Temp\ccUZkxb5.s 			page 71


 2990              		.loc 2 74 42 view .LVU562
 2991 058c 3046     		mov	r0, r6
 2992              	.LVL140:
  74:../libs/PoliTeKDSP/libs/libDaisy/src/dev/mpr121.h ****                    config_.dev_addr, address, 1, data, size, 10);
 2993              		.loc 2 74 42 view .LVU563
 2994              	.LBE1372:
 2995              	.LBE1378:
 2996              	.LBB1379:
 2997              	.LBB1365:
 2998              	.LBB1359:
 2999              	.LBB1356:
 3000              		.loc 2 336 55 view .LVU564
 3001 058e 84F84C30 		strb	r3, [r4, #76]
 3002              	.LVL141:
 3003              		.loc 2 336 55 view .LVU565
 3004              	.LBE1356:
 3005              	.LBE1359:
 237:../libs/PoliTeKDSP/libs/libDaisy/src/dev/mpr121.h ****     }
 3006              		.loc 2 237 16 view .LVU566
 3007 0592 9DF83430 		ldrb	r3, [sp, #52]	@ zero_extendqisi2
 3008              	.LVL142:
 237:../libs/PoliTeKDSP/libs/libDaisy/src/dev/mpr121.h ****     }
 3009              		.loc 2 237 16 view .LVU567
 3010              	.LBE1365:
 3011              	.LBE1379:
 271:../libs/PoliTeKDSP/libs/libDaisy/src/dev/mpr121.h ****             // clear this register to set stop mode
 3012              		.loc 2 271 21 view .LVU568
 3013 0596 8DF834A0 		strb	r10, [sp, #52]
 3014              	.LVL143:
 3015              	.LBB1380:
 3016              	.LBI1369:
  71:../libs/PoliTeKDSP/libs/libDaisy/src/dev/mpr121.h ****     {
 3017              		.loc 2 71 10 is_stmt 1 view .LVU569
 3018              	.LBB1373:
  73:../libs/PoliTeKDSP/libs/libDaisy/src/dev/mpr121.h ****                != i2c_.WriteDataAtAddress(
 3019              		.loc 2 73 9 view .LVU570
 3020              	.LBE1373:
 3021              	.LBE1380:
 270:../libs/PoliTeKDSP/libs/libDaisy/src/dev/mpr121.h ****             uint8_t zero = 0x00;
 3022              		.loc 2 270 26 is_stmt 0 view .LVU571
 3023 059a 8DF82030 		strb	r3, [sp, #32]
 3024              	.LBB1381:
 3025              	.LBB1374:
  74:../libs/PoliTeKDSP/libs/libDaisy/src/dev/mpr121.h ****                    config_.dev_addr, address, 1, data, size, 10);
 3026              		.loc 2 74 42 view .LVU572
 3027 059e 2B46     		mov	r3, r5
 3028 05a0 FFF7FEFF 		bl	_ZN5daisy9I2CHandle18WriteDataAtAddressEtttPhtm
 3029              	.LVL144:
  74:../libs/PoliTeKDSP/libs/libDaisy/src/dev/mpr121.h ****                    config_.dev_addr, address, 1, data, size, 10);
 3030              		.loc 2 74 42 view .LVU573
 3031              	.LBE1374:
 3032              	.LBE1381:
 3033              	.LBB1382:
 3034              	.LBI1382:
 3035              		.loc 2 336 10 is_stmt 1 view .LVU574
 3036              	.LBE1382:
 3037              	.LBE1391:
ARM GAS  C:\Users\skipi\AppData\Local\Temp\ccUZkxb5.s 			page 72


 3038              	.LBB1392:
 3039              	.LBB1393:
  74:../libs/PoliTeKDSP/libs/libDaisy/src/dev/mpr121.h ****                    config_.dev_addr, address, 1, data, size, 10);
 3040              		.loc 2 74 42 is_stmt 0 view .LVU575
 3041 05a4 CDF800B0 		str	fp, [sp]
 3042 05a8 2E22     		movs	r2, #46
 3043 05aa CDE90157 		strd	r5, r7, [sp, #4]
 3044              	.LBE1393:
 3045              	.LBE1392:
 3046              	.LBB1397:
 3047              	.LBB1386:
 3048              	.LBB1383:
 3049              		.loc 2 336 55 view .LVU576
 3050 05ae 94F84C30 		ldrb	r3, [r4, #76]	@ zero_extendqisi2
 3051              	.LBE1383:
 3052              	.LBE1386:
 3053              	.LBE1397:
 3054              	.LBB1398:
 3055              	.LBB1394:
  74:../libs/PoliTeKDSP/libs/libDaisy/src/dev/mpr121.h ****                    config_.dev_addr, address, 1, data, size, 10);
 3056              		.loc 2 74 42 view .LVU577
 3057 05b2 94F84810 		ldrb	r1, [r4, #72]	@ zero_extendqisi2
 3058              	.LBE1394:
 3059              	.LBE1398:
 3060              	.LBB1399:
 3061              	.LBB1387:
 3062              	.LBB1384:
 3063              		.loc 2 336 55 view .LVU578
 3064 05b6 5045     		cmp	r0, r10
 3065 05b8 18BF     		it	ne
 3066 05ba 43F00103 		orrne	r3, r3, #1
 3067              	.LBE1384:
 3068              	.LBE1387:
 3069              	.LBE1399:
 3070              	.LBB1400:
 3071              	.LBB1395:
  74:../libs/PoliTeKDSP/libs/libDaisy/src/dev/mpr121.h ****                    config_.dev_addr, address, 1, data, size, 10);
 3072              		.loc 2 74 42 view .LVU579
 3073 05be 3046     		mov	r0, r6
 3074              	.LVL145:
  74:../libs/PoliTeKDSP/libs/libDaisy/src/dev/mpr121.h ****                    config_.dev_addr, address, 1, data, size, 10);
 3075              		.loc 2 74 42 view .LVU580
 3076              	.LBE1395:
 3077              	.LBE1400:
 3078              	.LBB1401:
 3079              	.LBB1388:
 3080              	.LBB1385:
 3081              		.loc 2 336 55 view .LVU581
 3082 05c0 84F84C30 		strb	r3, [r4, #76]
 3083              	.LVL146:
 3084              		.loc 2 336 55 view .LVU582
 3085              	.LBE1385:
 3086              	.LBE1388:
 3087              	.LBE1401:
 3088              	.LBB1402:
 3089              	.LBI1392:
  71:../libs/PoliTeKDSP/libs/libDaisy/src/dev/mpr121.h ****     {
ARM GAS  C:\Users\skipi\AppData\Local\Temp\ccUZkxb5.s 			page 73


 3090              		.loc 2 71 10 is_stmt 1 view .LVU583
 3091              	.LBB1396:
  73:../libs/PoliTeKDSP/libs/libDaisy/src/dev/mpr121.h ****                != i2c_.WriteDataAtAddress(
 3092              		.loc 2 73 9 view .LVU584
  74:../libs/PoliTeKDSP/libs/libDaisy/src/dev/mpr121.h ****                    config_.dev_addr, address, 1, data, size, 10);
 3093              		.loc 2 74 42 is_stmt 0 view .LVU585
 3094 05c4 2B46     		mov	r3, r5
 3095 05c6 FFF7FEFF 		bl	_ZN5daisy9I2CHandle18WriteDataAtAddressEtttPhtm
 3096              	.LVL147:
  74:../libs/PoliTeKDSP/libs/libDaisy/src/dev/mpr121.h ****                    config_.dev_addr, address, 1, data, size, 10);
 3097              		.loc 2 74 42 view .LVU586
 3098              	.LBE1396:
 3099              	.LBE1402:
 3100              	.LBB1403:
 3101              	.LBI1403:
 3102              		.loc 2 336 10 is_stmt 1 view .LVU587
 3103              	.LBE1403:
 3104              	.LBB1407:
 3105              	.LBB1408:
  74:../libs/PoliTeKDSP/libs/libDaisy/src/dev/mpr121.h ****                    config_.dev_addr, address, 1, data, size, 10);
 3106              		.loc 2 74 42 is_stmt 0 view .LVU588
 3107 05ca 08AB     		add	r3, sp, #32
 3108 05cc 5E22     		movs	r2, #94
 3109 05ce 0093     		str	r3, [sp]
 3110 05d0 CDE90157 		strd	r5, r7, [sp, #4]
 3111              	.LBE1408:
 3112              	.LBE1407:
 3113              	.LBB1412:
 3114              	.LBB1404:
 3115              		.loc 2 336 55 view .LVU589
 3116 05d4 94F84C30 		ldrb	r3, [r4, #76]	@ zero_extendqisi2
 3117              	.LBE1404:
 3118              	.LBE1412:
 3119              	.LBB1413:
 3120              	.LBB1409:
  74:../libs/PoliTeKDSP/libs/libDaisy/src/dev/mpr121.h ****                    config_.dev_addr, address, 1, data, size, 10);
 3121              		.loc 2 74 42 view .LVU590
 3122 05d8 94F84810 		ldrb	r1, [r4, #72]	@ zero_extendqisi2
 3123              	.LBE1409:
 3124              	.LBE1413:
 3125              	.LBB1414:
 3126              	.LBB1405:
 3127              		.loc 2 336 55 view .LVU591
 3128 05dc 5045     		cmp	r0, r10
 3129 05de 18BF     		it	ne
 3130 05e0 43F00103 		orrne	r3, r3, #1
 3131              	.LBE1405:
 3132              	.LBE1414:
 3133              	.LBB1415:
 3134              	.LBB1410:
  74:../libs/PoliTeKDSP/libs/libDaisy/src/dev/mpr121.h ****                    config_.dev_addr, address, 1, data, size, 10);
 3135              		.loc 2 74 42 view .LVU592
 3136 05e4 3046     		mov	r0, r6
 3137              	.LVL148:
  74:../libs/PoliTeKDSP/libs/libDaisy/src/dev/mpr121.h ****                    config_.dev_addr, address, 1, data, size, 10);
 3138              		.loc 2 74 42 view .LVU593
 3139              	.LBE1410:
ARM GAS  C:\Users\skipi\AppData\Local\Temp\ccUZkxb5.s 			page 74


 3140              	.LBE1415:
 3141              	.LBB1416:
 3142              	.LBB1406:
 3143              		.loc 2 336 55 view .LVU594
 3144 05e6 84F84C30 		strb	r3, [r4, #76]
 3145              	.LVL149:
 3146              		.loc 2 336 55 view .LVU595
 3147              	.LBE1406:
 3148              	.LBE1416:
 3149              	.LBB1417:
 3150              	.LBI1407:
  71:../libs/PoliTeKDSP/libs/libDaisy/src/dev/mpr121.h ****     {
 3151              		.loc 2 71 10 is_stmt 1 view .LVU596
 3152              	.LBB1411:
  73:../libs/PoliTeKDSP/libs/libDaisy/src/dev/mpr121.h ****                != i2c_.WriteDataAtAddress(
 3153              		.loc 2 73 9 view .LVU597
  74:../libs/PoliTeKDSP/libs/libDaisy/src/dev/mpr121.h ****                    config_.dev_addr, address, 1, data, size, 10);
 3154              		.loc 2 74 42 is_stmt 0 view .LVU598
 3155 05ea 2B46     		mov	r3, r5
 3156 05ec FFF7FEFF 		bl	_ZN5daisy9I2CHandle18WriteDataAtAddressEtttPhtm
 3157              	.LVL150:
  74:../libs/PoliTeKDSP/libs/libDaisy/src/dev/mpr121.h ****                    config_.dev_addr, address, 1, data, size, 10);
 3158              		.loc 2 74 42 view .LVU599
 3159              	.LBE1411:
 3160              	.LBE1417:
 3161              	.LBB1418:
 3162              	.LBI1418:
 3163              		.loc 2 336 10 is_stmt 1 view .LVU600
 3164              	.LBE1418:
 3165              	.LBE1427:
 3166              	.LBE1436:
 3167              	.LBB1437:
 3168              	.LBB1438:
 3169              	.LBB1439:
 3170              	.LBB1440:
 3171              	.LBB1441:
 3172              	.LBB1442:
 3173              	.LBB1443:
  66:../libs/PoliTeKDSP/libs/libDaisy/src/dev/mpr121.h ****                    config_.dev_addr, address, 1, data, size, 10);
 3174              		.loc 2 66 41 is_stmt 0 view .LVU601
 3175 05f0 CDF80080 		str	r8, [sp]
 3176 05f4 5E22     		movs	r2, #94
 3177 05f6 8DF81F50 		strb	r5, [sp, #31]
 3178 05fa CDE90157 		strd	r5, r7, [sp, #4]
 3179              	.LBE1443:
 3180              	.LBE1442:
 3181              	.LBE1441:
 3182              	.LBE1440:
 3183              	.LBE1439:
 3184              	.LBE1438:
 3185              	.LBE1437:
 3186              	.LBB1528:
 3187              	.LBB1428:
 3188              	.LBB1422:
 3189              	.LBB1419:
 3190              		.loc 2 336 55 view .LVU602
 3191 05fe 94F84C30 		ldrb	r3, [r4, #76]	@ zero_extendqisi2
ARM GAS  C:\Users\skipi\AppData\Local\Temp\ccUZkxb5.s 			page 75


 3192              	.LBE1419:
 3193              	.LBE1422:
 3194              	.LBE1428:
 3195              	.LBE1528:
 3196              	.LBB1529:
 3197              	.LBB1522:
 3198              	.LBB1486:
 3199              	.LBB1463:
 3200              	.LBB1457:
 3201              	.LBB1447:
 3202              	.LBB1444:
  66:../libs/PoliTeKDSP/libs/libDaisy/src/dev/mpr121.h ****                    config_.dev_addr, address, 1, data, size, 10);
 3203              		.loc 2 66 41 view .LVU603
 3204 0602 94F84810 		ldrb	r1, [r4, #72]	@ zero_extendqisi2
 3205              	.LBE1444:
 3206              	.LBE1447:
 3207              	.LBE1457:
 3208              	.LBE1463:
 3209              	.LBE1486:
 3210              	.LBE1522:
 3211              	.LBE1529:
 3212              	.LBB1530:
 3213              	.LBB1429:
 3214              	.LBB1423:
 3215              	.LBB1420:
 3216              		.loc 2 336 55 view .LVU604
 3217 0606 5045     		cmp	r0, r10
 3218 0608 18BF     		it	ne
 3219 060a 43F00103 		orrne	r3, r3, #1
 3220              	.LBE1420:
 3221              	.LBE1423:
 3222              	.LBE1429:
 3223              	.LBE1530:
 3224              	.LBB1531:
 3225              	.LBB1523:
 3226              	.LBB1487:
 3227              	.LBB1464:
 3228              	.LBB1458:
 3229              	.LBB1448:
 3230              	.LBB1445:
  66:../libs/PoliTeKDSP/libs/libDaisy/src/dev/mpr121.h ****                    config_.dev_addr, address, 1, data, size, 10);
 3231              		.loc 2 66 41 view .LVU605
 3232 060e 3046     		mov	r0, r6
 3233              	.LVL151:
  66:../libs/PoliTeKDSP/libs/libDaisy/src/dev/mpr121.h ****                    config_.dev_addr, address, 1, data, size, 10);
 3234              		.loc 2 66 41 view .LVU606
 3235              	.LBE1445:
 3236              	.LBE1448:
 3237              	.LBE1458:
 3238              	.LBE1464:
 3239              	.LBE1487:
 3240              	.LBE1523:
 3241              	.LBE1531:
 3242              	.LBB1532:
 3243              	.LBB1430:
 3244              	.LBB1424:
 3245              	.LBB1421:
ARM GAS  C:\Users\skipi\AppData\Local\Temp\ccUZkxb5.s 			page 76


 3246              		.loc 2 336 55 view .LVU607
 3247 0610 84F84C30 		strb	r3, [r4, #76]
 3248              	.LVL152:
 3249              		.loc 2 336 55 view .LVU608
 3250              	.LBE1421:
 3251              	.LBE1424:
 3252              	.LBE1430:
 3253              	.LBE1532:
 3254              	.LBB1533:
 3255              	.LBI1437:
 257:../libs/PoliTeKDSP/libs/libDaisy/src/dev/mpr121.h ****     {
 3256              		.loc 2 257 10 is_stmt 1 view .LVU609
 3257              	.LBB1524:
 3258              	.LBB1488:
 3259              	.LBB1465:
 3260              	.LBI1440:
 232:../libs/PoliTeKDSP/libs/libDaisy/src/dev/mpr121.h ****     {
 3261              		.loc 2 232 13 view .LVU610
 3262              	.LBB1459:
 3263              	.LBB1449:
 3264              	.LBI1442:
  63:../libs/PoliTeKDSP/libs/libDaisy/src/dev/mpr121.h ****     {
 3265              		.loc 2 63 10 view .LVU611
 3266              	.LBB1446:
  65:../libs/PoliTeKDSP/libs/libDaisy/src/dev/mpr121.h ****                != i2c_.ReadDataAtAddress(
 3267              		.loc 2 65 9 view .LVU612
  66:../libs/PoliTeKDSP/libs/libDaisy/src/dev/mpr121.h ****                    config_.dev_addr, address, 1, data, size, 10);
 3268              		.loc 2 66 41 is_stmt 0 view .LVU613
 3269 0614 2B46     		mov	r3, r5
 3270 0616 FFF7FEFF 		bl	_ZN5daisy9I2CHandle17ReadDataAtAddressEtttPhtm
 3271              	.LVL153:
  66:../libs/PoliTeKDSP/libs/libDaisy/src/dev/mpr121.h ****                    config_.dev_addr, address, 1, data, size, 10);
 3272              		.loc 2 66 41 view .LVU614
 3273              	.LBE1446:
 3274              	.LBE1449:
 3275              	.LBB1450:
 3276              	.LBI1450:
 3277              		.loc 2 336 10 is_stmt 1 view .LVU615
 3278              	.LBE1450:
 3279              	.LBE1459:
 3280              	.LBE1465:
 3281              	.LBB1466:
 3282              	.LBB1467:
  74:../libs/PoliTeKDSP/libs/libDaisy/src/dev/mpr121.h ****                    config_.dev_addr, address, 1, data, size, 10);
 3283              		.loc 2 74 42 is_stmt 0 view .LVU616
 3284 061a CDF80080 		str	r8, [sp]
 3285 061e 5E22     		movs	r2, #94
 3286 0620 CDE90157 		strd	r5, r7, [sp, #4]
 3287              	.LBE1467:
 3288              	.LBE1466:
 3289              	.LBB1472:
 3290              	.LBB1460:
 3291              	.LBB1454:
 3292              	.LBB1451:
 3293              		.loc 2 336 55 view .LVU617
 3294 0624 94F84C30 		ldrb	r3, [r4, #76]	@ zero_extendqisi2
 3295              	.LBE1451:
ARM GAS  C:\Users\skipi\AppData\Local\Temp\ccUZkxb5.s 			page 77


 3296              	.LBE1454:
 3297              	.LBE1460:
 3298              	.LBE1472:
 3299              	.LBB1473:
 3300              	.LBB1468:
  74:../libs/PoliTeKDSP/libs/libDaisy/src/dev/mpr121.h ****                    config_.dev_addr, address, 1, data, size, 10);
 3301              		.loc 2 74 42 view .LVU618
 3302 0628 94F84810 		ldrb	r1, [r4, #72]	@ zero_extendqisi2
 3303              	.LBE1468:
 3304              	.LBE1473:
 3305              	.LBB1474:
 3306              	.LBB1461:
 3307              	.LBB1455:
 3308              	.LBB1452:
 3309              		.loc 2 336 55 view .LVU619
 3310 062c 5045     		cmp	r0, r10
 3311 062e 18BF     		it	ne
 3312 0630 43F00103 		orrne	r3, r3, #1
 3313              	.LBE1452:
 3314              	.LBE1455:
 3315              	.LBE1461:
 3316              	.LBE1474:
 3317              	.LBB1475:
 3318              	.LBB1469:
  74:../libs/PoliTeKDSP/libs/libDaisy/src/dev/mpr121.h ****                    config_.dev_addr, address, 1, data, size, 10);
 3319              		.loc 2 74 42 view .LVU620
 3320 0634 3046     		mov	r0, r6
 3321              	.LVL154:
  74:../libs/PoliTeKDSP/libs/libDaisy/src/dev/mpr121.h ****                    config_.dev_addr, address, 1, data, size, 10);
 3322              		.loc 2 74 42 view .LVU621
 3323              	.LBE1469:
 3324              	.LBE1475:
 3325              	.LBB1476:
 3326              	.LBB1462:
 3327              	.LBB1456:
 3328              	.LBB1453:
 3329              		.loc 2 336 55 view .LVU622
 3330 0636 84F84C30 		strb	r3, [r4, #76]
 3331              	.LVL155:
 3332              		.loc 2 336 55 view .LVU623
 3333              	.LBE1453:
 3334              	.LBE1456:
 237:../libs/PoliTeKDSP/libs/libDaisy/src/dev/mpr121.h ****     }
 3335              		.loc 2 237 16 view .LVU624
 3336 063a 9DF83430 		ldrb	r3, [sp, #52]	@ zero_extendqisi2
 3337              	.LVL156:
 237:../libs/PoliTeKDSP/libs/libDaisy/src/dev/mpr121.h ****     }
 3338              		.loc 2 237 16 view .LVU625
 3339              	.LBE1462:
 3340              	.LBE1476:
 271:../libs/PoliTeKDSP/libs/libDaisy/src/dev/mpr121.h ****             // clear this register to set stop mode
 3341              		.loc 2 271 21 view .LVU626
 3342 063e 8DF834A0 		strb	r10, [sp, #52]
 3343              	.LVL157:
 3344              	.LBB1477:
 3345              	.LBI1466:
  71:../libs/PoliTeKDSP/libs/libDaisy/src/dev/mpr121.h ****     {
ARM GAS  C:\Users\skipi\AppData\Local\Temp\ccUZkxb5.s 			page 78


 3346              		.loc 2 71 10 is_stmt 1 view .LVU627
 3347              	.LBB1470:
  73:../libs/PoliTeKDSP/libs/libDaisy/src/dev/mpr121.h ****                != i2c_.WriteDataAtAddress(
 3348              		.loc 2 73 9 view .LVU628
 3349              	.LBE1470:
 3350              	.LBE1477:
 270:../libs/PoliTeKDSP/libs/libDaisy/src/dev/mpr121.h ****             uint8_t zero = 0x00;
 3351              		.loc 2 270 26 is_stmt 0 view .LVU629
 3352 0642 8DF82030 		strb	r3, [sp, #32]
 3353              	.LBB1478:
 3354              	.LBB1471:
  74:../libs/PoliTeKDSP/libs/libDaisy/src/dev/mpr121.h ****                    config_.dev_addr, address, 1, data, size, 10);
 3355              		.loc 2 74 42 view .LVU630
 3356 0646 2B46     		mov	r3, r5
 3357 0648 FFF7FEFF 		bl	_ZN5daisy9I2CHandle18WriteDataAtAddressEtttPhtm
 3358              	.LVL158:
  74:../libs/PoliTeKDSP/libs/libDaisy/src/dev/mpr121.h ****                    config_.dev_addr, address, 1, data, size, 10);
 3359              		.loc 2 74 42 view .LVU631
 3360              	.LBE1471:
 3361              	.LBE1478:
 3362              	.LBB1479:
 3363              	.LBI1479:
 3364              		.loc 2 336 10 is_stmt 1 view .LVU632
 3365              	.LBE1479:
 3366              	.LBE1488:
 3367              	.LBB1489:
 3368              	.LBB1490:
  74:../libs/PoliTeKDSP/libs/libDaisy/src/dev/mpr121.h ****                    config_.dev_addr, address, 1, data, size, 10);
 3369              		.loc 2 74 42 is_stmt 0 view .LVU633
 3370 064c CDF800B0 		str	fp, [sp]
 3371 0650 2F22     		movs	r2, #47
 3372 0652 CDE90157 		strd	r5, r7, [sp, #4]
 3373              	.LBE1490:
 3374              	.LBE1489:
 3375              	.LBB1494:
 3376              	.LBB1483:
 3377              	.LBB1480:
 3378              		.loc 2 336 55 view .LVU634
 3379 0656 94F84C30 		ldrb	r3, [r4, #76]	@ zero_extendqisi2
 3380              	.LBE1480:
 3381              	.LBE1483:
 3382              	.LBE1494:
 3383              	.LBB1495:
 3384              	.LBB1491:
  74:../libs/PoliTeKDSP/libs/libDaisy/src/dev/mpr121.h ****                    config_.dev_addr, address, 1, data, size, 10);
 3385              		.loc 2 74 42 view .LVU635
 3386 065a 94F84810 		ldrb	r1, [r4, #72]	@ zero_extendqisi2
 3387              	.LBE1491:
 3388              	.LBE1495:
 3389              	.LBB1496:
 3390              	.LBB1484:
 3391              	.LBB1481:
 3392              		.loc 2 336 55 view .LVU636
 3393 065e 5045     		cmp	r0, r10
 3394 0660 18BF     		it	ne
 3395 0662 43F00103 		orrne	r3, r3, #1
 3396              	.LBE1481:
ARM GAS  C:\Users\skipi\AppData\Local\Temp\ccUZkxb5.s 			page 79


 3397              	.LBE1484:
 3398              	.LBE1496:
 3399              	.LBB1497:
 3400              	.LBB1492:
  74:../libs/PoliTeKDSP/libs/libDaisy/src/dev/mpr121.h ****                    config_.dev_addr, address, 1, data, size, 10);
 3401              		.loc 2 74 42 view .LVU637
 3402 0666 3046     		mov	r0, r6
 3403              	.LVL159:
  74:../libs/PoliTeKDSP/libs/libDaisy/src/dev/mpr121.h ****                    config_.dev_addr, address, 1, data, size, 10);
 3404              		.loc 2 74 42 view .LVU638
 3405              	.LBE1492:
 3406              	.LBE1497:
 3407              	.LBB1498:
 3408              	.LBB1485:
 3409              	.LBB1482:
 3410              		.loc 2 336 55 view .LVU639
 3411 0668 84F84C30 		strb	r3, [r4, #76]
 3412              	.LVL160:
 3413              		.loc 2 336 55 view .LVU640
 3414              	.LBE1482:
 3415              	.LBE1485:
 3416              	.LBE1498:
 3417              	.LBB1499:
 3418              	.LBI1489:
  71:../libs/PoliTeKDSP/libs/libDaisy/src/dev/mpr121.h ****     {
 3419              		.loc 2 71 10 is_stmt 1 view .LVU641
 3420              	.LBB1493:
  73:../libs/PoliTeKDSP/libs/libDaisy/src/dev/mpr121.h ****                != i2c_.WriteDataAtAddress(
 3421              		.loc 2 73 9 view .LVU642
  74:../libs/PoliTeKDSP/libs/libDaisy/src/dev/mpr121.h ****                    config_.dev_addr, address, 1, data, size, 10);
 3422              		.loc 2 74 42 is_stmt 0 view .LVU643
 3423 066c 2B46     		mov	r3, r5
 3424 066e FFF7FEFF 		bl	_ZN5daisy9I2CHandle18WriteDataAtAddressEtttPhtm
 3425              	.LVL161:
  74:../libs/PoliTeKDSP/libs/libDaisy/src/dev/mpr121.h ****                    config_.dev_addr, address, 1, data, size, 10);
 3426              		.loc 2 74 42 view .LVU644
 3427              	.LBE1493:
 3428              	.LBE1499:
 3429              	.LBB1500:
 3430              	.LBI1500:
 3431              		.loc 2 336 10 is_stmt 1 view .LVU645
 3432              	.LBE1500:
 3433              	.LBB1504:
 3434              	.LBB1505:
  74:../libs/PoliTeKDSP/libs/libDaisy/src/dev/mpr121.h ****                    config_.dev_addr, address, 1, data, size, 10);
 3435              		.loc 2 74 42 is_stmt 0 view .LVU646
 3436 0672 08AB     		add	r3, sp, #32
 3437 0674 5E22     		movs	r2, #94
 3438 0676 0093     		str	r3, [sp]
 3439 0678 CDE90157 		strd	r5, r7, [sp, #4]
 3440              	.LBE1505:
 3441              	.LBE1504:
 3442              	.LBB1509:
 3443              	.LBB1501:
 3444              		.loc 2 336 55 view .LVU647
 3445 067c 94F84C30 		ldrb	r3, [r4, #76]	@ zero_extendqisi2
 3446              	.LBE1501:
ARM GAS  C:\Users\skipi\AppData\Local\Temp\ccUZkxb5.s 			page 80


 3447              	.LBE1509:
 3448              	.LBB1510:
 3449              	.LBB1506:
  74:../libs/PoliTeKDSP/libs/libDaisy/src/dev/mpr121.h ****                    config_.dev_addr, address, 1, data, size, 10);
 3450              		.loc 2 74 42 view .LVU648
 3451 0680 94F84810 		ldrb	r1, [r4, #72]	@ zero_extendqisi2
 3452              	.LBE1506:
 3453              	.LBE1510:
 3454              	.LBB1511:
 3455              	.LBB1502:
 3456              		.loc 2 336 55 view .LVU649
 3457 0684 5045     		cmp	r0, r10
 3458 0686 18BF     		it	ne
 3459 0688 43F00103 		orrne	r3, r3, #1
 3460              	.LBE1502:
 3461              	.LBE1511:
 3462              	.LBB1512:
 3463              	.LBB1507:
  74:../libs/PoliTeKDSP/libs/libDaisy/src/dev/mpr121.h ****                    config_.dev_addr, address, 1, data, size, 10);
 3464              		.loc 2 74 42 view .LVU650
 3465 068c 3046     		mov	r0, r6
 3466              	.LVL162:
  74:../libs/PoliTeKDSP/libs/libDaisy/src/dev/mpr121.h ****                    config_.dev_addr, address, 1, data, size, 10);
 3467              		.loc 2 74 42 view .LVU651
 3468              	.LBE1507:
 3469              	.LBE1512:
 3470              	.LBB1513:
 3471              	.LBB1503:
 3472              		.loc 2 336 55 view .LVU652
 3473 068e 84F84C30 		strb	r3, [r4, #76]
 3474              	.LVL163:
 3475              		.loc 2 336 55 view .LVU653
 3476              	.LBE1503:
 3477              	.LBE1513:
 3478              	.LBB1514:
 3479              	.LBI1504:
  71:../libs/PoliTeKDSP/libs/libDaisy/src/dev/mpr121.h ****     {
 3480              		.loc 2 71 10 is_stmt 1 view .LVU654
 3481              	.LBB1508:
  73:../libs/PoliTeKDSP/libs/libDaisy/src/dev/mpr121.h ****                != i2c_.WriteDataAtAddress(
 3482              		.loc 2 73 9 view .LVU655
  74:../libs/PoliTeKDSP/libs/libDaisy/src/dev/mpr121.h ****                    config_.dev_addr, address, 1, data, size, 10);
 3483              		.loc 2 74 42 is_stmt 0 view .LVU656
 3484 0692 2B46     		mov	r3, r5
 3485 0694 FFF7FEFF 		bl	_ZN5daisy9I2CHandle18WriteDataAtAddressEtttPhtm
 3486              	.LVL164:
  74:../libs/PoliTeKDSP/libs/libDaisy/src/dev/mpr121.h ****                    config_.dev_addr, address, 1, data, size, 10);
 3487              		.loc 2 74 42 view .LVU657
 3488              	.LBE1508:
 3489              	.LBE1514:
 3490              	.LBB1515:
 3491              	.LBI1515:
 3492              		.loc 2 336 10 is_stmt 1 view .LVU658
 3493              	.LBE1515:
 3494              	.LBE1524:
 3495              	.LBE1533:
 3496              	.LBB1534:
ARM GAS  C:\Users\skipi\AppData\Local\Temp\ccUZkxb5.s 			page 81


 3497              	.LBB1535:
 3498              	.LBB1536:
 3499              	.LBB1537:
 3500              	.LBB1538:
 3501              	.LBB1539:
 3502              	.LBB1540:
  66:../libs/PoliTeKDSP/libs/libDaisy/src/dev/mpr121.h ****                    config_.dev_addr, address, 1, data, size, 10);
 3503              		.loc 2 66 41 is_stmt 0 view .LVU659
 3504 0698 CDF80080 		str	r8, [sp]
 3505 069c 5E22     		movs	r2, #94
 3506 069e CDE90157 		strd	r5, r7, [sp, #4]
 3507              	.LBE1540:
 3508              	.LBE1539:
 3509              	.LBE1538:
 3510              	.LBE1537:
 3511              	.LBE1536:
 3512              	.LBE1535:
 3513              	.LBE1534:
 3514              	.LBB1625:
 3515              	.LBB1525:
 3516              	.LBB1519:
 3517              	.LBB1516:
 3518              		.loc 2 336 55 view .LVU660
 3519 06a2 94F84C30 		ldrb	r3, [r4, #76]	@ zero_extendqisi2
 3520              	.LBE1516:
 3521              	.LBE1519:
 3522              	.LBE1525:
 3523              	.LBE1625:
 3524              	.LBB1626:
 3525              	.LBB1619:
 3526              	.LBB1583:
 3527              	.LBB1560:
 3528              	.LBB1554:
 3529              	.LBB1544:
 3530              	.LBB1541:
  66:../libs/PoliTeKDSP/libs/libDaisy/src/dev/mpr121.h ****                    config_.dev_addr, address, 1, data, size, 10);
 3531              		.loc 2 66 41 view .LVU661
 3532 06a6 94F84810 		ldrb	r1, [r4, #72]	@ zero_extendqisi2
 3533              	.LBE1541:
 3534              	.LBE1544:
 3535              	.LBE1554:
 3536              	.LBE1560:
 3537              	.LBE1583:
 3538              	.LBE1619:
 3539              	.LBE1626:
 3540              	.LBB1627:
 3541              	.LBB1526:
 3542              	.LBB1520:
 3543              	.LBB1517:
 3544              		.loc 2 336 55 view .LVU662
 3545 06aa 5045     		cmp	r0, r10
 3546 06ac 18BF     		it	ne
 3547 06ae 43F00103 		orrne	r3, r3, #1
 3548              	.LBE1517:
 3549              	.LBE1520:
 3550              	.LBE1526:
 3551              	.LBE1627:
ARM GAS  C:\Users\skipi\AppData\Local\Temp\ccUZkxb5.s 			page 82


 3552              	.LBB1628:
 3553              	.LBB1620:
 3554              	.LBB1584:
 3555              	.LBB1561:
 3556              	.LBB1555:
 3557              	.LBB1545:
 3558              	.LBB1542:
  66:../libs/PoliTeKDSP/libs/libDaisy/src/dev/mpr121.h ****                    config_.dev_addr, address, 1, data, size, 10);
 3559              		.loc 2 66 41 view .LVU663
 3560 06b2 3046     		mov	r0, r6
 3561              	.LVL165:
  66:../libs/PoliTeKDSP/libs/libDaisy/src/dev/mpr121.h ****                    config_.dev_addr, address, 1, data, size, 10);
 3562              		.loc 2 66 41 view .LVU664
 3563              	.LBE1542:
 3564              	.LBE1545:
 3565              	.LBE1555:
 3566              	.LBE1561:
 3567              	.LBE1584:
 3568              	.LBE1620:
 3569              	.LBE1628:
 3570              	.LBB1629:
 3571              	.LBB1527:
 3572              	.LBB1521:
 3573              	.LBB1518:
 3574              		.loc 2 336 55 view .LVU665
 3575 06b4 84F84C30 		strb	r3, [r4, #76]
 3576              	.LVL166:
 3577              		.loc 2 336 55 view .LVU666
 3578 06b8 0523     		movs	r3, #5
 3579 06ba 8DF81F30 		strb	r3, [sp, #31]
 3580              	.LVL167:
 3581              		.loc 2 336 55 view .LVU667
 3582              	.LBE1518:
 3583              	.LBE1521:
 3584              	.LBE1527:
 3585              	.LBE1629:
 3586              	.LBB1630:
 3587              	.LBI1534:
 257:../libs/PoliTeKDSP/libs/libDaisy/src/dev/mpr121.h ****     {
 3588              		.loc 2 257 10 is_stmt 1 view .LVU668
 3589              	.LBB1621:
 3590              	.LBB1585:
 3591              	.LBB1562:
 3592              	.LBI1537:
 232:../libs/PoliTeKDSP/libs/libDaisy/src/dev/mpr121.h ****     {
 3593              		.loc 2 232 13 view .LVU669
 3594              	.LBB1556:
 3595              	.LBB1546:
 3596              	.LBI1539:
  63:../libs/PoliTeKDSP/libs/libDaisy/src/dev/mpr121.h ****     {
 3597              		.loc 2 63 10 view .LVU670
 3598              	.LBB1543:
  65:../libs/PoliTeKDSP/libs/libDaisy/src/dev/mpr121.h ****                != i2c_.ReadDataAtAddress(
 3599              		.loc 2 65 9 view .LVU671
  66:../libs/PoliTeKDSP/libs/libDaisy/src/dev/mpr121.h ****                    config_.dev_addr, address, 1, data, size, 10);
 3600              		.loc 2 66 41 is_stmt 0 view .LVU672
 3601 06be 2B46     		mov	r3, r5
ARM GAS  C:\Users\skipi\AppData\Local\Temp\ccUZkxb5.s 			page 83


 3602              	.LVL168:
  66:../libs/PoliTeKDSP/libs/libDaisy/src/dev/mpr121.h ****                    config_.dev_addr, address, 1, data, size, 10);
 3603              		.loc 2 66 41 view .LVU673
 3604 06c0 FFF7FEFF 		bl	_ZN5daisy9I2CHandle17ReadDataAtAddressEtttPhtm
 3605              	.LVL169:
  66:../libs/PoliTeKDSP/libs/libDaisy/src/dev/mpr121.h ****                    config_.dev_addr, address, 1, data, size, 10);
 3606              		.loc 2 66 41 view .LVU674
 3607              	.LBE1543:
 3608              	.LBE1546:
 3609              	.LBB1547:
 3610              	.LBI1547:
 3611              		.loc 2 336 10 is_stmt 1 view .LVU675
 3612              	.LBE1547:
 3613              	.LBE1556:
 3614              	.LBE1562:
 3615              	.LBB1563:
 3616              	.LBB1564:
  74:../libs/PoliTeKDSP/libs/libDaisy/src/dev/mpr121.h ****                    config_.dev_addr, address, 1, data, size, 10);
 3617              		.loc 2 74 42 is_stmt 0 view .LVU676
 3618 06c4 CDF80080 		str	r8, [sp]
 3619 06c8 5E22     		movs	r2, #94
 3620 06ca CDE90157 		strd	r5, r7, [sp, #4]
 3621              	.LBE1564:
 3622              	.LBE1563:
 3623              	.LBB1569:
 3624              	.LBB1557:
 3625              	.LBB1551:
 3626              	.LBB1548:
 3627              		.loc 2 336 55 view .LVU677
 3628 06ce 94F84C30 		ldrb	r3, [r4, #76]	@ zero_extendqisi2
 3629              	.LBE1548:
 3630              	.LBE1551:
 3631              	.LBE1557:
 3632              	.LBE1569:
 3633              	.LBB1570:
 3634              	.LBB1565:
  74:../libs/PoliTeKDSP/libs/libDaisy/src/dev/mpr121.h ****                    config_.dev_addr, address, 1, data, size, 10);
 3635              		.loc 2 74 42 view .LVU678
 3636 06d2 94F84810 		ldrb	r1, [r4, #72]	@ zero_extendqisi2
 3637              	.LBE1565:
 3638              	.LBE1570:
 3639              	.LBB1571:
 3640              	.LBB1558:
 3641              	.LBB1552:
 3642              	.LBB1549:
 3643              		.loc 2 336 55 view .LVU679
 3644 06d6 5045     		cmp	r0, r10
 3645 06d8 18BF     		it	ne
 3646 06da 43F00103 		orrne	r3, r3, #1
 3647              	.LBE1549:
 3648              	.LBE1552:
 3649              	.LBE1558:
 3650              	.LBE1571:
 3651              	.LBB1572:
 3652              	.LBB1566:
  74:../libs/PoliTeKDSP/libs/libDaisy/src/dev/mpr121.h ****                    config_.dev_addr, address, 1, data, size, 10);
 3653              		.loc 2 74 42 view .LVU680
ARM GAS  C:\Users\skipi\AppData\Local\Temp\ccUZkxb5.s 			page 84


 3654 06de 3046     		mov	r0, r6
 3655              	.LVL170:
  74:../libs/PoliTeKDSP/libs/libDaisy/src/dev/mpr121.h ****                    config_.dev_addr, address, 1, data, size, 10);
 3656              		.loc 2 74 42 view .LVU681
 3657              	.LBE1566:
 3658              	.LBE1572:
 3659              	.LBB1573:
 3660              	.LBB1559:
 3661              	.LBB1553:
 3662              	.LBB1550:
 3663              		.loc 2 336 55 view .LVU682
 3664 06e0 84F84C30 		strb	r3, [r4, #76]
 3665              	.LVL171:
 3666              		.loc 2 336 55 view .LVU683
 3667              	.LBE1550:
 3668              	.LBE1553:
 237:../libs/PoliTeKDSP/libs/libDaisy/src/dev/mpr121.h ****     }
 3669              		.loc 2 237 16 view .LVU684
 3670 06e4 9DF83430 		ldrb	r3, [sp, #52]	@ zero_extendqisi2
 3671              	.LVL172:
 237:../libs/PoliTeKDSP/libs/libDaisy/src/dev/mpr121.h ****     }
 3672              		.loc 2 237 16 view .LVU685
 3673              	.LBE1559:
 3674              	.LBE1573:
 271:../libs/PoliTeKDSP/libs/libDaisy/src/dev/mpr121.h ****             // clear this register to set stop mode
 3675              		.loc 2 271 21 view .LVU686
 3676 06e8 8DF834A0 		strb	r10, [sp, #52]
 3677              	.LVL173:
 3678              	.LBB1574:
 3679              	.LBI1563:
  71:../libs/PoliTeKDSP/libs/libDaisy/src/dev/mpr121.h ****     {
 3680              		.loc 2 71 10 is_stmt 1 view .LVU687
 3681              	.LBB1567:
  73:../libs/PoliTeKDSP/libs/libDaisy/src/dev/mpr121.h ****                != i2c_.WriteDataAtAddress(
 3682              		.loc 2 73 9 view .LVU688
 3683              	.LBE1567:
 3684              	.LBE1574:
 270:../libs/PoliTeKDSP/libs/libDaisy/src/dev/mpr121.h ****             uint8_t zero = 0x00;
 3685              		.loc 2 270 26 is_stmt 0 view .LVU689
 3686 06ec 8DF82030 		strb	r3, [sp, #32]
 3687              	.LBB1575:
 3688              	.LBB1568:
  74:../libs/PoliTeKDSP/libs/libDaisy/src/dev/mpr121.h ****                    config_.dev_addr, address, 1, data, size, 10);
 3689              		.loc 2 74 42 view .LVU690
 3690 06f0 2B46     		mov	r3, r5
 3691 06f2 FFF7FEFF 		bl	_ZN5daisy9I2CHandle18WriteDataAtAddressEtttPhtm
 3692              	.LVL174:
  74:../libs/PoliTeKDSP/libs/libDaisy/src/dev/mpr121.h ****                    config_.dev_addr, address, 1, data, size, 10);
 3693              		.loc 2 74 42 view .LVU691
 3694              	.LBE1568:
 3695              	.LBE1575:
 3696              	.LBB1576:
 3697              	.LBI1576:
 3698              		.loc 2 336 10 is_stmt 1 view .LVU692
 3699              	.LBE1576:
 3700              	.LBE1585:
 3701              	.LBB1586:
ARM GAS  C:\Users\skipi\AppData\Local\Temp\ccUZkxb5.s 			page 85


 3702              	.LBB1587:
  74:../libs/PoliTeKDSP/libs/libDaisy/src/dev/mpr121.h ****                    config_.dev_addr, address, 1, data, size, 10);
 3703              		.loc 2 74 42 is_stmt 0 view .LVU693
 3704 06f6 CDF800B0 		str	fp, [sp]
 3705 06fa 3022     		movs	r2, #48
 3706 06fc CDE90157 		strd	r5, r7, [sp, #4]
 3707              	.LBE1587:
 3708              	.LBE1586:
 3709              	.LBB1591:
 3710              	.LBB1580:
 3711              	.LBB1577:
 3712              		.loc 2 336 55 view .LVU694
 3713 0700 94F84C30 		ldrb	r3, [r4, #76]	@ zero_extendqisi2
 3714              	.LBE1577:
 3715              	.LBE1580:
 3716              	.LBE1591:
 3717              	.LBB1592:
 3718              	.LBB1588:
  74:../libs/PoliTeKDSP/libs/libDaisy/src/dev/mpr121.h ****                    config_.dev_addr, address, 1, data, size, 10);
 3719              		.loc 2 74 42 view .LVU695
 3720 0704 94F84810 		ldrb	r1, [r4, #72]	@ zero_extendqisi2
 3721              	.LBE1588:
 3722              	.LBE1592:
 3723              	.LBB1593:
 3724              	.LBB1581:
 3725              	.LBB1578:
 3726              		.loc 2 336 55 view .LVU696
 3727 0708 5045     		cmp	r0, r10
 3728 070a 18BF     		it	ne
 3729 070c 43F00103 		orrne	r3, r3, #1
 3730              	.LBE1578:
 3731              	.LBE1581:
 3732              	.LBE1593:
 3733              	.LBB1594:
 3734              	.LBB1589:
  74:../libs/PoliTeKDSP/libs/libDaisy/src/dev/mpr121.h ****                    config_.dev_addr, address, 1, data, size, 10);
 3735              		.loc 2 74 42 view .LVU697
 3736 0710 3046     		mov	r0, r6
 3737              	.LVL175:
  74:../libs/PoliTeKDSP/libs/libDaisy/src/dev/mpr121.h ****                    config_.dev_addr, address, 1, data, size, 10);
 3738              		.loc 2 74 42 view .LVU698
 3739              	.LBE1589:
 3740              	.LBE1594:
 3741              	.LBB1595:
 3742              	.LBB1582:
 3743              	.LBB1579:
 3744              		.loc 2 336 55 view .LVU699
 3745 0712 84F84C30 		strb	r3, [r4, #76]
 3746              	.LVL176:
 3747              		.loc 2 336 55 view .LVU700
 3748              	.LBE1579:
 3749              	.LBE1582:
 3750              	.LBE1595:
 3751              	.LBB1596:
 3752              	.LBI1586:
  71:../libs/PoliTeKDSP/libs/libDaisy/src/dev/mpr121.h ****     {
 3753              		.loc 2 71 10 is_stmt 1 view .LVU701
ARM GAS  C:\Users\skipi\AppData\Local\Temp\ccUZkxb5.s 			page 86


 3754              	.LBB1590:
  73:../libs/PoliTeKDSP/libs/libDaisy/src/dev/mpr121.h ****                != i2c_.WriteDataAtAddress(
 3755              		.loc 2 73 9 view .LVU702
  74:../libs/PoliTeKDSP/libs/libDaisy/src/dev/mpr121.h ****                    config_.dev_addr, address, 1, data, size, 10);
 3756              		.loc 2 74 42 is_stmt 0 view .LVU703
 3757 0716 2B46     		mov	r3, r5
 3758 0718 FFF7FEFF 		bl	_ZN5daisy9I2CHandle18WriteDataAtAddressEtttPhtm
 3759              	.LVL177:
  74:../libs/PoliTeKDSP/libs/libDaisy/src/dev/mpr121.h ****                    config_.dev_addr, address, 1, data, size, 10);
 3760              		.loc 2 74 42 view .LVU704
 3761              	.LBE1590:
 3762              	.LBE1596:
 3763              	.LBB1597:
 3764              	.LBI1597:
 3765              		.loc 2 336 10 is_stmt 1 view .LVU705
 3766              	.LBE1597:
 3767              	.LBB1601:
 3768              	.LBB1602:
  74:../libs/PoliTeKDSP/libs/libDaisy/src/dev/mpr121.h ****                    config_.dev_addr, address, 1, data, size, 10);
 3769              		.loc 2 74 42 is_stmt 0 view .LVU706
 3770 071c 08AB     		add	r3, sp, #32
 3771 071e 5E22     		movs	r2, #94
 3772 0720 0093     		str	r3, [sp]
 3773 0722 CDE90157 		strd	r5, r7, [sp, #4]
 3774              	.LBE1602:
 3775              	.LBE1601:
 3776              	.LBB1606:
 3777              	.LBB1598:
 3778              		.loc 2 336 55 view .LVU707
 3779 0726 94F84C30 		ldrb	r3, [r4, #76]	@ zero_extendqisi2
 3780              	.LBE1598:
 3781              	.LBE1606:
 3782              	.LBB1607:
 3783              	.LBB1603:
  74:../libs/PoliTeKDSP/libs/libDaisy/src/dev/mpr121.h ****                    config_.dev_addr, address, 1, data, size, 10);
 3784              		.loc 2 74 42 view .LVU708
 3785 072a 94F84810 		ldrb	r1, [r4, #72]	@ zero_extendqisi2
 3786              	.LBE1603:
 3787              	.LBE1607:
 3788              	.LBB1608:
 3789              	.LBB1599:
 3790              		.loc 2 336 55 view .LVU709
 3791 072e 5045     		cmp	r0, r10
 3792 0730 18BF     		it	ne
 3793 0732 43F00103 		orrne	r3, r3, #1
 3794              	.LBE1599:
 3795              	.LBE1608:
 3796              	.LBB1609:
 3797              	.LBB1604:
  74:../libs/PoliTeKDSP/libs/libDaisy/src/dev/mpr121.h ****                    config_.dev_addr, address, 1, data, size, 10);
 3798              		.loc 2 74 42 view .LVU710
 3799 0736 3046     		mov	r0, r6
 3800              	.LVL178:
  74:../libs/PoliTeKDSP/libs/libDaisy/src/dev/mpr121.h ****                    config_.dev_addr, address, 1, data, size, 10);
 3801              		.loc 2 74 42 view .LVU711
 3802              	.LBE1604:
 3803              	.LBE1609:
ARM GAS  C:\Users\skipi\AppData\Local\Temp\ccUZkxb5.s 			page 87


 3804              	.LBB1610:
 3805              	.LBB1600:
 3806              		.loc 2 336 55 view .LVU712
 3807 0738 84F84C30 		strb	r3, [r4, #76]
 3808              	.LVL179:
 3809              		.loc 2 336 55 view .LVU713
 3810              	.LBE1600:
 3811              	.LBE1610:
 3812              	.LBB1611:
 3813              	.LBI1601:
  71:../libs/PoliTeKDSP/libs/libDaisy/src/dev/mpr121.h ****     {
 3814              		.loc 2 71 10 is_stmt 1 view .LVU714
 3815              	.LBB1605:
  73:../libs/PoliTeKDSP/libs/libDaisy/src/dev/mpr121.h ****                != i2c_.WriteDataAtAddress(
 3816              		.loc 2 73 9 view .LVU715
  74:../libs/PoliTeKDSP/libs/libDaisy/src/dev/mpr121.h ****                    config_.dev_addr, address, 1, data, size, 10);
 3817              		.loc 2 74 42 is_stmt 0 view .LVU716
 3818 073c 2B46     		mov	r3, r5
 3819 073e FFF7FEFF 		bl	_ZN5daisy9I2CHandle18WriteDataAtAddressEtttPhtm
 3820              	.LVL180:
  74:../libs/PoliTeKDSP/libs/libDaisy/src/dev/mpr121.h ****                    config_.dev_addr, address, 1, data, size, 10);
 3821              		.loc 2 74 42 view .LVU717
 3822              	.LBE1605:
 3823              	.LBE1611:
 3824              	.LBB1612:
 3825              	.LBI1612:
 3826              		.loc 2 336 10 is_stmt 1 view .LVU718
 3827              	.LBE1612:
 3828              	.LBE1621:
 3829              	.LBE1630:
 3830              	.LBB1631:
 3831              	.LBB1632:
 3832              	.LBB1633:
 3833              	.LBB1634:
 3834              	.LBB1635:
 3835              	.LBB1636:
 3836              	.LBB1637:
  66:../libs/PoliTeKDSP/libs/libDaisy/src/dev/mpr121.h ****                    config_.dev_addr, address, 1, data, size, 10);
 3837              		.loc 2 66 41 is_stmt 0 view .LVU719
 3838 0742 CDF80080 		str	r8, [sp]
 3839 0746 5E22     		movs	r2, #94
 3840 0748 8DF81F50 		strb	r5, [sp, #31]
 3841 074c CDE90157 		strd	r5, r7, [sp, #4]
 3842              	.LBE1637:
 3843              	.LBE1636:
 3844              	.LBE1635:
 3845              	.LBE1634:
 3846              	.LBE1633:
 3847              	.LBE1632:
 3848              	.LBE1631:
 3849              	.LBB1722:
 3850              	.LBB1622:
 3851              	.LBB1616:
 3852              	.LBB1613:
 3853              		.loc 2 336 55 view .LVU720
 3854 0750 94F84C30 		ldrb	r3, [r4, #76]	@ zero_extendqisi2
 3855              	.LBE1613:
ARM GAS  C:\Users\skipi\AppData\Local\Temp\ccUZkxb5.s 			page 88


 3856              	.LBE1616:
 3857              	.LBE1622:
 3858              	.LBE1722:
 3859              	.LBB1723:
 3860              	.LBB1716:
 3861              	.LBB1680:
 3862              	.LBB1657:
 3863              	.LBB1651:
 3864              	.LBB1641:
 3865              	.LBB1638:
  66:../libs/PoliTeKDSP/libs/libDaisy/src/dev/mpr121.h ****                    config_.dev_addr, address, 1, data, size, 10);
 3866              		.loc 2 66 41 view .LVU721
 3867 0754 94F84810 		ldrb	r1, [r4, #72]	@ zero_extendqisi2
 3868              	.LBE1638:
 3869              	.LBE1641:
 3870              	.LBE1651:
 3871              	.LBE1657:
 3872              	.LBE1680:
 3873              	.LBE1716:
 3874              	.LBE1723:
 3875              	.LBB1724:
 3876              	.LBB1623:
 3877              	.LBB1617:
 3878              	.LBB1614:
 3879              		.loc 2 336 55 view .LVU722
 3880 0758 5045     		cmp	r0, r10
 3881 075a 18BF     		it	ne
 3882 075c 43F00103 		orrne	r3, r3, #1
 3883              	.LBE1614:
 3884              	.LBE1617:
 3885              	.LBE1623:
 3886              	.LBE1724:
 3887              	.LBB1725:
 3888              	.LBB1717:
 3889              	.LBB1681:
 3890              	.LBB1658:
 3891              	.LBB1652:
 3892              	.LBB1642:
 3893              	.LBB1639:
  66:../libs/PoliTeKDSP/libs/libDaisy/src/dev/mpr121.h ****                    config_.dev_addr, address, 1, data, size, 10);
 3894              		.loc 2 66 41 view .LVU723
 3895 0760 3046     		mov	r0, r6
 3896              	.LVL181:
  66:../libs/PoliTeKDSP/libs/libDaisy/src/dev/mpr121.h ****                    config_.dev_addr, address, 1, data, size, 10);
 3897              		.loc 2 66 41 view .LVU724
 3898              	.LBE1639:
 3899              	.LBE1642:
 3900              	.LBE1652:
 3901              	.LBE1658:
 3902              	.LBE1681:
 3903              	.LBE1717:
 3904              	.LBE1725:
 3905              	.LBB1726:
 3906              	.LBB1624:
 3907              	.LBB1618:
 3908              	.LBB1615:
 3909              		.loc 2 336 55 view .LVU725
ARM GAS  C:\Users\skipi\AppData\Local\Temp\ccUZkxb5.s 			page 89


 3910 0762 84F84C30 		strb	r3, [r4, #76]
 3911              	.LVL182:
 3912              		.loc 2 336 55 view .LVU726
 3913              	.LBE1615:
 3914              	.LBE1618:
 3915              	.LBE1624:
 3916              	.LBE1726:
 3917              	.LBB1727:
 3918              	.LBI1631:
 257:../libs/PoliTeKDSP/libs/libDaisy/src/dev/mpr121.h ****     {
 3919              		.loc 2 257 10 is_stmt 1 view .LVU727
 3920              	.LBB1718:
 3921              	.LBB1682:
 3922              	.LBB1659:
 3923              	.LBI1634:
 232:../libs/PoliTeKDSP/libs/libDaisy/src/dev/mpr121.h ****     {
 3924              		.loc 2 232 13 view .LVU728
 3925              	.LBB1653:
 3926              	.LBB1643:
 3927              	.LBI1636:
  63:../libs/PoliTeKDSP/libs/libDaisy/src/dev/mpr121.h ****     {
 3928              		.loc 2 63 10 view .LVU729
 3929              	.LBB1640:
  65:../libs/PoliTeKDSP/libs/libDaisy/src/dev/mpr121.h ****                != i2c_.ReadDataAtAddress(
 3930              		.loc 2 65 9 view .LVU730
  66:../libs/PoliTeKDSP/libs/libDaisy/src/dev/mpr121.h ****                    config_.dev_addr, address, 1, data, size, 10);
 3931              		.loc 2 66 41 is_stmt 0 view .LVU731
 3932 0766 2B46     		mov	r3, r5
 3933 0768 FFF7FEFF 		bl	_ZN5daisy9I2CHandle17ReadDataAtAddressEtttPhtm
 3934              	.LVL183:
  66:../libs/PoliTeKDSP/libs/libDaisy/src/dev/mpr121.h ****                    config_.dev_addr, address, 1, data, size, 10);
 3935              		.loc 2 66 41 view .LVU732
 3936              	.LBE1640:
 3937              	.LBE1643:
 3938              	.LBB1644:
 3939              	.LBI1644:
 3940              		.loc 2 336 10 is_stmt 1 view .LVU733
 3941              	.LBE1644:
 3942              	.LBE1653:
 3943              	.LBE1659:
 3944              	.LBB1660:
 3945              	.LBB1661:
  74:../libs/PoliTeKDSP/libs/libDaisy/src/dev/mpr121.h ****                    config_.dev_addr, address, 1, data, size, 10);
 3946              		.loc 2 74 42 is_stmt 0 view .LVU734
 3947 076c CDF80080 		str	r8, [sp]
 3948 0770 5E22     		movs	r2, #94
 3949 0772 CDE90157 		strd	r5, r7, [sp, #4]
 3950              	.LBE1661:
 3951              	.LBE1660:
 3952              	.LBB1666:
 3953              	.LBB1654:
 3954              	.LBB1648:
 3955              	.LBB1645:
 3956              		.loc 2 336 55 view .LVU735
 3957 0776 94F84C30 		ldrb	r3, [r4, #76]	@ zero_extendqisi2
 3958              	.LBE1645:
 3959              	.LBE1648:
ARM GAS  C:\Users\skipi\AppData\Local\Temp\ccUZkxb5.s 			page 90


 3960              	.LBE1654:
 3961              	.LBE1666:
 3962              	.LBB1667:
 3963              	.LBB1662:
  74:../libs/PoliTeKDSP/libs/libDaisy/src/dev/mpr121.h ****                    config_.dev_addr, address, 1, data, size, 10);
 3964              		.loc 2 74 42 view .LVU736
 3965 077a 94F84810 		ldrb	r1, [r4, #72]	@ zero_extendqisi2
 3966              	.LBE1662:
 3967              	.LBE1667:
 3968              	.LBB1668:
 3969              	.LBB1655:
 3970              	.LBB1649:
 3971              	.LBB1646:
 3972              		.loc 2 336 55 view .LVU737
 3973 077e 5045     		cmp	r0, r10
 3974 0780 18BF     		it	ne
 3975 0782 43F00103 		orrne	r3, r3, #1
 3976              	.LBE1646:
 3977              	.LBE1649:
 3978              	.LBE1655:
 3979              	.LBE1668:
 3980              	.LBB1669:
 3981              	.LBB1663:
  74:../libs/PoliTeKDSP/libs/libDaisy/src/dev/mpr121.h ****                    config_.dev_addr, address, 1, data, size, 10);
 3982              		.loc 2 74 42 view .LVU738
 3983 0786 3046     		mov	r0, r6
 3984              	.LVL184:
  74:../libs/PoliTeKDSP/libs/libDaisy/src/dev/mpr121.h ****                    config_.dev_addr, address, 1, data, size, 10);
 3985              		.loc 2 74 42 view .LVU739
 3986              	.LBE1663:
 3987              	.LBE1669:
 3988              	.LBB1670:
 3989              	.LBB1656:
 3990              	.LBB1650:
 3991              	.LBB1647:
 3992              		.loc 2 336 55 view .LVU740
 3993 0788 84F84C30 		strb	r3, [r4, #76]
 3994              	.LVL185:
 3995              		.loc 2 336 55 view .LVU741
 3996              	.LBE1647:
 3997              	.LBE1650:
 237:../libs/PoliTeKDSP/libs/libDaisy/src/dev/mpr121.h ****     }
 3998              		.loc 2 237 16 view .LVU742
 3999 078c 9DF83430 		ldrb	r3, [sp, #52]	@ zero_extendqisi2
 4000              	.LVL186:
 237:../libs/PoliTeKDSP/libs/libDaisy/src/dev/mpr121.h ****     }
 4001              		.loc 2 237 16 view .LVU743
 4002              	.LBE1656:
 4003              	.LBE1670:
 271:../libs/PoliTeKDSP/libs/libDaisy/src/dev/mpr121.h ****             // clear this register to set stop mode
 4004              		.loc 2 271 21 view .LVU744
 4005 0790 8DF834A0 		strb	r10, [sp, #52]
 4006              	.LVL187:
 4007              	.LBB1671:
 4008              	.LBI1660:
  71:../libs/PoliTeKDSP/libs/libDaisy/src/dev/mpr121.h ****     {
 4009              		.loc 2 71 10 is_stmt 1 view .LVU745
ARM GAS  C:\Users\skipi\AppData\Local\Temp\ccUZkxb5.s 			page 91


 4010              	.LBB1664:
  73:../libs/PoliTeKDSP/libs/libDaisy/src/dev/mpr121.h ****                != i2c_.WriteDataAtAddress(
 4011              		.loc 2 73 9 view .LVU746
 4012              	.LBE1664:
 4013              	.LBE1671:
 270:../libs/PoliTeKDSP/libs/libDaisy/src/dev/mpr121.h ****             uint8_t zero = 0x00;
 4014              		.loc 2 270 26 is_stmt 0 view .LVU747
 4015 0794 8DF82030 		strb	r3, [sp, #32]
 4016              	.LBB1672:
 4017              	.LBB1665:
  74:../libs/PoliTeKDSP/libs/libDaisy/src/dev/mpr121.h ****                    config_.dev_addr, address, 1, data, size, 10);
 4018              		.loc 2 74 42 view .LVU748
 4019 0798 2B46     		mov	r3, r5
 4020 079a FFF7FEFF 		bl	_ZN5daisy9I2CHandle18WriteDataAtAddressEtttPhtm
 4021              	.LVL188:
  74:../libs/PoliTeKDSP/libs/libDaisy/src/dev/mpr121.h ****                    config_.dev_addr, address, 1, data, size, 10);
 4022              		.loc 2 74 42 view .LVU749
 4023              	.LBE1665:
 4024              	.LBE1672:
 4025              	.LBB1673:
 4026              	.LBI1673:
 4027              		.loc 2 336 10 is_stmt 1 view .LVU750
 4028              	.LBE1673:
 4029              	.LBE1682:
 4030              	.LBB1683:
 4031              	.LBB1684:
  74:../libs/PoliTeKDSP/libs/libDaisy/src/dev/mpr121.h ****                    config_.dev_addr, address, 1, data, size, 10);
 4032              		.loc 2 74 42 is_stmt 0 view .LVU751
 4033 079e CDF800B0 		str	fp, [sp]
 4034 07a2 3122     		movs	r2, #49
 4035 07a4 CDE90157 		strd	r5, r7, [sp, #4]
 4036              	.LBE1684:
 4037              	.LBE1683:
 4038              	.LBB1688:
 4039              	.LBB1677:
 4040              	.LBB1674:
 4041              		.loc 2 336 55 view .LVU752
 4042 07a8 94F84C30 		ldrb	r3, [r4, #76]	@ zero_extendqisi2
 4043              	.LBE1674:
 4044              	.LBE1677:
 4045              	.LBE1688:
 4046              	.LBB1689:
 4047              	.LBB1685:
  74:../libs/PoliTeKDSP/libs/libDaisy/src/dev/mpr121.h ****                    config_.dev_addr, address, 1, data, size, 10);
 4048              		.loc 2 74 42 view .LVU753
 4049 07ac 94F84810 		ldrb	r1, [r4, #72]	@ zero_extendqisi2
 4050              	.LBE1685:
 4051              	.LBE1689:
 4052              	.LBB1690:
 4053              	.LBB1678:
 4054              	.LBB1675:
 4055              		.loc 2 336 55 view .LVU754
 4056 07b0 5045     		cmp	r0, r10
 4057 07b2 18BF     		it	ne
 4058 07b4 43F00103 		orrne	r3, r3, #1
 4059              	.LBE1675:
 4060              	.LBE1678:
ARM GAS  C:\Users\skipi\AppData\Local\Temp\ccUZkxb5.s 			page 92


 4061              	.LBE1690:
 4062              	.LBB1691:
 4063              	.LBB1686:
  74:../libs/PoliTeKDSP/libs/libDaisy/src/dev/mpr121.h ****                    config_.dev_addr, address, 1, data, size, 10);
 4064              		.loc 2 74 42 view .LVU755
 4065 07b8 3046     		mov	r0, r6
 4066              	.LVL189:
  74:../libs/PoliTeKDSP/libs/libDaisy/src/dev/mpr121.h ****                    config_.dev_addr, address, 1, data, size, 10);
 4067              		.loc 2 74 42 view .LVU756
 4068              	.LBE1686:
 4069              	.LBE1691:
 4070              	.LBB1692:
 4071              	.LBB1679:
 4072              	.LBB1676:
 4073              		.loc 2 336 55 view .LVU757
 4074 07ba 84F84C30 		strb	r3, [r4, #76]
 4075              	.LVL190:
 4076              		.loc 2 336 55 view .LVU758
 4077              	.LBE1676:
 4078              	.LBE1679:
 4079              	.LBE1692:
 4080              	.LBB1693:
 4081              	.LBI1683:
  71:../libs/PoliTeKDSP/libs/libDaisy/src/dev/mpr121.h ****     {
 4082              		.loc 2 71 10 is_stmt 1 view .LVU759
 4083              	.LBB1687:
  73:../libs/PoliTeKDSP/libs/libDaisy/src/dev/mpr121.h ****                != i2c_.WriteDataAtAddress(
 4084              		.loc 2 73 9 view .LVU760
  74:../libs/PoliTeKDSP/libs/libDaisy/src/dev/mpr121.h ****                    config_.dev_addr, address, 1, data, size, 10);
 4085              		.loc 2 74 42 is_stmt 0 view .LVU761
 4086 07be 2B46     		mov	r3, r5
 4087 07c0 FFF7FEFF 		bl	_ZN5daisy9I2CHandle18WriteDataAtAddressEtttPhtm
 4088              	.LVL191:
  74:../libs/PoliTeKDSP/libs/libDaisy/src/dev/mpr121.h ****                    config_.dev_addr, address, 1, data, size, 10);
 4089              		.loc 2 74 42 view .LVU762
 4090              	.LBE1687:
 4091              	.LBE1693:
 4092              	.LBB1694:
 4093              	.LBI1694:
 4094              		.loc 2 336 10 is_stmt 1 view .LVU763
 4095              	.LBE1694:
 4096              	.LBB1698:
 4097              	.LBB1699:
  74:../libs/PoliTeKDSP/libs/libDaisy/src/dev/mpr121.h ****                    config_.dev_addr, address, 1, data, size, 10);
 4098              		.loc 2 74 42 is_stmt 0 view .LVU764
 4099 07c4 08AB     		add	r3, sp, #32
 4100 07c6 5E22     		movs	r2, #94
 4101 07c8 0093     		str	r3, [sp]
 4102 07ca CDE90157 		strd	r5, r7, [sp, #4]
 4103              	.LBE1699:
 4104              	.LBE1698:
 4105              	.LBB1703:
 4106              	.LBB1695:
 4107              		.loc 2 336 55 view .LVU765
 4108 07ce 94F84C30 		ldrb	r3, [r4, #76]	@ zero_extendqisi2
 4109              	.LBE1695:
 4110              	.LBE1703:
ARM GAS  C:\Users\skipi\AppData\Local\Temp\ccUZkxb5.s 			page 93


 4111              	.LBB1704:
 4112              	.LBB1700:
  74:../libs/PoliTeKDSP/libs/libDaisy/src/dev/mpr121.h ****                    config_.dev_addr, address, 1, data, size, 10);
 4113              		.loc 2 74 42 view .LVU766
 4114 07d2 94F84810 		ldrb	r1, [r4, #72]	@ zero_extendqisi2
 4115              	.LBE1700:
 4116              	.LBE1704:
 4117              	.LBB1705:
 4118              	.LBB1696:
 4119              		.loc 2 336 55 view .LVU767
 4120 07d6 5045     		cmp	r0, r10
 4121 07d8 18BF     		it	ne
 4122 07da 43F00103 		orrne	r3, r3, #1
 4123              	.LBE1696:
 4124              	.LBE1705:
 4125              	.LBB1706:
 4126              	.LBB1701:
  74:../libs/PoliTeKDSP/libs/libDaisy/src/dev/mpr121.h ****                    config_.dev_addr, address, 1, data, size, 10);
 4127              		.loc 2 74 42 view .LVU768
 4128 07de 3046     		mov	r0, r6
 4129              	.LVL192:
  74:../libs/PoliTeKDSP/libs/libDaisy/src/dev/mpr121.h ****                    config_.dev_addr, address, 1, data, size, 10);
 4130              		.loc 2 74 42 view .LVU769
 4131              	.LBE1701:
 4132              	.LBE1706:
 4133              	.LBB1707:
 4134              	.LBB1697:
 4135              		.loc 2 336 55 view .LVU770
 4136 07e0 84F84C30 		strb	r3, [r4, #76]
 4137              	.LVL193:
 4138              		.loc 2 336 55 view .LVU771
 4139              	.LBE1697:
 4140              	.LBE1707:
 4141              	.LBB1708:
 4142              	.LBI1698:
  71:../libs/PoliTeKDSP/libs/libDaisy/src/dev/mpr121.h ****     {
 4143              		.loc 2 71 10 is_stmt 1 view .LVU772
 4144              	.LBB1702:
  73:../libs/PoliTeKDSP/libs/libDaisy/src/dev/mpr121.h ****                != i2c_.WriteDataAtAddress(
 4145              		.loc 2 73 9 view .LVU773
  74:../libs/PoliTeKDSP/libs/libDaisy/src/dev/mpr121.h ****                    config_.dev_addr, address, 1, data, size, 10);
 4146              		.loc 2 74 42 is_stmt 0 view .LVU774
 4147 07e4 2B46     		mov	r3, r5
 4148 07e6 FFF7FEFF 		bl	_ZN5daisy9I2CHandle18WriteDataAtAddressEtttPhtm
 4149              	.LVL194:
  74:../libs/PoliTeKDSP/libs/libDaisy/src/dev/mpr121.h ****                    config_.dev_addr, address, 1, data, size, 10);
 4150              		.loc 2 74 42 view .LVU775
 4151              	.LBE1702:
 4152              	.LBE1708:
 4153              	.LBB1709:
 4154              	.LBI1709:
 4155              		.loc 2 336 10 is_stmt 1 view .LVU776
 4156              	.LBE1709:
 4157              	.LBE1718:
 4158              	.LBE1727:
 4159              	.LBB1728:
 4160              	.LBB1729:
ARM GAS  C:\Users\skipi\AppData\Local\Temp\ccUZkxb5.s 			page 94


 4161              	.LBB1730:
 4162              	.LBB1731:
 4163              	.LBB1732:
 4164              	.LBB1733:
 4165              	.LBB1734:
  66:../libs/PoliTeKDSP/libs/libDaisy/src/dev/mpr121.h ****                    config_.dev_addr, address, 1, data, size, 10);
 4166              		.loc 2 66 41 is_stmt 0 view .LVU777
 4167 07ea CDF80080 		str	r8, [sp]
 4168 07ee 5E22     		movs	r2, #94
 4169 07f0 8DF81FA0 		strb	r10, [sp, #31]
 4170 07f4 CDE90157 		strd	r5, r7, [sp, #4]
 4171              	.LBE1734:
 4172              	.LBE1733:
 4173              	.LBE1732:
 4174              	.LBE1731:
 4175              	.LBE1730:
 4176              	.LBE1729:
 4177              	.LBE1728:
 4178              	.LBB1819:
 4179              	.LBB1719:
 4180              	.LBB1713:
 4181              	.LBB1710:
 4182              		.loc 2 336 55 view .LVU778
 4183 07f8 94F84C30 		ldrb	r3, [r4, #76]	@ zero_extendqisi2
 4184              	.LBE1710:
 4185              	.LBE1713:
 4186              	.LBE1719:
 4187              	.LBE1819:
 4188              	.LBB1820:
 4189              	.LBB1813:
 4190              	.LBB1777:
 4191              	.LBB1754:
 4192              	.LBB1748:
 4193              	.LBB1738:
 4194              	.LBB1735:
  66:../libs/PoliTeKDSP/libs/libDaisy/src/dev/mpr121.h ****                    config_.dev_addr, address, 1, data, size, 10);
 4195              		.loc 2 66 41 view .LVU779
 4196 07fc 94F84810 		ldrb	r1, [r4, #72]	@ zero_extendqisi2
 4197              	.LBE1735:
 4198              	.LBE1738:
 4199              	.LBE1748:
 4200              	.LBE1754:
 4201              	.LBE1777:
 4202              	.LBE1813:
 4203              	.LBE1820:
 4204              	.LBB1821:
 4205              	.LBB1720:
 4206              	.LBB1714:
 4207              	.LBB1711:
 4208              		.loc 2 336 55 view .LVU780
 4209 0800 5045     		cmp	r0, r10
 4210 0802 18BF     		it	ne
 4211 0804 43F00103 		orrne	r3, r3, #1
 4212              	.LBE1711:
 4213              	.LBE1714:
 4214              	.LBE1720:
 4215              	.LBE1821:
ARM GAS  C:\Users\skipi\AppData\Local\Temp\ccUZkxb5.s 			page 95


 4216              	.LBB1822:
 4217              	.LBB1814:
 4218              	.LBB1778:
 4219              	.LBB1755:
 4220              	.LBB1749:
 4221              	.LBB1739:
 4222              	.LBB1736:
  66:../libs/PoliTeKDSP/libs/libDaisy/src/dev/mpr121.h ****                    config_.dev_addr, address, 1, data, size, 10);
 4223              		.loc 2 66 41 view .LVU781
 4224 0808 3046     		mov	r0, r6
 4225              	.LVL195:
  66:../libs/PoliTeKDSP/libs/libDaisy/src/dev/mpr121.h ****                    config_.dev_addr, address, 1, data, size, 10);
 4226              		.loc 2 66 41 view .LVU782
 4227              	.LBE1736:
 4228              	.LBE1739:
 4229              	.LBE1749:
 4230              	.LBE1755:
 4231              	.LBE1778:
 4232              	.LBE1814:
 4233              	.LBE1822:
 4234              	.LBB1823:
 4235              	.LBB1721:
 4236              	.LBB1715:
 4237              	.LBB1712:
 4238              		.loc 2 336 55 view .LVU783
 4239 080a 84F84C30 		strb	r3, [r4, #76]
 4240              	.LVL196:
 4241              		.loc 2 336 55 view .LVU784
 4242              	.LBE1712:
 4243              	.LBE1715:
 4244              	.LBE1721:
 4245              	.LBE1823:
 4246              	.LBB1824:
 4247              	.LBI1728:
 257:../libs/PoliTeKDSP/libs/libDaisy/src/dev/mpr121.h ****     {
 4248              		.loc 2 257 10 is_stmt 1 view .LVU785
 4249              	.LBB1815:
 4250              	.LBB1779:
 4251              	.LBB1756:
 4252              	.LBI1731:
 232:../libs/PoliTeKDSP/libs/libDaisy/src/dev/mpr121.h ****     {
 4253              		.loc 2 232 13 view .LVU786
 4254              	.LBB1750:
 4255              	.LBB1740:
 4256              	.LBI1733:
  63:../libs/PoliTeKDSP/libs/libDaisy/src/dev/mpr121.h ****     {
 4257              		.loc 2 63 10 view .LVU787
 4258              	.LBB1737:
  65:../libs/PoliTeKDSP/libs/libDaisy/src/dev/mpr121.h ****                != i2c_.ReadDataAtAddress(
 4259              		.loc 2 65 9 view .LVU788
  66:../libs/PoliTeKDSP/libs/libDaisy/src/dev/mpr121.h ****                    config_.dev_addr, address, 1, data, size, 10);
 4260              		.loc 2 66 41 is_stmt 0 view .LVU789
 4261 080e 2B46     		mov	r3, r5
 4262 0810 FFF7FEFF 		bl	_ZN5daisy9I2CHandle17ReadDataAtAddressEtttPhtm
 4263              	.LVL197:
  66:../libs/PoliTeKDSP/libs/libDaisy/src/dev/mpr121.h ****                    config_.dev_addr, address, 1, data, size, 10);
 4264              		.loc 2 66 41 view .LVU790
ARM GAS  C:\Users\skipi\AppData\Local\Temp\ccUZkxb5.s 			page 96


 4265              	.LBE1737:
 4266              	.LBE1740:
 4267              	.LBB1741:
 4268              	.LBI1741:
 4269              		.loc 2 336 10 is_stmt 1 view .LVU791
 4270              	.LBE1741:
 4271              	.LBE1750:
 4272              	.LBE1756:
 4273              	.LBB1757:
 4274              	.LBB1758:
  74:../libs/PoliTeKDSP/libs/libDaisy/src/dev/mpr121.h ****                    config_.dev_addr, address, 1, data, size, 10);
 4275              		.loc 2 74 42 is_stmt 0 view .LVU792
 4276 0814 CDF80080 		str	r8, [sp]
 4277 0818 5E22     		movs	r2, #94
 4278 081a CDE90157 		strd	r5, r7, [sp, #4]
 4279              	.LBE1758:
 4280              	.LBE1757:
 4281              	.LBB1763:
 4282              	.LBB1751:
 4283              	.LBB1745:
 4284              	.LBB1742:
 4285              		.loc 2 336 55 view .LVU793
 4286 081e 94F84C30 		ldrb	r3, [r4, #76]	@ zero_extendqisi2
 4287              	.LBE1742:
 4288              	.LBE1745:
 4289              	.LBE1751:
 4290              	.LBE1763:
 4291              	.LBB1764:
 4292              	.LBB1759:
  74:../libs/PoliTeKDSP/libs/libDaisy/src/dev/mpr121.h ****                    config_.dev_addr, address, 1, data, size, 10);
 4293              		.loc 2 74 42 view .LVU794
 4294 0822 94F84810 		ldrb	r1, [r4, #72]	@ zero_extendqisi2
 4295              	.LBE1759:
 4296              	.LBE1764:
 4297              	.LBB1765:
 4298              	.LBB1752:
 4299              	.LBB1746:
 4300              	.LBB1743:
 4301              		.loc 2 336 55 view .LVU795
 4302 0826 5045     		cmp	r0, r10
 4303 0828 18BF     		it	ne
 4304 082a 43F00103 		orrne	r3, r3, #1
 4305              	.LBE1743:
 4306              	.LBE1746:
 4307              	.LBE1752:
 4308              	.LBE1765:
 4309              	.LBB1766:
 4310              	.LBB1760:
  74:../libs/PoliTeKDSP/libs/libDaisy/src/dev/mpr121.h ****                    config_.dev_addr, address, 1, data, size, 10);
 4311              		.loc 2 74 42 view .LVU796
 4312 082e 3046     		mov	r0, r6
 4313              	.LVL198:
  74:../libs/PoliTeKDSP/libs/libDaisy/src/dev/mpr121.h ****                    config_.dev_addr, address, 1, data, size, 10);
 4314              		.loc 2 74 42 view .LVU797
 4315              	.LBE1760:
 4316              	.LBE1766:
 4317              	.LBB1767:
ARM GAS  C:\Users\skipi\AppData\Local\Temp\ccUZkxb5.s 			page 97


 4318              	.LBB1753:
 4319              	.LBB1747:
 4320              	.LBB1744:
 4321              		.loc 2 336 55 view .LVU798
 4322 0830 84F84C30 		strb	r3, [r4, #76]
 4323              	.LVL199:
 4324              		.loc 2 336 55 view .LVU799
 4325              	.LBE1744:
 4326              	.LBE1747:
 237:../libs/PoliTeKDSP/libs/libDaisy/src/dev/mpr121.h ****     }
 4327              		.loc 2 237 16 view .LVU800
 4328 0834 9DF83430 		ldrb	r3, [sp, #52]	@ zero_extendqisi2
 4329              	.LVL200:
 237:../libs/PoliTeKDSP/libs/libDaisy/src/dev/mpr121.h ****     }
 4330              		.loc 2 237 16 view .LVU801
 4331              	.LBE1753:
 4332              	.LBE1767:
 271:../libs/PoliTeKDSP/libs/libDaisy/src/dev/mpr121.h ****             // clear this register to set stop mode
 4333              		.loc 2 271 21 view .LVU802
 4334 0838 8DF834A0 		strb	r10, [sp, #52]
 4335              	.LVL201:
 4336              	.LBB1768:
 4337              	.LBI1757:
  71:../libs/PoliTeKDSP/libs/libDaisy/src/dev/mpr121.h ****     {
 4338              		.loc 2 71 10 is_stmt 1 view .LVU803
 4339              	.LBB1761:
  73:../libs/PoliTeKDSP/libs/libDaisy/src/dev/mpr121.h ****                != i2c_.WriteDataAtAddress(
 4340              		.loc 2 73 9 view .LVU804
 4341              	.LBE1761:
 4342              	.LBE1768:
 270:../libs/PoliTeKDSP/libs/libDaisy/src/dev/mpr121.h ****             uint8_t zero = 0x00;
 4343              		.loc 2 270 26 is_stmt 0 view .LVU805
 4344 083c 8DF82030 		strb	r3, [sp, #32]
 4345              	.LBB1769:
 4346              	.LBB1762:
  74:../libs/PoliTeKDSP/libs/libDaisy/src/dev/mpr121.h ****                    config_.dev_addr, address, 1, data, size, 10);
 4347              		.loc 2 74 42 view .LVU806
 4348 0840 2B46     		mov	r3, r5
 4349 0842 FFF7FEFF 		bl	_ZN5daisy9I2CHandle18WriteDataAtAddressEtttPhtm
 4350              	.LVL202:
  74:../libs/PoliTeKDSP/libs/libDaisy/src/dev/mpr121.h ****                    config_.dev_addr, address, 1, data, size, 10);
 4351              		.loc 2 74 42 view .LVU807
 4352              	.LBE1762:
 4353              	.LBE1769:
 4354              	.LBB1770:
 4355              	.LBI1770:
 4356              		.loc 2 336 10 is_stmt 1 view .LVU808
 4357              	.LBE1770:
 4358              	.LBE1779:
 4359              	.LBB1780:
 4360              	.LBB1781:
  74:../libs/PoliTeKDSP/libs/libDaisy/src/dev/mpr121.h ****                    config_.dev_addr, address, 1, data, size, 10);
 4361              		.loc 2 74 42 is_stmt 0 view .LVU809
 4362 0846 CDF800B0 		str	fp, [sp]
 4363 084a 3222     		movs	r2, #50
 4364 084c CDE90157 		strd	r5, r7, [sp, #4]
 4365              	.LBE1781:
ARM GAS  C:\Users\skipi\AppData\Local\Temp\ccUZkxb5.s 			page 98


 4366              	.LBE1780:
 4367              	.LBB1785:
 4368              	.LBB1774:
 4369              	.LBB1771:
 4370              		.loc 2 336 55 view .LVU810
 4371 0850 94F84C30 		ldrb	r3, [r4, #76]	@ zero_extendqisi2
 4372              	.LBE1771:
 4373              	.LBE1774:
 4374              	.LBE1785:
 4375              	.LBB1786:
 4376              	.LBB1782:
  74:../libs/PoliTeKDSP/libs/libDaisy/src/dev/mpr121.h ****                    config_.dev_addr, address, 1, data, size, 10);
 4377              		.loc 2 74 42 view .LVU811
 4378 0854 94F84810 		ldrb	r1, [r4, #72]	@ zero_extendqisi2
 4379              	.LBE1782:
 4380              	.LBE1786:
 4381              	.LBB1787:
 4382              	.LBB1775:
 4383              	.LBB1772:
 4384              		.loc 2 336 55 view .LVU812
 4385 0858 5045     		cmp	r0, r10
 4386 085a 18BF     		it	ne
 4387 085c 43F00103 		orrne	r3, r3, #1
 4388              	.LBE1772:
 4389              	.LBE1775:
 4390              	.LBE1787:
 4391              	.LBB1788:
 4392              	.LBB1783:
  74:../libs/PoliTeKDSP/libs/libDaisy/src/dev/mpr121.h ****                    config_.dev_addr, address, 1, data, size, 10);
 4393              		.loc 2 74 42 view .LVU813
 4394 0860 3046     		mov	r0, r6
 4395              	.LVL203:
  74:../libs/PoliTeKDSP/libs/libDaisy/src/dev/mpr121.h ****                    config_.dev_addr, address, 1, data, size, 10);
 4396              		.loc 2 74 42 view .LVU814
 4397              	.LBE1783:
 4398              	.LBE1788:
 4399              	.LBB1789:
 4400              	.LBB1776:
 4401              	.LBB1773:
 4402              		.loc 2 336 55 view .LVU815
 4403 0862 84F84C30 		strb	r3, [r4, #76]
 4404              	.LVL204:
 4405              		.loc 2 336 55 view .LVU816
 4406              	.LBE1773:
 4407              	.LBE1776:
 4408              	.LBE1789:
 4409              	.LBB1790:
 4410              	.LBI1780:
  71:../libs/PoliTeKDSP/libs/libDaisy/src/dev/mpr121.h ****     {
 4411              		.loc 2 71 10 is_stmt 1 view .LVU817
 4412              	.LBB1784:
  73:../libs/PoliTeKDSP/libs/libDaisy/src/dev/mpr121.h ****                != i2c_.WriteDataAtAddress(
 4413              		.loc 2 73 9 view .LVU818
  74:../libs/PoliTeKDSP/libs/libDaisy/src/dev/mpr121.h ****                    config_.dev_addr, address, 1, data, size, 10);
 4414              		.loc 2 74 42 is_stmt 0 view .LVU819
 4415 0866 2B46     		mov	r3, r5
 4416 0868 FFF7FEFF 		bl	_ZN5daisy9I2CHandle18WriteDataAtAddressEtttPhtm
ARM GAS  C:\Users\skipi\AppData\Local\Temp\ccUZkxb5.s 			page 99


 4417              	.LVL205:
  74:../libs/PoliTeKDSP/libs/libDaisy/src/dev/mpr121.h ****                    config_.dev_addr, address, 1, data, size, 10);
 4418              		.loc 2 74 42 view .LVU820
 4419              	.LBE1784:
 4420              	.LBE1790:
 4421              	.LBB1791:
 4422              	.LBI1791:
 4423              		.loc 2 336 10 is_stmt 1 view .LVU821
 4424              	.LBE1791:
 4425              	.LBB1795:
 4426              	.LBB1796:
  74:../libs/PoliTeKDSP/libs/libDaisy/src/dev/mpr121.h ****                    config_.dev_addr, address, 1, data, size, 10);
 4427              		.loc 2 74 42 is_stmt 0 view .LVU822
 4428 086c 08AB     		add	r3, sp, #32
 4429 086e 5E22     		movs	r2, #94
 4430 0870 0093     		str	r3, [sp]
 4431 0872 CDE90157 		strd	r5, r7, [sp, #4]
 4432              	.LBE1796:
 4433              	.LBE1795:
 4434              	.LBB1800:
 4435              	.LBB1792:
 4436              		.loc 2 336 55 view .LVU823
 4437 0876 94F84C30 		ldrb	r3, [r4, #76]	@ zero_extendqisi2
 4438              	.LBE1792:
 4439              	.LBE1800:
 4440              	.LBB1801:
 4441              	.LBB1797:
  74:../libs/PoliTeKDSP/libs/libDaisy/src/dev/mpr121.h ****                    config_.dev_addr, address, 1, data, size, 10);
 4442              		.loc 2 74 42 view .LVU824
 4443 087a 94F84810 		ldrb	r1, [r4, #72]	@ zero_extendqisi2
 4444              	.LBE1797:
 4445              	.LBE1801:
 4446              	.LBB1802:
 4447              	.LBB1793:
 4448              		.loc 2 336 55 view .LVU825
 4449 087e 5045     		cmp	r0, r10
 4450 0880 18BF     		it	ne
 4451 0882 43F00103 		orrne	r3, r3, #1
 4452              	.LBE1793:
 4453              	.LBE1802:
 4454              	.LBB1803:
 4455              	.LBB1798:
  74:../libs/PoliTeKDSP/libs/libDaisy/src/dev/mpr121.h ****                    config_.dev_addr, address, 1, data, size, 10);
 4456              		.loc 2 74 42 view .LVU826
 4457 0886 3046     		mov	r0, r6
 4458              	.LVL206:
  74:../libs/PoliTeKDSP/libs/libDaisy/src/dev/mpr121.h ****                    config_.dev_addr, address, 1, data, size, 10);
 4459              		.loc 2 74 42 view .LVU827
 4460              	.LBE1798:
 4461              	.LBE1803:
 4462              	.LBB1804:
 4463              	.LBB1794:
 4464              		.loc 2 336 55 view .LVU828
 4465 0888 84F84C30 		strb	r3, [r4, #76]
 4466              	.LVL207:
 4467              		.loc 2 336 55 view .LVU829
 4468              	.LBE1794:
ARM GAS  C:\Users\skipi\AppData\Local\Temp\ccUZkxb5.s 			page 100


 4469              	.LBE1804:
 4470              	.LBB1805:
 4471              	.LBI1795:
  71:../libs/PoliTeKDSP/libs/libDaisy/src/dev/mpr121.h ****     {
 4472              		.loc 2 71 10 is_stmt 1 view .LVU830
 4473              	.LBB1799:
  73:../libs/PoliTeKDSP/libs/libDaisy/src/dev/mpr121.h ****                != i2c_.WriteDataAtAddress(
 4474              		.loc 2 73 9 view .LVU831
  74:../libs/PoliTeKDSP/libs/libDaisy/src/dev/mpr121.h ****                    config_.dev_addr, address, 1, data, size, 10);
 4475              		.loc 2 74 42 is_stmt 0 view .LVU832
 4476 088c 2B46     		mov	r3, r5
 4477 088e FFF7FEFF 		bl	_ZN5daisy9I2CHandle18WriteDataAtAddressEtttPhtm
 4478              	.LVL208:
  74:../libs/PoliTeKDSP/libs/libDaisy/src/dev/mpr121.h ****                    config_.dev_addr, address, 1, data, size, 10);
 4479              		.loc 2 74 42 view .LVU833
 4480              	.LBE1799:
 4481              	.LBE1805:
 4482              	.LBB1806:
 4483              	.LBI1806:
 4484              		.loc 2 336 10 is_stmt 1 view .LVU834
 4485              	.LBE1806:
 4486              	.LBE1815:
 4487              	.LBE1824:
 4488              	.LBB1825:
 4489              	.LBB1826:
 4490              	.LBB1827:
 4491              	.LBB1828:
 4492              	.LBB1829:
 4493              	.LBB1830:
 4494              	.LBB1831:
  66:../libs/PoliTeKDSP/libs/libDaisy/src/dev/mpr121.h ****                    config_.dev_addr, address, 1, data, size, 10);
 4495              		.loc 2 66 41 is_stmt 0 view .LVU835
 4496 0892 CDF80080 		str	r8, [sp]
 4497 0896 5E22     		movs	r2, #94
 4498 0898 8DF81FA0 		strb	r10, [sp, #31]
 4499 089c CDE90157 		strd	r5, r7, [sp, #4]
 4500              	.LBE1831:
 4501              	.LBE1830:
 4502              	.LBE1829:
 4503              	.LBE1828:
 4504              	.LBE1827:
 4505              	.LBE1826:
 4506              	.LBE1825:
 4507              	.LBB1916:
 4508              	.LBB1816:
 4509              	.LBB1810:
 4510              	.LBB1807:
 4511              		.loc 2 336 55 view .LVU836
 4512 08a0 94F84C30 		ldrb	r3, [r4, #76]	@ zero_extendqisi2
 4513              	.LBE1807:
 4514              	.LBE1810:
 4515              	.LBE1816:
 4516              	.LBE1916:
 4517              	.LBB1917:
 4518              	.LBB1910:
 4519              	.LBB1874:
 4520              	.LBB1851:
ARM GAS  C:\Users\skipi\AppData\Local\Temp\ccUZkxb5.s 			page 101


 4521              	.LBB1845:
 4522              	.LBB1835:
 4523              	.LBB1832:
  66:../libs/PoliTeKDSP/libs/libDaisy/src/dev/mpr121.h ****                    config_.dev_addr, address, 1, data, size, 10);
 4524              		.loc 2 66 41 view .LVU837
 4525 08a4 94F84810 		ldrb	r1, [r4, #72]	@ zero_extendqisi2
 4526              	.LBE1832:
 4527              	.LBE1835:
 4528              	.LBE1845:
 4529              	.LBE1851:
 4530              	.LBE1874:
 4531              	.LBE1910:
 4532              	.LBE1917:
 4533              	.LBB1918:
 4534              	.LBB1817:
 4535              	.LBB1811:
 4536              	.LBB1808:
 4537              		.loc 2 336 55 view .LVU838
 4538 08a8 5045     		cmp	r0, r10
 4539 08aa 18BF     		it	ne
 4540 08ac 43F00103 		orrne	r3, r3, #1
 4541              	.LBE1808:
 4542              	.LBE1811:
 4543              	.LBE1817:
 4544              	.LBE1918:
 4545              	.LBB1919:
 4546              	.LBB1911:
 4547              	.LBB1875:
 4548              	.LBB1852:
 4549              	.LBB1846:
 4550              	.LBB1836:
 4551              	.LBB1833:
  66:../libs/PoliTeKDSP/libs/libDaisy/src/dev/mpr121.h ****                    config_.dev_addr, address, 1, data, size, 10);
 4552              		.loc 2 66 41 view .LVU839
 4553 08b0 3046     		mov	r0, r6
 4554              	.LVL209:
  66:../libs/PoliTeKDSP/libs/libDaisy/src/dev/mpr121.h ****                    config_.dev_addr, address, 1, data, size, 10);
 4555              		.loc 2 66 41 view .LVU840
 4556              	.LBE1833:
 4557              	.LBE1836:
 4558              	.LBE1846:
 4559              	.LBE1852:
 4560              	.LBE1875:
 4561              	.LBE1911:
 4562              	.LBE1919:
 4563              	.LBB1920:
 4564              	.LBB1818:
 4565              	.LBB1812:
 4566              	.LBB1809:
 4567              		.loc 2 336 55 view .LVU841
 4568 08b2 84F84C30 		strb	r3, [r4, #76]
 4569              	.LVL210:
 4570              		.loc 2 336 55 view .LVU842
 4571              	.LBE1809:
 4572              	.LBE1812:
 4573              	.LBE1818:
 4574              	.LBE1920:
ARM GAS  C:\Users\skipi\AppData\Local\Temp\ccUZkxb5.s 			page 102


 4575              	.LBB1921:
 4576              	.LBI1825:
 257:../libs/PoliTeKDSP/libs/libDaisy/src/dev/mpr121.h ****     {
 4577              		.loc 2 257 10 is_stmt 1 view .LVU843
 4578              	.LBB1912:
 4579              	.LBB1876:
 4580              	.LBB1853:
 4581              	.LBI1828:
 232:../libs/PoliTeKDSP/libs/libDaisy/src/dev/mpr121.h ****     {
 4582              		.loc 2 232 13 view .LVU844
 4583              	.LBB1847:
 4584              	.LBB1837:
 4585              	.LBI1830:
  63:../libs/PoliTeKDSP/libs/libDaisy/src/dev/mpr121.h ****     {
 4586              		.loc 2 63 10 view .LVU845
 4587              	.LBB1834:
  65:../libs/PoliTeKDSP/libs/libDaisy/src/dev/mpr121.h ****                != i2c_.ReadDataAtAddress(
 4588              		.loc 2 65 9 view .LVU846
  66:../libs/PoliTeKDSP/libs/libDaisy/src/dev/mpr121.h ****                    config_.dev_addr, address, 1, data, size, 10);
 4589              		.loc 2 66 41 is_stmt 0 view .LVU847
 4590 08b6 2B46     		mov	r3, r5
 4591 08b8 FFF7FEFF 		bl	_ZN5daisy9I2CHandle17ReadDataAtAddressEtttPhtm
 4592              	.LVL211:
  66:../libs/PoliTeKDSP/libs/libDaisy/src/dev/mpr121.h ****                    config_.dev_addr, address, 1, data, size, 10);
 4593              		.loc 2 66 41 view .LVU848
 4594              	.LBE1834:
 4595              	.LBE1837:
 4596              	.LBB1838:
 4597              	.LBI1838:
 4598              		.loc 2 336 10 is_stmt 1 view .LVU849
 4599              	.LBE1838:
 4600              	.LBE1847:
 4601              	.LBE1853:
 4602              	.LBB1854:
 4603              	.LBB1855:
  74:../libs/PoliTeKDSP/libs/libDaisy/src/dev/mpr121.h ****                    config_.dev_addr, address, 1, data, size, 10);
 4604              		.loc 2 74 42 is_stmt 0 view .LVU850
 4605 08bc CDF80080 		str	r8, [sp]
 4606 08c0 5E22     		movs	r2, #94
 4607 08c2 CDE90157 		strd	r5, r7, [sp, #4]
 4608              	.LBE1855:
 4609              	.LBE1854:
 4610              	.LBB1860:
 4611              	.LBB1848:
 4612              	.LBB1842:
 4613              	.LBB1839:
 4614              		.loc 2 336 55 view .LVU851
 4615 08c6 94F84C30 		ldrb	r3, [r4, #76]	@ zero_extendqisi2
 4616              	.LBE1839:
 4617              	.LBE1842:
 4618              	.LBE1848:
 4619              	.LBE1860:
 4620              	.LBB1861:
 4621              	.LBB1856:
  74:../libs/PoliTeKDSP/libs/libDaisy/src/dev/mpr121.h ****                    config_.dev_addr, address, 1, data, size, 10);
 4622              		.loc 2 74 42 view .LVU852
 4623 08ca 94F84810 		ldrb	r1, [r4, #72]	@ zero_extendqisi2
ARM GAS  C:\Users\skipi\AppData\Local\Temp\ccUZkxb5.s 			page 103


 4624              	.LBE1856:
 4625              	.LBE1861:
 4626              	.LBB1862:
 4627              	.LBB1849:
 4628              	.LBB1843:
 4629              	.LBB1840:
 4630              		.loc 2 336 55 view .LVU853
 4631 08ce 5045     		cmp	r0, r10
 4632 08d0 18BF     		it	ne
 4633 08d2 43F00103 		orrne	r3, r3, #1
 4634              	.LBE1840:
 4635              	.LBE1843:
 4636              	.LBE1849:
 4637              	.LBE1862:
 4638              	.LBB1863:
 4639              	.LBB1857:
  74:../libs/PoliTeKDSP/libs/libDaisy/src/dev/mpr121.h ****                    config_.dev_addr, address, 1, data, size, 10);
 4640              		.loc 2 74 42 view .LVU854
 4641 08d6 3046     		mov	r0, r6
 4642              	.LVL212:
  74:../libs/PoliTeKDSP/libs/libDaisy/src/dev/mpr121.h ****                    config_.dev_addr, address, 1, data, size, 10);
 4643              		.loc 2 74 42 view .LVU855
 4644              	.LBE1857:
 4645              	.LBE1863:
 4646              	.LBB1864:
 4647              	.LBB1850:
 4648              	.LBB1844:
 4649              	.LBB1841:
 4650              		.loc 2 336 55 view .LVU856
 4651 08d8 84F84C30 		strb	r3, [r4, #76]
 4652              	.LVL213:
 4653              		.loc 2 336 55 view .LVU857
 4654              	.LBE1841:
 4655              	.LBE1844:
 237:../libs/PoliTeKDSP/libs/libDaisy/src/dev/mpr121.h ****     }
 4656              		.loc 2 237 16 view .LVU858
 4657 08dc 9DF83430 		ldrb	r3, [sp, #52]	@ zero_extendqisi2
 4658              	.LVL214:
 237:../libs/PoliTeKDSP/libs/libDaisy/src/dev/mpr121.h ****     }
 4659              		.loc 2 237 16 view .LVU859
 4660              	.LBE1850:
 4661              	.LBE1864:
 271:../libs/PoliTeKDSP/libs/libDaisy/src/dev/mpr121.h ****             // clear this register to set stop mode
 4662              		.loc 2 271 21 view .LVU860
 4663 08e0 8DF834A0 		strb	r10, [sp, #52]
 4664              	.LVL215:
 4665              	.LBB1865:
 4666              	.LBI1854:
  71:../libs/PoliTeKDSP/libs/libDaisy/src/dev/mpr121.h ****     {
 4667              		.loc 2 71 10 is_stmt 1 view .LVU861
 4668              	.LBB1858:
  73:../libs/PoliTeKDSP/libs/libDaisy/src/dev/mpr121.h ****                != i2c_.WriteDataAtAddress(
 4669              		.loc 2 73 9 view .LVU862
 4670              	.LBE1858:
 4671              	.LBE1865:
 270:../libs/PoliTeKDSP/libs/libDaisy/src/dev/mpr121.h ****             uint8_t zero = 0x00;
 4672              		.loc 2 270 26 is_stmt 0 view .LVU863
ARM GAS  C:\Users\skipi\AppData\Local\Temp\ccUZkxb5.s 			page 104


 4673 08e4 8DF82030 		strb	r3, [sp, #32]
 4674              	.LBB1866:
 4675              	.LBB1859:
  74:../libs/PoliTeKDSP/libs/libDaisy/src/dev/mpr121.h ****                    config_.dev_addr, address, 1, data, size, 10);
 4676              		.loc 2 74 42 view .LVU864
 4677 08e8 2B46     		mov	r3, r5
 4678 08ea FFF7FEFF 		bl	_ZN5daisy9I2CHandle18WriteDataAtAddressEtttPhtm
 4679              	.LVL216:
  74:../libs/PoliTeKDSP/libs/libDaisy/src/dev/mpr121.h ****                    config_.dev_addr, address, 1, data, size, 10);
 4680              		.loc 2 74 42 view .LVU865
 4681              	.LBE1859:
 4682              	.LBE1866:
 4683              	.LBB1867:
 4684              	.LBI1867:
 4685              		.loc 2 336 10 is_stmt 1 view .LVU866
 4686              	.LBE1867:
 4687              	.LBE1876:
 4688              	.LBB1877:
 4689              	.LBB1878:
  74:../libs/PoliTeKDSP/libs/libDaisy/src/dev/mpr121.h ****                    config_.dev_addr, address, 1, data, size, 10);
 4690              		.loc 2 74 42 is_stmt 0 view .LVU867
 4691 08ee CDF800B0 		str	fp, [sp]
 4692 08f2 3322     		movs	r2, #51
 4693 08f4 CDE90157 		strd	r5, r7, [sp, #4]
 4694              	.LBE1878:
 4695              	.LBE1877:
 4696              	.LBB1882:
 4697              	.LBB1871:
 4698              	.LBB1868:
 4699              		.loc 2 336 55 view .LVU868
 4700 08f8 94F84C30 		ldrb	r3, [r4, #76]	@ zero_extendqisi2
 4701              	.LBE1868:
 4702              	.LBE1871:
 4703              	.LBE1882:
 4704              	.LBB1883:
 4705              	.LBB1879:
  74:../libs/PoliTeKDSP/libs/libDaisy/src/dev/mpr121.h ****                    config_.dev_addr, address, 1, data, size, 10);
 4706              		.loc 2 74 42 view .LVU869
 4707 08fc 94F84810 		ldrb	r1, [r4, #72]	@ zero_extendqisi2
 4708              	.LBE1879:
 4709              	.LBE1883:
 4710              	.LBB1884:
 4711              	.LBB1872:
 4712              	.LBB1869:
 4713              		.loc 2 336 55 view .LVU870
 4714 0900 5045     		cmp	r0, r10
 4715 0902 18BF     		it	ne
 4716 0904 43F00103 		orrne	r3, r3, #1
 4717              	.LBE1869:
 4718              	.LBE1872:
 4719              	.LBE1884:
 4720              	.LBB1885:
 4721              	.LBB1880:
  74:../libs/PoliTeKDSP/libs/libDaisy/src/dev/mpr121.h ****                    config_.dev_addr, address, 1, data, size, 10);
 4722              		.loc 2 74 42 view .LVU871
 4723 0908 3046     		mov	r0, r6
 4724              	.LVL217:
ARM GAS  C:\Users\skipi\AppData\Local\Temp\ccUZkxb5.s 			page 105


  74:../libs/PoliTeKDSP/libs/libDaisy/src/dev/mpr121.h ****                    config_.dev_addr, address, 1, data, size, 10);
 4725              		.loc 2 74 42 view .LVU872
 4726              	.LBE1880:
 4727              	.LBE1885:
 4728              	.LBB1886:
 4729              	.LBB1873:
 4730              	.LBB1870:
 4731              		.loc 2 336 55 view .LVU873
 4732 090a 84F84C30 		strb	r3, [r4, #76]
 4733              	.LVL218:
 4734              		.loc 2 336 55 view .LVU874
 4735              	.LBE1870:
 4736              	.LBE1873:
 4737              	.LBE1886:
 4738              	.LBB1887:
 4739              	.LBI1877:
  71:../libs/PoliTeKDSP/libs/libDaisy/src/dev/mpr121.h ****     {
 4740              		.loc 2 71 10 is_stmt 1 view .LVU875
 4741              	.LBB1881:
  73:../libs/PoliTeKDSP/libs/libDaisy/src/dev/mpr121.h ****                != i2c_.WriteDataAtAddress(
 4742              		.loc 2 73 9 view .LVU876
  74:../libs/PoliTeKDSP/libs/libDaisy/src/dev/mpr121.h ****                    config_.dev_addr, address, 1, data, size, 10);
 4743              		.loc 2 74 42 is_stmt 0 view .LVU877
 4744 090e 2B46     		mov	r3, r5
 4745 0910 FFF7FEFF 		bl	_ZN5daisy9I2CHandle18WriteDataAtAddressEtttPhtm
 4746              	.LVL219:
  74:../libs/PoliTeKDSP/libs/libDaisy/src/dev/mpr121.h ****                    config_.dev_addr, address, 1, data, size, 10);
 4747              		.loc 2 74 42 view .LVU878
 4748              	.LBE1881:
 4749              	.LBE1887:
 4750              	.LBB1888:
 4751              	.LBI1888:
 4752              		.loc 2 336 10 is_stmt 1 view .LVU879
 4753              	.LBE1888:
 4754              	.LBB1892:
 4755              	.LBB1893:
  74:../libs/PoliTeKDSP/libs/libDaisy/src/dev/mpr121.h ****                    config_.dev_addr, address, 1, data, size, 10);
 4756              		.loc 2 74 42 is_stmt 0 view .LVU880
 4757 0914 08AB     		add	r3, sp, #32
 4758 0916 5E22     		movs	r2, #94
 4759 0918 0093     		str	r3, [sp]
 4760 091a CDE90157 		strd	r5, r7, [sp, #4]
 4761              	.LBE1893:
 4762              	.LBE1892:
 4763              	.LBB1897:
 4764              	.LBB1889:
 4765              		.loc 2 336 55 view .LVU881
 4766 091e 94F84C30 		ldrb	r3, [r4, #76]	@ zero_extendqisi2
 4767              	.LBE1889:
 4768              	.LBE1897:
 4769              	.LBB1898:
 4770              	.LBB1894:
  74:../libs/PoliTeKDSP/libs/libDaisy/src/dev/mpr121.h ****                    config_.dev_addr, address, 1, data, size, 10);
 4771              		.loc 2 74 42 view .LVU882
 4772 0922 94F84810 		ldrb	r1, [r4, #72]	@ zero_extendqisi2
 4773              	.LBE1894:
 4774              	.LBE1898:
ARM GAS  C:\Users\skipi\AppData\Local\Temp\ccUZkxb5.s 			page 106


 4775              	.LBB1899:
 4776              	.LBB1890:
 4777              		.loc 2 336 55 view .LVU883
 4778 0926 5045     		cmp	r0, r10
 4779 0928 18BF     		it	ne
 4780 092a 43F00103 		orrne	r3, r3, #1
 4781              	.LBE1890:
 4782              	.LBE1899:
 4783              	.LBB1900:
 4784              	.LBB1895:
  74:../libs/PoliTeKDSP/libs/libDaisy/src/dev/mpr121.h ****                    config_.dev_addr, address, 1, data, size, 10);
 4785              		.loc 2 74 42 view .LVU884
 4786 092e 3046     		mov	r0, r6
 4787              	.LVL220:
  74:../libs/PoliTeKDSP/libs/libDaisy/src/dev/mpr121.h ****                    config_.dev_addr, address, 1, data, size, 10);
 4788              		.loc 2 74 42 view .LVU885
 4789              	.LBE1895:
 4790              	.LBE1900:
 4791              	.LBB1901:
 4792              	.LBB1891:
 4793              		.loc 2 336 55 view .LVU886
 4794 0930 84F84C30 		strb	r3, [r4, #76]
 4795              	.LVL221:
 4796              		.loc 2 336 55 view .LVU887
 4797              	.LBE1891:
 4798              	.LBE1901:
 4799              	.LBB1902:
 4800              	.LBI1892:
  71:../libs/PoliTeKDSP/libs/libDaisy/src/dev/mpr121.h ****     {
 4801              		.loc 2 71 10 is_stmt 1 view .LVU888
 4802              	.LBB1896:
  73:../libs/PoliTeKDSP/libs/libDaisy/src/dev/mpr121.h ****                != i2c_.WriteDataAtAddress(
 4803              		.loc 2 73 9 view .LVU889
  74:../libs/PoliTeKDSP/libs/libDaisy/src/dev/mpr121.h ****                    config_.dev_addr, address, 1, data, size, 10);
 4804              		.loc 2 74 42 is_stmt 0 view .LVU890
 4805 0934 2B46     		mov	r3, r5
 4806 0936 FFF7FEFF 		bl	_ZN5daisy9I2CHandle18WriteDataAtAddressEtttPhtm
 4807              	.LVL222:
  74:../libs/PoliTeKDSP/libs/libDaisy/src/dev/mpr121.h ****                    config_.dev_addr, address, 1, data, size, 10);
 4808              		.loc 2 74 42 view .LVU891
 4809              	.LBE1896:
 4810              	.LBE1902:
 4811              	.LBB1903:
 4812              	.LBI1903:
 4813              		.loc 2 336 10 is_stmt 1 view .LVU892
 4814              	.LBE1903:
 4815              	.LBE1912:
 4816              	.LBE1921:
 4817              	.LBB1922:
 4818              	.LBB1923:
 4819              	.LBB1924:
 4820              	.LBB1925:
 4821              	.LBB1926:
 4822              	.LBB1927:
 4823              	.LBB1928:
  66:../libs/PoliTeKDSP/libs/libDaisy/src/dev/mpr121.h ****                    config_.dev_addr, address, 1, data, size, 10);
 4824              		.loc 2 66 41 is_stmt 0 view .LVU893
ARM GAS  C:\Users\skipi\AppData\Local\Temp\ccUZkxb5.s 			page 107


 4825 093a CDF80080 		str	r8, [sp]
 4826 093e 5E22     		movs	r2, #94
 4827 0940 8DF81FA0 		strb	r10, [sp, #31]
 4828 0944 CDE90157 		strd	r5, r7, [sp, #4]
 4829              	.LBE1928:
 4830              	.LBE1927:
 4831              	.LBE1926:
 4832              	.LBE1925:
 4833              	.LBE1924:
 4834              	.LBE1923:
 4835              	.LBE1922:
 4836              	.LBB2013:
 4837              	.LBB1913:
 4838              	.LBB1907:
 4839              	.LBB1904:
 4840              		.loc 2 336 55 view .LVU894
 4841 0948 94F84C30 		ldrb	r3, [r4, #76]	@ zero_extendqisi2
 4842              	.LBE1904:
 4843              	.LBE1907:
 4844              	.LBE1913:
 4845              	.LBE2013:
 4846              	.LBB2014:
 4847              	.LBB2007:
 4848              	.LBB1971:
 4849              	.LBB1948:
 4850              	.LBB1942:
 4851              	.LBB1932:
 4852              	.LBB1929:
  66:../libs/PoliTeKDSP/libs/libDaisy/src/dev/mpr121.h ****                    config_.dev_addr, address, 1, data, size, 10);
 4853              		.loc 2 66 41 view .LVU895
 4854 094c 94F84810 		ldrb	r1, [r4, #72]	@ zero_extendqisi2
 4855              	.LBE1929:
 4856              	.LBE1932:
 4857              	.LBE1942:
 4858              	.LBE1948:
 4859              	.LBE1971:
 4860              	.LBE2007:
 4861              	.LBE2014:
 4862              	.LBB2015:
 4863              	.LBB1914:
 4864              	.LBB1908:
 4865              	.LBB1905:
 4866              		.loc 2 336 55 view .LVU896
 4867 0950 5045     		cmp	r0, r10
 4868 0952 18BF     		it	ne
 4869 0954 43F00103 		orrne	r3, r3, #1
 4870              	.LBE1905:
 4871              	.LBE1908:
 4872              	.LBE1914:
 4873              	.LBE2015:
 4874              	.LBB2016:
 4875              	.LBB2008:
 4876              	.LBB1972:
 4877              	.LBB1949:
 4878              	.LBB1943:
 4879              	.LBB1933:
 4880              	.LBB1930:
ARM GAS  C:\Users\skipi\AppData\Local\Temp\ccUZkxb5.s 			page 108


  66:../libs/PoliTeKDSP/libs/libDaisy/src/dev/mpr121.h ****                    config_.dev_addr, address, 1, data, size, 10);
 4881              		.loc 2 66 41 view .LVU897
 4882 0958 3046     		mov	r0, r6
 4883              	.LVL223:
  66:../libs/PoliTeKDSP/libs/libDaisy/src/dev/mpr121.h ****                    config_.dev_addr, address, 1, data, size, 10);
 4884              		.loc 2 66 41 view .LVU898
 4885              	.LBE1930:
 4886              	.LBE1933:
 4887              	.LBE1943:
 4888              	.LBE1949:
 4889              	.LBE1972:
 4890              	.LBE2008:
 4891              	.LBE2016:
 4892              	.LBB2017:
 4893              	.LBB1915:
 4894              	.LBB1909:
 4895              	.LBB1906:
 4896              		.loc 2 336 55 view .LVU899
 4897 095a 84F84C30 		strb	r3, [r4, #76]
 4898              	.LVL224:
 4899              		.loc 2 336 55 view .LVU900
 4900              	.LBE1906:
 4901              	.LBE1909:
 4902              	.LBE1915:
 4903              	.LBE2017:
 4904              	.LBB2018:
 4905              	.LBI1922:
 257:../libs/PoliTeKDSP/libs/libDaisy/src/dev/mpr121.h ****     {
 4906              		.loc 2 257 10 is_stmt 1 view .LVU901
 4907              	.LBB2009:
 4908              	.LBB1973:
 4909              	.LBB1950:
 4910              	.LBI1925:
 232:../libs/PoliTeKDSP/libs/libDaisy/src/dev/mpr121.h ****     {
 4911              		.loc 2 232 13 view .LVU902
 4912              	.LBB1944:
 4913              	.LBB1934:
 4914              	.LBI1927:
  63:../libs/PoliTeKDSP/libs/libDaisy/src/dev/mpr121.h ****     {
 4915              		.loc 2 63 10 view .LVU903
 4916              	.LBB1931:
  65:../libs/PoliTeKDSP/libs/libDaisy/src/dev/mpr121.h ****                != i2c_.ReadDataAtAddress(
 4917              		.loc 2 65 9 view .LVU904
  66:../libs/PoliTeKDSP/libs/libDaisy/src/dev/mpr121.h ****                    config_.dev_addr, address, 1, data, size, 10);
 4918              		.loc 2 66 41 is_stmt 0 view .LVU905
 4919 095e 2B46     		mov	r3, r5
 4920 0960 FFF7FEFF 		bl	_ZN5daisy9I2CHandle17ReadDataAtAddressEtttPhtm
 4921              	.LVL225:
  66:../libs/PoliTeKDSP/libs/libDaisy/src/dev/mpr121.h ****                    config_.dev_addr, address, 1, data, size, 10);
 4922              		.loc 2 66 41 view .LVU906
 4923              	.LBE1931:
 4924              	.LBE1934:
 4925              	.LBB1935:
 4926              	.LBI1935:
 4927              		.loc 2 336 10 is_stmt 1 view .LVU907
 4928              	.LBE1935:
 4929              	.LBE1944:
ARM GAS  C:\Users\skipi\AppData\Local\Temp\ccUZkxb5.s 			page 109


 4930              	.LBE1950:
 4931              	.LBB1951:
 4932              	.LBB1952:
  74:../libs/PoliTeKDSP/libs/libDaisy/src/dev/mpr121.h ****                    config_.dev_addr, address, 1, data, size, 10);
 4933              		.loc 2 74 42 is_stmt 0 view .LVU908
 4934 0964 CDF80080 		str	r8, [sp]
 4935 0968 5E22     		movs	r2, #94
 4936 096a CDE90157 		strd	r5, r7, [sp, #4]
 4937              	.LBE1952:
 4938              	.LBE1951:
 4939              	.LBB1957:
 4940              	.LBB1945:
 4941              	.LBB1939:
 4942              	.LBB1936:
 4943              		.loc 2 336 55 view .LVU909
 4944 096e 94F84C30 		ldrb	r3, [r4, #76]	@ zero_extendqisi2
 4945              	.LBE1936:
 4946              	.LBE1939:
 4947              	.LBE1945:
 4948              	.LBE1957:
 4949              	.LBB1958:
 4950              	.LBB1953:
  74:../libs/PoliTeKDSP/libs/libDaisy/src/dev/mpr121.h ****                    config_.dev_addr, address, 1, data, size, 10);
 4951              		.loc 2 74 42 view .LVU910
 4952 0972 94F84810 		ldrb	r1, [r4, #72]	@ zero_extendqisi2
 4953              	.LBE1953:
 4954              	.LBE1958:
 4955              	.LBB1959:
 4956              	.LBB1946:
 4957              	.LBB1940:
 4958              	.LBB1937:
 4959              		.loc 2 336 55 view .LVU911
 4960 0976 5045     		cmp	r0, r10
 4961 0978 18BF     		it	ne
 4962 097a 43F00103 		orrne	r3, r3, #1
 4963              	.LBE1937:
 4964              	.LBE1940:
 4965              	.LBE1946:
 4966              	.LBE1959:
 4967              	.LBB1960:
 4968              	.LBB1954:
  74:../libs/PoliTeKDSP/libs/libDaisy/src/dev/mpr121.h ****                    config_.dev_addr, address, 1, data, size, 10);
 4969              		.loc 2 74 42 view .LVU912
 4970 097e 3046     		mov	r0, r6
 4971              	.LVL226:
  74:../libs/PoliTeKDSP/libs/libDaisy/src/dev/mpr121.h ****                    config_.dev_addr, address, 1, data, size, 10);
 4972              		.loc 2 74 42 view .LVU913
 4973              	.LBE1954:
 4974              	.LBE1960:
 4975              	.LBB1961:
 4976              	.LBB1947:
 4977              	.LBB1941:
 4978              	.LBB1938:
 4979              		.loc 2 336 55 view .LVU914
 4980 0980 84F84C30 		strb	r3, [r4, #76]
 4981              	.LVL227:
 4982              		.loc 2 336 55 view .LVU915
ARM GAS  C:\Users\skipi\AppData\Local\Temp\ccUZkxb5.s 			page 110


 4983              	.LBE1938:
 4984              	.LBE1941:
 237:../libs/PoliTeKDSP/libs/libDaisy/src/dev/mpr121.h ****     }
 4985              		.loc 2 237 16 view .LVU916
 4986 0984 9DF83430 		ldrb	r3, [sp, #52]	@ zero_extendqisi2
 4987              	.LVL228:
 237:../libs/PoliTeKDSP/libs/libDaisy/src/dev/mpr121.h ****     }
 4988              		.loc 2 237 16 view .LVU917
 4989              	.LBE1947:
 4990              	.LBE1961:
 271:../libs/PoliTeKDSP/libs/libDaisy/src/dev/mpr121.h ****             // clear this register to set stop mode
 4991              		.loc 2 271 21 view .LVU918
 4992 0988 8DF834A0 		strb	r10, [sp, #52]
 4993              	.LVL229:
 4994              	.LBB1962:
 4995              	.LBI1951:
  71:../libs/PoliTeKDSP/libs/libDaisy/src/dev/mpr121.h ****     {
 4996              		.loc 2 71 10 is_stmt 1 view .LVU919
 4997              	.LBB1955:
  73:../libs/PoliTeKDSP/libs/libDaisy/src/dev/mpr121.h ****                != i2c_.WriteDataAtAddress(
 4998              		.loc 2 73 9 view .LVU920
 4999              	.LBE1955:
 5000              	.LBE1962:
 270:../libs/PoliTeKDSP/libs/libDaisy/src/dev/mpr121.h ****             uint8_t zero = 0x00;
 5001              		.loc 2 270 26 is_stmt 0 view .LVU921
 5002 098c 8DF82030 		strb	r3, [sp, #32]
 5003              	.LBB1963:
 5004              	.LBB1956:
  74:../libs/PoliTeKDSP/libs/libDaisy/src/dev/mpr121.h ****                    config_.dev_addr, address, 1, data, size, 10);
 5005              		.loc 2 74 42 view .LVU922
 5006 0990 2B46     		mov	r3, r5
 5007 0992 FFF7FEFF 		bl	_ZN5daisy9I2CHandle18WriteDataAtAddressEtttPhtm
 5008              	.LVL230:
  74:../libs/PoliTeKDSP/libs/libDaisy/src/dev/mpr121.h ****                    config_.dev_addr, address, 1, data, size, 10);
 5009              		.loc 2 74 42 view .LVU923
 5010              	.LBE1956:
 5011              	.LBE1963:
 5012              	.LBB1964:
 5013              	.LBI1964:
 5014              		.loc 2 336 10 is_stmt 1 view .LVU924
 5015              	.LBE1964:
 5016              	.LBE1973:
 5017              	.LBB1974:
 5018              	.LBB1975:
  74:../libs/PoliTeKDSP/libs/libDaisy/src/dev/mpr121.h ****                    config_.dev_addr, address, 1, data, size, 10);
 5019              		.loc 2 74 42 is_stmt 0 view .LVU925
 5020 0996 CDF800B0 		str	fp, [sp]
 5021 099a 3422     		movs	r2, #52
 5022 099c CDE90157 		strd	r5, r7, [sp, #4]
 5023              	.LBE1975:
 5024              	.LBE1974:
 5025              	.LBB1979:
 5026              	.LBB1968:
 5027              	.LBB1965:
 5028              		.loc 2 336 55 view .LVU926
 5029 09a0 94F84C30 		ldrb	r3, [r4, #76]	@ zero_extendqisi2
 5030              	.LBE1965:
ARM GAS  C:\Users\skipi\AppData\Local\Temp\ccUZkxb5.s 			page 111


 5031              	.LBE1968:
 5032              	.LBE1979:
 5033              	.LBB1980:
 5034              	.LBB1976:
  74:../libs/PoliTeKDSP/libs/libDaisy/src/dev/mpr121.h ****                    config_.dev_addr, address, 1, data, size, 10);
 5035              		.loc 2 74 42 view .LVU927
 5036 09a4 94F84810 		ldrb	r1, [r4, #72]	@ zero_extendqisi2
 5037              	.LBE1976:
 5038              	.LBE1980:
 5039              	.LBB1981:
 5040              	.LBB1969:
 5041              	.LBB1966:
 5042              		.loc 2 336 55 view .LVU928
 5043 09a8 5045     		cmp	r0, r10
 5044 09aa 18BF     		it	ne
 5045 09ac 43F00103 		orrne	r3, r3, #1
 5046              	.LBE1966:
 5047              	.LBE1969:
 5048              	.LBE1981:
 5049              	.LBB1982:
 5050              	.LBB1977:
  74:../libs/PoliTeKDSP/libs/libDaisy/src/dev/mpr121.h ****                    config_.dev_addr, address, 1, data, size, 10);
 5051              		.loc 2 74 42 view .LVU929
 5052 09b0 3046     		mov	r0, r6
 5053              	.LVL231:
  74:../libs/PoliTeKDSP/libs/libDaisy/src/dev/mpr121.h ****                    config_.dev_addr, address, 1, data, size, 10);
 5054              		.loc 2 74 42 view .LVU930
 5055              	.LBE1977:
 5056              	.LBE1982:
 5057              	.LBB1983:
 5058              	.LBB1970:
 5059              	.LBB1967:
 5060              		.loc 2 336 55 view .LVU931
 5061 09b2 84F84C30 		strb	r3, [r4, #76]
 5062              	.LVL232:
 5063              		.loc 2 336 55 view .LVU932
 5064              	.LBE1967:
 5065              	.LBE1970:
 5066              	.LBE1983:
 5067              	.LBB1984:
 5068              	.LBI1974:
  71:../libs/PoliTeKDSP/libs/libDaisy/src/dev/mpr121.h ****     {
 5069              		.loc 2 71 10 is_stmt 1 view .LVU933
 5070              	.LBB1978:
  73:../libs/PoliTeKDSP/libs/libDaisy/src/dev/mpr121.h ****                != i2c_.WriteDataAtAddress(
 5071              		.loc 2 73 9 view .LVU934
  74:../libs/PoliTeKDSP/libs/libDaisy/src/dev/mpr121.h ****                    config_.dev_addr, address, 1, data, size, 10);
 5072              		.loc 2 74 42 is_stmt 0 view .LVU935
 5073 09b6 2B46     		mov	r3, r5
 5074 09b8 FFF7FEFF 		bl	_ZN5daisy9I2CHandle18WriteDataAtAddressEtttPhtm
 5075              	.LVL233:
  74:../libs/PoliTeKDSP/libs/libDaisy/src/dev/mpr121.h ****                    config_.dev_addr, address, 1, data, size, 10);
 5076              		.loc 2 74 42 view .LVU936
 5077              	.LBE1978:
 5078              	.LBE1984:
 5079              	.LBB1985:
 5080              	.LBI1985:
ARM GAS  C:\Users\skipi\AppData\Local\Temp\ccUZkxb5.s 			page 112


 5081              		.loc 2 336 10 is_stmt 1 view .LVU937
 5082              	.LBE1985:
 5083              	.LBB1989:
 5084              	.LBB1990:
  74:../libs/PoliTeKDSP/libs/libDaisy/src/dev/mpr121.h ****                    config_.dev_addr, address, 1, data, size, 10);
 5085              		.loc 2 74 42 is_stmt 0 view .LVU938
 5086 09bc 08AB     		add	r3, sp, #32
 5087 09be 5E22     		movs	r2, #94
 5088 09c0 0093     		str	r3, [sp]
 5089 09c2 CDE90157 		strd	r5, r7, [sp, #4]
 5090              	.LBE1990:
 5091              	.LBE1989:
 5092              	.LBB1994:
 5093              	.LBB1986:
 5094              		.loc 2 336 55 view .LVU939
 5095 09c6 94F84C30 		ldrb	r3, [r4, #76]	@ zero_extendqisi2
 5096              	.LBE1986:
 5097              	.LBE1994:
 5098              	.LBB1995:
 5099              	.LBB1991:
  74:../libs/PoliTeKDSP/libs/libDaisy/src/dev/mpr121.h ****                    config_.dev_addr, address, 1, data, size, 10);
 5100              		.loc 2 74 42 view .LVU940
 5101 09ca 94F84810 		ldrb	r1, [r4, #72]	@ zero_extendqisi2
 5102              	.LBE1991:
 5103              	.LBE1995:
 5104              	.LBB1996:
 5105              	.LBB1987:
 5106              		.loc 2 336 55 view .LVU941
 5107 09ce 5045     		cmp	r0, r10
 5108 09d0 18BF     		it	ne
 5109 09d2 43F00103 		orrne	r3, r3, #1
 5110              	.LBE1987:
 5111              	.LBE1996:
 5112              	.LBB1997:
 5113              	.LBB1992:
  74:../libs/PoliTeKDSP/libs/libDaisy/src/dev/mpr121.h ****                    config_.dev_addr, address, 1, data, size, 10);
 5114              		.loc 2 74 42 view .LVU942
 5115 09d6 3046     		mov	r0, r6
 5116              	.LVL234:
  74:../libs/PoliTeKDSP/libs/libDaisy/src/dev/mpr121.h ****                    config_.dev_addr, address, 1, data, size, 10);
 5117              		.loc 2 74 42 view .LVU943
 5118              	.LBE1992:
 5119              	.LBE1997:
 5120              	.LBB1998:
 5121              	.LBB1988:
 5122              		.loc 2 336 55 view .LVU944
 5123 09d8 84F84C30 		strb	r3, [r4, #76]
 5124              	.LVL235:
 5125              		.loc 2 336 55 view .LVU945
 5126              	.LBE1988:
 5127              	.LBE1998:
 5128              	.LBB1999:
 5129              	.LBI1989:
  71:../libs/PoliTeKDSP/libs/libDaisy/src/dev/mpr121.h ****     {
 5130              		.loc 2 71 10 is_stmt 1 view .LVU946
 5131              	.LBB1993:
  73:../libs/PoliTeKDSP/libs/libDaisy/src/dev/mpr121.h ****                != i2c_.WriteDataAtAddress(
ARM GAS  C:\Users\skipi\AppData\Local\Temp\ccUZkxb5.s 			page 113


 5132              		.loc 2 73 9 view .LVU947
  74:../libs/PoliTeKDSP/libs/libDaisy/src/dev/mpr121.h ****                    config_.dev_addr, address, 1, data, size, 10);
 5133              		.loc 2 74 42 is_stmt 0 view .LVU948
 5134 09dc 2B46     		mov	r3, r5
 5135 09de FFF7FEFF 		bl	_ZN5daisy9I2CHandle18WriteDataAtAddressEtttPhtm
 5136              	.LVL236:
  74:../libs/PoliTeKDSP/libs/libDaisy/src/dev/mpr121.h ****                    config_.dev_addr, address, 1, data, size, 10);
 5137              		.loc 2 74 42 view .LVU949
 5138              	.LBE1993:
 5139              	.LBE1999:
 5140              	.LBB2000:
 5141              	.LBI2000:
 5142              		.loc 2 336 10 is_stmt 1 view .LVU950
 5143              	.LBE2000:
 5144              	.LBE2009:
 5145              	.LBE2018:
 5146              	.LBB2019:
 5147              	.LBB2020:
 5148              	.LBB2021:
 5149              	.LBB2022:
 5150              	.LBB2023:
 5151              	.LBB2024:
 5152              	.LBB2025:
  66:../libs/PoliTeKDSP/libs/libDaisy/src/dev/mpr121.h ****                    config_.dev_addr, address, 1, data, size, 10);
 5153              		.loc 2 66 41 is_stmt 0 view .LVU951
 5154 09e2 CDF80080 		str	r8, [sp]
 5155 09e6 5E22     		movs	r2, #94
 5156 09e8 8DF81FA0 		strb	r10, [sp, #31]
 5157 09ec CDE90157 		strd	r5, r7, [sp, #4]
 5158              	.LBE2025:
 5159              	.LBE2024:
 5160              	.LBE2023:
 5161              	.LBE2022:
 5162              	.LBE2021:
 5163              	.LBE2020:
 5164              	.LBE2019:
 5165              	.LBB2110:
 5166              	.LBB2010:
 5167              	.LBB2004:
 5168              	.LBB2001:
 5169              		.loc 2 336 55 view .LVU952
 5170 09f0 94F84C30 		ldrb	r3, [r4, #76]	@ zero_extendqisi2
 5171              	.LBE2001:
 5172              	.LBE2004:
 5173              	.LBE2010:
 5174              	.LBE2110:
 5175              	.LBB2111:
 5176              	.LBB2104:
 5177              	.LBB2068:
 5178              	.LBB2045:
 5179              	.LBB2039:
 5180              	.LBB2029:
 5181              	.LBB2026:
  66:../libs/PoliTeKDSP/libs/libDaisy/src/dev/mpr121.h ****                    config_.dev_addr, address, 1, data, size, 10);
 5182              		.loc 2 66 41 view .LVU953
 5183 09f4 94F84810 		ldrb	r1, [r4, #72]	@ zero_extendqisi2
 5184              	.LBE2026:
ARM GAS  C:\Users\skipi\AppData\Local\Temp\ccUZkxb5.s 			page 114


 5185              	.LBE2029:
 5186              	.LBE2039:
 5187              	.LBE2045:
 5188              	.LBE2068:
 5189              	.LBE2104:
 5190              	.LBE2111:
 5191              	.LBB2112:
 5192              	.LBB2011:
 5193              	.LBB2005:
 5194              	.LBB2002:
 5195              		.loc 2 336 55 view .LVU954
 5196 09f8 5045     		cmp	r0, r10
 5197 09fa 18BF     		it	ne
 5198 09fc 43F00103 		orrne	r3, r3, #1
 5199              	.LBE2002:
 5200              	.LBE2005:
 5201              	.LBE2011:
 5202              	.LBE2112:
 5203              	.LBB2113:
 5204              	.LBB2105:
 5205              	.LBB2069:
 5206              	.LBB2046:
 5207              	.LBB2040:
 5208              	.LBB2030:
 5209              	.LBB2027:
  66:../libs/PoliTeKDSP/libs/libDaisy/src/dev/mpr121.h ****                    config_.dev_addr, address, 1, data, size, 10);
 5210              		.loc 2 66 41 view .LVU955
 5211 0a00 3046     		mov	r0, r6
 5212              	.LVL237:
  66:../libs/PoliTeKDSP/libs/libDaisy/src/dev/mpr121.h ****                    config_.dev_addr, address, 1, data, size, 10);
 5213              		.loc 2 66 41 view .LVU956
 5214              	.LBE2027:
 5215              	.LBE2030:
 5216              	.LBE2040:
 5217              	.LBE2046:
 5218              	.LBE2069:
 5219              	.LBE2105:
 5220              	.LBE2113:
 5221              	.LBB2114:
 5222              	.LBB2012:
 5223              	.LBB2006:
 5224              	.LBB2003:
 5225              		.loc 2 336 55 view .LVU957
 5226 0a02 84F84C30 		strb	r3, [r4, #76]
 5227              	.LVL238:
 5228              		.loc 2 336 55 view .LVU958
 5229              	.LBE2003:
 5230              	.LBE2006:
 5231              	.LBE2012:
 5232              	.LBE2114:
 5233              	.LBB2115:
 5234              	.LBI2019:
 257:../libs/PoliTeKDSP/libs/libDaisy/src/dev/mpr121.h ****     {
 5235              		.loc 2 257 10 is_stmt 1 view .LVU959
 5236              	.LBB2106:
 5237              	.LBB2070:
 5238              	.LBB2047:
ARM GAS  C:\Users\skipi\AppData\Local\Temp\ccUZkxb5.s 			page 115


 5239              	.LBI2022:
 232:../libs/PoliTeKDSP/libs/libDaisy/src/dev/mpr121.h ****     {
 5240              		.loc 2 232 13 view .LVU960
 5241              	.LBB2041:
 5242              	.LBB2031:
 5243              	.LBI2024:
  63:../libs/PoliTeKDSP/libs/libDaisy/src/dev/mpr121.h ****     {
 5244              		.loc 2 63 10 view .LVU961
 5245              	.LBB2028:
  65:../libs/PoliTeKDSP/libs/libDaisy/src/dev/mpr121.h ****                != i2c_.ReadDataAtAddress(
 5246              		.loc 2 65 9 view .LVU962
  66:../libs/PoliTeKDSP/libs/libDaisy/src/dev/mpr121.h ****                    config_.dev_addr, address, 1, data, size, 10);
 5247              		.loc 2 66 41 is_stmt 0 view .LVU963
 5248 0a06 2B46     		mov	r3, r5
 5249 0a08 FFF7FEFF 		bl	_ZN5daisy9I2CHandle17ReadDataAtAddressEtttPhtm
 5250              	.LVL239:
  66:../libs/PoliTeKDSP/libs/libDaisy/src/dev/mpr121.h ****                    config_.dev_addr, address, 1, data, size, 10);
 5251              		.loc 2 66 41 view .LVU964
 5252              	.LBE2028:
 5253              	.LBE2031:
 5254              	.LBB2032:
 5255              	.LBI2032:
 5256              		.loc 2 336 10 is_stmt 1 view .LVU965
 5257              	.LBE2032:
 5258              	.LBE2041:
 5259              	.LBE2047:
 5260              	.LBB2048:
 5261              	.LBB2049:
  74:../libs/PoliTeKDSP/libs/libDaisy/src/dev/mpr121.h ****                    config_.dev_addr, address, 1, data, size, 10);
 5262              		.loc 2 74 42 is_stmt 0 view .LVU966
 5263 0a0c CDF80080 		str	r8, [sp]
 5264 0a10 5E22     		movs	r2, #94
 5265 0a12 CDE90157 		strd	r5, r7, [sp, #4]
 5266              	.LBE2049:
 5267              	.LBE2048:
 5268              	.LBB2054:
 5269              	.LBB2042:
 5270              	.LBB2036:
 5271              	.LBB2033:
 5272              		.loc 2 336 55 view .LVU967
 5273 0a16 94F84C30 		ldrb	r3, [r4, #76]	@ zero_extendqisi2
 5274              	.LBE2033:
 5275              	.LBE2036:
 5276              	.LBE2042:
 5277              	.LBE2054:
 5278              	.LBB2055:
 5279              	.LBB2050:
  74:../libs/PoliTeKDSP/libs/libDaisy/src/dev/mpr121.h ****                    config_.dev_addr, address, 1, data, size, 10);
 5280              		.loc 2 74 42 view .LVU968
 5281 0a1a 94F84810 		ldrb	r1, [r4, #72]	@ zero_extendqisi2
 5282              	.LBE2050:
 5283              	.LBE2055:
 5284              	.LBB2056:
 5285              	.LBB2043:
 5286              	.LBB2037:
 5287              	.LBB2034:
 5288              		.loc 2 336 55 view .LVU969
ARM GAS  C:\Users\skipi\AppData\Local\Temp\ccUZkxb5.s 			page 116


 5289 0a1e 5045     		cmp	r0, r10
 5290 0a20 18BF     		it	ne
 5291 0a22 43F00103 		orrne	r3, r3, #1
 5292              	.LBE2034:
 5293              	.LBE2037:
 5294              	.LBE2043:
 5295              	.LBE2056:
 5296              	.LBB2057:
 5297              	.LBB2051:
  74:../libs/PoliTeKDSP/libs/libDaisy/src/dev/mpr121.h ****                    config_.dev_addr, address, 1, data, size, 10);
 5298              		.loc 2 74 42 view .LVU970
 5299 0a26 3046     		mov	r0, r6
 5300              	.LVL240:
  74:../libs/PoliTeKDSP/libs/libDaisy/src/dev/mpr121.h ****                    config_.dev_addr, address, 1, data, size, 10);
 5301              		.loc 2 74 42 view .LVU971
 5302              	.LBE2051:
 5303              	.LBE2057:
 5304              	.LBB2058:
 5305              	.LBB2044:
 5306              	.LBB2038:
 5307              	.LBB2035:
 5308              		.loc 2 336 55 view .LVU972
 5309 0a28 84F84C30 		strb	r3, [r4, #76]
 5310              	.LVL241:
 5311              		.loc 2 336 55 view .LVU973
 5312              	.LBE2035:
 5313              	.LBE2038:
 237:../libs/PoliTeKDSP/libs/libDaisy/src/dev/mpr121.h ****     }
 5314              		.loc 2 237 16 view .LVU974
 5315 0a2c 9DF83430 		ldrb	r3, [sp, #52]	@ zero_extendqisi2
 5316              	.LVL242:
 237:../libs/PoliTeKDSP/libs/libDaisy/src/dev/mpr121.h ****     }
 5317              		.loc 2 237 16 view .LVU975
 5318              	.LBE2044:
 5319              	.LBE2058:
 271:../libs/PoliTeKDSP/libs/libDaisy/src/dev/mpr121.h ****             // clear this register to set stop mode
 5320              		.loc 2 271 21 view .LVU976
 5321 0a30 8DF834A0 		strb	r10, [sp, #52]
 5322              	.LVL243:
 5323              	.LBB2059:
 5324              	.LBI2048:
  71:../libs/PoliTeKDSP/libs/libDaisy/src/dev/mpr121.h ****     {
 5325              		.loc 2 71 10 is_stmt 1 view .LVU977
 5326              	.LBB2052:
  73:../libs/PoliTeKDSP/libs/libDaisy/src/dev/mpr121.h ****                != i2c_.WriteDataAtAddress(
 5327              		.loc 2 73 9 view .LVU978
 5328              	.LBE2052:
 5329              	.LBE2059:
 270:../libs/PoliTeKDSP/libs/libDaisy/src/dev/mpr121.h ****             uint8_t zero = 0x00;
 5330              		.loc 2 270 26 is_stmt 0 view .LVU979
 5331 0a34 8DF82030 		strb	r3, [sp, #32]
 5332              	.LBB2060:
 5333              	.LBB2053:
  74:../libs/PoliTeKDSP/libs/libDaisy/src/dev/mpr121.h ****                    config_.dev_addr, address, 1, data, size, 10);
 5334              		.loc 2 74 42 view .LVU980
 5335 0a38 2B46     		mov	r3, r5
 5336 0a3a FFF7FEFF 		bl	_ZN5daisy9I2CHandle18WriteDataAtAddressEtttPhtm
ARM GAS  C:\Users\skipi\AppData\Local\Temp\ccUZkxb5.s 			page 117


 5337              	.LVL244:
  74:../libs/PoliTeKDSP/libs/libDaisy/src/dev/mpr121.h ****                    config_.dev_addr, address, 1, data, size, 10);
 5338              		.loc 2 74 42 view .LVU981
 5339              	.LBE2053:
 5340              	.LBE2060:
 5341              	.LBB2061:
 5342              	.LBI2061:
 5343              		.loc 2 336 10 is_stmt 1 view .LVU982
 5344              	.LBE2061:
 5345              	.LBE2070:
 5346              	.LBB2071:
 5347              	.LBB2072:
  74:../libs/PoliTeKDSP/libs/libDaisy/src/dev/mpr121.h ****                    config_.dev_addr, address, 1, data, size, 10);
 5348              		.loc 2 74 42 is_stmt 0 view .LVU983
 5349 0a3e CDF800B0 		str	fp, [sp]
 5350 0a42 3522     		movs	r2, #53
 5351 0a44 CDE90157 		strd	r5, r7, [sp, #4]
 5352              	.LBE2072:
 5353              	.LBE2071:
 5354              	.LBB2076:
 5355              	.LBB2065:
 5356              	.LBB2062:
 5357              		.loc 2 336 55 view .LVU984
 5358 0a48 94F84C30 		ldrb	r3, [r4, #76]	@ zero_extendqisi2
 5359              	.LBE2062:
 5360              	.LBE2065:
 5361              	.LBE2076:
 5362              	.LBB2077:
 5363              	.LBB2073:
  74:../libs/PoliTeKDSP/libs/libDaisy/src/dev/mpr121.h ****                    config_.dev_addr, address, 1, data, size, 10);
 5364              		.loc 2 74 42 view .LVU985
 5365 0a4c 94F84810 		ldrb	r1, [r4, #72]	@ zero_extendqisi2
 5366              	.LBE2073:
 5367              	.LBE2077:
 5368              	.LBB2078:
 5369              	.LBB2066:
 5370              	.LBB2063:
 5371              		.loc 2 336 55 view .LVU986
 5372 0a50 5045     		cmp	r0, r10
 5373 0a52 18BF     		it	ne
 5374 0a54 43F00103 		orrne	r3, r3, #1
 5375              	.LBE2063:
 5376              	.LBE2066:
 5377              	.LBE2078:
 5378              	.LBB2079:
 5379              	.LBB2074:
  74:../libs/PoliTeKDSP/libs/libDaisy/src/dev/mpr121.h ****                    config_.dev_addr, address, 1, data, size, 10);
 5380              		.loc 2 74 42 view .LVU987
 5381 0a58 3046     		mov	r0, r6
 5382              	.LVL245:
  74:../libs/PoliTeKDSP/libs/libDaisy/src/dev/mpr121.h ****                    config_.dev_addr, address, 1, data, size, 10);
 5383              		.loc 2 74 42 view .LVU988
 5384              	.LBE2074:
 5385              	.LBE2079:
 5386              	.LBB2080:
 5387              	.LBB2067:
 5388              	.LBB2064:
ARM GAS  C:\Users\skipi\AppData\Local\Temp\ccUZkxb5.s 			page 118


 5389              		.loc 2 336 55 view .LVU989
 5390 0a5a 84F84C30 		strb	r3, [r4, #76]
 5391              	.LVL246:
 5392              		.loc 2 336 55 view .LVU990
 5393              	.LBE2064:
 5394              	.LBE2067:
 5395              	.LBE2080:
 5396              	.LBB2081:
 5397              	.LBI2071:
  71:../libs/PoliTeKDSP/libs/libDaisy/src/dev/mpr121.h ****     {
 5398              		.loc 2 71 10 is_stmt 1 view .LVU991
 5399              	.LBB2075:
  73:../libs/PoliTeKDSP/libs/libDaisy/src/dev/mpr121.h ****                != i2c_.WriteDataAtAddress(
 5400              		.loc 2 73 9 view .LVU992
  74:../libs/PoliTeKDSP/libs/libDaisy/src/dev/mpr121.h ****                    config_.dev_addr, address, 1, data, size, 10);
 5401              		.loc 2 74 42 is_stmt 0 view .LVU993
 5402 0a5e 2B46     		mov	r3, r5
 5403 0a60 FFF7FEFF 		bl	_ZN5daisy9I2CHandle18WriteDataAtAddressEtttPhtm
 5404              	.LVL247:
  74:../libs/PoliTeKDSP/libs/libDaisy/src/dev/mpr121.h ****                    config_.dev_addr, address, 1, data, size, 10);
 5405              		.loc 2 74 42 view .LVU994
 5406              	.LBE2075:
 5407              	.LBE2081:
 5408              	.LBB2082:
 5409              	.LBI2082:
 5410              		.loc 2 336 10 is_stmt 1 view .LVU995
 5411              	.LBE2082:
 5412              	.LBB2086:
 5413              	.LBB2087:
  74:../libs/PoliTeKDSP/libs/libDaisy/src/dev/mpr121.h ****                    config_.dev_addr, address, 1, data, size, 10);
 5414              		.loc 2 74 42 is_stmt 0 view .LVU996
 5415 0a64 08AB     		add	r3, sp, #32
 5416 0a66 5E22     		movs	r2, #94
 5417 0a68 0093     		str	r3, [sp]
 5418 0a6a CDE90157 		strd	r5, r7, [sp, #4]
 5419              	.LBE2087:
 5420              	.LBE2086:
 5421              	.LBB2091:
 5422              	.LBB2083:
 5423              		.loc 2 336 55 view .LVU997
 5424 0a6e 94F84C30 		ldrb	r3, [r4, #76]	@ zero_extendqisi2
 5425              	.LBE2083:
 5426              	.LBE2091:
 5427              	.LBB2092:
 5428              	.LBB2088:
  74:../libs/PoliTeKDSP/libs/libDaisy/src/dev/mpr121.h ****                    config_.dev_addr, address, 1, data, size, 10);
 5429              		.loc 2 74 42 view .LVU998
 5430 0a72 94F84810 		ldrb	r1, [r4, #72]	@ zero_extendqisi2
 5431              	.LBE2088:
 5432              	.LBE2092:
 5433              	.LBB2093:
 5434              	.LBB2084:
 5435              		.loc 2 336 55 view .LVU999
 5436 0a76 5045     		cmp	r0, r10
 5437 0a78 18BF     		it	ne
 5438 0a7a 43F00103 		orrne	r3, r3, #1
 5439              	.LBE2084:
ARM GAS  C:\Users\skipi\AppData\Local\Temp\ccUZkxb5.s 			page 119


 5440              	.LBE2093:
 5441              	.LBB2094:
 5442              	.LBB2089:
  74:../libs/PoliTeKDSP/libs/libDaisy/src/dev/mpr121.h ****                    config_.dev_addr, address, 1, data, size, 10);
 5443              		.loc 2 74 42 view .LVU1000
 5444 0a7e 3046     		mov	r0, r6
 5445              	.LVL248:
  74:../libs/PoliTeKDSP/libs/libDaisy/src/dev/mpr121.h ****                    config_.dev_addr, address, 1, data, size, 10);
 5446              		.loc 2 74 42 view .LVU1001
 5447              	.LBE2089:
 5448              	.LBE2094:
 5449              	.LBB2095:
 5450              	.LBB2085:
 5451              		.loc 2 336 55 view .LVU1002
 5452 0a80 84F84C30 		strb	r3, [r4, #76]
 5453              	.LVL249:
 5454              		.loc 2 336 55 view .LVU1003
 5455              	.LBE2085:
 5456              	.LBE2095:
 5457              	.LBB2096:
 5458              	.LBI2086:
  71:../libs/PoliTeKDSP/libs/libDaisy/src/dev/mpr121.h ****     {
 5459              		.loc 2 71 10 is_stmt 1 view .LVU1004
 5460              	.LBB2090:
  73:../libs/PoliTeKDSP/libs/libDaisy/src/dev/mpr121.h ****                != i2c_.WriteDataAtAddress(
 5461              		.loc 2 73 9 view .LVU1005
  74:../libs/PoliTeKDSP/libs/libDaisy/src/dev/mpr121.h ****                    config_.dev_addr, address, 1, data, size, 10);
 5462              		.loc 2 74 42 is_stmt 0 view .LVU1006
 5463 0a84 2B46     		mov	r3, r5
 5464 0a86 FFF7FEFF 		bl	_ZN5daisy9I2CHandle18WriteDataAtAddressEtttPhtm
 5465              	.LVL250:
  74:../libs/PoliTeKDSP/libs/libDaisy/src/dev/mpr121.h ****                    config_.dev_addr, address, 1, data, size, 10);
 5466              		.loc 2 74 42 view .LVU1007
 5467              	.LBE2090:
 5468              	.LBE2096:
 5469              	.LBB2097:
 5470              	.LBI2097:
 5471              		.loc 2 336 10 is_stmt 1 view .LVU1008
 5472              	.LBE2097:
 5473              	.LBE2106:
 5474              	.LBE2115:
 5475              	.LBB2116:
 5476              	.LBB2117:
 5477              	.LBB2118:
 5478              	.LBB2119:
 5479              	.LBB2120:
 5480              	.LBB2121:
 5481              	.LBB2122:
  66:../libs/PoliTeKDSP/libs/libDaisy/src/dev/mpr121.h ****                    config_.dev_addr, address, 1, data, size, 10);
 5482              		.loc 2 66 41 is_stmt 0 view .LVU1009
 5483 0a8a CDF80080 		str	r8, [sp]
 5484 0a8e 5E22     		movs	r2, #94
 5485 0a90 8DF81FA0 		strb	r10, [sp, #31]
 5486 0a94 CDE90157 		strd	r5, r7, [sp, #4]
 5487              	.LBE2122:
 5488              	.LBE2121:
 5489              	.LBE2120:
ARM GAS  C:\Users\skipi\AppData\Local\Temp\ccUZkxb5.s 			page 120


 5490              	.LBE2119:
 5491              	.LBE2118:
 5492              	.LBE2117:
 5493              	.LBE2116:
 5494              	.LBB2207:
 5495              	.LBB2107:
 5496              	.LBB2101:
 5497              	.LBB2098:
 5498              		.loc 2 336 55 view .LVU1010
 5499 0a98 94F84C30 		ldrb	r3, [r4, #76]	@ zero_extendqisi2
 5500              	.LBE2098:
 5501              	.LBE2101:
 5502              	.LBE2107:
 5503              	.LBE2207:
 5504              	.LBB2208:
 5505              	.LBB2201:
 5506              	.LBB2165:
 5507              	.LBB2142:
 5508              	.LBB2136:
 5509              	.LBB2126:
 5510              	.LBB2123:
  66:../libs/PoliTeKDSP/libs/libDaisy/src/dev/mpr121.h ****                    config_.dev_addr, address, 1, data, size, 10);
 5511              		.loc 2 66 41 view .LVU1011
 5512 0a9c 94F84810 		ldrb	r1, [r4, #72]	@ zero_extendqisi2
 5513              	.LBE2123:
 5514              	.LBE2126:
 5515              	.LBE2136:
 5516              	.LBE2142:
 5517              	.LBE2165:
 5518              	.LBE2201:
 5519              	.LBE2208:
 5520              	.LBB2209:
 5521              	.LBB2108:
 5522              	.LBB2102:
 5523              	.LBB2099:
 5524              		.loc 2 336 55 view .LVU1012
 5525 0aa0 5045     		cmp	r0, r10
 5526 0aa2 18BF     		it	ne
 5527 0aa4 43F00103 		orrne	r3, r3, #1
 5528              	.LBE2099:
 5529              	.LBE2102:
 5530              	.LBE2108:
 5531              	.LBE2209:
 5532              	.LBB2210:
 5533              	.LBB2202:
 5534              	.LBB2166:
 5535              	.LBB2143:
 5536              	.LBB2137:
 5537              	.LBB2127:
 5538              	.LBB2124:
  66:../libs/PoliTeKDSP/libs/libDaisy/src/dev/mpr121.h ****                    config_.dev_addr, address, 1, data, size, 10);
 5539              		.loc 2 66 41 view .LVU1013
 5540 0aa8 3046     		mov	r0, r6
 5541              	.LVL251:
  66:../libs/PoliTeKDSP/libs/libDaisy/src/dev/mpr121.h ****                    config_.dev_addr, address, 1, data, size, 10);
 5542              		.loc 2 66 41 view .LVU1014
 5543              	.LBE2124:
ARM GAS  C:\Users\skipi\AppData\Local\Temp\ccUZkxb5.s 			page 121


 5544              	.LBE2127:
 5545              	.LBE2137:
 5546              	.LBE2143:
 5547              	.LBE2166:
 5548              	.LBE2202:
 5549              	.LBE2210:
 5550              	.LBB2211:
 5551              	.LBB2109:
 5552              	.LBB2103:
 5553              	.LBB2100:
 5554              		.loc 2 336 55 view .LVU1015
 5555 0aaa 84F84C30 		strb	r3, [r4, #76]
 5556              	.LVL252:
 5557              		.loc 2 336 55 view .LVU1016
 5558              	.LBE2100:
 5559              	.LBE2103:
 5560              	.LBE2109:
 5561              	.LBE2211:
 5562              	.LBB2212:
 5563              	.LBI2116:
 257:../libs/PoliTeKDSP/libs/libDaisy/src/dev/mpr121.h ****     {
 5564              		.loc 2 257 10 is_stmt 1 view .LVU1017
 5565              	.LBB2203:
 5566              	.LBB2167:
 5567              	.LBB2144:
 5568              	.LBI2119:
 232:../libs/PoliTeKDSP/libs/libDaisy/src/dev/mpr121.h ****     {
 5569              		.loc 2 232 13 view .LVU1018
 5570              	.LBB2138:
 5571              	.LBB2128:
 5572              	.LBI2121:
  63:../libs/PoliTeKDSP/libs/libDaisy/src/dev/mpr121.h ****     {
 5573              		.loc 2 63 10 view .LVU1019
 5574              	.LBB2125:
  65:../libs/PoliTeKDSP/libs/libDaisy/src/dev/mpr121.h ****                != i2c_.ReadDataAtAddress(
 5575              		.loc 2 65 9 view .LVU1020
  66:../libs/PoliTeKDSP/libs/libDaisy/src/dev/mpr121.h ****                    config_.dev_addr, address, 1, data, size, 10);
 5576              		.loc 2 66 41 is_stmt 0 view .LVU1021
 5577 0aae 2B46     		mov	r3, r5
 5578 0ab0 FFF7FEFF 		bl	_ZN5daisy9I2CHandle17ReadDataAtAddressEtttPhtm
 5579              	.LVL253:
  66:../libs/PoliTeKDSP/libs/libDaisy/src/dev/mpr121.h ****                    config_.dev_addr, address, 1, data, size, 10);
 5580              		.loc 2 66 41 view .LVU1022
 5581              	.LBE2125:
 5582              	.LBE2128:
 5583              	.LBB2129:
 5584              	.LBI2129:
 5585              		.loc 2 336 10 is_stmt 1 view .LVU1023
 5586              	.LBE2129:
 5587              	.LBE2138:
 5588              	.LBE2144:
 5589              	.LBB2145:
 5590              	.LBB2146:
  74:../libs/PoliTeKDSP/libs/libDaisy/src/dev/mpr121.h ****                    config_.dev_addr, address, 1, data, size, 10);
 5591              		.loc 2 74 42 is_stmt 0 view .LVU1024
 5592 0ab4 CDF80080 		str	r8, [sp]
 5593 0ab8 5E22     		movs	r2, #94
ARM GAS  C:\Users\skipi\AppData\Local\Temp\ccUZkxb5.s 			page 122


 5594 0aba CDE90157 		strd	r5, r7, [sp, #4]
 5595              	.LBE2146:
 5596              	.LBE2145:
 5597              	.LBB2151:
 5598              	.LBB2139:
 5599              	.LBB2133:
 5600              	.LBB2130:
 5601              		.loc 2 336 55 view .LVU1025
 5602 0abe 94F84C30 		ldrb	r3, [r4, #76]	@ zero_extendqisi2
 5603              	.LBE2130:
 5604              	.LBE2133:
 5605              	.LBE2139:
 5606              	.LBE2151:
 5607              	.LBB2152:
 5608              	.LBB2147:
  74:../libs/PoliTeKDSP/libs/libDaisy/src/dev/mpr121.h ****                    config_.dev_addr, address, 1, data, size, 10);
 5609              		.loc 2 74 42 view .LVU1026
 5610 0ac2 94F84810 		ldrb	r1, [r4, #72]	@ zero_extendqisi2
 5611              	.LBE2147:
 5612              	.LBE2152:
 5613              	.LBB2153:
 5614              	.LBB2140:
 5615              	.LBB2134:
 5616              	.LBB2131:
 5617              		.loc 2 336 55 view .LVU1027
 5618 0ac6 5045     		cmp	r0, r10
 5619 0ac8 18BF     		it	ne
 5620 0aca 43F00103 		orrne	r3, r3, #1
 5621              	.LBE2131:
 5622              	.LBE2134:
 5623              	.LBE2140:
 5624              	.LBE2153:
 5625              	.LBB2154:
 5626              	.LBB2148:
  74:../libs/PoliTeKDSP/libs/libDaisy/src/dev/mpr121.h ****                    config_.dev_addr, address, 1, data, size, 10);
 5627              		.loc 2 74 42 view .LVU1028
 5628 0ace 3046     		mov	r0, r6
 5629              	.LVL254:
  74:../libs/PoliTeKDSP/libs/libDaisy/src/dev/mpr121.h ****                    config_.dev_addr, address, 1, data, size, 10);
 5630              		.loc 2 74 42 view .LVU1029
 5631              	.LBE2148:
 5632              	.LBE2154:
 5633              	.LBB2155:
 5634              	.LBB2141:
 5635              	.LBB2135:
 5636              	.LBB2132:
 5637              		.loc 2 336 55 view .LVU1030
 5638 0ad0 84F84C30 		strb	r3, [r4, #76]
 5639              	.LVL255:
 5640              		.loc 2 336 55 view .LVU1031
 5641              	.LBE2132:
 5642              	.LBE2135:
 237:../libs/PoliTeKDSP/libs/libDaisy/src/dev/mpr121.h ****     }
 5643              		.loc 2 237 16 view .LVU1032
 5644 0ad4 9DF83430 		ldrb	r3, [sp, #52]	@ zero_extendqisi2
 5645              	.LVL256:
 237:../libs/PoliTeKDSP/libs/libDaisy/src/dev/mpr121.h ****     }
ARM GAS  C:\Users\skipi\AppData\Local\Temp\ccUZkxb5.s 			page 123


 5646              		.loc 2 237 16 view .LVU1033
 5647              	.LBE2141:
 5648              	.LBE2155:
 271:../libs/PoliTeKDSP/libs/libDaisy/src/dev/mpr121.h ****             // clear this register to set stop mode
 5649              		.loc 2 271 21 view .LVU1034
 5650 0ad8 8DF834A0 		strb	r10, [sp, #52]
 5651              	.LVL257:
 5652              	.LBB2156:
 5653              	.LBI2145:
  71:../libs/PoliTeKDSP/libs/libDaisy/src/dev/mpr121.h ****     {
 5654              		.loc 2 71 10 is_stmt 1 view .LVU1035
 5655              	.LBB2149:
  73:../libs/PoliTeKDSP/libs/libDaisy/src/dev/mpr121.h ****                != i2c_.WriteDataAtAddress(
 5656              		.loc 2 73 9 view .LVU1036
 5657              	.LBE2149:
 5658              	.LBE2156:
 270:../libs/PoliTeKDSP/libs/libDaisy/src/dev/mpr121.h ****             uint8_t zero = 0x00;
 5659              		.loc 2 270 26 is_stmt 0 view .LVU1037
 5660 0adc 8DF82030 		strb	r3, [sp, #32]
 5661              	.LBB2157:
 5662              	.LBB2150:
  74:../libs/PoliTeKDSP/libs/libDaisy/src/dev/mpr121.h ****                    config_.dev_addr, address, 1, data, size, 10);
 5663              		.loc 2 74 42 view .LVU1038
 5664 0ae0 2B46     		mov	r3, r5
 5665 0ae2 FFF7FEFF 		bl	_ZN5daisy9I2CHandle18WriteDataAtAddressEtttPhtm
 5666              	.LVL258:
  74:../libs/PoliTeKDSP/libs/libDaisy/src/dev/mpr121.h ****                    config_.dev_addr, address, 1, data, size, 10);
 5667              		.loc 2 74 42 view .LVU1039
 5668              	.LBE2150:
 5669              	.LBE2157:
 5670              	.LBB2158:
 5671              	.LBI2158:
 5672              		.loc 2 336 10 is_stmt 1 view .LVU1040
 5673              	.LBE2158:
 5674              	.LBE2167:
 5675              	.LBB2168:
 5676              	.LBB2169:
  74:../libs/PoliTeKDSP/libs/libDaisy/src/dev/mpr121.h ****                    config_.dev_addr, address, 1, data, size, 10);
 5677              		.loc 2 74 42 is_stmt 0 view .LVU1041
 5678 0ae6 CDF800B0 		str	fp, [sp]
 5679 0aea 5B22     		movs	r2, #91
 5680 0aec CDE90157 		strd	r5, r7, [sp, #4]
 5681              	.LBE2169:
 5682              	.LBE2168:
 5683              	.LBB2173:
 5684              	.LBB2162:
 5685              	.LBB2159:
 5686              		.loc 2 336 55 view .LVU1042
 5687 0af0 94F84C30 		ldrb	r3, [r4, #76]	@ zero_extendqisi2
 5688              	.LBE2159:
 5689              	.LBE2162:
 5690              	.LBE2173:
 5691              	.LBB2174:
 5692              	.LBB2170:
  74:../libs/PoliTeKDSP/libs/libDaisy/src/dev/mpr121.h ****                    config_.dev_addr, address, 1, data, size, 10);
 5693              		.loc 2 74 42 view .LVU1043
 5694 0af4 94F84810 		ldrb	r1, [r4, #72]	@ zero_extendqisi2
ARM GAS  C:\Users\skipi\AppData\Local\Temp\ccUZkxb5.s 			page 124


 5695              	.LBE2170:
 5696              	.LBE2174:
 5697              	.LBB2175:
 5698              	.LBB2163:
 5699              	.LBB2160:
 5700              		.loc 2 336 55 view .LVU1044
 5701 0af8 5045     		cmp	r0, r10
 5702 0afa 18BF     		it	ne
 5703 0afc 43F00103 		orrne	r3, r3, #1
 5704              	.LBE2160:
 5705              	.LBE2163:
 5706              	.LBE2175:
 5707              	.LBB2176:
 5708              	.LBB2171:
  74:../libs/PoliTeKDSP/libs/libDaisy/src/dev/mpr121.h ****                    config_.dev_addr, address, 1, data, size, 10);
 5709              		.loc 2 74 42 view .LVU1045
 5710 0b00 3046     		mov	r0, r6
 5711              	.LVL259:
  74:../libs/PoliTeKDSP/libs/libDaisy/src/dev/mpr121.h ****                    config_.dev_addr, address, 1, data, size, 10);
 5712              		.loc 2 74 42 view .LVU1046
 5713              	.LBE2171:
 5714              	.LBE2176:
 5715              	.LBB2177:
 5716              	.LBB2164:
 5717              	.LBB2161:
 5718              		.loc 2 336 55 view .LVU1047
 5719 0b02 84F84C30 		strb	r3, [r4, #76]
 5720              	.LVL260:
 5721              		.loc 2 336 55 view .LVU1048
 5722              	.LBE2161:
 5723              	.LBE2164:
 5724              	.LBE2177:
 5725              	.LBB2178:
 5726              	.LBI2168:
  71:../libs/PoliTeKDSP/libs/libDaisy/src/dev/mpr121.h ****     {
 5727              		.loc 2 71 10 is_stmt 1 view .LVU1049
 5728              	.LBB2172:
  73:../libs/PoliTeKDSP/libs/libDaisy/src/dev/mpr121.h ****                != i2c_.WriteDataAtAddress(
 5729              		.loc 2 73 9 view .LVU1050
  74:../libs/PoliTeKDSP/libs/libDaisy/src/dev/mpr121.h ****                    config_.dev_addr, address, 1, data, size, 10);
 5730              		.loc 2 74 42 is_stmt 0 view .LVU1051
 5731 0b06 2B46     		mov	r3, r5
 5732 0b08 FFF7FEFF 		bl	_ZN5daisy9I2CHandle18WriteDataAtAddressEtttPhtm
 5733              	.LVL261:
  74:../libs/PoliTeKDSP/libs/libDaisy/src/dev/mpr121.h ****                    config_.dev_addr, address, 1, data, size, 10);
 5734              		.loc 2 74 42 view .LVU1052
 5735              	.LBE2172:
 5736              	.LBE2178:
 5737              	.LBB2179:
 5738              	.LBI2179:
 5739              		.loc 2 336 10 is_stmt 1 view .LVU1053
 5740              	.LBE2179:
 5741              	.LBB2183:
 5742              	.LBB2184:
  74:../libs/PoliTeKDSP/libs/libDaisy/src/dev/mpr121.h ****                    config_.dev_addr, address, 1, data, size, 10);
 5743              		.loc 2 74 42 is_stmt 0 view .LVU1054
 5744 0b0c 08AB     		add	r3, sp, #32
ARM GAS  C:\Users\skipi\AppData\Local\Temp\ccUZkxb5.s 			page 125


 5745 0b0e 5E22     		movs	r2, #94
 5746 0b10 0093     		str	r3, [sp]
 5747 0b12 CDE90157 		strd	r5, r7, [sp, #4]
 5748              	.LBE2184:
 5749              	.LBE2183:
 5750              	.LBB2188:
 5751              	.LBB2180:
 5752              		.loc 2 336 55 view .LVU1055
 5753 0b16 94F84C30 		ldrb	r3, [r4, #76]	@ zero_extendqisi2
 5754              	.LBE2180:
 5755              	.LBE2188:
 5756              	.LBB2189:
 5757              	.LBB2185:
  74:../libs/PoliTeKDSP/libs/libDaisy/src/dev/mpr121.h ****                    config_.dev_addr, address, 1, data, size, 10);
 5758              		.loc 2 74 42 view .LVU1056
 5759 0b1a 94F84810 		ldrb	r1, [r4, #72]	@ zero_extendqisi2
 5760              	.LBE2185:
 5761              	.LBE2189:
 5762              	.LBB2190:
 5763              	.LBB2181:
 5764              		.loc 2 336 55 view .LVU1057
 5765 0b1e 5045     		cmp	r0, r10
 5766 0b20 18BF     		it	ne
 5767 0b22 43F00103 		orrne	r3, r3, #1
 5768              	.LBE2181:
 5769              	.LBE2190:
 5770              	.LBB2191:
 5771              	.LBB2186:
  74:../libs/PoliTeKDSP/libs/libDaisy/src/dev/mpr121.h ****                    config_.dev_addr, address, 1, data, size, 10);
 5772              		.loc 2 74 42 view .LVU1058
 5773 0b26 3046     		mov	r0, r6
 5774              	.LVL262:
  74:../libs/PoliTeKDSP/libs/libDaisy/src/dev/mpr121.h ****                    config_.dev_addr, address, 1, data, size, 10);
 5775              		.loc 2 74 42 view .LVU1059
 5776              	.LBE2186:
 5777              	.LBE2191:
 5778              	.LBB2192:
 5779              	.LBB2182:
 5780              		.loc 2 336 55 view .LVU1060
 5781 0b28 84F84C30 		strb	r3, [r4, #76]
 5782              	.LVL263:
 5783              		.loc 2 336 55 view .LVU1061
 5784              	.LBE2182:
 5785              	.LBE2192:
 5786              	.LBB2193:
 5787              	.LBI2183:
  71:../libs/PoliTeKDSP/libs/libDaisy/src/dev/mpr121.h ****     {
 5788              		.loc 2 71 10 is_stmt 1 view .LVU1062
 5789              	.LBB2187:
  73:../libs/PoliTeKDSP/libs/libDaisy/src/dev/mpr121.h ****                != i2c_.WriteDataAtAddress(
 5790              		.loc 2 73 9 view .LVU1063
  74:../libs/PoliTeKDSP/libs/libDaisy/src/dev/mpr121.h ****                    config_.dev_addr, address, 1, data, size, 10);
 5791              		.loc 2 74 42 is_stmt 0 view .LVU1064
 5792 0b2c 2B46     		mov	r3, r5
 5793 0b2e FFF7FEFF 		bl	_ZN5daisy9I2CHandle18WriteDataAtAddressEtttPhtm
 5794              	.LVL264:
  74:../libs/PoliTeKDSP/libs/libDaisy/src/dev/mpr121.h ****                    config_.dev_addr, address, 1, data, size, 10);
ARM GAS  C:\Users\skipi\AppData\Local\Temp\ccUZkxb5.s 			page 126


 5795              		.loc 2 74 42 view .LVU1065
 5796              	.LBE2187:
 5797              	.LBE2193:
 5798              	.LBB2194:
 5799              	.LBI2194:
 5800              		.loc 2 336 10 is_stmt 1 view .LVU1066
 5801              	.LBE2194:
 5802              	.LBE2203:
 5803              	.LBE2212:
 5804              	.LBB2213:
 5805              	.LBB2214:
 5806              	.LBB2215:
 5807              	.LBB2216:
 5808              	.LBB2217:
 5809              	.LBB2218:
 5810              	.LBB2219:
  66:../libs/PoliTeKDSP/libs/libDaisy/src/dev/mpr121.h ****                    config_.dev_addr, address, 1, data, size, 10);
 5811              		.loc 2 66 41 is_stmt 0 view .LVU1067
 5812 0b32 CDF80080 		str	r8, [sp]
 5813 0b36 5E22     		movs	r2, #94
 5814 0b38 CDE90157 		strd	r5, r7, [sp, #4]
 5815              	.LBE2219:
 5816              	.LBE2218:
 5817              	.LBE2217:
 5818              	.LBE2216:
 5819              	.LBE2215:
 5820              	.LBE2214:
 5821              	.LBE2213:
 5822              	.LBB2304:
 5823              	.LBB2204:
 5824              	.LBB2198:
 5825              	.LBB2195:
 5826              		.loc 2 336 55 view .LVU1068
 5827 0b3c 94F84C30 		ldrb	r3, [r4, #76]	@ zero_extendqisi2
 5828              	.LBE2195:
 5829              	.LBE2198:
 5830              	.LBE2204:
 5831              	.LBE2304:
 5832              	.LBB2305:
 5833              	.LBB2298:
 5834              	.LBB2262:
 5835              	.LBB2239:
 5836              	.LBB2233:
 5837              	.LBB2223:
 5838              	.LBB2220:
  66:../libs/PoliTeKDSP/libs/libDaisy/src/dev/mpr121.h ****                    config_.dev_addr, address, 1, data, size, 10);
 5839              		.loc 2 66 41 view .LVU1069
 5840 0b40 94F84810 		ldrb	r1, [r4, #72]	@ zero_extendqisi2
 5841              	.LBE2220:
 5842              	.LBE2223:
 5843              	.LBE2233:
 5844              	.LBE2239:
 5845              	.LBE2262:
 5846              	.LBE2298:
 5847              	.LBE2305:
 5848              	.LBB2306:
 5849              	.LBB2205:
ARM GAS  C:\Users\skipi\AppData\Local\Temp\ccUZkxb5.s 			page 127


 5850              	.LBB2199:
 5851              	.LBB2196:
 5852              		.loc 2 336 55 view .LVU1070
 5853 0b44 5045     		cmp	r0, r10
 5854 0b46 18BF     		it	ne
 5855 0b48 43F00103 		orrne	r3, r3, #1
 5856              	.LBE2196:
 5857              	.LBE2199:
 5858              	.LBE2205:
 5859              	.LBE2306:
 5860              	.LBB2307:
 5861              	.LBB2299:
 5862              	.LBB2263:
 5863              	.LBB2240:
 5864              	.LBB2234:
 5865              	.LBB2224:
 5866              	.LBB2221:
  66:../libs/PoliTeKDSP/libs/libDaisy/src/dev/mpr121.h ****                    config_.dev_addr, address, 1, data, size, 10);
 5867              		.loc 2 66 41 view .LVU1071
 5868 0b4c 3046     		mov	r0, r6
 5869              	.LVL265:
  66:../libs/PoliTeKDSP/libs/libDaisy/src/dev/mpr121.h ****                    config_.dev_addr, address, 1, data, size, 10);
 5870              		.loc 2 66 41 view .LVU1072
 5871              	.LBE2221:
 5872              	.LBE2224:
 5873              	.LBE2234:
 5874              	.LBE2240:
 5875              	.LBE2263:
 5876              	.LBE2299:
 5877              	.LBE2307:
 5878              	.LBB2308:
 5879              	.LBB2206:
 5880              	.LBB2200:
 5881              	.LBB2197:
 5882              		.loc 2 336 55 view .LVU1073
 5883 0b4e 84F84C30 		strb	r3, [r4, #76]
 5884              	.LVL266:
 5885              		.loc 2 336 55 view .LVU1074
 5886 0b52 1023     		movs	r3, #16
 5887 0b54 8DF81F30 		strb	r3, [sp, #31]
 5888              	.LVL267:
 5889              		.loc 2 336 55 view .LVU1075
 5890              	.LBE2197:
 5891              	.LBE2200:
 5892              	.LBE2206:
 5893              	.LBE2308:
 5894              	.LBB2309:
 5895              	.LBI2213:
 257:../libs/PoliTeKDSP/libs/libDaisy/src/dev/mpr121.h ****     {
 5896              		.loc 2 257 10 is_stmt 1 view .LVU1076
 5897              	.LBB2300:
 5898              	.LBB2264:
 5899              	.LBB2241:
 5900              	.LBI2216:
 232:../libs/PoliTeKDSP/libs/libDaisy/src/dev/mpr121.h ****     {
 5901              		.loc 2 232 13 view .LVU1077
 5902              	.LBB2235:
ARM GAS  C:\Users\skipi\AppData\Local\Temp\ccUZkxb5.s 			page 128


 5903              	.LBB2225:
 5904              	.LBI2218:
  63:../libs/PoliTeKDSP/libs/libDaisy/src/dev/mpr121.h ****     {
 5905              		.loc 2 63 10 view .LVU1078
 5906              	.LBB2222:
  65:../libs/PoliTeKDSP/libs/libDaisy/src/dev/mpr121.h ****                != i2c_.ReadDataAtAddress(
 5907              		.loc 2 65 9 view .LVU1079
  66:../libs/PoliTeKDSP/libs/libDaisy/src/dev/mpr121.h ****                    config_.dev_addr, address, 1, data, size, 10);
 5908              		.loc 2 66 41 is_stmt 0 view .LVU1080
 5909 0b58 2B46     		mov	r3, r5
 5910              	.LVL268:
  66:../libs/PoliTeKDSP/libs/libDaisy/src/dev/mpr121.h ****                    config_.dev_addr, address, 1, data, size, 10);
 5911              		.loc 2 66 41 view .LVU1081
 5912 0b5a FFF7FEFF 		bl	_ZN5daisy9I2CHandle17ReadDataAtAddressEtttPhtm
 5913              	.LVL269:
  66:../libs/PoliTeKDSP/libs/libDaisy/src/dev/mpr121.h ****                    config_.dev_addr, address, 1, data, size, 10);
 5914              		.loc 2 66 41 view .LVU1082
 5915              	.LBE2222:
 5916              	.LBE2225:
 5917              	.LBB2226:
 5918              	.LBI2226:
 5919              		.loc 2 336 10 is_stmt 1 view .LVU1083
 5920              	.LBE2226:
 5921              	.LBE2235:
 5922              	.LBE2241:
 5923              	.LBB2242:
 5924              	.LBB2243:
  74:../libs/PoliTeKDSP/libs/libDaisy/src/dev/mpr121.h ****                    config_.dev_addr, address, 1, data, size, 10);
 5925              		.loc 2 74 42 is_stmt 0 view .LVU1084
 5926 0b5e CDF80080 		str	r8, [sp]
 5927 0b62 5E22     		movs	r2, #94
 5928 0b64 CDE90157 		strd	r5, r7, [sp, #4]
 5929              	.LBE2243:
 5930              	.LBE2242:
 5931              	.LBB2248:
 5932              	.LBB2236:
 5933              	.LBB2230:
 5934              	.LBB2227:
 5935              		.loc 2 336 55 view .LVU1085
 5936 0b68 94F84C30 		ldrb	r3, [r4, #76]	@ zero_extendqisi2
 5937              	.LBE2227:
 5938              	.LBE2230:
 5939              	.LBE2236:
 5940              	.LBE2248:
 5941              	.LBB2249:
 5942              	.LBB2244:
  74:../libs/PoliTeKDSP/libs/libDaisy/src/dev/mpr121.h ****                    config_.dev_addr, address, 1, data, size, 10);
 5943              		.loc 2 74 42 view .LVU1086
 5944 0b6c 94F84810 		ldrb	r1, [r4, #72]	@ zero_extendqisi2
 5945              	.LBE2244:
 5946              	.LBE2249:
 5947              	.LBB2250:
 5948              	.LBB2237:
 5949              	.LBB2231:
 5950              	.LBB2228:
 5951              		.loc 2 336 55 view .LVU1087
 5952 0b70 5045     		cmp	r0, r10
ARM GAS  C:\Users\skipi\AppData\Local\Temp\ccUZkxb5.s 			page 129


 5953 0b72 18BF     		it	ne
 5954 0b74 43F00103 		orrne	r3, r3, #1
 5955              	.LBE2228:
 5956              	.LBE2231:
 5957              	.LBE2237:
 5958              	.LBE2250:
 5959              	.LBB2251:
 5960              	.LBB2245:
  74:../libs/PoliTeKDSP/libs/libDaisy/src/dev/mpr121.h ****                    config_.dev_addr, address, 1, data, size, 10);
 5961              		.loc 2 74 42 view .LVU1088
 5962 0b78 3046     		mov	r0, r6
 5963              	.LVL270:
  74:../libs/PoliTeKDSP/libs/libDaisy/src/dev/mpr121.h ****                    config_.dev_addr, address, 1, data, size, 10);
 5964              		.loc 2 74 42 view .LVU1089
 5965              	.LBE2245:
 5966              	.LBE2251:
 5967              	.LBB2252:
 5968              	.LBB2238:
 5969              	.LBB2232:
 5970              	.LBB2229:
 5971              		.loc 2 336 55 view .LVU1090
 5972 0b7a 84F84C30 		strb	r3, [r4, #76]
 5973              	.LVL271:
 5974              		.loc 2 336 55 view .LVU1091
 5975              	.LBE2229:
 5976              	.LBE2232:
 237:../libs/PoliTeKDSP/libs/libDaisy/src/dev/mpr121.h ****     }
 5977              		.loc 2 237 16 view .LVU1092
 5978 0b7e 9DF83430 		ldrb	r3, [sp, #52]	@ zero_extendqisi2
 5979              	.LVL272:
 237:../libs/PoliTeKDSP/libs/libDaisy/src/dev/mpr121.h ****     }
 5980              		.loc 2 237 16 view .LVU1093
 5981              	.LBE2238:
 5982              	.LBE2252:
 271:../libs/PoliTeKDSP/libs/libDaisy/src/dev/mpr121.h ****             // clear this register to set stop mode
 5983              		.loc 2 271 21 view .LVU1094
 5984 0b82 8DF834A0 		strb	r10, [sp, #52]
 5985              	.LVL273:
 5986              	.LBB2253:
 5987              	.LBI2242:
  71:../libs/PoliTeKDSP/libs/libDaisy/src/dev/mpr121.h ****     {
 5988              		.loc 2 71 10 is_stmt 1 view .LVU1095
 5989              	.LBB2246:
  73:../libs/PoliTeKDSP/libs/libDaisy/src/dev/mpr121.h ****                != i2c_.WriteDataAtAddress(
 5990              		.loc 2 73 9 view .LVU1096
 5991              	.LBE2246:
 5992              	.LBE2253:
 270:../libs/PoliTeKDSP/libs/libDaisy/src/dev/mpr121.h ****             uint8_t zero = 0x00;
 5993              		.loc 2 270 26 is_stmt 0 view .LVU1097
 5994 0b86 8DF82030 		strb	r3, [sp, #32]
 5995              	.LBB2254:
 5996              	.LBB2247:
  74:../libs/PoliTeKDSP/libs/libDaisy/src/dev/mpr121.h ****                    config_.dev_addr, address, 1, data, size, 10);
 5997              		.loc 2 74 42 view .LVU1098
 5998 0b8a 2B46     		mov	r3, r5
 5999 0b8c FFF7FEFF 		bl	_ZN5daisy9I2CHandle18WriteDataAtAddressEtttPhtm
 6000              	.LVL274:
ARM GAS  C:\Users\skipi\AppData\Local\Temp\ccUZkxb5.s 			page 130


  74:../libs/PoliTeKDSP/libs/libDaisy/src/dev/mpr121.h ****                    config_.dev_addr, address, 1, data, size, 10);
 6001              		.loc 2 74 42 view .LVU1099
 6002              	.LBE2247:
 6003              	.LBE2254:
 6004              	.LBB2255:
 6005              	.LBI2255:
 6006              		.loc 2 336 10 is_stmt 1 view .LVU1100
 6007              	.LBE2255:
 6008              	.LBE2264:
 6009              	.LBB2265:
 6010              	.LBB2266:
  74:../libs/PoliTeKDSP/libs/libDaisy/src/dev/mpr121.h ****                    config_.dev_addr, address, 1, data, size, 10);
 6011              		.loc 2 74 42 is_stmt 0 view .LVU1101
 6012 0b90 CDF800B0 		str	fp, [sp]
 6013 0b94 5C22     		movs	r2, #92
 6014 0b96 CDE90157 		strd	r5, r7, [sp, #4]
 6015              	.LBE2266:
 6016              	.LBE2265:
 6017              	.LBB2270:
 6018              	.LBB2259:
 6019              	.LBB2256:
 6020              		.loc 2 336 55 view .LVU1102
 6021 0b9a 94F84C30 		ldrb	r3, [r4, #76]	@ zero_extendqisi2
 6022              	.LBE2256:
 6023              	.LBE2259:
 6024              	.LBE2270:
 6025              	.LBB2271:
 6026              	.LBB2267:
  74:../libs/PoliTeKDSP/libs/libDaisy/src/dev/mpr121.h ****                    config_.dev_addr, address, 1, data, size, 10);
 6027              		.loc 2 74 42 view .LVU1103
 6028 0b9e 94F84810 		ldrb	r1, [r4, #72]	@ zero_extendqisi2
 6029              	.LBE2267:
 6030              	.LBE2271:
 6031              	.LBB2272:
 6032              	.LBB2260:
 6033              	.LBB2257:
 6034              		.loc 2 336 55 view .LVU1104
 6035 0ba2 5045     		cmp	r0, r10
 6036 0ba4 18BF     		it	ne
 6037 0ba6 43F00103 		orrne	r3, r3, #1
 6038              	.LBE2257:
 6039              	.LBE2260:
 6040              	.LBE2272:
 6041              	.LBB2273:
 6042              	.LBB2268:
  74:../libs/PoliTeKDSP/libs/libDaisy/src/dev/mpr121.h ****                    config_.dev_addr, address, 1, data, size, 10);
 6043              		.loc 2 74 42 view .LVU1105
 6044 0baa 3046     		mov	r0, r6
 6045              	.LVL275:
  74:../libs/PoliTeKDSP/libs/libDaisy/src/dev/mpr121.h ****                    config_.dev_addr, address, 1, data, size, 10);
 6046              		.loc 2 74 42 view .LVU1106
 6047              	.LBE2268:
 6048              	.LBE2273:
 6049              	.LBB2274:
 6050              	.LBB2261:
 6051              	.LBB2258:
 6052              		.loc 2 336 55 view .LVU1107
ARM GAS  C:\Users\skipi\AppData\Local\Temp\ccUZkxb5.s 			page 131


 6053 0bac 84F84C30 		strb	r3, [r4, #76]
 6054              	.LVL276:
 6055              		.loc 2 336 55 view .LVU1108
 6056              	.LBE2258:
 6057              	.LBE2261:
 6058              	.LBE2274:
 6059              	.LBB2275:
 6060              	.LBI2265:
  71:../libs/PoliTeKDSP/libs/libDaisy/src/dev/mpr121.h ****     {
 6061              		.loc 2 71 10 is_stmt 1 view .LVU1109
 6062              	.LBB2269:
  73:../libs/PoliTeKDSP/libs/libDaisy/src/dev/mpr121.h ****                != i2c_.WriteDataAtAddress(
 6063              		.loc 2 73 9 view .LVU1110
  74:../libs/PoliTeKDSP/libs/libDaisy/src/dev/mpr121.h ****                    config_.dev_addr, address, 1, data, size, 10);
 6064              		.loc 2 74 42 is_stmt 0 view .LVU1111
 6065 0bb0 2B46     		mov	r3, r5
 6066 0bb2 FFF7FEFF 		bl	_ZN5daisy9I2CHandle18WriteDataAtAddressEtttPhtm
 6067              	.LVL277:
  74:../libs/PoliTeKDSP/libs/libDaisy/src/dev/mpr121.h ****                    config_.dev_addr, address, 1, data, size, 10);
 6068              		.loc 2 74 42 view .LVU1112
 6069              	.LBE2269:
 6070              	.LBE2275:
 6071              	.LBB2276:
 6072              	.LBI2276:
 6073              		.loc 2 336 10 is_stmt 1 view .LVU1113
 6074              	.LBE2276:
 6075              	.LBB2280:
 6076              	.LBB2281:
  74:../libs/PoliTeKDSP/libs/libDaisy/src/dev/mpr121.h ****                    config_.dev_addr, address, 1, data, size, 10);
 6077              		.loc 2 74 42 is_stmt 0 view .LVU1114
 6078 0bb6 08AB     		add	r3, sp, #32
 6079 0bb8 5E22     		movs	r2, #94
 6080 0bba 0093     		str	r3, [sp]
 6081 0bbc CDE90157 		strd	r5, r7, [sp, #4]
 6082              	.LBE2281:
 6083              	.LBE2280:
 6084              	.LBB2285:
 6085              	.LBB2277:
 6086              		.loc 2 336 55 view .LVU1115
 6087 0bc0 94F84C30 		ldrb	r3, [r4, #76]	@ zero_extendqisi2
 6088              	.LBE2277:
 6089              	.LBE2285:
 6090              	.LBB2286:
 6091              	.LBB2282:
  74:../libs/PoliTeKDSP/libs/libDaisy/src/dev/mpr121.h ****                    config_.dev_addr, address, 1, data, size, 10);
 6092              		.loc 2 74 42 view .LVU1116
 6093 0bc4 94F84810 		ldrb	r1, [r4, #72]	@ zero_extendqisi2
 6094              	.LBE2282:
 6095              	.LBE2286:
 6096              	.LBB2287:
 6097              	.LBB2278:
 6098              		.loc 2 336 55 view .LVU1117
 6099 0bc8 5045     		cmp	r0, r10
 6100 0bca 18BF     		it	ne
 6101 0bcc 43F00103 		orrne	r3, r3, #1
 6102              	.LBE2278:
 6103              	.LBE2287:
ARM GAS  C:\Users\skipi\AppData\Local\Temp\ccUZkxb5.s 			page 132


 6104              	.LBB2288:
 6105              	.LBB2283:
  74:../libs/PoliTeKDSP/libs/libDaisy/src/dev/mpr121.h ****                    config_.dev_addr, address, 1, data, size, 10);
 6106              		.loc 2 74 42 view .LVU1118
 6107 0bd0 3046     		mov	r0, r6
 6108              	.LVL278:
  74:../libs/PoliTeKDSP/libs/libDaisy/src/dev/mpr121.h ****                    config_.dev_addr, address, 1, data, size, 10);
 6109              		.loc 2 74 42 view .LVU1119
 6110              	.LBE2283:
 6111              	.LBE2288:
 6112              	.LBB2289:
 6113              	.LBB2279:
 6114              		.loc 2 336 55 view .LVU1120
 6115 0bd2 84F84C30 		strb	r3, [r4, #76]
 6116              	.LVL279:
 6117              		.loc 2 336 55 view .LVU1121
 6118              	.LBE2279:
 6119              	.LBE2289:
 6120              	.LBB2290:
 6121              	.LBI2280:
  71:../libs/PoliTeKDSP/libs/libDaisy/src/dev/mpr121.h ****     {
 6122              		.loc 2 71 10 is_stmt 1 view .LVU1122
 6123              	.LBB2284:
  73:../libs/PoliTeKDSP/libs/libDaisy/src/dev/mpr121.h ****                != i2c_.WriteDataAtAddress(
 6124              		.loc 2 73 9 view .LVU1123
  74:../libs/PoliTeKDSP/libs/libDaisy/src/dev/mpr121.h ****                    config_.dev_addr, address, 1, data, size, 10);
 6125              		.loc 2 74 42 is_stmt 0 view .LVU1124
 6126 0bd6 2B46     		mov	r3, r5
 6127 0bd8 FFF7FEFF 		bl	_ZN5daisy9I2CHandle18WriteDataAtAddressEtttPhtm
 6128              	.LVL280:
  74:../libs/PoliTeKDSP/libs/libDaisy/src/dev/mpr121.h ****                    config_.dev_addr, address, 1, data, size, 10);
 6129              		.loc 2 74 42 view .LVU1125
 6130              	.LBE2284:
 6131              	.LBE2290:
 6132              	.LBB2291:
 6133              	.LBI2291:
 6134              		.loc 2 336 10 is_stmt 1 view .LVU1126
 6135              	.LBE2291:
 6136              	.LBE2300:
 6137              	.LBE2309:
 6138              	.LBB2310:
 6139              	.LBB2311:
 6140              	.LBB2312:
 6141              	.LBB2313:
 6142              	.LBB2314:
 6143              	.LBB2315:
 6144              	.LBB2316:
  66:../libs/PoliTeKDSP/libs/libDaisy/src/dev/mpr121.h ****                    config_.dev_addr, address, 1, data, size, 10);
 6145              		.loc 2 66 41 is_stmt 0 view .LVU1127
 6146 0bdc CDF80080 		str	r8, [sp]
 6147 0be0 5E22     		movs	r2, #94
 6148 0be2 CDE90157 		strd	r5, r7, [sp, #4]
 6149              	.LBE2316:
 6150              	.LBE2315:
 6151              	.LBE2314:
 6152              	.LBE2313:
 6153              	.LBE2312:
ARM GAS  C:\Users\skipi\AppData\Local\Temp\ccUZkxb5.s 			page 133


 6154              	.LBE2311:
 6155              	.LBE2310:
 6156              	.LBB2401:
 6157              	.LBB2301:
 6158              	.LBB2295:
 6159              	.LBB2292:
 6160              		.loc 2 336 55 view .LVU1128
 6161 0be6 94F84C30 		ldrb	r3, [r4, #76]	@ zero_extendqisi2
 6162              	.LBE2292:
 6163              	.LBE2295:
 6164              	.LBE2301:
 6165              	.LBE2401:
 6166              	.LBB2402:
 6167              	.LBB2395:
 6168              	.LBB2359:
 6169              	.LBB2336:
 6170              	.LBB2330:
 6171              	.LBB2320:
 6172              	.LBB2317:
  66:../libs/PoliTeKDSP/libs/libDaisy/src/dev/mpr121.h ****                    config_.dev_addr, address, 1, data, size, 10);
 6173              		.loc 2 66 41 view .LVU1129
 6174 0bea 94F84810 		ldrb	r1, [r4, #72]	@ zero_extendqisi2
 6175              	.LBE2317:
 6176              	.LBE2320:
 6177              	.LBE2330:
 6178              	.LBE2336:
 6179              	.LBE2359:
 6180              	.LBE2395:
 6181              	.LBE2402:
 6182              	.LBB2403:
 6183              	.LBB2302:
 6184              	.LBB2296:
 6185              	.LBB2293:
 6186              		.loc 2 336 55 view .LVU1130
 6187 0bee 5045     		cmp	r0, r10
 6188 0bf0 18BF     		it	ne
 6189 0bf2 43F00103 		orrne	r3, r3, #1
 6190              	.LBE2293:
 6191              	.LBE2296:
 6192              	.LBE2302:
 6193              	.LBE2403:
 6194              	.LBB2404:
 6195              	.LBB2396:
 6196              	.LBB2360:
 6197              	.LBB2337:
 6198              	.LBB2331:
 6199              	.LBB2321:
 6200              	.LBB2318:
  66:../libs/PoliTeKDSP/libs/libDaisy/src/dev/mpr121.h ****                    config_.dev_addr, address, 1, data, size, 10);
 6201              		.loc 2 66 41 view .LVU1131
 6202 0bf6 3046     		mov	r0, r6
 6203              	.LVL281:
  66:../libs/PoliTeKDSP/libs/libDaisy/src/dev/mpr121.h ****                    config_.dev_addr, address, 1, data, size, 10);
 6204              		.loc 2 66 41 view .LVU1132
 6205              	.LBE2318:
 6206              	.LBE2321:
 6207              	.LBE2331:
ARM GAS  C:\Users\skipi\AppData\Local\Temp\ccUZkxb5.s 			page 134


 6208              	.LBE2337:
 6209              	.LBE2360:
 6210              	.LBE2396:
 6211              	.LBE2404:
 6212              	.LBB2405:
 6213              	.LBB2303:
 6214              	.LBB2297:
 6215              	.LBB2294:
 6216              		.loc 2 336 55 view .LVU1133
 6217 0bf8 84F84C30 		strb	r3, [r4, #76]
 6218              	.LVL282:
 6219              		.loc 2 336 55 view .LVU1134
 6220 0bfc 2023     		movs	r3, #32
 6221 0bfe 8DF81F30 		strb	r3, [sp, #31]
 6222              	.LVL283:
 6223              		.loc 2 336 55 view .LVU1135
 6224              	.LBE2294:
 6225              	.LBE2297:
 6226              	.LBE2303:
 6227              	.LBE2405:
 6228              	.LBB2406:
 6229              	.LBI2310:
 257:../libs/PoliTeKDSP/libs/libDaisy/src/dev/mpr121.h ****     {
 6230              		.loc 2 257 10 is_stmt 1 view .LVU1136
 6231              	.LBB2397:
 6232              	.LBB2361:
 6233              	.LBB2338:
 6234              	.LBI2313:
 232:../libs/PoliTeKDSP/libs/libDaisy/src/dev/mpr121.h ****     {
 6235              		.loc 2 232 13 view .LVU1137
 6236              	.LBB2332:
 6237              	.LBB2322:
 6238              	.LBI2315:
  63:../libs/PoliTeKDSP/libs/libDaisy/src/dev/mpr121.h ****     {
 6239              		.loc 2 63 10 view .LVU1138
 6240              	.LBB2319:
  65:../libs/PoliTeKDSP/libs/libDaisy/src/dev/mpr121.h ****                != i2c_.ReadDataAtAddress(
 6241              		.loc 2 65 9 view .LVU1139
  66:../libs/PoliTeKDSP/libs/libDaisy/src/dev/mpr121.h ****                    config_.dev_addr, address, 1, data, size, 10);
 6242              		.loc 2 66 41 is_stmt 0 view .LVU1140
 6243 0c02 2B46     		mov	r3, r5
 6244              	.LVL284:
  66:../libs/PoliTeKDSP/libs/libDaisy/src/dev/mpr121.h ****                    config_.dev_addr, address, 1, data, size, 10);
 6245              		.loc 2 66 41 view .LVU1141
 6246 0c04 FFF7FEFF 		bl	_ZN5daisy9I2CHandle17ReadDataAtAddressEtttPhtm
 6247              	.LVL285:
  66:../libs/PoliTeKDSP/libs/libDaisy/src/dev/mpr121.h ****                    config_.dev_addr, address, 1, data, size, 10);
 6248              		.loc 2 66 41 view .LVU1142
 6249              	.LBE2319:
 6250              	.LBE2322:
 6251              	.LBB2323:
 6252              	.LBI2323:
 6253              		.loc 2 336 10 is_stmt 1 view .LVU1143
 6254              	.LBE2323:
 6255              	.LBE2332:
 6256              	.LBE2338:
 6257              	.LBB2339:
ARM GAS  C:\Users\skipi\AppData\Local\Temp\ccUZkxb5.s 			page 135


 6258              	.LBB2340:
  74:../libs/PoliTeKDSP/libs/libDaisy/src/dev/mpr121.h ****                    config_.dev_addr, address, 1, data, size, 10);
 6259              		.loc 2 74 42 is_stmt 0 view .LVU1144
 6260 0c08 CDF80080 		str	r8, [sp]
 6261 0c0c 5E22     		movs	r2, #94
 6262 0c0e CDE90157 		strd	r5, r7, [sp, #4]
 6263              	.LBE2340:
 6264              	.LBE2339:
 6265              	.LBB2345:
 6266              	.LBB2333:
 6267              	.LBB2327:
 6268              	.LBB2324:
 6269              		.loc 2 336 55 view .LVU1145
 6270 0c12 94F84C30 		ldrb	r3, [r4, #76]	@ zero_extendqisi2
 6271              	.LBE2324:
 6272              	.LBE2327:
 6273              	.LBE2333:
 6274              	.LBE2345:
 6275              	.LBB2346:
 6276              	.LBB2341:
  74:../libs/PoliTeKDSP/libs/libDaisy/src/dev/mpr121.h ****                    config_.dev_addr, address, 1, data, size, 10);
 6277              		.loc 2 74 42 view .LVU1146
 6278 0c16 94F84810 		ldrb	r1, [r4, #72]	@ zero_extendqisi2
 6279              	.LBE2341:
 6280              	.LBE2346:
 6281              	.LBB2347:
 6282              	.LBB2334:
 6283              	.LBB2328:
 6284              	.LBB2325:
 6285              		.loc 2 336 55 view .LVU1147
 6286 0c1a 5045     		cmp	r0, r10
 6287 0c1c 18BF     		it	ne
 6288 0c1e 43F00103 		orrne	r3, r3, #1
 6289              	.LBE2325:
 6290              	.LBE2328:
 6291              	.LBE2334:
 6292              	.LBE2347:
 6293              	.LBB2348:
 6294              	.LBB2342:
  74:../libs/PoliTeKDSP/libs/libDaisy/src/dev/mpr121.h ****                    config_.dev_addr, address, 1, data, size, 10);
 6295              		.loc 2 74 42 view .LVU1148
 6296 0c22 3046     		mov	r0, r6
 6297              	.LVL286:
  74:../libs/PoliTeKDSP/libs/libDaisy/src/dev/mpr121.h ****                    config_.dev_addr, address, 1, data, size, 10);
 6298              		.loc 2 74 42 view .LVU1149
 6299              	.LBE2342:
 6300              	.LBE2348:
 6301              	.LBB2349:
 6302              	.LBB2335:
 6303              	.LBB2329:
 6304              	.LBB2326:
 6305              		.loc 2 336 55 view .LVU1150
 6306 0c24 84F84C30 		strb	r3, [r4, #76]
 6307              	.LVL287:
 6308              		.loc 2 336 55 view .LVU1151
 6309              	.LBE2326:
 6310              	.LBE2329:
ARM GAS  C:\Users\skipi\AppData\Local\Temp\ccUZkxb5.s 			page 136


 237:../libs/PoliTeKDSP/libs/libDaisy/src/dev/mpr121.h ****     }
 6311              		.loc 2 237 16 view .LVU1152
 6312 0c28 9DF83430 		ldrb	r3, [sp, #52]	@ zero_extendqisi2
 6313              	.LVL288:
 237:../libs/PoliTeKDSP/libs/libDaisy/src/dev/mpr121.h ****     }
 6314              		.loc 2 237 16 view .LVU1153
 6315              	.LBE2335:
 6316              	.LBE2349:
 271:../libs/PoliTeKDSP/libs/libDaisy/src/dev/mpr121.h ****             // clear this register to set stop mode
 6317              		.loc 2 271 21 view .LVU1154
 6318 0c2c 8DF834A0 		strb	r10, [sp, #52]
 6319              	.LVL289:
 6320              	.LBB2350:
 6321              	.LBI2339:
  71:../libs/PoliTeKDSP/libs/libDaisy/src/dev/mpr121.h ****     {
 6322              		.loc 2 71 10 is_stmt 1 view .LVU1155
 6323              	.LBB2343:
  73:../libs/PoliTeKDSP/libs/libDaisy/src/dev/mpr121.h ****                != i2c_.WriteDataAtAddress(
 6324              		.loc 2 73 9 view .LVU1156
 6325              	.LBE2343:
 6326              	.LBE2350:
 270:../libs/PoliTeKDSP/libs/libDaisy/src/dev/mpr121.h ****             uint8_t zero = 0x00;
 6327              		.loc 2 270 26 is_stmt 0 view .LVU1157
 6328 0c30 8DF82030 		strb	r3, [sp, #32]
 6329              	.LBB2351:
 6330              	.LBB2344:
  74:../libs/PoliTeKDSP/libs/libDaisy/src/dev/mpr121.h ****                    config_.dev_addr, address, 1, data, size, 10);
 6331              		.loc 2 74 42 view .LVU1158
 6332 0c34 2B46     		mov	r3, r5
 6333 0c36 FFF7FEFF 		bl	_ZN5daisy9I2CHandle18WriteDataAtAddressEtttPhtm
 6334              	.LVL290:
  74:../libs/PoliTeKDSP/libs/libDaisy/src/dev/mpr121.h ****                    config_.dev_addr, address, 1, data, size, 10);
 6335              		.loc 2 74 42 view .LVU1159
 6336              	.LBE2344:
 6337              	.LBE2351:
 6338              	.LBB2352:
 6339              	.LBI2352:
 6340              		.loc 2 336 10 is_stmt 1 view .LVU1160
 6341              	.LBE2352:
 6342              	.LBE2361:
 6343              	.LBB2362:
 6344              	.LBB2363:
  74:../libs/PoliTeKDSP/libs/libDaisy/src/dev/mpr121.h ****                    config_.dev_addr, address, 1, data, size, 10);
 6345              		.loc 2 74 42 is_stmt 0 view .LVU1161
 6346 0c3a CDF800B0 		str	fp, [sp]
 6347 0c3e 5D22     		movs	r2, #93
 6348 0c40 CDE90157 		strd	r5, r7, [sp, #4]
 6349              	.LBE2363:
 6350              	.LBE2362:
 6351              	.LBB2367:
 6352              	.LBB2356:
 6353              	.LBB2353:
 6354              		.loc 2 336 55 view .LVU1162
 6355 0c44 94F84C30 		ldrb	r3, [r4, #76]	@ zero_extendqisi2
 6356              	.LBE2353:
 6357              	.LBE2356:
 6358              	.LBE2367:
ARM GAS  C:\Users\skipi\AppData\Local\Temp\ccUZkxb5.s 			page 137


 6359              	.LBB2368:
 6360              	.LBB2364:
  74:../libs/PoliTeKDSP/libs/libDaisy/src/dev/mpr121.h ****                    config_.dev_addr, address, 1, data, size, 10);
 6361              		.loc 2 74 42 view .LVU1163
 6362 0c48 94F84810 		ldrb	r1, [r4, #72]	@ zero_extendqisi2
 6363              	.LBE2364:
 6364              	.LBE2368:
 6365              	.LBB2369:
 6366              	.LBB2357:
 6367              	.LBB2354:
 6368              		.loc 2 336 55 view .LVU1164
 6369 0c4c 5045     		cmp	r0, r10
 6370 0c4e 18BF     		it	ne
 6371 0c50 43F00103 		orrne	r3, r3, #1
 6372              	.LBE2354:
 6373              	.LBE2357:
 6374              	.LBE2369:
 6375              	.LBB2370:
 6376              	.LBB2365:
  74:../libs/PoliTeKDSP/libs/libDaisy/src/dev/mpr121.h ****                    config_.dev_addr, address, 1, data, size, 10);
 6377              		.loc 2 74 42 view .LVU1165
 6378 0c54 3046     		mov	r0, r6
 6379              	.LVL291:
  74:../libs/PoliTeKDSP/libs/libDaisy/src/dev/mpr121.h ****                    config_.dev_addr, address, 1, data, size, 10);
 6380              		.loc 2 74 42 view .LVU1166
 6381              	.LBE2365:
 6382              	.LBE2370:
 6383              	.LBB2371:
 6384              	.LBB2358:
 6385              	.LBB2355:
 6386              		.loc 2 336 55 view .LVU1167
 6387 0c56 84F84C30 		strb	r3, [r4, #76]
 6388              	.LVL292:
 6389              		.loc 2 336 55 view .LVU1168
 6390              	.LBE2355:
 6391              	.LBE2358:
 6392              	.LBE2371:
 6393              	.LBB2372:
 6394              	.LBI2362:
  71:../libs/PoliTeKDSP/libs/libDaisy/src/dev/mpr121.h ****     {
 6395              		.loc 2 71 10 is_stmt 1 view .LVU1169
 6396              	.LBB2366:
  73:../libs/PoliTeKDSP/libs/libDaisy/src/dev/mpr121.h ****                != i2c_.WriteDataAtAddress(
 6397              		.loc 2 73 9 view .LVU1170
  74:../libs/PoliTeKDSP/libs/libDaisy/src/dev/mpr121.h ****                    config_.dev_addr, address, 1, data, size, 10);
 6398              		.loc 2 74 42 is_stmt 0 view .LVU1171
 6399 0c5a 2B46     		mov	r3, r5
 6400 0c5c FFF7FEFF 		bl	_ZN5daisy9I2CHandle18WriteDataAtAddressEtttPhtm
 6401              	.LVL293:
  74:../libs/PoliTeKDSP/libs/libDaisy/src/dev/mpr121.h ****                    config_.dev_addr, address, 1, data, size, 10);
 6402              		.loc 2 74 42 view .LVU1172
 6403              	.LBE2366:
 6404              	.LBE2372:
 6405              	.LBB2373:
 6406              	.LBI2373:
 6407              		.loc 2 336 10 is_stmt 1 view .LVU1173
 6408              	.LBE2373:
ARM GAS  C:\Users\skipi\AppData\Local\Temp\ccUZkxb5.s 			page 138


 6409              	.LBB2377:
 6410              	.LBB2378:
  74:../libs/PoliTeKDSP/libs/libDaisy/src/dev/mpr121.h ****                    config_.dev_addr, address, 1, data, size, 10);
 6411              		.loc 2 74 42 is_stmt 0 view .LVU1174
 6412 0c60 08AB     		add	r3, sp, #32
 6413 0c62 5E22     		movs	r2, #94
 6414 0c64 8DE8A800 		stm	sp, {r3, r5, r7}
 6415              	.LBE2378:
 6416              	.LBE2377:
 6417              	.LBB2383:
 6418              	.LBB2374:
 6419              		.loc 2 336 55 view .LVU1175
 6420 0c68 94F84C30 		ldrb	r3, [r4, #76]	@ zero_extendqisi2
 6421              	.LBE2374:
 6422              	.LBE2383:
 6423              	.LBB2384:
 6424              	.LBB2379:
  74:../libs/PoliTeKDSP/libs/libDaisy/src/dev/mpr121.h ****                    config_.dev_addr, address, 1, data, size, 10);
 6425              		.loc 2 74 42 view .LVU1176
 6426 0c6c 94F84810 		ldrb	r1, [r4, #72]	@ zero_extendqisi2
 6427              	.LBE2379:
 6428              	.LBE2384:
 6429              	.LBB2385:
 6430              	.LBB2375:
 6431              		.loc 2 336 55 view .LVU1177
 6432 0c70 5045     		cmp	r0, r10
 6433 0c72 18BF     		it	ne
 6434 0c74 43F00103 		orrne	r3, r3, #1
 6435              	.LBE2375:
 6436              	.LBE2385:
 6437              	.LBB2386:
 6438              	.LBB2380:
  74:../libs/PoliTeKDSP/libs/libDaisy/src/dev/mpr121.h ****                    config_.dev_addr, address, 1, data, size, 10);
 6439              		.loc 2 74 42 view .LVU1178
 6440 0c78 3046     		mov	r0, r6
 6441              	.LVL294:
  74:../libs/PoliTeKDSP/libs/libDaisy/src/dev/mpr121.h ****                    config_.dev_addr, address, 1, data, size, 10);
 6442              		.loc 2 74 42 view .LVU1179
 6443              	.LBE2380:
 6444              	.LBE2386:
 6445              	.LBB2387:
 6446              	.LBB2376:
 6447              		.loc 2 336 55 view .LVU1180
 6448 0c7a 84F84C30 		strb	r3, [r4, #76]
 6449              	.LVL295:
 6450              		.loc 2 336 55 view .LVU1181
 6451              	.LBE2376:
 6452              	.LBE2387:
 6453              	.LBB2388:
 6454              	.LBI2377:
  71:../libs/PoliTeKDSP/libs/libDaisy/src/dev/mpr121.h ****     {
 6455              		.loc 2 71 10 is_stmt 1 view .LVU1182
 6456              	.LBB2381:
  73:../libs/PoliTeKDSP/libs/libDaisy/src/dev/mpr121.h ****                != i2c_.WriteDataAtAddress(
 6457              		.loc 2 73 9 view .LVU1183
  74:../libs/PoliTeKDSP/libs/libDaisy/src/dev/mpr121.h ****                    config_.dev_addr, address, 1, data, size, 10);
 6458              		.loc 2 74 42 is_stmt 0 view .LVU1184
ARM GAS  C:\Users\skipi\AppData\Local\Temp\ccUZkxb5.s 			page 139


 6459 0c7e 2B46     		mov	r3, r5
 6460 0c80 FFF7FEFF 		bl	_ZN5daisy9I2CHandle18WriteDataAtAddressEtttPhtm
 6461              	.LVL296:
  74:../libs/PoliTeKDSP/libs/libDaisy/src/dev/mpr121.h ****                    config_.dev_addr, address, 1, data, size, 10);
 6462              		.loc 2 74 42 view .LVU1185
 6463              	.LBE2381:
 6464              	.LBE2388:
 6465              	.LBE2397:
 6466              	.LBE2406:
 6467              	.LBB2407:
 6468              	.LBB2408:
 6469              	.LBB2409:
 6470              	.LBB2410:
 6471 0c84 CDF80080 		str	r8, [sp]
 6472              	.LBE2410:
 6473              	.LBE2409:
 6474              	.LBE2408:
 6475              	.LBE2407:
 6476              	.LBB2422:
 6477              	.LBB2398:
 6478              	.LBB2389:
 6479              	.LBB2382:
 6480 0c88 0146     		mov	r1, r0
 6481              	.LVL297:
  74:../libs/PoliTeKDSP/libs/libDaisy/src/dev/mpr121.h ****                    config_.dev_addr, address, 1, data, size, 10);
 6482              		.loc 2 74 42 view .LVU1186
 6483              	.LBE2382:
 6484              	.LBE2389:
 6485              	.LBB2390:
 6486              	.LBI2390:
 6487              		.loc 2 336 10 is_stmt 1 view .LVU1187
 6488              	.LBE2390:
 6489              	.LBE2398:
 6490              	.LBE2422:
 6491              	.LBB2423:
 6492              	.LBB2419:
 6493              	.LBB2414:
 6494              	.LBB2411:
  74:../libs/PoliTeKDSP/libs/libDaisy/src/dev/mpr121.h ****                    config_.dev_addr, address, 1, data, size, 10);
 6495              		.loc 2 74 42 is_stmt 0 view .LVU1188
 6496 0c8a 2B46     		mov	r3, r5
 6497 0c8c 3046     		mov	r0, r6
 6498              	.LVL298:
  74:../libs/PoliTeKDSP/libs/libDaisy/src/dev/mpr121.h ****                    config_.dev_addr, address, 1, data, size, 10);
 6499              		.loc 2 74 42 view .LVU1189
 6500 0c8e CDE90157 		strd	r5, r7, [sp, #4]
 6501              	.LBE2411:
 6502              	.LBE2414:
 6503              	.LBE2419:
 6504              	.LBE2423:
 6505              	.LBB2424:
 6506              	.LBB2399:
 6507              	.LBB2393:
 6508              	.LBB2391:
 6509              		.loc 2 336 55 view .LVU1190
 6510 0c92 94F84C20 		ldrb	r2, [r4, #76]	@ zero_extendqisi2
 6511 0c96 5145     		cmp	r1, r10
ARM GAS  C:\Users\skipi\AppData\Local\Temp\ccUZkxb5.s 			page 140


 6512 0c98 18BF     		it	ne
 6513 0c9a 42F00102 		orrne	r2, r2, #1
 6514              	.LBE2391:
 6515              	.LBE2393:
 6516              	.LBE2399:
 6517              	.LBE2424:
 6518              	.LBB2425:
 6519              	.LBB2420:
 6520              	.LBB2415:
 6521              	.LBB2412:
  74:../libs/PoliTeKDSP/libs/libDaisy/src/dev/mpr121.h ****                    config_.dev_addr, address, 1, data, size, 10);
 6522              		.loc 2 74 42 view .LVU1191
 6523 0c9e 94F84810 		ldrb	r1, [r4, #72]	@ zero_extendqisi2
 6524              	.LVL299:
  74:../libs/PoliTeKDSP/libs/libDaisy/src/dev/mpr121.h ****                    config_.dev_addr, address, 1, data, size, 10);
 6525              		.loc 2 74 42 view .LVU1192
 6526              	.LBE2412:
 6527              	.LBE2415:
 6528              	.LBE2420:
 6529              	.LBE2425:
 6530              	.LBB2426:
 6531              	.LBB2400:
 6532              	.LBB2394:
 6533              	.LBB2392:
 6534              		.loc 2 336 55 view .LVU1193
 6535 0ca2 84F84C20 		strb	r2, [r4, #76]
 6536              	.LVL300:
 6537              		.loc 2 336 55 view .LVU1194
 6538 0ca6 8C22     		movs	r2, #140
 6539 0ca8 8DF83420 		strb	r2, [sp, #52]
 6540              	.LVL301:
 6541              		.loc 2 336 55 view .LVU1195
 6542              	.LBE2392:
 6543              	.LBE2394:
 6544              	.LBE2400:
 6545              	.LBE2426:
 6546              	.LBB2427:
 6547              	.LBI2407:
 257:../libs/PoliTeKDSP/libs/libDaisy/src/dev/mpr121.h ****     {
 6548              		.loc 2 257 10 is_stmt 1 view .LVU1196
 6549              	.LBB2421:
 6550              	.LBB2416:
 6551              	.LBI2409:
  71:../libs/PoliTeKDSP/libs/libDaisy/src/dev/mpr121.h ****     {
 6552              		.loc 2 71 10 view .LVU1197
 6553              	.LBB2413:
  73:../libs/PoliTeKDSP/libs/libDaisy/src/dev/mpr121.h ****                != i2c_.WriteDataAtAddress(
 6554              		.loc 2 73 9 view .LVU1198
  74:../libs/PoliTeKDSP/libs/libDaisy/src/dev/mpr121.h ****                    config_.dev_addr, address, 1, data, size, 10);
 6555              		.loc 2 74 42 is_stmt 0 view .LVU1199
 6556 0cac 5E22     		movs	r2, #94
 6557              	.LVL302:
  74:../libs/PoliTeKDSP/libs/libDaisy/src/dev/mpr121.h ****                    config_.dev_addr, address, 1, data, size, 10);
 6558              		.loc 2 74 42 view .LVU1200
 6559 0cae FFF7FEFF 		bl	_ZN5daisy9I2CHandle18WriteDataAtAddressEtttPhtm
 6560              	.LVL303:
  74:../libs/PoliTeKDSP/libs/libDaisy/src/dev/mpr121.h ****                    config_.dev_addr, address, 1, data, size, 10);
ARM GAS  C:\Users\skipi\AppData\Local\Temp\ccUZkxb5.s 			page 141


 6561              		.loc 2 74 42 view .LVU1201
 6562              	.LBE2413:
 6563              	.LBE2416:
 6564              	.LBB2417:
 6565              	.LBI2417:
 6566              		.loc 2 336 10 is_stmt 1 view .LVU1202
 6567              	.LBB2418:
 6568              		.loc 2 336 55 is_stmt 0 view .LVU1203
 6569 0cb2 94F84C50 		ldrb	r5, [r4, #76]	@ zero_extendqisi2
 6570 0cb6 5045     		cmp	r0, r10
 6571 0cb8 18BF     		it	ne
 6572 0cba 45F00105 		orrne	r5, r5, #1
 6573              	.LVL304:
 6574              		.loc 2 336 55 view .LVU1204
 6575              	.LBE2418:
 6576              	.LBE2417:
 6577              	.LBE2421:
 6578              	.LBE2427:
 6579              	.LBB2428:
 6580              	.LBI2428:
 337:../libs/PoliTeKDSP/libs/libDaisy/src/dev/mpr121.h **** 
 338:../libs/PoliTeKDSP/libs/libDaisy/src/dev/mpr121.h ****     /** Get the global transport_error_ bool (as a Result), then reset it */
 339:../libs/PoliTeKDSP/libs/libDaisy/src/dev/mpr121.h ****     Result GetTransportErr()
 6581              		.loc 2 339 12 is_stmt 1 view .LVU1205
 6582              	.LBB2429:
 340:../libs/PoliTeKDSP/libs/libDaisy/src/dev/mpr121.h ****     {
 341:../libs/PoliTeKDSP/libs/libDaisy/src/dev/mpr121.h ****         Result ret       = transport_error_ ? ERR : OK;
 6583              		.loc 2 341 45 is_stmt 0 view .LVU1206
 6584 0cbe 1DB1     		cbz	r5, .L19
 6585              	.LVL305:
 342:../libs/PoliTeKDSP/libs/libDaisy/src/dev/mpr121.h ****         transport_error_ = false;
 6586              		.loc 2 342 26 view .LVU1207
 6587 0cc0 84F84CA0 		strb	r10, [r4, #76]
 6588              	.LVL306:
 6589              		.loc 2 342 26 view .LVU1208
 6590 0cc4 FFF77ABA 		b	.L13
 6591              	.LVL307:
 6592              	.L19:
 6593              		.loc 2 342 26 view .LVU1209
 6594              	.LBE2429:
 6595              	.LBE2428:
 6596              	.LBE2434:
 6597              	.LBE2437:
  21:PSP/PlantConditioner.cpp ****         }
  22:PSP/PlantConditioner.cpp ****     }
  23:PSP/PlantConditioner.cpp ****     _hw->SetLed(true);
 6598              		.loc 1 23 16 view .LVU1210
 6599 0cc8 2646     		mov	r6, r4
 6600 0cca 0121     		movs	r1, #1
 6601              	.LBB2438:
 6602              	.LBB2435:
 6603              	.LBB2431:
 6604              	.LBB2430:
 6605              		.loc 2 342 26 view .LVU1211
 6606 0ccc 84F84C50 		strb	r5, [r4, #76]
 6607              	.LVL308:
 6608              		.loc 2 342 26 view .LVU1212
ARM GAS  C:\Users\skipi\AppData\Local\Temp\ccUZkxb5.s 			page 142


 6609              	.LBE2430:
 6610              	.LBE2431:
 6611              	.LBE2435:
 6612              	.LBE2438:
 6613              		.loc 1 23 5 is_stmt 1 view .LVU1213
 6614              		.loc 1 23 16 is_stmt 0 view .LVU1214
 6615 0cd0 56F8540B 		ldr	r0, [r6], #84
 6616 0cd4 FFF7FEFF 		bl	_ZN5daisy9DaisySeed6SetLedEb
 6617              	.LVL309:
  24:PSP/PlantConditioner.cpp **** 
  25:PSP/PlantConditioner.cpp **** 
  26:PSP/PlantConditioner.cpp ****     _Butterworth2.Init(IIR::FilterType::BUTTERWORTH2); 
 6618              		.loc 1 26 5 is_stmt 1 view .LVU1215
 6619              		.loc 1 26 23 is_stmt 0 view .LVU1216
 6620 0cd8 0221     		movs	r1, #2
 6621 0cda 3046     		mov	r0, r6
 6622 0cdc FFF7FEFF 		bl	_ZN3IIR4InitENS_10FilterTypeE
 6623              	.LVL310:
  27:PSP/PlantConditioner.cpp ****     _Butterworth4.Init(IIR::FilterType::BUTTERWORTH4); 
 6624              		.loc 1 27 5 is_stmt 1 view .LVU1217
 6625              		.loc 1 27 23 is_stmt 0 view .LVU1218
 6626 0ce0 04F58470 		add	r0, r4, #264
 6627 0ce4 0321     		movs	r1, #3
 6628 0ce6 FFF7FEFF 		bl	_ZN3IIR4InitENS_10FilterTypeE
 6629              	.LVL311:
  28:PSP/PlantConditioner.cpp ****     _Bessel2.Init(IIR::FilterType::BESSEL2);
 6630              		.loc 1 28 5 is_stmt 1 view .LVU1219
 6631              		.loc 1 28 18 is_stmt 0 view .LVU1220
 6632 0cea 2946     		mov	r1, r5
 6633 0cec 04F5DE70 		add	r0, r4, #444
 6634 0cf0 FFF7FEFF 		bl	_ZN3IIR4InitENS_10FilterTypeE
 6635              	.LVL312:
  29:PSP/PlantConditioner.cpp ****     _Bessel4.Init(IIR::FilterType::BESSEL4);
 6636              		.loc 1 29 5 is_stmt 1 view .LVU1221
 6637              		.loc 1 29 18 is_stmt 0 view .LVU1222
 6638 0cf4 0121     		movs	r1, #1
 6639 0cf6 04F51C70 		add	r0, r4, #624
 6640 0cfa FFF7FEFF 		bl	_ZN3IIR4InitENS_10FilterTypeE
 6641              	.LVL313:
  30:PSP/PlantConditioner.cpp ****     _deltaFilterMF.Init();
 6642              		.loc 1 30 5 is_stmt 1 view .LVU1223
 6643              		.loc 1 30 24 is_stmt 0 view .LVU1224
 6644 0cfe 04F54970 		add	r0, r4, #804
 6645 0d02 FFF7FEFF 		bl	_ZN2MF4InitEv
 6646              	.LVL314:
  31:PSP/PlantConditioner.cpp ****     _delta = 0;
 6647              		.loc 1 31 5 is_stmt 1 view .LVU1225
 6648              		.loc 1 31 12 is_stmt 0 view .LVU1226
 6649 0d06 0023     		movs	r3, #0
  32:PSP/PlantConditioner.cpp ****     _deltaFilt = 0;
  33:PSP/PlantConditioner.cpp ****     _octave = 4;
 6650              		.loc 1 33 13 view .LVU1227
 6651 0d08 0420     		movs	r0, #4
  34:PSP/PlantConditioner.cpp ****     _lastFreq = 440.0f;
 6652              		.loc 1 34 15 view .LVU1228
 6653 0d0a 0849     		ldr	r1, .L20
  35:PSP/PlantConditioner.cpp ****     _lastNoteIndex = -1; // Reset indice nota
ARM GAS  C:\Users\skipi\AppData\Local\Temp\ccUZkxb5.s 			page 143


 6654              		.loc 1 35 20 view .LVU1229
 6655 0d0c 4FF0FF32 		mov	r2, #-1
  31:PSP/PlantConditioner.cpp ****     _deltaFilt = 0;
 6656              		.loc 1 31 12 view .LVU1230
 6657 0d10 C4F86033 		str	r3, [r4, #864]	@ float
  32:PSP/PlantConditioner.cpp ****     _octave = 4;
 6658              		.loc 1 32 5 is_stmt 1 view .LVU1231
  32:PSP/PlantConditioner.cpp ****     _octave = 4;
 6659              		.loc 1 32 16 is_stmt 0 view .LVU1232
 6660 0d14 C4F86433 		str	r3, [r4, #868]	@ float
  33:PSP/PlantConditioner.cpp ****     _lastFreq = 440.0f;
 6661              		.loc 1 33 5 is_stmt 1 view .LVU1233
  33:PSP/PlantConditioner.cpp ****     _lastFreq = 440.0f;
 6662              		.loc 1 33 13 is_stmt 0 view .LVU1234
 6663 0d18 84F85003 		strb	r0, [r4, #848]
  34:PSP/PlantConditioner.cpp ****     _lastNoteIndex = -1; // Reset indice nota
 6664              		.loc 1 34 5 is_stmt 1 view .LVU1235
  34:PSP/PlantConditioner.cpp ****     _lastNoteIndex = -1; // Reset indice nota
 6665              		.loc 1 34 15 is_stmt 0 view .LVU1236
 6666 0d1c C4F84413 		str	r1, [r4, #836]	@ float
 6667              		.loc 1 35 5 is_stmt 1 view .LVU1237
 6668              		.loc 1 35 20 is_stmt 0 view .LVU1238
 6669 0d20 C4F84023 		str	r2, [r4, #832]
  36:PSP/PlantConditioner.cpp **** }
 6670              		.loc 1 36 1 view .LVU1239
 6671 0d24 19B0     		add	sp, sp, #100
 6672              		.cfi_def_cfa_offset 36
 6673              		@ sp needed
 6674 0d26 BDE8F08F 		pop	{r4, r5, r6, r7, r8, r9, r10, fp, pc}
 6675              	.LVL315:
 6676              	.L21:
 6677              		.loc 1 36 1 view .LVU1240
 6678 0d2a 00BF     		.align	2
 6679              	.L20:
 6680 0d2c 0000DC43 		.word	1138491392
 6681              		.cfi_endproc
 6682              	.LFE5077:
 6684              		.section	.text._ZN16PlantConditioner9SetFilterEN3IIR10FilterTypeE,"ax",%progbits
 6685              		.align	1
 6686              		.p2align 2,,3
 6687              		.global	_ZN16PlantConditioner9SetFilterEN3IIR10FilterTypeE
 6688              		.syntax unified
 6689              		.thumb
 6690              		.thumb_func
 6691              		.fpu fpv5-d16
 6693              	_ZN16PlantConditioner9SetFilterEN3IIR10FilterTypeE:
 6694              	.LVL316:
 6695              	.LFB5078:
  37:PSP/PlantConditioner.cpp **** 
  38:PSP/PlantConditioner.cpp **** void PlantConditioner::SetFilter(IIR::FilterType filter_type) {
 6696              		.loc 1 38 63 is_stmt 1 view -0
 6697              		.cfi_startproc
 6698              		@ args = 0, pretend = 0, frame = 0
 6699              		@ frame_needed = 0, uses_anonymous_args = 0
 6700              		@ link register save eliminated.
  39:PSP/PlantConditioner.cpp ****     _currentFilter = filter_type;
 6701              		.loc 1 39 5 view .LVU1242
ARM GAS  C:\Users\skipi\AppData\Local\Temp\ccUZkxb5.s 			page 144


 6702              		.loc 1 39 20 is_stmt 0 view .LVU1243
 6703 0000 80F83C13 		strb	r1, [r0, #828]
  40:PSP/PlantConditioner.cpp **** }
 6704              		.loc 1 40 1 view .LVU1244
 6705 0004 7047     		bx	lr
 6706              		.cfi_endproc
 6707              	.LFE5078:
 6709 0006 00BF     		.section	.text._ZN16PlantConditioner8setScaleENS_5NotesENS_9ScaleTypeE,"ax",%progbits
 6710              		.align	1
 6711              		.p2align 2,,3
 6712              		.global	_ZN16PlantConditioner8setScaleENS_5NotesENS_9ScaleTypeE
 6713              		.syntax unified
 6714              		.thumb
 6715              		.thumb_func
 6716              		.fpu fpv5-d16
 6718              	_ZN16PlantConditioner8setScaleENS_5NotesENS_9ScaleTypeE:
 6719              	.LVL317:
 6720              	.LFB5079:
  41:PSP/PlantConditioner.cpp **** 
  42:PSP/PlantConditioner.cpp **** void PlantConditioner::setScale(enum Notes root_note, enum ScaleType scale_type) {
 6721              		.loc 1 42 82 is_stmt 1 view -0
 6722              		.cfi_startproc
 6723              		@ args = 0, pretend = 0, frame = 0
 6724              		@ frame_needed = 0, uses_anonymous_args = 0
  43:PSP/PlantConditioner.cpp ****     // Copia della scala base
  44:PSP/PlantConditioner.cpp ****     switch (scale_type) 
 6725              		.loc 1 44 5 view .LVU1246
  42:PSP/PlantConditioner.cpp ****     // Copia della scala base
 6726              		.loc 1 42 82 is_stmt 0 view .LVU1247
 6727 0000 70B5     		push	{r4, r5, r6, lr}
 6728              		.cfi_def_cfa_offset 16
 6729              		.cfi_offset 4, -16
 6730              		.cfi_offset 5, -12
 6731              		.cfi_offset 6, -8
 6732              		.cfi_offset 14, -4
 6733 0002 07EE901A 		vmov	s15, r1	@ int
 6734 0006 0446     		mov	r4, r0
 6735 0008 2DED028B 		vpush.64	{d8}
 6736              		.cfi_def_cfa_offset 24
 6737              		.cfi_offset 80, -24
 6738              		.cfi_offset 81, -20
 6739 000c 062A     		cmp	r2, #6
 6740 000e 27D8     		bhi	.L24
 6741 0010 DFE812F0 		tbh	[pc, r2, lsl #1]
 6742              	.L26:
 6743 0014 2600     		.2byte	(.L24-.L26)/2
 6744 0016 A200     		.2byte	(.L31-.L26)/2
 6745 0018 C400     		.2byte	(.L30-.L26)/2
 6746 001a E600     		.2byte	(.L29-.L26)/2
 6747 001c 0801     		.2byte	(.L28-.L26)/2
 6748 001e 0700     		.2byte	(.L27-.L26)/2
 6749 0020 8400     		.2byte	(.L25-.L26)/2
 6750              		.p2align 1
 6751              	.L27:
 6752              	.LBB2454:
  45:PSP/PlantConditioner.cpp ****     {
  46:PSP/PlantConditioner.cpp ****     case Major:
ARM GAS  C:\Users\skipi\AppData\Local\Temp\ccUZkxb5.s 			page 145


  47:PSP/PlantConditioner.cpp ****         _scaleLength = 7;
  48:PSP/PlantConditioner.cpp ****         for (int i = 0; i < 7; i++) _scale[i] = _majorScale[i];
  49:PSP/PlantConditioner.cpp ****         break;
  50:PSP/PlantConditioner.cpp ****     case MinorNat:
  51:PSP/PlantConditioner.cpp ****         _scaleLength = 7;
  52:PSP/PlantConditioner.cpp ****         for (int i = 0; i < 7; i++) _scale[i] = _minorNScale[i];
  53:PSP/PlantConditioner.cpp ****         break;
  54:PSP/PlantConditioner.cpp ****     case MinorArm:
  55:PSP/PlantConditioner.cpp ****         _scaleLength = 7;
  56:PSP/PlantConditioner.cpp ****         for (int i = 0; i < 7; i++) _scale[i] = _minorAScale[i];
  57:PSP/PlantConditioner.cpp ****         break;
  58:PSP/PlantConditioner.cpp ****     case MinorMel:
  59:PSP/PlantConditioner.cpp ****         _scaleLength = 7;
  60:PSP/PlantConditioner.cpp ****         for (int i = 0; i < 7; i++) _scale[i] = _minorMScale[i];
  61:PSP/PlantConditioner.cpp ****         break;
  62:PSP/PlantConditioner.cpp ****     case Pentatonic:
  63:PSP/PlantConditioner.cpp ****         _scaleLength = 5;
  64:PSP/PlantConditioner.cpp ****         for (int i = 0; i < 5; i++) _scale[i] = _pentatonicScale[i];
  65:PSP/PlantConditioner.cpp ****         break;
  66:PSP/PlantConditioner.cpp ****     case Chromatic:
 6753              		.loc 1 66 5 is_stmt 1 view .LVU1248
  67:PSP/PlantConditioner.cpp ****         _scaleLength = 12;
 6754              		.loc 1 67 9 view .LVU1249
 6755              	.LBB2455:
  68:PSP/PlantConditioner.cpp ****         for (int i = 0; i < 12; i++) _scale[i] = _chromaticScale[i];
 6756              		.loc 1 68 48 is_stmt 0 view .LVU1250
 6757 0022 00F56775 		add	r5, r0, #924
 6758              	.LBE2455:
  67:PSP/PlantConditioner.cpp ****         _scaleLength = 12;
 6759              		.loc 1 67 22 view .LVU1251
 6760 0026 0C21     		movs	r1, #12
 6761              	.LVL318:
 6762              	.LBB2456:
 6763              		.loc 1 68 48 view .LVU1252
 6764 0028 00F58A63 		add	r3, r0, #1104
 6765 002c 00F5906E 		add	lr, r0, #1152
 6766 0030 2A46     		mov	r2, r5
 6767              	.LVL319:
 6768              		.loc 1 68 48 view .LVU1253
 6769              	.LBE2456:
  67:PSP/PlantConditioner.cpp ****         _scaleLength = 12;
 6770              		.loc 1 67 22 view .LVU1254
 6771 0032 80F85113 		strb	r1, [r0, #849]
 6772              		.loc 1 68 9 is_stmt 1 view .LVU1255
 6773              	.LVL320:
 6774              	.LBB2457:
 6775              		.loc 1 68 27 view .LVU1256
 6776              	.L34:
 6777              		.loc 1 68 48 is_stmt 0 view .LVU1257
 6778 0036 D3F800C0 		ldr	ip, [r3]	@ unaligned
 6779 003a 1033     		adds	r3, r3, #16
 6780 003c 53F80C6C 		ldr	r6, [r3, #-12]	@ unaligned
 6781 0040 1032     		adds	r2, r2, #16
 6782 0042 53F8080C 		ldr	r0, [r3, #-8]	@ unaligned
 6783 0046 53F8041C 		ldr	r1, [r3, #-4]	@ unaligned
 6784 004a 7345     		cmp	r3, lr
 6785 004c 42F810CC 		str	ip, [r2, #-16]	@ unaligned
ARM GAS  C:\Users\skipi\AppData\Local\Temp\ccUZkxb5.s 			page 146


 6786 0050 42F80C6C 		str	r6, [r2, #-12]	@ unaligned
 6787 0054 42F8080C 		str	r0, [r2, #-8]	@ unaligned
 6788 0058 42F8041C 		str	r1, [r2, #-4]	@ unaligned
 6789 005c EBD1     		bne	.L34
 6790 005e 20E0     		b	.L33
 6791              	.LVL321:
 6792              	.L24:
 6793              		.loc 1 68 48 view .LVU1258
 6794              	.LBE2457:
  69:PSP/PlantConditioner.cpp ****         break;
  70:PSP/PlantConditioner.cpp ****     case Esatonic:
  71:PSP/PlantConditioner.cpp ****         _scaleLength = 6;
  72:PSP/PlantConditioner.cpp ****         for (int i = 0; i < 6; i++) _scale[i] = _esatonic[i];
  73:PSP/PlantConditioner.cpp ****         break;
  74:PSP/PlantConditioner.cpp ****     default:
 6795              		.loc 1 74 5 is_stmt 1 view .LVU1259
  75:PSP/PlantConditioner.cpp ****         _scaleLength = 7;
 6796              		.loc 1 75 9 view .LVU1260
 6797              	.LBB2458:
  76:PSP/PlantConditioner.cpp ****         for (int i = 0; i < 7; i++) _scale[i] = _majorScale[i];
 6798              		.loc 1 76 47 is_stmt 0 view .LVU1261
 6799 0060 D0F8D433 		ldr	r3, [r0, #980]	@ unaligned
 6800 0064 04F56775 		add	r5, r4, #924
 6801 0068 D0F8CC13 		ldr	r1, [r0, #972]	@ unaligned
 6802              	.LVL322:
 6803              		.loc 1 76 47 view .LVU1262
 6804 006c D0F8D023 		ldr	r2, [r0, #976]	@ unaligned
 6805              	.LVL323:
 6806              		.loc 1 76 47 view .LVU1263
 6807              	.LBE2458:
  75:PSP/PlantConditioner.cpp ****         _scaleLength = 7;
 6808              		.loc 1 75 22 view .LVU1264
 6809 0070 0720     		movs	r0, #7
 6810              	.LVL324:
 6811              	.LBB2459:
 6812              		.loc 1 76 47 view .LVU1265
 6813 0072 C4F8A433 		str	r3, [r4, #932]	@ unaligned
 6814 0076 D4F8D833 		ldr	r3, [r4, #984]	@ unaligned
 6815 007a C4F89C13 		str	r1, [r4, #924]	@ unaligned
 6816 007e C4F8A023 		str	r2, [r4, #928]	@ unaligned
 6817 0082 D4F8DC13 		ldr	r1, [r4, #988]	@ unaligned
 6818 0086 D4F8E023 		ldr	r2, [r4, #992]	@ unaligned
 6819 008a C4F8A833 		str	r3, [r4, #936]	@ unaligned
 6820 008e D4F8E433 		ldr	r3, [r4, #996]	@ unaligned
 6821              	.LBE2459:
  75:PSP/PlantConditioner.cpp ****         _scaleLength = 7;
 6822              		.loc 1 75 22 view .LVU1266
 6823 0092 84F85103 		strb	r0, [r4, #849]
 6824              		.loc 1 76 9 is_stmt 1 view .LVU1267
 6825              	.LVL325:
 6826              	.LBB2460:
 6827              		.loc 1 76 27 view .LVU1268
 6828              		.loc 1 76 47 is_stmt 0 view .LVU1269
 6829 0096 C4F8AC13 		str	r1, [r4, #940]	@ unaligned
 6830 009a C4F8B023 		str	r2, [r4, #944]	@ unaligned
 6831 009e C4F8B433 		str	r3, [r4, #948]	@ unaligned
 6832              	.LVL326:
ARM GAS  C:\Users\skipi\AppData\Local\Temp\ccUZkxb5.s 			page 147


 6833              	.L33:
 6834              		.loc 1 76 47 view .LVU1270
 6835              	.LBE2460:
 6836              	.LBE2454:
  77:PSP/PlantConditioner.cpp ****         break;
  78:PSP/PlantConditioner.cpp ****     }
  79:PSP/PlantConditioner.cpp **** 
  80:PSP/PlantConditioner.cpp ****     // Trasposizione (Pitch Shifting) in base alla nota fondamentale
  81:PSP/PlantConditioner.cpp ****     // powf(2, n/12) calcola il rapporto semitonale
  82:PSP/PlantConditioner.cpp ****     float transposition = powf(2.0f, (float)root_note / 12.0f);
 6837              		.loc 1 82 5 is_stmt 1 view .LVU1271
 6838              		.loc 1 82 38 is_stmt 0 view .LVU1272
 6839 00a2 F8EE677A 		vcvt.f32.u32	s15, s15
 6840              		.loc 1 82 31 view .LVU1273
 6841 00a6 F2EE080A 		vmov.f32	s1, #1.2e+1
 6842 00aa B0EE000A 		vmov.f32	s0, #2.0e+0
 6843 00ae C7EEA00A 		vdiv.f32	s1, s15, s1
 6844 00b2 FFF7FEFF 		bl	powf
 6845              	.LVL327:
 6846              	.LBB2476:
  83:PSP/PlantConditioner.cpp ****     for (int i = 0; i < _scaleLength; i++) {
 6847              		.loc 1 83 25 view .LVU1274
 6848 00b6 94F85133 		ldrb	r3, [r4, #849]	@ zero_extendqisi2
 6849              	.LVL328:
 6850              		.loc 1 83 25 view .LVU1275
 6851              	.LBE2476:
 6852              		.loc 1 83 5 is_stmt 1 view .LVU1276
 6853              	.LBB2477:
 6854              		.loc 1 83 23 view .LVU1277
 6855 00ba 53B1     		cbz	r3, .L35
 6856 00bc 2A46     		mov	r2, r5
 6857 00be 05EB8301 		add	r1, r5, r3, lsl #2
 6858              	.LVL329:
 6859              	.L36:
  84:PSP/PlantConditioner.cpp ****         _scale[i] = _scale[i] * transposition; 
 6860              		.loc 1 84 9 discriminator 2 view .LVU1278
 6861              		.loc 1 84 29 is_stmt 0 discriminator 2 view .LVU1279
 6862 00c2 D2ED007A 		vldr.32	s15, [r2]
 6863              		.loc 1 84 31 discriminator 2 view .LVU1280
 6864 00c6 67EE807A 		vmul.f32	s15, s15, s0
 6865              		.loc 1 84 19 discriminator 2 view .LVU1281
 6866 00ca E2EC017A 		vstmia.32	r2!, {s15}
  83:PSP/PlantConditioner.cpp ****     for (int i = 0; i < _scaleLength; i++) {
 6867              		.loc 1 83 5 is_stmt 1 discriminator 2 view .LVU1282
  83:PSP/PlantConditioner.cpp ****     for (int i = 0; i < _scaleLength; i++) {
 6868              		.loc 1 83 23 discriminator 2 view .LVU1283
 6869 00ce 8A42     		cmp	r2, r1
 6870 00d0 F7D1     		bne	.L36
 6871              	.L35:
  83:PSP/PlantConditioner.cpp ****     for (int i = 0; i < _scaleLength; i++) {
 6872              		.loc 1 83 23 is_stmt 0 discriminator 2 view .LVU1284
 6873              	.LBE2477:
  85:PSP/PlantConditioner.cpp ****     }
  86:PSP/PlantConditioner.cpp ****     _lastNoteIndex = -1;
 6874              		.loc 1 86 5 is_stmt 1 view .LVU1285
 6875              		.loc 1 86 20 is_stmt 0 view .LVU1286
 6876 00d2 4FF0FF32 		mov	r2, #-1
ARM GAS  C:\Users\skipi\AppData\Local\Temp\ccUZkxb5.s 			page 148


 6877 00d6 04F55A76 		add	r6, r4, #872
 6878              	.LBB2478:
 6879              	.LBB2479:
  87:PSP/PlantConditioner.cpp ****     updateThresholds();
  88:PSP/PlantConditioner.cpp **** }
  89:PSP/PlantConditioner.cpp **** 
  90:PSP/PlantConditioner.cpp **** void PlantConditioner::setOctave(uint8_t octave) {
  91:PSP/PlantConditioner.cpp ****     _octave = octave;
  92:PSP/PlantConditioner.cpp ****     _lastNoteIndex = -1;
  93:PSP/PlantConditioner.cpp **** }
  94:PSP/PlantConditioner.cpp **** 
  95:PSP/PlantConditioner.cpp **** PlantConditioner::PlantState PlantConditioner::Process() {
  96:PSP/PlantConditioner.cpp ****     float out = _lastFreq;
  97:PSP/PlantConditioner.cpp ****     if (_cap.Touched() & _BV(11))
  98:PSP/PlantConditioner.cpp ****     {
  99:PSP/PlantConditioner.cpp ****         if (!_isTouched) _isTouched = true; // New touch detected
 100:PSP/PlantConditioner.cpp ****         // 1. Calcolo Delta grezzo (Baseline - Filtered - Offset)
 101:PSP/PlantConditioner.cpp ****         _delta = (float)_cap.BaselineData(11) - (float)_cap.FilteredData(11) - (float)_touchThresho
 102:PSP/PlantConditioner.cpp ****         // 2. Pre-filtraggio Mediano (rimozione spike elettromagnetici)
 103:PSP/PlantConditioner.cpp ****         float mf_out = _deltaFilterMF.Process(_delta);
 104:PSP/PlantConditioner.cpp ****         // 3. Selezione dinamica del filtro IIR in base all'ordine/tipo scelto
 105:PSP/PlantConditioner.cpp ****         // Nota: Uso i nomi delle istanze definiti nel tuo ultimo header
 106:PSP/PlantConditioner.cpp ****         switch (_currentFilter) {
 107:PSP/PlantConditioner.cpp ****             case IIR::BUTTERWORTH2:
 108:PSP/PlantConditioner.cpp ****                 _deltaFilt = _Butterworth2.Process(mf_out);
 109:PSP/PlantConditioner.cpp ****                 break;
 110:PSP/PlantConditioner.cpp ****             case IIR::BUTTERWORTH4:
 111:PSP/PlantConditioner.cpp ****                 _deltaFilt = _Butterworth4.Process(mf_out);
 112:PSP/PlantConditioner.cpp ****                 break;
 113:PSP/PlantConditioner.cpp ****             case IIR::BESSEL2:
 114:PSP/PlantConditioner.cpp ****                 _deltaFilt = _Bessel2.Process(mf_out);
 115:PSP/PlantConditioner.cpp ****                 break;
 116:PSP/PlantConditioner.cpp ****             case IIR::BESSEL4:
 117:PSP/PlantConditioner.cpp ****                 _deltaFilt = _Bessel4.Process(mf_out);
 118:PSP/PlantConditioner.cpp ****                 break;
 119:PSP/PlantConditioner.cpp ****             default:
 120:PSP/PlantConditioner.cpp ****                 _deltaFilt = _Butterworth2.Process(mf_out);
 121:PSP/PlantConditioner.cpp ****                 break;
 122:PSP/PlantConditioner.cpp ****         }
 123:PSP/PlantConditioner.cpp **** 
 124:PSP/PlantConditioner.cpp **** // 4. Clamping finale per evitare che il valore esca dai limiti delle soglie note
 125:PSP/PlantConditioner.cpp **** _deltaFilt = fclamp(_deltaFilt, _deltaMin, _deltaMax - 0.001f);
 126:PSP/PlantConditioner.cpp ****         
 127:PSP/PlantConditioner.cpp ****         // ---------------------------------------------------------
 128:PSP/PlantConditioner.cpp ****         // STICKY CHECK (Current Note has the priority)
 129:PSP/PlantConditioner.cpp ****         // Controlliamo subito se possiamo rimanere sulla nota attuale
 130:PSP/PlantConditioner.cpp ****         // ---------------------------------------------------------
 131:PSP/PlantConditioner.cpp ****         if (_lastNoteIndex >= 0 && _lastNoteIndex < _scaleLength) {
 132:PSP/PlantConditioner.cpp ****             int i = _lastNoteIndex;
 133:PSP/PlantConditioner.cpp ****             
 134:PSP/PlantConditioner.cpp ****             float lower = _noteThresholds[i];
 135:PSP/PlantConditioner.cpp ****             float upper = _noteThresholds[i+1];
 136:PSP/PlantConditioner.cpp ****             
 137:PSP/PlantConditioner.cpp ****             // L'isteresi può essere una percentuale fissa del range totale
 138:PSP/PlantConditioner.cpp ****             float hyst = _histeresis * (_range / 100.0f); 
 139:PSP/PlantConditioner.cpp **** 
 140:PSP/PlantConditioner.cpp ****             if (_deltaFilt >= (lower - hyst) && _deltaFilt < (upper + hyst)) {
ARM GAS  C:\Users\skipi\AppData\Local\Temp\ccUZkxb5.s 			page 149


 141:PSP/PlantConditioner.cpp ****                 return {out, _isTouched}; 
 142:PSP/PlantConditioner.cpp ****             }
 143:PSP/PlantConditioner.cpp ****         }
 144:PSP/PlantConditioner.cpp **** 
 145:PSP/PlantConditioner.cpp ****         // ---------------------------------------------------------
 146:PSP/PlantConditioner.cpp ****         // NEW NOTE CHECK
 147:PSP/PlantConditioner.cpp ****         // ---------------------------------------------------------
 148:PSP/PlantConditioner.cpp ****         for (int i = 0; i < _scaleLength; i++) {
 149:PSP/PlantConditioner.cpp ****             float lower = _noteThresholds[i];
 150:PSP/PlantConditioner.cpp ****             float upper = _noteThresholds[i+1];
 151:PSP/PlantConditioner.cpp ****             
 152:PSP/PlantConditioner.cpp ****             // Controllo standard + sicurezza per l'ultimo bin
 153:PSP/PlantConditioner.cpp ****             if ((_deltaFilt >= lower && _deltaFilt < upper) || (i == _scaleLength - 1 && _deltaFilt
 154:PSP/PlantConditioner.cpp ****                 out = _scale[i] * (1 << _octave);
 155:PSP/PlantConditioner.cpp ****                 _lastNoteIndex = i; 
 156:PSP/PlantConditioner.cpp ****                 _lastFreq = out;    
 157:PSP/PlantConditioner.cpp ****                 break;
 158:PSP/PlantConditioner.cpp ****             }
 159:PSP/PlantConditioner.cpp ****         }
 160:PSP/PlantConditioner.cpp ****     } else {
 161:PSP/PlantConditioner.cpp ****         if (_isTouched) _isTouched = false; 
 162:PSP/PlantConditioner.cpp ****     }
 163:PSP/PlantConditioner.cpp **** 
 164:PSP/PlantConditioner.cpp ****     return {out, _isTouched};
 165:PSP/PlantConditioner.cpp **** }
 166:PSP/PlantConditioner.cpp **** 
 167:PSP/PlantConditioner.cpp **** void PlantConditioner::setCurve(float curve_type) {
 168:PSP/PlantConditioner.cpp ****     _curveType = curve_type;
 169:PSP/PlantConditioner.cpp ****     updateThresholds();
 170:PSP/PlantConditioner.cpp **** }
 171:PSP/PlantConditioner.cpp **** 
 172:PSP/PlantConditioner.cpp **** void PlantConditioner::setDelta(float delta_max) {
 173:PSP/PlantConditioner.cpp ****     if (delta_max <= _deltaMin) delta_max = _deltaMin + 1.0f;
 174:PSP/PlantConditioner.cpp ****     _deltaMax = delta_max;
 175:PSP/PlantConditioner.cpp ****     _range = _deltaMax - _deltaMin;
 176:PSP/PlantConditioner.cpp ****     updateThresholds();
 177:PSP/PlantConditioner.cpp **** }
 178:PSP/PlantConditioner.cpp **** 
 179:PSP/PlantConditioner.cpp **** void PlantConditioner::updateThresholds() {
 180:PSP/PlantConditioner.cpp ****     for (int i = 0; i <= _scaleLength; i++) {
 6880              		.loc 1 180 14 view .LVU1287
 6881 00da 0025     		movs	r5, #0
 6882              	.LBE2479:
 6883              	.LBE2478:
  86:PSP/PlantConditioner.cpp ****     updateThresholds();
 6884              		.loc 1 86 20 view .LVU1288
 6885 00dc C4F84023 		str	r2, [r4, #832]
  87:PSP/PlantConditioner.cpp ****     updateThresholds();
 6886              		.loc 1 87 5 is_stmt 1 view .LVU1289
 6887              	.LVL330:
 6888              	.LBB2483:
 6889              	.LBI2478:
 179:PSP/PlantConditioner.cpp ****     for (int i = 0; i <= _scaleLength; i++) {
 6890              		.loc 1 179 6 view .LVU1290
 6891              	.LBE2483:
 6892              		.loc 1 180 5 view .LVU1291
 6893              	.LBB2484:
ARM GAS  C:\Users\skipi\AppData\Local\Temp\ccUZkxb5.s 			page 150


 6894              	.LBB2482:
 6895              		.loc 1 180 23 view .LVU1292
 6896              	.L37:
 6897              	.LBB2480:
 181:PSP/PlantConditioner.cpp ****         float pct = (float)i / _scaleLength;
 6898              		.loc 1 181 9 view .LVU1293
 182:PSP/PlantConditioner.cpp ****         _noteThresholds[i] = _deltaMin + _range * powf(pct, _curveType);
 6899              		.loc 1 182 9 view .LVU1294
 181:PSP/PlantConditioner.cpp ****         float pct = (float)i / _scaleLength;
 6900              		.loc 1 181 30 is_stmt 0 view .LVU1295
 6901 00e0 07EE903A 		vmov	s15, r3	@ int
 181:PSP/PlantConditioner.cpp ****         float pct = (float)i / _scaleLength;
 6902              		.loc 1 181 21 view .LVU1296
 6903 00e4 07EE105A 		vmov	s14, r5	@ int
 6904              		.loc 1 182 30 view .LVU1297
 6905 00e8 94EDD58A 		vldr.32	s16, [r4, #852]
 6906              	.LBE2480:
 180:PSP/PlantConditioner.cpp ****         float pct = (float)i / _scaleLength;
 6907              		.loc 1 180 5 view .LVU1298
 6908 00ec 0135     		adds	r5, r5, #1
 6909              	.LVL331:
 6910              	.LBB2481:
 181:PSP/PlantConditioner.cpp ****         float pct = (float)i / _scaleLength;
 6911              		.loc 1 181 30 view .LVU1299
 6912 00ee F8EEE77A 		vcvt.f32.s32	s15, s15
 6913              		.loc 1 182 42 view .LVU1300
 6914 00f2 D4EDD78A 		vldr.32	s17, [r4, #860]
 181:PSP/PlantConditioner.cpp ****         float pct = (float)i / _scaleLength;
 6915              		.loc 1 181 21 view .LVU1301
 6916 00f6 B8EEC70A 		vcvt.f32.s32	s0, s14
 6917              		.loc 1 182 55 view .LVU1302
 6918 00fa D4EDD30A 		vldr.32	s1, [r4, #844]
 6919 00fe 80EE270A 		vdiv.f32	s0, s0, s15
 6920              	.LVL332:
 6921              		.loc 1 182 55 view .LVU1303
 6922 0102 FFF7FEFF 		bl	powf
 6923              	.LVL333:
 6924              		.loc 1 182 40 view .LVU1304
 6925 0106 A8EE808A 		vfma.f32	s16, s17, s0
 6926              		.loc 1 182 28 view .LVU1305
 6927 010a A6EC018A 		vstmia.32	r6!, {s16}
 6928              	.LBE2481:
 180:PSP/PlantConditioner.cpp ****         float pct = (float)i / _scaleLength;
 6929              		.loc 1 180 5 is_stmt 1 view .LVU1306
 6930              	.LVL334:
 180:PSP/PlantConditioner.cpp ****         float pct = (float)i / _scaleLength;
 6931              		.loc 1 180 23 view .LVU1307
 180:PSP/PlantConditioner.cpp ****         float pct = (float)i / _scaleLength;
 6932              		.loc 1 180 26 is_stmt 0 view .LVU1308
 6933 010e 94F85133 		ldrb	r3, [r4, #849]	@ zero_extendqisi2
 180:PSP/PlantConditioner.cpp ****         float pct = (float)i / _scaleLength;
 6934              		.loc 1 180 23 view .LVU1309
 6935 0112 AB42     		cmp	r3, r5
 6936 0114 E4DA     		bge	.L37
 6937              	.LBE2482:
 6938              	.LBE2484:
  88:PSP/PlantConditioner.cpp **** 
ARM GAS  C:\Users\skipi\AppData\Local\Temp\ccUZkxb5.s 			page 151


 6939              		.loc 1 88 1 view .LVU1310
 6940 0116 BDEC028B 		vldm	sp!, {d8}
 6941              		.cfi_remember_state
 6942              		.cfi_restore 80
 6943              		.cfi_restore 81
 6944              		.cfi_def_cfa_offset 16
 6945 011a 70BD     		pop	{r4, r5, r6, pc}
 6946              	.LVL335:
 6947              	.L25:
 6948              		.cfi_restore_state
 6949              	.LBB2485:
  70:PSP/PlantConditioner.cpp ****         _scaleLength = 6;
 6950              		.loc 1 70 5 is_stmt 1 view .LVU1311
  71:PSP/PlantConditioner.cpp ****         for (int i = 0; i < 6; i++) _scale[i] = _esatonic[i];
 6951              		.loc 1 71 9 view .LVU1312
 6952              	.LBB2461:
  72:PSP/PlantConditioner.cpp ****         break;
 6953              		.loc 1 72 47 is_stmt 0 view .LVU1313
 6954 011c D0F88024 		ldr	r2, [r0, #1152]	@ unaligned
 6955              	.LVL336:
  72:PSP/PlantConditioner.cpp ****         break;
 6956              		.loc 1 72 47 view .LVU1314
 6957 0120 04F56775 		add	r5, r4, #924
 6958 0124 D0F88434 		ldr	r3, [r0, #1156]	@ unaligned
 6959              	.LBE2461:
  71:PSP/PlantConditioner.cpp ****         for (int i = 0; i < 6; i++) _scale[i] = _esatonic[i];
 6960              		.loc 1 71 22 view .LVU1315
 6961 0128 0620     		movs	r0, #6
 6962              	.LVL337:
 6963              	.LBB2462:
  72:PSP/PlantConditioner.cpp ****         break;
 6964              		.loc 1 72 47 view .LVU1316
 6965 012a D4F88864 		ldr	r6, [r4, #1160]	@ unaligned
 6966 012e D4F88C14 		ldr	r1, [r4, #1164]	@ unaligned
 6967              	.LVL338:
  72:PSP/PlantConditioner.cpp ****         break;
 6968              		.loc 1 72 47 view .LVU1317
 6969 0132 C4F89C23 		str	r2, [r4, #924]	@ unaligned
 6970 0136 C4F8A033 		str	r3, [r4, #928]	@ unaligned
 6971 013a D4F89024 		ldr	r2, [r4, #1168]	@ unaligned
 6972 013e D4F89434 		ldr	r3, [r4, #1172]	@ unaligned
 6973 0142 C4F8AC23 		str	r2, [r4, #940]	@ unaligned
 6974 0146 C4F8A463 		str	r6, [r4, #932]	@ unaligned
 6975              	.LBE2462:
  71:PSP/PlantConditioner.cpp ****         for (int i = 0; i < 6; i++) _scale[i] = _esatonic[i];
 6976              		.loc 1 71 22 view .LVU1318
 6977 014a 84F85103 		strb	r0, [r4, #849]
  72:PSP/PlantConditioner.cpp ****         break;
 6978              		.loc 1 72 9 is_stmt 1 view .LVU1319
 6979              	.LVL339:
 6980              	.LBB2463:
  72:PSP/PlantConditioner.cpp ****         break;
 6981              		.loc 1 72 27 view .LVU1320
  72:PSP/PlantConditioner.cpp ****         break;
 6982              		.loc 1 72 47 is_stmt 0 view .LVU1321
 6983 014e C4F8A813 		str	r1, [r4, #936]	@ unaligned
 6984 0152 C4F8B033 		str	r3, [r4, #944]	@ unaligned
ARM GAS  C:\Users\skipi\AppData\Local\Temp\ccUZkxb5.s 			page 152


 6985 0156 A4E7     		b	.L33
 6986              	.LVL340:
 6987              	.L31:
  72:PSP/PlantConditioner.cpp ****         break;
 6988              		.loc 1 72 47 view .LVU1322
 6989              	.LBE2463:
  50:PSP/PlantConditioner.cpp ****         _scaleLength = 7;
 6990              		.loc 1 50 5 is_stmt 1 view .LVU1323
  51:PSP/PlantConditioner.cpp ****         for (int i = 0; i < 7; i++) _scale[i] = _minorNScale[i];
 6991              		.loc 1 51 9 view .LVU1324
 6992              	.LBB2464:
  52:PSP/PlantConditioner.cpp ****         break;
 6993              		.loc 1 52 47 is_stmt 0 view .LVU1325
 6994 0158 D0F8F033 		ldr	r3, [r0, #1008]	@ unaligned
 6995 015c 04F56775 		add	r5, r4, #924
 6996 0160 D0F8E813 		ldr	r1, [r0, #1000]	@ unaligned
 6997              	.LVL341:
  52:PSP/PlantConditioner.cpp ****         break;
 6998              		.loc 1 52 47 view .LVU1326
 6999 0164 D0F8EC23 		ldr	r2, [r0, #1004]	@ unaligned
 7000              	.LVL342:
  52:PSP/PlantConditioner.cpp ****         break;
 7001              		.loc 1 52 47 view .LVU1327
 7002              	.LBE2464:
  51:PSP/PlantConditioner.cpp ****         for (int i = 0; i < 7; i++) _scale[i] = _minorNScale[i];
 7003              		.loc 1 51 22 view .LVU1328
 7004 0168 0720     		movs	r0, #7
 7005              	.LVL343:
 7006              	.LBB2465:
  52:PSP/PlantConditioner.cpp ****         break;
 7007              		.loc 1 52 47 view .LVU1329
 7008 016a C4F8A433 		str	r3, [r4, #932]	@ unaligned
 7009 016e D4F8F433 		ldr	r3, [r4, #1012]	@ unaligned
 7010 0172 C4F89C13 		str	r1, [r4, #924]	@ unaligned
 7011 0176 C4F8A023 		str	r2, [r4, #928]	@ unaligned
 7012 017a D4F8F813 		ldr	r1, [r4, #1016]	@ unaligned
 7013 017e D4F8FC23 		ldr	r2, [r4, #1020]	@ unaligned
 7014 0182 C4F8A833 		str	r3, [r4, #936]	@ unaligned
 7015 0186 D4F80034 		ldr	r3, [r4, #1024]	@ unaligned
 7016              	.LBE2465:
  51:PSP/PlantConditioner.cpp ****         for (int i = 0; i < 7; i++) _scale[i] = _minorNScale[i];
 7017              		.loc 1 51 22 view .LVU1330
 7018 018a 84F85103 		strb	r0, [r4, #849]
  52:PSP/PlantConditioner.cpp ****         break;
 7019              		.loc 1 52 9 is_stmt 1 view .LVU1331
 7020              	.LVL344:
 7021              	.LBB2466:
  52:PSP/PlantConditioner.cpp ****         break;
 7022              		.loc 1 52 27 view .LVU1332
  52:PSP/PlantConditioner.cpp ****         break;
 7023              		.loc 1 52 47 is_stmt 0 view .LVU1333
 7024 018e C4F8AC13 		str	r1, [r4, #940]	@ unaligned
 7025 0192 C4F8B023 		str	r2, [r4, #944]	@ unaligned
 7026 0196 C4F8B433 		str	r3, [r4, #948]	@ unaligned
 7027 019a 82E7     		b	.L33
 7028              	.LVL345:
 7029              	.L30:
ARM GAS  C:\Users\skipi\AppData\Local\Temp\ccUZkxb5.s 			page 153


  52:PSP/PlantConditioner.cpp ****         break;
 7030              		.loc 1 52 47 view .LVU1334
 7031              	.LBE2466:
  54:PSP/PlantConditioner.cpp ****         _scaleLength = 7;
 7032              		.loc 1 54 5 is_stmt 1 view .LVU1335
  55:PSP/PlantConditioner.cpp ****         for (int i = 0; i < 7; i++) _scale[i] = _minorAScale[i];
 7033              		.loc 1 55 9 view .LVU1336
 7034              	.LBB2467:
  56:PSP/PlantConditioner.cpp ****         break;
 7035              		.loc 1 56 47 is_stmt 0 view .LVU1337
 7036 019c D0F80C34 		ldr	r3, [r0, #1036]	@ unaligned
 7037 01a0 04F56775 		add	r5, r4, #924
 7038 01a4 D0F80414 		ldr	r1, [r0, #1028]	@ unaligned
 7039              	.LVL346:
  56:PSP/PlantConditioner.cpp ****         break;
 7040              		.loc 1 56 47 view .LVU1338
 7041 01a8 D0F80824 		ldr	r2, [r0, #1032]	@ unaligned
 7042              	.LVL347:
  56:PSP/PlantConditioner.cpp ****         break;
 7043              		.loc 1 56 47 view .LVU1339
 7044              	.LBE2467:
  55:PSP/PlantConditioner.cpp ****         for (int i = 0; i < 7; i++) _scale[i] = _minorAScale[i];
 7045              		.loc 1 55 22 view .LVU1340
 7046 01ac 0720     		movs	r0, #7
 7047              	.LVL348:
 7048              	.LBB2468:
  56:PSP/PlantConditioner.cpp ****         break;
 7049              		.loc 1 56 47 view .LVU1341
 7050 01ae C4F8A433 		str	r3, [r4, #932]	@ unaligned
 7051 01b2 D4F81034 		ldr	r3, [r4, #1040]	@ unaligned
 7052 01b6 C4F89C13 		str	r1, [r4, #924]	@ unaligned
 7053 01ba C4F8A023 		str	r2, [r4, #928]	@ unaligned
 7054 01be D4F81414 		ldr	r1, [r4, #1044]	@ unaligned
 7055 01c2 D4F81824 		ldr	r2, [r4, #1048]	@ unaligned
 7056 01c6 C4F8A833 		str	r3, [r4, #936]	@ unaligned
 7057 01ca D4F81C34 		ldr	r3, [r4, #1052]	@ unaligned
 7058              	.LBE2468:
  55:PSP/PlantConditioner.cpp ****         for (int i = 0; i < 7; i++) _scale[i] = _minorAScale[i];
 7059              		.loc 1 55 22 view .LVU1342
 7060 01ce 84F85103 		strb	r0, [r4, #849]
  56:PSP/PlantConditioner.cpp ****         break;
 7061              		.loc 1 56 9 is_stmt 1 view .LVU1343
 7062              	.LVL349:
 7063              	.LBB2469:
  56:PSP/PlantConditioner.cpp ****         break;
 7064              		.loc 1 56 27 view .LVU1344
  56:PSP/PlantConditioner.cpp ****         break;
 7065              		.loc 1 56 47 is_stmt 0 view .LVU1345
 7066 01d2 C4F8AC13 		str	r1, [r4, #940]	@ unaligned
 7067 01d6 C4F8B023 		str	r2, [r4, #944]	@ unaligned
 7068 01da C4F8B433 		str	r3, [r4, #948]	@ unaligned
 7069 01de 60E7     		b	.L33
 7070              	.LVL350:
 7071              	.L29:
  56:PSP/PlantConditioner.cpp ****         break;
 7072              		.loc 1 56 47 view .LVU1346
 7073              	.LBE2469:
ARM GAS  C:\Users\skipi\AppData\Local\Temp\ccUZkxb5.s 			page 154


  58:PSP/PlantConditioner.cpp ****         _scaleLength = 7;
 7074              		.loc 1 58 5 is_stmt 1 view .LVU1347
  59:PSP/PlantConditioner.cpp ****         for (int i = 0; i < 7; i++) _scale[i] = _minorMScale[i];
 7075              		.loc 1 59 9 view .LVU1348
 7076              	.LBB2470:
  60:PSP/PlantConditioner.cpp ****         break;
 7077              		.loc 1 60 47 is_stmt 0 view .LVU1349
 7078 01e0 D0F82834 		ldr	r3, [r0, #1064]	@ unaligned
 7079 01e4 04F56775 		add	r5, r4, #924
 7080 01e8 D0F82014 		ldr	r1, [r0, #1056]	@ unaligned
 7081              	.LVL351:
  60:PSP/PlantConditioner.cpp ****         break;
 7082              		.loc 1 60 47 view .LVU1350
 7083 01ec D0F82424 		ldr	r2, [r0, #1060]	@ unaligned
 7084              	.LVL352:
  60:PSP/PlantConditioner.cpp ****         break;
 7085              		.loc 1 60 47 view .LVU1351
 7086              	.LBE2470:
  59:PSP/PlantConditioner.cpp ****         for (int i = 0; i < 7; i++) _scale[i] = _minorMScale[i];
 7087              		.loc 1 59 22 view .LVU1352
 7088 01f0 0720     		movs	r0, #7
 7089              	.LVL353:
 7090              	.LBB2471:
  60:PSP/PlantConditioner.cpp ****         break;
 7091              		.loc 1 60 47 view .LVU1353
 7092 01f2 C4F8A433 		str	r3, [r4, #932]	@ unaligned
 7093 01f6 D4F82C34 		ldr	r3, [r4, #1068]	@ unaligned
 7094 01fa C4F89C13 		str	r1, [r4, #924]	@ unaligned
 7095 01fe C4F8A023 		str	r2, [r4, #928]	@ unaligned
 7096 0202 D4F83014 		ldr	r1, [r4, #1072]	@ unaligned
 7097 0206 D4F83424 		ldr	r2, [r4, #1076]	@ unaligned
 7098 020a C4F8A833 		str	r3, [r4, #936]	@ unaligned
 7099 020e D4F83834 		ldr	r3, [r4, #1080]	@ unaligned
 7100              	.LBE2471:
  59:PSP/PlantConditioner.cpp ****         for (int i = 0; i < 7; i++) _scale[i] = _minorMScale[i];
 7101              		.loc 1 59 22 view .LVU1354
 7102 0212 84F85103 		strb	r0, [r4, #849]
  60:PSP/PlantConditioner.cpp ****         break;
 7103              		.loc 1 60 9 is_stmt 1 view .LVU1355
 7104              	.LVL354:
 7105              	.LBB2472:
  60:PSP/PlantConditioner.cpp ****         break;
 7106              		.loc 1 60 27 view .LVU1356
  60:PSP/PlantConditioner.cpp ****         break;
 7107              		.loc 1 60 47 is_stmt 0 view .LVU1357
 7108 0216 C4F8AC13 		str	r1, [r4, #940]	@ unaligned
 7109 021a C4F8B023 		str	r2, [r4, #944]	@ unaligned
 7110 021e C4F8B433 		str	r3, [r4, #948]	@ unaligned
 7111 0222 3EE7     		b	.L33
 7112              	.LVL355:
 7113              	.L28:
  60:PSP/PlantConditioner.cpp ****         break;
 7114              		.loc 1 60 47 view .LVU1358
 7115              	.LBE2472:
  62:PSP/PlantConditioner.cpp ****         _scaleLength = 5;
 7116              		.loc 1 62 5 is_stmt 1 view .LVU1359
  63:PSP/PlantConditioner.cpp ****         for (int i = 0; i < 5; i++) _scale[i] = _pentatonicScale[i];
ARM GAS  C:\Users\skipi\AppData\Local\Temp\ccUZkxb5.s 			page 155


 7117              		.loc 1 63 9 view .LVU1360
 7118              	.LBB2473:
  64:PSP/PlantConditioner.cpp ****         break;
 7119              		.loc 1 64 47 is_stmt 0 view .LVU1361
 7120 0224 D0F83C34 		ldr	r3, [r0, #1084]	@ unaligned
 7121              	.LBE2473:
  63:PSP/PlantConditioner.cpp ****         for (int i = 0; i < 5; i++) _scale[i] = _pentatonicScale[i];
 7122              		.loc 1 63 22 view .LVU1362
 7123 0228 0521     		movs	r1, #5
 7124              	.LVL356:
 7125              	.LBB2474:
  64:PSP/PlantConditioner.cpp ****         break;
 7126              		.loc 1 64 47 view .LVU1363
 7127 022a 04F56775 		add	r5, r4, #924
 7128 022e C0F89C33 		str	r3, [r0, #924]	@ unaligned
 7129 0232 D4F84434 		ldr	r3, [r4, #1092]	@ unaligned
 7130 0236 D0F84004 		ldr	r0, [r0, #1088]	@ unaligned
 7131              	.LVL357:
  64:PSP/PlantConditioner.cpp ****         break;
 7132              		.loc 1 64 47 view .LVU1364
 7133 023a D4F84824 		ldr	r2, [r4, #1096]	@ unaligned
 7134              	.LVL358:
  64:PSP/PlantConditioner.cpp ****         break;
 7135              		.loc 1 64 47 view .LVU1365
 7136 023e C4F8A433 		str	r3, [r4, #932]	@ unaligned
 7137 0242 D4F84C34 		ldr	r3, [r4, #1100]	@ unaligned
 7138 0246 C4F8A003 		str	r0, [r4, #928]	@ unaligned
 7139              	.LBE2474:
  63:PSP/PlantConditioner.cpp ****         for (int i = 0; i < 5; i++) _scale[i] = _pentatonicScale[i];
 7140              		.loc 1 63 22 view .LVU1366
 7141 024a 84F85113 		strb	r1, [r4, #849]
  64:PSP/PlantConditioner.cpp ****         break;
 7142              		.loc 1 64 9 is_stmt 1 view .LVU1367
 7143              	.LVL359:
 7144              	.LBB2475:
  64:PSP/PlantConditioner.cpp ****         break;
 7145              		.loc 1 64 27 view .LVU1368
  64:PSP/PlantConditioner.cpp ****         break;
 7146              		.loc 1 64 47 is_stmt 0 view .LVU1369
 7147 024e C4F8A823 		str	r2, [r4, #936]	@ unaligned
 7148 0252 C4F8AC33 		str	r3, [r4, #940]	@ unaligned
 7149 0256 24E7     		b	.L33
 7150              	.LBE2475:
 7151              	.LBE2485:
 7152              		.cfi_endproc
 7153              	.LFE5079:
 7155              		.section	.text._ZN16PlantConditioner9setOctaveEh,"ax",%progbits
 7156              		.align	1
 7157              		.p2align 2,,3
 7158              		.global	_ZN16PlantConditioner9setOctaveEh
 7159              		.syntax unified
 7160              		.thumb
 7161              		.thumb_func
 7162              		.fpu fpv5-d16
 7164              	_ZN16PlantConditioner9setOctaveEh:
 7165              	.LVL360:
 7166              	.LFB5080:
ARM GAS  C:\Users\skipi\AppData\Local\Temp\ccUZkxb5.s 			page 156


  90:PSP/PlantConditioner.cpp ****     _octave = octave;
 7167              		.loc 1 90 50 is_stmt 1 view -0
 7168              		.cfi_startproc
 7169              		@ args = 0, pretend = 0, frame = 0
 7170              		@ frame_needed = 0, uses_anonymous_args = 0
 7171              		@ link register save eliminated.
  91:PSP/PlantConditioner.cpp ****     _lastNoteIndex = -1;
 7172              		.loc 1 91 5 view .LVU1371
  92:PSP/PlantConditioner.cpp **** }
 7173              		.loc 1 92 20 is_stmt 0 view .LVU1372
 7174 0000 4FF0FF33 		mov	r3, #-1
  91:PSP/PlantConditioner.cpp ****     _lastNoteIndex = -1;
 7175              		.loc 1 91 13 view .LVU1373
 7176 0004 80F85013 		strb	r1, [r0, #848]
  92:PSP/PlantConditioner.cpp **** }
 7177              		.loc 1 92 5 is_stmt 1 view .LVU1374
  92:PSP/PlantConditioner.cpp **** }
 7178              		.loc 1 92 20 is_stmt 0 view .LVU1375
 7179 0008 C0F84033 		str	r3, [r0, #832]
  93:PSP/PlantConditioner.cpp **** 
 7180              		.loc 1 93 1 view .LVU1376
 7181 000c 7047     		bx	lr
 7182              		.cfi_endproc
 7183              	.LFE5080:
 7185 000e 00BF     		.section	.text._ZN16PlantConditioner7ProcessEv,"ax",%progbits
 7186              		.align	1
 7187              		.p2align 2,,3
 7188              		.global	_ZN16PlantConditioner7ProcessEv
 7189              		.syntax unified
 7190              		.thumb
 7191              		.thumb_func
 7192              		.fpu fpv5-d16
 7194              	_ZN16PlantConditioner7ProcessEv:
 7195              	.LVL361:
 7196              	.LFB5081:
  95:PSP/PlantConditioner.cpp ****     float out = _lastFreq;
 7197              		.loc 1 95 58 is_stmt 1 view -0
 7198              		.cfi_startproc
 7199              		@ args = 0, pretend = 0, frame = 8
 7200              		@ frame_needed = 0, uses_anonymous_args = 0
  96:PSP/PlantConditioner.cpp ****     if (_cap.Touched() & _BV(11))
 7201              		.loc 1 96 5 view .LVU1378
  95:PSP/PlantConditioner.cpp ****     float out = _lastFreq;
 7202              		.loc 1 95 58 is_stmt 0 view .LVU1379
 7203 0000 2DE9F041 		push	{r4, r5, r6, r7, r8, lr}
 7204              		.cfi_def_cfa_offset 24
 7205              		.cfi_offset 4, -24
 7206              		.cfi_offset 5, -20
 7207              		.cfi_offset 6, -16
 7208              		.cfi_offset 7, -12
 7209              		.cfi_offset 8, -8
 7210              		.cfi_offset 14, -4
 7211 0004 2DED028B 		vpush.64	{d8}
 7212              		.cfi_def_cfa_offset 32
 7213              		.cfi_offset 80, -32
 7214              		.cfi_offset 81, -28
 7215 0008 86B0     		sub	sp, sp, #24
ARM GAS  C:\Users\skipi\AppData\Local\Temp\ccUZkxb5.s 			page 157


 7216              		.cfi_def_cfa_offset 56
 7217              	.LBB2525:
 7218              	.LBB2526:
 7219              	.LBB2527:
 7220              	.LBB2528:
 7221              	.LBB2529:
 7222              	.LBB2530:
 7223              	.LBB2531:
  66:../libs/PoliTeKDSP/libs/libDaisy/src/dev/mpr121.h ****                    config_.dev_addr, address, 1, data, size, 10);
 7224              		.loc 2 66 41 view .LVU1380
 7225 000a 0A22     		movs	r2, #10
 7226 000c 0223     		movs	r3, #2
 7227 000e 01F13407 		add	r7, r1, #52
 7228 0012 0DF11606 		add	r6, sp, #22
 7229              	.LBE2531:
 7230              	.LBE2530:
 7231              	.LBE2529:
 7232              	.LBE2528:
 7233              	.LBE2527:
 7234              	.LBE2526:
 7235              	.LBE2525:
  95:PSP/PlantConditioner.cpp ****     float out = _lastFreq;
 7236              		.loc 1 95 58 view .LVU1381
 7237 0016 0C46     		mov	r4, r1
 7238 0018 0546     		mov	r5, r0
 7239              	.LBB2653:
 7240              	.LBB2544:
 7241              	.LBB2542:
 7242              	.LBB2540:
 7243              	.LBB2538:
 7244              	.LBB2534:
 7245              	.LBB2532:
  66:../libs/PoliTeKDSP/libs/libDaisy/src/dev/mpr121.h ****                    config_.dev_addr, address, 1, data, size, 10);
 7246              		.loc 2 66 41 view .LVU1382
 7247 001a 3846     		mov	r0, r7
 7248              	.LVL362:
  66:../libs/PoliTeKDSP/libs/libDaisy/src/dev/mpr121.h ****                    config_.dev_addr, address, 1, data, size, 10);
 7249              		.loc 2 66 41 view .LVU1383
 7250 001c 0096     		str	r6, [sp]
 7251 001e CDE90132 		strd	r3, r2, [sp, #4]
 7252 0022 0123     		movs	r3, #1
 7253              	.LBE2532:
 7254              	.LBE2534:
 7255              	.LBE2538:
 7256              	.LBE2540:
 7257              	.LBE2542:
 7258              	.LBE2544:
 7259              	.LBE2653:
  96:PSP/PlantConditioner.cpp ****     if (_cap.Touched() & _BV(11))
 7260              		.loc 1 96 11 view .LVU1384
 7261 0024 91EDD18A 		vldr.32	s16, [r1, #836]
 7262              	.LVL363:
  97:PSP/PlantConditioner.cpp ****     {
 7263              		.loc 1 97 5 is_stmt 1 view .LVU1385
 7264              	.LBB2654:
 7265              	.LBB2545:
 7266              	.LBI2526:
ARM GAS  C:\Users\skipi\AppData\Local\Temp\ccUZkxb5.s 			page 158


 222:../libs/PoliTeKDSP/libs/libDaisy/src/dev/mpr121.h ****     {
 7267              		.loc 2 222 14 view .LVU1386
 7268              	.LBB2543:
 7269              	.LBB2541:
 7270              	.LBI2528:
 244:../libs/PoliTeKDSP/libs/libDaisy/src/dev/mpr121.h ****     {
 7271              		.loc 2 244 14 view .LVU1387
 7272              	.LBB2539:
 7273              	.LBB2535:
 7274              	.LBI2530:
  63:../libs/PoliTeKDSP/libs/libDaisy/src/dev/mpr121.h ****     {
 7275              		.loc 2 63 10 view .LVU1388
 7276              	.LBB2533:
  65:../libs/PoliTeKDSP/libs/libDaisy/src/dev/mpr121.h ****                != i2c_.ReadDataAtAddress(
 7277              		.loc 2 65 9 view .LVU1389
  66:../libs/PoliTeKDSP/libs/libDaisy/src/dev/mpr121.h ****                    config_.dev_addr, address, 1, data, size, 10);
 7278              		.loc 2 66 41 is_stmt 0 view .LVU1390
 7279 0028 0022     		movs	r2, #0
 7280 002a 91F84810 		ldrb	r1, [r1, #72]	@ zero_extendqisi2
 7281              	.LVL364:
  66:../libs/PoliTeKDSP/libs/libDaisy/src/dev/mpr121.h ****                    config_.dev_addr, address, 1, data, size, 10);
 7282              		.loc 2 66 41 view .LVU1391
 7283 002e FFF7FEFF 		bl	_ZN5daisy9I2CHandle17ReadDataAtAddressEtttPhtm
 7284              	.LVL365:
  66:../libs/PoliTeKDSP/libs/libDaisy/src/dev/mpr121.h ****                    config_.dev_addr, address, 1, data, size, 10);
 7285              		.loc 2 66 41 view .LVU1392
 7286              	.LBE2533:
 7287              	.LBE2535:
 7288              	.LBB2536:
 7289              	.LBI2536:
 336:../libs/PoliTeKDSP/libs/libDaisy/src/dev/mpr121.h **** 
 7290              		.loc 2 336 10 is_stmt 1 view .LVU1393
 7291              	.LBB2537:
 336:../libs/PoliTeKDSP/libs/libDaisy/src/dev/mpr121.h **** 
 7292              		.loc 2 336 55 is_stmt 0 view .LVU1394
 7293 0032 94F84C30 		ldrb	r3, [r4, #76]	@ zero_extendqisi2
 7294 0036 0028     		cmp	r0, #0
 7295 0038 18BF     		it	ne
 7296 003a 43F00103 		orrne	r3, r3, #1
 7297 003e 84F84C30 		strb	r3, [r4, #76]
 7298              	.LVL366:
 336:../libs/PoliTeKDSP/libs/libDaisy/src/dev/mpr121.h **** 
 7299              		.loc 2 336 55 view .LVU1395
 7300              	.LBE2537:
 7301              	.LBE2536:
 250:../libs/PoliTeKDSP/libs/libDaisy/src/dev/mpr121.h ****     }
 7302              		.loc 2 250 16 view .LVU1396
 7303 0042 BDF81630 		ldrh	r3, [sp, #22]
 7304              	.LVL367:
 250:../libs/PoliTeKDSP/libs/libDaisy/src/dev/mpr121.h ****     }
 7305              		.loc 2 250 16 view .LVU1397
 7306              	.LBE2539:
 7307              	.LBE2541:
 7308              	.LBE2543:
 7309              	.LBE2545:
  97:PSP/PlantConditioner.cpp ****     {
 7310              		.loc 1 97 5 view .LVU1398
ARM GAS  C:\Users\skipi\AppData\Local\Temp\ccUZkxb5.s 			page 159


 7311 0046 13F40063 		ands	r3, r3, #2048
 7312 004a 00F0B480 		beq	.L47
 7313              	.LBB2546:
  99:PSP/PlantConditioner.cpp ****         // 1. Calcolo Delta grezzo (Baseline - Filtered - Offset)
 7314              		.loc 1 99 9 is_stmt 1 view .LVU1399
 7315 004e 94F83D33 		ldrb	r3, [r4, #829]	@ zero_extendqisi2
 7316 0052 002B     		cmp	r3, #0
 7317 0054 00F0AB80 		beq	.L76
 7318              	.L48:
 101:PSP/PlantConditioner.cpp ****         // 2. Pre-filtraggio Mediano (rimozione spike elettromagnetici)
 7319              		.loc 1 101 9 view .LVU1400
 7320              	.LVL368:
 7321              	.LBB2547:
 7322              	.LBI2547:
 209:../libs/PoliTeKDSP/libs/libDaisy/src/dev/mpr121.h ****     {
 7323              		.loc 2 209 14 view .LVU1401
 7324              	.LBB2548:
 7325              	.LBB2549:
 7326              	.LBI2549:
 209:../libs/PoliTeKDSP/libs/libDaisy/src/dev/mpr121.h ****     {
 7327              		.loc 2 209 14 view .LVU1402
 7328              	.LBB2550:
 7329              	.LBB2551:
 7330              	.LBI2551:
 232:../libs/PoliTeKDSP/libs/libDaisy/src/dev/mpr121.h ****     {
 7331              		.loc 2 232 13 view .LVU1403
 7332              	.LBB2552:
 7333              	.LBB2553:
 7334              	.LBI2553:
  63:../libs/PoliTeKDSP/libs/libDaisy/src/dev/mpr121.h ****     {
 7335              		.loc 2 63 10 view .LVU1404
 7336              	.LBB2554:
  65:../libs/PoliTeKDSP/libs/libDaisy/src/dev/mpr121.h ****                != i2c_.ReadDataAtAddress(
 7337              		.loc 2 65 9 view .LVU1405
  66:../libs/PoliTeKDSP/libs/libDaisy/src/dev/mpr121.h ****                    config_.dev_addr, address, 1, data, size, 10);
 7338              		.loc 2 66 41 is_stmt 0 view .LVU1406
 7339 0058 0123     		movs	r3, #1
 7340 005a 4FF00A08 		mov	r8, #10
 7341 005e 0096     		str	r6, [sp]
 7342 0060 2922     		movs	r2, #41
 7343 0062 0193     		str	r3, [sp, #4]
 7344 0064 3846     		mov	r0, r7
 7345 0066 CDF80880 		str	r8, [sp, #8]
 7346 006a 94F84810 		ldrb	r1, [r4, #72]	@ zero_extendqisi2
 7347 006e FFF7FEFF 		bl	_ZN5daisy9I2CHandle17ReadDataAtAddressEtttPhtm
 7348              	.LVL369:
  66:../libs/PoliTeKDSP/libs/libDaisy/src/dev/mpr121.h ****                    config_.dev_addr, address, 1, data, size, 10);
 7349              		.loc 2 66 41 view .LVU1407
 7350              	.LBE2554:
 7351              	.LBE2553:
 7352              	.LBE2552:
 7353              	.LBE2551:
 7354              	.LBE2550:
 7355              	.LBE2549:
 7356              	.LBE2548:
 7357              	.LBE2547:
 7358              	.LBB2576:
ARM GAS  C:\Users\skipi\AppData\Local\Temp\ccUZkxb5.s 			page 160


 7359              	.LBB2577:
 7360              	.LBB2578:
 7361              	.LBB2579:
 7362              	.LBB2580:
 7363              	.LBB2581:
 7364 0072 0096     		str	r6, [sp]
 7365 0074 CDF80880 		str	r8, [sp, #8]
 7366              	.LBE2581:
 7367              	.LBE2580:
 7368              	.LBE2579:
 7369              	.LBE2578:
 7370              	.LBE2577:
 7371              	.LBE2576:
 7372              	.LBB2616:
 7373              	.LBB2573:
 7374              	.LBB2570:
 7375              	.LBB2567:
 7376              	.LBB2564:
 7377              	.LBB2561:
 7378              	.LBB2556:
 7379              	.LBB2555:
 7380 0078 0146     		mov	r1, r0
 7381              	.LVL370:
  66:../libs/PoliTeKDSP/libs/libDaisy/src/dev/mpr121.h ****                    config_.dev_addr, address, 1, data, size, 10);
 7382              		.loc 2 66 41 view .LVU1408
 7383              	.LBE2555:
 7384              	.LBE2556:
 7385              	.LBB2557:
 7386              	.LBI2557:
 336:../libs/PoliTeKDSP/libs/libDaisy/src/dev/mpr121.h **** 
 7387              		.loc 2 336 10 is_stmt 1 view .LVU1409
 7388              	.LBB2558:
 336:../libs/PoliTeKDSP/libs/libDaisy/src/dev/mpr121.h **** 
 7389              		.loc 2 336 55 is_stmt 0 view .LVU1410
 7390 007a 94F84C20 		ldrb	r2, [r4, #76]	@ zero_extendqisi2
 7391              	.LBE2558:
 7392              	.LBE2557:
 7393              	.LBE2561:
 7394              	.LBE2564:
 7395              	.LBE2567:
 7396              	.LBE2570:
 7397              	.LBE2573:
 7398              	.LBE2616:
 7399              	.LBB2617:
 7400              	.LBB2609:
 7401              	.LBB2602:
 7402              	.LBB2595:
 7403              	.LBB2585:
 7404              	.LBB2582:
  66:../libs/PoliTeKDSP/libs/libDaisy/src/dev/mpr121.h ****                    config_.dev_addr, address, 1, data, size, 10);
 7405              		.loc 2 66 41 view .LVU1411
 7406 007e 0123     		movs	r3, #1
 7407              	.LBE2582:
 7408              	.LBE2585:
 7409              	.LBE2595:
 7410              	.LBE2602:
 7411              	.LBE2609:
ARM GAS  C:\Users\skipi\AppData\Local\Temp\ccUZkxb5.s 			page 161


 7412              	.LBE2617:
 7413              	.LBB2618:
 7414              	.LBB2574:
 7415              	.LBB2571:
 7416              	.LBB2568:
 7417              	.LBB2565:
 7418              	.LBB2562:
 237:../libs/PoliTeKDSP/libs/libDaisy/src/dev/mpr121.h ****     }
 7419              		.loc 2 237 16 view .LVU1412
 7420 0080 9DF81660 		ldrb	r6, [sp, #22]	@ zero_extendqisi2
 7421              	.LBE2562:
 7422              	.LBE2565:
 7423              	.LBE2568:
 7424              	.LBE2571:
 7425              	.LBE2574:
 7426              	.LBE2618:
 7427              	.LBB2619:
 7428              	.LBB2610:
 7429              	.LBB2603:
 7430              	.LBB2596:
 7431              	.LBB2586:
 7432              	.LBB2583:
  66:../libs/PoliTeKDSP/libs/libDaisy/src/dev/mpr121.h ****                    config_.dev_addr, address, 1, data, size, 10);
 7433              		.loc 2 66 41 view .LVU1413
 7434 0084 3846     		mov	r0, r7
 7435              	.LVL371:
  66:../libs/PoliTeKDSP/libs/libDaisy/src/dev/mpr121.h ****                    config_.dev_addr, address, 1, data, size, 10);
 7436              		.loc 2 66 41 view .LVU1414
 7437              	.LBE2583:
 7438              	.LBE2586:
 7439              	.LBE2596:
 7440              	.LBE2603:
 7441              	.LBE2610:
 7442              	.LBE2619:
 7443              	.LBB2620:
 7444              	.LBB2575:
 7445              	.LBB2572:
 7446              	.LBB2569:
 7447              	.LBB2566:
 7448              	.LBB2563:
 7449              	.LBB2560:
 7450              	.LBB2559:
 336:../libs/PoliTeKDSP/libs/libDaisy/src/dev/mpr121.h **** 
 7451              		.loc 2 336 55 view .LVU1415
 7452 0086 0029     		cmp	r1, #0
 7453 0088 18BF     		it	ne
 7454 008a 42F00102 		orrne	r2, r2, #1
 7455 008e 84F84C20 		strb	r2, [r4, #76]
 7456              	.LVL372:
 336:../libs/PoliTeKDSP/libs/libDaisy/src/dev/mpr121.h **** 
 7457              		.loc 2 336 55 view .LVU1416
 7458              	.LBE2559:
 7459              	.LBE2560:
 7460              	.LBE2563:
 7461              	.LBE2566:
 7462              	.LBE2569:
 7463              	.LBE2572:
ARM GAS  C:\Users\skipi\AppData\Local\Temp\ccUZkxb5.s 			page 162


 7464              	.LBE2575:
 7465              	.LBE2620:
 7466              	.LBB2621:
 7467              	.LBI2576:
 196:../libs/PoliTeKDSP/libs/libDaisy/src/dev/mpr121.h ****     {
 7468              		.loc 2 196 14 is_stmt 1 view .LVU1417
 7469              	.LBB2611:
 7470              	.LBI2577:
 196:../libs/PoliTeKDSP/libs/libDaisy/src/dev/mpr121.h ****     {
 7471              		.loc 2 196 14 view .LVU1418
 7472              	.LBB2604:
 7473              	.LBI2578:
 244:../libs/PoliTeKDSP/libs/libDaisy/src/dev/mpr121.h ****     {
 7474              		.loc 2 244 14 view .LVU1419
 7475              	.LBB2597:
 7476              	.LBB2587:
 7477              	.LBI2580:
  63:../libs/PoliTeKDSP/libs/libDaisy/src/dev/mpr121.h ****     {
 7478              		.loc 2 63 10 view .LVU1420
 7479              	.LBB2584:
  65:../libs/PoliTeKDSP/libs/libDaisy/src/dev/mpr121.h ****                != i2c_.ReadDataAtAddress(
 7480              		.loc 2 65 9 view .LVU1421
  66:../libs/PoliTeKDSP/libs/libDaisy/src/dev/mpr121.h ****                    config_.dev_addr, address, 1, data, size, 10);
 7481              		.loc 2 66 41 is_stmt 0 view .LVU1422
 7482 0092 0222     		movs	r2, #2
 7483 0094 0192     		str	r2, [sp, #4]
 7484 0096 1A22     		movs	r2, #26
 7485 0098 94F84810 		ldrb	r1, [r4, #72]	@ zero_extendqisi2
 7486 009c FFF7FEFF 		bl	_ZN5daisy9I2CHandle17ReadDataAtAddressEtttPhtm
 7487              	.LVL373:
  66:../libs/PoliTeKDSP/libs/libDaisy/src/dev/mpr121.h ****                    config_.dev_addr, address, 1, data, size, 10);
 7488              		.loc 2 66 41 view .LVU1423
 7489              	.LBE2584:
 7490              	.LBE2587:
 7491              	.LBB2588:
 7492              	.LBI2588:
 336:../libs/PoliTeKDSP/libs/libDaisy/src/dev/mpr121.h **** 
 7493              		.loc 2 336 10 is_stmt 1 view .LVU1424
 7494              	.LBE2588:
 7495              	.LBE2597:
 7496              	.LBE2604:
 7497              	.LBE2611:
 7498              	.LBE2621:
 101:PSP/PlantConditioner.cpp ****         // 2. Pre-filtraggio Mediano (rimozione spike elettromagnetici)
 7499              		.loc 1 101 80 is_stmt 0 view .LVU1425
 7500 00a0 94F85020 		ldrb	r2, [r4, #80]	@ zero_extendqisi2
 101:PSP/PlantConditioner.cpp ****         // 2. Pre-filtraggio Mediano (rimozione spike elettromagnetici)
 7501              		.loc 1 101 18 view .LVU1426
 7502 00a4 B300     		lsls	r3, r6, #2
 101:PSP/PlantConditioner.cpp ****         // 2. Pre-filtraggio Mediano (rimozione spike elettromagnetici)
 7503              		.loc 1 101 80 view .LVU1427
 7504 00a6 07EE102A 		vmov	s14, r2	@ int
 7505              	.LBB2622:
 7506              	.LBB2612:
 7507              	.LBB2605:
 7508              	.LBB2598:
 250:../libs/PoliTeKDSP/libs/libDaisy/src/dev/mpr121.h ****     }
ARM GAS  C:\Users\skipi\AppData\Local\Temp\ccUZkxb5.s 			page 163


 7509              		.loc 2 250 16 view .LVU1428
 7510 00aa BDF81620 		ldrh	r2, [sp, #22]
 7511              	.LBE2598:
 7512              	.LBE2605:
 7513              	.LBE2612:
 7514              	.LBE2622:
 101:PSP/PlantConditioner.cpp ****         // 2. Pre-filtraggio Mediano (rimozione spike elettromagnetici)
 7515              		.loc 1 101 18 view .LVU1429
 7516 00ae 00EE103A 		vmov	s0, r3	@ int
 7517              	.LBB2623:
 7518              	.LBB2613:
 7519              	.LBB2606:
 7520              	.LBB2599:
 7521              	.LBB2592:
 7522              	.LBB2589:
 336:../libs/PoliTeKDSP/libs/libDaisy/src/dev/mpr121.h **** 
 7523              		.loc 2 336 55 view .LVU1430
 7524 00b2 94F84C30 		ldrb	r3, [r4, #76]	@ zero_extendqisi2
 7525              	.LBE2589:
 7526              	.LBE2592:
 7527              	.LBE2599:
 7528              	.LBE2606:
 7529              	.LBE2613:
 7530              	.LBE2623:
 101:PSP/PlantConditioner.cpp ****         // 2. Pre-filtraggio Mediano (rimozione spike elettromagnetici)
 7531              		.loc 1 101 80 view .LVU1431
 7532 00b6 B8EE477A 		vcvt.f32.u32	s14, s14
 101:PSP/PlantConditioner.cpp ****         // 2. Pre-filtraggio Mediano (rimozione spike elettromagnetici)
 7533              		.loc 1 101 18 view .LVU1432
 7534 00ba F8EE407A 		vcvt.f32.u32	s15, s0
 7535              	.LBB2624:
 7536              	.LBB2614:
 7537              	.LBB2607:
 7538              	.LBB2600:
 250:../libs/PoliTeKDSP/libs/libDaisy/src/dev/mpr121.h ****     }
 7539              		.loc 2 250 16 view .LVU1433
 7540 00be 00EE102A 		vmov	s0, r2	@ int
 7541              	.LBB2593:
 7542              	.LBB2590:
 336:../libs/PoliTeKDSP/libs/libDaisy/src/dev/mpr121.h **** 
 7543              		.loc 2 336 55 view .LVU1434
 7544 00c2 0028     		cmp	r0, #0
 7545 00c4 18BF     		it	ne
 7546 00c6 43F00103 		orrne	r3, r3, #1
 7547              	.LBE2590:
 7548              	.LBE2593:
 7549              	.LBE2600:
 7550              	.LBE2607:
 7551              	.LBE2614:
 7552              	.LBE2624:
 103:PSP/PlantConditioner.cpp ****         // 3. Selezione dinamica del filtro IIR in base all'ordine/tipo scelto
 7553              		.loc 1 103 46 view .LVU1435
 7554 00ca 04F54970 		add	r0, r4, #804
 7555              	.LVL374:
 101:PSP/PlantConditioner.cpp ****         // 2. Pre-filtraggio Mediano (rimozione spike elettromagnetici)
 7556              		.loc 1 101 49 view .LVU1436
 7557 00ce B8EE400A 		vcvt.f32.u32	s0, s0
ARM GAS  C:\Users\skipi\AppData\Local\Temp\ccUZkxb5.s 			page 164


 7558              	.LBB2625:
 7559              	.LBB2615:
 7560              	.LBB2608:
 7561              	.LBB2601:
 7562              	.LBB2594:
 7563              	.LBB2591:
 336:../libs/PoliTeKDSP/libs/libDaisy/src/dev/mpr121.h **** 
 7564              		.loc 2 336 55 view .LVU1437
 7565 00d2 84F84C30 		strb	r3, [r4, #76]
 7566              	.LVL375:
 336:../libs/PoliTeKDSP/libs/libDaisy/src/dev/mpr121.h **** 
 7567              		.loc 2 336 55 view .LVU1438
 7568              	.LBE2591:
 7569              	.LBE2594:
 7570              	.LBE2601:
 7571              	.LBE2608:
 7572              	.LBE2615:
 7573              	.LBE2625:
 101:PSP/PlantConditioner.cpp ****         // 2. Pre-filtraggio Mediano (rimozione spike elettromagnetici)
 7574              		.loc 1 101 47 view .LVU1439
 7575 00d6 37EEC00A 		vsub.f32	s0, s15, s0
 101:PSP/PlantConditioner.cpp ****         // 2. Pre-filtraggio Mediano (rimozione spike elettromagnetici)
 7576              		.loc 1 101 78 view .LVU1440
 7577 00da 30EE470A 		vsub.f32	s0, s0, s14
 101:PSP/PlantConditioner.cpp ****         // 2. Pre-filtraggio Mediano (rimozione spike elettromagnetici)
 7578              		.loc 1 101 16 view .LVU1441
 7579 00de 84EDD80A 		vstr.32	s0, [r4, #864]
 103:PSP/PlantConditioner.cpp ****         // 3. Selezione dinamica del filtro IIR in base all'ordine/tipo scelto
 7580              		.loc 1 103 9 is_stmt 1 view .LVU1442
 103:PSP/PlantConditioner.cpp ****         // 3. Selezione dinamica del filtro IIR in base all'ordine/tipo scelto
 7581              		.loc 1 103 46 is_stmt 0 view .LVU1443
 7582 00e2 FFF7FEFF 		bl	_ZN2MF7ProcessEf
 7583              	.LVL376:
 106:PSP/PlantConditioner.cpp ****             case IIR::BUTTERWORTH2:
 7584              		.loc 1 106 9 is_stmt 1 view .LVU1444
 106:PSP/PlantConditioner.cpp ****             case IIR::BUTTERWORTH2:
 7585              		.loc 1 106 17 is_stmt 0 view .LVU1445
 7586 00e6 94F83C33 		ldrb	r3, [r4, #828]	@ zero_extendqisi2
 106:PSP/PlantConditioner.cpp ****             case IIR::BUTTERWORTH2:
 7587              		.loc 1 106 9 view .LVU1446
 7588 00ea 012B     		cmp	r3, #1
 7589 00ec 00F09C80 		beq	.L49
 7590 00f0 032B     		cmp	r3, #3
 7591 00f2 00F09480 		beq	.L50
 7592 00f6 002B     		cmp	r3, #0
 7593 00f8 00F08C80 		beq	.L77
 119:PSP/PlantConditioner.cpp ****                 _deltaFilt = _Butterworth2.Process(mf_out);
 7594              		.loc 1 119 13 is_stmt 1 view .LVU1447
 120:PSP/PlantConditioner.cpp ****                 break;
 7595              		.loc 1 120 17 view .LVU1448
 120:PSP/PlantConditioner.cpp ****                 break;
 7596              		.loc 1 120 51 is_stmt 0 view .LVU1449
 7597 00fc 04F15400 		add	r0, r4, #84
 7598 0100 FFF7FEFF 		bl	_ZN3IIR7ProcessEf
 7599              	.LVL377:
 121:PSP/PlantConditioner.cpp ****         }
 7600              		.loc 1 121 17 is_stmt 1 view .LVU1450
ARM GAS  C:\Users\skipi\AppData\Local\Temp\ccUZkxb5.s 			page 165


 7601              	.L53:
 125:PSP/PlantConditioner.cpp ****         
 7602              		.loc 1 125 1 view .LVU1451
 7603              	.LBB2626:
 7604              	.LBI2626:
 7605              		.file 5 "../libs/PoliTeKDSP/libs/DaisySP/Source/Utility/dsp.h"
   1:../libs/PoliTeKDSP/libs/DaisySP/Source/Utility/dsp.h **** /*
   2:../libs/PoliTeKDSP/libs/DaisySP/Source/Utility/dsp.h **** Copyright (c) 2020 Electrosmith, Corp, Emilie Gillet
   3:../libs/PoliTeKDSP/libs/DaisySP/Source/Utility/dsp.h **** 
   4:../libs/PoliTeKDSP/libs/DaisySP/Source/Utility/dsp.h **** Use of this source code is governed by an MIT-style
   5:../libs/PoliTeKDSP/libs/DaisySP/Source/Utility/dsp.h **** license that can be found in the LICENSE file or at
   6:../libs/PoliTeKDSP/libs/DaisySP/Source/Utility/dsp.h **** https://opensource.org/licenses/MIT.
   7:../libs/PoliTeKDSP/libs/DaisySP/Source/Utility/dsp.h **** */
   8:../libs/PoliTeKDSP/libs/DaisySP/Source/Utility/dsp.h **** 
   9:../libs/PoliTeKDSP/libs/DaisySP/Source/Utility/dsp.h **** /** Helpful defines, functions, and other utilities for use in/with daisysp modules.
  10:../libs/PoliTeKDSP/libs/DaisySP/Source/Utility/dsp.h **** */
  11:../libs/PoliTeKDSP/libs/DaisySP/Source/Utility/dsp.h **** #pragma once
  12:../libs/PoliTeKDSP/libs/DaisySP/Source/Utility/dsp.h **** #ifndef DSY_CORE_DSP
  13:../libs/PoliTeKDSP/libs/DaisySP/Source/Utility/dsp.h **** #define DSY_CORE_DSP
  14:../libs/PoliTeKDSP/libs/DaisySP/Source/Utility/dsp.h **** #include <cassert>
  15:../libs/PoliTeKDSP/libs/DaisySP/Source/Utility/dsp.h **** #include <cstdint>
  16:../libs/PoliTeKDSP/libs/DaisySP/Source/Utility/dsp.h **** #include <random>
  17:../libs/PoliTeKDSP/libs/DaisySP/Source/Utility/dsp.h **** #include <cmath>
  18:../libs/PoliTeKDSP/libs/DaisySP/Source/Utility/dsp.h **** 
  19:../libs/PoliTeKDSP/libs/DaisySP/Source/Utility/dsp.h **** /** PIs
  20:../libs/PoliTeKDSP/libs/DaisySP/Source/Utility/dsp.h **** */
  21:../libs/PoliTeKDSP/libs/DaisySP/Source/Utility/dsp.h **** #define PI_F 3.1415927410125732421875f
  22:../libs/PoliTeKDSP/libs/DaisySP/Source/Utility/dsp.h **** #define TWOPI_F (2.0f * PI_F)
  23:../libs/PoliTeKDSP/libs/DaisySP/Source/Utility/dsp.h **** #define HALFPI_F (PI_F * 0.5f)
  24:../libs/PoliTeKDSP/libs/DaisySP/Source/Utility/dsp.h **** #define DSY_MIN(in, mn) (in < mn ? in : mn)
  25:../libs/PoliTeKDSP/libs/DaisySP/Source/Utility/dsp.h **** #define DSY_MAX(in, mx) (in > mx ? in : mx)
  26:../libs/PoliTeKDSP/libs/DaisySP/Source/Utility/dsp.h **** #define DSY_CLAMP(in, mn, mx) (DSY_MIN(DSY_MAX(in, mn), mx))
  27:../libs/PoliTeKDSP/libs/DaisySP/Source/Utility/dsp.h **** #define DSY_COUNTOF(_arr) (sizeof(_arr) / sizeof(_arr[0]))
  28:../libs/PoliTeKDSP/libs/DaisySP/Source/Utility/dsp.h **** 
  29:../libs/PoliTeKDSP/libs/DaisySP/Source/Utility/dsp.h **** namespace daisysp
  30:../libs/PoliTeKDSP/libs/DaisySP/Source/Utility/dsp.h **** {
  31:../libs/PoliTeKDSP/libs/DaisySP/Source/Utility/dsp.h **** //Avoids division for random floats. e.g. rand() * kRandFrac
  32:../libs/PoliTeKDSP/libs/DaisySP/Source/Utility/dsp.h **** static constexpr float kRandFrac = 1.f / (float)RAND_MAX;
  33:../libs/PoliTeKDSP/libs/DaisySP/Source/Utility/dsp.h **** 
  34:../libs/PoliTeKDSP/libs/DaisySP/Source/Utility/dsp.h **** //Convert from semitones to other units. e.g. 2 ^ (kOneTwelfth * x)
  35:../libs/PoliTeKDSP/libs/DaisySP/Source/Utility/dsp.h **** static constexpr float kOneTwelfth = 1.f / 12.f;
  36:../libs/PoliTeKDSP/libs/DaisySP/Source/Utility/dsp.h **** 
  37:../libs/PoliTeKDSP/libs/DaisySP/Source/Utility/dsp.h **** /** efficient floating point min/max
  38:../libs/PoliTeKDSP/libs/DaisySP/Source/Utility/dsp.h **** c/o stephen mccaul
  39:../libs/PoliTeKDSP/libs/DaisySP/Source/Utility/dsp.h **** */
  40:../libs/PoliTeKDSP/libs/DaisySP/Source/Utility/dsp.h **** inline float fmax(float a, float b)
  41:../libs/PoliTeKDSP/libs/DaisySP/Source/Utility/dsp.h **** {
  42:../libs/PoliTeKDSP/libs/DaisySP/Source/Utility/dsp.h ****     float r;
  43:../libs/PoliTeKDSP/libs/DaisySP/Source/Utility/dsp.h **** #ifdef __arm__
  44:../libs/PoliTeKDSP/libs/DaisySP/Source/Utility/dsp.h ****     asm("vmaxnm.f32 %[d], %[n], %[m]" : [d] "=t"(r) : [n] "t"(a), [m] "t"(b) :);
  45:../libs/PoliTeKDSP/libs/DaisySP/Source/Utility/dsp.h **** #else
  46:../libs/PoliTeKDSP/libs/DaisySP/Source/Utility/dsp.h ****     r = (a > b) ? a : b;
  47:../libs/PoliTeKDSP/libs/DaisySP/Source/Utility/dsp.h **** #endif // __arm__
  48:../libs/PoliTeKDSP/libs/DaisySP/Source/Utility/dsp.h ****     return r;
  49:../libs/PoliTeKDSP/libs/DaisySP/Source/Utility/dsp.h **** }
  50:../libs/PoliTeKDSP/libs/DaisySP/Source/Utility/dsp.h **** 
  51:../libs/PoliTeKDSP/libs/DaisySP/Source/Utility/dsp.h **** inline float fmin(float a, float b)
ARM GAS  C:\Users\skipi\AppData\Local\Temp\ccUZkxb5.s 			page 166


  52:../libs/PoliTeKDSP/libs/DaisySP/Source/Utility/dsp.h **** {
  53:../libs/PoliTeKDSP/libs/DaisySP/Source/Utility/dsp.h ****     float r;
  54:../libs/PoliTeKDSP/libs/DaisySP/Source/Utility/dsp.h **** #ifdef __arm__
  55:../libs/PoliTeKDSP/libs/DaisySP/Source/Utility/dsp.h ****     asm("vminnm.f32 %[d], %[n], %[m]" : [d] "=t"(r) : [n] "t"(a), [m] "t"(b) :);
  56:../libs/PoliTeKDSP/libs/DaisySP/Source/Utility/dsp.h **** #else
  57:../libs/PoliTeKDSP/libs/DaisySP/Source/Utility/dsp.h ****     r = (a < b) ? a : b;
  58:../libs/PoliTeKDSP/libs/DaisySP/Source/Utility/dsp.h **** #endif // __arm__
  59:../libs/PoliTeKDSP/libs/DaisySP/Source/Utility/dsp.h ****     return r;
  60:../libs/PoliTeKDSP/libs/DaisySP/Source/Utility/dsp.h **** }
  61:../libs/PoliTeKDSP/libs/DaisySP/Source/Utility/dsp.h **** 
  62:../libs/PoliTeKDSP/libs/DaisySP/Source/Utility/dsp.h **** /** quick fp clamp
  63:../libs/PoliTeKDSP/libs/DaisySP/Source/Utility/dsp.h **** */
  64:../libs/PoliTeKDSP/libs/DaisySP/Source/Utility/dsp.h **** inline float fclamp(float in, float min, float max)
 7606              		.loc 5 64 14 view .LVU1452
 7607              	.LBE2626:
 7608              	.LBE2546:
 7609              	.LBE2654:
  65:../libs/PoliTeKDSP/libs/DaisySP/Source/Utility/dsp.h **** {
  66:../libs/PoliTeKDSP/libs/DaisySP/Source/Utility/dsp.h ****     return fmin(fmax(in, min), max);
 7610              		.loc 5 66 5 view .LVU1453
 7611              	.LBB2655:
 7612              	.LBB2649:
 7613              	.LBB2635:
 7614              	.LBB2627:
 7615              	.LBI2627:
  40:../libs/PoliTeKDSP/libs/DaisySP/Source/Utility/dsp.h **** {
 7616              		.loc 5 40 14 view .LVU1454
 7617              	.LBB2628:
  42:../libs/PoliTeKDSP/libs/DaisySP/Source/Utility/dsp.h **** #ifdef __arm__
 7618              		.loc 5 42 5 view .LVU1455
  44:../libs/PoliTeKDSP/libs/DaisySP/Source/Utility/dsp.h **** #else
 7619              		.loc 5 44 5 view .LVU1456
 7620              	.LBE2628:
 7621              	.LBE2627:
 7622              	.LBE2635:
 7623              	.LBB2636:
 131:PSP/PlantConditioner.cpp ****             int i = _lastNoteIndex;
 7624              		.loc 1 131 13 is_stmt 0 view .LVU1457
 7625 0104 D4F84033 		ldr	r3, [r4, #832]
 7626              	.LBE2636:
 125:PSP/PlantConditioner.cpp ****         
 7627              		.loc 1 125 20 view .LVU1458
 7628 0108 D4EDD67A 		vldr.32	s15, [r4, #856]
 7629 010c DFED496A 		vldr.32	s13, .L79
 7630              	.LBB2638:
 131:PSP/PlantConditioner.cpp ****             int i = _lastNoteIndex;
 7631              		.loc 1 131 9 view .LVU1459
 7632 0110 002B     		cmp	r3, #0
 7633              	.LBE2638:
 7634              	.LBB2639:
 7635              	.LBB2631:
 7636              	.LBB2629:
  44:../libs/PoliTeKDSP/libs/DaisySP/Source/Utility/dsp.h **** #else
 7637              		.loc 5 44 5 view .LVU1460
 7638 0112 94EDD57A 		vldr.32	s14, [r4, #852]
 7639              	.LBE2629:
 7640              	.LBE2631:
ARM GAS  C:\Users\skipi\AppData\Local\Temp\ccUZkxb5.s 			page 167


 7641              	.LBE2639:
 125:PSP/PlantConditioner.cpp ****         
 7642              		.loc 1 125 20 view .LVU1461
 7643 0116 77EEE67A 		vsub.f32	s15, s15, s13
 7644              	.LVL378:
 7645              	.LBB2640:
 131:PSP/PlantConditioner.cpp ****             int i = _lastNoteIndex;
 7646              		.loc 1 131 53 view .LVU1462
 7647 011a 94F85123 		ldrb	r2, [r4, #849]	@ zero_extendqisi2
 7648              	.LBE2640:
 7649              	.LBB2641:
 7650              	.LBB2632:
 7651              	.LBB2630:
  44:../libs/PoliTeKDSP/libs/DaisySP/Source/Utility/dsp.h **** #else
 7652              		.loc 5 44 5 view .LVU1463
 7653              		.syntax unified
 7654              	@ 44 "../libs/PoliTeKDSP/libs/DaisySP/Source/Utility/dsp.h" 1
 7655 011e 80FE077A 		vmaxnm.f32 s14, s0, s14
 7656              	@ 0 "" 2
 7657              	.LVL379:
  48:../libs/PoliTeKDSP/libs/DaisySP/Source/Utility/dsp.h **** }
 7658              		.loc 5 48 5 is_stmt 1 view .LVU1464
  48:../libs/PoliTeKDSP/libs/DaisySP/Source/Utility/dsp.h **** }
 7659              		.loc 5 48 5 is_stmt 0 view .LVU1465
 7660              		.thumb
 7661              		.syntax unified
 7662              	.LBE2630:
 7663              	.LBE2632:
 7664              	.LBB2633:
 7665              	.LBI2633:
  51:../libs/PoliTeKDSP/libs/DaisySP/Source/Utility/dsp.h **** {
 7666              		.loc 5 51 14 is_stmt 1 view .LVU1466
 7667              	.LBB2634:
  53:../libs/PoliTeKDSP/libs/DaisySP/Source/Utility/dsp.h **** #ifdef __arm__
 7668              		.loc 5 53 5 view .LVU1467
  55:../libs/PoliTeKDSP/libs/DaisySP/Source/Utility/dsp.h **** #else
 7669              		.loc 5 55 5 view .LVU1468
 7670              		.syntax unified
 7671              	@ 55 "../libs/PoliTeKDSP/libs/DaisySP/Source/Utility/dsp.h" 1
 7672 0122 87FE677A 		vminnm.f32 s14, s14, s15
 7673              	@ 0 "" 2
 7674              	.LVL380:
  59:../libs/PoliTeKDSP/libs/DaisySP/Source/Utility/dsp.h **** }
 7675              		.loc 5 59 5 view .LVU1469
  59:../libs/PoliTeKDSP/libs/DaisySP/Source/Utility/dsp.h **** }
 7676              		.loc 5 59 5 is_stmt 0 view .LVU1470
 7677              		.thumb
 7678              		.syntax unified
 7679              	.LBE2634:
 7680              	.LBE2633:
 7681              	.LBE2641:
 125:PSP/PlantConditioner.cpp ****         
 7682              		.loc 1 125 12 view .LVU1471
 7683 0126 84EDD97A 		vstr.32	s14, [r4, #868]
 131:PSP/PlantConditioner.cpp ****             int i = _lastNoteIndex;
 7684              		.loc 1 131 9 is_stmt 1 view .LVU1472
 7685              	.LBB2642:
ARM GAS  C:\Users\skipi\AppData\Local\Temp\ccUZkxb5.s 			page 168


 7686 012a 01DB     		blt	.L55
 131:PSP/PlantConditioner.cpp ****             int i = _lastNoteIndex;
 7687              		.loc 1 131 33 is_stmt 0 discriminator 1 view .LVU1473
 7688 012c 9342     		cmp	r3, r2
 7689 012e 4DDB     		blt	.L78
 7690              	.L55:
 7691              	.LVL381:
 131:PSP/PlantConditioner.cpp ****             int i = _lastNoteIndex;
 7692              		.loc 1 131 33 discriminator 1 view .LVU1474
 7693              	.LBE2642:
 7694              	.LBB2643:
 148:PSP/PlantConditioner.cpp ****             float lower = _noteThresholds[i];
 7695              		.loc 1 148 27 is_stmt 1 discriminator 1 view .LVU1475
 7696 0130 002A     		cmp	r2, #0
 7697 0132 48D0     		beq	.L75
 7698              	.LVL382:
 7699              	.L57:
 7700              	.LBB2644:
 149:PSP/PlantConditioner.cpp ****             float upper = _noteThresholds[i+1];
 7701              		.loc 1 149 19 is_stmt 0 view .LVU1476
 7702 0134 D4EDDA7A 		vldr.32	s15, [r4, #872]
 7703 0138 04F55B71 		add	r1, r4, #876
 7704 013c 0023     		movs	r3, #0
 7705 013e 02E0     		b	.L61
 7706              	.LVL383:
 7707              	.L65:
 149:PSP/PlantConditioner.cpp ****             float upper = _noteThresholds[i+1];
 7708              		.loc 1 149 19 view .LVU1477
 7709              	.LBE2644:
 148:PSP/PlantConditioner.cpp ****             float lower = _noteThresholds[i];
 7710              		.loc 1 148 27 discriminator 1 view .LVU1478
 7711 0140 0133     		adds	r3, r3, #1
 7712              	.LVL384:
 148:PSP/PlantConditioner.cpp ****             float lower = _noteThresholds[i];
 7713              		.loc 1 148 27 discriminator 1 view .LVU1479
 7714 0142 9342     		cmp	r3, r2
 7715 0144 3FDA     		bge	.L75
 7716              	.LVL385:
 7717              	.L61:
 148:PSP/PlantConditioner.cpp ****             float lower = _noteThresholds[i];
 7718              		.loc 1 148 27 is_stmt 1 view .LVU1480
 7719              	.LBB2645:
 149:PSP/PlantConditioner.cpp ****             float upper = _noteThresholds[i+1];
 7720              		.loc 1 149 13 view .LVU1481
 150:PSP/PlantConditioner.cpp ****             
 7721              		.loc 1 150 13 view .LVU1482
 7722 0146 F0EE676A 		vmov.f32	s13, s15
 153:PSP/PlantConditioner.cpp ****                 out = _scale[i] * (1 << _octave);
 7723              		.loc 1 153 83 is_stmt 0 view .LVU1483
 7724 014a 02F1FF3C 		add	ip, r2, #-1
 150:PSP/PlantConditioner.cpp ****             
 7725              		.loc 1 150 19 view .LVU1484
 7726 014e F1EC017A 		vldmia.32	r1!, {s15}
 7727              	.LVL386:
 153:PSP/PlantConditioner.cpp ****                 out = _scale[i] * (1 << _octave);
 7728              		.loc 1 153 13 is_stmt 1 view .LVU1485
 7729 0152 B4EEE67A 		vcmpe.f32	s14, s13
ARM GAS  C:\Users\skipi\AppData\Local\Temp\ccUZkxb5.s 			page 169


 7730 0156 F1EE10FA 		vmrs	APSR_nzcv, FPSCR
 7731 015a 04DB     		blt	.L62
 153:PSP/PlantConditioner.cpp ****                 out = _scale[i] * (1 << _octave);
 7732              		.loc 1 153 38 is_stmt 0 discriminator 1 view .LVU1486
 7733 015c F4EEC77A 		vcmpe.f32	s15, s14
 7734 0160 F1EE10FA 		vmrs	APSR_nzcv, FPSCR
 7735 0164 06DC     		bgt	.L64
 7736              	.L62:
 153:PSP/PlantConditioner.cpp ****                 out = _scale[i] * (1 << _octave);
 7737              		.loc 1 153 61 discriminator 3 view .LVU1487
 7738 0166 6345     		cmp	r3, ip
 7739 0168 EAD1     		bne	.L65
 153:PSP/PlantConditioner.cpp ****                 out = _scale[i] * (1 << _octave);
 7740              		.loc 1 153 87 discriminator 4 view .LVU1488
 7741 016a F4EEC77A 		vcmpe.f32	s15, s14
 7742 016e F1EE10FA 		vmrs	APSR_nzcv, FPSCR
 7743 0172 E5D8     		bhi	.L65
 7744              	.L64:
 154:PSP/PlantConditioner.cpp ****                 _lastNoteIndex = i; 
 7745              		.loc 1 154 17 is_stmt 1 view .LVU1489
 154:PSP/PlantConditioner.cpp ****                 _lastNoteIndex = i; 
 7746              		.loc 1 154 41 is_stmt 0 view .LVU1490
 7747 0174 94F85013 		ldrb	r1, [r4, #848]	@ zero_extendqisi2
 154:PSP/PlantConditioner.cpp ****                 _lastNoteIndex = i; 
 7748              		.loc 1 154 38 view .LVU1491
 7749 0178 0122     		movs	r2, #1
 7750 017a 8A40     		lsls	r2, r2, r1
 7751 017c 08EE102A 		vmov	s16, r2	@ int
 7752              	.LVL387:
 154:PSP/PlantConditioner.cpp ****                 _lastNoteIndex = i; 
 7753              		.loc 1 154 31 view .LVU1492
 7754 0180 04EB8302 		add	r2, r4, r3, lsl #2
 154:PSP/PlantConditioner.cpp ****                 _lastNoteIndex = i; 
 7755              		.loc 1 154 33 view .LVU1493
 7756 0184 B8EEC88A 		vcvt.f32.s32	s16, s16
 154:PSP/PlantConditioner.cpp ****                 _lastNoteIndex = i; 
 7757              		.loc 1 154 21 view .LVU1494
 7758 0188 D2EDE77A 		vldr.32	s15, [r2, #924]
 7759              	.LVL388:
 154:PSP/PlantConditioner.cpp ****                 _lastNoteIndex = i; 
 7760              		.loc 1 154 21 view .LVU1495
 7761              	.LBE2645:
 7762              	.LBE2643:
 7763              	.LBE2649:
 7764              	.LBE2655:
 164:PSP/PlantConditioner.cpp **** }
 7765              		.loc 1 164 18 view .LVU1496
 7766 018c 94F83D23 		ldrb	r2, [r4, #829]	@ zero_extendqisi2
 7767              	.LBB2656:
 7768              	.LBB2650:
 7769              	.LBB2647:
 7770              	.LBB2646:
 155:PSP/PlantConditioner.cpp ****                 _lastFreq = out;    
 7771              		.loc 1 155 32 view .LVU1497
 7772 0190 C4F84033 		str	r3, [r4, #832]
 154:PSP/PlantConditioner.cpp ****                 _lastNoteIndex = i; 
 7773              		.loc 1 154 21 view .LVU1498
ARM GAS  C:\Users\skipi\AppData\Local\Temp\ccUZkxb5.s 			page 170


 7774 0194 28EE278A 		vmul.f32	s16, s16, s15
 7775              	.LVL389:
 155:PSP/PlantConditioner.cpp ****                 _lastFreq = out;    
 7776              		.loc 1 155 17 is_stmt 1 view .LVU1499
 156:PSP/PlantConditioner.cpp ****                 break;
 7777              		.loc 1 156 17 view .LVU1500
 156:PSP/PlantConditioner.cpp ****                 break;
 7778              		.loc 1 156 27 is_stmt 0 view .LVU1501
 7779 0198 84EDD18A 		vstr.32	s16, [r4, #836]
 157:PSP/PlantConditioner.cpp ****             }
 7780              		.loc 1 157 17 is_stmt 1 view .LVU1502
 7781              	.LVL390:
 7782              	.L58:
 157:PSP/PlantConditioner.cpp ****             }
 7783              		.loc 1 157 17 is_stmt 0 view .LVU1503
 7784              	.LBE2646:
 7785              	.LBE2647:
 7786              	.LBE2650:
 7787              	.LBE2656:
 164:PSP/PlantConditioner.cpp **** }
 7788              		.loc 1 164 5 is_stmt 1 view .LVU1504
 164:PSP/PlantConditioner.cpp **** }
 7789              		.loc 1 164 28 is_stmt 0 view .LVU1505
 7790 019c 85ED008A 		vstr.32	s16, [r5]
 7791 01a0 2A71     		strb	r2, [r5, #4]
 7792              	.L46:
 165:PSP/PlantConditioner.cpp **** 
 7793              		.loc 1 165 1 view .LVU1506
 7794 01a2 2846     		mov	r0, r5
 7795 01a4 06B0     		add	sp, sp, #24
 7796              		.cfi_remember_state
 7797              		.cfi_def_cfa_offset 32
 7798              		@ sp needed
 7799 01a6 BDEC028B 		vldm	sp!, {d8}
 7800              		.cfi_restore 80
 7801              		.cfi_restore 81
 7802              		.cfi_def_cfa_offset 24
 7803              	.LVL391:
 165:PSP/PlantConditioner.cpp **** 
 7804              		.loc 1 165 1 view .LVU1507
 7805 01aa BDE8F081 		pop	{r4, r5, r6, r7, r8, pc}
 7806              	.LVL392:
 7807              	.L76:
 7808              		.cfi_restore_state
 7809              	.LBB2657:
 7810              	.LBB2651:
  99:PSP/PlantConditioner.cpp ****         // 1. Calcolo Delta grezzo (Baseline - Filtered - Offset)
 7811              		.loc 1 99 26 is_stmt 1 discriminator 1 view .LVU1508
  99:PSP/PlantConditioner.cpp ****         // 1. Calcolo Delta grezzo (Baseline - Filtered - Offset)
 7812              		.loc 1 99 37 is_stmt 0 discriminator 1 view .LVU1509
 7813 01ae 0123     		movs	r3, #1
 7814 01b0 84F83D33 		strb	r3, [r4, #829]
 7815 01b4 50E7     		b	.L48
 7816              	.L47:
  99:PSP/PlantConditioner.cpp ****         // 1. Calcolo Delta grezzo (Baseline - Filtered - Offset)
 7817              		.loc 1 99 37 discriminator 1 view .LVU1510
 7818              	.LBE2651:
ARM GAS  C:\Users\skipi\AppData\Local\Temp\ccUZkxb5.s 			page 171


 161:PSP/PlantConditioner.cpp ****     }
 7819              		.loc 1 161 9 is_stmt 1 view .LVU1511
 161:PSP/PlantConditioner.cpp ****     }
 7820              		.loc 1 161 13 is_stmt 0 view .LVU1512
 7821 01b6 94F83D23 		ldrb	r2, [r4, #829]	@ zero_extendqisi2
 161:PSP/PlantConditioner.cpp ****     }
 7822              		.loc 1 161 9 view .LVU1513
 7823 01ba 002A     		cmp	r2, #0
 7824 01bc EED0     		beq	.L58
 161:PSP/PlantConditioner.cpp ****     }
 7825              		.loc 1 161 25 is_stmt 1 discriminator 1 view .LVU1514
 7826 01be 1A46     		mov	r2, r3
 161:PSP/PlantConditioner.cpp ****     }
 7827              		.loc 1 161 36 is_stmt 0 discriminator 1 view .LVU1515
 7828 01c0 84F83D33 		strb	r3, [r4, #829]
 7829 01c4 EAE7     		b	.L58
 7830              	.L75:
 161:PSP/PlantConditioner.cpp ****     }
 7831              		.loc 1 161 36 discriminator 1 view .LVU1516
 7832              	.LBE2657:
 164:PSP/PlantConditioner.cpp **** }
 7833              		.loc 1 164 18 view .LVU1517
 7834 01c6 94F83D23 		ldrb	r2, [r4, #829]	@ zero_extendqisi2
 7835 01ca E7E7     		b	.L58
 7836              	.L78:
 7837              	.LBB2658:
 7838              	.LBB2652:
 7839              	.LBB2648:
 7840              	.LBB2637:
 132:PSP/PlantConditioner.cpp ****             
 7841              		.loc 1 132 13 is_stmt 1 view .LVU1518
 7842              	.LVL393:
 134:PSP/PlantConditioner.cpp ****             float upper = _noteThresholds[i+1];
 7843              		.loc 1 134 13 view .LVU1519
 138:PSP/PlantConditioner.cpp **** 
 7844              		.loc 1 138 48 is_stmt 0 view .LVU1520
 7845 01cc DFED1A6A 		vldr.32	s13, .L79+4
 7846 01d0 04EB8303 		add	r3, r4, r3, lsl #2
 7847              	.LVL394:
 135:PSP/PlantConditioner.cpp ****             
 7848              		.loc 1 135 13 is_stmt 1 view .LVU1521
 138:PSP/PlantConditioner.cpp **** 
 7849              		.loc 1 138 13 view .LVU1522
 138:PSP/PlantConditioner.cpp **** 
 7850              		.loc 1 138 48 is_stmt 0 view .LVU1523
 7851 01d4 D4EDD75A 		vldr.32	s11, [r4, #860]
 138:PSP/PlantConditioner.cpp **** 
 7852              		.loc 1 138 19 view .LVU1524
 7853 01d8 94EDD26A 		vldr.32	s12, [r4, #840]
 138:PSP/PlantConditioner.cpp **** 
 7854              		.loc 1 138 48 view .LVU1525
 7855 01dc C5EEA67A 		vdiv.f32	s15, s11, s13
 140:PSP/PlantConditioner.cpp ****                 return {out, _isTouched}; 
 7856              		.loc 1 140 38 view .LVU1526
 7857 01e0 D3EDDA6A 		vldr.32	s13, [r3, #872]
 138:PSP/PlantConditioner.cpp **** 
 7858              		.loc 1 138 19 view .LVU1527
ARM GAS  C:\Users\skipi\AppData\Local\Temp\ccUZkxb5.s 			page 172


 7859 01e4 67EE867A 		vmul.f32	s15, s15, s12
 7860              	.LVL395:
 140:PSP/PlantConditioner.cpp ****                 return {out, _isTouched}; 
 7861              		.loc 1 140 13 is_stmt 1 view .LVU1528
 140:PSP/PlantConditioner.cpp ****                 return {out, _isTouched}; 
 7862              		.loc 1 140 38 is_stmt 0 view .LVU1529
 7863 01e8 76EEE76A 		vsub.f32	s13, s13, s15
 140:PSP/PlantConditioner.cpp ****                 return {out, _isTouched}; 
 7864              		.loc 1 140 13 view .LVU1530
 7865 01ec F4EEC76A 		vcmpe.f32	s13, s14
 7866 01f0 F1EE10FA 		vmrs	APSR_nzcv, FPSCR
 7867 01f4 9ED8     		bhi	.L57
 140:PSP/PlantConditioner.cpp ****                 return {out, _isTouched}; 
 7868              		.loc 1 140 69 discriminator 1 view .LVU1531
 7869 01f6 D3EDDB6A 		vldr.32	s13, [r3, #876]
 7870 01fa 77EEA67A 		vadd.f32	s15, s15, s13
 7871              	.LVL396:
 140:PSP/PlantConditioner.cpp ****                 return {out, _isTouched}; 
 7872              		.loc 1 140 46 discriminator 1 view .LVU1532
 7873 01fe F4EEC77A 		vcmpe.f32	s15, s14
 7874 0202 F1EE10FA 		vmrs	APSR_nzcv, FPSCR
 7875 0206 95DD     		ble	.L57
 141:PSP/PlantConditioner.cpp ****             }
 7876              		.loc 1 141 17 is_stmt 1 view .LVU1533
 141:PSP/PlantConditioner.cpp ****             }
 7877              		.loc 1 141 40 is_stmt 0 view .LVU1534
 7878 0208 94F83D33 		ldrb	r3, [r4, #829]	@ zero_extendqisi2
 7879              	.LVL397:
 141:PSP/PlantConditioner.cpp ****             }
 7880              		.loc 1 141 40 view .LVU1535
 7881 020c 85ED008A 		vstr.32	s16, [r5]
 7882 0210 2B71     		strb	r3, [r5, #4]
 7883 0212 C6E7     		b	.L46
 7884              	.LVL398:
 7885              	.L77:
 141:PSP/PlantConditioner.cpp ****             }
 7886              		.loc 1 141 40 view .LVU1536
 7887              	.LBE2637:
 7888              	.LBE2648:
 113:PSP/PlantConditioner.cpp ****                 _deltaFilt = _Bessel2.Process(mf_out);
 7889              		.loc 1 113 13 is_stmt 1 view .LVU1537
 114:PSP/PlantConditioner.cpp ****                 break;
 7890              		.loc 1 114 17 view .LVU1538
 114:PSP/PlantConditioner.cpp ****                 break;
 7891              		.loc 1 114 46 is_stmt 0 view .LVU1539
 7892 0214 04F5DE70 		add	r0, r4, #444
 7893 0218 FFF7FEFF 		bl	_ZN3IIR7ProcessEf
 7894              	.LVL399:
 115:PSP/PlantConditioner.cpp ****             case IIR::BESSEL4:
 7895              		.loc 1 115 17 is_stmt 1 view .LVU1540
 7896 021c 72E7     		b	.L53
 7897              	.LVL400:
 7898              	.L50:
 110:PSP/PlantConditioner.cpp ****                 _deltaFilt = _Butterworth4.Process(mf_out);
 7899              		.loc 1 110 13 view .LVU1541
 111:PSP/PlantConditioner.cpp ****                 break;
 7900              		.loc 1 111 17 view .LVU1542
ARM GAS  C:\Users\skipi\AppData\Local\Temp\ccUZkxb5.s 			page 173


 111:PSP/PlantConditioner.cpp ****                 break;
 7901              		.loc 1 111 51 is_stmt 0 view .LVU1543
 7902 021e 04F58470 		add	r0, r4, #264
 7903 0222 FFF7FEFF 		bl	_ZN3IIR7ProcessEf
 7904              	.LVL401:
 112:PSP/PlantConditioner.cpp ****             case IIR::BESSEL2:
 7905              		.loc 1 112 17 is_stmt 1 view .LVU1544
 7906 0226 6DE7     		b	.L53
 7907              	.LVL402:
 7908              	.L49:
 116:PSP/PlantConditioner.cpp ****                 _deltaFilt = _Bessel4.Process(mf_out);
 7909              		.loc 1 116 13 view .LVU1545
 117:PSP/PlantConditioner.cpp ****                 break;
 7910              		.loc 1 117 17 view .LVU1546
 117:PSP/PlantConditioner.cpp ****                 break;
 7911              		.loc 1 117 46 is_stmt 0 view .LVU1547
 7912 0228 04F51C70 		add	r0, r4, #624
 7913 022c FFF7FEFF 		bl	_ZN3IIR7ProcessEf
 7914              	.LVL403:
 118:PSP/PlantConditioner.cpp ****             default:
 7915              		.loc 1 118 17 is_stmt 1 view .LVU1548
 7916 0230 68E7     		b	.L53
 7917              	.L80:
 7918 0232 00BF     		.align	2
 7919              	.L79:
 7920 0234 6F12833A 		.word	981668463
 7921 0238 0000C842 		.word	1120403456
 7922              	.LBE2652:
 7923              	.LBE2658:
 7924              		.cfi_endproc
 7925              	.LFE5081:
 7927              		.section	.text._ZN16PlantConditioner8setCurveEf,"ax",%progbits
 7928              		.align	1
 7929              		.p2align 2,,3
 7930              		.global	_ZN16PlantConditioner8setCurveEf
 7931              		.syntax unified
 7932              		.thumb
 7933              		.thumb_func
 7934              		.fpu fpv5-d16
 7936              	_ZN16PlantConditioner8setCurveEf:
 7937              	.LVL404:
 7938              	.LFB5082:
 167:PSP/PlantConditioner.cpp ****     _curveType = curve_type;
 7939              		.loc 1 167 51 view -0
 7940              		.cfi_startproc
 7941              		@ args = 0, pretend = 0, frame = 0
 7942              		@ frame_needed = 0, uses_anonymous_args = 0
 168:PSP/PlantConditioner.cpp ****     updateThresholds();
 7943              		.loc 1 168 5 view .LVU1550
 167:PSP/PlantConditioner.cpp ****     _curveType = curve_type;
 7944              		.loc 1 167 51 is_stmt 0 view .LVU1551
 7945 0000 70B5     		push	{r4, r5, r6, lr}
 7946              		.cfi_def_cfa_offset 16
 7947              		.cfi_offset 4, -16
 7948              		.cfi_offset 5, -12
 7949              		.cfi_offset 6, -8
 7950              		.cfi_offset 14, -4
ARM GAS  C:\Users\skipi\AppData\Local\Temp\ccUZkxb5.s 			page 174


 7951 0002 F0EE400A 		vmov.f32	s1, s0
 7952              	.LBB2663:
 7953              	.LBB2664:
 180:PSP/PlantConditioner.cpp ****         float pct = (float)i / _scaleLength;
 7954              		.loc 1 180 14 view .LVU1552
 7955 0006 0025     		movs	r5, #0
 7956              	.LBE2664:
 7957              	.LBE2663:
 167:PSP/PlantConditioner.cpp ****     _curveType = curve_type;
 7958              		.loc 1 167 51 view .LVU1553
 7959 0008 0446     		mov	r4, r0
 7960              	.LBB2670:
 7961              	.LBB2667:
 180:PSP/PlantConditioner.cpp ****         float pct = (float)i / _scaleLength;
 7962              		.loc 1 180 26 view .LVU1554
 7963 000a 90F85133 		ldrb	r3, [r0, #849]	@ zero_extendqisi2
 7964 000e 00F55A76 		add	r6, r0, #872
 7965              	.LBE2667:
 7966              	.LBE2670:
 168:PSP/PlantConditioner.cpp ****     updateThresholds();
 7967              		.loc 1 168 16 view .LVU1555
 7968 0012 80EDD30A 		vstr.32	s0, [r0, #844]
 169:PSP/PlantConditioner.cpp **** }
 7969              		.loc 1 169 5 is_stmt 1 view .LVU1556
 7970              	.LVL405:
 7971              	.LBB2671:
 7972              	.LBI2663:
 179:PSP/PlantConditioner.cpp ****     for (int i = 0; i <= _scaleLength; i++) {
 7973              		.loc 1 179 6 view .LVU1557
 7974              	.LBE2671:
 180:PSP/PlantConditioner.cpp ****         float pct = (float)i / _scaleLength;
 7975              		.loc 1 180 5 view .LVU1558
 7976              	.LBB2672:
 7977              	.LBB2668:
 180:PSP/PlantConditioner.cpp ****         float pct = (float)i / _scaleLength;
 7978              		.loc 1 180 23 view .LVU1559
 7979              	.LBE2668:
 7980              	.LBE2672:
 167:PSP/PlantConditioner.cpp ****     _curveType = curve_type;
 7981              		.loc 1 167 51 is_stmt 0 view .LVU1560
 7982 0016 2DED028B 		vpush.64	{d8}
 7983              		.cfi_def_cfa_offset 24
 7984              		.cfi_offset 80, -24
 7985              		.cfi_offset 81, -20
 7986 001a 01E0     		b	.L83
 7987              	.LVL406:
 7988              	.L85:
 7989              	.LBB2673:
 7990              	.LBB2669:
 7991              	.LBB2665:
 7992              		.loc 1 182 55 view .LVU1561
 7993 001c D4EDD30A 		vldr.32	s1, [r4, #844]
 7994              	.LVL407:
 7995              	.L83:
 181:PSP/PlantConditioner.cpp ****         _noteThresholds[i] = _deltaMin + _range * powf(pct, _curveType);
 7996              		.loc 1 181 9 is_stmt 1 view .LVU1562
 7997              		.loc 1 182 9 view .LVU1563
ARM GAS  C:\Users\skipi\AppData\Local\Temp\ccUZkxb5.s 			page 175


 181:PSP/PlantConditioner.cpp ****         _noteThresholds[i] = _deltaMin + _range * powf(pct, _curveType);
 7998              		.loc 1 181 30 is_stmt 0 view .LVU1564
 7999 0020 07EE903A 		vmov	s15, r3	@ int
 181:PSP/PlantConditioner.cpp ****         _noteThresholds[i] = _deltaMin + _range * powf(pct, _curveType);
 8000              		.loc 1 181 21 view .LVU1565
 8001 0024 07EE105A 		vmov	s14, r5	@ int
 8002              		.loc 1 182 30 view .LVU1566
 8003 0028 94EDD58A 		vldr.32	s16, [r4, #852]
 8004              	.LBE2665:
 180:PSP/PlantConditioner.cpp ****         float pct = (float)i / _scaleLength;
 8005              		.loc 1 180 5 view .LVU1567
 8006 002c 0135     		adds	r5, r5, #1
 8007              	.LVL408:
 8008              	.LBB2666:
 181:PSP/PlantConditioner.cpp ****         _noteThresholds[i] = _deltaMin + _range * powf(pct, _curveType);
 8009              		.loc 1 181 30 view .LVU1568
 8010 002e F8EEE77A 		vcvt.f32.s32	s15, s15
 8011              		.loc 1 182 42 view .LVU1569
 8012 0032 D4EDD78A 		vldr.32	s17, [r4, #860]
 181:PSP/PlantConditioner.cpp ****         _noteThresholds[i] = _deltaMin + _range * powf(pct, _curveType);
 8013              		.loc 1 181 21 view .LVU1570
 8014 0036 B8EEC70A 		vcvt.f32.s32	s0, s14
 8015              		.loc 1 182 55 view .LVU1571
 8016 003a 80EE270A 		vdiv.f32	s0, s0, s15
 8017              	.LVL409:
 8018              		.loc 1 182 55 view .LVU1572
 8019 003e FFF7FEFF 		bl	powf
 8020              	.LVL410:
 8021              		.loc 1 182 40 view .LVU1573
 8022 0042 A8EE808A 		vfma.f32	s16, s17, s0
 8023              		.loc 1 182 28 view .LVU1574
 8024 0046 A6EC018A 		vstmia.32	r6!, {s16}
 8025              	.LBE2666:
 180:PSP/PlantConditioner.cpp ****         float pct = (float)i / _scaleLength;
 8026              		.loc 1 180 5 is_stmt 1 view .LVU1575
 8027              	.LVL411:
 180:PSP/PlantConditioner.cpp ****         float pct = (float)i / _scaleLength;
 8028              		.loc 1 180 23 view .LVU1576
 180:PSP/PlantConditioner.cpp ****         float pct = (float)i / _scaleLength;
 8029              		.loc 1 180 26 is_stmt 0 view .LVU1577
 8030 004a 94F85133 		ldrb	r3, [r4, #849]	@ zero_extendqisi2
 180:PSP/PlantConditioner.cpp ****         float pct = (float)i / _scaleLength;
 8031              		.loc 1 180 23 view .LVU1578
 8032 004e AB42     		cmp	r3, r5
 8033 0050 E4DA     		bge	.L85
 8034              	.LBE2669:
 8035              	.LBE2673:
 170:PSP/PlantConditioner.cpp **** 
 8036              		.loc 1 170 1 view .LVU1579
 8037 0052 BDEC028B 		vldm	sp!, {d8}
 8038              		.cfi_restore 80
 8039              		.cfi_restore 81
 8040              		.cfi_def_cfa_offset 16
 8041 0056 70BD     		pop	{r4, r5, r6, pc}
 170:PSP/PlantConditioner.cpp **** 
 8042              		.loc 1 170 1 view .LVU1580
 8043              		.cfi_endproc
ARM GAS  C:\Users\skipi\AppData\Local\Temp\ccUZkxb5.s 			page 176


 8044              	.LFE5082:
 8046              		.section	.text._ZN16PlantConditioner8setDeltaEf,"ax",%progbits
 8047              		.align	1
 8048              		.p2align 2,,3
 8049              		.global	_ZN16PlantConditioner8setDeltaEf
 8050              		.syntax unified
 8051              		.thumb
 8052              		.thumb_func
 8053              		.fpu fpv5-d16
 8055              	_ZN16PlantConditioner8setDeltaEf:
 8056              	.LVL412:
 8057              	.LFB5083:
 172:PSP/PlantConditioner.cpp ****     if (delta_max <= _deltaMin) delta_max = _deltaMin + 1.0f;
 8058              		.loc 1 172 50 is_stmt 1 view -0
 8059              		.cfi_startproc
 8060              		@ args = 0, pretend = 0, frame = 0
 8061              		@ frame_needed = 0, uses_anonymous_args = 0
 173:PSP/PlantConditioner.cpp ****     _deltaMax = delta_max;
 8062              		.loc 1 173 5 view .LVU1582
 172:PSP/PlantConditioner.cpp ****     if (delta_max <= _deltaMin) delta_max = _deltaMin + 1.0f;
 8063              		.loc 1 172 50 is_stmt 0 view .LVU1583
 8064 0000 70B5     		push	{r4, r5, r6, lr}
 8065              		.cfi_def_cfa_offset 16
 8066              		.cfi_offset 4, -16
 8067              		.cfi_offset 5, -12
 8068              		.cfi_offset 6, -8
 8069              		.cfi_offset 14, -4
 8070 0002 2DED028B 		vpush.64	{d8}
 8071              		.cfi_def_cfa_offset 24
 8072              		.cfi_offset 80, -24
 8073              		.cfi_offset 81, -20
 173:PSP/PlantConditioner.cpp ****     _deltaMax = delta_max;
 8074              		.loc 1 173 22 view .LVU1584
 8075 0006 90EDD58A 		vldr.32	s16, [r0, #852]
 172:PSP/PlantConditioner.cpp ****     if (delta_max <= _deltaMin) delta_max = _deltaMin + 1.0f;
 8076              		.loc 1 172 50 view .LVU1585
 8077 000a 0446     		mov	r4, r0
 173:PSP/PlantConditioner.cpp ****     _deltaMax = delta_max;
 8078              		.loc 1 173 5 view .LVU1586
 8079 000c B4EEC08A 		vcmpe.f32	s16, s0
 8080 0010 F1EE10FA 		vmrs	APSR_nzcv, FPSCR
 8081 0014 03DB     		blt	.L87
 173:PSP/PlantConditioner.cpp ****     _deltaMax = delta_max;
 8082              		.loc 1 173 33 is_stmt 1 discriminator 1 view .LVU1587
 173:PSP/PlantConditioner.cpp ****     _deltaMax = delta_max;
 8083              		.loc 1 173 43 is_stmt 0 discriminator 1 view .LVU1588
 8084 0016 B7EE000A 		vmov.f32	s0, #1.0e+0
 8085              	.LVL413:
 173:PSP/PlantConditioner.cpp ****     _deltaMax = delta_max;
 8086              		.loc 1 173 43 discriminator 1 view .LVU1589
 8087 001a 38EE000A 		vadd.f32	s0, s16, s0
 8088              	.LVL414:
 8089              	.L87:
 174:PSP/PlantConditioner.cpp ****     _range = _deltaMax - _deltaMin;
 8090              		.loc 1 174 5 is_stmt 1 view .LVU1590
 175:PSP/PlantConditioner.cpp ****     updateThresholds();
 8091              		.loc 1 175 24 is_stmt 0 view .LVU1591
ARM GAS  C:\Users\skipi\AppData\Local\Temp\ccUZkxb5.s 			page 177


 8092 001e 70EE488A 		vsub.f32	s17, s0, s16
 8093              	.LBB2678:
 8094              	.LBB2679:
 180:PSP/PlantConditioner.cpp ****         float pct = (float)i / _scaleLength;
 8095              		.loc 1 180 26 view .LVU1592
 8096 0022 94F85133 		ldrb	r3, [r4, #849]	@ zero_extendqisi2
 8097 0026 04F55A76 		add	r6, r4, #872
 180:PSP/PlantConditioner.cpp ****         float pct = (float)i / _scaleLength;
 8098              		.loc 1 180 14 view .LVU1593
 8099 002a 0025     		movs	r5, #0
 8100              	.LBE2679:
 8101              	.LBE2678:
 174:PSP/PlantConditioner.cpp ****     _range = _deltaMax - _deltaMin;
 8102              		.loc 1 174 15 view .LVU1594
 8103 002c 84EDD60A 		vstr.32	s0, [r4, #856]
 175:PSP/PlantConditioner.cpp ****     updateThresholds();
 8104              		.loc 1 175 5 is_stmt 1 view .LVU1595
 175:PSP/PlantConditioner.cpp ****     updateThresholds();
 8105              		.loc 1 175 12 is_stmt 0 view .LVU1596
 8106 0030 C4EDD78A 		vstr.32	s17, [r4, #860]
 176:PSP/PlantConditioner.cpp **** }
 8107              		.loc 1 176 5 is_stmt 1 view .LVU1597
 8108              	.LVL415:
 8109              	.LBB2683:
 8110              	.LBI2678:
 179:PSP/PlantConditioner.cpp ****     for (int i = 0; i <= _scaleLength; i++) {
 8111              		.loc 1 179 6 view .LVU1598
 8112              	.LBE2683:
 180:PSP/PlantConditioner.cpp ****         float pct = (float)i / _scaleLength;
 8113              		.loc 1 180 5 view .LVU1599
 8114              	.LBB2684:
 8115              	.LBB2682:
 180:PSP/PlantConditioner.cpp ****         float pct = (float)i / _scaleLength;
 8116              		.loc 1 180 23 view .LVU1600
 8117 0034 03E0     		b	.L90
 8118              	.LVL416:
 8119              	.L93:
 8120              	.LBB2680:
 8121              		.loc 1 182 30 is_stmt 0 view .LVU1601
 8122 0036 94EDD58A 		vldr.32	s16, [r4, #852]
 8123              		.loc 1 182 42 view .LVU1602
 8124 003a D4EDD78A 		vldr.32	s17, [r4, #860]
 8125              	.LVL417:
 8126              	.L90:
 181:PSP/PlantConditioner.cpp ****         _noteThresholds[i] = _deltaMin + _range * powf(pct, _curveType);
 8127              		.loc 1 181 9 is_stmt 1 view .LVU1603
 8128              		.loc 1 182 9 view .LVU1604
 181:PSP/PlantConditioner.cpp ****         _noteThresholds[i] = _deltaMin + _range * powf(pct, _curveType);
 8129              		.loc 1 181 30 is_stmt 0 view .LVU1605
 8130 003e 07EE903A 		vmov	s15, r3	@ int
 181:PSP/PlantConditioner.cpp ****         _noteThresholds[i] = _deltaMin + _range * powf(pct, _curveType);
 8131              		.loc 1 181 21 view .LVU1606
 8132 0042 07EE105A 		vmov	s14, r5	@ int
 8133              		.loc 1 182 55 view .LVU1607
 8134 0046 D4EDD30A 		vldr.32	s1, [r4, #844]
 8135              	.LBE2680:
 180:PSP/PlantConditioner.cpp ****         float pct = (float)i / _scaleLength;
ARM GAS  C:\Users\skipi\AppData\Local\Temp\ccUZkxb5.s 			page 178


 8136              		.loc 1 180 5 view .LVU1608
 8137 004a 0135     		adds	r5, r5, #1
 8138              	.LVL418:
 8139              	.LBB2681:
 181:PSP/PlantConditioner.cpp ****         _noteThresholds[i] = _deltaMin + _range * powf(pct, _curveType);
 8140              		.loc 1 181 30 view .LVU1609
 8141 004c F8EEE77A 		vcvt.f32.s32	s15, s15
 181:PSP/PlantConditioner.cpp ****         _noteThresholds[i] = _deltaMin + _range * powf(pct, _curveType);
 8142              		.loc 1 181 21 view .LVU1610
 8143 0050 B8EEC70A 		vcvt.f32.s32	s0, s14
 8144              		.loc 1 182 55 view .LVU1611
 8145 0054 80EE270A 		vdiv.f32	s0, s0, s15
 8146              	.LVL419:
 8147              		.loc 1 182 55 view .LVU1612
 8148 0058 FFF7FEFF 		bl	powf
 8149              	.LVL420:
 8150              		.loc 1 182 40 view .LVU1613
 8151 005c A0EE288A 		vfma.f32	s16, s0, s17
 8152              		.loc 1 182 28 view .LVU1614
 8153 0060 A6EC018A 		vstmia.32	r6!, {s16}
 8154              	.LBE2681:
 180:PSP/PlantConditioner.cpp ****         float pct = (float)i / _scaleLength;
 8155              		.loc 1 180 5 is_stmt 1 view .LVU1615
 8156              	.LVL421:
 180:PSP/PlantConditioner.cpp ****         float pct = (float)i / _scaleLength;
 8157              		.loc 1 180 23 view .LVU1616
 180:PSP/PlantConditioner.cpp ****         float pct = (float)i / _scaleLength;
 8158              		.loc 1 180 26 is_stmt 0 view .LVU1617
 8159 0064 94F85133 		ldrb	r3, [r4, #849]	@ zero_extendqisi2
 180:PSP/PlantConditioner.cpp ****         float pct = (float)i / _scaleLength;
 8160              		.loc 1 180 23 view .LVU1618
 8161 0068 AB42     		cmp	r3, r5
 8162 006a E4DA     		bge	.L93
 8163              	.LBE2682:
 8164              	.LBE2684:
 177:PSP/PlantConditioner.cpp **** 
 8165              		.loc 1 177 1 view .LVU1619
 8166 006c BDEC028B 		vldm	sp!, {d8}
 8167              		.cfi_restore 80
 8168              		.cfi_restore 81
 8169              		.cfi_def_cfa_offset 16
 8170 0070 70BD     		pop	{r4, r5, r6, pc}
 177:PSP/PlantConditioner.cpp **** 
 8171              		.loc 1 177 1 view .LVU1620
 8172              		.cfi_endproc
 8173              	.LFE5083:
 8175 0072 00BF     		.section	.text._ZN16PlantConditioner16updateThresholdsEv,"ax",%progbits
 8176              		.align	1
 8177              		.p2align 2,,3
 8178              		.global	_ZN16PlantConditioner16updateThresholdsEv
 8179              		.syntax unified
 8180              		.thumb
 8181              		.thumb_func
 8182              		.fpu fpv5-d16
 8184              	_ZN16PlantConditioner16updateThresholdsEv:
 8185              	.LVL422:
 8186              	.LFB5084:
ARM GAS  C:\Users\skipi\AppData\Local\Temp\ccUZkxb5.s 			page 179


 179:PSP/PlantConditioner.cpp ****     for (int i = 0; i <= _scaleLength; i++) {
 8187              		.loc 1 179 43 is_stmt 1 view -0
 8188              		.cfi_startproc
 8189              		@ args = 0, pretend = 0, frame = 0
 8190              		@ frame_needed = 0, uses_anonymous_args = 0
 180:PSP/PlantConditioner.cpp ****         float pct = (float)i / _scaleLength;
 8191              		.loc 1 180 5 view .LVU1622
 8192              	.LBB2687:
 180:PSP/PlantConditioner.cpp ****         float pct = (float)i / _scaleLength;
 8193              		.loc 1 180 23 view .LVU1623
 8194              	.LBE2687:
 179:PSP/PlantConditioner.cpp ****     for (int i = 0; i <= _scaleLength; i++) {
 8195              		.loc 1 179 43 is_stmt 0 view .LVU1624
 8196 0000 70B5     		push	{r4, r5, r6, lr}
 8197              		.cfi_def_cfa_offset 16
 8198              		.cfi_offset 4, -16
 8199              		.cfi_offset 5, -12
 8200              		.cfi_offset 6, -8
 8201              		.cfi_offset 14, -4
 8202              	.LBB2690:
 180:PSP/PlantConditioner.cpp ****         float pct = (float)i / _scaleLength;
 8203              		.loc 1 180 26 view .LVU1625
 8204 0002 90F85133 		ldrb	r3, [r0, #849]	@ zero_extendqisi2
 180:PSP/PlantConditioner.cpp ****         float pct = (float)i / _scaleLength;
 8205              		.loc 1 180 14 view .LVU1626
 8206 0006 0025     		movs	r5, #0
 8207              	.LBE2690:
 179:PSP/PlantConditioner.cpp ****     for (int i = 0; i <= _scaleLength; i++) {
 8208              		.loc 1 179 43 view .LVU1627
 8209 0008 0446     		mov	r4, r0
 8210 000a 00F55A76 		add	r6, r0, #872
 8211 000e 2DED028B 		vpush.64	{d8}
 8212              		.cfi_def_cfa_offset 24
 8213              		.cfi_offset 80, -24
 8214              		.cfi_offset 81, -20
 8215              	.LVL423:
 8216              	.L95:
 8217              	.LBB2691:
 8218              	.LBB2688:
 181:PSP/PlantConditioner.cpp ****         _noteThresholds[i] = _deltaMin + _range * powf(pct, _curveType);
 8219              		.loc 1 181 9 is_stmt 1 discriminator 2 view .LVU1628
 8220              		.loc 1 182 9 discriminator 2 view .LVU1629
 181:PSP/PlantConditioner.cpp ****         _noteThresholds[i] = _deltaMin + _range * powf(pct, _curveType);
 8221              		.loc 1 181 30 is_stmt 0 discriminator 2 view .LVU1630
 8222 0012 07EE903A 		vmov	s15, r3	@ int
 181:PSP/PlantConditioner.cpp ****         _noteThresholds[i] = _deltaMin + _range * powf(pct, _curveType);
 8223              		.loc 1 181 21 discriminator 2 view .LVU1631
 8224 0016 07EE105A 		vmov	s14, r5	@ int
 8225              		.loc 1 182 30 discriminator 2 view .LVU1632
 8226 001a 94EDD58A 		vldr.32	s16, [r4, #852]
 8227              	.LBE2688:
 180:PSP/PlantConditioner.cpp ****         float pct = (float)i / _scaleLength;
 8228              		.loc 1 180 5 discriminator 2 view .LVU1633
 8229 001e 0135     		adds	r5, r5, #1
 8230              	.LVL424:
 8231              	.LBB2689:
 181:PSP/PlantConditioner.cpp ****         _noteThresholds[i] = _deltaMin + _range * powf(pct, _curveType);
ARM GAS  C:\Users\skipi\AppData\Local\Temp\ccUZkxb5.s 			page 180


 8232              		.loc 1 181 30 discriminator 2 view .LVU1634
 8233 0020 F8EEE77A 		vcvt.f32.s32	s15, s15
 8234              		.loc 1 182 42 discriminator 2 view .LVU1635
 8235 0024 D4EDD78A 		vldr.32	s17, [r4, #860]
 181:PSP/PlantConditioner.cpp ****         _noteThresholds[i] = _deltaMin + _range * powf(pct, _curveType);
 8236              		.loc 1 181 21 discriminator 2 view .LVU1636
 8237 0028 B8EEC70A 		vcvt.f32.s32	s0, s14
 8238              		.loc 1 182 55 discriminator 2 view .LVU1637
 8239 002c D4EDD30A 		vldr.32	s1, [r4, #844]
 8240 0030 80EE270A 		vdiv.f32	s0, s0, s15
 8241              	.LVL425:
 8242              		.loc 1 182 55 discriminator 2 view .LVU1638
 8243 0034 FFF7FEFF 		bl	powf
 8244              	.LVL426:
 8245              		.loc 1 182 40 discriminator 2 view .LVU1639
 8246 0038 A8EE808A 		vfma.f32	s16, s17, s0
 8247              		.loc 1 182 28 discriminator 2 view .LVU1640
 8248 003c A6EC018A 		vstmia.32	r6!, {s16}
 8249              	.LBE2689:
 180:PSP/PlantConditioner.cpp ****         float pct = (float)i / _scaleLength;
 8250              		.loc 1 180 5 is_stmt 1 discriminator 2 view .LVU1641
 8251              	.LVL427:
 180:PSP/PlantConditioner.cpp ****         float pct = (float)i / _scaleLength;
 8252              		.loc 1 180 23 discriminator 2 view .LVU1642
 180:PSP/PlantConditioner.cpp ****         float pct = (float)i / _scaleLength;
 8253              		.loc 1 180 26 is_stmt 0 discriminator 2 view .LVU1643
 8254 0040 94F85133 		ldrb	r3, [r4, #849]	@ zero_extendqisi2
 180:PSP/PlantConditioner.cpp ****         float pct = (float)i / _scaleLength;
 8255              		.loc 1 180 23 discriminator 2 view .LVU1644
 8256 0044 AB42     		cmp	r3, r5
 8257 0046 E4DA     		bge	.L95
 8258              	.LBE2691:
 183:PSP/PlantConditioner.cpp ****     }
 184:PSP/PlantConditioner.cpp **** }
 8259              		.loc 1 184 1 view .LVU1645
 8260 0048 BDEC028B 		vldm	sp!, {d8}
 8261              		.cfi_restore 80
 8262              		.cfi_restore 81
 8263              		.cfi_def_cfa_offset 16
 8264 004c 70BD     		pop	{r4, r5, r6, pc}
 8265              		.loc 1 184 1 view .LVU1646
 8266              		.cfi_endproc
 8267              	.LFE5084:
 8269 004e 00BF     		.section	.text._ZN16PlantConditioner13setHisteresisEf,"ax",%progbits
 8270              		.align	1
 8271              		.p2align 2,,3
 8272              		.global	_ZN16PlantConditioner13setHisteresisEf
 8273              		.syntax unified
 8274              		.thumb
 8275              		.thumb_func
 8276              		.fpu fpv5-d16
 8278              	_ZN16PlantConditioner13setHisteresisEf:
 8279              	.LVL428:
 8280              	.LFB5085:
 185:PSP/PlantConditioner.cpp **** 
 186:PSP/PlantConditioner.cpp **** void PlantConditioner::setHisteresis(float histeresis) {
 8281              		.loc 1 186 56 is_stmt 1 view -0
ARM GAS  C:\Users\skipi\AppData\Local\Temp\ccUZkxb5.s 			page 181


 8282              		.cfi_startproc
 8283              		@ args = 0, pretend = 0, frame = 0
 8284              		@ frame_needed = 0, uses_anonymous_args = 0
 187:PSP/PlantConditioner.cpp ****     _histeresis = histeresis; updateThresholds(); 
 8285              		.loc 1 187 5 view .LVU1648
 186:PSP/PlantConditioner.cpp ****     _histeresis = histeresis; updateThresholds(); 
 8286              		.loc 1 186 56 is_stmt 0 view .LVU1649
 8287 0000 70B5     		push	{r4, r5, r6, lr}
 8288              		.cfi_def_cfa_offset 16
 8289              		.cfi_offset 4, -16
 8290              		.cfi_offset 5, -12
 8291              		.cfi_offset 6, -8
 8292              		.cfi_offset 14, -4
 8293              	.LBB2696:
 8294              	.LBB2697:
 180:PSP/PlantConditioner.cpp ****         float pct = (float)i / _scaleLength;
 8295              		.loc 1 180 26 view .LVU1650
 8296 0002 90F85133 		ldrb	r3, [r0, #849]	@ zero_extendqisi2
 180:PSP/PlantConditioner.cpp ****         float pct = (float)i / _scaleLength;
 8297              		.loc 1 180 14 view .LVU1651
 8298 0006 0025     		movs	r5, #0
 8299              	.LBE2697:
 8300              	.LBE2696:
 186:PSP/PlantConditioner.cpp ****     _histeresis = histeresis; updateThresholds(); 
 8301              		.loc 1 186 56 view .LVU1652
 8302 0008 0446     		mov	r4, r0
 8303 000a 00F55A76 		add	r6, r0, #872
 8304              		.loc 1 187 17 view .LVU1653
 8305 000e 80EDD20A 		vstr.32	s0, [r0, #840]
 8306              		.loc 1 187 31 is_stmt 1 view .LVU1654
 8307              	.LVL429:
 8308              	.LBB2702:
 8309              	.LBI2696:
 179:PSP/PlantConditioner.cpp ****     for (int i = 0; i <= _scaleLength; i++) {
 8310              		.loc 1 179 6 view .LVU1655
 8311              	.LBB2700:
 180:PSP/PlantConditioner.cpp ****         float pct = (float)i / _scaleLength;
 8312              		.loc 1 180 23 view .LVU1656
 8313              	.LBE2700:
 8314              	.LBE2702:
 186:PSP/PlantConditioner.cpp ****     _histeresis = histeresis; updateThresholds(); 
 8315              		.loc 1 186 56 is_stmt 0 view .LVU1657
 8316 0012 2DED028B 		vpush.64	{d8}
 8317              		.cfi_def_cfa_offset 24
 8318              		.cfi_offset 80, -24
 8319              		.cfi_offset 81, -20
 8320              	.LVL430:
 8321              	.L99:
 8322              	.LBB2703:
 8323              	.LBB2701:
 8324              	.LBB2698:
 181:PSP/PlantConditioner.cpp ****         _noteThresholds[i] = _deltaMin + _range * powf(pct, _curveType);
 8325              		.loc 1 181 9 is_stmt 1 view .LVU1658
 182:PSP/PlantConditioner.cpp ****     }
 8326              		.loc 1 182 9 view .LVU1659
 181:PSP/PlantConditioner.cpp ****         _noteThresholds[i] = _deltaMin + _range * powf(pct, _curveType);
 8327              		.loc 1 181 30 is_stmt 0 view .LVU1660
ARM GAS  C:\Users\skipi\AppData\Local\Temp\ccUZkxb5.s 			page 182


 8328 0016 07EE903A 		vmov	s15, r3	@ int
 181:PSP/PlantConditioner.cpp ****         _noteThresholds[i] = _deltaMin + _range * powf(pct, _curveType);
 8329              		.loc 1 181 21 view .LVU1661
 8330 001a 07EE105A 		vmov	s14, r5	@ int
 182:PSP/PlantConditioner.cpp ****     }
 8331              		.loc 1 182 30 view .LVU1662
 8332 001e 94EDD58A 		vldr.32	s16, [r4, #852]
 8333              	.LBE2698:
 180:PSP/PlantConditioner.cpp ****         float pct = (float)i / _scaleLength;
 8334              		.loc 1 180 5 view .LVU1663
 8335 0022 0135     		adds	r5, r5, #1
 8336              	.LVL431:
 8337              	.LBB2699:
 181:PSP/PlantConditioner.cpp ****         _noteThresholds[i] = _deltaMin + _range * powf(pct, _curveType);
 8338              		.loc 1 181 30 view .LVU1664
 8339 0024 F8EEE77A 		vcvt.f32.s32	s15, s15
 182:PSP/PlantConditioner.cpp ****     }
 8340              		.loc 1 182 42 view .LVU1665
 8341 0028 D4EDD78A 		vldr.32	s17, [r4, #860]
 181:PSP/PlantConditioner.cpp ****         _noteThresholds[i] = _deltaMin + _range * powf(pct, _curveType);
 8342              		.loc 1 181 21 view .LVU1666
 8343 002c B8EEC70A 		vcvt.f32.s32	s0, s14
 182:PSP/PlantConditioner.cpp ****     }
 8344              		.loc 1 182 55 view .LVU1667
 8345 0030 D4EDD30A 		vldr.32	s1, [r4, #844]
 8346 0034 80EE270A 		vdiv.f32	s0, s0, s15
 8347              	.LVL432:
 182:PSP/PlantConditioner.cpp ****     }
 8348              		.loc 1 182 55 view .LVU1668
 8349 0038 FFF7FEFF 		bl	powf
 8350              	.LVL433:
 182:PSP/PlantConditioner.cpp ****     }
 8351              		.loc 1 182 40 view .LVU1669
 8352 003c A8EE808A 		vfma.f32	s16, s17, s0
 182:PSP/PlantConditioner.cpp ****     }
 8353              		.loc 1 182 28 view .LVU1670
 8354 0040 A6EC018A 		vstmia.32	r6!, {s16}
 8355              	.LBE2699:
 180:PSP/PlantConditioner.cpp ****         float pct = (float)i / _scaleLength;
 8356              		.loc 1 180 5 is_stmt 1 view .LVU1671
 8357              	.LVL434:
 180:PSP/PlantConditioner.cpp ****         float pct = (float)i / _scaleLength;
 8358              		.loc 1 180 23 view .LVU1672
 180:PSP/PlantConditioner.cpp ****         float pct = (float)i / _scaleLength;
 8359              		.loc 1 180 26 is_stmt 0 view .LVU1673
 8360 0044 94F85133 		ldrb	r3, [r4, #849]	@ zero_extendqisi2
 180:PSP/PlantConditioner.cpp ****         float pct = (float)i / _scaleLength;
 8361              		.loc 1 180 23 view .LVU1674
 8362 0048 AB42     		cmp	r3, r5
 8363 004a E4DA     		bge	.L99
 8364              	.LBE2701:
 8365              	.LBE2703:
 188:PSP/PlantConditioner.cpp **** }
 8366              		.loc 1 188 1 view .LVU1675
 8367 004c BDEC028B 		vldm	sp!, {d8}
 8368              		.cfi_restore 80
 8369              		.cfi_restore 81
ARM GAS  C:\Users\skipi\AppData\Local\Temp\ccUZkxb5.s 			page 183


 8370              		.cfi_def_cfa_offset 16
 8371 0050 70BD     		pop	{r4, r5, r6, pc}
 8372              		.loc 1 188 1 view .LVU1676
 8373              		.cfi_endproc
 8374              	.LFE5085:
 8376 0052 00BF     		.section	.rodata
 8377              		.align	2
 8378              		.set	.LANCHOR0,. + 0
 8379              	.LC0:
 8380 0000 CDCC8241 		.word	1099091149
 8381 0004 CDCC9241 		.word	1100139725
 8382 0008 CDCCA441 		.word	1101319373
 8383 000c D7A3AE41 		.word	1101964247
 8384 0010 0000C441 		.word	1103364096
 8385 0014 0000DC41 		.word	1104936960
 8386 0018 C3F5F641 		.word	1106703811
 8387              	.LC1:
 8388 001c CDCC8241 		.word	1099091149
 8389 0020 CDCC9241 		.word	1100139725
 8390 0024 9A999B41 		.word	1100716442
 8391 0028 D7A3AE41 		.word	1101964247
 8392 002c 0000C441 		.word	1103364096
 8393 0030 14AECF41 		.word	1104129556
 8394 0034 B81EE941 		.word	1105796792
 8395              	.LC2:
 8396 0038 CDCC8241 		.word	1099091149
 8397 003c CDCC9241 		.word	1100139725
 8398 0040 9A999B41 		.word	1100716442
 8399 0044 D7A3AE41 		.word	1101964247
 8400 0048 0000C441 		.word	1103364096
 8401 004c 14AECF41 		.word	1104129556
 8402 0050 C3F5F641 		.word	1106703811
 8403              	.LC3:
 8404 0054 CDCC8241 		.word	1099091149
 8405 0058 CDCC9241 		.word	1100139725
 8406 005c 9A999B41 		.word	1100716442
 8407 0060 D7A3AE41 		.word	1101964247
 8408 0064 C3F5B841 		.word	1102640579
 8409 0068 0000DC41 		.word	1104936960
 8410 006c C3F5F641 		.word	1106703811
 8411              	.LC4:
 8412 0070 CDCC8241 		.word	1099091149
 8413 0074 CDCC9241 		.word	1100139725
 8414 0078 D7A3AE41 		.word	1101964247
 8415 007c 0000C441 		.word	1103364096
 8416 0080 0000DC41 		.word	1104936960
 8417              	.LC5:
 8418 0084 CDCC8241 		.word	1099091149
 8419 0088 5C8F8A41 		.word	1099599708
 8420 008c CDCC9241 		.word	1100139725
 8421 0090 9A999B41 		.word	1100716442
 8422 0094 CDCCA441 		.word	1101319373
 8423 0098 D7A3AE41 		.word	1101964247
 8424 009c C3F5B841 		.word	1102640579
 8425 00a0 0000C441 		.word	1103364096
 8426 00a4 14AECF41 		.word	1104129556
 8427 00a8 0000DC41 		.word	1104936960
ARM GAS  C:\Users\skipi\AppData\Local\Temp\ccUZkxb5.s 			page 184


 8428 00ac B81EE941 		.word	1105796792
 8429 00b0 C3F5F641 		.word	1106703811
 8430              	.LC6:
 8431 00b4 CDCC8241 		.word	1099091149
 8432 00b8 CDCC9241 		.word	1100139725
 8433 00bc CDCCA441 		.word	1101319373
 8434 00c0 D7A3AE41 		.word	1101964247
 8435 00c4 0000C441 		.word	1103364096
 8436 00c8 0000DC41 		.word	1104936960
 8437              		.text
 8438              	.Letext0:
 8439              		.file 6 "c:\\program files\\daisytoolchain\\arm-none-eabi\\include\\machine\\_default_types.h"
 8440              		.file 7 "c:\\program files\\daisytoolchain\\arm-none-eabi\\include\\sys\\_stdint.h"
 8441              		.file 8 "c:\\program files\\daisytoolchain\\arm-none-eabi\\include\\stdint.h"
 8442              		.file 9 "c:\\program files\\daisytoolchain\\lib\\gcc\\arm-none-eabi\\10.2.1\\include\\stddef.h"
 8443              		.file 10 "c:\\program files\\daisytoolchain\\arm-none-eabi\\include\\c++\\10.2.1\\cmath"
 8444              		.file 11 "c:\\program files\\daisytoolchain\\arm-none-eabi\\include\\c++\\10.2.1\\bits\\std_abs.h"
 8445              		.file 12 "c:\\program files\\daisytoolchain\\arm-none-eabi\\include\\c++\\10.2.1\\cstdint"
 8446              		.file 13 "c:\\program files\\daisytoolchain\\arm-none-eabi\\include\\c++\\10.2.1\\cstdlib"
 8447              		.file 14 "c:\\program files\\daisytoolchain\\arm-none-eabi\\include\\c++\\10.2.1\\type_traits"
 8448              		.file 15 "c:\\program files\\daisytoolchain\\arm-none-eabi\\include\\c++\\10.2.1\\debug\\debug.h"
 8449              		.file 16 "c:\\program files\\daisytoolchain\\arm-none-eabi\\include\\c++\\10.2.1\\cwchar"
 8450              		.file 17 "c:\\program files\\daisytoolchain\\arm-none-eabi\\include\\c++\\10.2.1\\bits\\stl_pair.h
 8451              		.file 18 "c:\\program files\\daisytoolchain\\arm-none-eabi\\include\\c++\\10.2.1\\bits\\exception_
 8452              		.file 19 "c:\\program files\\daisytoolchain\\arm-none-eabi\\include\\c++\\10.2.1\\arm-none-eabi\\t
 8453              		.file 20 "c:\\program files\\daisytoolchain\\arm-none-eabi\\include\\c++\\10.2.1\\clocale"
 8454              		.file 21 "c:\\program files\\daisytoolchain\\arm-none-eabi\\include\\c++\\10.2.1\\cstdio"
 8455              		.file 22 "c:\\program files\\daisytoolchain\\arm-none-eabi\\include\\c++\\10.2.1\\bits\\basic_stri
 8456              		.file 23 "c:\\program files\\daisytoolchain\\arm-none-eabi\\include\\c++\\10.2.1\\bits\\charconv.h
 8457              		.file 24 "c:\\program files\\daisytoolchain\\arm-none-eabi\\include\\c++\\10.2.1\\bits\\algorithmf
 8458              		.file 25 "c:\\program files\\daisytoolchain\\arm-none-eabi\\include\\c++\\10.2.1\\cstring"
 8459              		.file 26 "c:\\program files\\daisytoolchain\\arm-none-eabi\\include\\c++\\10.2.1\\cstdarg"
 8460              		.file 27 "c:\\program files\\daisytoolchain\\arm-none-eabi\\include\\c++\\10.2.1\\cstddef"
 8461              		.file 28 "c:\\program files\\daisytoolchain\\arm-none-eabi\\include\\c++\\10.2.1\\bits\\predefined
 8462              		.file 29 "c:\\program files\\daisytoolchain\\arm-none-eabi\\include\\sys\\_types.h"
 8463              		.file 30 "c:\\program files\\daisytoolchain\\arm-none-eabi\\include\\sys\\reent.h"
 8464              		.file 31 "c:\\program files\\daisytoolchain\\arm-none-eabi\\include\\sys\\lock.h"
 8465              		.file 32 "c:\\program files\\daisytoolchain\\arm-none-eabi\\include\\math.h"
 8466              		.file 33 "c:\\program files\\daisytoolchain\\arm-none-eabi\\include\\stdlib.h"
 8467              		.file 34 "c:\\program files\\daisytoolchain\\arm-none-eabi\\include\\c++\\10.2.1\\math.h"
 8468              		.file 35 "PSP/../../libs/PoliTeKDSP/Utilities/DataFilter/IIR/iir.h"
 8469              		.file 36 "../libs/PoliTeKDSP/libs/DaisySP/Source/Control/adenv.h"
 8470              		.file 37 "c:\\program files\\daisytoolchain\\lib\\gcc\\arm-none-eabi\\10.2.1\\include\\stdarg.h"
 8471              		.file 38 "c:\\program files\\daisytoolchain\\arm-none-eabi\\include\\wchar.h"
 8472              		.file 39 "c:\\program files\\daisytoolchain\\arm-none-eabi\\include\\locale.h"
 8473              		.file 40 "c:\\program files\\daisytoolchain\\arm-none-eabi\\include\\stdio.h"
 8474              		.file 41 "c:\\program files\\daisytoolchain\\arm-none-eabi\\include\\c++\\10.2.1\\stdlib.h"
 8475              		.file 42 "c:\\program files\\daisytoolchain\\arm-none-eabi\\include\\string.h"
 8476              		.file 43 "../libs/PoliTeKDSP/libs/libDaisy/src/per/tim.h"
 8477              		.file 44 "../libs/PoliTeKDSP/libs/libDaisy/src/sys/system.h"
 8478              		.file 45 "../libs/PoliTeKDSP/libs/libDaisy/src/per/qspi.h"
 8479              		.file 46 "../libs/PoliTeKDSP/libs/libDaisy/src/per/dac.h"
 8480              		.file 47 "../libs/PoliTeKDSP/libs/libDaisy/src/per/gpio.h"
 8481              		.file 48 "../libs/PoliTeKDSP/libs/libDaisy/src/per/sai.h"
 8482              		.file 49 "../libs/PoliTeKDSP/libs/libDaisy/src/hid/audio.h"
 8483              		.file 50 "../libs/PoliTeKDSP/libs/libDaisy/src/per/adc.h"
 8484              		.file 51 "../libs/PoliTeKDSP/libs/libDaisy/src/hid/usb.h"
ARM GAS  C:\Users\skipi\AppData\Local\Temp\ccUZkxb5.s 			page 185


 8485              		.file 52 "../libs/PoliTeKDSP/libs/libDaisy/src/dev/codec_ak4556.h"
 8486              		.file 53 "../libs/PoliTeKDSP/libs/libDaisy/src/dev/max11300.h"
 8487              		.file 54 "../libs/PoliTeKDSP/libs/libDaisy/src/dev/sr_595.h"
 8488              		.file 55 "../libs/PoliTeKDSP/libs/libDaisy/src/util/wav_format.h"
 8489              		.file 56 "../libs/PoliTeKDSP/libs/libDaisy/src/daisy_seed.h"
 8490              		.file 57 "../libs/PoliTeKDSP/libs/libDaisy/src/dev/sdram.h"
 8491              		.file 58 "../libs/PoliTeKDSP/libs/libDaisy/Middlewares/Third_Party/FatFs/src/integer.h"
 8492              		.file 59 "../libs/PoliTeKDSP/libs/libDaisy/Middlewares/Third_Party/FatFs/src/ff.h"
 8493              		.file 60 "PSP/../../libs/PoliTeKDSP/Utilities/DataFilter/MF/MF.h"
 8494              		.file 61 "PSP/PlantConditioner.h"
 8495              		.file 62 "<built-in>"
ARM GAS  C:\Users\skipi\AppData\Local\Temp\ccUZkxb5.s 			page 186


DEFINED SYMBOLS
                            *ABS*:00000000 PlantConditioner.cpp
C:\Users\skipi\AppData\Local\Temp\ccUZkxb5.s:17     .text._ZN16PlantConditionerC2Ev:00000000 $t
C:\Users\skipi\AppData\Local\Temp\ccUZkxb5.s:26     .text._ZN16PlantConditionerC2Ev:00000000 _ZN16PlantConditionerC2Ev
C:\Users\skipi\AppData\Local\Temp\ccUZkxb5.s:422    .text._ZN16PlantConditionerC2Ev:00000168 $d
C:\Users\skipi\AppData\Local\Temp\ccUZkxb5.s:26     .text._ZN16PlantConditionerC2Ev:00000000 _ZN16PlantConditionerC1Ev
C:\Users\skipi\AppData\Local\Temp\ccUZkxb5.s:431    .text._ZN16PlantConditionerD2Ev:00000000 $t
C:\Users\skipi\AppData\Local\Temp\ccUZkxb5.s:439    .text._ZN16PlantConditionerD2Ev:00000000 _ZN16PlantConditionerD2Ev
C:\Users\skipi\AppData\Local\Temp\ccUZkxb5.s:439    .text._ZN16PlantConditionerD2Ev:00000000 _ZN16PlantConditionerD1Ev
C:\Users\skipi\AppData\Local\Temp\ccUZkxb5.s:492    .text._ZN16PlantConditioner4InitEN3IIR10FilterTypeEPN5daisy9DaisySeedE:00000000 $t
C:\Users\skipi\AppData\Local\Temp\ccUZkxb5.s:500    .text._ZN16PlantConditioner4InitEN3IIR10FilterTypeEPN5daisy9DaisySeedE:00000000 _ZN16PlantConditioner4InitEN3IIR10FilterTypeEPN5daisy9DaisySeedE
C:\Users\skipi\AppData\Local\Temp\ccUZkxb5.s:6680   .text._ZN16PlantConditioner4InitEN3IIR10FilterTypeEPN5daisy9DaisySeedE:00000d2c $d
C:\Users\skipi\AppData\Local\Temp\ccUZkxb5.s:6685   .text._ZN16PlantConditioner9SetFilterEN3IIR10FilterTypeE:00000000 $t
C:\Users\skipi\AppData\Local\Temp\ccUZkxb5.s:6693   .text._ZN16PlantConditioner9SetFilterEN3IIR10FilterTypeE:00000000 _ZN16PlantConditioner9SetFilterEN3IIR10FilterTypeE
C:\Users\skipi\AppData\Local\Temp\ccUZkxb5.s:6710   .text._ZN16PlantConditioner8setScaleENS_5NotesENS_9ScaleTypeE:00000000 $t
C:\Users\skipi\AppData\Local\Temp\ccUZkxb5.s:6718   .text._ZN16PlantConditioner8setScaleENS_5NotesENS_9ScaleTypeE:00000000 _ZN16PlantConditioner8setScaleENS_5NotesENS_9ScaleTypeE
C:\Users\skipi\AppData\Local\Temp\ccUZkxb5.s:6743   .text._ZN16PlantConditioner8setScaleENS_5NotesENS_9ScaleTypeE:00000014 $d
C:\Users\skipi\AppData\Local\Temp\ccUZkxb5.s:6750   .text._ZN16PlantConditioner8setScaleENS_5NotesENS_9ScaleTypeE:00000022 $t
C:\Users\skipi\AppData\Local\Temp\ccUZkxb5.s:7156   .text._ZN16PlantConditioner9setOctaveEh:00000000 $t
C:\Users\skipi\AppData\Local\Temp\ccUZkxb5.s:7164   .text._ZN16PlantConditioner9setOctaveEh:00000000 _ZN16PlantConditioner9setOctaveEh
C:\Users\skipi\AppData\Local\Temp\ccUZkxb5.s:7186   .text._ZN16PlantConditioner7ProcessEv:00000000 $t
C:\Users\skipi\AppData\Local\Temp\ccUZkxb5.s:7194   .text._ZN16PlantConditioner7ProcessEv:00000000 _ZN16PlantConditioner7ProcessEv
C:\Users\skipi\AppData\Local\Temp\ccUZkxb5.s:7920   .text._ZN16PlantConditioner7ProcessEv:00000234 $d
C:\Users\skipi\AppData\Local\Temp\ccUZkxb5.s:7928   .text._ZN16PlantConditioner8setCurveEf:00000000 $t
C:\Users\skipi\AppData\Local\Temp\ccUZkxb5.s:7936   .text._ZN16PlantConditioner8setCurveEf:00000000 _ZN16PlantConditioner8setCurveEf
C:\Users\skipi\AppData\Local\Temp\ccUZkxb5.s:8047   .text._ZN16PlantConditioner8setDeltaEf:00000000 $t
C:\Users\skipi\AppData\Local\Temp\ccUZkxb5.s:8055   .text._ZN16PlantConditioner8setDeltaEf:00000000 _ZN16PlantConditioner8setDeltaEf
C:\Users\skipi\AppData\Local\Temp\ccUZkxb5.s:8176   .text._ZN16PlantConditioner16updateThresholdsEv:00000000 $t
C:\Users\skipi\AppData\Local\Temp\ccUZkxb5.s:8184   .text._ZN16PlantConditioner16updateThresholdsEv:00000000 _ZN16PlantConditioner16updateThresholdsEv
C:\Users\skipi\AppData\Local\Temp\ccUZkxb5.s:8270   .text._ZN16PlantConditioner13setHisteresisEf:00000000 $t
C:\Users\skipi\AppData\Local\Temp\ccUZkxb5.s:8278   .text._ZN16PlantConditioner13setHisteresisEf:00000000 _ZN16PlantConditioner13setHisteresisEf
C:\Users\skipi\AppData\Local\Temp\ccUZkxb5.s:8377   .rodata:00000000 $d

UNDEFINED SYMBOLS
_ZN3IIRC1Ev
_ZN2MFC1Ev
_ZN2MFD1Ev
_ZN3IIRD1Ev
_ZN5daisy9I2CHandle4InitERKNS0_6ConfigE
_ZN5daisy9I2CHandle17ReadDataAtAddressEtttPhtm
_ZN5daisy9I2CHandle18WriteDataAtAddressEtttPhtm
_ZN5daisy6System5DelayEm
_ZN5daisy9DaisySeed6SetLedEb
_ZN5daisy9DaisySeed7DelayMsEj
_ZN3IIR4InitENS_10FilterTypeE
_ZN2MF4InitEv
powf
_ZN2MF7ProcessEf
_ZN3IIR7ProcessEf
