ARM GAS  C:\Users\matte\AppData\Local\Temp\ccgZTizB.s 			page 1


   1              		.cpu cortex-m7
   2              		.eabi_attribute 28, 1
   3              		.eabi_attribute 20, 1
   4              		.eabi_attribute 21, 1
   5              		.eabi_attribute 23, 3
   6              		.eabi_attribute 24, 1
   7              		.eabi_attribute 25, 1
   8              		.eabi_attribute 26, 1
   9              		.eabi_attribute 30, 2
  10              		.eabi_attribute 34, 1
  11              		.eabi_attribute 18, 4
  12              		.file	"PlantConditioner.cpp"
  13              		.text
  14              	.Ltext0:
  15              		.cfi_sections	.debug_frame
  16              		.section	.text._ZN16PlantConditionerC2Ev,"ax",%progbits
  17              		.align	1
  18              		.p2align 2,,3
  19              		.global	_ZN16PlantConditionerC2Ev
  20              		.arch armv7e-m
  21              		.syntax unified
  22              		.thumb
  23              		.thumb_func
  24              		.fpu fpv5-d16
  26              	_ZN16PlantConditionerC2Ev:
  27              	.LVL0:
  28              	.LFB4985:
  29              		.file 1 "PSP/PlantConditioner.cpp"
   1:PSP/PlantConditioner.cpp **** #include "PlantConditioner.h"
   2:PSP/PlantConditioner.cpp **** 
   3:PSP/PlantConditioner.cpp **** 
   4:PSP/PlantConditioner.cpp **** using namespace daisysp;
   5:PSP/PlantConditioner.cpp **** 
   6:PSP/PlantConditioner.cpp **** PlantConditioner::PlantConditioner() {}
  30              		.loc 1 6 1 view -0
  31              		.cfi_startproc
  32              		@ args = 0, pretend = 0, frame = 24
  33              		@ frame_needed = 0, uses_anonymous_args = 0
  34              		.loc 1 6 1 is_stmt 0 view .LVU1
  35 0000 2DE9F04F 		push	{r4, r5, r6, r7, r8, r9, r10, fp, lr}
  36              		.cfi_def_cfa_offset 36
  37              		.cfi_offset 4, -36
  38              		.cfi_offset 5, -32
  39              		.cfi_offset 6, -28
  40              		.cfi_offset 7, -24
  41              		.cfi_offset 8, -20
  42              		.cfi_offset 9, -16
  43              		.cfi_offset 10, -12
  44              		.cfi_offset 11, -8
  45              		.cfi_offset 14, -4
  46              	.LBB202:
  47              	.LBB203:
  48              	.LBB204:
  49              	.LBB205:
  50              	.LBB206:
  51              		.file 2 "../libs/libDaisy/src/dev/mpr121.h"
   1:../libs/libDaisy/src/dev/mpr121.h **** #pragma once
ARM GAS  C:\Users\matte\AppData\Local\Temp\ccgZTizB.s 			page 2


   2:../libs/libDaisy/src/dev/mpr121.h **** #ifndef DSY_MPR121_H
   3:../libs/libDaisy/src/dev/mpr121.h **** #define DSY_MPR121_H
   4:../libs/libDaisy/src/dev/mpr121.h **** 
   5:../libs/libDaisy/src/dev/mpr121.h **** // The default I2C address
   6:../libs/libDaisy/src/dev/mpr121.h **** #define MPR121_I2CADDR_DEFAULT 0x5A        ///< default I2C address
   7:../libs/libDaisy/src/dev/mpr121.h **** #define MPR121_TOUCH_THRESHOLD_DEFAULT 12  ///< default touch threshold value
   8:../libs/libDaisy/src/dev/mpr121.h **** #define MPR121_RELEASE_THRESHOLD_DEFAULT 6 ///< default relese threshold value
   9:../libs/libDaisy/src/dev/mpr121.h **** 
  10:../libs/libDaisy/src/dev/mpr121.h **** namespace daisy
  11:../libs/libDaisy/src/dev/mpr121.h **** {
  12:../libs/libDaisy/src/dev/mpr121.h **** /** @addtogroup external 
  13:../libs/libDaisy/src/dev/mpr121.h ****     @{ 
  14:../libs/libDaisy/src/dev/mpr121.h **** */
  15:../libs/libDaisy/src/dev/mpr121.h **** 
  16:../libs/libDaisy/src/dev/mpr121.h **** /** I2C Transport for MPR121 */
  17:../libs/libDaisy/src/dev/mpr121.h **** class Mpr121I2CTransport
  18:../libs/libDaisy/src/dev/mpr121.h **** {
  19:../libs/libDaisy/src/dev/mpr121.h ****   public:
  20:../libs/libDaisy/src/dev/mpr121.h ****     Mpr121I2CTransport() {}
  21:../libs/libDaisy/src/dev/mpr121.h ****     ~Mpr121I2CTransport() {}
  22:../libs/libDaisy/src/dev/mpr121.h **** 
  23:../libs/libDaisy/src/dev/mpr121.h ****     struct Config
  24:../libs/libDaisy/src/dev/mpr121.h ****     {
  25:../libs/libDaisy/src/dev/mpr121.h ****         I2CHandle::Config::Peripheral periph;
  26:../libs/libDaisy/src/dev/mpr121.h ****         I2CHandle::Config::Speed      speed;
  27:../libs/libDaisy/src/dev/mpr121.h ****         Pin                           scl;
  28:../libs/libDaisy/src/dev/mpr121.h ****         Pin                           sda;
  29:../libs/libDaisy/src/dev/mpr121.h **** 
  30:../libs/libDaisy/src/dev/mpr121.h ****         I2CHandle::Config::Mode mode;
  31:../libs/libDaisy/src/dev/mpr121.h **** 
  32:../libs/libDaisy/src/dev/mpr121.h ****         uint8_t dev_addr;
  33:../libs/libDaisy/src/dev/mpr121.h **** 
  34:../libs/libDaisy/src/dev/mpr121.h ****         Config()
  35:../libs/libDaisy/src/dev/mpr121.h ****         {
  36:../libs/libDaisy/src/dev/mpr121.h ****             periph = I2CHandle::Config::Peripheral::I2C_1;
  37:../libs/libDaisy/src/dev/mpr121.h ****             speed  = I2CHandle::Config::Speed::I2C_400KHZ;
  52              		.loc 2 37 20 view .LVU2
  53 0004 0121     		movs	r1, #1
  36:../libs/libDaisy/src/dev/mpr121.h ****             speed  = I2CHandle::Config::Speed::I2C_400KHZ;
  54              		.loc 2 36 20 view .LVU3
  55 0006 0024     		movs	r4, #0
  38:../libs/libDaisy/src/dev/mpr121.h **** 
  39:../libs/libDaisy/src/dev/mpr121.h ****             scl = Pin(PORTB, 8);
  40:../libs/libDaisy/src/dev/mpr121.h ****             sda = Pin(PORTB, 9);
  41:../libs/libDaisy/src/dev/mpr121.h **** 
  42:../libs/libDaisy/src/dev/mpr121.h ****             dev_addr = MPR121_I2CADDR_DEFAULT;
  56              		.loc 2 42 22 view .LVU4
  57 0008 5A23     		movs	r3, #90
  58              	.LBE206:
  59              	.LBE205:
  60              	.LBE204:
  61              	.LBE203:
  62              	.LBE202:
  63              		.loc 1 6 1 view .LVU5
  64 000a 0546     		mov	r5, r0
  65              	.LVL1:
  66              	.LBB275:
ARM GAS  C:\Users\matte\AppData\Local\Temp\ccgZTizB.s 			page 3


  67              	.LBB224:
  68              	.LBI203:
  43:../libs/libDaisy/src/dev/mpr121.h ****         }
  44:../libs/libDaisy/src/dev/mpr121.h ****     };
  45:../libs/libDaisy/src/dev/mpr121.h **** 
  46:../libs/libDaisy/src/dev/mpr121.h ****     /** \return Did the transaction error? i.e. Return true if error, false if ok */
  47:../libs/libDaisy/src/dev/mpr121.h ****     inline bool Init(Config config)
  48:../libs/libDaisy/src/dev/mpr121.h ****     {
  49:../libs/libDaisy/src/dev/mpr121.h ****         config_ = config;
  50:../libs/libDaisy/src/dev/mpr121.h **** 
  51:../libs/libDaisy/src/dev/mpr121.h ****         I2CHandle::Config i2c_conf;
  52:../libs/libDaisy/src/dev/mpr121.h ****         i2c_conf.mode   = I2CHandle::Config::Mode::I2C_MASTER;
  53:../libs/libDaisy/src/dev/mpr121.h ****         i2c_conf.periph = config.periph;
  54:../libs/libDaisy/src/dev/mpr121.h ****         i2c_conf.speed  = config.speed;
  55:../libs/libDaisy/src/dev/mpr121.h **** 
  56:../libs/libDaisy/src/dev/mpr121.h ****         i2c_conf.pin_config.scl = config.scl;
  57:../libs/libDaisy/src/dev/mpr121.h ****         i2c_conf.pin_config.sda = config.sda;
  58:../libs/libDaisy/src/dev/mpr121.h **** 
  59:../libs/libDaisy/src/dev/mpr121.h ****         return I2CHandle::Result::OK != i2c_.Init(i2c_conf);
  60:../libs/libDaisy/src/dev/mpr121.h ****     }
  61:../libs/libDaisy/src/dev/mpr121.h **** 
  62:../libs/libDaisy/src/dev/mpr121.h ****     /** \return Did the transaction error? i.e. Return true if error, false if ok */
  63:../libs/libDaisy/src/dev/mpr121.h ****     bool Write(uint8_t *data, uint16_t size)
  64:../libs/libDaisy/src/dev/mpr121.h ****     {
  65:../libs/libDaisy/src/dev/mpr121.h ****         return I2CHandle::Result::OK
  66:../libs/libDaisy/src/dev/mpr121.h ****                != i2c_.TransmitBlocking(config_.dev_addr, data, size, 10);
  67:../libs/libDaisy/src/dev/mpr121.h ****     }
  68:../libs/libDaisy/src/dev/mpr121.h **** 
  69:../libs/libDaisy/src/dev/mpr121.h ****     /** \return Did the transaction error? i.e. Return true if error, false if ok */
  70:../libs/libDaisy/src/dev/mpr121.h ****     bool Read(uint8_t *data, uint16_t size)
  71:../libs/libDaisy/src/dev/mpr121.h ****     {
  72:../libs/libDaisy/src/dev/mpr121.h ****         return I2CHandle::Result::OK
  73:../libs/libDaisy/src/dev/mpr121.h ****                != i2c_.ReceiveBlocking(config_.dev_addr, data, size, 10);
  74:../libs/libDaisy/src/dev/mpr121.h ****     }
  75:../libs/libDaisy/src/dev/mpr121.h **** 
  76:../libs/libDaisy/src/dev/mpr121.h ****   private:
  77:../libs/libDaisy/src/dev/mpr121.h ****     I2CHandle i2c_;
  78:../libs/libDaisy/src/dev/mpr121.h ****     Config    config_;
  79:../libs/libDaisy/src/dev/mpr121.h **** };
  80:../libs/libDaisy/src/dev/mpr121.h **** 
  81:../libs/libDaisy/src/dev/mpr121.h **** 
  82:../libs/libDaisy/src/dev/mpr121.h **** /** @brief Device support for MPR121 12x Capacitive Touch Sensor
  83:../libs/libDaisy/src/dev/mpr121.h ****     @author beserge
  84:../libs/libDaisy/src/dev/mpr121.h ****     @date December 2021
  85:../libs/libDaisy/src/dev/mpr121.h **** */
  86:../libs/libDaisy/src/dev/mpr121.h **** template <typename Transport>
  87:../libs/libDaisy/src/dev/mpr121.h **** class Mpr121
  88:../libs/libDaisy/src/dev/mpr121.h **** {
  89:../libs/libDaisy/src/dev/mpr121.h ****   public:
  90:../libs/libDaisy/src/dev/mpr121.h ****     Mpr121() {}
  91:../libs/libDaisy/src/dev/mpr121.h ****     ~Mpr121() {}
  92:../libs/libDaisy/src/dev/mpr121.h **** 
  93:../libs/libDaisy/src/dev/mpr121.h ****     struct Config
  94:../libs/libDaisy/src/dev/mpr121.h ****     {
  95:../libs/libDaisy/src/dev/mpr121.h ****         typename Transport::Config transport_config;
  96:../libs/libDaisy/src/dev/mpr121.h ****         uint8_t                    touch_threshold;
  97:../libs/libDaisy/src/dev/mpr121.h ****         uint8_t                    release_threshold;
ARM GAS  C:\Users\matte\AppData\Local\Temp\ccgZTizB.s 			page 4


  98:../libs/libDaisy/src/dev/mpr121.h **** 
  99:../libs/libDaisy/src/dev/mpr121.h ****         Config()
  69              		.loc 2 99 9 is_stmt 1 view .LVU6
  70              	.LBB219:
  71              	.LBB215:
  72              	.LBI205:
  34:../libs/libDaisy/src/dev/mpr121.h ****         {
  73              		.loc 2 34 9 view .LVU7
  74              	.LBB211:
  75              	.LBB207:
  76              	.LBI207:
  77              		.file 3 "../libs/libDaisy/src/daisy_core.h"
   1:../libs/libDaisy/src/daisy_core.h **** #pragma once
   2:../libs/libDaisy/src/daisy_core.h **** #ifndef DSY_CORE_HW_H
   3:../libs/libDaisy/src/daisy_core.h **** #define DSY_CORE_HW_H /**< & */
   4:../libs/libDaisy/src/daisy_core.h **** #include <stdint.h>
   5:../libs/libDaisy/src/daisy_core.h **** #include <stdlib.h>
   6:../libs/libDaisy/src/daisy_core.h **** 
   7:../libs/libDaisy/src/daisy_core.h **** #if defined(_MSC_VER)
   8:../libs/libDaisy/src/daisy_core.h **** #define FORCE_INLINE __forceinline /**< & */
   9:../libs/libDaisy/src/daisy_core.h **** #elif defined(__clang__)
  10:../libs/libDaisy/src/daisy_core.h **** #define FORCE_INLINE inline __attribute__((always_inline)) /**< & */
  11:../libs/libDaisy/src/daisy_core.h **** #pragma clang diagnostic ignored "-Wduplicate-decl-specifier"
  12:../libs/libDaisy/src/daisy_core.h **** #elif defined(__GNUC__)
  13:../libs/libDaisy/src/daisy_core.h **** #define FORCE_INLINE inline __attribute__((always_inline)) /**< & */
  14:../libs/libDaisy/src/daisy_core.h **** #else
  15:../libs/libDaisy/src/daisy_core.h **** #error unknown compiler
  16:../libs/libDaisy/src/daisy_core.h **** #endif
  17:../libs/libDaisy/src/daisy_core.h **** 
  18:../libs/libDaisy/src/daisy_core.h **** /** @addtogroup utility
  19:../libs/libDaisy/src/daisy_core.h ****     @{
  20:../libs/libDaisy/src/daisy_core.h **** */
  21:../libs/libDaisy/src/daisy_core.h **** 
  22:../libs/libDaisy/src/daisy_core.h **** /** Macro for area of memory that is configured as cacheless
  23:../libs/libDaisy/src/daisy_core.h **** This should be used primarily for DMA buffers, and the like.
  24:../libs/libDaisy/src/daisy_core.h **** */
  25:../libs/libDaisy/src/daisy_core.h **** #define DMA_BUFFER_MEM_SECTION __attribute__((section(".sram1_bss")))
  26:../libs/libDaisy/src/daisy_core.h **** /** 
  27:../libs/libDaisy/src/daisy_core.h **** THE DTCM RAM section is also non-cached. However, is not suitable 
  28:../libs/libDaisy/src/daisy_core.h **** for DMA transfers. Performance is on par with internal SRAM w/ 
  29:../libs/libDaisy/src/daisy_core.h **** cache enabled.
  30:../libs/libDaisy/src/daisy_core.h **** */
  31:../libs/libDaisy/src/daisy_core.h **** #define DTCM_MEM_SECTION __attribute__((section(".dtcmram_bss")))
  32:../libs/libDaisy/src/daisy_core.h **** 
  33:../libs/libDaisy/src/daisy_core.h **** #define FBIPMAX 0.999985f             /**< close to 1.0f-LSB at 16 bit */
  34:../libs/libDaisy/src/daisy_core.h **** #define FBIPMIN (-FBIPMAX)            /**< - (1 - LSB) */
  35:../libs/libDaisy/src/daisy_core.h **** #define U82F_SCALE 0.0078740f         /**< 1 / 127 */
  36:../libs/libDaisy/src/daisy_core.h **** #define F2U8_SCALE 127.0f             /**< 128 - 1 */
  37:../libs/libDaisy/src/daisy_core.h **** #define S82F_SCALE 0.0078125f         /**< 1 / (2**7) */
  38:../libs/libDaisy/src/daisy_core.h **** #define F2S8_SCALE 127.0f             /**< (2 ** 7) - 1 */
  39:../libs/libDaisy/src/daisy_core.h **** #define S162F_SCALE 3.0517578125e-05f /**< 1 / (2** 15) */
  40:../libs/libDaisy/src/daisy_core.h **** #define F2S16_SCALE 32767.0f          /**< (2 ** 15) - 1 */
  41:../libs/libDaisy/src/daisy_core.h **** #define F2S24_SCALE 8388608.0f        /**< 2 ** 23 */
  42:../libs/libDaisy/src/daisy_core.h **** #define S242F_SCALE 1.192092896e-07f  /**< 1 / (2 ** 23) */
  43:../libs/libDaisy/src/daisy_core.h **** #define S24SIGN 0x800000              /**< 2 ** 23 */
  44:../libs/libDaisy/src/daisy_core.h **** #define S322F_SCALE 4.6566129e-10f    /**< 1 / (2** 31) */
  45:../libs/libDaisy/src/daisy_core.h **** #define F2S32_SCALE 2147483647.f      /**< (2 ** 31) - 1 */
ARM GAS  C:\Users\matte\AppData\Local\Temp\ccgZTizB.s 			page 5


  46:../libs/libDaisy/src/daisy_core.h **** 
  47:../libs/libDaisy/src/daisy_core.h **** 
  48:../libs/libDaisy/src/daisy_core.h **** /** shorthand macro for simplifying the reading of the left 
  49:../libs/libDaisy/src/daisy_core.h ****  *  channel of a non-interleaved output buffer named out */
  50:../libs/libDaisy/src/daisy_core.h **** #define OUT_L out[0]
  51:../libs/libDaisy/src/daisy_core.h **** 
  52:../libs/libDaisy/src/daisy_core.h **** /** shorthand macro for simplifying the reading of the right 
  53:../libs/libDaisy/src/daisy_core.h ****  *  channel of a non-interleaved output buffer named out */
  54:../libs/libDaisy/src/daisy_core.h **** #define OUT_R out[1]
  55:../libs/libDaisy/src/daisy_core.h **** 
  56:../libs/libDaisy/src/daisy_core.h **** /** shorthand macro for simplifying the reading of the left 
  57:../libs/libDaisy/src/daisy_core.h ****  *  channel of a non-interleaved input buffer named in */
  58:../libs/libDaisy/src/daisy_core.h **** #define IN_L in[0]
  59:../libs/libDaisy/src/daisy_core.h **** 
  60:../libs/libDaisy/src/daisy_core.h **** /** shorthand macro for simplifying the reading of the right 
  61:../libs/libDaisy/src/daisy_core.h ****  *  channel of a non-interleaved input buffer named in */
  62:../libs/libDaisy/src/daisy_core.h **** #define IN_R in[1]
  63:../libs/libDaisy/src/daisy_core.h **** 
  64:../libs/libDaisy/src/daisy_core.h **** /** 
  65:../libs/libDaisy/src/daisy_core.h ****     Computes cube.
  66:../libs/libDaisy/src/daisy_core.h ****     \param x Number to be cubed
  67:../libs/libDaisy/src/daisy_core.h ****     \return x ^ 3
  68:../libs/libDaisy/src/daisy_core.h **** */
  69:../libs/libDaisy/src/daisy_core.h **** FORCE_INLINE float cube(float x)
  70:../libs/libDaisy/src/daisy_core.h **** {
  71:../libs/libDaisy/src/daisy_core.h ****     return (x * x) * x;
  72:../libs/libDaisy/src/daisy_core.h **** }
  73:../libs/libDaisy/src/daisy_core.h **** 
  74:../libs/libDaisy/src/daisy_core.h **** /** 
  75:../libs/libDaisy/src/daisy_core.h ****     Converts unsigned 8-bit to float
  76:../libs/libDaisy/src/daisy_core.h ****     \param x Number to be scaled.
  77:../libs/libDaisy/src/daisy_core.h ****     \return Scaled number.
  78:../libs/libDaisy/src/daisy_core.h **** */
  79:../libs/libDaisy/src/daisy_core.h **** FORCE_INLINE float u82f(uint8_t x)
  80:../libs/libDaisy/src/daisy_core.h **** {
  81:../libs/libDaisy/src/daisy_core.h ****     return ((float)x - 127.f) * U82F_SCALE;
  82:../libs/libDaisy/src/daisy_core.h **** }
  83:../libs/libDaisy/src/daisy_core.h **** 
  84:../libs/libDaisy/src/daisy_core.h **** /**
  85:../libs/libDaisy/src/daisy_core.h ****     Converts float to unsigned 8-bit
  86:../libs/libDaisy/src/daisy_core.h **** */
  87:../libs/libDaisy/src/daisy_core.h **** FORCE_INLINE uint8_t f2u8(float x)
  88:../libs/libDaisy/src/daisy_core.h **** {
  89:../libs/libDaisy/src/daisy_core.h ****     x = x <= FBIPMIN ? FBIPMIN : x;
  90:../libs/libDaisy/src/daisy_core.h ****     x = x >= FBIPMAX ? FBIPMAX : x;
  91:../libs/libDaisy/src/daisy_core.h ****     return (uint8_t)((x * F2U8_SCALE) + F2U8_SCALE);
  92:../libs/libDaisy/src/daisy_core.h **** }
  93:../libs/libDaisy/src/daisy_core.h **** 
  94:../libs/libDaisy/src/daisy_core.h **** 
  95:../libs/libDaisy/src/daisy_core.h **** /** 
  96:../libs/libDaisy/src/daisy_core.h ****     Converts Signed 8-bit to float
  97:../libs/libDaisy/src/daisy_core.h ****     \param x Number to be scaled.
  98:../libs/libDaisy/src/daisy_core.h ****     \return Scaled number.
  99:../libs/libDaisy/src/daisy_core.h **** */
 100:../libs/libDaisy/src/daisy_core.h **** FORCE_INLINE float s82f(int8_t x)
 101:../libs/libDaisy/src/daisy_core.h **** {
 102:../libs/libDaisy/src/daisy_core.h ****     return (float)x * S82F_SCALE;
ARM GAS  C:\Users\matte\AppData\Local\Temp\ccgZTizB.s 			page 6


 103:../libs/libDaisy/src/daisy_core.h **** }
 104:../libs/libDaisy/src/daisy_core.h **** 
 105:../libs/libDaisy/src/daisy_core.h **** /**
 106:../libs/libDaisy/src/daisy_core.h ****     Converts float to Signed 8-bit
 107:../libs/libDaisy/src/daisy_core.h **** */
 108:../libs/libDaisy/src/daisy_core.h **** FORCE_INLINE int8_t f2s8(float x)
 109:../libs/libDaisy/src/daisy_core.h **** {
 110:../libs/libDaisy/src/daisy_core.h ****     x = x <= FBIPMIN ? FBIPMIN : x;
 111:../libs/libDaisy/src/daisy_core.h ****     x = x >= FBIPMAX ? FBIPMAX : x;
 112:../libs/libDaisy/src/daisy_core.h ****     return (int32_t)(x * F2S8_SCALE);
 113:../libs/libDaisy/src/daisy_core.h **** }
 114:../libs/libDaisy/src/daisy_core.h **** 
 115:../libs/libDaisy/src/daisy_core.h **** /** 
 116:../libs/libDaisy/src/daisy_core.h ****     Converts Signed 16-bit to float
 117:../libs/libDaisy/src/daisy_core.h ****     \param x Number to be scaled.
 118:../libs/libDaisy/src/daisy_core.h ****     \return Scaled number.
 119:../libs/libDaisy/src/daisy_core.h **** */
 120:../libs/libDaisy/src/daisy_core.h **** FORCE_INLINE float s162f(int16_t x)
 121:../libs/libDaisy/src/daisy_core.h **** {
 122:../libs/libDaisy/src/daisy_core.h ****     return (float)x * S162F_SCALE;
 123:../libs/libDaisy/src/daisy_core.h **** }
 124:../libs/libDaisy/src/daisy_core.h **** 
 125:../libs/libDaisy/src/daisy_core.h **** /**
 126:../libs/libDaisy/src/daisy_core.h ****     Converts float to Signed 16-bit
 127:../libs/libDaisy/src/daisy_core.h **** */
 128:../libs/libDaisy/src/daisy_core.h **** FORCE_INLINE int16_t f2s16(float x)
 129:../libs/libDaisy/src/daisy_core.h **** {
 130:../libs/libDaisy/src/daisy_core.h ****     x = x <= FBIPMIN ? FBIPMIN : x;
 131:../libs/libDaisy/src/daisy_core.h ****     x = x >= FBIPMAX ? FBIPMAX : x;
 132:../libs/libDaisy/src/daisy_core.h ****     return (int32_t)(x * F2S16_SCALE);
 133:../libs/libDaisy/src/daisy_core.h **** }
 134:../libs/libDaisy/src/daisy_core.h **** 
 135:../libs/libDaisy/src/daisy_core.h **** /**
 136:../libs/libDaisy/src/daisy_core.h ****     Converts Signed 24-bit to float
 137:../libs/libDaisy/src/daisy_core.h ****  */
 138:../libs/libDaisy/src/daisy_core.h **** FORCE_INLINE float s242f(int32_t x)
 139:../libs/libDaisy/src/daisy_core.h **** {
 140:../libs/libDaisy/src/daisy_core.h ****     x = (x ^ S24SIGN) - S24SIGN; //sign extend aka ((x<<8)>>8)
 141:../libs/libDaisy/src/daisy_core.h ****     return (float)x * S242F_SCALE;
 142:../libs/libDaisy/src/daisy_core.h **** }
 143:../libs/libDaisy/src/daisy_core.h **** /**
 144:../libs/libDaisy/src/daisy_core.h ****     Converts float to Signed 24-bit
 145:../libs/libDaisy/src/daisy_core.h ****  */
 146:../libs/libDaisy/src/daisy_core.h **** FORCE_INLINE int32_t f2s24(float x)
 147:../libs/libDaisy/src/daisy_core.h **** {
 148:../libs/libDaisy/src/daisy_core.h ****     x = x <= FBIPMIN ? FBIPMIN : x;
 149:../libs/libDaisy/src/daisy_core.h ****     x = x >= FBIPMAX ? FBIPMAX : x;
 150:../libs/libDaisy/src/daisy_core.h ****     return (int32_t)(x * F2S24_SCALE);
 151:../libs/libDaisy/src/daisy_core.h **** }
 152:../libs/libDaisy/src/daisy_core.h **** 
 153:../libs/libDaisy/src/daisy_core.h **** /**
 154:../libs/libDaisy/src/daisy_core.h ****     Converts Signed 32-bit to float
 155:../libs/libDaisy/src/daisy_core.h ****  */
 156:../libs/libDaisy/src/daisy_core.h **** FORCE_INLINE float s322f(int32_t x)
 157:../libs/libDaisy/src/daisy_core.h **** {
 158:../libs/libDaisy/src/daisy_core.h ****     return (float)x * S322F_SCALE;
 159:../libs/libDaisy/src/daisy_core.h **** }
ARM GAS  C:\Users\matte\AppData\Local\Temp\ccgZTizB.s 			page 7


 160:../libs/libDaisy/src/daisy_core.h **** /**
 161:../libs/libDaisy/src/daisy_core.h ****     Converts float to Signed 24-bit
 162:../libs/libDaisy/src/daisy_core.h ****  */
 163:../libs/libDaisy/src/daisy_core.h **** FORCE_INLINE int32_t f2s32(float x)
 164:../libs/libDaisy/src/daisy_core.h **** {
 165:../libs/libDaisy/src/daisy_core.h ****     x = x <= FBIPMIN ? FBIPMIN : x;
 166:../libs/libDaisy/src/daisy_core.h ****     x = x >= FBIPMAX ? FBIPMAX : x;
 167:../libs/libDaisy/src/daisy_core.h ****     return (int32_t)(x * F2S32_SCALE);
 168:../libs/libDaisy/src/daisy_core.h **** }
 169:../libs/libDaisy/src/daisy_core.h **** 
 170:../libs/libDaisy/src/daisy_core.h **** #ifdef __cplusplus
 171:../libs/libDaisy/src/daisy_core.h **** 
 172:../libs/libDaisy/src/daisy_core.h **** namespace daisy
 173:../libs/libDaisy/src/daisy_core.h **** {
 174:../libs/libDaisy/src/daisy_core.h **** /** @brief GPIO Port names */
 175:../libs/libDaisy/src/daisy_core.h **** enum GPIOPort
 176:../libs/libDaisy/src/daisy_core.h **** {
 177:../libs/libDaisy/src/daisy_core.h ****     PORTA, /**< Port A */
 178:../libs/libDaisy/src/daisy_core.h ****     PORTB, /**< Port B */
 179:../libs/libDaisy/src/daisy_core.h ****     PORTC, /**< Port C */
 180:../libs/libDaisy/src/daisy_core.h ****     PORTD, /**< Port D */
 181:../libs/libDaisy/src/daisy_core.h ****     PORTE, /**< Port E */
 182:../libs/libDaisy/src/daisy_core.h ****     PORTF, /**< Port F */
 183:../libs/libDaisy/src/daisy_core.h ****     PORTG, /**< Port G */
 184:../libs/libDaisy/src/daisy_core.h ****     PORTH, /**< Port H */
 185:../libs/libDaisy/src/daisy_core.h ****     PORTI, /**< Port I */
 186:../libs/libDaisy/src/daisy_core.h ****     PORTJ, /**< Port J */
 187:../libs/libDaisy/src/daisy_core.h ****     PORTK, /**< Port K */
 188:../libs/libDaisy/src/daisy_core.h ****     PORTX, /**< Used as a dummy port to signal an invalid pin. */
 189:../libs/libDaisy/src/daisy_core.h **** };
 190:../libs/libDaisy/src/daisy_core.h **** 
 191:../libs/libDaisy/src/daisy_core.h **** /** @brief representation of hardware port/pin combination */
 192:../libs/libDaisy/src/daisy_core.h **** struct Pin
 193:../libs/libDaisy/src/daisy_core.h **** {
 194:../libs/libDaisy/src/daisy_core.h ****     GPIOPort port;
 195:../libs/libDaisy/src/daisy_core.h ****     uint8_t  pin;
 196:../libs/libDaisy/src/daisy_core.h **** 
 197:../libs/libDaisy/src/daisy_core.h ****     /** @brief Constructor creates a valid pin. 
 198:../libs/libDaisy/src/daisy_core.h ****      *  @param pt GPIOPort between PA, and PK corresponding to STM32 Port.
 199:../libs/libDaisy/src/daisy_core.h ****      *  @param pn pin number in range of 0-15
 200:../libs/libDaisy/src/daisy_core.h ****     */
 201:../libs/libDaisy/src/daisy_core.h ****     constexpr Pin(const GPIOPort pt, const uint8_t pn) : port(pt), pin(pn) {}
 202:../libs/libDaisy/src/daisy_core.h **** 
 203:../libs/libDaisy/src/daisy_core.h ****     /** @brief Basic Constructor creates an invalid Pin object */
 204:../libs/libDaisy/src/daisy_core.h ****     constexpr Pin() : port(PORTX), pin(255) {}
  78              		.loc 3 204 15 view .LVU8
  79              		.loc 3 204 15 is_stmt 0 view .LVU9
  80              	.LBE207:
  81              	.LBB208:
  82              	.LBI208:
  83              		.loc 3 204 15 is_stmt 1 view .LVU10
  84              		.loc 3 204 15 is_stmt 0 view .LVU11
  85              	.LBE208:
  36:../libs/libDaisy/src/dev/mpr121.h ****             speed  = I2CHandle::Config::Speed::I2C_400KHZ;
  86              		.loc 2 36 13 is_stmt 1 view .LVU12
  37:../libs/libDaisy/src/dev/mpr121.h **** 
  87              		.loc 2 37 13 view .LVU13
ARM GAS  C:\Users\matte\AppData\Local\Temp\ccgZTizB.s 			page 8


  39:../libs/libDaisy/src/dev/mpr121.h ****             sda = Pin(PORTB, 9);
  88              		.loc 2 39 13 view .LVU14
  89              	.LBB209:
  90              	.LBI209:
 201:../libs/libDaisy/src/daisy_core.h **** 
  91              		.loc 3 201 15 view .LVU15
 201:../libs/libDaisy/src/daisy_core.h **** 
  92              		.loc 3 201 15 is_stmt 0 view .LVU16
  93              	.LBE209:
  40:../libs/libDaisy/src/dev/mpr121.h **** 
  94              		.loc 2 40 13 is_stmt 1 view .LVU17
  95              	.LBB210:
  96              	.LBI210:
 201:../libs/libDaisy/src/daisy_core.h **** 
  97              		.loc 3 201 15 view .LVU18
 201:../libs/libDaisy/src/daisy_core.h **** 
  98              		.loc 3 201 15 is_stmt 0 view .LVU19
  99              	.LBE210:
  39:../libs/libDaisy/src/dev/mpr121.h ****             sda = Pin(PORTB, 9);
 100              		.loc 2 39 17 view .LVU20
 101 000c 504A     		ldr	r2, .L4
 102              	.LBE211:
 103              	.LBE215:
 104              	.LBE219:
 105              	.LBE224:
 106              	.LBE275:
 107              		.loc 1 6 1 view .LVU21
 108 000e 87B0     		sub	sp, sp, #28
 109              		.cfi_def_cfa_offset 64
 110              	.LBB276:
 111              	.LBB225:
 112              	.LBB220:
 113              	.LBB216:
 114              	.LBB212:
  42:../libs/libDaisy/src/dev/mpr121.h ****         }
 115              		.loc 2 42 22 view .LVU22
 116 0010 0375     		strb	r3, [r0, #20]
 117              	.LBE212:
 118              	.LBE216:
 119              	.LBE220:
 120              	.LBE225:
 121              		.loc 1 6 36 view .LVU23
 122 0012 05F5B078 		add	r8, r5, #352
 123              	.LBB226:
 124              	.LBB227:
 125              	.LBB228:
 126              	.LBB229:
  37:../libs/libDaisy/src/dev/mpr121.h **** 
 127              		.loc 2 37 20 view .LVU24
 128 0016 C163     		str	r1, [r0, #60]
 129              	.LBE229:
 130              	.LBE228:
 131              	.LBE227:
 132              	.LBE226:
 133              		.loc 1 6 36 view .LVU25
 134 0018 05F5DA7A 		add	r10, r5, #436
 135              	.LBB267:
ARM GAS  C:\Users\matte\AppData\Local\Temp\ccgZTizB.s 			page 9


 136              	.LBB243:
 137              	.LBB244:
 138              	.LBB245:
 139              	.LBB246:
  42:../libs/libDaisy/src/dev/mpr121.h ****         }
 140              		.loc 2 42 22 view .LVU26
 141 001c 80F82C30 		strb	r3, [r0, #44]
 142              	.LBE246:
 143              	.LBE245:
 144              	.LBE244:
 145              	.LBE243:
 146              	.LBB260:
 147              	.LBB238:
 148              	.LBB234:
 149 0020 80F84830 		strb	r3, [r0, #72]
 150              	.LBE234:
 151              	.LBE238:
 152              	.LBE260:
 153              	.LBE267:
 154              	.LBB268:
 155              	.LBB221:
 100:../libs/libDaisy/src/dev/mpr121.h ****         {
 101:../libs/libDaisy/src/dev/mpr121.h ****             touch_threshold   = MPR121_TOUCH_THRESHOLD_DEFAULT;
 156              		.loc 2 101 31 view .LVU27
 157 0024 40F20C63 		movw	r3, #1548
 158              	.LBB217:
 159              	.LBB213:
  39:../libs/libDaisy/src/dev/mpr121.h ****             sda = Pin(PORTB, 9);
 160              		.loc 2 39 17 view .LVU28
 161 0028 C260     		str	r2, [r0, #12]
  42:../libs/libDaisy/src/dev/mpr121.h ****         }
 162              		.loc 2 42 13 is_stmt 1 view .LVU29
 163              	.LVL2:
  42:../libs/libDaisy/src/dev/mpr121.h ****         }
 164              		.loc 2 42 13 is_stmt 0 view .LVU30
 165              	.LBE213:
 166              	.LBE217:
 167              	.LBE221:
 168              	.LBE268:
 169              	.LBB269:
 170              	.LBB261:
 171              	.LBB257:
 172              	.LBB254:
 173              	.LBB251:
  39:../libs/libDaisy/src/dev/mpr121.h ****             sda = Pin(PORTB, 9);
 174              		.loc 2 39 17 view .LVU31
 175 002a 4262     		str	r2, [r0, #36]
 176              	.LBE251:
 177              	.LBE254:
 178              	.LBE257:
 179              	.LBE261:
 180              	.LBB262:
 181              	.LBB239:
 182              	.LBB235:
 183 002c 0264     		str	r2, [r0, #64]
 184              	.LBE235:
 185              	.LBE239:
ARM GAS  C:\Users\matte\AppData\Local\Temp\ccgZTizB.s 			page 10


 186              	.LBE262:
 187              	.LBE269:
 188              	.LBB270:
 189              	.LBB222:
 190              	.LBB218:
 191              	.LBB214:
  37:../libs/libDaisy/src/dev/mpr121.h **** 
 192              		.loc 2 37 20 view .LVU32
 193 002e C0E90141 		strd	r4, r1, [r0, #4]
 194              	.LBE214:
 195              	.LBE218:
 196              	.LBE222:
 197              	.LBE270:
 198              	.LBB271:
 199              	.LBB263:
 200              	.LBB258:
 201              	.LBB255:
 202              	.LBB252:
 203 0032 C0E90741 		strd	r4, r1, [r0, #28]
 204              	.LBE252:
 205              	.LBE255:
 206              	.LBE258:
 207              	.LBE263:
 208              	.LBE271:
 209              		.loc 1 6 36 view .LVU33
 210 0036 0C21     		movs	r1, #12
 211              	.LBB272:
 212              	.LBB264:
 213              	.LBB240:
 214              	.LBB236:
  36:../libs/libDaisy/src/dev/mpr121.h ****             speed  = I2CHandle::Config::Speed::I2C_400KHZ;
 215              		.loc 2 36 20 view .LVU34
 216 0038 C0E90D44 		strd	r4, r4, [r0, #52]
 217              	.LBE236:
 218              	.LBE240:
 219              	.LBE264:
 220              	.LBE272:
 221              		.loc 1 6 36 view .LVU35
 222 003c 85F85010 		strb	r1, [r5, #80]
 223 0040 5430     		adds	r0, r0, #84
 224              	.LVL3:
 225              	.LBB273:
 226              	.LBB223:
 227              		.loc 2 101 31 view .LVU36
 228 0042 2B83     		strh	r3, [r5, #24]	@ movhi
 229              	.LVL4:
 230              		.loc 2 101 31 view .LVU37
 231              	.LBE223:
 232              	.LBE273:
 233              	.LBB274:
 234              	.LBI226:
  90:../libs/libDaisy/src/dev/mpr121.h ****     ~Mpr121() {}
 235              		.loc 2 90 5 is_stmt 1 view .LVU38
 236              	.LBB265:
 237              	.LBI243:
  99:../libs/libDaisy/src/dev/mpr121.h ****         {
 238              		.loc 2 99 9 view .LVU39
ARM GAS  C:\Users\matte\AppData\Local\Temp\ccgZTizB.s 			page 11


 239              	.LBB259:
 240              	.LBB256:
 241              	.LBI245:
  34:../libs/libDaisy/src/dev/mpr121.h ****         {
 242              		.loc 2 34 9 view .LVU40
 243              	.LBB253:
 244              	.LBB247:
 245              	.LBI247:
 246              		.loc 3 204 15 view .LVU41
 247              		.loc 3 204 15 is_stmt 0 view .LVU42
 248              	.LBE247:
 249              	.LBB248:
 250              	.LBI248:
 251              		.loc 3 204 15 is_stmt 1 view .LVU43
 252              		.loc 3 204 15 is_stmt 0 view .LVU44
 253              	.LBE248:
  36:../libs/libDaisy/src/dev/mpr121.h ****             speed  = I2CHandle::Config::Speed::I2C_400KHZ;
 254              		.loc 2 36 13 is_stmt 1 view .LVU45
  37:../libs/libDaisy/src/dev/mpr121.h **** 
 255              		.loc 2 37 13 view .LVU46
  39:../libs/libDaisy/src/dev/mpr121.h ****             sda = Pin(PORTB, 9);
 256              		.loc 2 39 13 view .LVU47
 257              	.LBB249:
 258              	.LBI249:
 201:../libs/libDaisy/src/daisy_core.h **** 
 259              		.loc 3 201 15 view .LVU48
 201:../libs/libDaisy/src/daisy_core.h **** 
 260              		.loc 3 201 15 is_stmt 0 view .LVU49
 261              	.LBE249:
  40:../libs/libDaisy/src/dev/mpr121.h **** 
 262              		.loc 2 40 13 is_stmt 1 view .LVU50
 263              	.LBB250:
 264              	.LBI250:
 201:../libs/libDaisy/src/daisy_core.h **** 
 265              		.loc 3 201 15 view .LVU51
 201:../libs/libDaisy/src/daisy_core.h **** 
 266              		.loc 3 201 15 is_stmt 0 view .LVU52
 267              	.LBE250:
  42:../libs/libDaisy/src/dev/mpr121.h ****         }
 268              		.loc 2 42 13 is_stmt 1 view .LVU53
  42:../libs/libDaisy/src/dev/mpr121.h ****         }
 269              		.loc 2 42 13 is_stmt 0 view .LVU54
 270              	.LBE253:
 271              	.LBE256:
 272              		.loc 2 101 31 view .LVU55
 273 0044 2B86     		strh	r3, [r5, #48]	@ movhi
 274              	.LVL5:
 275              		.loc 2 101 31 view .LVU56
 276              	.LBE259:
 277              	.LBE265:
 278              	.LBB266:
 279              	.LBI227:
  20:../libs/libDaisy/src/dev/mpr121.h ****     ~Mpr121I2CTransport() {}
 280              		.loc 2 20 5 is_stmt 1 view .LVU57
 281              	.LBB241:
 282              	.LBI241:
 283              		.file 4 "../libs/libDaisy/src/per/i2c.h"
ARM GAS  C:\Users\matte\AppData\Local\Temp\ccgZTizB.s 			page 12


   1:../libs/libDaisy/src/per/i2c.h **** #pragma once
   2:../libs/libDaisy/src/per/i2c.h **** #include "util/hal_map.h"
   3:../libs/libDaisy/src/per/i2c.h **** #include "daisy_core.h"
   4:../libs/libDaisy/src/per/i2c.h **** 
   5:../libs/libDaisy/src/per/i2c.h **** namespace daisy
   6:../libs/libDaisy/src/per/i2c.h **** {
   7:../libs/libDaisy/src/per/i2c.h **** /** A handle for interacting with an I2C peripheral. This is a dumb
   8:../libs/libDaisy/src/per/i2c.h ****  *  gateway that internally points to one of the four I2C peripherals
   9:../libs/libDaisy/src/per/i2c.h ****  *  after it was initialised. It can then be copied and passed around.
  10:../libs/libDaisy/src/per/i2c.h ****  *  Use an I2CHandle like this:
  11:../libs/libDaisy/src/per/i2c.h ****  *  
  12:../libs/libDaisy/src/per/i2c.h ****  *      // setup the configuration
  13:../libs/libDaisy/src/per/i2c.h ****  *      I2CHandle::Config i2c_conf;
  14:../libs/libDaisy/src/per/i2c.h ****  *      i2c_conf.periph = I2CHandle::Config::Peripheral::I2C_1;
  15:../libs/libDaisy/src/per/i2c.h ****  *      i2c_conf.speed  = I2CHandle::Config::Speed::I2C_400KHZ;
  16:../libs/libDaisy/src/per/i2c.h ****  *      i2c_conf.mode   = I2CHandle::Config::Mode::Master;
  17:../libs/libDaisy/src/per/i2c.h ****  *      i2c_conf.pin_config.scl  = {DSY_GPIOB, 8};
  18:../libs/libDaisy/src/per/i2c.h ****  *      i2c_conf.pin_config.sda  = {DSY_GPIOB, 9};
  19:../libs/libDaisy/src/per/i2c.h ****  *      // initialise the peripheral
  20:../libs/libDaisy/src/per/i2c.h ****  *      I2CHandle i2c;
  21:../libs/libDaisy/src/per/i2c.h ****  *      i2c.Init(i2c_conf);
  22:../libs/libDaisy/src/per/i2c.h ****  *      // now i2c points to the corresponding peripheral and can be used.
  23:../libs/libDaisy/src/per/i2c.h ****  *      i2c.TransmitBlocking( ... );
  24:../libs/libDaisy/src/per/i2c.h ****  */
  25:../libs/libDaisy/src/per/i2c.h **** class I2CHandle
  26:../libs/libDaisy/src/per/i2c.h **** {
  27:../libs/libDaisy/src/per/i2c.h ****   public:
  28:../libs/libDaisy/src/per/i2c.h ****     /** Contains settings for initialising an I2C interface. */
  29:../libs/libDaisy/src/per/i2c.h ****     struct Config
  30:../libs/libDaisy/src/per/i2c.h ****     {
  31:../libs/libDaisy/src/per/i2c.h ****         /** Specifies whether the interface will operate in master or slave mode. */
  32:../libs/libDaisy/src/per/i2c.h ****         enum class Mode
  33:../libs/libDaisy/src/per/i2c.h ****         {
  34:../libs/libDaisy/src/per/i2c.h ****             I2C_MASTER,
  35:../libs/libDaisy/src/per/i2c.h ****             I2C_SLAVE,
  36:../libs/libDaisy/src/per/i2c.h ****         };
  37:../libs/libDaisy/src/per/i2c.h **** 
  38:../libs/libDaisy/src/per/i2c.h ****         /** Specifices the internal peripheral to use (these are mapped to different pins on the ha
  39:../libs/libDaisy/src/per/i2c.h ****         enum class Peripheral
  40:../libs/libDaisy/src/per/i2c.h ****         {
  41:../libs/libDaisy/src/per/i2c.h ****             I2C_1 = 0, /**< & */
  42:../libs/libDaisy/src/per/i2c.h ****             I2C_2,     /**< & */
  43:../libs/libDaisy/src/per/i2c.h ****             I2C_3,     /**< & */
  44:../libs/libDaisy/src/per/i2c.h ****             I2C_4,     /**< & */
  45:../libs/libDaisy/src/per/i2c.h ****         };
  46:../libs/libDaisy/src/per/i2c.h **** 
  47:../libs/libDaisy/src/per/i2c.h ****         /** Rate at which the clock/data will be sent/received. The device being used will have max
  48:../libs/libDaisy/src/per/i2c.h ****          *  1MHZ Mode is currently 886kHz
  49:../libs/libDaisy/src/per/i2c.h ****          */
  50:../libs/libDaisy/src/per/i2c.h ****         enum class Speed
  51:../libs/libDaisy/src/per/i2c.h ****         {
  52:../libs/libDaisy/src/per/i2c.h ****             I2C_100KHZ, /**< & */
  53:../libs/libDaisy/src/per/i2c.h ****             I2C_400KHZ, /**< & */
  54:../libs/libDaisy/src/per/i2c.h ****             I2C_1MHZ,   /**< & */
  55:../libs/libDaisy/src/per/i2c.h ****         };
  56:../libs/libDaisy/src/per/i2c.h **** 
  57:../libs/libDaisy/src/per/i2c.h ****         Peripheral periph; /**< & */
ARM GAS  C:\Users\matte\AppData\Local\Temp\ccgZTizB.s 			page 13


  58:../libs/libDaisy/src/per/i2c.h ****         struct
  59:../libs/libDaisy/src/per/i2c.h ****         {
  60:../libs/libDaisy/src/per/i2c.h ****             Pin scl;  /**< & */
  61:../libs/libDaisy/src/per/i2c.h ****             Pin sda;  /**< & */
  62:../libs/libDaisy/src/per/i2c.h ****         } pin_config; /**< & */
  63:../libs/libDaisy/src/per/i2c.h **** 
  64:../libs/libDaisy/src/per/i2c.h ****         Speed speed; /**< & */
  65:../libs/libDaisy/src/per/i2c.h ****         Mode  mode;  /**< & */
  66:../libs/libDaisy/src/per/i2c.h ****         // 0x10 is chosen as a default to avoid conflicts with reserved addresses
  67:../libs/libDaisy/src/per/i2c.h ****         uint8_t address = 0x10; /**< & */
  68:../libs/libDaisy/src/per/i2c.h ****     };
  69:../libs/libDaisy/src/per/i2c.h **** 
  70:../libs/libDaisy/src/per/i2c.h ****     /** Return values for I2C functions. */
  71:../libs/libDaisy/src/per/i2c.h ****     enum class Result
  72:../libs/libDaisy/src/per/i2c.h ****     {
  73:../libs/libDaisy/src/per/i2c.h ****         OK, /**< & */
  74:../libs/libDaisy/src/per/i2c.h ****         ERR /**< & */
  75:../libs/libDaisy/src/per/i2c.h ****     };
  76:../libs/libDaisy/src/per/i2c.h **** 
  77:../libs/libDaisy/src/per/i2c.h ****     enum class Direction
  78:../libs/libDaisy/src/per/i2c.h ****     {
  79:../libs/libDaisy/src/per/i2c.h ****         TRANSMIT, /**< & */
  80:../libs/libDaisy/src/per/i2c.h ****         RECEIVE,  /**< & */
  81:../libs/libDaisy/src/per/i2c.h ****     };
  82:../libs/libDaisy/src/per/i2c.h **** 
  83:../libs/libDaisy/src/per/i2c.h ****     I2CHandle() : pimpl_(nullptr) {}
 284              		.loc 4 83 5 view .LVU58
 285              		.loc 4 83 5 is_stmt 0 view .LVU59
 286              	.LBE241:
 287              	.LBB242:
 288              	.LBI228:
  34:../libs/libDaisy/src/dev/mpr121.h ****         {
 289              		.loc 2 34 9 is_stmt 1 view .LVU60
 290              	.LBB237:
 291              	.LBB230:
 292              	.LBI230:
 293              		.loc 3 204 15 view .LVU61
 294              		.loc 3 204 15 is_stmt 0 view .LVU62
 295              	.LBE230:
 296              	.LBB231:
 297              	.LBI231:
 298              		.loc 3 204 15 is_stmt 1 view .LVU63
 299              		.loc 3 204 15 is_stmt 0 view .LVU64
 300              	.LBE231:
  36:../libs/libDaisy/src/dev/mpr121.h ****             speed  = I2CHandle::Config::Speed::I2C_400KHZ;
 301              		.loc 2 36 13 is_stmt 1 view .LVU65
  37:../libs/libDaisy/src/dev/mpr121.h **** 
 302              		.loc 2 37 13 view .LVU66
  39:../libs/libDaisy/src/dev/mpr121.h ****             sda = Pin(PORTB, 9);
 303              		.loc 2 39 13 view .LVU67
 304              	.LBB232:
 305              	.LBI232:
 201:../libs/libDaisy/src/daisy_core.h **** 
 306              		.loc 3 201 15 view .LVU68
 201:../libs/libDaisy/src/daisy_core.h **** 
 307              		.loc 3 201 15 is_stmt 0 view .LVU69
 308              	.LBE232:
ARM GAS  C:\Users\matte\AppData\Local\Temp\ccgZTizB.s 			page 14


  40:../libs/libDaisy/src/dev/mpr121.h **** 
 309              		.loc 2 40 13 is_stmt 1 view .LVU70
 310              	.LBB233:
 311              	.LBI233:
 201:../libs/libDaisy/src/daisy_core.h **** 
 312              		.loc 3 201 15 view .LVU71
 201:../libs/libDaisy/src/daisy_core.h **** 
 313              		.loc 3 201 15 is_stmt 0 view .LVU72
 314              	.LBE233:
  42:../libs/libDaisy/src/dev/mpr121.h ****         }
 315              		.loc 2 42 13 is_stmt 1 view .LVU73
  42:../libs/libDaisy/src/dev/mpr121.h ****         }
 316              		.loc 2 42 13 is_stmt 0 view .LVU74
 317              	.LBE237:
 318              	.LBE242:
 319              	.LBE266:
 320              	.LBE274:
 321              		.loc 1 6 36 view .LVU75
 322 0046 FFF7FEFF 		bl	_ZN3IIRC1Ev
 323              	.LVL6:
 324 004a 05F19C00 		add	r0, r5, #156
 325 004e FFF7FEFF 		bl	_ZN2MFC1Ev
 326              	.LVL7:
 327 0052 4FF08040 		mov	r0, #1073741824
 328 0056 4FF07E52 		mov	r2, #1065353216
 329 005a 0023     		movs	r3, #0
 330 005c C5F8C000 		str	r0, [r5, #192]	@ float
 331 0060 4FF0FF30 		mov	r0, #-1
 332 0064 C5F8C420 		str	r2, [r5, #196]	@ float
 333 0068 05F5E47C 		add	ip, r5, #456
 334 006c 394A     		ldr	r2, .L4+4
 335 006e 3A49     		ldr	r1, .L4+8
 336 0070 C5F8B800 		str	r0, [r5, #184]
 337 0074 40F20470 		movw	r0, #1796
 338 0078 85F8B440 		strb	r4, [r5, #180]
 339 007c 0C46     		mov	r4, r1
 340 007e C5F8BC30 		str	r3, [r5, #188]	@ float
 341 0082 05F5A271 		add	r1, r5, #324
 342 0086 C5F8CC30 		str	r3, [r5, #204]	@ float
 343 008a 04F11C09 		add	r9, r4, #28
 344 008e C5F8D830 		str	r3, [r5, #216]	@ float
 345 0092 0E46     		mov	r6, r1
 346 0094 C5F8D020 		str	r2, [r5, #208]	@ float
 347 0098 04F13807 		add	r7, r4, #56
 348 009c C5F8D420 		str	r2, [r5, #212]	@ float
 349 00a0 05F5CC72 		add	r2, r5, #408
 350 00a4 C5F8DC30 		str	r3, [r5, #220]	@ float
 351 00a8 05F5BE73 		add	r3, r5, #380
 352 00ac A5F8C800 		strh	r0, [r5, #200]	@ movhi
 353 00b0 04F1B400 		add	r0, r4, #180
 354 00b4 0193     		str	r3, [sp, #4]
 355 00b6 04F15403 		add	r3, r4, #84
 356 00ba 0292     		str	r2, [sp, #8]
 357 00bc 05F5FC72 		add	r2, r5, #504
 358 00c0 0393     		str	r3, [sp, #12]
 359 00c2 04F1700B 		add	fp, r4, #112
 360 00c6 0590     		str	r0, [sp, #20]
ARM GAS  C:\Users\matte\AppData\Local\Temp\ccgZTizB.s 			page 15


 361 00c8 04F1840E 		add	lr, r4, #132
 362 00cc 0492     		str	r2, [sp, #16]
 363 00ce 0FCC     		ldmia	r4!, {r0, r1, r2, r3}
 364 00d0 0FC6     		stmia	r6!, {r0, r1, r2, r3}
 365 00d2 94E80700 		ldm	r4, {r0, r1, r2}
 366 00d6 86E80700 		stm	r6, {r0, r1, r2}
 367 00da B9E80F00 		ldmia	r9!, {r0, r1, r2, r3}
 368 00de A8E80F00 		stmia	r8!, {r0, r1, r2, r3}
 369 00e2 99E80700 		ldm	r9, {r0, r1, r2}
 370 00e6 019C     		ldr	r4, [sp, #4]
 371 00e8 88E80700 		stm	r8, {r0, r1, r2}
 372 00ec 0FCF     		ldmia	r7!, {r0, r1, r2, r3}
 373 00ee 0FC4     		stmia	r4!, {r0, r1, r2, r3}
 374 00f0 039B     		ldr	r3, [sp, #12]
 375 00f2 97E80700 		ldm	r7, {r0, r1, r2}
 376 00f6 1E46     		mov	r6, r3
 377 00f8 84E80700 		stm	r4, {r0, r1, r2}
 378 00fc 0FCE     		ldmia	r6!, {r0, r1, r2, r3}
 379 00fe 029C     		ldr	r4, [sp, #8]
 380 0100 2746     		mov	r7, r4
 381 0102 0FC7     		stmia	r7!, {r0, r1, r2, r3}
 382 0104 96E80700 		ldm	r6, {r0, r1, r2}
 383 0108 87E80700 		stm	r7, {r0, r1, r2}
 384 010c BBE80F00 		ldmia	fp!, {r0, r1, r2, r3}
 385 0110 AAE80F00 		stmia	r10!, {r0, r1, r2, r3}
 386 0114 DBF80030 		ldr	r3, [fp]
 387 0118 CAF80030 		str	r3, [r10]
 388 011c BEE80F00 		ldmia	lr!, {r0, r1, r2, r3}
 389 0120 ACE80F00 		stmia	ip!, {r0, r1, r2, r3}
 390 0124 BEE80F00 		ldmia	lr!, {r0, r1, r2, r3}
 391 0128 ACE80F00 		stmia	ip!, {r0, r1, r2, r3}
 392 012c 9EE80F00 		ldm	lr, {r0, r1, r2, r3}
 393 0130 8CE80F00 		stm	ip, {r0, r1, r2, r3}
 394 0134 0598     		ldr	r0, [sp, #20]
 395 0136 049C     		ldr	r4, [sp, #16]
 396 0138 0646     		mov	r6, r0
 397 013a 0FCE     		ldmia	r6!, {r0, r1, r2, r3}
 398 013c 0FC4     		stmia	r4!, {r0, r1, r2, r3}
 399 013e 96E80300 		ldm	r6, {r0, r1}
 400 0142 84E80300 		stm	r4, {r0, r1}
 401              	.LBE276:
 402              		.loc 1 6 39 view .LVU76
 403 0146 2846     		mov	r0, r5
 404 0148 07B0     		add	sp, sp, #28
 405              		.cfi_def_cfa_offset 36
 406              		@ sp needed
 407 014a BDE8F08F 		pop	{r4, r5, r6, r7, r8, r9, r10, fp, pc}
 408              	.LVL8:
 409              	.L5:
 410              		.loc 1 6 39 view .LVU77
 411 014e 00BF     		.align	2
 412              	.L4:
 413 0150 01080109 		.word	151062529
 414 0154 00004842 		.word	1112014848
 415 0158 00000000 		.word	.LANCHOR0
 416              		.cfi_endproc
 417              	.LFE4985:
ARM GAS  C:\Users\matte\AppData\Local\Temp\ccgZTizB.s 			page 16


 419              		.global	_ZN16PlantConditionerC1Ev
 420              		.thumb_set _ZN16PlantConditionerC1Ev,_ZN16PlantConditionerC2Ev
 421              		.section	.text._ZN16PlantConditionerD2Ev,"ax",%progbits
 422              		.align	1
 423              		.p2align 2,,3
 424              		.global	_ZN16PlantConditionerD2Ev
 425              		.syntax unified
 426              		.thumb
 427              		.thumb_func
 428              		.fpu fpv5-d16
 430              	_ZN16PlantConditionerD2Ev:
 431              	.LVL9:
 432              	.LFB4988:
   7:PSP/PlantConditioner.cpp **** PlantConditioner::~PlantConditioner() {}
 433              		.loc 1 7 1 is_stmt 1 view -0
 434              		.cfi_startproc
 435              		@ args = 0, pretend = 0, frame = 0
 436              		@ frame_needed = 0, uses_anonymous_args = 0
 437              		.loc 1 7 1 is_stmt 0 view .LVU79
 438 0000 10B5     		push	{r4, lr}
 439              		.cfi_def_cfa_offset 8
 440              		.cfi_offset 4, -8
 441              		.cfi_offset 14, -4
 442              		.loc 1 7 1 view .LVU80
 443 0002 0446     		mov	r4, r0
 444              	.LBB277:
 445              		.loc 1 7 37 view .LVU81
 446 0004 9C30     		adds	r0, r0, #156
 447              	.LVL10:
 448              		.loc 1 7 37 view .LVU82
 449 0006 FFF7FEFF 		bl	_ZN2MFD1Ev
 450              	.LVL11:
 451 000a 04F15400 		add	r0, r4, #84
 452 000e FFF7FEFF 		bl	_ZN3IIRD1Ev
 453              	.LVL12:
 454              	.LBB278:
 455              	.LBI278:
  91:../libs/libDaisy/src/dev/mpr121.h **** 
 456              		.loc 2 91 5 is_stmt 1 view .LVU83
 457              	.LBB279:
 458              	.LBI279:
  21:../libs/libDaisy/src/dev/mpr121.h **** 
 459              		.loc 2 21 5 view .LVU84
  21:../libs/libDaisy/src/dev/mpr121.h **** 
 460              		.loc 2 21 5 is_stmt 0 view .LVU85
 461              	.LBE279:
 462              	.LBE278:
 463              	.LBE277:
 464              		.loc 1 7 40 view .LVU86
 465 0012 2046     		mov	r0, r4
 466 0014 10BD     		pop	{r4, pc}
 467              		.loc 1 7 40 view .LVU87
 468              		.cfi_endproc
 469              	.LFE4988:
 471              		.global	_ZN16PlantConditionerD1Ev
 472              		.thumb_set _ZN16PlantConditionerD1Ev,_ZN16PlantConditionerD2Ev
 473 0016 00BF     		.section	.text._ZN16PlantConditioner4InitEN3IIR10FilterTypeEPN5daisy9DaisySeedE,"ax",%progbits
ARM GAS  C:\Users\matte\AppData\Local\Temp\ccgZTizB.s 			page 17


 474              		.align	1
 475              		.p2align 2,,3
 476              		.global	_ZN16PlantConditioner4InitEN3IIR10FilterTypeEPN5daisy9DaisySeedE
 477              		.syntax unified
 478              		.thumb
 479              		.thumb_func
 480              		.fpu fpv5-d16
 482              	_ZN16PlantConditioner4InitEN3IIR10FilterTypeEPN5daisy9DaisySeedE:
 483              	.LVL13:
 484              	.LFB4990:
   8:PSP/PlantConditioner.cpp **** 
   9:PSP/PlantConditioner.cpp **** void PlantConditioner::Init(IIR::FilterType filter_type, daisy::DaisySeed* hw) {
 485              		.loc 1 9 80 is_stmt 1 view -0
 486              		.cfi_startproc
 487              		@ args = 0, pretend = 0, frame = 72
 488              		@ frame_needed = 0, uses_anonymous_args = 0
  10:PSP/PlantConditioner.cpp ****     
  11:PSP/PlantConditioner.cpp ****     _hw = hw;
 489              		.loc 1 11 5 view .LVU89
   9:PSP/PlantConditioner.cpp ****     
 490              		.loc 1 9 80 is_stmt 0 view .LVU90
 491 0000 2DE9F04F 		push	{r4, r5, r6, r7, r8, r9, r10, fp, lr}
 492              		.cfi_def_cfa_offset 36
 493              		.cfi_offset 4, -36
 494              		.cfi_offset 5, -32
 495              		.cfi_offset 6, -28
 496              		.cfi_offset 7, -24
 497              		.cfi_offset 8, -20
 498              		.cfi_offset 9, -16
 499              		.cfi_offset 10, -12
 500              		.cfi_offset 11, -8
 501              		.cfi_offset 14, -4
 502 0004 0446     		mov	r4, r0
 503 0006 95B0     		sub	sp, sp, #84
 504              		.cfi_def_cfa_offset 120
  12:PSP/PlantConditioner.cpp **** 
  13:PSP/PlantConditioner.cpp ****     _mpr121ObjConf.transport_config.speed = daisy::I2CHandle::Config::Speed::I2C_400KHZ;
 505              		.loc 1 13 43 view .LVU91
 506 0008 4FF00108 		mov	r8, #1
  11:PSP/PlantConditioner.cpp **** 
 507              		.loc 1 11 9 view .LVU92
 508 000c 0260     		str	r2, [r0]
 509              		.loc 1 13 5 is_stmt 1 view .LVU93
  14:PSP/PlantConditioner.cpp ****     if (_cap.Init(_mpr121ObjConf) != daisy::Mpr121I2C::Result::OK)
 510              		.loc 1 14 5 view .LVU94
 511              	.LVL14:
   9:PSP/PlantConditioner.cpp ****     
 512              		.loc 1 9 80 is_stmt 0 view .LVU95
 513 000e 0391     		str	r1, [sp, #12]
 514 0010 0EAD     		add	r5, sp, #56
  13:PSP/PlantConditioner.cpp ****     if (_cap.Init(_mpr121ObjConf) != daisy::Mpr121I2C::Result::OK)
 515              		.loc 1 13 43 view .LVU96
 516 0012 C0F80880 		str	r8, [r0, #8]
 517              	.LBB716:
 518              	.LBB717:
 102:../libs/libDaisy/src/dev/mpr121.h ****             release_threshold = MPR121_RELEASE_THRESHOLD_DEFAULT;
 103:../libs/libDaisy/src/dev/mpr121.h ****         }
ARM GAS  C:\Users\matte\AppData\Local\Temp\ccgZTizB.s 			page 18


 104:../libs/libDaisy/src/dev/mpr121.h ****     };
 105:../libs/libDaisy/src/dev/mpr121.h **** 
 106:../libs/libDaisy/src/dev/mpr121.h ****     enum Result
 107:../libs/libDaisy/src/dev/mpr121.h ****     {
 108:../libs/libDaisy/src/dev/mpr121.h ****         OK = 0,
 109:../libs/libDaisy/src/dev/mpr121.h ****         ERR
 110:../libs/libDaisy/src/dev/mpr121.h ****     };
 111:../libs/libDaisy/src/dev/mpr121.h **** 
 112:../libs/libDaisy/src/dev/mpr121.h ****     /** Initialize the MPR121 device
 113:../libs/libDaisy/src/dev/mpr121.h ****         \param config Configuration settings
 114:../libs/libDaisy/src/dev/mpr121.h ****     */
 115:../libs/libDaisy/src/dev/mpr121.h ****     Result Init(Config config)
 116:../libs/libDaisy/src/dev/mpr121.h ****     {
 117:../libs/libDaisy/src/dev/mpr121.h ****         config_ = config;
 519              		.loc 2 117 9 view .LVU97
 520 0016 0DF1380B 		add	fp, sp, #56
 521 001a 4068     		ldr	r0, [r0, #4]	@ unaligned
 522              	.LVL15:
 523              		.loc 2 117 9 view .LVU98
 524 001c 04F11C0E 		add	lr, r4, #28
 525              	.LVL16:
 526              		.loc 2 117 9 view .LVU99
 527 0020 A168     		ldr	r1, [r4, #8]	@ unaligned
 528              	.LVL17:
 529              		.loc 2 117 9 view .LVU100
 530 0022 0DF1100C 		add	ip, sp, #16
 531 0026 E268     		ldr	r2, [r4, #12]	@ unaligned
 532              	.LVL18:
 533              	.LBB718:
 534              	.LBB719:
 535              	.LBB720:
 536              	.LBB721:
  66:../libs/libDaisy/src/dev/mpr121.h ****     }
 537              		.loc 2 66 40 view .LVU101
 538 0028 0A27     		movs	r7, #10
 539 002a 2369     		ldr	r3, [r4, #16]	@ unaligned
 540              	.LBE721:
 541              	.LBE720:
 542              	.LBE719:
 543              	.LBE718:
 544              	.LBB803:
 545              	.LBB804:
  49:../libs/libDaisy/src/dev/mpr121.h **** 
 546              		.loc 2 49 17 view .LVU102
 547 002c E246     		mov	r10, ip
 548              	.LBE804:
 549              	.LBE803:
 550              	.LBB817:
 551              	.LBB796:
 118:../libs/libDaisy/src/dev/mpr121.h **** 
 119:../libs/libDaisy/src/dev/mpr121.h ****         SetTransportErr(transport_.Init(config_.transport_config));
 120:../libs/libDaisy/src/dev/mpr121.h **** 
 121:../libs/libDaisy/src/dev/mpr121.h ****         // soft reset
 122:../libs/libDaisy/src/dev/mpr121.h ****         WriteRegister(MPR121_SOFTRESET, 0x63);
 123:../libs/libDaisy/src/dev/mpr121.h ****         System::Delay(1);
 124:../libs/libDaisy/src/dev/mpr121.h **** 
 125:../libs/libDaisy/src/dev/mpr121.h ****         WriteRegister(MPR121_ECR, 0x0);
ARM GAS  C:\Users\matte\AppData\Local\Temp\ccgZTizB.s 			page 19


 126:../libs/libDaisy/src/dev/mpr121.h **** 
 127:../libs/libDaisy/src/dev/mpr121.h ****         // this doesn't work for some reason...
 128:../libs/libDaisy/src/dev/mpr121.h ****         // uint8_t c = ReadRegister8(MPR121_CONFIG2);
 129:../libs/libDaisy/src/dev/mpr121.h **** 
 130:../libs/libDaisy/src/dev/mpr121.h ****         // if(c != 0x24)
 131:../libs/libDaisy/src/dev/mpr121.h ****         //     return ERR;
 132:../libs/libDaisy/src/dev/mpr121.h **** 
 133:../libs/libDaisy/src/dev/mpr121.h ****         SetThresholds(config_.touch_threshold, config_.release_threshold);
 134:../libs/libDaisy/src/dev/mpr121.h ****         WriteRegister(MPR121_MHDR, 0x01);
 135:../libs/libDaisy/src/dev/mpr121.h ****         WriteRegister(MPR121_NHDR, 0x01);
 136:../libs/libDaisy/src/dev/mpr121.h ****         WriteRegister(MPR121_NCLR, 0x0E);
 137:../libs/libDaisy/src/dev/mpr121.h ****         WriteRegister(MPR121_FDLR, 0x00);
 138:../libs/libDaisy/src/dev/mpr121.h **** 
 139:../libs/libDaisy/src/dev/mpr121.h ****         WriteRegister(MPR121_MHDF, 0x01);
 140:../libs/libDaisy/src/dev/mpr121.h ****         WriteRegister(MPR121_NHDF, 0x05);
 141:../libs/libDaisy/src/dev/mpr121.h ****         WriteRegister(MPR121_NCLF, 0x01);
 142:../libs/libDaisy/src/dev/mpr121.h ****         WriteRegister(MPR121_FDLF, 0x00);
 143:../libs/libDaisy/src/dev/mpr121.h **** 
 144:../libs/libDaisy/src/dev/mpr121.h ****         WriteRegister(MPR121_NHDT, 0x00);
 145:../libs/libDaisy/src/dev/mpr121.h ****         WriteRegister(MPR121_NCLT, 0x00);
 146:../libs/libDaisy/src/dev/mpr121.h ****         WriteRegister(MPR121_FDLT, 0x00);
 147:../libs/libDaisy/src/dev/mpr121.h **** 
 148:../libs/libDaisy/src/dev/mpr121.h ****         WriteRegister(MPR121_DEBOUNCE, 0);
 149:../libs/libDaisy/src/dev/mpr121.h ****         WriteRegister(MPR121_CONFIG1, 0x10); // default, 16uA charge current
 150:../libs/libDaisy/src/dev/mpr121.h ****         WriteRegister(MPR121_CONFIG2, 0x20); // 0.5uS encoding, 1ms period
 151:../libs/libDaisy/src/dev/mpr121.h **** 
 152:../libs/libDaisy/src/dev/mpr121.h ****         // autoconfig
 153:../libs/libDaisy/src/dev/mpr121.h ****         // WriteRegister(MPR121_AUTOCONFIG0, 0x0B);
 154:../libs/libDaisy/src/dev/mpr121.h **** 
 155:../libs/libDaisy/src/dev/mpr121.h ****         // correct values for Vdd = 3.3V
 156:../libs/libDaisy/src/dev/mpr121.h ****         // WriteRegister(MPR121_UPLIMIT, 200);     // ((Vdd - 0.7)/Vdd) * 256
 157:../libs/libDaisy/src/dev/mpr121.h ****         // WriteRegister(MPR121_TARGETLIMIT, 180); // UPLIMIT * 0.9
 158:../libs/libDaisy/src/dev/mpr121.h ****         // WriteRegister(MPR121_LOWLIMIT, 130);    // UPLIMIT * 0.65
 159:../libs/libDaisy/src/dev/mpr121.h ****         // autoconfig
 160:../libs/libDaisy/src/dev/mpr121.h **** 
 161:../libs/libDaisy/src/dev/mpr121.h ****         // enable X electrodes and start MPR121
 162:../libs/libDaisy/src/dev/mpr121.h ****         uint8_t ECR_SETTING
 163:../libs/libDaisy/src/dev/mpr121.h ****             = 0x80
 164:../libs/libDaisy/src/dev/mpr121.h ****               + 12; // 5 bits for baseline tracking & proximity disabled + X
 165:../libs/libDaisy/src/dev/mpr121.h ****                     // amount of electrodes running (12)
 166:../libs/libDaisy/src/dev/mpr121.h ****         WriteRegister(MPR121_ECR,
 167:../libs/libDaisy/src/dev/mpr121.h ****                       ECR_SETTING); // start with above ECR setting
 168:../libs/libDaisy/src/dev/mpr121.h **** 
 169:../libs/libDaisy/src/dev/mpr121.h ****         return GetTransportErr();
 170:../libs/libDaisy/src/dev/mpr121.h ****     }
 171:../libs/libDaisy/src/dev/mpr121.h **** 
 172:../libs/libDaisy/src/dev/mpr121.h ****     /** Set the touch and release thresholds for all 13 channels on the
 173:../libs/libDaisy/src/dev/mpr121.h ****         device to the passed values.
 174:../libs/libDaisy/src/dev/mpr121.h ****         \param      touch The touch threshold value from 0 to 255.
 175:../libs/libDaisy/src/dev/mpr121.h ****         \param      release The release threshold from 0 to 255.
 176:../libs/libDaisy/src/dev/mpr121.h ****     */
 177:../libs/libDaisy/src/dev/mpr121.h ****     void SetThresholds(uint8_t touch, uint8_t release)
 178:../libs/libDaisy/src/dev/mpr121.h ****     {
 179:../libs/libDaisy/src/dev/mpr121.h ****         // set all thresholds (the same)
 180:../libs/libDaisy/src/dev/mpr121.h ****         for(uint8_t i = 0; i < 12; i++)
 181:../libs/libDaisy/src/dev/mpr121.h ****         {
 182:../libs/libDaisy/src/dev/mpr121.h ****             WriteRegister(MPR121_TOUCHTH_0 + 2 * i, touch);
ARM GAS  C:\Users\matte\AppData\Local\Temp\ccgZTizB.s 			page 20


 183:../libs/libDaisy/src/dev/mpr121.h ****             WriteRegister(MPR121_RELEASETH_0 + 2 * i, release);
 184:../libs/libDaisy/src/dev/mpr121.h ****         }
 185:../libs/libDaisy/src/dev/mpr121.h ****     }
 186:../libs/libDaisy/src/dev/mpr121.h **** 
 187:../libs/libDaisy/src/dev/mpr121.h **** 
 188:../libs/libDaisy/src/dev/mpr121.h ****     /** Read the filtered data from channel t. The ADC raw data outputs
 189:../libs/libDaisy/src/dev/mpr121.h ****         run through 3 levels of digital filtering to filter out the high
 190:../libs/libDaisy/src/dev/mpr121.h ****         frequency and low frequency noise encountered. For detailed information on
 191:../libs/libDaisy/src/dev/mpr121.h ****         this filtering see page 6 of the device datasheet.
 192:../libs/libDaisy/src/dev/mpr121.h ****         \param      t the channel to read
 193:../libs/libDaisy/src/dev/mpr121.h ****         \returns    the filtered reading as a 10 bit unsigned value
 194:../libs/libDaisy/src/dev/mpr121.h ****     */
 195:../libs/libDaisy/src/dev/mpr121.h ****     uint16_t FilteredData(uint8_t t)
 196:../libs/libDaisy/src/dev/mpr121.h ****     {
 197:../libs/libDaisy/src/dev/mpr121.h ****         if(t > 12)
 198:../libs/libDaisy/src/dev/mpr121.h ****             return 0;
 199:../libs/libDaisy/src/dev/mpr121.h ****         return ReadRegister16(MPR121_FILTDATA_0L + t * 2);
 200:../libs/libDaisy/src/dev/mpr121.h ****     }
 201:../libs/libDaisy/src/dev/mpr121.h **** 
 202:../libs/libDaisy/src/dev/mpr121.h ****     /** Read the baseline value for the channel. The 3rd level filtered
 203:../libs/libDaisy/src/dev/mpr121.h ****         result is internally 10bit but only high 8 bits are readable
 204:../libs/libDaisy/src/dev/mpr121.h ****         from registers 0x1E~0x2A as the baseline value output for each channel.
 205:../libs/libDaisy/src/dev/mpr121.h ****         \param      t the channel to read.
 206:../libs/libDaisy/src/dev/mpr121.h ****         \returns    the baseline data that was read
 207:../libs/libDaisy/src/dev/mpr121.h ****     */
 208:../libs/libDaisy/src/dev/mpr121.h ****     uint16_t BaselineData(uint8_t t)
 209:../libs/libDaisy/src/dev/mpr121.h ****     {
 210:../libs/libDaisy/src/dev/mpr121.h ****         if(t > 12)
 211:../libs/libDaisy/src/dev/mpr121.h ****             return 0;
 212:../libs/libDaisy/src/dev/mpr121.h ****         uint16_t bl = ReadRegister8(MPR121_BASELINE_0 + t);
 213:../libs/libDaisy/src/dev/mpr121.h ****         return (bl << 2);
 214:../libs/libDaisy/src/dev/mpr121.h ****     }
 215:../libs/libDaisy/src/dev/mpr121.h **** 
 216:../libs/libDaisy/src/dev/mpr121.h ****     /** Read the touch status of all 13 channels as bit values in a 12 bit integer.
 217:../libs/libDaisy/src/dev/mpr121.h ****         \returns    a 12 bit integer with each bit corresponding to the touch status
 218:../libs/libDaisy/src/dev/mpr121.h ****         of a sensor. For example, if bit 0 is set then channel 0 of the
 219:../libs/libDaisy/src/dev/mpr121.h ****         device is currently deemed to be touched.
 220:../libs/libDaisy/src/dev/mpr121.h ****     */
 221:../libs/libDaisy/src/dev/mpr121.h ****     uint16_t Touched()
 222:../libs/libDaisy/src/dev/mpr121.h ****     {
 223:../libs/libDaisy/src/dev/mpr121.h ****         uint16_t t = ReadRegister16(MPR121_TOUCHSTATUS_L);
 224:../libs/libDaisy/src/dev/mpr121.h ****         return t & 0x0FFF;
 225:../libs/libDaisy/src/dev/mpr121.h ****     }
 226:../libs/libDaisy/src/dev/mpr121.h **** 
 227:../libs/libDaisy/src/dev/mpr121.h ****     /** Read the contents of an 8 bit device register.
 228:../libs/libDaisy/src/dev/mpr121.h ****         \param      reg the register address to read from
 229:../libs/libDaisy/src/dev/mpr121.h ****         \returns    the 8 bit value that was read.
 230:../libs/libDaisy/src/dev/mpr121.h ****     */
 231:../libs/libDaisy/src/dev/mpr121.h ****     uint8_t ReadRegister8(uint8_t reg)
 232:../libs/libDaisy/src/dev/mpr121.h ****     {
 233:../libs/libDaisy/src/dev/mpr121.h ****         uint8_t buff;
 234:../libs/libDaisy/src/dev/mpr121.h ****         SetTransportErr(transport_.Write(&reg, 1));
 235:../libs/libDaisy/src/dev/mpr121.h ****         SetTransportErr(transport_.Read(&buff, 1));
 236:../libs/libDaisy/src/dev/mpr121.h **** 
 237:../libs/libDaisy/src/dev/mpr121.h ****         return buff;
 238:../libs/libDaisy/src/dev/mpr121.h ****     }
 239:../libs/libDaisy/src/dev/mpr121.h **** 
ARM GAS  C:\Users\matte\AppData\Local\Temp\ccgZTizB.s 			page 21


 240:../libs/libDaisy/src/dev/mpr121.h ****     /** Read the contents of a 16 bit device register.
 241:../libs/libDaisy/src/dev/mpr121.h ****         \param      reg the register address to read from
 242:../libs/libDaisy/src/dev/mpr121.h ****         \returns    the 16 bit value that was read.
 243:../libs/libDaisy/src/dev/mpr121.h ****     */
 244:../libs/libDaisy/src/dev/mpr121.h ****     uint16_t ReadRegister16(uint8_t reg)
 245:../libs/libDaisy/src/dev/mpr121.h ****     {
 246:../libs/libDaisy/src/dev/mpr121.h ****         uint16_t buff;
 247:../libs/libDaisy/src/dev/mpr121.h ****         SetTransportErr(transport_.Write(&reg, 1));
 248:../libs/libDaisy/src/dev/mpr121.h ****         SetTransportErr(transport_.Read((uint8_t *)&buff, 2));
 249:../libs/libDaisy/src/dev/mpr121.h **** 
 250:../libs/libDaisy/src/dev/mpr121.h ****         return buff;
 251:../libs/libDaisy/src/dev/mpr121.h ****     }
 252:../libs/libDaisy/src/dev/mpr121.h **** 
 253:../libs/libDaisy/src/dev/mpr121.h ****     /** Writes 8-bits to the specified destination register
 254:../libs/libDaisy/src/dev/mpr121.h ****         \param  reg the register address to write to
 255:../libs/libDaisy/src/dev/mpr121.h ****         \param  value the value to write
 256:../libs/libDaisy/src/dev/mpr121.h ****     */
 257:../libs/libDaisy/src/dev/mpr121.h ****     void WriteRegister(uint8_t reg, uint8_t value)
 258:../libs/libDaisy/src/dev/mpr121.h ****     {
 259:../libs/libDaisy/src/dev/mpr121.h ****         // MPR121 must be put in Stop Mode to write to most registers
 260:../libs/libDaisy/src/dev/mpr121.h ****         bool stop_required = true;
 261:../libs/libDaisy/src/dev/mpr121.h **** 
 262:../libs/libDaisy/src/dev/mpr121.h ****         // first get the current set value of the MPR121_ECR register
 263:../libs/libDaisy/src/dev/mpr121.h ****         uint8_t ecr_reg = MPR121_ECR;
 264:../libs/libDaisy/src/dev/mpr121.h ****         uint8_t buff[2] = {ecr_reg, 0x00};
 552              		.loc 2 264 17 view .LVU103
 553 002e 4FF05E09 		mov	r9, #94
 554              	.LBE796:
 555              	.LBE817:
 133:../libs/libDaisy/src/dev/mpr121.h ****         WriteRegister(MPR121_MHDR, 0x01);
 556              		.loc 2 133 22 view .LVU104
 557 0032 4126     		movs	r6, #65
 558 0034 0FC5     		stmia	r5!, {r0, r1, r2, r3}
 559 0036 238B     		ldrh	r3, [r4, #24]	@ unaligned
 560 0038 6069     		ldr	r0, [r4, #20]	@ unaligned
 561 003a AB80     		strh	r3, [r5, #4]	@ unaligned
 562              	.LBE717:
 563              	.LBI716:
 115:../libs/libDaisy/src/dev/mpr121.h ****     {
 564              		.loc 2 115 12 is_stmt 1 view .LVU105
 565              	.LBB2368:
 117:../libs/libDaisy/src/dev/mpr121.h **** 
 566              		.loc 2 117 9 is_stmt 0 view .LVU106
 567 003c AB88     		ldrh	r3, [r5, #4]	@ unaligned
 568 003e 2860     		str	r0, [r5]
 119:../libs/libDaisy/src/dev/mpr121.h **** 
 569              		.loc 2 119 24 view .LVU107
 570 0040 04F13405 		add	r5, r4, #52
 571              	.LVL19:
 117:../libs/libDaisy/src/dev/mpr121.h **** 
 572              		.loc 2 117 9 view .LVU108
 573 0044 E062     		str	r0, [r4, #44]	@ unaligned
 574 0046 2386     		strh	r3, [r4, #48]	@ unaligned
 575 0048 BBE80F00 		ldmia	fp!, {r0, r1, r2, r3}
 576 004c E061     		str	r0, [r4, #28]	@ unaligned
 577 004e 2162     		str	r1, [r4, #32]	@ unaligned
 578 0050 6262     		str	r2, [r4, #36]	@ unaligned
ARM GAS  C:\Users\matte\AppData\Local\Temp\ccgZTizB.s 			page 22


 579 0052 A362     		str	r3, [r4, #40]	@ unaligned
 580 0054 BEE80F00 		ldmia	lr!, {r0, r1, r2, r3}
 581              	.LVL20:
 117:../libs/libDaisy/src/dev/mpr121.h **** 
 582              		.loc 2 117 9 view .LVU109
 583 0058 ACE80F00 		stmia	ip!, {r0, r1, r2, r3}
 584              	.LBB818:
 585              	.LBB814:
 586              	.LBB805:
 587              	.LBB806:
  29:../libs/libDaisy/src/per/i2c.h ****     {
 588              		.loc 4 29 12 view .LVU110
 589 005c 4FF01003 		mov	r3, #16
 590              	.LBE806:
 591              	.LBE805:
  53:../libs/libDaisy/src/dev/mpr121.h ****         i2c_conf.speed  = config.speed;
 592              		.loc 2 53 25 view .LVU111
 593 0060 0990     		str	r0, [sp, #36]
 594              	.LBB812:
 595              	.LBB810:
  29:../libs/libDaisy/src/per/i2c.h ****     {
 596              		.loc 4 29 12 view .LVU112
 597 0062 8DF83430 		strb	r3, [sp, #52]
 598 0066 DEF80030 		ldr	r3, [lr]
 599 006a CCF80030 		str	r3, [ip]
 600              	.LBE810:
 601              	.LBE812:
  49:../libs/libDaisy/src/dev/mpr121.h **** 
 602              		.loc 2 49 17 view .LVU113
 603 006e 84F84830 		strb	r3, [r4, #72]
  52:../libs/libDaisy/src/dev/mpr121.h ****         i2c_conf.periph = config.periph;
 604              		.loc 2 52 25 view .LVU114
 605 0072 0023     		movs	r3, #0
  49:../libs/libDaisy/src/dev/mpr121.h **** 
 606              		.loc 2 49 17 view .LVU115
 607 0074 0490     		str	r0, [sp, #16]
  54:../libs/libDaisy/src/dev/mpr121.h **** 
 608              		.loc 2 54 25 view .LVU116
 609 0076 CDE90B83 		strd	r8, r3, [sp, #44]
 610              	.LVL21:
  54:../libs/libDaisy/src/dev/mpr121.h **** 
 611              		.loc 2 54 25 view .LVU117
 612              	.LBE814:
 613              	.LBI803:
  47:../libs/libDaisy/src/dev/mpr121.h ****     {
 614              		.loc 2 47 17 is_stmt 1 view .LVU118
 615              	.LBB815:
  49:../libs/libDaisy/src/dev/mpr121.h **** 
 616              		.loc 2 49 9 view .LVU119
  51:../libs/libDaisy/src/dev/mpr121.h ****         i2c_conf.mode   = I2CHandle::Config::Mode::I2C_MASTER;
 617              		.loc 2 51 9 view .LVU120
 618              	.LBB813:
 619              	.LBI805:
  29:../libs/libDaisy/src/per/i2c.h ****     {
 620              		.loc 4 29 12 view .LVU121
 621              	.LBB811:
 622              	.LBB807:
ARM GAS  C:\Users\matte\AppData\Local\Temp\ccgZTizB.s 			page 23


 623              	.LBI807:
  59:../libs/libDaisy/src/per/i2c.h ****             Pin scl;  /**< & */
 624              		.loc 4 59 9 view .LVU122
 625              	.LBB808:
 626              	.LBI808:
 627              		.loc 3 204 15 view .LVU123
 628              		.loc 3 204 15 is_stmt 0 view .LVU124
 629              	.LBE808:
 630              	.LBB809:
 631              	.LBI809:
 632              		.loc 3 204 15 is_stmt 1 view .LVU125
 633              		.loc 3 204 15 is_stmt 0 view .LVU126
 634              	.LBE809:
 635              	.LBE807:
 636              	.LBE811:
 637              	.LBE813:
  52:../libs/libDaisy/src/dev/mpr121.h ****         i2c_conf.periph = config.periph;
 638              		.loc 2 52 9 is_stmt 1 view .LVU127
  53:../libs/libDaisy/src/dev/mpr121.h ****         i2c_conf.speed  = config.speed;
 639              		.loc 2 53 9 view .LVU128
  54:../libs/libDaisy/src/dev/mpr121.h **** 
 640              		.loc 2 54 9 view .LVU129
  56:../libs/libDaisy/src/dev/mpr121.h ****         i2c_conf.pin_config.sda = config.sda;
 641              		.loc 2 56 9 view .LVU130
  56:../libs/libDaisy/src/dev/mpr121.h ****         i2c_conf.pin_config.sda = config.sda;
 642              		.loc 2 56 33 is_stmt 0 view .LVU131
 643 007a BDF81830 		ldrh	r3, [sp, #24]
 644 007e ADF82830 		strh	r3, [sp, #40]	@ movhi
  57:../libs/libDaisy/src/dev/mpr121.h **** 
 645              		.loc 2 57 9 is_stmt 1 view .LVU132
  57:../libs/libDaisy/src/dev/mpr121.h **** 
 646              		.loc 2 57 33 is_stmt 0 view .LVU133
 647 0082 BDF81A30 		ldrh	r3, [sp, #26]
 648 0086 ADF82A30 		strh	r3, [sp, #42]	@ movhi
  59:../libs/libDaisy/src/dev/mpr121.h ****     }
 649              		.loc 2 59 9 is_stmt 1 view .LVU134
  49:../libs/libDaisy/src/dev/mpr121.h **** 
 650              		.loc 2 49 17 is_stmt 0 view .LVU135
 651 008a BAE80F00 		ldmia	r10!, {r0, r1, r2, r3}
  49:../libs/libDaisy/src/dev/mpr121.h **** 
 652              		.loc 2 49 17 view .LVU136
 653 008e A063     		str	r0, [r4, #56]	@ unaligned
  59:../libs/libDaisy/src/dev/mpr121.h ****     }
 654              		.loc 2 59 50 view .LVU137
 655 0090 2846     		mov	r0, r5
 656              	.LVL22:
  49:../libs/libDaisy/src/dev/mpr121.h **** 
 657              		.loc 2 49 17 view .LVU138
 658 0092 E163     		str	r1, [r4, #60]	@ unaligned
  59:../libs/libDaisy/src/dev/mpr121.h ****     }
 659              		.loc 2 59 50 view .LVU139
 660 0094 09A9     		add	r1, sp, #36
  49:../libs/libDaisy/src/dev/mpr121.h **** 
 661              		.loc 2 49 17 view .LVU140
 662 0096 2264     		str	r2, [r4, #64]	@ unaligned
 663              	.LBE815:
 664              	.LBE818:
ARM GAS  C:\Users\matte\AppData\Local\Temp\ccgZTizB.s 			page 24


 665              	.LBB819:
 666              	.LBB797:
 667              		.loc 2 264 17 view .LVU141
 668 0098 4FF0000A 		mov	r10, #0
 669              	.LBE797:
 670              	.LBE819:
 671              	.LBB820:
 672              	.LBB816:
  49:../libs/libDaisy/src/dev/mpr121.h **** 
 673              		.loc 2 49 17 view .LVU142
 674 009c 6364     		str	r3, [r4, #68]	@ unaligned
  59:../libs/libDaisy/src/dev/mpr121.h ****     }
 675              		.loc 2 59 50 view .LVU143
 676 009e FFF7FEFF 		bl	_ZN5daisy9I2CHandle4InitERKNS0_6ConfigE
 677              	.LVL23:
  59:../libs/libDaisy/src/dev/mpr121.h ****     }
 678              		.loc 2 59 50 view .LVU144
 679              	.LBE816:
 680              	.LBE820:
 681              	.LBB821:
 682              	.LBI821:
 265:../libs/libDaisy/src/dev/mpr121.h **** 
 266:../libs/libDaisy/src/dev/mpr121.h ****         SetTransportErr(transport_.Write(buff, 1));
 267:../libs/libDaisy/src/dev/mpr121.h **** 
 268:../libs/libDaisy/src/dev/mpr121.h ****         uint8_t ecr_backup;
 269:../libs/libDaisy/src/dev/mpr121.h ****         SetTransportErr(transport_.Read(&ecr_backup, 1));
 270:../libs/libDaisy/src/dev/mpr121.h ****         if((reg == MPR121_ECR) || ((0x73 <= reg) && (reg <= 0x7A)))
 271:../libs/libDaisy/src/dev/mpr121.h ****         {
 272:../libs/libDaisy/src/dev/mpr121.h ****             stop_required = false;
 273:../libs/libDaisy/src/dev/mpr121.h ****         }
 274:../libs/libDaisy/src/dev/mpr121.h **** 
 275:../libs/libDaisy/src/dev/mpr121.h ****         if(stop_required)
 276:../libs/libDaisy/src/dev/mpr121.h ****         {
 277:../libs/libDaisy/src/dev/mpr121.h ****             // clear this register to set stop mode
 278:../libs/libDaisy/src/dev/mpr121.h ****             SetTransportErr(transport_.Write(buff, 2));
 279:../libs/libDaisy/src/dev/mpr121.h ****         }
 280:../libs/libDaisy/src/dev/mpr121.h **** 
 281:../libs/libDaisy/src/dev/mpr121.h ****         buff[0] = reg;
 282:../libs/libDaisy/src/dev/mpr121.h ****         buff[1] = value;
 283:../libs/libDaisy/src/dev/mpr121.h ****         SetTransportErr(transport_.Write(buff, 2));
 284:../libs/libDaisy/src/dev/mpr121.h **** 
 285:../libs/libDaisy/src/dev/mpr121.h ****         if(stop_required)
 286:../libs/libDaisy/src/dev/mpr121.h ****         {
 287:../libs/libDaisy/src/dev/mpr121.h ****             // write back the previous set ECR settings
 288:../libs/libDaisy/src/dev/mpr121.h ****             buff[0] = ecr_reg;
 289:../libs/libDaisy/src/dev/mpr121.h ****             buff[1] = ecr_backup;
 290:../libs/libDaisy/src/dev/mpr121.h ****             SetTransportErr(transport_.Write(buff, 2));
 291:../libs/libDaisy/src/dev/mpr121.h ****         }
 292:../libs/libDaisy/src/dev/mpr121.h ****     }
 293:../libs/libDaisy/src/dev/mpr121.h **** 
 294:../libs/libDaisy/src/dev/mpr121.h ****     /** Device register map */
 295:../libs/libDaisy/src/dev/mpr121.h ****     enum RegMap
 296:../libs/libDaisy/src/dev/mpr121.h ****     {
 297:../libs/libDaisy/src/dev/mpr121.h ****         MPR121_TOUCHSTATUS_L = 0x00,
 298:../libs/libDaisy/src/dev/mpr121.h ****         MPR121_TOUCHSTATUS_H = 0x01,
 299:../libs/libDaisy/src/dev/mpr121.h ****         MPR121_FILTDATA_0L   = 0x04,
 300:../libs/libDaisy/src/dev/mpr121.h ****         MPR121_FILTDATA_0H   = 0x05,
ARM GAS  C:\Users\matte\AppData\Local\Temp\ccgZTizB.s 			page 25


 301:../libs/libDaisy/src/dev/mpr121.h ****         MPR121_BASELINE_0    = 0x1E,
 302:../libs/libDaisy/src/dev/mpr121.h ****         MPR121_MHDR          = 0x2B,
 303:../libs/libDaisy/src/dev/mpr121.h ****         MPR121_NHDR          = 0x2C,
 304:../libs/libDaisy/src/dev/mpr121.h ****         MPR121_NCLR          = 0x2D,
 305:../libs/libDaisy/src/dev/mpr121.h ****         MPR121_FDLR          = 0x2E,
 306:../libs/libDaisy/src/dev/mpr121.h ****         MPR121_MHDF          = 0x2F,
 307:../libs/libDaisy/src/dev/mpr121.h ****         MPR121_NHDF          = 0x30,
 308:../libs/libDaisy/src/dev/mpr121.h ****         MPR121_NCLF          = 0x31,
 309:../libs/libDaisy/src/dev/mpr121.h ****         MPR121_FDLF          = 0x32,
 310:../libs/libDaisy/src/dev/mpr121.h ****         MPR121_NHDT          = 0x33,
 311:../libs/libDaisy/src/dev/mpr121.h ****         MPR121_NCLT          = 0x34,
 312:../libs/libDaisy/src/dev/mpr121.h ****         MPR121_FDLT          = 0x35,
 313:../libs/libDaisy/src/dev/mpr121.h **** 
 314:../libs/libDaisy/src/dev/mpr121.h ****         MPR121_TOUCHTH_0    = 0x41,
 315:../libs/libDaisy/src/dev/mpr121.h ****         MPR121_RELEASETH_0  = 0x42,
 316:../libs/libDaisy/src/dev/mpr121.h ****         MPR121_DEBOUNCE     = 0x5B,
 317:../libs/libDaisy/src/dev/mpr121.h ****         MPR121_CONFIG1      = 0x5C,
 318:../libs/libDaisy/src/dev/mpr121.h ****         MPR121_CONFIG2      = 0x5D,
 319:../libs/libDaisy/src/dev/mpr121.h ****         MPR121_CHARGECURR_0 = 0x5F,
 320:../libs/libDaisy/src/dev/mpr121.h ****         MPR121_CHARGETIME_1 = 0x6C,
 321:../libs/libDaisy/src/dev/mpr121.h ****         MPR121_ECR          = 0x5E,
 322:../libs/libDaisy/src/dev/mpr121.h ****         MPR121_AUTOCONFIG0  = 0x7B,
 323:../libs/libDaisy/src/dev/mpr121.h ****         MPR121_AUTOCONFIG1  = 0x7C,
 324:../libs/libDaisy/src/dev/mpr121.h ****         MPR121_UPLIMIT      = 0x7D,
 325:../libs/libDaisy/src/dev/mpr121.h ****         MPR121_LOWLIMIT     = 0x7E,
 326:../libs/libDaisy/src/dev/mpr121.h ****         MPR121_TARGETLIMIT  = 0x7F,
 327:../libs/libDaisy/src/dev/mpr121.h **** 
 328:../libs/libDaisy/src/dev/mpr121.h ****         MPR121_GPIODIR    = 0x76,
 329:../libs/libDaisy/src/dev/mpr121.h ****         MPR121_GPIOEN     = 0x77,
 330:../libs/libDaisy/src/dev/mpr121.h ****         MPR121_GPIOSET    = 0x78,
 331:../libs/libDaisy/src/dev/mpr121.h ****         MPR121_GPIOCLR    = 0x79,
 332:../libs/libDaisy/src/dev/mpr121.h ****         MPR121_GPIOTOGGLE = 0x7A,
 333:../libs/libDaisy/src/dev/mpr121.h **** 
 334:../libs/libDaisy/src/dev/mpr121.h ****         MPR121_SOFTRESET = 0x80,
 335:../libs/libDaisy/src/dev/mpr121.h ****     };
 336:../libs/libDaisy/src/dev/mpr121.h **** 
 337:../libs/libDaisy/src/dev/mpr121.h ****   private:
 338:../libs/libDaisy/src/dev/mpr121.h ****     Config    config_;
 339:../libs/libDaisy/src/dev/mpr121.h ****     Transport transport_;
 340:../libs/libDaisy/src/dev/mpr121.h ****     bool      transport_error_;
 341:../libs/libDaisy/src/dev/mpr121.h **** 
 342:../libs/libDaisy/src/dev/mpr121.h ****     /** Set the global transport_error_ bool */
 343:../libs/libDaisy/src/dev/mpr121.h ****     void SetTransportErr(bool err) { transport_error_ |= err; }
 683              		.loc 2 343 10 is_stmt 1 view .LVU145
 684              	.LBE821:
 685              	.LBB825:
 686              	.LBB798:
 687              	.LBB727:
 688              	.LBB722:
  66:../libs/libDaisy/src/dev/mpr121.h ****     }
 689              		.loc 2 66 40 is_stmt 0 view .LVU146
 690 00a2 0097     		str	r7, [sp]
 691              	.LBE722:
 692              	.LBE727:
 693              	.LBE798:
 694              	.LBE825:
 695              	.LBB826:
ARM GAS  C:\Users\matte\AppData\Local\Temp\ccgZTizB.s 			page 26


 696              	.LBB822:
 697              		.loc 2 343 55 view .LVU147
 698 00a4 94F84C30 		ldrb	r3, [r4, #76]	@ zero_extendqisi2
 699              	.LBE822:
 700              	.LBE826:
 701              	.LBB827:
 702              	.LBB799:
 703              	.LBB728:
 704              	.LBB723:
  66:../libs/libDaisy/src/dev/mpr121.h ****     }
 705              		.loc 2 66 40 view .LVU148
 706 00a8 09AA     		add	r2, sp, #36
 707 00aa 94F84810 		ldrb	r1, [r4, #72]	@ zero_extendqisi2
 708              	.LBE723:
 709              	.LBE728:
 710              	.LBE799:
 711              	.LBE827:
 712              	.LBB828:
 713              	.LBB823:
 714              		.loc 2 343 55 view .LVU149
 715 00ae 0028     		cmp	r0, #0
 716 00b0 18BF     		it	ne
 717 00b2 43F00103 		orrne	r3, r3, #1
 718              	.LBE823:
 719              	.LBE828:
 720              	.LBB829:
 721              	.LBB800:
 722              	.LBB729:
 723              	.LBB724:
  66:../libs/libDaisy/src/dev/mpr121.h ****     }
 724              		.loc 2 66 40 view .LVU150
 725 00b6 2846     		mov	r0, r5
 726              	.LVL24:
  66:../libs/libDaisy/src/dev/mpr121.h ****     }
 727              		.loc 2 66 40 view .LVU151
 728              	.LBE724:
 729              	.LBE729:
 264:../libs/libDaisy/src/dev/mpr121.h **** 
 730              		.loc 2 264 17 view .LVU152
 731 00b8 8DF825A0 		strb	r10, [sp, #37]
 732              	.LBE800:
 733              	.LBE829:
 734              	.LBB830:
 735              	.LBB824:
 736              		.loc 2 343 55 view .LVU153
 737 00bc 84F84C30 		strb	r3, [r4, #76]
 738              	.LVL25:
 739              		.loc 2 343 55 view .LVU154
 740              	.LBE824:
 741              	.LBE830:
 742              	.LBB831:
 743              	.LBI718:
 257:../libs/libDaisy/src/dev/mpr121.h ****     {
 744              		.loc 2 257 10 is_stmt 1 view .LVU155
 745              	.LBB801:
 746              	.LBB730:
 747              	.LBI720:
ARM GAS  C:\Users\matte\AppData\Local\Temp\ccgZTizB.s 			page 27


  63:../libs/libDaisy/src/dev/mpr121.h ****     {
 748              		.loc 2 63 10 view .LVU156
 749              	.LBB725:
  65:../libs/libDaisy/src/dev/mpr121.h ****                != i2c_.TransmitBlocking(config_.dev_addr, data, size, 10);
 750              		.loc 2 65 9 view .LVU157
  66:../libs/libDaisy/src/dev/mpr121.h ****     }
 751              		.loc 2 66 40 is_stmt 0 view .LVU158
 752 00c0 4346     		mov	r3, r8
 753              	.LBE725:
 754              	.LBE730:
 264:../libs/libDaisy/src/dev/mpr121.h **** 
 755              		.loc 2 264 17 view .LVU159
 756 00c2 8DF82490 		strb	r9, [sp, #36]
 757              	.LBB731:
 758              	.LBB726:
  66:../libs/libDaisy/src/dev/mpr121.h ****     }
 759              		.loc 2 66 40 view .LVU160
 760 00c6 FFF7FEFF 		bl	_ZN5daisy9I2CHandle16TransmitBlockingEtPhtm
 761              	.LVL26:
  66:../libs/libDaisy/src/dev/mpr121.h ****     }
 762              		.loc 2 66 40 view .LVU161
 763              	.LBE726:
 764              	.LBE731:
 765              	.LBB732:
 766              	.LBI732:
 767              		.loc 2 343 10 is_stmt 1 view .LVU162
 768              	.LBE732:
 769              	.LBB736:
 770              	.LBB737:
  73:../libs/libDaisy/src/dev/mpr121.h ****     }
 771              		.loc 2 73 39 is_stmt 0 view .LVU163
 772 00ca 0097     		str	r7, [sp]
 773 00cc 04AA     		add	r2, sp, #16
 774              	.LBE737:
 775              	.LBE736:
 776              	.LBB741:
 777              	.LBB733:
 778              		.loc 2 343 55 view .LVU164
 779 00ce 94F84C30 		ldrb	r3, [r4, #76]	@ zero_extendqisi2
 780              	.LBE733:
 781              	.LBE741:
 782              	.LBB742:
 783              	.LBB738:
  73:../libs/libDaisy/src/dev/mpr121.h ****     }
 784              		.loc 2 73 39 view .LVU165
 785 00d2 94F84810 		ldrb	r1, [r4, #72]	@ zero_extendqisi2
 786              	.LBE738:
 787              	.LBE742:
 788              	.LBB743:
 789              	.LBB734:
 790              		.loc 2 343 55 view .LVU166
 791 00d6 0028     		cmp	r0, #0
 792 00d8 18BF     		it	ne
 793 00da 43F00103 		orrne	r3, r3, #1
 794              	.LBE734:
 795              	.LBE743:
 796              	.LBB744:
ARM GAS  C:\Users\matte\AppData\Local\Temp\ccgZTizB.s 			page 28


 797              	.LBB739:
  73:../libs/libDaisy/src/dev/mpr121.h ****     }
 798              		.loc 2 73 39 view .LVU167
 799 00de 2846     		mov	r0, r5
 800              	.LVL27:
  73:../libs/libDaisy/src/dev/mpr121.h ****     }
 801              		.loc 2 73 39 view .LVU168
 802              	.LBE739:
 803              	.LBE744:
 804              	.LBB745:
 805              	.LBB735:
 806              		.loc 2 343 55 view .LVU169
 807 00e0 84F84C30 		strb	r3, [r4, #76]
 808              	.LVL28:
 809              		.loc 2 343 55 view .LVU170
 810              	.LBE735:
 811              	.LBE745:
 812              	.LBB746:
 813              	.LBI736:
  70:../libs/libDaisy/src/dev/mpr121.h ****     {
 814              		.loc 2 70 10 is_stmt 1 view .LVU171
 815              	.LBB740:
  72:../libs/libDaisy/src/dev/mpr121.h ****                != i2c_.ReceiveBlocking(config_.dev_addr, data, size, 10);
 816              		.loc 2 72 9 view .LVU172
  73:../libs/libDaisy/src/dev/mpr121.h ****     }
 817              		.loc 2 73 39 is_stmt 0 view .LVU173
 818 00e4 4346     		mov	r3, r8
 819 00e6 FFF7FEFF 		bl	_ZN5daisy9I2CHandle15ReceiveBlockingEtPhtm
 820              	.LVL29:
  73:../libs/libDaisy/src/dev/mpr121.h ****     }
 821              		.loc 2 73 39 view .LVU174
 822              	.LBE740:
 823              	.LBE746:
 824              	.LBB747:
 825              	.LBI747:
 826              		.loc 2 343 10 is_stmt 1 view .LVU175
 827              	.LBE747:
 828              	.LBB751:
 829              	.LBB752:
  66:../libs/libDaisy/src/dev/mpr121.h ****     }
 830              		.loc 2 66 40 is_stmt 0 view .LVU176
 831 00ea 0097     		str	r7, [sp]
 832              	.LBE752:
 833              	.LBE751:
 834              	.LBB756:
 835              	.LBB748:
 836              		.loc 2 343 55 view .LVU177
 837 00ec 94F84C30 		ldrb	r3, [r4, #76]	@ zero_extendqisi2
 838              	.LBE748:
 839              	.LBE756:
 840              	.LBB757:
 841              	.LBB753:
  66:../libs/libDaisy/src/dev/mpr121.h ****     }
 842              		.loc 2 66 40 view .LVU178
 843 00f0 09AA     		add	r2, sp, #36
 844 00f2 94F84810 		ldrb	r1, [r4, #72]	@ zero_extendqisi2
 845              	.LBE753:
ARM GAS  C:\Users\matte\AppData\Local\Temp\ccgZTizB.s 			page 29


 846              	.LBE757:
 847              	.LBB758:
 848              	.LBB749:
 849              		.loc 2 343 55 view .LVU179
 850 00f6 0028     		cmp	r0, #0
 851 00f8 18BF     		it	ne
 852 00fa 43F00103 		orrne	r3, r3, #1
 853              	.LBE749:
 854              	.LBE758:
 855              	.LBB759:
 856              	.LBB754:
  66:../libs/libDaisy/src/dev/mpr121.h ****     }
 857              		.loc 2 66 40 view .LVU180
 858 00fe 2846     		mov	r0, r5
 859              	.LVL30:
  66:../libs/libDaisy/src/dev/mpr121.h ****     }
 860              		.loc 2 66 40 view .LVU181
 861              	.LBE754:
 862              	.LBE759:
 863              	.LBB760:
 864              	.LBB750:
 865              		.loc 2 343 55 view .LVU182
 866 0100 84F84C30 		strb	r3, [r4, #76]
 867              	.LVL31:
 868              		.loc 2 343 55 view .LVU183
 869              	.LBE750:
 870              	.LBE760:
 871              	.LBB761:
 872              	.LBI751:
  63:../libs/libDaisy/src/dev/mpr121.h ****     {
 873              		.loc 2 63 10 is_stmt 1 view .LVU184
 874              	.LBB755:
  65:../libs/libDaisy/src/dev/mpr121.h ****                != i2c_.TransmitBlocking(config_.dev_addr, data, size, 10);
 875              		.loc 2 65 9 view .LVU185
  66:../libs/libDaisy/src/dev/mpr121.h ****     }
 876              		.loc 2 66 40 is_stmt 0 view .LVU186
 877 0104 0223     		movs	r3, #2
 878 0106 FFF7FEFF 		bl	_ZN5daisy9I2CHandle16TransmitBlockingEtPhtm
 879              	.LVL32:
  66:../libs/libDaisy/src/dev/mpr121.h ****     }
 880              		.loc 2 66 40 view .LVU187
 881              	.LBE755:
 882              	.LBE761:
 883              	.LBB762:
 884              	.LBI762:
 885              		.loc 2 343 10 is_stmt 1 view .LVU188
 886              	.LBE762:
 887              	.LBB766:
 888              	.LBB767:
  66:../libs/libDaisy/src/dev/mpr121.h ****     }
 889              		.loc 2 66 40 is_stmt 0 view .LVU189
 890 010a 0097     		str	r7, [sp]
 891              	.LBE767:
 892              	.LBE766:
 893              	.LBB771:
 894              	.LBB763:
 895              		.loc 2 343 55 view .LVU190
ARM GAS  C:\Users\matte\AppData\Local\Temp\ccgZTizB.s 			page 30


 896 010c 94F84C30 		ldrb	r3, [r4, #76]	@ zero_extendqisi2
 897              	.LBE763:
 898              	.LBE771:
 899              	.LBB772:
 900              	.LBB768:
  66:../libs/libDaisy/src/dev/mpr121.h ****     }
 901              		.loc 2 66 40 view .LVU191
 902 0110 09AA     		add	r2, sp, #36
 903 0112 94F84810 		ldrb	r1, [r4, #72]	@ zero_extendqisi2
 904              	.LBE768:
 905              	.LBE772:
 906              	.LBB773:
 907              	.LBB764:
 908              		.loc 2 343 55 view .LVU192
 909 0116 0028     		cmp	r0, #0
 910 0118 18BF     		it	ne
 911 011a 43F00103 		orrne	r3, r3, #1
 912              	.LBE764:
 913              	.LBE773:
 914              	.LBB774:
 915              	.LBB769:
  66:../libs/libDaisy/src/dev/mpr121.h ****     }
 916              		.loc 2 66 40 view .LVU193
 917 011e 2846     		mov	r0, r5
 918              	.LVL33:
  66:../libs/libDaisy/src/dev/mpr121.h ****     }
 919              		.loc 2 66 40 view .LVU194
 920              	.LBE769:
 921              	.LBE774:
 922              	.LBB775:
 923              	.LBB765:
 924              		.loc 2 343 55 view .LVU195
 925 0120 84F84C30 		strb	r3, [r4, #76]
 926              	.LVL34:
 927              		.loc 2 343 55 view .LVU196
 928              	.LBE765:
 929              	.LBE775:
 281:../libs/libDaisy/src/dev/mpr121.h ****         buff[1] = value;
 930              		.loc 2 281 17 view .LVU197
 931 0124 8023     		movs	r3, #128
 932 0126 8DF82430 		strb	r3, [sp, #36]
 282:../libs/libDaisy/src/dev/mpr121.h ****         SetTransportErr(transport_.Write(buff, 2));
 933              		.loc 2 282 17 view .LVU198
 934 012a 6323     		movs	r3, #99
 935 012c 8DF82530 		strb	r3, [sp, #37]
 936              	.LVL35:
 937              	.LBB776:
 938              	.LBI766:
  63:../libs/libDaisy/src/dev/mpr121.h ****     {
 939              		.loc 2 63 10 is_stmt 1 view .LVU199
 940              	.LBB770:
  65:../libs/libDaisy/src/dev/mpr121.h ****                != i2c_.TransmitBlocking(config_.dev_addr, data, size, 10);
 941              		.loc 2 65 9 view .LVU200
  66:../libs/libDaisy/src/dev/mpr121.h ****     }
 942              		.loc 2 66 40 is_stmt 0 view .LVU201
 943 0130 0223     		movs	r3, #2
 944 0132 FFF7FEFF 		bl	_ZN5daisy9I2CHandle16TransmitBlockingEtPhtm
ARM GAS  C:\Users\matte\AppData\Local\Temp\ccgZTizB.s 			page 31


 945              	.LVL36:
  66:../libs/libDaisy/src/dev/mpr121.h ****     }
 946              		.loc 2 66 40 view .LVU202
 947              	.LBE770:
 948              	.LBE776:
 949              	.LBB777:
 950              	.LBI777:
 951              		.loc 2 343 10 is_stmt 1 view .LVU203
 952              	.LBE777:
 953              	.LBB781:
 954              	.LBB782:
  66:../libs/libDaisy/src/dev/mpr121.h ****     }
 955              		.loc 2 66 40 is_stmt 0 view .LVU204
 956 0136 0097     		str	r7, [sp]
 957              	.LBE782:
 958              	.LBE781:
 959              	.LBB786:
 960              	.LBB778:
 961              		.loc 2 343 55 view .LVU205
 962 0138 94F84C30 		ldrb	r3, [r4, #76]	@ zero_extendqisi2
 963              	.LBE778:
 964              	.LBE786:
 965              	.LBB787:
 966              	.LBB783:
  66:../libs/libDaisy/src/dev/mpr121.h ****     }
 967              		.loc 2 66 40 view .LVU206
 968 013c 09AA     		add	r2, sp, #36
 969 013e 94F84810 		ldrb	r1, [r4, #72]	@ zero_extendqisi2
 970              	.LBE783:
 971              	.LBE787:
 972              	.LBB788:
 973              	.LBB779:
 974              		.loc 2 343 55 view .LVU207
 975 0142 0028     		cmp	r0, #0
 976 0144 18BF     		it	ne
 977 0146 43F00103 		orrne	r3, r3, #1
 978              	.LBE779:
 979              	.LBE788:
 980              	.LBB789:
 981              	.LBB784:
  66:../libs/libDaisy/src/dev/mpr121.h ****     }
 982              		.loc 2 66 40 view .LVU208
 983 014a 2846     		mov	r0, r5
 984              	.LVL37:
  66:../libs/libDaisy/src/dev/mpr121.h ****     }
 985              		.loc 2 66 40 view .LVU209
 986              	.LBE784:
 987              	.LBE789:
 288:../libs/libDaisy/src/dev/mpr121.h ****             buff[1] = ecr_backup;
 988              		.loc 2 288 21 view .LVU210
 989 014c 8DF82490 		strb	r9, [sp, #36]
 990              	.LBB790:
 991              	.LBB780:
 992              		.loc 2 343 55 view .LVU211
 993 0150 84F84C30 		strb	r3, [r4, #76]
 994              	.LVL38:
 995              		.loc 2 343 55 view .LVU212
ARM GAS  C:\Users\matte\AppData\Local\Temp\ccgZTizB.s 			page 32


 996              	.LBE780:
 997              	.LBE790:
 289:../libs/libDaisy/src/dev/mpr121.h ****             SetTransportErr(transport_.Write(buff, 2));
 998              		.loc 2 289 21 view .LVU213
 999 0154 9DF81030 		ldrb	r3, [sp, #16]	@ zero_extendqisi2
 1000 0158 8DF82530 		strb	r3, [sp, #37]
 1001              	.LVL39:
 1002              	.LBB791:
 1003              	.LBI781:
  63:../libs/libDaisy/src/dev/mpr121.h ****     {
 1004              		.loc 2 63 10 is_stmt 1 view .LVU214
 1005              	.LBB785:
  65:../libs/libDaisy/src/dev/mpr121.h ****                != i2c_.TransmitBlocking(config_.dev_addr, data, size, 10);
 1006              		.loc 2 65 9 view .LVU215
  66:../libs/libDaisy/src/dev/mpr121.h ****     }
 1007              		.loc 2 66 40 is_stmt 0 view .LVU216
 1008 015c 0223     		movs	r3, #2
 1009 015e FFF7FEFF 		bl	_ZN5daisy9I2CHandle16TransmitBlockingEtPhtm
 1010              	.LVL40:
  66:../libs/libDaisy/src/dev/mpr121.h ****     }
 1011              		.loc 2 66 40 view .LVU217
 1012              	.LBE785:
 1013              	.LBE791:
 1014              	.LBB792:
 1015              	.LBI792:
 1016              		.loc 2 343 10 is_stmt 1 view .LVU218
 1017              	.LBB793:
 1018              		.loc 2 343 55 is_stmt 0 view .LVU219
 1019 0162 94F84C30 		ldrb	r3, [r4, #76]	@ zero_extendqisi2
 1020 0166 0028     		cmp	r0, #0
 1021 0168 18BF     		it	ne
 1022 016a 43F00103 		orrne	r3, r3, #1
 1023              	.LBE793:
 1024              	.LBE792:
 1025              	.LBE801:
 1026              	.LBE831:
 123:../libs/libDaisy/src/dev/mpr121.h **** 
 1027              		.loc 2 123 22 view .LVU220
 1028 016e 4046     		mov	r0, r8
 1029              	.LVL41:
 1030              	.LBB832:
 1031              	.LBB802:
 1032              	.LBB795:
 1033              	.LBB794:
 1034              		.loc 2 343 55 view .LVU221
 1035 0170 84F84C30 		strb	r3, [r4, #76]
 1036              	.LVL42:
 1037              		.loc 2 343 55 view .LVU222
 1038              	.LBE794:
 1039              	.LBE795:
 1040              	.LBE802:
 1041              	.LBE832:
 123:../libs/libDaisy/src/dev/mpr121.h **** 
 1042              		.loc 2 123 22 view .LVU223
 1043 0174 FFF7FEFF 		bl	_ZN5daisy6System5DelayEm
 1044              	.LVL43:
 1045              	.LBB833:
ARM GAS  C:\Users\matte\AppData\Local\Temp\ccgZTizB.s 			page 33


 1046              	.LBI833:
 257:../libs/libDaisy/src/dev/mpr121.h ****     {
 1047              		.loc 2 257 10 is_stmt 1 view .LVU224
 1048              	.LBB834:
 1049              	.LBB835:
 1050              	.LBB836:
  66:../libs/libDaisy/src/dev/mpr121.h ****     }
 1051              		.loc 2 66 40 is_stmt 0 view .LVU225
 1052 0178 4346     		mov	r3, r8
 1053 017a 09AA     		add	r2, sp, #36
 1054 017c 0097     		str	r7, [sp]
 1055 017e 2846     		mov	r0, r5
 1056 0180 94F84810 		ldrb	r1, [r4, #72]	@ zero_extendqisi2
 1057              	.LBE836:
 1058              	.LBE835:
 264:../libs/libDaisy/src/dev/mpr121.h **** 
 1059              		.loc 2 264 17 view .LVU226
 1060 0184 8DF825A0 		strb	r10, [sp, #37]
 1061 0188 8DF82490 		strb	r9, [sp, #36]
 1062              	.LVL44:
 1063              	.LBB838:
 1064              	.LBI835:
  63:../libs/libDaisy/src/dev/mpr121.h ****     {
 1065              		.loc 2 63 10 is_stmt 1 view .LVU227
 1066              	.LBB837:
  65:../libs/libDaisy/src/dev/mpr121.h ****                != i2c_.TransmitBlocking(config_.dev_addr, data, size, 10);
 1067              		.loc 2 65 9 view .LVU228
  66:../libs/libDaisy/src/dev/mpr121.h ****     }
 1068              		.loc 2 66 40 is_stmt 0 view .LVU229
 1069 018c FFF7FEFF 		bl	_ZN5daisy9I2CHandle16TransmitBlockingEtPhtm
 1070              	.LVL45:
  66:../libs/libDaisy/src/dev/mpr121.h ****     }
 1071              		.loc 2 66 40 view .LVU230
 1072              	.LBE837:
 1073              	.LBE838:
 1074              	.LBB839:
 1075              	.LBI839:
 1076              		.loc 2 343 10 is_stmt 1 view .LVU231
 1077              	.LBE839:
 1078              	.LBB843:
 1079              	.LBB844:
  73:../libs/libDaisy/src/dev/mpr121.h ****     }
 1080              		.loc 2 73 39 is_stmt 0 view .LVU232
 1081 0190 0097     		str	r7, [sp]
 1082 0192 4346     		mov	r3, r8
 1083              	.LBE844:
 1084              	.LBE843:
 1085              	.LBB848:
 1086              	.LBB840:
 1087              		.loc 2 343 55 view .LVU233
 1088 0194 94F84C20 		ldrb	r2, [r4, #76]	@ zero_extendqisi2
 1089              	.LBE840:
 1090              	.LBE848:
 1091              	.LBB849:
 1092              	.LBB845:
  73:../libs/libDaisy/src/dev/mpr121.h ****     }
 1093              		.loc 2 73 39 view .LVU234
ARM GAS  C:\Users\matte\AppData\Local\Temp\ccgZTizB.s 			page 34


 1094 0198 94F84810 		ldrb	r1, [r4, #72]	@ zero_extendqisi2
 1095              	.LBE845:
 1096              	.LBE849:
 1097              	.LBB850:
 1098              	.LBB841:
 1099              		.loc 2 343 55 view .LVU235
 1100 019c 0028     		cmp	r0, #0
 1101 019e 18BF     		it	ne
 1102 01a0 42F00102 		orrne	r2, r2, #1
 1103              	.LBE841:
 1104              	.LBE850:
 1105              	.LBB851:
 1106              	.LBB846:
  73:../libs/libDaisy/src/dev/mpr121.h ****     }
 1107              		.loc 2 73 39 view .LVU236
 1108 01a4 2846     		mov	r0, r5
 1109              	.LVL46:
  73:../libs/libDaisy/src/dev/mpr121.h ****     }
 1110              		.loc 2 73 39 view .LVU237
 1111              	.LBE846:
 1112              	.LBE851:
 1113              	.LBB852:
 1114              	.LBB842:
 1115              		.loc 2 343 55 view .LVU238
 1116 01a6 84F84C20 		strb	r2, [r4, #76]
 1117              	.LVL47:
 1118              		.loc 2 343 55 view .LVU239
 1119              	.LBE842:
 1120              	.LBE852:
 1121              	.LBB853:
 1122              	.LBI843:
  70:../libs/libDaisy/src/dev/mpr121.h ****     {
 1123              		.loc 2 70 10 is_stmt 1 view .LVU240
 1124              	.LBB847:
  72:../libs/libDaisy/src/dev/mpr121.h ****                != i2c_.ReceiveBlocking(config_.dev_addr, data, size, 10);
 1125              		.loc 2 72 9 view .LVU241
  73:../libs/libDaisy/src/dev/mpr121.h ****     }
 1126              		.loc 2 73 39 is_stmt 0 view .LVU242
 1127 01aa 04AA     		add	r2, sp, #16
 1128              	.LVL48:
  73:../libs/libDaisy/src/dev/mpr121.h ****     }
 1129              		.loc 2 73 39 view .LVU243
 1130 01ac FFF7FEFF 		bl	_ZN5daisy9I2CHandle15ReceiveBlockingEtPhtm
 1131              	.LVL49:
  73:../libs/libDaisy/src/dev/mpr121.h ****     }
 1132              		.loc 2 73 39 view .LVU244
 1133              	.LBE847:
 1134              	.LBE853:
 1135              	.LBB854:
 1136              	.LBI854:
 1137              		.loc 2 343 10 is_stmt 1 view .LVU245
 1138              	.LBE854:
 1139              	.LBB858:
 1140              	.LBB859:
  66:../libs/libDaisy/src/dev/mpr121.h ****     }
 1141              		.loc 2 66 40 is_stmt 0 view .LVU246
 1142 01b0 0097     		str	r7, [sp]
ARM GAS  C:\Users\matte\AppData\Local\Temp\ccgZTizB.s 			page 35


 1143              	.LBE859:
 1144              	.LBE858:
 1145              	.LBB864:
 1146              	.LBB855:
 1147              		.loc 2 343 55 view .LVU247
 1148 01b2 94F84C30 		ldrb	r3, [r4, #76]	@ zero_extendqisi2
 1149              	.LBE855:
 1150              	.LBE864:
 1151              	.LBB865:
 1152              	.LBB860:
  66:../libs/libDaisy/src/dev/mpr121.h ****     }
 1153              		.loc 2 66 40 view .LVU248
 1154 01b6 09AA     		add	r2, sp, #36
 1155 01b8 94F84810 		ldrb	r1, [r4, #72]	@ zero_extendqisi2
 1156              	.LBE860:
 1157              	.LBE865:
 1158              	.LBB866:
 1159              	.LBB856:
 1160              		.loc 2 343 55 view .LVU249
 1161 01bc 0028     		cmp	r0, #0
 1162 01be 18BF     		it	ne
 1163 01c0 43F00103 		orrne	r3, r3, #1
 1164              	.LBE856:
 1165              	.LBE866:
 1166              	.LBB867:
 1167              	.LBB861:
  66:../libs/libDaisy/src/dev/mpr121.h ****     }
 1168              		.loc 2 66 40 view .LVU250
 1169 01c4 2846     		mov	r0, r5
 1170              	.LVL50:
  66:../libs/libDaisy/src/dev/mpr121.h ****     }
 1171              		.loc 2 66 40 view .LVU251
 1172              	.LBE861:
 1173              	.LBE867:
 282:../libs/libDaisy/src/dev/mpr121.h ****         SetTransportErr(transport_.Write(buff, 2));
 1174              		.loc 2 282 17 view .LVU252
 1175 01c6 8DF825A0 		strb	r10, [sp, #37]
 1176              	.LBB868:
 1177              	.LBB857:
 1178              		.loc 2 343 55 view .LVU253
 1179 01ca 84F84C30 		strb	r3, [r4, #76]
 1180              	.LVL51:
 1181              		.loc 2 343 55 view .LVU254
 1182              	.LBE857:
 1183              	.LBE868:
 1184              	.LBB869:
 1185              	.LBI858:
  63:../libs/libDaisy/src/dev/mpr121.h ****     {
 1186              		.loc 2 63 10 is_stmt 1 view .LVU255
 1187              	.LBB862:
  65:../libs/libDaisy/src/dev/mpr121.h ****                != i2c_.TransmitBlocking(config_.dev_addr, data, size, 10);
 1188              		.loc 2 65 9 view .LVU256
  66:../libs/libDaisy/src/dev/mpr121.h ****     }
 1189              		.loc 2 66 40 is_stmt 0 view .LVU257
 1190 01ce 0223     		movs	r3, #2
 1191              	.LBE862:
 1192              	.LBE869:
ARM GAS  C:\Users\matte\AppData\Local\Temp\ccgZTizB.s 			page 36


 281:../libs/libDaisy/src/dev/mpr121.h ****         buff[1] = value;
 1193              		.loc 2 281 17 view .LVU258
 1194 01d0 8DF82490 		strb	r9, [sp, #36]
 1195              	.LBB870:
 1196              	.LBB863:
  66:../libs/libDaisy/src/dev/mpr121.h ****     }
 1197              		.loc 2 66 40 view .LVU259
 1198 01d4 FFF7FEFF 		bl	_ZN5daisy9I2CHandle16TransmitBlockingEtPhtm
 1199              	.LVL52:
  66:../libs/libDaisy/src/dev/mpr121.h ****     }
 1200              		.loc 2 66 40 view .LVU260
 1201              	.LBE863:
 1202              	.LBE870:
 1203              	.LBB871:
 1204              	.LBI871:
 1205              		.loc 2 343 10 is_stmt 1 view .LVU261
 1206              	.LBB872:
 1207              		.loc 2 343 55 is_stmt 0 view .LVU262
 1208 01d8 94F84C30 		ldrb	r3, [r4, #76]	@ zero_extendqisi2
 1209              	.LBE872:
 1210              	.LBE871:
 1211              	.LBE834:
 1212              	.LBE833:
 133:../libs/libDaisy/src/dev/mpr121.h ****         WriteRegister(MPR121_MHDR, 0x01);
 1213              		.loc 2 133 22 view .LVU263
 1214 01dc 94F830B0 		ldrb	fp, [r4, #48]	@ zero_extendqisi2
 1215              	.LBB879:
 1216              	.LBB877:
 1217              	.LBB875:
 1218              	.LBB873:
 1219              		.loc 2 343 55 view .LVU264
 1220 01e0 0028     		cmp	r0, #0
 1221 01e2 18BF     		it	ne
 1222 01e4 43F00103 		orrne	r3, r3, #1
 1223              	.LBE873:
 1224              	.LBE875:
 1225              	.LBE877:
 1226              	.LBE879:
 133:../libs/libDaisy/src/dev/mpr121.h ****         WriteRegister(MPR121_MHDR, 0x01);
 1227              		.loc 2 133 22 view .LVU265
 1228 01e8 94F831A0 		ldrb	r10, [r4, #49]	@ zero_extendqisi2
 1229              	.LBB880:
 1230              	.LBB878:
 1231              	.LBB876:
 1232              	.LBB874:
 1233              		.loc 2 343 55 view .LVU266
 1234 01ec 84F84C30 		strb	r3, [r4, #76]
 1235              	.LVL53:
 1236              		.loc 2 343 55 view .LVU267
 1237              	.LBE874:
 1238              	.LBE876:
 1239              	.LBE878:
 1240              	.LBE880:
 1241              	.LBB881:
 1242              	.LBI881:
 177:../libs/libDaisy/src/dev/mpr121.h ****     {
 1243              		.loc 2 177 10 is_stmt 1 view .LVU268
ARM GAS  C:\Users\matte\AppData\Local\Temp\ccgZTizB.s 			page 37


 1244              	.LBB882:
 180:../libs/libDaisy/src/dev/mpr121.h ****         {
 1245              		.loc 2 180 30 view .LVU269
 1246              	.L9:
 1247              	.LBB883:
 1248              	.LBI883:
 257:../libs/libDaisy/src/dev/mpr121.h ****     {
 1249              		.loc 2 257 10 view .LVU270
 1250              	.LBB884:
 1251              	.LBB885:
 1252              	.LBB886:
  66:../libs/libDaisy/src/dev/mpr121.h ****     }
 1253              		.loc 2 66 40 is_stmt 0 view .LVU271
 1254 01f0 0A27     		movs	r7, #10
 1255              	.LBE886:
 1256              	.LBE885:
 264:../libs/libDaisy/src/dev/mpr121.h **** 
 1257              		.loc 2 264 17 view .LVU272
 1258 01f2 4FF00009 		mov	r9, #0
 1259 01f6 4FF05E08 		mov	r8, #94
 1260              	.LBB889:
 1261              	.LBB887:
  66:../libs/libDaisy/src/dev/mpr121.h ****     }
 1262              		.loc 2 66 40 view .LVU273
 1263 01fa 0123     		movs	r3, #1
 1264 01fc 09AA     		add	r2, sp, #36
 1265 01fe 0097     		str	r7, [sp]
 1266 0200 2846     		mov	r0, r5
 1267 0202 94F84810 		ldrb	r1, [r4, #72]	@ zero_extendqisi2
 1268              	.LBE887:
 1269              	.LBE889:
 264:../libs/libDaisy/src/dev/mpr121.h **** 
 1270              		.loc 2 264 17 view .LVU274
 1271 0206 8DF82590 		strb	r9, [sp, #37]
 1272 020a 8DF82480 		strb	r8, [sp, #36]
 1273              	.LVL54:
 1274              	.LBB890:
 1275              	.LBI885:
  63:../libs/libDaisy/src/dev/mpr121.h ****     {
 1276              		.loc 2 63 10 is_stmt 1 view .LVU275
 1277              	.LBB888:
  65:../libs/libDaisy/src/dev/mpr121.h ****                != i2c_.TransmitBlocking(config_.dev_addr, data, size, 10);
 1278              		.loc 2 65 9 view .LVU276
  66:../libs/libDaisy/src/dev/mpr121.h ****     }
 1279              		.loc 2 66 40 is_stmt 0 view .LVU277
 1280 020e FFF7FEFF 		bl	_ZN5daisy9I2CHandle16TransmitBlockingEtPhtm
 1281              	.LVL55:
  66:../libs/libDaisy/src/dev/mpr121.h ****     }
 1282              		.loc 2 66 40 view .LVU278
 1283              	.LBE888:
 1284              	.LBE890:
 1285              	.LBB891:
 1286              	.LBI891:
 1287              		.loc 2 343 10 is_stmt 1 view .LVU279
 1288              	.LBB892:
 1289              		.loc 2 343 55 is_stmt 0 view .LVU280
 1290 0212 94F84C20 		ldrb	r2, [r4, #76]	@ zero_extendqisi2
ARM GAS  C:\Users\matte\AppData\Local\Temp\ccgZTizB.s 			page 38


 1291              	.LBE892:
 1292              	.LBE891:
 1293              	.LBB895:
 1294              	.LBB896:
  73:../libs/libDaisy/src/dev/mpr121.h ****     }
 1295              		.loc 2 73 39 view .LVU281
 1296 0216 0123     		movs	r3, #1
 1297 0218 0097     		str	r7, [sp]
 1298              	.LBE896:
 1299              	.LBE895:
 1300              	.LBB899:
 1301              	.LBB893:
 1302              		.loc 2 343 55 view .LVU282
 1303 021a 4845     		cmp	r0, r9
 1304 021c 18BF     		it	ne
 1305 021e 42F00102 		orrne	r2, r2, #1
 1306              	.LBE893:
 1307              	.LBE899:
 1308              	.LBB900:
 1309              	.LBB897:
  73:../libs/libDaisy/src/dev/mpr121.h ****     }
 1310              		.loc 2 73 39 view .LVU283
 1311 0222 94F84810 		ldrb	r1, [r4, #72]	@ zero_extendqisi2
 1312 0226 2846     		mov	r0, r5
 1313              	.LVL56:
  73:../libs/libDaisy/src/dev/mpr121.h ****     }
 1314              		.loc 2 73 39 view .LVU284
 1315              	.LBE897:
 1316              	.LBE900:
 1317              	.LBB901:
 1318              	.LBB894:
 1319              		.loc 2 343 55 view .LVU285
 1320 0228 84F84C20 		strb	r2, [r4, #76]
 1321              	.LVL57:
 1322              		.loc 2 343 55 view .LVU286
 1323              	.LBE894:
 1324              	.LBE901:
 1325              	.LBB902:
 1326              	.LBI895:
  70:../libs/libDaisy/src/dev/mpr121.h ****     {
 1327              		.loc 2 70 10 is_stmt 1 view .LVU287
 1328              	.LBB898:
  72:../libs/libDaisy/src/dev/mpr121.h ****                != i2c_.ReceiveBlocking(config_.dev_addr, data, size, 10);
 1329              		.loc 2 72 9 view .LVU288
  73:../libs/libDaisy/src/dev/mpr121.h ****     }
 1330              		.loc 2 73 39 is_stmt 0 view .LVU289
 1331 022c 04AA     		add	r2, sp, #16
 1332              	.LVL58:
  73:../libs/libDaisy/src/dev/mpr121.h ****     }
 1333              		.loc 2 73 39 view .LVU290
 1334 022e FFF7FEFF 		bl	_ZN5daisy9I2CHandle15ReceiveBlockingEtPhtm
 1335              	.LVL59:
  73:../libs/libDaisy/src/dev/mpr121.h ****     }
 1336              		.loc 2 73 39 view .LVU291
 1337              	.LBE898:
 1338              	.LBE902:
 1339              	.LBB903:
ARM GAS  C:\Users\matte\AppData\Local\Temp\ccgZTizB.s 			page 39


 1340              	.LBI903:
 1341              		.loc 2 343 10 is_stmt 1 view .LVU292
 1342              	.LBB904:
 1343              		.loc 2 343 55 is_stmt 0 view .LVU293
 1344 0232 94F84C20 		ldrb	r2, [r4, #76]	@ zero_extendqisi2
 1345              	.LBE904:
 1346              	.LBE903:
 1347              	.LBB907:
 1348              	.LBB908:
  66:../libs/libDaisy/src/dev/mpr121.h ****     }
 1349              		.loc 2 66 40 view .LVU294
 1350 0236 0223     		movs	r3, #2
 1351 0238 0097     		str	r7, [sp]
 1352              	.LBE908:
 1353              	.LBE907:
 1354              	.LBB911:
 1355              	.LBB905:
 1356              		.loc 2 343 55 view .LVU295
 1357 023a 4845     		cmp	r0, r9
 1358 023c 18BF     		it	ne
 1359 023e 42F00102 		orrne	r2, r2, #1
 1360              	.LBE905:
 1361              	.LBE911:
 1362              	.LBB912:
 1363              	.LBB909:
  66:../libs/libDaisy/src/dev/mpr121.h ****     }
 1364              		.loc 2 66 40 view .LVU296
 1365 0242 94F84810 		ldrb	r1, [r4, #72]	@ zero_extendqisi2
 1366 0246 2846     		mov	r0, r5
 1367              	.LVL60:
  66:../libs/libDaisy/src/dev/mpr121.h ****     }
 1368              		.loc 2 66 40 view .LVU297
 1369              	.LBE909:
 1370              	.LBE912:
 1371              	.LBB913:
 1372              	.LBB906:
 1373              		.loc 2 343 55 view .LVU298
 1374 0248 84F84C20 		strb	r2, [r4, #76]
 1375              	.LVL61:
 1376              		.loc 2 343 55 view .LVU299
 1377              	.LBE906:
 1378              	.LBE913:
 1379              	.LBB914:
 1380              	.LBI907:
  63:../libs/libDaisy/src/dev/mpr121.h ****     {
 1381              		.loc 2 63 10 is_stmt 1 view .LVU300
 1382              	.LBB910:
  65:../libs/libDaisy/src/dev/mpr121.h ****                != i2c_.TransmitBlocking(config_.dev_addr, data, size, 10);
 1383              		.loc 2 65 9 view .LVU301
  66:../libs/libDaisy/src/dev/mpr121.h ****     }
 1384              		.loc 2 66 40 is_stmt 0 view .LVU302
 1385 024c 09AA     		add	r2, sp, #36
 1386              	.LVL62:
  66:../libs/libDaisy/src/dev/mpr121.h ****     }
 1387              		.loc 2 66 40 view .LVU303
 1388 024e FFF7FEFF 		bl	_ZN5daisy9I2CHandle16TransmitBlockingEtPhtm
 1389              	.LVL63:
ARM GAS  C:\Users\matte\AppData\Local\Temp\ccgZTizB.s 			page 40


  66:../libs/libDaisy/src/dev/mpr121.h ****     }
 1390              		.loc 2 66 40 view .LVU304
 1391              	.LBE910:
 1392              	.LBE914:
 1393              	.LBB915:
 1394              	.LBI915:
 1395              		.loc 2 343 10 is_stmt 1 view .LVU305
 1396              	.LBB916:
 1397              		.loc 2 343 55 is_stmt 0 view .LVU306
 1398 0252 94F84C20 		ldrb	r2, [r4, #76]	@ zero_extendqisi2
 1399              	.LBE916:
 1400              	.LBE915:
 1401              	.LBB919:
 1402              	.LBB920:
  66:../libs/libDaisy/src/dev/mpr121.h ****     }
 1403              		.loc 2 66 40 view .LVU307
 1404 0256 0223     		movs	r3, #2
 1405 0258 0097     		str	r7, [sp]
 1406              	.LBE920:
 1407              	.LBE919:
 1408              	.LBB924:
 1409              	.LBB917:
 1410              		.loc 2 343 55 view .LVU308
 1411 025a 4845     		cmp	r0, r9
 1412 025c 18BF     		it	ne
 1413 025e 42F00102 		orrne	r2, r2, #1
 1414              	.LBE917:
 1415              	.LBE924:
 1416              	.LBB925:
 1417              	.LBB921:
  66:../libs/libDaisy/src/dev/mpr121.h ****     }
 1418              		.loc 2 66 40 view .LVU309
 1419 0262 94F84810 		ldrb	r1, [r4, #72]	@ zero_extendqisi2
 1420 0266 2846     		mov	r0, r5
 1421              	.LVL64:
  66:../libs/libDaisy/src/dev/mpr121.h ****     }
 1422              		.loc 2 66 40 view .LVU310
 1423              	.LBE921:
 1424              	.LBE925:
 281:../libs/libDaisy/src/dev/mpr121.h ****         buff[1] = value;
 1425              		.loc 2 281 17 view .LVU311
 1426 0268 8DF82460 		strb	r6, [sp, #36]
 1427              	.LBB926:
 1428              	.LBB918:
 1429              		.loc 2 343 55 view .LVU312
 1430 026c 84F84C20 		strb	r2, [r4, #76]
 1431              	.LVL65:
 1432              		.loc 2 343 55 view .LVU313
 1433              	.LBE918:
 1434              	.LBE926:
 1435              	.LBB927:
 1436              	.LBI919:
  63:../libs/libDaisy/src/dev/mpr121.h ****     {
 1437              		.loc 2 63 10 is_stmt 1 view .LVU314
 1438              	.LBB922:
  65:../libs/libDaisy/src/dev/mpr121.h ****                != i2c_.TransmitBlocking(config_.dev_addr, data, size, 10);
 1439              		.loc 2 65 9 view .LVU315
ARM GAS  C:\Users\matte\AppData\Local\Temp\ccgZTizB.s 			page 41


  66:../libs/libDaisy/src/dev/mpr121.h ****     }
 1440              		.loc 2 66 40 is_stmt 0 view .LVU316
 1441 0270 09AA     		add	r2, sp, #36
 1442              	.LVL66:
  66:../libs/libDaisy/src/dev/mpr121.h ****     }
 1443              		.loc 2 66 40 view .LVU317
 1444              	.LBE922:
 1445              	.LBE927:
 282:../libs/libDaisy/src/dev/mpr121.h ****         SetTransportErr(transport_.Write(buff, 2));
 1446              		.loc 2 282 17 view .LVU318
 1447 0272 8DF825B0 		strb	fp, [sp, #37]
 1448              	.LBB928:
 1449              	.LBB923:
  66:../libs/libDaisy/src/dev/mpr121.h ****     }
 1450              		.loc 2 66 40 view .LVU319
 1451 0276 FFF7FEFF 		bl	_ZN5daisy9I2CHandle16TransmitBlockingEtPhtm
 1452              	.LVL67:
  66:../libs/libDaisy/src/dev/mpr121.h ****     }
 1453              		.loc 2 66 40 view .LVU320
 1454              	.LBE923:
 1455              	.LBE928:
 1456              	.LBB929:
 1457              	.LBI929:
 1458              		.loc 2 343 10 is_stmt 1 view .LVU321
 1459              	.LBB930:
 1460              		.loc 2 343 55 is_stmt 0 view .LVU322
 1461 027a 94F84C30 		ldrb	r3, [r4, #76]	@ zero_extendqisi2
 1462              	.LBE930:
 1463              	.LBE929:
 289:../libs/libDaisy/src/dev/mpr121.h ****             SetTransportErr(transport_.Write(buff, 2));
 1464              		.loc 2 289 21 view .LVU323
 1465 027e 9DF81020 		ldrb	r2, [sp, #16]	@ zero_extendqisi2
 1466              	.LBB933:
 1467              	.LBB931:
 1468              		.loc 2 343 55 view .LVU324
 1469 0282 4845     		cmp	r0, r9
 1470 0284 18BF     		it	ne
 1471 0286 43F00103 		orrne	r3, r3, #1
 1472              	.LBE931:
 1473              	.LBE933:
 1474              	.LBB934:
 1475              	.LBB935:
  66:../libs/libDaisy/src/dev/mpr121.h ****     }
 1476              		.loc 2 66 40 view .LVU325
 1477 028a 0097     		str	r7, [sp]
 1478              	.LBE935:
 1479              	.LBE934:
 289:../libs/libDaisy/src/dev/mpr121.h ****             SetTransportErr(transport_.Write(buff, 2));
 1480              		.loc 2 289 21 view .LVU326
 1481 028c 8DF82520 		strb	r2, [sp, #37]
 1482              	.LBB939:
 1483              	.LBB936:
  66:../libs/libDaisy/src/dev/mpr121.h ****     }
 1484              		.loc 2 66 40 view .LVU327
 1485 0290 2846     		mov	r0, r5
 1486              	.LVL68:
  66:../libs/libDaisy/src/dev/mpr121.h ****     }
ARM GAS  C:\Users\matte\AppData\Local\Temp\ccgZTizB.s 			page 42


 1487              		.loc 2 66 40 view .LVU328
 1488 0292 09AA     		add	r2, sp, #36
 1489 0294 94F84810 		ldrb	r1, [r4, #72]	@ zero_extendqisi2
 1490              	.LBE936:
 1491              	.LBE939:
 1492              	.LBB940:
 1493              	.LBB932:
 1494              		.loc 2 343 55 view .LVU329
 1495 0298 84F84C30 		strb	r3, [r4, #76]
 1496              	.LVL69:
 1497              		.loc 2 343 55 view .LVU330
 1498              	.LBE932:
 1499              	.LBE940:
 1500              	.LBB941:
 1501              	.LBI934:
  63:../libs/libDaisy/src/dev/mpr121.h ****     {
 1502              		.loc 2 63 10 is_stmt 1 view .LVU331
 1503              	.LBB937:
  65:../libs/libDaisy/src/dev/mpr121.h ****                != i2c_.TransmitBlocking(config_.dev_addr, data, size, 10);
 1504              		.loc 2 65 9 view .LVU332
  66:../libs/libDaisy/src/dev/mpr121.h ****     }
 1505              		.loc 2 66 40 is_stmt 0 view .LVU333
 1506 029c 0223     		movs	r3, #2
 1507              	.LBE937:
 1508              	.LBE941:
 288:../libs/libDaisy/src/dev/mpr121.h ****             buff[1] = ecr_backup;
 1509              		.loc 2 288 21 view .LVU334
 1510 029e 8DF82480 		strb	r8, [sp, #36]
 1511              	.LBB942:
 1512              	.LBB938:
  66:../libs/libDaisy/src/dev/mpr121.h ****     }
 1513              		.loc 2 66 40 view .LVU335
 1514 02a2 FFF7FEFF 		bl	_ZN5daisy9I2CHandle16TransmitBlockingEtPhtm
 1515              	.LVL70:
  66:../libs/libDaisy/src/dev/mpr121.h ****     }
 1516              		.loc 2 66 40 view .LVU336
 1517              	.LBE938:
 1518              	.LBE942:
 1519              	.LBB943:
 1520              	.LBI943:
 1521              		.loc 2 343 10 is_stmt 1 view .LVU337
 1522              	.LBB944:
 1523              		.loc 2 343 55 is_stmt 0 view .LVU338
 1524 02a6 94F84C20 		ldrb	r2, [r4, #76]	@ zero_extendqisi2
 1525              	.LBE944:
 1526              	.LBE943:
 1527              	.LBE884:
 1528              	.LBE883:
 1529              	.LBB951:
 1530              	.LBB952:
 1531              	.LBB953:
 1532              	.LBB954:
  66:../libs/libDaisy/src/dev/mpr121.h ****     }
 1533              		.loc 2 66 40 view .LVU339
 1534 02aa 0123     		movs	r3, #1
 1535 02ac 0097     		str	r7, [sp]
 1536              	.LBE954:
ARM GAS  C:\Users\matte\AppData\Local\Temp\ccgZTizB.s 			page 43


 1537              	.LBE953:
 1538              	.LBE952:
 1539              	.LBE951:
 1540              	.LBB1024:
 1541              	.LBB949:
 1542              	.LBB947:
 1543              	.LBB945:
 1544              		.loc 2 343 55 view .LVU340
 1545 02ae 4845     		cmp	r0, r9
 1546 02b0 18BF     		it	ne
 1547 02b2 42F00102 		orrne	r2, r2, #1
 1548              	.LBE945:
 1549              	.LBE947:
 1550              	.LBE949:
 1551              	.LBE1024:
 1552              	.LBB1025:
 1553              	.LBB1019:
 1554              	.LBB958:
 1555              	.LBB955:
  66:../libs/libDaisy/src/dev/mpr121.h ****     }
 1556              		.loc 2 66 40 view .LVU341
 1557 02b6 94F84810 		ldrb	r1, [r4, #72]	@ zero_extendqisi2
 1558 02ba 2846     		mov	r0, r5
 1559              	.LVL71:
  66:../libs/libDaisy/src/dev/mpr121.h ****     }
 1560              		.loc 2 66 40 view .LVU342
 1561              	.LBE955:
 1562              	.LBE958:
 264:../libs/libDaisy/src/dev/mpr121.h **** 
 1563              		.loc 2 264 17 view .LVU343
 1564 02bc 8DF82590 		strb	r9, [sp, #37]
 1565              	.LBE1019:
 1566              	.LBE1025:
 1567              	.LBB1026:
 1568              	.LBB950:
 1569              	.LBB948:
 1570              	.LBB946:
 1571              		.loc 2 343 55 view .LVU344
 1572 02c0 84F84C20 		strb	r2, [r4, #76]
 1573              	.LVL72:
 1574              		.loc 2 343 55 view .LVU345
 1575              	.LBE946:
 1576              	.LBE948:
 1577              	.LBE950:
 1578              	.LBE1026:
 1579              	.LBB1027:
 1580              	.LBI951:
 257:../libs/libDaisy/src/dev/mpr121.h ****     {
 1581              		.loc 2 257 10 is_stmt 1 view .LVU346
 1582              	.LBB1020:
 1583              	.LBB959:
 1584              	.LBI953:
  63:../libs/libDaisy/src/dev/mpr121.h ****     {
 1585              		.loc 2 63 10 view .LVU347
 1586              	.LBB956:
  65:../libs/libDaisy/src/dev/mpr121.h ****                != i2c_.TransmitBlocking(config_.dev_addr, data, size, 10);
 1587              		.loc 2 65 9 view .LVU348
ARM GAS  C:\Users\matte\AppData\Local\Temp\ccgZTizB.s 			page 44


  66:../libs/libDaisy/src/dev/mpr121.h ****     }
 1588              		.loc 2 66 40 is_stmt 0 view .LVU349
 1589 02c4 09AA     		add	r2, sp, #36
 1590              	.LVL73:
  66:../libs/libDaisy/src/dev/mpr121.h ****     }
 1591              		.loc 2 66 40 view .LVU350
 1592              	.LBE956:
 1593              	.LBE959:
 264:../libs/libDaisy/src/dev/mpr121.h **** 
 1594              		.loc 2 264 17 view .LVU351
 1595 02c6 8DF82480 		strb	r8, [sp, #36]
 1596              	.LBB960:
 1597              	.LBB957:
  66:../libs/libDaisy/src/dev/mpr121.h ****     }
 1598              		.loc 2 66 40 view .LVU352
 1599 02ca FFF7FEFF 		bl	_ZN5daisy9I2CHandle16TransmitBlockingEtPhtm
 1600              	.LVL74:
  66:../libs/libDaisy/src/dev/mpr121.h ****     }
 1601              		.loc 2 66 40 view .LVU353
 1602              	.LBE957:
 1603              	.LBE960:
 1604              	.LBB961:
 1605              	.LBI961:
 1606              		.loc 2 343 10 is_stmt 1 view .LVU354
 1607              	.LBB962:
 1608              		.loc 2 343 55 is_stmt 0 view .LVU355
 1609 02ce 94F84C20 		ldrb	r2, [r4, #76]	@ zero_extendqisi2
 1610              	.LBE962:
 1611              	.LBE961:
 1612              	.LBB965:
 1613              	.LBB966:
  73:../libs/libDaisy/src/dev/mpr121.h ****     }
 1614              		.loc 2 73 39 view .LVU356
 1615 02d2 0123     		movs	r3, #1
 1616 02d4 0097     		str	r7, [sp]
 1617              	.LBE966:
 1618              	.LBE965:
 1619              	.LBB969:
 1620              	.LBB963:
 1621              		.loc 2 343 55 view .LVU357
 1622 02d6 4845     		cmp	r0, r9
 1623 02d8 18BF     		it	ne
 1624 02da 42F00102 		orrne	r2, r2, #1
 1625              	.LBE963:
 1626              	.LBE969:
 1627              	.LBB970:
 1628              	.LBB967:
  73:../libs/libDaisy/src/dev/mpr121.h ****     }
 1629              		.loc 2 73 39 view .LVU358
 1630 02de 94F84810 		ldrb	r1, [r4, #72]	@ zero_extendqisi2
 1631 02e2 2846     		mov	r0, r5
 1632              	.LVL75:
  73:../libs/libDaisy/src/dev/mpr121.h ****     }
 1633              		.loc 2 73 39 view .LVU359
 1634              	.LBE967:
 1635              	.LBE970:
 1636              	.LBB971:
ARM GAS  C:\Users\matte\AppData\Local\Temp\ccgZTizB.s 			page 45


 1637              	.LBB964:
 1638              		.loc 2 343 55 view .LVU360
 1639 02e4 84F84C20 		strb	r2, [r4, #76]
 1640              	.LVL76:
 1641              		.loc 2 343 55 view .LVU361
 1642              	.LBE964:
 1643              	.LBE971:
 1644              	.LBB972:
 1645              	.LBI965:
  70:../libs/libDaisy/src/dev/mpr121.h ****     {
 1646              		.loc 2 70 10 is_stmt 1 view .LVU362
 1647              	.LBB968:
  72:../libs/libDaisy/src/dev/mpr121.h ****                != i2c_.ReceiveBlocking(config_.dev_addr, data, size, 10);
 1648              		.loc 2 72 9 view .LVU363
  73:../libs/libDaisy/src/dev/mpr121.h ****     }
 1649              		.loc 2 73 39 is_stmt 0 view .LVU364
 1650 02e8 04AA     		add	r2, sp, #16
 1651              	.LVL77:
  73:../libs/libDaisy/src/dev/mpr121.h ****     }
 1652              		.loc 2 73 39 view .LVU365
 1653 02ea FFF7FEFF 		bl	_ZN5daisy9I2CHandle15ReceiveBlockingEtPhtm
 1654              	.LVL78:
  73:../libs/libDaisy/src/dev/mpr121.h ****     }
 1655              		.loc 2 73 39 view .LVU366
 1656              	.LBE968:
 1657              	.LBE972:
 1658              	.LBB973:
 1659              	.LBI973:
 1660              		.loc 2 343 10 is_stmt 1 view .LVU367
 1661              	.LBB974:
 1662              		.loc 2 343 55 is_stmt 0 view .LVU368
 1663 02ee 94F84C20 		ldrb	r2, [r4, #76]	@ zero_extendqisi2
 1664              	.LBE974:
 1665              	.LBE973:
 1666              	.LBB977:
 1667              	.LBB978:
  66:../libs/libDaisy/src/dev/mpr121.h ****     }
 1668              		.loc 2 66 40 view .LVU369
 1669 02f2 0223     		movs	r3, #2
 1670 02f4 0097     		str	r7, [sp]
 1671              	.LBE978:
 1672              	.LBE977:
 1673              	.LBB981:
 1674              	.LBB975:
 1675              		.loc 2 343 55 view .LVU370
 1676 02f6 4845     		cmp	r0, r9
 1677 02f8 18BF     		it	ne
 1678 02fa 42F00102 		orrne	r2, r2, #1
 1679              	.LBE975:
 1680              	.LBE981:
 1681              	.LBB982:
 1682              	.LBB979:
  66:../libs/libDaisy/src/dev/mpr121.h ****     }
 1683              		.loc 2 66 40 view .LVU371
 1684 02fe 94F84810 		ldrb	r1, [r4, #72]	@ zero_extendqisi2
 1685 0302 2846     		mov	r0, r5
 1686              	.LVL79:
ARM GAS  C:\Users\matte\AppData\Local\Temp\ccgZTizB.s 			page 46


  66:../libs/libDaisy/src/dev/mpr121.h ****     }
 1687              		.loc 2 66 40 view .LVU372
 1688              	.LBE979:
 1689              	.LBE982:
 1690              	.LBB983:
 1691              	.LBB976:
 1692              		.loc 2 343 55 view .LVU373
 1693 0304 84F84C20 		strb	r2, [r4, #76]
 1694              	.LVL80:
 1695              		.loc 2 343 55 view .LVU374
 1696              	.LBE976:
 1697              	.LBE983:
 1698              	.LBB984:
 1699              	.LBI977:
  63:../libs/libDaisy/src/dev/mpr121.h ****     {
 1700              		.loc 2 63 10 is_stmt 1 view .LVU375
 1701              	.LBB980:
  65:../libs/libDaisy/src/dev/mpr121.h ****                != i2c_.TransmitBlocking(config_.dev_addr, data, size, 10);
 1702              		.loc 2 65 9 view .LVU376
  66:../libs/libDaisy/src/dev/mpr121.h ****     }
 1703              		.loc 2 66 40 is_stmt 0 view .LVU377
 1704 0308 09AA     		add	r2, sp, #36
 1705              	.LVL81:
  66:../libs/libDaisy/src/dev/mpr121.h ****     }
 1706              		.loc 2 66 40 view .LVU378
 1707 030a FFF7FEFF 		bl	_ZN5daisy9I2CHandle16TransmitBlockingEtPhtm
 1708              	.LVL82:
  66:../libs/libDaisy/src/dev/mpr121.h ****     }
 1709              		.loc 2 66 40 view .LVU379
 1710              	.LBE980:
 1711              	.LBE984:
 1712              	.LBB985:
 1713              	.LBI985:
 1714              		.loc 2 343 10 is_stmt 1 view .LVU380
 1715              	.LBB986:
 1716              		.loc 2 343 55 is_stmt 0 view .LVU381
 1717 030e 94F84C30 		ldrb	r3, [r4, #76]	@ zero_extendqisi2
 1718              	.LBE986:
 1719              	.LBE985:
 281:../libs/libDaisy/src/dev/mpr121.h ****         buff[1] = value;
 1720              		.loc 2 281 17 view .LVU382
 1721 0312 721C     		adds	r2, r6, #1
 1722              	.LBB989:
 1723              	.LBB990:
  66:../libs/libDaisy/src/dev/mpr121.h ****     }
 1724              		.loc 2 66 40 view .LVU383
 1725 0314 0097     		str	r7, [sp]
 1726              	.LBE990:
 1727              	.LBE989:
 1728              	.LBB995:
 1729              	.LBB987:
 1730              		.loc 2 343 55 view .LVU384
 1731 0316 4845     		cmp	r0, r9
 1732 0318 18BF     		it	ne
 1733 031a 43F00103 		orrne	r3, r3, #1
 1734              	.LBE987:
 1735              	.LBE995:
ARM GAS  C:\Users\matte\AppData\Local\Temp\ccgZTizB.s 			page 47


 1736              	.LBB996:
 1737              	.LBB991:
  66:../libs/libDaisy/src/dev/mpr121.h ****     }
 1738              		.loc 2 66 40 view .LVU385
 1739 031e 94F84810 		ldrb	r1, [r4, #72]	@ zero_extendqisi2
 1740              	.LBE991:
 1741              	.LBE996:
 281:../libs/libDaisy/src/dev/mpr121.h ****         buff[1] = value;
 1742              		.loc 2 281 17 view .LVU386
 1743 0322 8DF82420 		strb	r2, [sp, #36]
 1744              	.LBB997:
 1745              	.LBB992:
  66:../libs/libDaisy/src/dev/mpr121.h ****     }
 1746              		.loc 2 66 40 view .LVU387
 1747 0326 2846     		mov	r0, r5
 1748              	.LVL83:
  66:../libs/libDaisy/src/dev/mpr121.h ****     }
 1749              		.loc 2 66 40 view .LVU388
 1750 0328 09AA     		add	r2, sp, #36
 1751              	.LBE992:
 1752              	.LBE997:
 1753              	.LBB998:
 1754              	.LBB988:
 1755              		.loc 2 343 55 view .LVU389
 1756 032a 84F84C30 		strb	r3, [r4, #76]
 1757              	.LVL84:
 1758              		.loc 2 343 55 view .LVU390
 1759              	.LBE988:
 1760              	.LBE998:
 1761              	.LBB999:
 1762              	.LBI989:
  63:../libs/libDaisy/src/dev/mpr121.h ****     {
 1763              		.loc 2 63 10 is_stmt 1 view .LVU391
 1764              	.LBB993:
  65:../libs/libDaisy/src/dev/mpr121.h ****                != i2c_.TransmitBlocking(config_.dev_addr, data, size, 10);
 1765              		.loc 2 65 9 view .LVU392
  66:../libs/libDaisy/src/dev/mpr121.h ****     }
 1766              		.loc 2 66 40 is_stmt 0 view .LVU393
 1767 032e 0223     		movs	r3, #2
 1768              	.LBE993:
 1769              	.LBE999:
 282:../libs/libDaisy/src/dev/mpr121.h ****         SetTransportErr(transport_.Write(buff, 2));
 1770              		.loc 2 282 17 view .LVU394
 1771 0330 8DF825A0 		strb	r10, [sp, #37]
 1772              	.LBB1000:
 1773              	.LBB994:
  66:../libs/libDaisy/src/dev/mpr121.h ****     }
 1774              		.loc 2 66 40 view .LVU395
 1775 0334 FFF7FEFF 		bl	_ZN5daisy9I2CHandle16TransmitBlockingEtPhtm
 1776              	.LVL85:
  66:../libs/libDaisy/src/dev/mpr121.h ****     }
 1777              		.loc 2 66 40 view .LVU396
 1778              	.LBE994:
 1779              	.LBE1000:
 1780              	.LBB1001:
 1781              	.LBI1001:
 1782              		.loc 2 343 10 is_stmt 1 view .LVU397
ARM GAS  C:\Users\matte\AppData\Local\Temp\ccgZTizB.s 			page 48


 1783              	.LBB1002:
 1784              		.loc 2 343 55 is_stmt 0 view .LVU398
 1785 0338 94F84C30 		ldrb	r3, [r4, #76]	@ zero_extendqisi2
 1786              	.LBE1002:
 1787              	.LBE1001:
 289:../libs/libDaisy/src/dev/mpr121.h ****             SetTransportErr(transport_.Write(buff, 2));
 1788              		.loc 2 289 21 view .LVU399
 1789 033c 9DF81020 		ldrb	r2, [sp, #16]	@ zero_extendqisi2
 1790              	.LBE1020:
 1791              	.LBE1027:
 180:../libs/libDaisy/src/dev/mpr121.h ****         {
 1792              		.loc 2 180 30 view .LVU400
 1793 0340 0236     		adds	r6, r6, #2
 1794              	.LVL86:
 1795              	.LBB1028:
 1796              	.LBB1021:
 1797              	.LBB1005:
 1798              	.LBB1003:
 1799              		.loc 2 343 55 view .LVU401
 1800 0342 4845     		cmp	r0, r9
 1801 0344 18BF     		it	ne
 1802 0346 43F00103 		orrne	r3, r3, #1
 1803              	.LBE1003:
 1804              	.LBE1005:
 1805              	.LBB1006:
 1806              	.LBB1007:
  66:../libs/libDaisy/src/dev/mpr121.h ****     }
 1807              		.loc 2 66 40 view .LVU402
 1808 034a 0097     		str	r7, [sp]
 1809              	.LBE1007:
 1810              	.LBE1006:
 289:../libs/libDaisy/src/dev/mpr121.h ****             SetTransportErr(transport_.Write(buff, 2));
 1811              		.loc 2 289 21 view .LVU403
 1812 034c 8DF82520 		strb	r2, [sp, #37]
 1813              	.LBB1011:
 1814              	.LBB1008:
  66:../libs/libDaisy/src/dev/mpr121.h ****     }
 1815              		.loc 2 66 40 view .LVU404
 1816 0350 2846     		mov	r0, r5
 1817              	.LVL87:
  66:../libs/libDaisy/src/dev/mpr121.h ****     }
 1818              		.loc 2 66 40 view .LVU405
 1819              	.LBE1008:
 1820              	.LBE1011:
 1821              	.LBB1012:
 1822              	.LBB1004:
 1823              		.loc 2 343 55 view .LVU406
 1824 0352 84F84C30 		strb	r3, [r4, #76]
 1825              	.LVL88:
 1826              		.loc 2 343 55 view .LVU407
 1827              	.LBE1004:
 1828              	.LBE1012:
 1829              	.LBB1013:
 1830              	.LBI1006:
  63:../libs/libDaisy/src/dev/mpr121.h ****     {
 1831              		.loc 2 63 10 is_stmt 1 view .LVU408
 1832              	.LBB1009:
ARM GAS  C:\Users\matte\AppData\Local\Temp\ccgZTizB.s 			page 49


  65:../libs/libDaisy/src/dev/mpr121.h ****                != i2c_.TransmitBlocking(config_.dev_addr, data, size, 10);
 1833              		.loc 2 65 9 view .LVU409
  66:../libs/libDaisy/src/dev/mpr121.h ****     }
 1834              		.loc 2 66 40 is_stmt 0 view .LVU410
 1835 0356 09AA     		add	r2, sp, #36
 1836              	.LVL89:
  66:../libs/libDaisy/src/dev/mpr121.h ****     }
 1837              		.loc 2 66 40 view .LVU411
 1838 0358 0223     		movs	r3, #2
 1839 035a 94F84810 		ldrb	r1, [r4, #72]	@ zero_extendqisi2
 1840              	.LBE1009:
 1841              	.LBE1013:
 1842              	.LBE1021:
 1843              	.LBE1028:
 180:../libs/libDaisy/src/dev/mpr121.h ****         {
 1844              		.loc 2 180 30 view .LVU412
 1845 035e F6B2     		uxtb	r6, r6
 1846              	.LBB1029:
 1847              	.LBB1022:
 288:../libs/libDaisy/src/dev/mpr121.h ****             buff[1] = ecr_backup;
 1848              		.loc 2 288 21 view .LVU413
 1849 0360 8DF82480 		strb	r8, [sp, #36]
 1850              	.LBB1014:
 1851              	.LBB1010:
  66:../libs/libDaisy/src/dev/mpr121.h ****     }
 1852              		.loc 2 66 40 view .LVU414
 1853 0364 FFF7FEFF 		bl	_ZN5daisy9I2CHandle16TransmitBlockingEtPhtm
 1854              	.LVL90:
  66:../libs/libDaisy/src/dev/mpr121.h ****     }
 1855              		.loc 2 66 40 view .LVU415
 1856              	.LBE1010:
 1857              	.LBE1014:
 1858              	.LBB1015:
 1859              	.LBI1015:
 1860              		.loc 2 343 10 is_stmt 1 view .LVU416
 1861              	.LBB1016:
 1862              		.loc 2 343 55 is_stmt 0 view .LVU417
 1863 0368 94F84C30 		ldrb	r3, [r4, #76]	@ zero_extendqisi2
 1864 036c 4845     		cmp	r0, r9
 1865 036e 18BF     		it	ne
 1866 0370 43F00103 		orrne	r3, r3, #1
 1867              	.LBE1016:
 1868              	.LBE1015:
 1869              	.LBE1022:
 1870              	.LBE1029:
 180:../libs/libDaisy/src/dev/mpr121.h ****         {
 1871              		.loc 2 180 30 view .LVU418
 1872 0374 592E     		cmp	r6, #89
 1873              	.LBB1030:
 1874              	.LBB1023:
 1875              	.LBB1018:
 1876              	.LBB1017:
 1877              		.loc 2 343 55 view .LVU419
 1878 0376 84F84C30 		strb	r3, [r4, #76]
 1879              	.LVL91:
 1880              		.loc 2 343 55 view .LVU420
 1881              	.LBE1017:
ARM GAS  C:\Users\matte\AppData\Local\Temp\ccgZTizB.s 			page 50


 1882              	.LBE1018:
 1883              	.LBE1023:
 1884              	.LBE1030:
 180:../libs/libDaisy/src/dev/mpr121.h ****         {
 1885              		.loc 2 180 9 is_stmt 1 view .LVU421
 180:../libs/libDaisy/src/dev/mpr121.h ****         {
 1886              		.loc 2 180 30 view .LVU422
 1887 037a 7FF439AF 		bne	.L9
 1888              	.LVL92:
 180:../libs/libDaisy/src/dev/mpr121.h ****         {
 1889              		.loc 2 180 30 is_stmt 0 view .LVU423
 1890              	.LBE882:
 1891              	.LBE881:
 1892              	.LBB1031:
 1893              	.LBI1031:
 257:../libs/libDaisy/src/dev/mpr121.h ****     {
 1894              		.loc 2 257 10 is_stmt 1 view .LVU424
 1895              	.LBB1032:
 1896              	.LBB1033:
 1897              	.LBB1034:
  66:../libs/libDaisy/src/dev/mpr121.h ****     }
 1898              		.loc 2 66 40 is_stmt 0 view .LVU425
 1899 037e 0123     		movs	r3, #1
 1900 0380 09AA     		add	r2, sp, #36
 1901 0382 0097     		str	r7, [sp]
 1902 0384 2846     		mov	r0, r5
 1903 0386 94F84810 		ldrb	r1, [r4, #72]	@ zero_extendqisi2
 1904              	.LBE1034:
 1905              	.LBE1033:
 282:../libs/libDaisy/src/dev/mpr121.h ****         SetTransportErr(transport_.Write(buff, 2));
 1906              		.loc 2 282 17 view .LVU426
 1907 038a 0126     		movs	r6, #1
 264:../libs/libDaisy/src/dev/mpr121.h **** 
 1908              		.loc 2 264 17 view .LVU427
 1909 038c 8DF82590 		strb	r9, [sp, #37]
 1910 0390 8DF82480 		strb	r8, [sp, #36]
 1911              	.LVL93:
 1912              	.LBB1036:
 1913              	.LBI1033:
  63:../libs/libDaisy/src/dev/mpr121.h ****     {
 1914              		.loc 2 63 10 is_stmt 1 view .LVU428
 1915              	.LBB1035:
  65:../libs/libDaisy/src/dev/mpr121.h ****                != i2c_.TransmitBlocking(config_.dev_addr, data, size, 10);
 1916              		.loc 2 65 9 view .LVU429
  66:../libs/libDaisy/src/dev/mpr121.h ****     }
 1917              		.loc 2 66 40 is_stmt 0 view .LVU430
 1918 0394 FFF7FEFF 		bl	_ZN5daisy9I2CHandle16TransmitBlockingEtPhtm
 1919              	.LVL94:
  66:../libs/libDaisy/src/dev/mpr121.h ****     }
 1920              		.loc 2 66 40 view .LVU431
 1921              	.LBE1035:
 1922              	.LBE1036:
 1923              	.LBB1037:
 1924              	.LBI1037:
 1925              		.loc 2 343 10 is_stmt 1 view .LVU432
 1926              	.LBE1037:
 1927              	.LBB1041:
ARM GAS  C:\Users\matte\AppData\Local\Temp\ccgZTizB.s 			page 51


 1928              	.LBB1042:
  73:../libs/libDaisy/src/dev/mpr121.h ****     }
 1929              		.loc 2 73 39 is_stmt 0 view .LVU433
 1930 0398 0097     		str	r7, [sp]
 1931 039a 04AA     		add	r2, sp, #16
 1932              	.LBE1042:
 1933              	.LBE1041:
 1934              	.LBB1046:
 1935              	.LBB1038:
 1936              		.loc 2 343 55 view .LVU434
 1937 039c 94F84C30 		ldrb	r3, [r4, #76]	@ zero_extendqisi2
 1938              	.LBE1038:
 1939              	.LBE1046:
 1940              	.LBB1047:
 1941              	.LBB1043:
  73:../libs/libDaisy/src/dev/mpr121.h ****     }
 1942              		.loc 2 73 39 view .LVU435
 1943 03a0 94F84810 		ldrb	r1, [r4, #72]	@ zero_extendqisi2
 1944              	.LBE1043:
 1945              	.LBE1047:
 1946              	.LBB1048:
 1947              	.LBB1039:
 1948              		.loc 2 343 55 view .LVU436
 1949 03a4 4845     		cmp	r0, r9
 1950 03a6 18BF     		it	ne
 1951 03a8 43F00103 		orrne	r3, r3, #1
 1952              	.LBE1039:
 1953              	.LBE1048:
 1954              	.LBB1049:
 1955              	.LBB1044:
  73:../libs/libDaisy/src/dev/mpr121.h ****     }
 1956              		.loc 2 73 39 view .LVU437
 1957 03ac 2846     		mov	r0, r5
 1958              	.LVL95:
  73:../libs/libDaisy/src/dev/mpr121.h ****     }
 1959              		.loc 2 73 39 view .LVU438
 1960              	.LBE1044:
 1961              	.LBE1049:
 1962              	.LBB1050:
 1963              	.LBB1040:
 1964              		.loc 2 343 55 view .LVU439
 1965 03ae 84F84C30 		strb	r3, [r4, #76]
 1966              	.LVL96:
 1967              		.loc 2 343 55 view .LVU440
 1968              	.LBE1040:
 1969              	.LBE1050:
 1970              	.LBB1051:
 1971              	.LBI1041:
  70:../libs/libDaisy/src/dev/mpr121.h ****     {
 1972              		.loc 2 70 10 is_stmt 1 view .LVU441
 1973              	.LBB1045:
  72:../libs/libDaisy/src/dev/mpr121.h ****                != i2c_.ReceiveBlocking(config_.dev_addr, data, size, 10);
 1974              		.loc 2 72 9 view .LVU442
  73:../libs/libDaisy/src/dev/mpr121.h ****     }
 1975              		.loc 2 73 39 is_stmt 0 view .LVU443
 1976 03b2 0123     		movs	r3, #1
 1977 03b4 FFF7FEFF 		bl	_ZN5daisy9I2CHandle15ReceiveBlockingEtPhtm
ARM GAS  C:\Users\matte\AppData\Local\Temp\ccgZTizB.s 			page 52


 1978              	.LVL97:
  73:../libs/libDaisy/src/dev/mpr121.h ****     }
 1979              		.loc 2 73 39 view .LVU444
 1980              	.LBE1045:
 1981              	.LBE1051:
 1982              	.LBB1052:
 1983              	.LBI1052:
 1984              		.loc 2 343 10 is_stmt 1 view .LVU445
 1985              	.LBE1052:
 1986              	.LBB1056:
 1987              	.LBB1057:
  66:../libs/libDaisy/src/dev/mpr121.h ****     }
 1988              		.loc 2 66 40 is_stmt 0 view .LVU446
 1989 03b8 0097     		str	r7, [sp]
 1990              	.LBE1057:
 1991              	.LBE1056:
 1992              	.LBB1061:
 1993              	.LBB1053:
 1994              		.loc 2 343 55 view .LVU447
 1995 03ba 94F84C30 		ldrb	r3, [r4, #76]	@ zero_extendqisi2
 1996              	.LBE1053:
 1997              	.LBE1061:
 1998              	.LBB1062:
 1999              	.LBB1058:
  66:../libs/libDaisy/src/dev/mpr121.h ****     }
 2000              		.loc 2 66 40 view .LVU448
 2001 03be 09AA     		add	r2, sp, #36
 2002 03c0 94F84810 		ldrb	r1, [r4, #72]	@ zero_extendqisi2
 2003              	.LBE1058:
 2004              	.LBE1062:
 2005              	.LBB1063:
 2006              	.LBB1054:
 2007              		.loc 2 343 55 view .LVU449
 2008 03c4 4845     		cmp	r0, r9
 2009 03c6 18BF     		it	ne
 2010 03c8 43F00103 		orrne	r3, r3, #1
 2011              	.LBE1054:
 2012              	.LBE1063:
 2013              	.LBB1064:
 2014              	.LBB1059:
  66:../libs/libDaisy/src/dev/mpr121.h ****     }
 2015              		.loc 2 66 40 view .LVU450
 2016 03cc 2846     		mov	r0, r5
 2017              	.LVL98:
  66:../libs/libDaisy/src/dev/mpr121.h ****     }
 2018              		.loc 2 66 40 view .LVU451
 2019              	.LBE1059:
 2020              	.LBE1064:
 2021              	.LBB1065:
 2022              	.LBB1055:
 2023              		.loc 2 343 55 view .LVU452
 2024 03ce 84F84C30 		strb	r3, [r4, #76]
 2025              	.LVL99:
 2026              		.loc 2 343 55 view .LVU453
 2027              	.LBE1055:
 2028              	.LBE1065:
 2029              	.LBB1066:
ARM GAS  C:\Users\matte\AppData\Local\Temp\ccgZTizB.s 			page 53


 2030              	.LBI1056:
  63:../libs/libDaisy/src/dev/mpr121.h ****     {
 2031              		.loc 2 63 10 is_stmt 1 view .LVU454
 2032              	.LBB1060:
  65:../libs/libDaisy/src/dev/mpr121.h ****                != i2c_.TransmitBlocking(config_.dev_addr, data, size, 10);
 2033              		.loc 2 65 9 view .LVU455
  66:../libs/libDaisy/src/dev/mpr121.h ****     }
 2034              		.loc 2 66 40 is_stmt 0 view .LVU456
 2035 03d2 0223     		movs	r3, #2
 2036 03d4 FFF7FEFF 		bl	_ZN5daisy9I2CHandle16TransmitBlockingEtPhtm
 2037              	.LVL100:
  66:../libs/libDaisy/src/dev/mpr121.h ****     }
 2038              		.loc 2 66 40 view .LVU457
 2039              	.LBE1060:
 2040              	.LBE1066:
 2041              	.LBB1067:
 2042              	.LBI1067:
 2043              		.loc 2 343 10 is_stmt 1 view .LVU458
 2044              	.LBE1067:
 2045              	.LBB1071:
 2046              	.LBB1072:
  66:../libs/libDaisy/src/dev/mpr121.h ****     }
 2047              		.loc 2 66 40 is_stmt 0 view .LVU459
 2048 03d8 0097     		str	r7, [sp]
 2049              	.LBE1072:
 2050              	.LBE1071:
 2051              	.LBB1077:
 2052              	.LBB1068:
 2053              		.loc 2 343 55 view .LVU460
 2054 03da 94F84C30 		ldrb	r3, [r4, #76]	@ zero_extendqisi2
 2055              	.LBE1068:
 2056              	.LBE1077:
 2057              	.LBB1078:
 2058              	.LBB1073:
  66:../libs/libDaisy/src/dev/mpr121.h ****     }
 2059              		.loc 2 66 40 view .LVU461
 2060 03de 09AA     		add	r2, sp, #36
 2061 03e0 94F84810 		ldrb	r1, [r4, #72]	@ zero_extendqisi2
 2062              	.LBE1073:
 2063              	.LBE1078:
 2064              	.LBB1079:
 2065              	.LBB1069:
 2066              		.loc 2 343 55 view .LVU462
 2067 03e4 4845     		cmp	r0, r9
 2068 03e6 18BF     		it	ne
 2069 03e8 43F00103 		orrne	r3, r3, #1
 2070              	.LBE1069:
 2071              	.LBE1079:
 2072              	.LBB1080:
 2073              	.LBB1074:
  66:../libs/libDaisy/src/dev/mpr121.h ****     }
 2074              		.loc 2 66 40 view .LVU463
 2075 03ec 2846     		mov	r0, r5
 2076              	.LVL101:
  66:../libs/libDaisy/src/dev/mpr121.h ****     }
 2077              		.loc 2 66 40 view .LVU464
 2078              	.LBE1074:
ARM GAS  C:\Users\matte\AppData\Local\Temp\ccgZTizB.s 			page 54


 2079              	.LBE1080:
 282:../libs/libDaisy/src/dev/mpr121.h ****         SetTransportErr(transport_.Write(buff, 2));
 2080              		.loc 2 282 17 view .LVU465
 2081 03ee 8DF82560 		strb	r6, [sp, #37]
 2082              	.LBB1081:
 2083              	.LBB1070:
 2084              		.loc 2 343 55 view .LVU466
 2085 03f2 84F84C30 		strb	r3, [r4, #76]
 2086              	.LVL102:
 2087              		.loc 2 343 55 view .LVU467
 2088              	.LBE1070:
 2089              	.LBE1081:
 2090              	.LBB1082:
 2091              	.LBI1071:
  63:../libs/libDaisy/src/dev/mpr121.h ****     {
 2092              		.loc 2 63 10 is_stmt 1 view .LVU468
 2093              	.LBB1075:
  65:../libs/libDaisy/src/dev/mpr121.h ****                != i2c_.TransmitBlocking(config_.dev_addr, data, size, 10);
 2094              		.loc 2 65 9 view .LVU469
 2095              	.LBE1075:
 2096              	.LBE1082:
 281:../libs/libDaisy/src/dev/mpr121.h ****         buff[1] = value;
 2097              		.loc 2 281 17 is_stmt 0 view .LVU470
 2098 03f6 2B23     		movs	r3, #43
 2099 03f8 8DF82430 		strb	r3, [sp, #36]
 2100              	.LBB1083:
 2101              	.LBB1076:
  66:../libs/libDaisy/src/dev/mpr121.h ****     }
 2102              		.loc 2 66 40 view .LVU471
 2103 03fc 0223     		movs	r3, #2
 2104 03fe FFF7FEFF 		bl	_ZN5daisy9I2CHandle16TransmitBlockingEtPhtm
 2105              	.LVL103:
  66:../libs/libDaisy/src/dev/mpr121.h ****     }
 2106              		.loc 2 66 40 view .LVU472
 2107              	.LBE1076:
 2108              	.LBE1083:
 2109              	.LBB1084:
 2110              	.LBI1084:
 2111              		.loc 2 343 10 is_stmt 1 view .LVU473
 2112              	.LBE1084:
 2113              	.LBB1088:
 2114              	.LBB1089:
  66:../libs/libDaisy/src/dev/mpr121.h ****     }
 2115              		.loc 2 66 40 is_stmt 0 view .LVU474
 2116 0402 0097     		str	r7, [sp]
 2117              	.LBE1089:
 2118              	.LBE1088:
 2119              	.LBB1093:
 2120              	.LBB1085:
 2121              		.loc 2 343 55 view .LVU475
 2122 0404 94F84C30 		ldrb	r3, [r4, #76]	@ zero_extendqisi2
 2123              	.LBE1085:
 2124              	.LBE1093:
 2125              	.LBB1094:
 2126              	.LBB1090:
  66:../libs/libDaisy/src/dev/mpr121.h ****     }
 2127              		.loc 2 66 40 view .LVU476
ARM GAS  C:\Users\matte\AppData\Local\Temp\ccgZTizB.s 			page 55


 2128 0408 09AA     		add	r2, sp, #36
 2129 040a 94F84810 		ldrb	r1, [r4, #72]	@ zero_extendqisi2
 2130              	.LBE1090:
 2131              	.LBE1094:
 2132              	.LBB1095:
 2133              	.LBB1086:
 2134              		.loc 2 343 55 view .LVU477
 2135 040e 4845     		cmp	r0, r9
 2136 0410 18BF     		it	ne
 2137 0412 43F00103 		orrne	r3, r3, #1
 2138              	.LBE1086:
 2139              	.LBE1095:
 2140              	.LBB1096:
 2141              	.LBB1091:
  66:../libs/libDaisy/src/dev/mpr121.h ****     }
 2142              		.loc 2 66 40 view .LVU478
 2143 0416 2846     		mov	r0, r5
 2144              	.LVL104:
  66:../libs/libDaisy/src/dev/mpr121.h ****     }
 2145              		.loc 2 66 40 view .LVU479
 2146              	.LBE1091:
 2147              	.LBE1096:
 288:../libs/libDaisy/src/dev/mpr121.h ****             buff[1] = ecr_backup;
 2148              		.loc 2 288 21 view .LVU480
 2149 0418 8DF82480 		strb	r8, [sp, #36]
 2150              	.LBB1097:
 2151              	.LBB1087:
 2152              		.loc 2 343 55 view .LVU481
 2153 041c 84F84C30 		strb	r3, [r4, #76]
 2154              	.LVL105:
 2155              		.loc 2 343 55 view .LVU482
 2156              	.LBE1087:
 2157              	.LBE1097:
 289:../libs/libDaisy/src/dev/mpr121.h ****             SetTransportErr(transport_.Write(buff, 2));
 2158              		.loc 2 289 21 view .LVU483
 2159 0420 9DF81030 		ldrb	r3, [sp, #16]	@ zero_extendqisi2
 2160 0424 8DF82530 		strb	r3, [sp, #37]
 2161              	.LVL106:
 2162              	.LBB1098:
 2163              	.LBI1088:
  63:../libs/libDaisy/src/dev/mpr121.h ****     {
 2164              		.loc 2 63 10 is_stmt 1 view .LVU484
 2165              	.LBB1092:
  65:../libs/libDaisy/src/dev/mpr121.h ****                != i2c_.TransmitBlocking(config_.dev_addr, data, size, 10);
 2166              		.loc 2 65 9 view .LVU485
  66:../libs/libDaisy/src/dev/mpr121.h ****     }
 2167              		.loc 2 66 40 is_stmt 0 view .LVU486
 2168 0428 0223     		movs	r3, #2
 2169 042a FFF7FEFF 		bl	_ZN5daisy9I2CHandle16TransmitBlockingEtPhtm
 2170              	.LVL107:
  66:../libs/libDaisy/src/dev/mpr121.h ****     }
 2171              		.loc 2 66 40 view .LVU487
 2172              	.LBE1092:
 2173              	.LBE1098:
 2174              	.LBB1099:
 2175              	.LBI1099:
 2176              		.loc 2 343 10 is_stmt 1 view .LVU488
ARM GAS  C:\Users\matte\AppData\Local\Temp\ccgZTizB.s 			page 56


 2177              	.LBE1099:
 2178              	.LBE1032:
 2179              	.LBE1031:
 2180              	.LBB1109:
 2181              	.LBB1110:
 2182              	.LBB1111:
 2183              	.LBB1112:
  66:../libs/libDaisy/src/dev/mpr121.h ****     }
 2184              		.loc 2 66 40 is_stmt 0 view .LVU489
 2185 042e 0097     		str	r7, [sp]
 2186              	.LBE1112:
 2187              	.LBE1111:
 2188              	.LBE1110:
 2189              	.LBE1109:
 2190              	.LBB1196:
 2191              	.LBB1106:
 2192              	.LBB1103:
 2193              	.LBB1100:
 2194              		.loc 2 343 55 view .LVU490
 2195 0430 94F84C30 		ldrb	r3, [r4, #76]	@ zero_extendqisi2
 2196              	.LBE1100:
 2197              	.LBE1103:
 2198              	.LBE1106:
 2199              	.LBE1196:
 2200              	.LBB1197:
 2201              	.LBB1190:
 2202              	.LBB1117:
 2203              	.LBB1113:
  66:../libs/libDaisy/src/dev/mpr121.h ****     }
 2204              		.loc 2 66 40 view .LVU491
 2205 0434 09AA     		add	r2, sp, #36
 2206 0436 94F84810 		ldrb	r1, [r4, #72]	@ zero_extendqisi2
 2207              	.LBE1113:
 2208              	.LBE1117:
 2209              	.LBE1190:
 2210              	.LBE1197:
 2211              	.LBB1198:
 2212              	.LBB1107:
 2213              	.LBB1104:
 2214              	.LBB1101:
 2215              		.loc 2 343 55 view .LVU492
 2216 043a 4845     		cmp	r0, r9
 2217 043c 18BF     		it	ne
 2218 043e 43F00103 		orrne	r3, r3, #1
 2219              	.LBE1101:
 2220              	.LBE1104:
 2221              	.LBE1107:
 2222              	.LBE1198:
 2223              	.LBB1199:
 2224              	.LBB1191:
 2225              	.LBB1118:
 2226              	.LBB1114:
  66:../libs/libDaisy/src/dev/mpr121.h ****     }
 2227              		.loc 2 66 40 view .LVU493
 2228 0442 2846     		mov	r0, r5
 2229              	.LVL108:
  66:../libs/libDaisy/src/dev/mpr121.h ****     }
ARM GAS  C:\Users\matte\AppData\Local\Temp\ccgZTizB.s 			page 57


 2230              		.loc 2 66 40 view .LVU494
 2231              	.LBE1114:
 2232              	.LBE1118:
 264:../libs/libDaisy/src/dev/mpr121.h **** 
 2233              		.loc 2 264 17 view .LVU495
 2234 0444 8DF82590 		strb	r9, [sp, #37]
 2235              	.LBE1191:
 2236              	.LBE1199:
 2237              	.LBB1200:
 2238              	.LBB1108:
 2239              	.LBB1105:
 2240              	.LBB1102:
 2241              		.loc 2 343 55 view .LVU496
 2242 0448 84F84C30 		strb	r3, [r4, #76]
 2243              	.LVL109:
 2244              		.loc 2 343 55 view .LVU497
 2245              	.LBE1102:
 2246              	.LBE1105:
 2247              	.LBE1108:
 2248              	.LBE1200:
 2249              	.LBB1201:
 2250              	.LBI1109:
 257:../libs/libDaisy/src/dev/mpr121.h ****     {
 2251              		.loc 2 257 10 is_stmt 1 view .LVU498
 2252              	.LBB1192:
 2253              	.LBB1119:
 2254              	.LBI1111:
  63:../libs/libDaisy/src/dev/mpr121.h ****     {
 2255              		.loc 2 63 10 view .LVU499
 2256              	.LBB1115:
  65:../libs/libDaisy/src/dev/mpr121.h ****                != i2c_.TransmitBlocking(config_.dev_addr, data, size, 10);
 2257              		.loc 2 65 9 view .LVU500
  66:../libs/libDaisy/src/dev/mpr121.h ****     }
 2258              		.loc 2 66 40 is_stmt 0 view .LVU501
 2259 044c 3346     		mov	r3, r6
 2260              	.LBE1115:
 2261              	.LBE1119:
 264:../libs/libDaisy/src/dev/mpr121.h **** 
 2262              		.loc 2 264 17 view .LVU502
 2263 044e 8DF82480 		strb	r8, [sp, #36]
 2264              	.LBB1120:
 2265              	.LBB1116:
  66:../libs/libDaisy/src/dev/mpr121.h ****     }
 2266              		.loc 2 66 40 view .LVU503
 2267 0452 FFF7FEFF 		bl	_ZN5daisy9I2CHandle16TransmitBlockingEtPhtm
 2268              	.LVL110:
  66:../libs/libDaisy/src/dev/mpr121.h ****     }
 2269              		.loc 2 66 40 view .LVU504
 2270              	.LBE1116:
 2271              	.LBE1120:
 2272              	.LBB1121:
 2273              	.LBI1121:
 2274              		.loc 2 343 10 is_stmt 1 view .LVU505
 2275              	.LBE1121:
 2276              	.LBB1125:
 2277              	.LBB1126:
  73:../libs/libDaisy/src/dev/mpr121.h ****     }
ARM GAS  C:\Users\matte\AppData\Local\Temp\ccgZTizB.s 			page 58


 2278              		.loc 2 73 39 is_stmt 0 view .LVU506
 2279 0456 0097     		str	r7, [sp]
 2280 0458 04AA     		add	r2, sp, #16
 2281              	.LBE1126:
 2282              	.LBE1125:
 2283              	.LBB1130:
 2284              	.LBB1122:
 2285              		.loc 2 343 55 view .LVU507
 2286 045a 94F84C30 		ldrb	r3, [r4, #76]	@ zero_extendqisi2
 2287              	.LBE1122:
 2288              	.LBE1130:
 2289              	.LBB1131:
 2290              	.LBB1127:
  73:../libs/libDaisy/src/dev/mpr121.h ****     }
 2291              		.loc 2 73 39 view .LVU508
 2292 045e 94F84810 		ldrb	r1, [r4, #72]	@ zero_extendqisi2
 2293              	.LBE1127:
 2294              	.LBE1131:
 2295              	.LBB1132:
 2296              	.LBB1123:
 2297              		.loc 2 343 55 view .LVU509
 2298 0462 4845     		cmp	r0, r9
 2299 0464 18BF     		it	ne
 2300 0466 43F00103 		orrne	r3, r3, #1
 2301              	.LBE1123:
 2302              	.LBE1132:
 2303              	.LBB1133:
 2304              	.LBB1128:
  73:../libs/libDaisy/src/dev/mpr121.h ****     }
 2305              		.loc 2 73 39 view .LVU510
 2306 046a 2846     		mov	r0, r5
 2307              	.LVL111:
  73:../libs/libDaisy/src/dev/mpr121.h ****     }
 2308              		.loc 2 73 39 view .LVU511
 2309              	.LBE1128:
 2310              	.LBE1133:
 2311              	.LBB1134:
 2312              	.LBB1124:
 2313              		.loc 2 343 55 view .LVU512
 2314 046c 84F84C30 		strb	r3, [r4, #76]
 2315              	.LVL112:
 2316              		.loc 2 343 55 view .LVU513
 2317              	.LBE1124:
 2318              	.LBE1134:
 2319              	.LBB1135:
 2320              	.LBI1125:
  70:../libs/libDaisy/src/dev/mpr121.h ****     {
 2321              		.loc 2 70 10 is_stmt 1 view .LVU514
 2322              	.LBB1129:
  72:../libs/libDaisy/src/dev/mpr121.h ****                != i2c_.ReceiveBlocking(config_.dev_addr, data, size, 10);
 2323              		.loc 2 72 9 view .LVU515
  73:../libs/libDaisy/src/dev/mpr121.h ****     }
 2324              		.loc 2 73 39 is_stmt 0 view .LVU516
 2325 0470 3346     		mov	r3, r6
 2326 0472 FFF7FEFF 		bl	_ZN5daisy9I2CHandle15ReceiveBlockingEtPhtm
 2327              	.LVL113:
  73:../libs/libDaisy/src/dev/mpr121.h ****     }
ARM GAS  C:\Users\matte\AppData\Local\Temp\ccgZTizB.s 			page 59


 2328              		.loc 2 73 39 view .LVU517
 2329              	.LBE1129:
 2330              	.LBE1135:
 2331              	.LBB1136:
 2332              	.LBI1136:
 2333              		.loc 2 343 10 is_stmt 1 view .LVU518
 2334              	.LBE1136:
 2335              	.LBB1140:
 2336              	.LBB1141:
  66:../libs/libDaisy/src/dev/mpr121.h ****     }
 2337              		.loc 2 66 40 is_stmt 0 view .LVU519
 2338 0476 0097     		str	r7, [sp]
 2339              	.LBE1141:
 2340              	.LBE1140:
 2341              	.LBB1145:
 2342              	.LBB1137:
 2343              		.loc 2 343 55 view .LVU520
 2344 0478 94F84C30 		ldrb	r3, [r4, #76]	@ zero_extendqisi2
 2345              	.LBE1137:
 2346              	.LBE1145:
 2347              	.LBB1146:
 2348              	.LBB1142:
  66:../libs/libDaisy/src/dev/mpr121.h ****     }
 2349              		.loc 2 66 40 view .LVU521
 2350 047c 09AA     		add	r2, sp, #36
 2351 047e 94F84810 		ldrb	r1, [r4, #72]	@ zero_extendqisi2
 2352              	.LBE1142:
 2353              	.LBE1146:
 2354              	.LBB1147:
 2355              	.LBB1138:
 2356              		.loc 2 343 55 view .LVU522
 2357 0482 4845     		cmp	r0, r9
 2358 0484 18BF     		it	ne
 2359 0486 43F00103 		orrne	r3, r3, #1
 2360              	.LBE1138:
 2361              	.LBE1147:
 2362              	.LBB1148:
 2363              	.LBB1143:
  66:../libs/libDaisy/src/dev/mpr121.h ****     }
 2364              		.loc 2 66 40 view .LVU523
 2365 048a 2846     		mov	r0, r5
 2366              	.LVL114:
  66:../libs/libDaisy/src/dev/mpr121.h ****     }
 2367              		.loc 2 66 40 view .LVU524
 2368              	.LBE1143:
 2369              	.LBE1148:
 2370              	.LBB1149:
 2371              	.LBB1139:
 2372              		.loc 2 343 55 view .LVU525
 2373 048c 84F84C30 		strb	r3, [r4, #76]
 2374              	.LVL115:
 2375              		.loc 2 343 55 view .LVU526
 2376              	.LBE1139:
 2377              	.LBE1149:
 2378              	.LBB1150:
 2379              	.LBI1140:
  63:../libs/libDaisy/src/dev/mpr121.h ****     {
ARM GAS  C:\Users\matte\AppData\Local\Temp\ccgZTizB.s 			page 60


 2380              		.loc 2 63 10 is_stmt 1 view .LVU527
 2381              	.LBB1144:
  65:../libs/libDaisy/src/dev/mpr121.h ****                != i2c_.TransmitBlocking(config_.dev_addr, data, size, 10);
 2382              		.loc 2 65 9 view .LVU528
  66:../libs/libDaisy/src/dev/mpr121.h ****     }
 2383              		.loc 2 66 40 is_stmt 0 view .LVU529
 2384 0490 0223     		movs	r3, #2
 2385 0492 FFF7FEFF 		bl	_ZN5daisy9I2CHandle16TransmitBlockingEtPhtm
 2386              	.LVL116:
  66:../libs/libDaisy/src/dev/mpr121.h ****     }
 2387              		.loc 2 66 40 view .LVU530
 2388              	.LBE1144:
 2389              	.LBE1150:
 2390              	.LBB1151:
 2391              	.LBI1151:
 2392              		.loc 2 343 10 is_stmt 1 view .LVU531
 2393              	.LBE1151:
 2394              	.LBB1155:
 2395              	.LBB1156:
  66:../libs/libDaisy/src/dev/mpr121.h ****     }
 2396              		.loc 2 66 40 is_stmt 0 view .LVU532
 2397 0496 0097     		str	r7, [sp]
 2398              	.LBE1156:
 2399              	.LBE1155:
 2400              	.LBB1161:
 2401              	.LBB1152:
 2402              		.loc 2 343 55 view .LVU533
 2403 0498 94F84C30 		ldrb	r3, [r4, #76]	@ zero_extendqisi2
 2404              	.LBE1152:
 2405              	.LBE1161:
 2406              	.LBB1162:
 2407              	.LBB1157:
  66:../libs/libDaisy/src/dev/mpr121.h ****     }
 2408              		.loc 2 66 40 view .LVU534
 2409 049c 09AA     		add	r2, sp, #36
 2410 049e 94F84810 		ldrb	r1, [r4, #72]	@ zero_extendqisi2
 2411              	.LBE1157:
 2412              	.LBE1162:
 2413              	.LBB1163:
 2414              	.LBB1153:
 2415              		.loc 2 343 55 view .LVU535
 2416 04a2 4845     		cmp	r0, r9
 2417 04a4 18BF     		it	ne
 2418 04a6 43F00103 		orrne	r3, r3, #1
 2419              	.LBE1153:
 2420              	.LBE1163:
 2421              	.LBB1164:
 2422              	.LBB1158:
  66:../libs/libDaisy/src/dev/mpr121.h ****     }
 2423              		.loc 2 66 40 view .LVU536
 2424 04aa 2846     		mov	r0, r5
 2425              	.LVL117:
  66:../libs/libDaisy/src/dev/mpr121.h ****     }
 2426              		.loc 2 66 40 view .LVU537
 2427              	.LBE1158:
 2428              	.LBE1164:
 282:../libs/libDaisy/src/dev/mpr121.h ****         SetTransportErr(transport_.Write(buff, 2));
ARM GAS  C:\Users\matte\AppData\Local\Temp\ccgZTizB.s 			page 61


 2429              		.loc 2 282 17 view .LVU538
 2430 04ac 8DF82560 		strb	r6, [sp, #37]
 2431              	.LBB1165:
 2432              	.LBB1154:
 2433              		.loc 2 343 55 view .LVU539
 2434 04b0 84F84C30 		strb	r3, [r4, #76]
 2435              	.LVL118:
 2436              		.loc 2 343 55 view .LVU540
 2437              	.LBE1154:
 2438              	.LBE1165:
 2439              	.LBB1166:
 2440              	.LBI1155:
  63:../libs/libDaisy/src/dev/mpr121.h ****     {
 2441              		.loc 2 63 10 is_stmt 1 view .LVU541
 2442              	.LBB1159:
  65:../libs/libDaisy/src/dev/mpr121.h ****                != i2c_.TransmitBlocking(config_.dev_addr, data, size, 10);
 2443              		.loc 2 65 9 view .LVU542
 2444              	.LBE1159:
 2445              	.LBE1166:
 281:../libs/libDaisy/src/dev/mpr121.h ****         buff[1] = value;
 2446              		.loc 2 281 17 is_stmt 0 view .LVU543
 2447 04b4 2C23     		movs	r3, #44
 2448 04b6 8DF82430 		strb	r3, [sp, #36]
 2449              	.LBB1167:
 2450              	.LBB1160:
  66:../libs/libDaisy/src/dev/mpr121.h ****     }
 2451              		.loc 2 66 40 view .LVU544
 2452 04ba 0223     		movs	r3, #2
 2453 04bc FFF7FEFF 		bl	_ZN5daisy9I2CHandle16TransmitBlockingEtPhtm
 2454              	.LVL119:
  66:../libs/libDaisy/src/dev/mpr121.h ****     }
 2455              		.loc 2 66 40 view .LVU545
 2456              	.LBE1160:
 2457              	.LBE1167:
 2458              	.LBB1168:
 2459              	.LBI1168:
 2460              		.loc 2 343 10 is_stmt 1 view .LVU546
 2461              	.LBE1168:
 2462              	.LBB1172:
 2463              	.LBB1173:
  66:../libs/libDaisy/src/dev/mpr121.h ****     }
 2464              		.loc 2 66 40 is_stmt 0 view .LVU547
 2465 04c0 0097     		str	r7, [sp]
 2466              	.LBE1173:
 2467              	.LBE1172:
 2468              	.LBB1177:
 2469              	.LBB1169:
 2470              		.loc 2 343 55 view .LVU548
 2471 04c2 94F84C30 		ldrb	r3, [r4, #76]	@ zero_extendqisi2
 2472              	.LBE1169:
 2473              	.LBE1177:
 2474              	.LBB1178:
 2475              	.LBB1174:
  66:../libs/libDaisy/src/dev/mpr121.h ****     }
 2476              		.loc 2 66 40 view .LVU549
 2477 04c6 09AA     		add	r2, sp, #36
 2478 04c8 94F84810 		ldrb	r1, [r4, #72]	@ zero_extendqisi2
ARM GAS  C:\Users\matte\AppData\Local\Temp\ccgZTizB.s 			page 62


 2479              	.LBE1174:
 2480              	.LBE1178:
 2481              	.LBB1179:
 2482              	.LBB1170:
 2483              		.loc 2 343 55 view .LVU550
 2484 04cc 4845     		cmp	r0, r9
 2485 04ce 18BF     		it	ne
 2486 04d0 43F00103 		orrne	r3, r3, #1
 2487              	.LBE1170:
 2488              	.LBE1179:
 2489              	.LBB1180:
 2490              	.LBB1175:
  66:../libs/libDaisy/src/dev/mpr121.h ****     }
 2491              		.loc 2 66 40 view .LVU551
 2492 04d4 2846     		mov	r0, r5
 2493              	.LVL120:
  66:../libs/libDaisy/src/dev/mpr121.h ****     }
 2494              		.loc 2 66 40 view .LVU552
 2495              	.LBE1175:
 2496              	.LBE1180:
 288:../libs/libDaisy/src/dev/mpr121.h ****             buff[1] = ecr_backup;
 2497              		.loc 2 288 21 view .LVU553
 2498 04d6 8DF82480 		strb	r8, [sp, #36]
 2499              	.LBB1181:
 2500              	.LBB1171:
 2501              		.loc 2 343 55 view .LVU554
 2502 04da 84F84C30 		strb	r3, [r4, #76]
 2503              	.LVL121:
 2504              		.loc 2 343 55 view .LVU555
 2505              	.LBE1171:
 2506              	.LBE1181:
 289:../libs/libDaisy/src/dev/mpr121.h ****             SetTransportErr(transport_.Write(buff, 2));
 2507              		.loc 2 289 21 view .LVU556
 2508 04de 9DF81030 		ldrb	r3, [sp, #16]	@ zero_extendqisi2
 2509 04e2 8DF82530 		strb	r3, [sp, #37]
 2510              	.LVL122:
 2511              	.LBB1182:
 2512              	.LBI1172:
  63:../libs/libDaisy/src/dev/mpr121.h ****     {
 2513              		.loc 2 63 10 is_stmt 1 view .LVU557
 2514              	.LBB1176:
  65:../libs/libDaisy/src/dev/mpr121.h ****                != i2c_.TransmitBlocking(config_.dev_addr, data, size, 10);
 2515              		.loc 2 65 9 view .LVU558
  66:../libs/libDaisy/src/dev/mpr121.h ****     }
 2516              		.loc 2 66 40 is_stmt 0 view .LVU559
 2517 04e6 0223     		movs	r3, #2
 2518 04e8 FFF7FEFF 		bl	_ZN5daisy9I2CHandle16TransmitBlockingEtPhtm
 2519              	.LVL123:
  66:../libs/libDaisy/src/dev/mpr121.h ****     }
 2520              		.loc 2 66 40 view .LVU560
 2521              	.LBE1176:
 2522              	.LBE1182:
 2523              	.LBB1183:
 2524              	.LBI1183:
 2525              		.loc 2 343 10 is_stmt 1 view .LVU561
 2526              	.LBE1183:
 2527              	.LBE1192:
ARM GAS  C:\Users\matte\AppData\Local\Temp\ccgZTizB.s 			page 63


 2528              	.LBE1201:
 2529              	.LBB1202:
 2530              	.LBB1203:
 2531              	.LBB1204:
 2532              	.LBB1205:
  66:../libs/libDaisy/src/dev/mpr121.h ****     }
 2533              		.loc 2 66 40 is_stmt 0 view .LVU562
 2534 04ec 0097     		str	r7, [sp]
 2535              	.LBE1205:
 2536              	.LBE1204:
 2537              	.LBE1203:
 2538              	.LBE1202:
 2539              	.LBB1287:
 2540              	.LBB1193:
 2541              	.LBB1187:
 2542              	.LBB1184:
 2543              		.loc 2 343 55 view .LVU563
 2544 04ee 94F84C30 		ldrb	r3, [r4, #76]	@ zero_extendqisi2
 2545              	.LBE1184:
 2546              	.LBE1187:
 2547              	.LBE1193:
 2548              	.LBE1287:
 2549              	.LBB1288:
 2550              	.LBB1281:
 2551              	.LBB1210:
 2552              	.LBB1206:
  66:../libs/libDaisy/src/dev/mpr121.h ****     }
 2553              		.loc 2 66 40 view .LVU564
 2554 04f2 09AA     		add	r2, sp, #36
 2555 04f4 94F84810 		ldrb	r1, [r4, #72]	@ zero_extendqisi2
 2556              	.LBE1206:
 2557              	.LBE1210:
 2558              	.LBE1281:
 2559              	.LBE1288:
 2560              	.LBB1289:
 2561              	.LBB1194:
 2562              	.LBB1188:
 2563              	.LBB1185:
 2564              		.loc 2 343 55 view .LVU565
 2565 04f8 4845     		cmp	r0, r9
 2566 04fa 18BF     		it	ne
 2567 04fc 43F00103 		orrne	r3, r3, #1
 2568              	.LBE1185:
 2569              	.LBE1188:
 2570              	.LBE1194:
 2571              	.LBE1289:
 2572              	.LBB1290:
 2573              	.LBB1282:
 2574              	.LBB1211:
 2575              	.LBB1207:
  66:../libs/libDaisy/src/dev/mpr121.h ****     }
 2576              		.loc 2 66 40 view .LVU566
 2577 0500 2846     		mov	r0, r5
 2578              	.LVL124:
  66:../libs/libDaisy/src/dev/mpr121.h ****     }
 2579              		.loc 2 66 40 view .LVU567
 2580              	.LBE1207:
ARM GAS  C:\Users\matte\AppData\Local\Temp\ccgZTizB.s 			page 64


 2581              	.LBE1211:
 264:../libs/libDaisy/src/dev/mpr121.h **** 
 2582              		.loc 2 264 17 view .LVU568
 2583 0502 8DF82590 		strb	r9, [sp, #37]
 2584              	.LBE1282:
 2585              	.LBE1290:
 2586              	.LBB1291:
 2587              	.LBB1195:
 2588              	.LBB1189:
 2589              	.LBB1186:
 2590              		.loc 2 343 55 view .LVU569
 2591 0506 84F84C30 		strb	r3, [r4, #76]
 2592              	.LVL125:
 2593              		.loc 2 343 55 view .LVU570
 2594              	.LBE1186:
 2595              	.LBE1189:
 2596              	.LBE1195:
 2597              	.LBE1291:
 2598              	.LBB1292:
 2599              	.LBI1202:
 257:../libs/libDaisy/src/dev/mpr121.h ****     {
 2600              		.loc 2 257 10 is_stmt 1 view .LVU571
 2601              	.LBB1283:
 2602              	.LBB1212:
 2603              	.LBI1204:
  63:../libs/libDaisy/src/dev/mpr121.h ****     {
 2604              		.loc 2 63 10 view .LVU572
 2605              	.LBB1208:
  65:../libs/libDaisy/src/dev/mpr121.h ****                != i2c_.TransmitBlocking(config_.dev_addr, data, size, 10);
 2606              		.loc 2 65 9 view .LVU573
  66:../libs/libDaisy/src/dev/mpr121.h ****     }
 2607              		.loc 2 66 40 is_stmt 0 view .LVU574
 2608 050a 3346     		mov	r3, r6
 2609              	.LBE1208:
 2610              	.LBE1212:
 264:../libs/libDaisy/src/dev/mpr121.h **** 
 2611              		.loc 2 264 17 view .LVU575
 2612 050c 8DF82480 		strb	r8, [sp, #36]
 2613              	.LBB1213:
 2614              	.LBB1209:
  66:../libs/libDaisy/src/dev/mpr121.h ****     }
 2615              		.loc 2 66 40 view .LVU576
 2616 0510 FFF7FEFF 		bl	_ZN5daisy9I2CHandle16TransmitBlockingEtPhtm
 2617              	.LVL126:
  66:../libs/libDaisy/src/dev/mpr121.h ****     }
 2618              		.loc 2 66 40 view .LVU577
 2619              	.LBE1209:
 2620              	.LBE1213:
 2621              	.LBB1214:
 2622              	.LBI1214:
 2623              		.loc 2 343 10 is_stmt 1 view .LVU578
 2624              	.LBE1214:
 2625              	.LBB1218:
 2626              	.LBB1219:
  73:../libs/libDaisy/src/dev/mpr121.h ****     }
 2627              		.loc 2 73 39 is_stmt 0 view .LVU579
 2628 0514 0097     		str	r7, [sp]
ARM GAS  C:\Users\matte\AppData\Local\Temp\ccgZTizB.s 			page 65


 2629 0516 04AA     		add	r2, sp, #16
 2630              	.LBE1219:
 2631              	.LBE1218:
 2632              	.LBB1223:
 2633              	.LBB1215:
 2634              		.loc 2 343 55 view .LVU580
 2635 0518 94F84C30 		ldrb	r3, [r4, #76]	@ zero_extendqisi2
 2636              	.LBE1215:
 2637              	.LBE1223:
 2638              	.LBB1224:
 2639              	.LBB1220:
  73:../libs/libDaisy/src/dev/mpr121.h ****     }
 2640              		.loc 2 73 39 view .LVU581
 2641 051c 94F84810 		ldrb	r1, [r4, #72]	@ zero_extendqisi2
 2642              	.LBE1220:
 2643              	.LBE1224:
 2644              	.LBB1225:
 2645              	.LBB1216:
 2646              		.loc 2 343 55 view .LVU582
 2647 0520 4845     		cmp	r0, r9
 2648 0522 18BF     		it	ne
 2649 0524 43F00103 		orrne	r3, r3, #1
 2650              	.LBE1216:
 2651              	.LBE1225:
 2652              	.LBB1226:
 2653              	.LBB1221:
  73:../libs/libDaisy/src/dev/mpr121.h ****     }
 2654              		.loc 2 73 39 view .LVU583
 2655 0528 2846     		mov	r0, r5
 2656              	.LVL127:
  73:../libs/libDaisy/src/dev/mpr121.h ****     }
 2657              		.loc 2 73 39 view .LVU584
 2658              	.LBE1221:
 2659              	.LBE1226:
 2660              	.LBB1227:
 2661              	.LBB1217:
 2662              		.loc 2 343 55 view .LVU585
 2663 052a 84F84C30 		strb	r3, [r4, #76]
 2664              	.LVL128:
 2665              		.loc 2 343 55 view .LVU586
 2666              	.LBE1217:
 2667              	.LBE1227:
 2668              	.LBB1228:
 2669              	.LBI1218:
  70:../libs/libDaisy/src/dev/mpr121.h ****     {
 2670              		.loc 2 70 10 is_stmt 1 view .LVU587
 2671              	.LBB1222:
  72:../libs/libDaisy/src/dev/mpr121.h ****                != i2c_.ReceiveBlocking(config_.dev_addr, data, size, 10);
 2672              		.loc 2 72 9 view .LVU588
  73:../libs/libDaisy/src/dev/mpr121.h ****     }
 2673              		.loc 2 73 39 is_stmt 0 view .LVU589
 2674 052e 3346     		mov	r3, r6
 2675 0530 FFF7FEFF 		bl	_ZN5daisy9I2CHandle15ReceiveBlockingEtPhtm
 2676              	.LVL129:
  73:../libs/libDaisy/src/dev/mpr121.h ****     }
 2677              		.loc 2 73 39 view .LVU590
 2678              	.LBE1222:
ARM GAS  C:\Users\matte\AppData\Local\Temp\ccgZTizB.s 			page 66


 2679              	.LBE1228:
 2680              	.LBB1229:
 2681              	.LBI1229:
 2682              		.loc 2 343 10 is_stmt 1 view .LVU591
 2683              	.LBE1229:
 2684              	.LBB1233:
 2685              	.LBB1234:
  66:../libs/libDaisy/src/dev/mpr121.h ****     }
 2686              		.loc 2 66 40 is_stmt 0 view .LVU592
 2687 0534 0097     		str	r7, [sp]
 2688              	.LBE1234:
 2689              	.LBE1233:
 2690              	.LBB1238:
 2691              	.LBB1230:
 2692              		.loc 2 343 55 view .LVU593
 2693 0536 94F84C30 		ldrb	r3, [r4, #76]	@ zero_extendqisi2
 2694              	.LBE1230:
 2695              	.LBE1238:
 2696              	.LBB1239:
 2697              	.LBB1235:
  66:../libs/libDaisy/src/dev/mpr121.h ****     }
 2698              		.loc 2 66 40 view .LVU594
 2699 053a 09AA     		add	r2, sp, #36
 2700 053c 94F84810 		ldrb	r1, [r4, #72]	@ zero_extendqisi2
 2701              	.LBE1235:
 2702              	.LBE1239:
 2703              	.LBB1240:
 2704              	.LBB1231:
 2705              		.loc 2 343 55 view .LVU595
 2706 0540 4845     		cmp	r0, r9
 2707 0542 18BF     		it	ne
 2708 0544 43F00103 		orrne	r3, r3, #1
 2709              	.LBE1231:
 2710              	.LBE1240:
 2711              	.LBB1241:
 2712              	.LBB1236:
  66:../libs/libDaisy/src/dev/mpr121.h ****     }
 2713              		.loc 2 66 40 view .LVU596
 2714 0548 2846     		mov	r0, r5
 2715              	.LVL130:
  66:../libs/libDaisy/src/dev/mpr121.h ****     }
 2716              		.loc 2 66 40 view .LVU597
 2717              	.LBE1236:
 2718              	.LBE1241:
 2719              	.LBB1242:
 2720              	.LBB1232:
 2721              		.loc 2 343 55 view .LVU598
 2722 054a 84F84C30 		strb	r3, [r4, #76]
 2723              	.LVL131:
 2724              		.loc 2 343 55 view .LVU599
 2725              	.LBE1232:
 2726              	.LBE1242:
 2727              	.LBB1243:
 2728              	.LBI1233:
  63:../libs/libDaisy/src/dev/mpr121.h ****     {
 2729              		.loc 2 63 10 is_stmt 1 view .LVU600
 2730              	.LBB1237:
ARM GAS  C:\Users\matte\AppData\Local\Temp\ccgZTizB.s 			page 67


  65:../libs/libDaisy/src/dev/mpr121.h ****                != i2c_.TransmitBlocking(config_.dev_addr, data, size, 10);
 2731              		.loc 2 65 9 view .LVU601
  66:../libs/libDaisy/src/dev/mpr121.h ****     }
 2732              		.loc 2 66 40 is_stmt 0 view .LVU602
 2733 054e 0223     		movs	r3, #2
 2734 0550 FFF7FEFF 		bl	_ZN5daisy9I2CHandle16TransmitBlockingEtPhtm
 2735              	.LVL132:
  66:../libs/libDaisy/src/dev/mpr121.h ****     }
 2736              		.loc 2 66 40 view .LVU603
 2737              	.LBE1237:
 2738              	.LBE1243:
 2739              	.LBB1244:
 2740              	.LBI1244:
 2741              		.loc 2 343 10 is_stmt 1 view .LVU604
 2742              	.LBE1244:
 2743              	.LBB1248:
 2744              	.LBB1249:
  66:../libs/libDaisy/src/dev/mpr121.h ****     }
 2745              		.loc 2 66 40 is_stmt 0 view .LVU605
 2746 0554 0097     		str	r7, [sp]
 2747              	.LBE1249:
 2748              	.LBE1248:
 2749              	.LBB1253:
 2750              	.LBB1245:
 2751              		.loc 2 343 55 view .LVU606
 2752 0556 94F84C30 		ldrb	r3, [r4, #76]	@ zero_extendqisi2
 2753              	.LBE1245:
 2754              	.LBE1253:
 2755              	.LBB1254:
 2756              	.LBB1250:
  66:../libs/libDaisy/src/dev/mpr121.h ****     }
 2757              		.loc 2 66 40 view .LVU607
 2758 055a 09AA     		add	r2, sp, #36
 2759 055c 94F84810 		ldrb	r1, [r4, #72]	@ zero_extendqisi2
 2760              	.LBE1250:
 2761              	.LBE1254:
 2762              	.LBB1255:
 2763              	.LBB1246:
 2764              		.loc 2 343 55 view .LVU608
 2765 0560 4845     		cmp	r0, r9
 2766 0562 18BF     		it	ne
 2767 0564 43F00103 		orrne	r3, r3, #1
 2768              	.LBE1246:
 2769              	.LBE1255:
 2770              	.LBB1256:
 2771              	.LBB1251:
  66:../libs/libDaisy/src/dev/mpr121.h ****     }
 2772              		.loc 2 66 40 view .LVU609
 2773 0568 2846     		mov	r0, r5
 2774              	.LVL133:
  66:../libs/libDaisy/src/dev/mpr121.h ****     }
 2775              		.loc 2 66 40 view .LVU610
 2776              	.LBE1251:
 2777              	.LBE1256:
 2778              	.LBB1257:
 2779              	.LBB1247:
 2780              		.loc 2 343 55 view .LVU611
ARM GAS  C:\Users\matte\AppData\Local\Temp\ccgZTizB.s 			page 68


 2781 056a 84F84C30 		strb	r3, [r4, #76]
 2782              	.LVL134:
 2783              		.loc 2 343 55 view .LVU612
 2784              	.LBE1247:
 2785              	.LBE1257:
 281:../libs/libDaisy/src/dev/mpr121.h ****         buff[1] = value;
 2786              		.loc 2 281 17 view .LVU613
 2787 056e 2D23     		movs	r3, #45
 2788 0570 8DF82430 		strb	r3, [sp, #36]
 282:../libs/libDaisy/src/dev/mpr121.h ****         SetTransportErr(transport_.Write(buff, 2));
 2789              		.loc 2 282 17 view .LVU614
 2790 0574 0E23     		movs	r3, #14
 2791 0576 8DF82530 		strb	r3, [sp, #37]
 2792              	.LVL135:
 2793              	.LBB1258:
 2794              	.LBI1248:
  63:../libs/libDaisy/src/dev/mpr121.h ****     {
 2795              		.loc 2 63 10 is_stmt 1 view .LVU615
 2796              	.LBB1252:
  65:../libs/libDaisy/src/dev/mpr121.h ****                != i2c_.TransmitBlocking(config_.dev_addr, data, size, 10);
 2797              		.loc 2 65 9 view .LVU616
  66:../libs/libDaisy/src/dev/mpr121.h ****     }
 2798              		.loc 2 66 40 is_stmt 0 view .LVU617
 2799 057a 0223     		movs	r3, #2
 2800 057c FFF7FEFF 		bl	_ZN5daisy9I2CHandle16TransmitBlockingEtPhtm
 2801              	.LVL136:
  66:../libs/libDaisy/src/dev/mpr121.h ****     }
 2802              		.loc 2 66 40 view .LVU618
 2803              	.LBE1252:
 2804              	.LBE1258:
 2805              	.LBB1259:
 2806              	.LBI1259:
 2807              		.loc 2 343 10 is_stmt 1 view .LVU619
 2808              	.LBE1259:
 2809              	.LBB1263:
 2810              	.LBB1264:
  66:../libs/libDaisy/src/dev/mpr121.h ****     }
 2811              		.loc 2 66 40 is_stmt 0 view .LVU620
 2812 0580 0097     		str	r7, [sp]
 2813              	.LBE1264:
 2814              	.LBE1263:
 2815              	.LBB1268:
 2816              	.LBB1260:
 2817              		.loc 2 343 55 view .LVU621
 2818 0582 94F84C30 		ldrb	r3, [r4, #76]	@ zero_extendqisi2
 2819              	.LBE1260:
 2820              	.LBE1268:
 2821              	.LBB1269:
 2822              	.LBB1265:
  66:../libs/libDaisy/src/dev/mpr121.h ****     }
 2823              		.loc 2 66 40 view .LVU622
 2824 0586 09AA     		add	r2, sp, #36
 2825 0588 94F84810 		ldrb	r1, [r4, #72]	@ zero_extendqisi2
 2826              	.LBE1265:
 2827              	.LBE1269:
 2828              	.LBB1270:
 2829              	.LBB1261:
ARM GAS  C:\Users\matte\AppData\Local\Temp\ccgZTizB.s 			page 69


 2830              		.loc 2 343 55 view .LVU623
 2831 058c 4845     		cmp	r0, r9
 2832 058e 18BF     		it	ne
 2833 0590 43F00103 		orrne	r3, r3, #1
 2834              	.LBE1261:
 2835              	.LBE1270:
 2836              	.LBB1271:
 2837              	.LBB1266:
  66:../libs/libDaisy/src/dev/mpr121.h ****     }
 2838              		.loc 2 66 40 view .LVU624
 2839 0594 2846     		mov	r0, r5
 2840              	.LVL137:
  66:../libs/libDaisy/src/dev/mpr121.h ****     }
 2841              		.loc 2 66 40 view .LVU625
 2842              	.LBE1266:
 2843              	.LBE1271:
 288:../libs/libDaisy/src/dev/mpr121.h ****             buff[1] = ecr_backup;
 2844              		.loc 2 288 21 view .LVU626
 2845 0596 8DF82480 		strb	r8, [sp, #36]
 2846              	.LBB1272:
 2847              	.LBB1262:
 2848              		.loc 2 343 55 view .LVU627
 2849 059a 84F84C30 		strb	r3, [r4, #76]
 2850              	.LVL138:
 2851              		.loc 2 343 55 view .LVU628
 2852              	.LBE1262:
 2853              	.LBE1272:
 289:../libs/libDaisy/src/dev/mpr121.h ****             SetTransportErr(transport_.Write(buff, 2));
 2854              		.loc 2 289 21 view .LVU629
 2855 059e 9DF81030 		ldrb	r3, [sp, #16]	@ zero_extendqisi2
 2856 05a2 8DF82530 		strb	r3, [sp, #37]
 2857              	.LVL139:
 2858              	.LBB1273:
 2859              	.LBI1263:
  63:../libs/libDaisy/src/dev/mpr121.h ****     {
 2860              		.loc 2 63 10 is_stmt 1 view .LVU630
 2861              	.LBB1267:
  65:../libs/libDaisy/src/dev/mpr121.h ****                != i2c_.TransmitBlocking(config_.dev_addr, data, size, 10);
 2862              		.loc 2 65 9 view .LVU631
  66:../libs/libDaisy/src/dev/mpr121.h ****     }
 2863              		.loc 2 66 40 is_stmt 0 view .LVU632
 2864 05a6 0223     		movs	r3, #2
 2865 05a8 FFF7FEFF 		bl	_ZN5daisy9I2CHandle16TransmitBlockingEtPhtm
 2866              	.LVL140:
  66:../libs/libDaisy/src/dev/mpr121.h ****     }
 2867              		.loc 2 66 40 view .LVU633
 2868              	.LBE1267:
 2869              	.LBE1273:
 2870              	.LBB1274:
 2871              	.LBI1274:
 2872              		.loc 2 343 10 is_stmt 1 view .LVU634
 2873              	.LBE1274:
 2874              	.LBE1283:
 2875              	.LBE1292:
 2876              	.LBB1293:
 2877              	.LBB1294:
 2878              	.LBB1295:
ARM GAS  C:\Users\matte\AppData\Local\Temp\ccgZTizB.s 			page 70


 2879              	.LBB1296:
  66:../libs/libDaisy/src/dev/mpr121.h ****     }
 2880              		.loc 2 66 40 is_stmt 0 view .LVU635
 2881 05ac 0097     		str	r7, [sp]
 2882              	.LBE1296:
 2883              	.LBE1295:
 2884              	.LBE1294:
 2885              	.LBE1293:
 2886              	.LBB1380:
 2887              	.LBB1284:
 2888              	.LBB1278:
 2889              	.LBB1275:
 2890              		.loc 2 343 55 view .LVU636
 2891 05ae 94F84C30 		ldrb	r3, [r4, #76]	@ zero_extendqisi2
 2892              	.LBE1275:
 2893              	.LBE1278:
 2894              	.LBE1284:
 2895              	.LBE1380:
 2896              	.LBB1381:
 2897              	.LBB1374:
 2898              	.LBB1301:
 2899              	.LBB1297:
  66:../libs/libDaisy/src/dev/mpr121.h ****     }
 2900              		.loc 2 66 40 view .LVU637
 2901 05b2 09AA     		add	r2, sp, #36
 2902 05b4 94F84810 		ldrb	r1, [r4, #72]	@ zero_extendqisi2
 2903              	.LBE1297:
 2904              	.LBE1301:
 2905              	.LBE1374:
 2906              	.LBE1381:
 2907              	.LBB1382:
 2908              	.LBB1285:
 2909              	.LBB1279:
 2910              	.LBB1276:
 2911              		.loc 2 343 55 view .LVU638
 2912 05b8 4845     		cmp	r0, r9
 2913 05ba 18BF     		it	ne
 2914 05bc 43F00103 		orrne	r3, r3, #1
 2915              	.LBE1276:
 2916              	.LBE1279:
 2917              	.LBE1285:
 2918              	.LBE1382:
 2919              	.LBB1383:
 2920              	.LBB1375:
 2921              	.LBB1302:
 2922              	.LBB1298:
  66:../libs/libDaisy/src/dev/mpr121.h ****     }
 2923              		.loc 2 66 40 view .LVU639
 2924 05c0 2846     		mov	r0, r5
 2925              	.LVL141:
  66:../libs/libDaisy/src/dev/mpr121.h ****     }
 2926              		.loc 2 66 40 view .LVU640
 2927              	.LBE1298:
 2928              	.LBE1302:
 264:../libs/libDaisy/src/dev/mpr121.h **** 
 2929              		.loc 2 264 17 view .LVU641
 2930 05c2 8DF82590 		strb	r9, [sp, #37]
ARM GAS  C:\Users\matte\AppData\Local\Temp\ccgZTizB.s 			page 71


 2931              	.LBE1375:
 2932              	.LBE1383:
 2933              	.LBB1384:
 2934              	.LBB1286:
 2935              	.LBB1280:
 2936              	.LBB1277:
 2937              		.loc 2 343 55 view .LVU642
 2938 05c6 84F84C30 		strb	r3, [r4, #76]
 2939              	.LVL142:
 2940              		.loc 2 343 55 view .LVU643
 2941              	.LBE1277:
 2942              	.LBE1280:
 2943              	.LBE1286:
 2944              	.LBE1384:
 2945              	.LBB1385:
 2946              	.LBI1293:
 257:../libs/libDaisy/src/dev/mpr121.h ****     {
 2947              		.loc 2 257 10 is_stmt 1 view .LVU644
 2948              	.LBB1376:
 2949              	.LBB1303:
 2950              	.LBI1295:
  63:../libs/libDaisy/src/dev/mpr121.h ****     {
 2951              		.loc 2 63 10 view .LVU645
 2952              	.LBB1299:
  65:../libs/libDaisy/src/dev/mpr121.h ****                != i2c_.TransmitBlocking(config_.dev_addr, data, size, 10);
 2953              		.loc 2 65 9 view .LVU646
  66:../libs/libDaisy/src/dev/mpr121.h ****     }
 2954              		.loc 2 66 40 is_stmt 0 view .LVU647
 2955 05ca 3346     		mov	r3, r6
 2956              	.LBE1299:
 2957              	.LBE1303:
 264:../libs/libDaisy/src/dev/mpr121.h **** 
 2958              		.loc 2 264 17 view .LVU648
 2959 05cc 8DF82480 		strb	r8, [sp, #36]
 2960              	.LBB1304:
 2961              	.LBB1300:
  66:../libs/libDaisy/src/dev/mpr121.h ****     }
 2962              		.loc 2 66 40 view .LVU649
 2963 05d0 FFF7FEFF 		bl	_ZN5daisy9I2CHandle16TransmitBlockingEtPhtm
 2964              	.LVL143:
  66:../libs/libDaisy/src/dev/mpr121.h ****     }
 2965              		.loc 2 66 40 view .LVU650
 2966              	.LBE1300:
 2967              	.LBE1304:
 2968              	.LBB1305:
 2969              	.LBI1305:
 2970              		.loc 2 343 10 is_stmt 1 view .LVU651
 2971              	.LBE1305:
 2972              	.LBB1309:
 2973              	.LBB1310:
  73:../libs/libDaisy/src/dev/mpr121.h ****     }
 2974              		.loc 2 73 39 is_stmt 0 view .LVU652
 2975 05d4 0097     		str	r7, [sp]
 2976 05d6 04AA     		add	r2, sp, #16
 2977              	.LBE1310:
 2978              	.LBE1309:
 2979              	.LBB1314:
ARM GAS  C:\Users\matte\AppData\Local\Temp\ccgZTizB.s 			page 72


 2980              	.LBB1306:
 2981              		.loc 2 343 55 view .LVU653
 2982 05d8 94F84C30 		ldrb	r3, [r4, #76]	@ zero_extendqisi2
 2983              	.LBE1306:
 2984              	.LBE1314:
 2985              	.LBB1315:
 2986              	.LBB1311:
  73:../libs/libDaisy/src/dev/mpr121.h ****     }
 2987              		.loc 2 73 39 view .LVU654
 2988 05dc 94F84810 		ldrb	r1, [r4, #72]	@ zero_extendqisi2
 2989              	.LBE1311:
 2990              	.LBE1315:
 2991              	.LBB1316:
 2992              	.LBB1307:
 2993              		.loc 2 343 55 view .LVU655
 2994 05e0 4845     		cmp	r0, r9
 2995 05e2 18BF     		it	ne
 2996 05e4 43F00103 		orrne	r3, r3, #1
 2997              	.LBE1307:
 2998              	.LBE1316:
 2999              	.LBB1317:
 3000              	.LBB1312:
  73:../libs/libDaisy/src/dev/mpr121.h ****     }
 3001              		.loc 2 73 39 view .LVU656
 3002 05e8 2846     		mov	r0, r5
 3003              	.LVL144:
  73:../libs/libDaisy/src/dev/mpr121.h ****     }
 3004              		.loc 2 73 39 view .LVU657
 3005              	.LBE1312:
 3006              	.LBE1317:
 3007              	.LBB1318:
 3008              	.LBB1308:
 3009              		.loc 2 343 55 view .LVU658
 3010 05ea 84F84C30 		strb	r3, [r4, #76]
 3011              	.LVL145:
 3012              		.loc 2 343 55 view .LVU659
 3013              	.LBE1308:
 3014              	.LBE1318:
 3015              	.LBB1319:
 3016              	.LBI1309:
  70:../libs/libDaisy/src/dev/mpr121.h ****     {
 3017              		.loc 2 70 10 is_stmt 1 view .LVU660
 3018              	.LBB1313:
  72:../libs/libDaisy/src/dev/mpr121.h ****                != i2c_.ReceiveBlocking(config_.dev_addr, data, size, 10);
 3019              		.loc 2 72 9 view .LVU661
  73:../libs/libDaisy/src/dev/mpr121.h ****     }
 3020              		.loc 2 73 39 is_stmt 0 view .LVU662
 3021 05ee 3346     		mov	r3, r6
 3022 05f0 FFF7FEFF 		bl	_ZN5daisy9I2CHandle15ReceiveBlockingEtPhtm
 3023              	.LVL146:
  73:../libs/libDaisy/src/dev/mpr121.h ****     }
 3024              		.loc 2 73 39 view .LVU663
 3025              	.LBE1313:
 3026              	.LBE1319:
 3027              	.LBB1320:
 3028              	.LBI1320:
 3029              		.loc 2 343 10 is_stmt 1 view .LVU664
ARM GAS  C:\Users\matte\AppData\Local\Temp\ccgZTizB.s 			page 73


 3030              	.LBE1320:
 3031              	.LBB1324:
 3032              	.LBB1325:
  66:../libs/libDaisy/src/dev/mpr121.h ****     }
 3033              		.loc 2 66 40 is_stmt 0 view .LVU665
 3034 05f4 0097     		str	r7, [sp]
 3035              	.LBE1325:
 3036              	.LBE1324:
 3037              	.LBB1329:
 3038              	.LBB1321:
 3039              		.loc 2 343 55 view .LVU666
 3040 05f6 94F84C30 		ldrb	r3, [r4, #76]	@ zero_extendqisi2
 3041              	.LBE1321:
 3042              	.LBE1329:
 3043              	.LBB1330:
 3044              	.LBB1326:
  66:../libs/libDaisy/src/dev/mpr121.h ****     }
 3045              		.loc 2 66 40 view .LVU667
 3046 05fa 09AA     		add	r2, sp, #36
 3047 05fc 94F84810 		ldrb	r1, [r4, #72]	@ zero_extendqisi2
 3048              	.LBE1326:
 3049              	.LBE1330:
 3050              	.LBB1331:
 3051              	.LBB1322:
 3052              		.loc 2 343 55 view .LVU668
 3053 0600 4845     		cmp	r0, r9
 3054 0602 18BF     		it	ne
 3055 0604 43F00103 		orrne	r3, r3, #1
 3056              	.LBE1322:
 3057              	.LBE1331:
 3058              	.LBB1332:
 3059              	.LBB1327:
  66:../libs/libDaisy/src/dev/mpr121.h ****     }
 3060              		.loc 2 66 40 view .LVU669
 3061 0608 2846     		mov	r0, r5
 3062              	.LVL147:
  66:../libs/libDaisy/src/dev/mpr121.h ****     }
 3063              		.loc 2 66 40 view .LVU670
 3064              	.LBE1327:
 3065              	.LBE1332:
 3066              	.LBB1333:
 3067              	.LBB1323:
 3068              		.loc 2 343 55 view .LVU671
 3069 060a 84F84C30 		strb	r3, [r4, #76]
 3070              	.LVL148:
 3071              		.loc 2 343 55 view .LVU672
 3072              	.LBE1323:
 3073              	.LBE1333:
 3074              	.LBB1334:
 3075              	.LBI1324:
  63:../libs/libDaisy/src/dev/mpr121.h ****     {
 3076              		.loc 2 63 10 is_stmt 1 view .LVU673
 3077              	.LBB1328:
  65:../libs/libDaisy/src/dev/mpr121.h ****                != i2c_.TransmitBlocking(config_.dev_addr, data, size, 10);
 3078              		.loc 2 65 9 view .LVU674
  66:../libs/libDaisy/src/dev/mpr121.h ****     }
 3079              		.loc 2 66 40 is_stmt 0 view .LVU675
ARM GAS  C:\Users\matte\AppData\Local\Temp\ccgZTizB.s 			page 74


 3080 060e 0223     		movs	r3, #2
 3081 0610 FFF7FEFF 		bl	_ZN5daisy9I2CHandle16TransmitBlockingEtPhtm
 3082              	.LVL149:
  66:../libs/libDaisy/src/dev/mpr121.h ****     }
 3083              		.loc 2 66 40 view .LVU676
 3084              	.LBE1328:
 3085              	.LBE1334:
 3086              	.LBB1335:
 3087              	.LBI1335:
 3088              		.loc 2 343 10 is_stmt 1 view .LVU677
 3089              	.LBE1335:
 3090              	.LBB1339:
 3091              	.LBB1340:
  66:../libs/libDaisy/src/dev/mpr121.h ****     }
 3092              		.loc 2 66 40 is_stmt 0 view .LVU678
 3093 0614 0097     		str	r7, [sp]
 3094              	.LBE1340:
 3095              	.LBE1339:
 3096              	.LBB1345:
 3097              	.LBB1336:
 3098              		.loc 2 343 55 view .LVU679
 3099 0616 94F84C30 		ldrb	r3, [r4, #76]	@ zero_extendqisi2
 3100              	.LBE1336:
 3101              	.LBE1345:
 3102              	.LBB1346:
 3103              	.LBB1341:
  66:../libs/libDaisy/src/dev/mpr121.h ****     }
 3104              		.loc 2 66 40 view .LVU680
 3105 061a 09AA     		add	r2, sp, #36
 3106 061c 94F84810 		ldrb	r1, [r4, #72]	@ zero_extendqisi2
 3107              	.LBE1341:
 3108              	.LBE1346:
 3109              	.LBB1347:
 3110              	.LBB1337:
 3111              		.loc 2 343 55 view .LVU681
 3112 0620 4845     		cmp	r0, r9
 3113 0622 18BF     		it	ne
 3114 0624 43F00103 		orrne	r3, r3, #1
 3115              	.LBE1337:
 3116              	.LBE1347:
 3117              	.LBB1348:
 3118              	.LBB1342:
  66:../libs/libDaisy/src/dev/mpr121.h ****     }
 3119              		.loc 2 66 40 view .LVU682
 3120 0628 2846     		mov	r0, r5
 3121              	.LVL150:
  66:../libs/libDaisy/src/dev/mpr121.h ****     }
 3122              		.loc 2 66 40 view .LVU683
 3123              	.LBE1342:
 3124              	.LBE1348:
 282:../libs/libDaisy/src/dev/mpr121.h ****         SetTransportErr(transport_.Write(buff, 2));
 3125              		.loc 2 282 17 view .LVU684
 3126 062a 8DF82590 		strb	r9, [sp, #37]
 3127              	.LBB1349:
 3128              	.LBB1338:
 3129              		.loc 2 343 55 view .LVU685
 3130 062e 84F84C30 		strb	r3, [r4, #76]
ARM GAS  C:\Users\matte\AppData\Local\Temp\ccgZTizB.s 			page 75


 3131              	.LVL151:
 3132              		.loc 2 343 55 view .LVU686
 3133              	.LBE1338:
 3134              	.LBE1349:
 3135              	.LBB1350:
 3136              	.LBI1339:
  63:../libs/libDaisy/src/dev/mpr121.h ****     {
 3137              		.loc 2 63 10 is_stmt 1 view .LVU687
 3138              	.LBB1343:
  65:../libs/libDaisy/src/dev/mpr121.h ****                != i2c_.TransmitBlocking(config_.dev_addr, data, size, 10);
 3139              		.loc 2 65 9 view .LVU688
 3140              	.LBE1343:
 3141              	.LBE1350:
 281:../libs/libDaisy/src/dev/mpr121.h ****         buff[1] = value;
 3142              		.loc 2 281 17 is_stmt 0 view .LVU689
 3143 0632 2E23     		movs	r3, #46
 3144 0634 8DF82430 		strb	r3, [sp, #36]
 3145              	.LBB1351:
 3146              	.LBB1344:
  66:../libs/libDaisy/src/dev/mpr121.h ****     }
 3147              		.loc 2 66 40 view .LVU690
 3148 0638 0223     		movs	r3, #2
 3149 063a FFF7FEFF 		bl	_ZN5daisy9I2CHandle16TransmitBlockingEtPhtm
 3150              	.LVL152:
  66:../libs/libDaisy/src/dev/mpr121.h ****     }
 3151              		.loc 2 66 40 view .LVU691
 3152              	.LBE1344:
 3153              	.LBE1351:
 3154              	.LBB1352:
 3155              	.LBI1352:
 3156              		.loc 2 343 10 is_stmt 1 view .LVU692
 3157              	.LBE1352:
 3158              	.LBB1356:
 3159              	.LBB1357:
  66:../libs/libDaisy/src/dev/mpr121.h ****     }
 3160              		.loc 2 66 40 is_stmt 0 view .LVU693
 3161 063e 0097     		str	r7, [sp]
 3162              	.LBE1357:
 3163              	.LBE1356:
 3164              	.LBB1361:
 3165              	.LBB1353:
 3166              		.loc 2 343 55 view .LVU694
 3167 0640 94F84C30 		ldrb	r3, [r4, #76]	@ zero_extendqisi2
 3168              	.LBE1353:
 3169              	.LBE1361:
 3170              	.LBB1362:
 3171              	.LBB1358:
  66:../libs/libDaisy/src/dev/mpr121.h ****     }
 3172              		.loc 2 66 40 view .LVU695
 3173 0644 09AA     		add	r2, sp, #36
 3174 0646 94F84810 		ldrb	r1, [r4, #72]	@ zero_extendqisi2
 3175              	.LBE1358:
 3176              	.LBE1362:
 3177              	.LBB1363:
 3178              	.LBB1354:
 3179              		.loc 2 343 55 view .LVU696
 3180 064a 4845     		cmp	r0, r9
ARM GAS  C:\Users\matte\AppData\Local\Temp\ccgZTizB.s 			page 76


 3181 064c 18BF     		it	ne
 3182 064e 43F00103 		orrne	r3, r3, #1
 3183              	.LBE1354:
 3184              	.LBE1363:
 3185              	.LBB1364:
 3186              	.LBB1359:
  66:../libs/libDaisy/src/dev/mpr121.h ****     }
 3187              		.loc 2 66 40 view .LVU697
 3188 0652 2846     		mov	r0, r5
 3189              	.LVL153:
  66:../libs/libDaisy/src/dev/mpr121.h ****     }
 3190              		.loc 2 66 40 view .LVU698
 3191              	.LBE1359:
 3192              	.LBE1364:
 288:../libs/libDaisy/src/dev/mpr121.h ****             buff[1] = ecr_backup;
 3193              		.loc 2 288 21 view .LVU699
 3194 0654 8DF82480 		strb	r8, [sp, #36]
 3195              	.LBB1365:
 3196              	.LBB1355:
 3197              		.loc 2 343 55 view .LVU700
 3198 0658 84F84C30 		strb	r3, [r4, #76]
 3199              	.LVL154:
 3200              		.loc 2 343 55 view .LVU701
 3201              	.LBE1355:
 3202              	.LBE1365:
 289:../libs/libDaisy/src/dev/mpr121.h ****             SetTransportErr(transport_.Write(buff, 2));
 3203              		.loc 2 289 21 view .LVU702
 3204 065c 9DF81030 		ldrb	r3, [sp, #16]	@ zero_extendqisi2
 3205 0660 8DF82530 		strb	r3, [sp, #37]
 3206              	.LVL155:
 3207              	.LBB1366:
 3208              	.LBI1356:
  63:../libs/libDaisy/src/dev/mpr121.h ****     {
 3209              		.loc 2 63 10 is_stmt 1 view .LVU703
 3210              	.LBB1360:
  65:../libs/libDaisy/src/dev/mpr121.h ****                != i2c_.TransmitBlocking(config_.dev_addr, data, size, 10);
 3211              		.loc 2 65 9 view .LVU704
  66:../libs/libDaisy/src/dev/mpr121.h ****     }
 3212              		.loc 2 66 40 is_stmt 0 view .LVU705
 3213 0664 0223     		movs	r3, #2
 3214 0666 FFF7FEFF 		bl	_ZN5daisy9I2CHandle16TransmitBlockingEtPhtm
 3215              	.LVL156:
  66:../libs/libDaisy/src/dev/mpr121.h ****     }
 3216              		.loc 2 66 40 view .LVU706
 3217              	.LBE1360:
 3218              	.LBE1366:
 3219              	.LBB1367:
 3220              	.LBI1367:
 3221              		.loc 2 343 10 is_stmt 1 view .LVU707
 3222              	.LBE1367:
 3223              	.LBE1376:
 3224              	.LBE1385:
 3225              	.LBB1386:
 3226              	.LBB1387:
 3227              	.LBB1388:
 3228              	.LBB1389:
  66:../libs/libDaisy/src/dev/mpr121.h ****     }
ARM GAS  C:\Users\matte\AppData\Local\Temp\ccgZTizB.s 			page 77


 3229              		.loc 2 66 40 is_stmt 0 view .LVU708
 3230 066a 0097     		str	r7, [sp]
 3231              	.LBE1389:
 3232              	.LBE1388:
 3233              	.LBE1387:
 3234              	.LBE1386:
 3235              	.LBB1473:
 3236              	.LBB1377:
 3237              	.LBB1371:
 3238              	.LBB1368:
 3239              		.loc 2 343 55 view .LVU709
 3240 066c 94F84C30 		ldrb	r3, [r4, #76]	@ zero_extendqisi2
 3241              	.LBE1368:
 3242              	.LBE1371:
 3243              	.LBE1377:
 3244              	.LBE1473:
 3245              	.LBB1474:
 3246              	.LBB1467:
 3247              	.LBB1394:
 3248              	.LBB1390:
  66:../libs/libDaisy/src/dev/mpr121.h ****     }
 3249              		.loc 2 66 40 view .LVU710
 3250 0670 09AA     		add	r2, sp, #36
 3251 0672 94F84810 		ldrb	r1, [r4, #72]	@ zero_extendqisi2
 3252              	.LBE1390:
 3253              	.LBE1394:
 3254              	.LBE1467:
 3255              	.LBE1474:
 3256              	.LBB1475:
 3257              	.LBB1378:
 3258              	.LBB1372:
 3259              	.LBB1369:
 3260              		.loc 2 343 55 view .LVU711
 3261 0676 4845     		cmp	r0, r9
 3262 0678 18BF     		it	ne
 3263 067a 43F00103 		orrne	r3, r3, #1
 3264              	.LBE1369:
 3265              	.LBE1372:
 3266              	.LBE1378:
 3267              	.LBE1475:
 3268              	.LBB1476:
 3269              	.LBB1468:
 3270              	.LBB1395:
 3271              	.LBB1391:
  66:../libs/libDaisy/src/dev/mpr121.h ****     }
 3272              		.loc 2 66 40 view .LVU712
 3273 067e 2846     		mov	r0, r5
 3274              	.LVL157:
  66:../libs/libDaisy/src/dev/mpr121.h ****     }
 3275              		.loc 2 66 40 view .LVU713
 3276              	.LBE1391:
 3277              	.LBE1395:
 264:../libs/libDaisy/src/dev/mpr121.h **** 
 3278              		.loc 2 264 17 view .LVU714
 3279 0680 8DF82590 		strb	r9, [sp, #37]
 3280              	.LBE1468:
 3281              	.LBE1476:
ARM GAS  C:\Users\matte\AppData\Local\Temp\ccgZTizB.s 			page 78


 3282              	.LBB1477:
 3283              	.LBB1379:
 3284              	.LBB1373:
 3285              	.LBB1370:
 3286              		.loc 2 343 55 view .LVU715
 3287 0684 84F84C30 		strb	r3, [r4, #76]
 3288              	.LVL158:
 3289              		.loc 2 343 55 view .LVU716
 3290              	.LBE1370:
 3291              	.LBE1373:
 3292              	.LBE1379:
 3293              	.LBE1477:
 3294              	.LBB1478:
 3295              	.LBI1386:
 257:../libs/libDaisy/src/dev/mpr121.h ****     {
 3296              		.loc 2 257 10 is_stmt 1 view .LVU717
 3297              	.LBB1469:
 3298              	.LBB1396:
 3299              	.LBI1388:
  63:../libs/libDaisy/src/dev/mpr121.h ****     {
 3300              		.loc 2 63 10 view .LVU718
 3301              	.LBB1392:
  65:../libs/libDaisy/src/dev/mpr121.h ****                != i2c_.TransmitBlocking(config_.dev_addr, data, size, 10);
 3302              		.loc 2 65 9 view .LVU719
  66:../libs/libDaisy/src/dev/mpr121.h ****     }
 3303              		.loc 2 66 40 is_stmt 0 view .LVU720
 3304 0688 3346     		mov	r3, r6
 3305              	.LBE1392:
 3306              	.LBE1396:
 264:../libs/libDaisy/src/dev/mpr121.h **** 
 3307              		.loc 2 264 17 view .LVU721
 3308 068a 8DF82480 		strb	r8, [sp, #36]
 3309              	.LBB1397:
 3310              	.LBB1393:
  66:../libs/libDaisy/src/dev/mpr121.h ****     }
 3311              		.loc 2 66 40 view .LVU722
 3312 068e FFF7FEFF 		bl	_ZN5daisy9I2CHandle16TransmitBlockingEtPhtm
 3313              	.LVL159:
  66:../libs/libDaisy/src/dev/mpr121.h ****     }
 3314              		.loc 2 66 40 view .LVU723
 3315              	.LBE1393:
 3316              	.LBE1397:
 3317              	.LBB1398:
 3318              	.LBI1398:
 3319              		.loc 2 343 10 is_stmt 1 view .LVU724
 3320              	.LBE1398:
 3321              	.LBB1402:
 3322              	.LBB1403:
  73:../libs/libDaisy/src/dev/mpr121.h ****     }
 3323              		.loc 2 73 39 is_stmt 0 view .LVU725
 3324 0692 0097     		str	r7, [sp]
 3325 0694 04AA     		add	r2, sp, #16
 3326              	.LBE1403:
 3327              	.LBE1402:
 3328              	.LBB1407:
 3329              	.LBB1399:
 3330              		.loc 2 343 55 view .LVU726
ARM GAS  C:\Users\matte\AppData\Local\Temp\ccgZTizB.s 			page 79


 3331 0696 94F84C30 		ldrb	r3, [r4, #76]	@ zero_extendqisi2
 3332              	.LBE1399:
 3333              	.LBE1407:
 3334              	.LBB1408:
 3335              	.LBB1404:
  73:../libs/libDaisy/src/dev/mpr121.h ****     }
 3336              		.loc 2 73 39 view .LVU727
 3337 069a 94F84810 		ldrb	r1, [r4, #72]	@ zero_extendqisi2
 3338              	.LBE1404:
 3339              	.LBE1408:
 3340              	.LBB1409:
 3341              	.LBB1400:
 3342              		.loc 2 343 55 view .LVU728
 3343 069e 4845     		cmp	r0, r9
 3344 06a0 18BF     		it	ne
 3345 06a2 43F00103 		orrne	r3, r3, #1
 3346              	.LBE1400:
 3347              	.LBE1409:
 3348              	.LBB1410:
 3349              	.LBB1405:
  73:../libs/libDaisy/src/dev/mpr121.h ****     }
 3350              		.loc 2 73 39 view .LVU729
 3351 06a6 2846     		mov	r0, r5
 3352              	.LVL160:
  73:../libs/libDaisy/src/dev/mpr121.h ****     }
 3353              		.loc 2 73 39 view .LVU730
 3354              	.LBE1405:
 3355              	.LBE1410:
 3356              	.LBB1411:
 3357              	.LBB1401:
 3358              		.loc 2 343 55 view .LVU731
 3359 06a8 84F84C30 		strb	r3, [r4, #76]
 3360              	.LVL161:
 3361              		.loc 2 343 55 view .LVU732
 3362              	.LBE1401:
 3363              	.LBE1411:
 3364              	.LBB1412:
 3365              	.LBI1402:
  70:../libs/libDaisy/src/dev/mpr121.h ****     {
 3366              		.loc 2 70 10 is_stmt 1 view .LVU733
 3367              	.LBB1406:
  72:../libs/libDaisy/src/dev/mpr121.h ****                != i2c_.ReceiveBlocking(config_.dev_addr, data, size, 10);
 3368              		.loc 2 72 9 view .LVU734
  73:../libs/libDaisy/src/dev/mpr121.h ****     }
 3369              		.loc 2 73 39 is_stmt 0 view .LVU735
 3370 06ac 3346     		mov	r3, r6
 3371 06ae FFF7FEFF 		bl	_ZN5daisy9I2CHandle15ReceiveBlockingEtPhtm
 3372              	.LVL162:
  73:../libs/libDaisy/src/dev/mpr121.h ****     }
 3373              		.loc 2 73 39 view .LVU736
 3374              	.LBE1406:
 3375              	.LBE1412:
 3376              	.LBB1413:
 3377              	.LBI1413:
 3378              		.loc 2 343 10 is_stmt 1 view .LVU737
 3379              	.LBE1413:
 3380              	.LBB1417:
ARM GAS  C:\Users\matte\AppData\Local\Temp\ccgZTizB.s 			page 80


 3381              	.LBB1418:
  66:../libs/libDaisy/src/dev/mpr121.h ****     }
 3382              		.loc 2 66 40 is_stmt 0 view .LVU738
 3383 06b2 0097     		str	r7, [sp]
 3384              	.LBE1418:
 3385              	.LBE1417:
 3386              	.LBB1422:
 3387              	.LBB1414:
 3388              		.loc 2 343 55 view .LVU739
 3389 06b4 94F84C30 		ldrb	r3, [r4, #76]	@ zero_extendqisi2
 3390              	.LBE1414:
 3391              	.LBE1422:
 3392              	.LBB1423:
 3393              	.LBB1419:
  66:../libs/libDaisy/src/dev/mpr121.h ****     }
 3394              		.loc 2 66 40 view .LVU740
 3395 06b8 09AA     		add	r2, sp, #36
 3396 06ba 94F84810 		ldrb	r1, [r4, #72]	@ zero_extendqisi2
 3397              	.LBE1419:
 3398              	.LBE1423:
 3399              	.LBB1424:
 3400              	.LBB1415:
 3401              		.loc 2 343 55 view .LVU741
 3402 06be 4845     		cmp	r0, r9
 3403 06c0 18BF     		it	ne
 3404 06c2 43F00103 		orrne	r3, r3, #1
 3405              	.LBE1415:
 3406              	.LBE1424:
 3407              	.LBB1425:
 3408              	.LBB1420:
  66:../libs/libDaisy/src/dev/mpr121.h ****     }
 3409              		.loc 2 66 40 view .LVU742
 3410 06c6 2846     		mov	r0, r5
 3411              	.LVL163:
  66:../libs/libDaisy/src/dev/mpr121.h ****     }
 3412              		.loc 2 66 40 view .LVU743
 3413              	.LBE1420:
 3414              	.LBE1425:
 3415              	.LBB1426:
 3416              	.LBB1416:
 3417              		.loc 2 343 55 view .LVU744
 3418 06c8 84F84C30 		strb	r3, [r4, #76]
 3419              	.LVL164:
 3420              		.loc 2 343 55 view .LVU745
 3421              	.LBE1416:
 3422              	.LBE1426:
 3423              	.LBB1427:
 3424              	.LBI1417:
  63:../libs/libDaisy/src/dev/mpr121.h ****     {
 3425              		.loc 2 63 10 is_stmt 1 view .LVU746
 3426              	.LBB1421:
  65:../libs/libDaisy/src/dev/mpr121.h ****                != i2c_.TransmitBlocking(config_.dev_addr, data, size, 10);
 3427              		.loc 2 65 9 view .LVU747
  66:../libs/libDaisy/src/dev/mpr121.h ****     }
 3428              		.loc 2 66 40 is_stmt 0 view .LVU748
 3429 06cc 0223     		movs	r3, #2
 3430 06ce FFF7FEFF 		bl	_ZN5daisy9I2CHandle16TransmitBlockingEtPhtm
ARM GAS  C:\Users\matte\AppData\Local\Temp\ccgZTizB.s 			page 81


 3431              	.LVL165:
  66:../libs/libDaisy/src/dev/mpr121.h ****     }
 3432              		.loc 2 66 40 view .LVU749
 3433              	.LBE1421:
 3434              	.LBE1427:
 3435              	.LBB1428:
 3436              	.LBI1428:
 3437              		.loc 2 343 10 is_stmt 1 view .LVU750
 3438              	.LBE1428:
 3439              	.LBB1432:
 3440              	.LBB1433:
  66:../libs/libDaisy/src/dev/mpr121.h ****     }
 3441              		.loc 2 66 40 is_stmt 0 view .LVU751
 3442 06d2 0097     		str	r7, [sp]
 3443              	.LBE1433:
 3444              	.LBE1432:
 3445              	.LBB1438:
 3446              	.LBB1429:
 3447              		.loc 2 343 55 view .LVU752
 3448 06d4 94F84C30 		ldrb	r3, [r4, #76]	@ zero_extendqisi2
 3449              	.LBE1429:
 3450              	.LBE1438:
 3451              	.LBB1439:
 3452              	.LBB1434:
  66:../libs/libDaisy/src/dev/mpr121.h ****     }
 3453              		.loc 2 66 40 view .LVU753
 3454 06d8 09AA     		add	r2, sp, #36
 3455 06da 94F84810 		ldrb	r1, [r4, #72]	@ zero_extendqisi2
 3456              	.LBE1434:
 3457              	.LBE1439:
 3458              	.LBB1440:
 3459              	.LBB1430:
 3460              		.loc 2 343 55 view .LVU754
 3461 06de 4845     		cmp	r0, r9
 3462 06e0 18BF     		it	ne
 3463 06e2 43F00103 		orrne	r3, r3, #1
 3464              	.LBE1430:
 3465              	.LBE1440:
 3466              	.LBB1441:
 3467              	.LBB1435:
  66:../libs/libDaisy/src/dev/mpr121.h ****     }
 3468              		.loc 2 66 40 view .LVU755
 3469 06e6 2846     		mov	r0, r5
 3470              	.LVL166:
  66:../libs/libDaisy/src/dev/mpr121.h ****     }
 3471              		.loc 2 66 40 view .LVU756
 3472              	.LBE1435:
 3473              	.LBE1441:
 282:../libs/libDaisy/src/dev/mpr121.h ****         SetTransportErr(transport_.Write(buff, 2));
 3474              		.loc 2 282 17 view .LVU757
 3475 06e8 8DF82560 		strb	r6, [sp, #37]
 3476              	.LBB1442:
 3477              	.LBB1431:
 3478              		.loc 2 343 55 view .LVU758
 3479 06ec 84F84C30 		strb	r3, [r4, #76]
 3480              	.LVL167:
 3481              		.loc 2 343 55 view .LVU759
ARM GAS  C:\Users\matte\AppData\Local\Temp\ccgZTizB.s 			page 82


 3482              	.LBE1431:
 3483              	.LBE1442:
 3484              	.LBB1443:
 3485              	.LBI1432:
  63:../libs/libDaisy/src/dev/mpr121.h ****     {
 3486              		.loc 2 63 10 is_stmt 1 view .LVU760
 3487              	.LBB1436:
  65:../libs/libDaisy/src/dev/mpr121.h ****                != i2c_.TransmitBlocking(config_.dev_addr, data, size, 10);
 3488              		.loc 2 65 9 view .LVU761
 3489              	.LBE1436:
 3490              	.LBE1443:
 281:../libs/libDaisy/src/dev/mpr121.h ****         buff[1] = value;
 3491              		.loc 2 281 17 is_stmt 0 view .LVU762
 3492 06f0 2F23     		movs	r3, #47
 3493 06f2 8DF82430 		strb	r3, [sp, #36]
 3494              	.LBB1444:
 3495              	.LBB1437:
  66:../libs/libDaisy/src/dev/mpr121.h ****     }
 3496              		.loc 2 66 40 view .LVU763
 3497 06f6 0223     		movs	r3, #2
 3498 06f8 FFF7FEFF 		bl	_ZN5daisy9I2CHandle16TransmitBlockingEtPhtm
 3499              	.LVL168:
  66:../libs/libDaisy/src/dev/mpr121.h ****     }
 3500              		.loc 2 66 40 view .LVU764
 3501              	.LBE1437:
 3502              	.LBE1444:
 3503              	.LBB1445:
 3504              	.LBI1445:
 3505              		.loc 2 343 10 is_stmt 1 view .LVU765
 3506              	.LBE1445:
 3507              	.LBB1449:
 3508              	.LBB1450:
  66:../libs/libDaisy/src/dev/mpr121.h ****     }
 3509              		.loc 2 66 40 is_stmt 0 view .LVU766
 3510 06fc 0097     		str	r7, [sp]
 3511              	.LBE1450:
 3512              	.LBE1449:
 3513              	.LBB1454:
 3514              	.LBB1446:
 3515              		.loc 2 343 55 view .LVU767
 3516 06fe 94F84C30 		ldrb	r3, [r4, #76]	@ zero_extendqisi2
 3517              	.LBE1446:
 3518              	.LBE1454:
 3519              	.LBB1455:
 3520              	.LBB1451:
  66:../libs/libDaisy/src/dev/mpr121.h ****     }
 3521              		.loc 2 66 40 view .LVU768
 3522 0702 09AA     		add	r2, sp, #36
 3523 0704 94F84810 		ldrb	r1, [r4, #72]	@ zero_extendqisi2
 3524              	.LBE1451:
 3525              	.LBE1455:
 3526              	.LBB1456:
 3527              	.LBB1447:
 3528              		.loc 2 343 55 view .LVU769
 3529 0708 4845     		cmp	r0, r9
 3530 070a 18BF     		it	ne
 3531 070c 43F00103 		orrne	r3, r3, #1
ARM GAS  C:\Users\matte\AppData\Local\Temp\ccgZTizB.s 			page 83


 3532              	.LBE1447:
 3533              	.LBE1456:
 3534              	.LBB1457:
 3535              	.LBB1452:
  66:../libs/libDaisy/src/dev/mpr121.h ****     }
 3536              		.loc 2 66 40 view .LVU770
 3537 0710 2846     		mov	r0, r5
 3538              	.LVL169:
  66:../libs/libDaisy/src/dev/mpr121.h ****     }
 3539              		.loc 2 66 40 view .LVU771
 3540              	.LBE1452:
 3541              	.LBE1457:
 288:../libs/libDaisy/src/dev/mpr121.h ****             buff[1] = ecr_backup;
 3542              		.loc 2 288 21 view .LVU772
 3543 0712 8DF82480 		strb	r8, [sp, #36]
 3544              	.LBB1458:
 3545              	.LBB1448:
 3546              		.loc 2 343 55 view .LVU773
 3547 0716 84F84C30 		strb	r3, [r4, #76]
 3548              	.LVL170:
 3549              		.loc 2 343 55 view .LVU774
 3550              	.LBE1448:
 3551              	.LBE1458:
 289:../libs/libDaisy/src/dev/mpr121.h ****             SetTransportErr(transport_.Write(buff, 2));
 3552              		.loc 2 289 21 view .LVU775
 3553 071a 9DF81030 		ldrb	r3, [sp, #16]	@ zero_extendqisi2
 3554 071e 8DF82530 		strb	r3, [sp, #37]
 3555              	.LVL171:
 3556              	.LBB1459:
 3557              	.LBI1449:
  63:../libs/libDaisy/src/dev/mpr121.h ****     {
 3558              		.loc 2 63 10 is_stmt 1 view .LVU776
 3559              	.LBB1453:
  65:../libs/libDaisy/src/dev/mpr121.h ****                != i2c_.TransmitBlocking(config_.dev_addr, data, size, 10);
 3560              		.loc 2 65 9 view .LVU777
  66:../libs/libDaisy/src/dev/mpr121.h ****     }
 3561              		.loc 2 66 40 is_stmt 0 view .LVU778
 3562 0722 0223     		movs	r3, #2
 3563 0724 FFF7FEFF 		bl	_ZN5daisy9I2CHandle16TransmitBlockingEtPhtm
 3564              	.LVL172:
  66:../libs/libDaisy/src/dev/mpr121.h ****     }
 3565              		.loc 2 66 40 view .LVU779
 3566              	.LBE1453:
 3567              	.LBE1459:
 3568              	.LBB1460:
 3569              	.LBI1460:
 3570              		.loc 2 343 10 is_stmt 1 view .LVU780
 3571              	.LBE1460:
 3572              	.LBE1469:
 3573              	.LBE1478:
 3574              	.LBB1479:
 3575              	.LBB1480:
 3576              	.LBB1481:
 3577              	.LBB1482:
  66:../libs/libDaisy/src/dev/mpr121.h ****     }
 3578              		.loc 2 66 40 is_stmt 0 view .LVU781
 3579 0728 0097     		str	r7, [sp]
ARM GAS  C:\Users\matte\AppData\Local\Temp\ccgZTizB.s 			page 84


 3580              	.LBE1482:
 3581              	.LBE1481:
 3582              	.LBE1480:
 3583              	.LBE1479:
 3584              	.LBB1564:
 3585              	.LBB1470:
 3586              	.LBB1464:
 3587              	.LBB1461:
 3588              		.loc 2 343 55 view .LVU782
 3589 072a 94F84C30 		ldrb	r3, [r4, #76]	@ zero_extendqisi2
 3590              	.LBE1461:
 3591              	.LBE1464:
 3592              	.LBE1470:
 3593              	.LBE1564:
 3594              	.LBB1565:
 3595              	.LBB1558:
 3596              	.LBB1487:
 3597              	.LBB1483:
  66:../libs/libDaisy/src/dev/mpr121.h ****     }
 3598              		.loc 2 66 40 view .LVU783
 3599 072e 09AA     		add	r2, sp, #36
 3600 0730 94F84810 		ldrb	r1, [r4, #72]	@ zero_extendqisi2
 3601              	.LBE1483:
 3602              	.LBE1487:
 3603              	.LBE1558:
 3604              	.LBE1565:
 3605              	.LBB1566:
 3606              	.LBB1471:
 3607              	.LBB1465:
 3608              	.LBB1462:
 3609              		.loc 2 343 55 view .LVU784
 3610 0734 4845     		cmp	r0, r9
 3611 0736 18BF     		it	ne
 3612 0738 43F00103 		orrne	r3, r3, #1
 3613              	.LBE1462:
 3614              	.LBE1465:
 3615              	.LBE1471:
 3616              	.LBE1566:
 3617              	.LBB1567:
 3618              	.LBB1559:
 3619              	.LBB1488:
 3620              	.LBB1484:
  66:../libs/libDaisy/src/dev/mpr121.h ****     }
 3621              		.loc 2 66 40 view .LVU785
 3622 073c 2846     		mov	r0, r5
 3623              	.LVL173:
  66:../libs/libDaisy/src/dev/mpr121.h ****     }
 3624              		.loc 2 66 40 view .LVU786
 3625              	.LBE1484:
 3626              	.LBE1488:
 264:../libs/libDaisy/src/dev/mpr121.h **** 
 3627              		.loc 2 264 17 view .LVU787
 3628 073e 8DF82590 		strb	r9, [sp, #37]
 3629              	.LBE1559:
 3630              	.LBE1567:
 3631              	.LBB1568:
 3632              	.LBB1472:
ARM GAS  C:\Users\matte\AppData\Local\Temp\ccgZTizB.s 			page 85


 3633              	.LBB1466:
 3634              	.LBB1463:
 3635              		.loc 2 343 55 view .LVU788
 3636 0742 84F84C30 		strb	r3, [r4, #76]
 3637              	.LVL174:
 3638              		.loc 2 343 55 view .LVU789
 3639              	.LBE1463:
 3640              	.LBE1466:
 3641              	.LBE1472:
 3642              	.LBE1568:
 3643              	.LBB1569:
 3644              	.LBI1479:
 257:../libs/libDaisy/src/dev/mpr121.h ****     {
 3645              		.loc 2 257 10 is_stmt 1 view .LVU790
 3646              	.LBB1560:
 3647              	.LBB1489:
 3648              	.LBI1481:
  63:../libs/libDaisy/src/dev/mpr121.h ****     {
 3649              		.loc 2 63 10 view .LVU791
 3650              	.LBB1485:
  65:../libs/libDaisy/src/dev/mpr121.h ****                != i2c_.TransmitBlocking(config_.dev_addr, data, size, 10);
 3651              		.loc 2 65 9 view .LVU792
  66:../libs/libDaisy/src/dev/mpr121.h ****     }
 3652              		.loc 2 66 40 is_stmt 0 view .LVU793
 3653 0746 3346     		mov	r3, r6
 3654              	.LBE1485:
 3655              	.LBE1489:
 264:../libs/libDaisy/src/dev/mpr121.h **** 
 3656              		.loc 2 264 17 view .LVU794
 3657 0748 8DF82480 		strb	r8, [sp, #36]
 3658              	.LBB1490:
 3659              	.LBB1486:
  66:../libs/libDaisy/src/dev/mpr121.h ****     }
 3660              		.loc 2 66 40 view .LVU795
 3661 074c FFF7FEFF 		bl	_ZN5daisy9I2CHandle16TransmitBlockingEtPhtm
 3662              	.LVL175:
  66:../libs/libDaisy/src/dev/mpr121.h ****     }
 3663              		.loc 2 66 40 view .LVU796
 3664              	.LBE1486:
 3665              	.LBE1490:
 3666              	.LBB1491:
 3667              	.LBI1491:
 3668              		.loc 2 343 10 is_stmt 1 view .LVU797
 3669              	.LBE1491:
 3670              	.LBB1495:
 3671              	.LBB1496:
  73:../libs/libDaisy/src/dev/mpr121.h ****     }
 3672              		.loc 2 73 39 is_stmt 0 view .LVU798
 3673 0750 0097     		str	r7, [sp]
 3674 0752 04AA     		add	r2, sp, #16
 3675              	.LBE1496:
 3676              	.LBE1495:
 3677              	.LBB1500:
 3678              	.LBB1492:
 3679              		.loc 2 343 55 view .LVU799
 3680 0754 94F84C30 		ldrb	r3, [r4, #76]	@ zero_extendqisi2
 3681              	.LBE1492:
ARM GAS  C:\Users\matte\AppData\Local\Temp\ccgZTizB.s 			page 86


 3682              	.LBE1500:
 3683              	.LBB1501:
 3684              	.LBB1497:
  73:../libs/libDaisy/src/dev/mpr121.h ****     }
 3685              		.loc 2 73 39 view .LVU800
 3686 0758 94F84810 		ldrb	r1, [r4, #72]	@ zero_extendqisi2
 3687              	.LBE1497:
 3688              	.LBE1501:
 3689              	.LBB1502:
 3690              	.LBB1493:
 3691              		.loc 2 343 55 view .LVU801
 3692 075c 4845     		cmp	r0, r9
 3693 075e 18BF     		it	ne
 3694 0760 43F00103 		orrne	r3, r3, #1
 3695              	.LBE1493:
 3696              	.LBE1502:
 3697              	.LBB1503:
 3698              	.LBB1498:
  73:../libs/libDaisy/src/dev/mpr121.h ****     }
 3699              		.loc 2 73 39 view .LVU802
 3700 0764 2846     		mov	r0, r5
 3701              	.LVL176:
  73:../libs/libDaisy/src/dev/mpr121.h ****     }
 3702              		.loc 2 73 39 view .LVU803
 3703              	.LBE1498:
 3704              	.LBE1503:
 3705              	.LBB1504:
 3706              	.LBB1494:
 3707              		.loc 2 343 55 view .LVU804
 3708 0766 84F84C30 		strb	r3, [r4, #76]
 3709              	.LVL177:
 3710              		.loc 2 343 55 view .LVU805
 3711              	.LBE1494:
 3712              	.LBE1504:
 3713              	.LBB1505:
 3714              	.LBI1495:
  70:../libs/libDaisy/src/dev/mpr121.h ****     {
 3715              		.loc 2 70 10 is_stmt 1 view .LVU806
 3716              	.LBB1499:
  72:../libs/libDaisy/src/dev/mpr121.h ****                != i2c_.ReceiveBlocking(config_.dev_addr, data, size, 10);
 3717              		.loc 2 72 9 view .LVU807
  73:../libs/libDaisy/src/dev/mpr121.h ****     }
 3718              		.loc 2 73 39 is_stmt 0 view .LVU808
 3719 076a 3346     		mov	r3, r6
 3720 076c FFF7FEFF 		bl	_ZN5daisy9I2CHandle15ReceiveBlockingEtPhtm
 3721              	.LVL178:
  73:../libs/libDaisy/src/dev/mpr121.h ****     }
 3722              		.loc 2 73 39 view .LVU809
 3723              	.LBE1499:
 3724              	.LBE1505:
 3725              	.LBB1506:
 3726              	.LBI1506:
 3727              		.loc 2 343 10 is_stmt 1 view .LVU810
 3728              	.LBE1506:
 3729              	.LBB1510:
 3730              	.LBB1511:
  66:../libs/libDaisy/src/dev/mpr121.h ****     }
ARM GAS  C:\Users\matte\AppData\Local\Temp\ccgZTizB.s 			page 87


 3731              		.loc 2 66 40 is_stmt 0 view .LVU811
 3732 0770 0097     		str	r7, [sp]
 3733              	.LBE1511:
 3734              	.LBE1510:
 3735              	.LBB1515:
 3736              	.LBB1507:
 3737              		.loc 2 343 55 view .LVU812
 3738 0772 94F84C30 		ldrb	r3, [r4, #76]	@ zero_extendqisi2
 3739              	.LBE1507:
 3740              	.LBE1515:
 3741              	.LBB1516:
 3742              	.LBB1512:
  66:../libs/libDaisy/src/dev/mpr121.h ****     }
 3743              		.loc 2 66 40 view .LVU813
 3744 0776 09AA     		add	r2, sp, #36
 3745 0778 94F84810 		ldrb	r1, [r4, #72]	@ zero_extendqisi2
 3746              	.LBE1512:
 3747              	.LBE1516:
 3748              	.LBB1517:
 3749              	.LBB1508:
 3750              		.loc 2 343 55 view .LVU814
 3751 077c 4845     		cmp	r0, r9
 3752 077e 18BF     		it	ne
 3753 0780 43F00103 		orrne	r3, r3, #1
 3754              	.LBE1508:
 3755              	.LBE1517:
 3756              	.LBB1518:
 3757              	.LBB1513:
  66:../libs/libDaisy/src/dev/mpr121.h ****     }
 3758              		.loc 2 66 40 view .LVU815
 3759 0784 2846     		mov	r0, r5
 3760              	.LVL179:
  66:../libs/libDaisy/src/dev/mpr121.h ****     }
 3761              		.loc 2 66 40 view .LVU816
 3762              	.LBE1513:
 3763              	.LBE1518:
 3764              	.LBB1519:
 3765              	.LBB1509:
 3766              		.loc 2 343 55 view .LVU817
 3767 0786 84F84C30 		strb	r3, [r4, #76]
 3768              	.LVL180:
 3769              		.loc 2 343 55 view .LVU818
 3770              	.LBE1509:
 3771              	.LBE1519:
 3772              	.LBB1520:
 3773              	.LBI1510:
  63:../libs/libDaisy/src/dev/mpr121.h ****     {
 3774              		.loc 2 63 10 is_stmt 1 view .LVU819
 3775              	.LBB1514:
  65:../libs/libDaisy/src/dev/mpr121.h ****                != i2c_.TransmitBlocking(config_.dev_addr, data, size, 10);
 3776              		.loc 2 65 9 view .LVU820
  66:../libs/libDaisy/src/dev/mpr121.h ****     }
 3777              		.loc 2 66 40 is_stmt 0 view .LVU821
 3778 078a 0223     		movs	r3, #2
 3779 078c FFF7FEFF 		bl	_ZN5daisy9I2CHandle16TransmitBlockingEtPhtm
 3780              	.LVL181:
  66:../libs/libDaisy/src/dev/mpr121.h ****     }
ARM GAS  C:\Users\matte\AppData\Local\Temp\ccgZTizB.s 			page 88


 3781              		.loc 2 66 40 view .LVU822
 3782              	.LBE1514:
 3783              	.LBE1520:
 3784              	.LBB1521:
 3785              	.LBI1521:
 3786              		.loc 2 343 10 is_stmt 1 view .LVU823
 3787              	.LBE1521:
 3788              	.LBB1525:
 3789              	.LBB1526:
  66:../libs/libDaisy/src/dev/mpr121.h ****     }
 3790              		.loc 2 66 40 is_stmt 0 view .LVU824
 3791 0790 0097     		str	r7, [sp]
 3792              	.LBE1526:
 3793              	.LBE1525:
 3794              	.LBB1530:
 3795              	.LBB1522:
 3796              		.loc 2 343 55 view .LVU825
 3797 0792 94F84C30 		ldrb	r3, [r4, #76]	@ zero_extendqisi2
 3798              	.LBE1522:
 3799              	.LBE1530:
 3800              	.LBB1531:
 3801              	.LBB1527:
  66:../libs/libDaisy/src/dev/mpr121.h ****     }
 3802              		.loc 2 66 40 view .LVU826
 3803 0796 09AA     		add	r2, sp, #36
 3804 0798 94F84810 		ldrb	r1, [r4, #72]	@ zero_extendqisi2
 3805              	.LBE1527:
 3806              	.LBE1531:
 3807              	.LBB1532:
 3808              	.LBB1523:
 3809              		.loc 2 343 55 view .LVU827
 3810 079c 4845     		cmp	r0, r9
 3811 079e 18BF     		it	ne
 3812 07a0 43F00103 		orrne	r3, r3, #1
 3813              	.LBE1523:
 3814              	.LBE1532:
 3815              	.LBB1533:
 3816              	.LBB1528:
  66:../libs/libDaisy/src/dev/mpr121.h ****     }
 3817              		.loc 2 66 40 view .LVU828
 3818 07a4 2846     		mov	r0, r5
 3819              	.LVL182:
  66:../libs/libDaisy/src/dev/mpr121.h ****     }
 3820              		.loc 2 66 40 view .LVU829
 3821              	.LBE1528:
 3822              	.LBE1533:
 3823              	.LBB1534:
 3824              	.LBB1524:
 3825              		.loc 2 343 55 view .LVU830
 3826 07a6 84F84C30 		strb	r3, [r4, #76]
 3827              	.LVL183:
 3828              		.loc 2 343 55 view .LVU831
 3829              	.LBE1524:
 3830              	.LBE1534:
 281:../libs/libDaisy/src/dev/mpr121.h ****         buff[1] = value;
 3831              		.loc 2 281 17 view .LVU832
 3832 07aa 3023     		movs	r3, #48
ARM GAS  C:\Users\matte\AppData\Local\Temp\ccgZTizB.s 			page 89


 3833 07ac 8DF82430 		strb	r3, [sp, #36]
 282:../libs/libDaisy/src/dev/mpr121.h ****         SetTransportErr(transport_.Write(buff, 2));
 3834              		.loc 2 282 17 view .LVU833
 3835 07b0 0523     		movs	r3, #5
 3836 07b2 8DF82530 		strb	r3, [sp, #37]
 3837              	.LVL184:
 3838              	.LBB1535:
 3839              	.LBI1525:
  63:../libs/libDaisy/src/dev/mpr121.h ****     {
 3840              		.loc 2 63 10 is_stmt 1 view .LVU834
 3841              	.LBB1529:
  65:../libs/libDaisy/src/dev/mpr121.h ****                != i2c_.TransmitBlocking(config_.dev_addr, data, size, 10);
 3842              		.loc 2 65 9 view .LVU835
  66:../libs/libDaisy/src/dev/mpr121.h ****     }
 3843              		.loc 2 66 40 is_stmt 0 view .LVU836
 3844 07b6 0223     		movs	r3, #2
 3845 07b8 FFF7FEFF 		bl	_ZN5daisy9I2CHandle16TransmitBlockingEtPhtm
 3846              	.LVL185:
  66:../libs/libDaisy/src/dev/mpr121.h ****     }
 3847              		.loc 2 66 40 view .LVU837
 3848              	.LBE1529:
 3849              	.LBE1535:
 3850              	.LBB1536:
 3851              	.LBI1536:
 3852              		.loc 2 343 10 is_stmt 1 view .LVU838
 3853              	.LBE1536:
 3854              	.LBB1540:
 3855              	.LBB1541:
  66:../libs/libDaisy/src/dev/mpr121.h ****     }
 3856              		.loc 2 66 40 is_stmt 0 view .LVU839
 3857 07bc 0097     		str	r7, [sp]
 3858              	.LBE1541:
 3859              	.LBE1540:
 3860              	.LBB1545:
 3861              	.LBB1537:
 3862              		.loc 2 343 55 view .LVU840
 3863 07be 94F84C30 		ldrb	r3, [r4, #76]	@ zero_extendqisi2
 3864              	.LBE1537:
 3865              	.LBE1545:
 3866              	.LBB1546:
 3867              	.LBB1542:
  66:../libs/libDaisy/src/dev/mpr121.h ****     }
 3868              		.loc 2 66 40 view .LVU841
 3869 07c2 09AA     		add	r2, sp, #36
 3870 07c4 94F84810 		ldrb	r1, [r4, #72]	@ zero_extendqisi2
 3871              	.LBE1542:
 3872              	.LBE1546:
 3873              	.LBB1547:
 3874              	.LBB1538:
 3875              		.loc 2 343 55 view .LVU842
 3876 07c8 4845     		cmp	r0, r9
 3877 07ca 18BF     		it	ne
 3878 07cc 43F00103 		orrne	r3, r3, #1
 3879              	.LBE1538:
 3880              	.LBE1547:
 3881              	.LBB1548:
 3882              	.LBB1543:
ARM GAS  C:\Users\matte\AppData\Local\Temp\ccgZTizB.s 			page 90


  66:../libs/libDaisy/src/dev/mpr121.h ****     }
 3883              		.loc 2 66 40 view .LVU843
 3884 07d0 2846     		mov	r0, r5
 3885              	.LVL186:
  66:../libs/libDaisy/src/dev/mpr121.h ****     }
 3886              		.loc 2 66 40 view .LVU844
 3887              	.LBE1543:
 3888              	.LBE1548:
 288:../libs/libDaisy/src/dev/mpr121.h ****             buff[1] = ecr_backup;
 3889              		.loc 2 288 21 view .LVU845
 3890 07d2 8DF82480 		strb	r8, [sp, #36]
 3891              	.LBB1549:
 3892              	.LBB1539:
 3893              		.loc 2 343 55 view .LVU846
 3894 07d6 84F84C30 		strb	r3, [r4, #76]
 3895              	.LVL187:
 3896              		.loc 2 343 55 view .LVU847
 3897              	.LBE1539:
 3898              	.LBE1549:
 289:../libs/libDaisy/src/dev/mpr121.h ****             SetTransportErr(transport_.Write(buff, 2));
 3899              		.loc 2 289 21 view .LVU848
 3900 07da 9DF81030 		ldrb	r3, [sp, #16]	@ zero_extendqisi2
 3901 07de 8DF82530 		strb	r3, [sp, #37]
 3902              	.LVL188:
 3903              	.LBB1550:
 3904              	.LBI1540:
  63:../libs/libDaisy/src/dev/mpr121.h ****     {
 3905              		.loc 2 63 10 is_stmt 1 view .LVU849
 3906              	.LBB1544:
  65:../libs/libDaisy/src/dev/mpr121.h ****                != i2c_.TransmitBlocking(config_.dev_addr, data, size, 10);
 3907              		.loc 2 65 9 view .LVU850
  66:../libs/libDaisy/src/dev/mpr121.h ****     }
 3908              		.loc 2 66 40 is_stmt 0 view .LVU851
 3909 07e2 0223     		movs	r3, #2
 3910 07e4 FFF7FEFF 		bl	_ZN5daisy9I2CHandle16TransmitBlockingEtPhtm
 3911              	.LVL189:
  66:../libs/libDaisy/src/dev/mpr121.h ****     }
 3912              		.loc 2 66 40 view .LVU852
 3913              	.LBE1544:
 3914              	.LBE1550:
 3915              	.LBB1551:
 3916              	.LBI1551:
 3917              		.loc 2 343 10 is_stmt 1 view .LVU853
 3918              	.LBE1551:
 3919              	.LBE1560:
 3920              	.LBE1569:
 3921              	.LBB1570:
 3922              	.LBB1571:
 3923              	.LBB1572:
 3924              	.LBB1573:
  66:../libs/libDaisy/src/dev/mpr121.h ****     }
 3925              		.loc 2 66 40 is_stmt 0 view .LVU854
 3926 07e8 0097     		str	r7, [sp]
 3927              	.LBE1573:
 3928              	.LBE1572:
 3929              	.LBE1571:
 3930              	.LBE1570:
ARM GAS  C:\Users\matte\AppData\Local\Temp\ccgZTizB.s 			page 91


 3931              	.LBB1657:
 3932              	.LBB1561:
 3933              	.LBB1555:
 3934              	.LBB1552:
 3935              		.loc 2 343 55 view .LVU855
 3936 07ea 94F84C30 		ldrb	r3, [r4, #76]	@ zero_extendqisi2
 3937              	.LBE1552:
 3938              	.LBE1555:
 3939              	.LBE1561:
 3940              	.LBE1657:
 3941              	.LBB1658:
 3942              	.LBB1651:
 3943              	.LBB1578:
 3944              	.LBB1574:
  66:../libs/libDaisy/src/dev/mpr121.h ****     }
 3945              		.loc 2 66 40 view .LVU856
 3946 07ee 09AA     		add	r2, sp, #36
 3947 07f0 94F84810 		ldrb	r1, [r4, #72]	@ zero_extendqisi2
 3948              	.LBE1574:
 3949              	.LBE1578:
 3950              	.LBE1651:
 3951              	.LBE1658:
 3952              	.LBB1659:
 3953              	.LBB1562:
 3954              	.LBB1556:
 3955              	.LBB1553:
 3956              		.loc 2 343 55 view .LVU857
 3957 07f4 4845     		cmp	r0, r9
 3958 07f6 18BF     		it	ne
 3959 07f8 43F00103 		orrne	r3, r3, #1
 3960              	.LBE1553:
 3961              	.LBE1556:
 3962              	.LBE1562:
 3963              	.LBE1659:
 3964              	.LBB1660:
 3965              	.LBB1652:
 3966              	.LBB1579:
 3967              	.LBB1575:
  66:../libs/libDaisy/src/dev/mpr121.h ****     }
 3968              		.loc 2 66 40 view .LVU858
 3969 07fc 2846     		mov	r0, r5
 3970              	.LVL190:
  66:../libs/libDaisy/src/dev/mpr121.h ****     }
 3971              		.loc 2 66 40 view .LVU859
 3972              	.LBE1575:
 3973              	.LBE1579:
 264:../libs/libDaisy/src/dev/mpr121.h **** 
 3974              		.loc 2 264 17 view .LVU860
 3975 07fe 8DF82590 		strb	r9, [sp, #37]
 3976              	.LBE1652:
 3977              	.LBE1660:
 3978              	.LBB1661:
 3979              	.LBB1563:
 3980              	.LBB1557:
 3981              	.LBB1554:
 3982              		.loc 2 343 55 view .LVU861
 3983 0802 84F84C30 		strb	r3, [r4, #76]
ARM GAS  C:\Users\matte\AppData\Local\Temp\ccgZTizB.s 			page 92


 3984              	.LVL191:
 3985              		.loc 2 343 55 view .LVU862
 3986              	.LBE1554:
 3987              	.LBE1557:
 3988              	.LBE1563:
 3989              	.LBE1661:
 3990              	.LBB1662:
 3991              	.LBI1570:
 257:../libs/libDaisy/src/dev/mpr121.h ****     {
 3992              		.loc 2 257 10 is_stmt 1 view .LVU863
 3993              	.LBB1653:
 3994              	.LBB1580:
 3995              	.LBI1572:
  63:../libs/libDaisy/src/dev/mpr121.h ****     {
 3996              		.loc 2 63 10 view .LVU864
 3997              	.LBB1576:
  65:../libs/libDaisy/src/dev/mpr121.h ****                != i2c_.TransmitBlocking(config_.dev_addr, data, size, 10);
 3998              		.loc 2 65 9 view .LVU865
  66:../libs/libDaisy/src/dev/mpr121.h ****     }
 3999              		.loc 2 66 40 is_stmt 0 view .LVU866
 4000 0806 3346     		mov	r3, r6
 4001              	.LBE1576:
 4002              	.LBE1580:
 264:../libs/libDaisy/src/dev/mpr121.h **** 
 4003              		.loc 2 264 17 view .LVU867
 4004 0808 8DF82480 		strb	r8, [sp, #36]
 4005              	.LBB1581:
 4006              	.LBB1577:
  66:../libs/libDaisy/src/dev/mpr121.h ****     }
 4007              		.loc 2 66 40 view .LVU868
 4008 080c FFF7FEFF 		bl	_ZN5daisy9I2CHandle16TransmitBlockingEtPhtm
 4009              	.LVL192:
  66:../libs/libDaisy/src/dev/mpr121.h ****     }
 4010              		.loc 2 66 40 view .LVU869
 4011              	.LBE1577:
 4012              	.LBE1581:
 4013              	.LBB1582:
 4014              	.LBI1582:
 4015              		.loc 2 343 10 is_stmt 1 view .LVU870
 4016              	.LBE1582:
 4017              	.LBB1586:
 4018              	.LBB1587:
  73:../libs/libDaisy/src/dev/mpr121.h ****     }
 4019              		.loc 2 73 39 is_stmt 0 view .LVU871
 4020 0810 0097     		str	r7, [sp]
 4021 0812 04AA     		add	r2, sp, #16
 4022              	.LBE1587:
 4023              	.LBE1586:
 4024              	.LBB1591:
 4025              	.LBB1583:
 4026              		.loc 2 343 55 view .LVU872
 4027 0814 94F84C30 		ldrb	r3, [r4, #76]	@ zero_extendqisi2
 4028              	.LBE1583:
 4029              	.LBE1591:
 4030              	.LBB1592:
 4031              	.LBB1588:
  73:../libs/libDaisy/src/dev/mpr121.h ****     }
ARM GAS  C:\Users\matte\AppData\Local\Temp\ccgZTizB.s 			page 93


 4032              		.loc 2 73 39 view .LVU873
 4033 0818 94F84810 		ldrb	r1, [r4, #72]	@ zero_extendqisi2
 4034              	.LBE1588:
 4035              	.LBE1592:
 4036              	.LBB1593:
 4037              	.LBB1584:
 4038              		.loc 2 343 55 view .LVU874
 4039 081c 4845     		cmp	r0, r9
 4040 081e 18BF     		it	ne
 4041 0820 43F00103 		orrne	r3, r3, #1
 4042              	.LBE1584:
 4043              	.LBE1593:
 4044              	.LBB1594:
 4045              	.LBB1589:
  73:../libs/libDaisy/src/dev/mpr121.h ****     }
 4046              		.loc 2 73 39 view .LVU875
 4047 0824 2846     		mov	r0, r5
 4048              	.LVL193:
  73:../libs/libDaisy/src/dev/mpr121.h ****     }
 4049              		.loc 2 73 39 view .LVU876
 4050              	.LBE1589:
 4051              	.LBE1594:
 4052              	.LBB1595:
 4053              	.LBB1585:
 4054              		.loc 2 343 55 view .LVU877
 4055 0826 84F84C30 		strb	r3, [r4, #76]
 4056              	.LVL194:
 4057              		.loc 2 343 55 view .LVU878
 4058              	.LBE1585:
 4059              	.LBE1595:
 4060              	.LBB1596:
 4061              	.LBI1586:
  70:../libs/libDaisy/src/dev/mpr121.h ****     {
 4062              		.loc 2 70 10 is_stmt 1 view .LVU879
 4063              	.LBB1590:
  72:../libs/libDaisy/src/dev/mpr121.h ****                != i2c_.ReceiveBlocking(config_.dev_addr, data, size, 10);
 4064              		.loc 2 72 9 view .LVU880
  73:../libs/libDaisy/src/dev/mpr121.h ****     }
 4065              		.loc 2 73 39 is_stmt 0 view .LVU881
 4066 082a 3346     		mov	r3, r6
 4067 082c FFF7FEFF 		bl	_ZN5daisy9I2CHandle15ReceiveBlockingEtPhtm
 4068              	.LVL195:
  73:../libs/libDaisy/src/dev/mpr121.h ****     }
 4069              		.loc 2 73 39 view .LVU882
 4070              	.LBE1590:
 4071              	.LBE1596:
 4072              	.LBB1597:
 4073              	.LBI1597:
 4074              		.loc 2 343 10 is_stmt 1 view .LVU883
 4075              	.LBE1597:
 4076              	.LBB1601:
 4077              	.LBB1602:
  66:../libs/libDaisy/src/dev/mpr121.h ****     }
 4078              		.loc 2 66 40 is_stmt 0 view .LVU884
 4079 0830 0097     		str	r7, [sp]
 4080              	.LBE1602:
 4081              	.LBE1601:
ARM GAS  C:\Users\matte\AppData\Local\Temp\ccgZTizB.s 			page 94


 4082              	.LBB1606:
 4083              	.LBB1598:
 4084              		.loc 2 343 55 view .LVU885
 4085 0832 94F84C30 		ldrb	r3, [r4, #76]	@ zero_extendqisi2
 4086              	.LBE1598:
 4087              	.LBE1606:
 4088              	.LBB1607:
 4089              	.LBB1603:
  66:../libs/libDaisy/src/dev/mpr121.h ****     }
 4090              		.loc 2 66 40 view .LVU886
 4091 0836 09AA     		add	r2, sp, #36
 4092 0838 94F84810 		ldrb	r1, [r4, #72]	@ zero_extendqisi2
 4093              	.LBE1603:
 4094              	.LBE1607:
 4095              	.LBB1608:
 4096              	.LBB1599:
 4097              		.loc 2 343 55 view .LVU887
 4098 083c 4845     		cmp	r0, r9
 4099 083e 18BF     		it	ne
 4100 0840 43F00103 		orrne	r3, r3, #1
 4101              	.LBE1599:
 4102              	.LBE1608:
 4103              	.LBB1609:
 4104              	.LBB1604:
  66:../libs/libDaisy/src/dev/mpr121.h ****     }
 4105              		.loc 2 66 40 view .LVU888
 4106 0844 2846     		mov	r0, r5
 4107              	.LVL196:
  66:../libs/libDaisy/src/dev/mpr121.h ****     }
 4108              		.loc 2 66 40 view .LVU889
 4109              	.LBE1604:
 4110              	.LBE1609:
 4111              	.LBB1610:
 4112              	.LBB1600:
 4113              		.loc 2 343 55 view .LVU890
 4114 0846 84F84C30 		strb	r3, [r4, #76]
 4115              	.LVL197:
 4116              		.loc 2 343 55 view .LVU891
 4117              	.LBE1600:
 4118              	.LBE1610:
 4119              	.LBB1611:
 4120              	.LBI1601:
  63:../libs/libDaisy/src/dev/mpr121.h ****     {
 4121              		.loc 2 63 10 is_stmt 1 view .LVU892
 4122              	.LBB1605:
  65:../libs/libDaisy/src/dev/mpr121.h ****                != i2c_.TransmitBlocking(config_.dev_addr, data, size, 10);
 4123              		.loc 2 65 9 view .LVU893
  66:../libs/libDaisy/src/dev/mpr121.h ****     }
 4124              		.loc 2 66 40 is_stmt 0 view .LVU894
 4125 084a 0223     		movs	r3, #2
 4126 084c FFF7FEFF 		bl	_ZN5daisy9I2CHandle16TransmitBlockingEtPhtm
 4127              	.LVL198:
  66:../libs/libDaisy/src/dev/mpr121.h ****     }
 4128              		.loc 2 66 40 view .LVU895
 4129              	.LBE1605:
 4130              	.LBE1611:
 4131              	.LBB1612:
ARM GAS  C:\Users\matte\AppData\Local\Temp\ccgZTizB.s 			page 95


 4132              	.LBI1612:
 4133              		.loc 2 343 10 is_stmt 1 view .LVU896
 4134              	.LBE1612:
 4135              	.LBB1616:
 4136              	.LBB1617:
  66:../libs/libDaisy/src/dev/mpr121.h ****     }
 4137              		.loc 2 66 40 is_stmt 0 view .LVU897
 4138 0850 0097     		str	r7, [sp]
 4139              	.LBE1617:
 4140              	.LBE1616:
 4141              	.LBB1622:
 4142              	.LBB1613:
 4143              		.loc 2 343 55 view .LVU898
 4144 0852 94F84C30 		ldrb	r3, [r4, #76]	@ zero_extendqisi2
 4145              	.LBE1613:
 4146              	.LBE1622:
 4147              	.LBB1623:
 4148              	.LBB1618:
  66:../libs/libDaisy/src/dev/mpr121.h ****     }
 4149              		.loc 2 66 40 view .LVU899
 4150 0856 09AA     		add	r2, sp, #36
 4151 0858 94F84810 		ldrb	r1, [r4, #72]	@ zero_extendqisi2
 4152              	.LBE1618:
 4153              	.LBE1623:
 4154              	.LBB1624:
 4155              	.LBB1614:
 4156              		.loc 2 343 55 view .LVU900
 4157 085c 4845     		cmp	r0, r9
 4158 085e 18BF     		it	ne
 4159 0860 43F00103 		orrne	r3, r3, #1
 4160              	.LBE1614:
 4161              	.LBE1624:
 4162              	.LBB1625:
 4163              	.LBB1619:
  66:../libs/libDaisy/src/dev/mpr121.h ****     }
 4164              		.loc 2 66 40 view .LVU901
 4165 0864 2846     		mov	r0, r5
 4166              	.LVL199:
  66:../libs/libDaisy/src/dev/mpr121.h ****     }
 4167              		.loc 2 66 40 view .LVU902
 4168              	.LBE1619:
 4169              	.LBE1625:
 282:../libs/libDaisy/src/dev/mpr121.h ****         SetTransportErr(transport_.Write(buff, 2));
 4170              		.loc 2 282 17 view .LVU903
 4171 0866 8DF82560 		strb	r6, [sp, #37]
 4172              	.LBB1626:
 4173              	.LBB1615:
 4174              		.loc 2 343 55 view .LVU904
 4175 086a 84F84C30 		strb	r3, [r4, #76]
 4176              	.LVL200:
 4177              		.loc 2 343 55 view .LVU905
 4178              	.LBE1615:
 4179              	.LBE1626:
 4180              	.LBB1627:
 4181              	.LBI1616:
  63:../libs/libDaisy/src/dev/mpr121.h ****     {
 4182              		.loc 2 63 10 is_stmt 1 view .LVU906
ARM GAS  C:\Users\matte\AppData\Local\Temp\ccgZTizB.s 			page 96


 4183              	.LBB1620:
  65:../libs/libDaisy/src/dev/mpr121.h ****                != i2c_.TransmitBlocking(config_.dev_addr, data, size, 10);
 4184              		.loc 2 65 9 view .LVU907
 4185              	.LBE1620:
 4186              	.LBE1627:
 281:../libs/libDaisy/src/dev/mpr121.h ****         buff[1] = value;
 4187              		.loc 2 281 17 is_stmt 0 view .LVU908
 4188 086e 3123     		movs	r3, #49
 4189 0870 8DF82430 		strb	r3, [sp, #36]
 4190              	.LBB1628:
 4191              	.LBB1621:
  66:../libs/libDaisy/src/dev/mpr121.h ****     }
 4192              		.loc 2 66 40 view .LVU909
 4193 0874 0223     		movs	r3, #2
 4194 0876 FFF7FEFF 		bl	_ZN5daisy9I2CHandle16TransmitBlockingEtPhtm
 4195              	.LVL201:
  66:../libs/libDaisy/src/dev/mpr121.h ****     }
 4196              		.loc 2 66 40 view .LVU910
 4197              	.LBE1621:
 4198              	.LBE1628:
 4199              	.LBB1629:
 4200              	.LBI1629:
 4201              		.loc 2 343 10 is_stmt 1 view .LVU911
 4202              	.LBE1629:
 4203              	.LBB1633:
 4204              	.LBB1634:
  66:../libs/libDaisy/src/dev/mpr121.h ****     }
 4205              		.loc 2 66 40 is_stmt 0 view .LVU912
 4206 087a 0097     		str	r7, [sp]
 4207              	.LBE1634:
 4208              	.LBE1633:
 4209              	.LBB1638:
 4210              	.LBB1630:
 4211              		.loc 2 343 55 view .LVU913
 4212 087c 94F84C30 		ldrb	r3, [r4, #76]	@ zero_extendqisi2
 4213              	.LBE1630:
 4214              	.LBE1638:
 4215              	.LBB1639:
 4216              	.LBB1635:
  66:../libs/libDaisy/src/dev/mpr121.h ****     }
 4217              		.loc 2 66 40 view .LVU914
 4218 0880 09AA     		add	r2, sp, #36
 4219 0882 94F84810 		ldrb	r1, [r4, #72]	@ zero_extendqisi2
 4220              	.LBE1635:
 4221              	.LBE1639:
 4222              	.LBB1640:
 4223              	.LBB1631:
 4224              		.loc 2 343 55 view .LVU915
 4225 0886 4845     		cmp	r0, r9
 4226 0888 18BF     		it	ne
 4227 088a 43F00103 		orrne	r3, r3, #1
 4228              	.LBE1631:
 4229              	.LBE1640:
 4230              	.LBB1641:
 4231              	.LBB1636:
  66:../libs/libDaisy/src/dev/mpr121.h ****     }
 4232              		.loc 2 66 40 view .LVU916
ARM GAS  C:\Users\matte\AppData\Local\Temp\ccgZTizB.s 			page 97


 4233 088e 2846     		mov	r0, r5
 4234              	.LVL202:
  66:../libs/libDaisy/src/dev/mpr121.h ****     }
 4235              		.loc 2 66 40 view .LVU917
 4236              	.LBE1636:
 4237              	.LBE1641:
 288:../libs/libDaisy/src/dev/mpr121.h ****             buff[1] = ecr_backup;
 4238              		.loc 2 288 21 view .LVU918
 4239 0890 8DF82480 		strb	r8, [sp, #36]
 4240              	.LBB1642:
 4241              	.LBB1632:
 4242              		.loc 2 343 55 view .LVU919
 4243 0894 84F84C30 		strb	r3, [r4, #76]
 4244              	.LVL203:
 4245              		.loc 2 343 55 view .LVU920
 4246              	.LBE1632:
 4247              	.LBE1642:
 289:../libs/libDaisy/src/dev/mpr121.h ****             SetTransportErr(transport_.Write(buff, 2));
 4248              		.loc 2 289 21 view .LVU921
 4249 0898 9DF81030 		ldrb	r3, [sp, #16]	@ zero_extendqisi2
 4250 089c 8DF82530 		strb	r3, [sp, #37]
 4251              	.LVL204:
 4252              	.LBB1643:
 4253              	.LBI1633:
  63:../libs/libDaisy/src/dev/mpr121.h ****     {
 4254              		.loc 2 63 10 is_stmt 1 view .LVU922
 4255              	.LBB1637:
  65:../libs/libDaisy/src/dev/mpr121.h ****                != i2c_.TransmitBlocking(config_.dev_addr, data, size, 10);
 4256              		.loc 2 65 9 view .LVU923
  66:../libs/libDaisy/src/dev/mpr121.h ****     }
 4257              		.loc 2 66 40 is_stmt 0 view .LVU924
 4258 08a0 0223     		movs	r3, #2
 4259 08a2 FFF7FEFF 		bl	_ZN5daisy9I2CHandle16TransmitBlockingEtPhtm
 4260              	.LVL205:
  66:../libs/libDaisy/src/dev/mpr121.h ****     }
 4261              		.loc 2 66 40 view .LVU925
 4262              	.LBE1637:
 4263              	.LBE1643:
 4264              	.LBB1644:
 4265              	.LBI1644:
 4266              		.loc 2 343 10 is_stmt 1 view .LVU926
 4267              	.LBE1644:
 4268              	.LBE1653:
 4269              	.LBE1662:
 4270              	.LBB1663:
 4271              	.LBB1664:
 4272              	.LBB1665:
 4273              	.LBB1666:
  66:../libs/libDaisy/src/dev/mpr121.h ****     }
 4274              		.loc 2 66 40 is_stmt 0 view .LVU927
 4275 08a6 0097     		str	r7, [sp]
 4276              	.LBE1666:
 4277              	.LBE1665:
 4278              	.LBE1664:
 4279              	.LBE1663:
 4280              	.LBB1750:
 4281              	.LBB1654:
ARM GAS  C:\Users\matte\AppData\Local\Temp\ccgZTizB.s 			page 98


 4282              	.LBB1648:
 4283              	.LBB1645:
 4284              		.loc 2 343 55 view .LVU928
 4285 08a8 94F84C30 		ldrb	r3, [r4, #76]	@ zero_extendqisi2
 4286              	.LBE1645:
 4287              	.LBE1648:
 4288              	.LBE1654:
 4289              	.LBE1750:
 4290              	.LBB1751:
 4291              	.LBB1744:
 4292              	.LBB1671:
 4293              	.LBB1667:
  66:../libs/libDaisy/src/dev/mpr121.h ****     }
 4294              		.loc 2 66 40 view .LVU929
 4295 08ac 09AA     		add	r2, sp, #36
 4296 08ae 94F84810 		ldrb	r1, [r4, #72]	@ zero_extendqisi2
 4297              	.LBE1667:
 4298              	.LBE1671:
 4299              	.LBE1744:
 4300              	.LBE1751:
 4301              	.LBB1752:
 4302              	.LBB1655:
 4303              	.LBB1649:
 4304              	.LBB1646:
 4305              		.loc 2 343 55 view .LVU930
 4306 08b2 4845     		cmp	r0, r9
 4307 08b4 18BF     		it	ne
 4308 08b6 43F00103 		orrne	r3, r3, #1
 4309              	.LBE1646:
 4310              	.LBE1649:
 4311              	.LBE1655:
 4312              	.LBE1752:
 4313              	.LBB1753:
 4314              	.LBB1745:
 4315              	.LBB1672:
 4316              	.LBB1668:
  66:../libs/libDaisy/src/dev/mpr121.h ****     }
 4317              		.loc 2 66 40 view .LVU931
 4318 08ba 2846     		mov	r0, r5
 4319              	.LVL206:
  66:../libs/libDaisy/src/dev/mpr121.h ****     }
 4320              		.loc 2 66 40 view .LVU932
 4321              	.LBE1668:
 4322              	.LBE1672:
 264:../libs/libDaisy/src/dev/mpr121.h **** 
 4323              		.loc 2 264 17 view .LVU933
 4324 08bc 8DF82590 		strb	r9, [sp, #37]
 4325              	.LBE1745:
 4326              	.LBE1753:
 4327              	.LBB1754:
 4328              	.LBB1656:
 4329              	.LBB1650:
 4330              	.LBB1647:
 4331              		.loc 2 343 55 view .LVU934
 4332 08c0 84F84C30 		strb	r3, [r4, #76]
 4333              	.LVL207:
 4334              		.loc 2 343 55 view .LVU935
ARM GAS  C:\Users\matte\AppData\Local\Temp\ccgZTizB.s 			page 99


 4335              	.LBE1647:
 4336              	.LBE1650:
 4337              	.LBE1656:
 4338              	.LBE1754:
 4339              	.LBB1755:
 4340              	.LBI1663:
 257:../libs/libDaisy/src/dev/mpr121.h ****     {
 4341              		.loc 2 257 10 is_stmt 1 view .LVU936
 4342              	.LBB1746:
 4343              	.LBB1673:
 4344              	.LBI1665:
  63:../libs/libDaisy/src/dev/mpr121.h ****     {
 4345              		.loc 2 63 10 view .LVU937
 4346              	.LBB1669:
  65:../libs/libDaisy/src/dev/mpr121.h ****                != i2c_.TransmitBlocking(config_.dev_addr, data, size, 10);
 4347              		.loc 2 65 9 view .LVU938
  66:../libs/libDaisy/src/dev/mpr121.h ****     }
 4348              		.loc 2 66 40 is_stmt 0 view .LVU939
 4349 08c4 3346     		mov	r3, r6
 4350              	.LBE1669:
 4351              	.LBE1673:
 264:../libs/libDaisy/src/dev/mpr121.h **** 
 4352              		.loc 2 264 17 view .LVU940
 4353 08c6 8DF82480 		strb	r8, [sp, #36]
 4354              	.LBB1674:
 4355              	.LBB1670:
  66:../libs/libDaisy/src/dev/mpr121.h ****     }
 4356              		.loc 2 66 40 view .LVU941
 4357 08ca FFF7FEFF 		bl	_ZN5daisy9I2CHandle16TransmitBlockingEtPhtm
 4358              	.LVL208:
  66:../libs/libDaisy/src/dev/mpr121.h ****     }
 4359              		.loc 2 66 40 view .LVU942
 4360              	.LBE1670:
 4361              	.LBE1674:
 4362              	.LBB1675:
 4363              	.LBI1675:
 4364              		.loc 2 343 10 is_stmt 1 view .LVU943
 4365              	.LBE1675:
 4366              	.LBB1679:
 4367              	.LBB1680:
  73:../libs/libDaisy/src/dev/mpr121.h ****     }
 4368              		.loc 2 73 39 is_stmt 0 view .LVU944
