ARM GAS  C:\Users\skipi\AppData\Local\Temp\ccY7P3ru.s 			page 1


   1              		.cpu cortex-m7
   2              		.eabi_attribute 28, 1
   3              		.eabi_attribute 20, 1
   4              		.eabi_attribute 21, 1
   5              		.eabi_attribute 23, 3
   6              		.eabi_attribute 24, 1
   7              		.eabi_attribute 25, 1
   8              		.eabi_attribute 26, 1
   9              		.eabi_attribute 30, 2
  10              		.eabi_attribute 34, 1
  11              		.eabi_attribute 18, 4
  12              		.file	"PSP.cpp"
  13              		.text
  14              	.Ltext0:
  15              		.cfi_sections	.debug_frame
  16              		.section	.text._ZN5daisy9DaisySeedD2Ev,"axG",%progbits,_ZN5daisy9DaisySeedD5Ev,comdat
  17              		.align	1
  18              		.p2align 2,,3
  19              		.weak	_ZN5daisy9DaisySeedD2Ev
  20              		.arch armv7e-m
  21              		.syntax unified
  22              		.thumb
  23              		.thumb_func
  24              		.fpu fpv5-d16
  26              	_ZN5daisy9DaisySeedD2Ev:
  27              	.LVL0:
  28              	.LFB2671:
  29              		.file 1 "../libs/libDaisy/../../libs/libDaisy/src/daisy_seed.h"
   1:../libs/libDaisy/../../libs/libDaisy/src/daisy_seed.h **** #pragma once
   2:../libs/libDaisy/../../libs/libDaisy/src/daisy_seed.h **** #ifndef DSY_SEED_H
   3:../libs/libDaisy/../../libs/libDaisy/src/daisy_seed.h **** #define DSY_SEED_H
   4:../libs/libDaisy/../../libs/libDaisy/src/daisy_seed.h **** 
   5:../libs/libDaisy/../../libs/libDaisy/src/daisy_seed.h **** #include "daisy.h"
   6:../libs/libDaisy/../../libs/libDaisy/src/daisy_seed.h **** 
   7:../libs/libDaisy/../../libs/libDaisy/src/daisy_seed.h **** //Uncomment this out if you're still using the rev2 hardware
   8:../libs/libDaisy/../../libs/libDaisy/src/daisy_seed.h **** //#define SEED_REV2
   9:../libs/libDaisy/../../libs/libDaisy/src/daisy_seed.h **** 
  10:../libs/libDaisy/../../libs/libDaisy/src/daisy_seed.h **** namespace daisy
  11:../libs/libDaisy/../../libs/libDaisy/src/daisy_seed.h **** {
  12:../libs/libDaisy/../../libs/libDaisy/src/daisy_seed.h **** /**
  13:../libs/libDaisy/../../libs/libDaisy/src/daisy_seed.h ****    @brief This is the higher-level interface for the Daisy board. \n 
  14:../libs/libDaisy/../../libs/libDaisy/src/daisy_seed.h ****     All basic peripheral configuration/initialization is setup here. \n
  15:../libs/libDaisy/../../libs/libDaisy/src/daisy_seed.h **** 
  16:../libs/libDaisy/../../libs/libDaisy/src/daisy_seed.h ****    @ingroup boards
  17:../libs/libDaisy/../../libs/libDaisy/src/daisy_seed.h **** */
  18:../libs/libDaisy/../../libs/libDaisy/src/daisy_seed.h **** class DaisySeed
  19:../libs/libDaisy/../../libs/libDaisy/src/daisy_seed.h **** {
  20:../libs/libDaisy/../../libs/libDaisy/src/daisy_seed.h ****   public:
  21:../libs/libDaisy/../../libs/libDaisy/src/daisy_seed.h ****     DaisySeed() {}
  22:../libs/libDaisy/../../libs/libDaisy/src/daisy_seed.h ****     ~DaisySeed() {}
  30              		.loc 1 22 5 view -0
  31              		.cfi_startproc
  32              		@ args = 0, pretend = 0, frame = 0
  33              		@ frame_needed = 0, uses_anonymous_args = 0
  34              		@ link register save eliminated.
  35              	.LBB257:
  36              	.LBI257:
ARM GAS  C:\Users\skipi\AppData\Local\Temp\ccY7P3ru.s 			page 2


  37              		.file 2 "../libs/libDaisy/../../libs/libDaisy/src/dev/codec_ak4556.h"
   1:../libs/libDaisy/../../libs/libDaisy/src/dev/codec_ak4556.h **** #pragma once
   2:../libs/libDaisy/../../libs/libDaisy/src/dev/codec_ak4556.h **** #ifndef DSY_CODEC_AK4556_H
   3:../libs/libDaisy/../../libs/libDaisy/src/dev/codec_ak4556.h **** #define DSY_CODEC_AK4556_H
   4:../libs/libDaisy/../../libs/libDaisy/src/dev/codec_ak4556.h **** 
   5:../libs/libDaisy/../../libs/libDaisy/src/dev/codec_ak4556.h **** #include "daisy_core.h"
   6:../libs/libDaisy/../../libs/libDaisy/src/dev/codec_ak4556.h **** #include "per/gpio.h"
   7:../libs/libDaisy/../../libs/libDaisy/src/dev/codec_ak4556.h **** 
   8:../libs/libDaisy/../../libs/libDaisy/src/dev/codec_ak4556.h **** namespace daisy
   9:../libs/libDaisy/../../libs/libDaisy/src/dev/codec_ak4556.h **** {
  10:../libs/libDaisy/../../libs/libDaisy/src/dev/codec_ak4556.h **** /** @brief Ak4556 Codec support 
  11:../libs/libDaisy/../../libs/libDaisy/src/dev/codec_ak4556.h ****  ** @author shensley
  12:../libs/libDaisy/../../libs/libDaisy/src/dev/codec_ak4556.h ****  ** @addtogroup codec
  13:../libs/libDaisy/../../libs/libDaisy/src/dev/codec_ak4556.h ****  ** 
  14:../libs/libDaisy/../../libs/libDaisy/src/dev/codec_ak4556.h ****  ** I don't see any real reason to have this be more than a function, but in case we want
  15:../libs/libDaisy/../../libs/libDaisy/src/dev/codec_ak4556.h ****  ** to add other functions down the road I wrapped the function in a class.
  16:../libs/libDaisy/../../libs/libDaisy/src/dev/codec_ak4556.h ****  ***/
  17:../libs/libDaisy/../../libs/libDaisy/src/dev/codec_ak4556.h **** class Ak4556
  18:../libs/libDaisy/../../libs/libDaisy/src/dev/codec_ak4556.h **** {
  19:../libs/libDaisy/../../libs/libDaisy/src/dev/codec_ak4556.h ****   public:
  20:../libs/libDaisy/../../libs/libDaisy/src/dev/codec_ak4556.h ****     Ak4556() {}
  21:../libs/libDaisy/../../libs/libDaisy/src/dev/codec_ak4556.h ****     ~Ak4556() {}
  38              		.loc 2 21 5 view .LVU1
  39              		.loc 2 21 5 is_stmt 0 view .LVU2
  40              	.LBE257:
  41              	.LBB258:
  42              	.LBI258:
  43              		.file 3 "../libs/libDaisy/../../libs/libDaisy/src/sys/system.h"
   1:../libs/libDaisy/../../libs/libDaisy/src/sys/system.h **** #ifndef DSY_SYSTEM_H
   2:../libs/libDaisy/../../libs/libDaisy/src/sys/system.h **** #define DSY_SYSTEM_H
   3:../libs/libDaisy/../../libs/libDaisy/src/sys/system.h **** 
   4:../libs/libDaisy/../../libs/libDaisy/src/sys/system.h **** #ifndef UNIT_TEST // for unit tests, a dummy implementation is provided below
   5:../libs/libDaisy/../../libs/libDaisy/src/sys/system.h **** 
   6:../libs/libDaisy/../../libs/libDaisy/src/sys/system.h **** #include <cstdint>
   7:../libs/libDaisy/../../libs/libDaisy/src/sys/system.h **** #include "per/tim.h"
   8:../libs/libDaisy/../../libs/libDaisy/src/sys/system.h **** 
   9:../libs/libDaisy/../../libs/libDaisy/src/sys/system.h **** namespace daisy
  10:../libs/libDaisy/../../libs/libDaisy/src/sys/system.h **** {
  11:../libs/libDaisy/../../libs/libDaisy/src/sys/system.h **** /** A handle for interacting with the Core System.
  12:../libs/libDaisy/../../libs/libDaisy/src/sys/system.h ****  ** This includes the Clock tree, MPU, global DMA initialization,
  13:../libs/libDaisy/../../libs/libDaisy/src/sys/system.h ****  ** cache handling, and any other necessary global initiailzation
  14:../libs/libDaisy/../../libs/libDaisy/src/sys/system.h ****  **
  15:../libs/libDaisy/../../libs/libDaisy/src/sys/system.h ****  ** @author shensley
  16:../libs/libDaisy/../../libs/libDaisy/src/sys/system.h ****  ** @ingroup system
  17:../libs/libDaisy/../../libs/libDaisy/src/sys/system.h ****  */
  18:../libs/libDaisy/../../libs/libDaisy/src/sys/system.h **** class System
  19:../libs/libDaisy/../../libs/libDaisy/src/sys/system.h **** {
  20:../libs/libDaisy/../../libs/libDaisy/src/sys/system.h ****   public:
  21:../libs/libDaisy/../../libs/libDaisy/src/sys/system.h ****     /** Contains settings for initializing the System */
  22:../libs/libDaisy/../../libs/libDaisy/src/sys/system.h ****     struct Config
  23:../libs/libDaisy/../../libs/libDaisy/src/sys/system.h ****     {
  24:../libs/libDaisy/../../libs/libDaisy/src/sys/system.h ****         /** Specifies the system clock frequency that feeds APB/AHB clocks, etc. */
  25:../libs/libDaisy/../../libs/libDaisy/src/sys/system.h ****         enum class SysClkFreq
  26:../libs/libDaisy/../../libs/libDaisy/src/sys/system.h ****         {
  27:../libs/libDaisy/../../libs/libDaisy/src/sys/system.h ****             FREQ_400MHZ,
  28:../libs/libDaisy/../../libs/libDaisy/src/sys/system.h ****             FREQ_480MHZ,
  29:../libs/libDaisy/../../libs/libDaisy/src/sys/system.h ****         };
ARM GAS  C:\Users\skipi\AppData\Local\Temp\ccY7P3ru.s 			page 3


  30:../libs/libDaisy/../../libs/libDaisy/src/sys/system.h **** 
  31:../libs/libDaisy/../../libs/libDaisy/src/sys/system.h ****         /** Method to call on the struct to set to defaults
  32:../libs/libDaisy/../../libs/libDaisy/src/sys/system.h ****          ** CPU Freq set to 400MHz
  33:../libs/libDaisy/../../libs/libDaisy/src/sys/system.h ****          ** Cache Enabled
  34:../libs/libDaisy/../../libs/libDaisy/src/sys/system.h ****          ** */
  35:../libs/libDaisy/../../libs/libDaisy/src/sys/system.h ****         void Defaults()
  36:../libs/libDaisy/../../libs/libDaisy/src/sys/system.h ****         {
  37:../libs/libDaisy/../../libs/libDaisy/src/sys/system.h ****             cpu_freq    = SysClkFreq::FREQ_400MHZ;
  38:../libs/libDaisy/../../libs/libDaisy/src/sys/system.h ****             use_dcache  = true;
  39:../libs/libDaisy/../../libs/libDaisy/src/sys/system.h ****             use_icache  = true;
  40:../libs/libDaisy/../../libs/libDaisy/src/sys/system.h ****             skip_clocks = false;
  41:../libs/libDaisy/../../libs/libDaisy/src/sys/system.h ****         }
  42:../libs/libDaisy/../../libs/libDaisy/src/sys/system.h **** 
  43:../libs/libDaisy/../../libs/libDaisy/src/sys/system.h ****         /** Method to call on the struct to set to boost mode:
  44:../libs/libDaisy/../../libs/libDaisy/src/sys/system.h ****          ** CPU Freq set to 480MHz
  45:../libs/libDaisy/../../libs/libDaisy/src/sys/system.h ****          ** Cache Enabled
  46:../libs/libDaisy/../../libs/libDaisy/src/sys/system.h ****          ** */
  47:../libs/libDaisy/../../libs/libDaisy/src/sys/system.h ****         void Boost()
  48:../libs/libDaisy/../../libs/libDaisy/src/sys/system.h ****         {
  49:../libs/libDaisy/../../libs/libDaisy/src/sys/system.h ****             cpu_freq    = SysClkFreq::FREQ_480MHZ;
  50:../libs/libDaisy/../../libs/libDaisy/src/sys/system.h ****             use_dcache  = true;
  51:../libs/libDaisy/../../libs/libDaisy/src/sys/system.h ****             use_icache  = true;
  52:../libs/libDaisy/../../libs/libDaisy/src/sys/system.h ****             skip_clocks = false;
  53:../libs/libDaisy/../../libs/libDaisy/src/sys/system.h ****         }
  54:../libs/libDaisy/../../libs/libDaisy/src/sys/system.h **** 
  55:../libs/libDaisy/../../libs/libDaisy/src/sys/system.h ****         SysClkFreq cpu_freq;
  56:../libs/libDaisy/../../libs/libDaisy/src/sys/system.h ****         bool       use_dcache;
  57:../libs/libDaisy/../../libs/libDaisy/src/sys/system.h ****         bool       use_icache;
  58:../libs/libDaisy/../../libs/libDaisy/src/sys/system.h ****         bool       skip_clocks;
  59:../libs/libDaisy/../../libs/libDaisy/src/sys/system.h ****     };
  60:../libs/libDaisy/../../libs/libDaisy/src/sys/system.h **** 
  61:../libs/libDaisy/../../libs/libDaisy/src/sys/system.h ****     /** Describes the different regions of memory available to the Daisy */
  62:../libs/libDaisy/../../libs/libDaisy/src/sys/system.h ****     enum MemoryRegion
  63:../libs/libDaisy/../../libs/libDaisy/src/sys/system.h ****     {
  64:../libs/libDaisy/../../libs/libDaisy/src/sys/system.h ****         INTERNAL_FLASH = 0,
  65:../libs/libDaisy/../../libs/libDaisy/src/sys/system.h ****         ITCMRAM,
  66:../libs/libDaisy/../../libs/libDaisy/src/sys/system.h ****         DTCMRAM,
  67:../libs/libDaisy/../../libs/libDaisy/src/sys/system.h ****         SRAM_D1,
  68:../libs/libDaisy/../../libs/libDaisy/src/sys/system.h ****         SRAM_D2,
  69:../libs/libDaisy/../../libs/libDaisy/src/sys/system.h ****         SRAM_D3,
  70:../libs/libDaisy/../../libs/libDaisy/src/sys/system.h ****         SDRAM,
  71:../libs/libDaisy/../../libs/libDaisy/src/sys/system.h ****         QSPI,
  72:../libs/libDaisy/../../libs/libDaisy/src/sys/system.h ****         INVALID_ADDRESS,
  73:../libs/libDaisy/../../libs/libDaisy/src/sys/system.h ****     };
  74:../libs/libDaisy/../../libs/libDaisy/src/sys/system.h **** 
  75:../libs/libDaisy/../../libs/libDaisy/src/sys/system.h ****     /** Bootloader struct for controlling bootloading parameters */
  76:../libs/libDaisy/../../libs/libDaisy/src/sys/system.h ****     struct BootInfo
  77:../libs/libDaisy/../../libs/libDaisy/src/sys/system.h ****     {
  78:../libs/libDaisy/../../libs/libDaisy/src/sys/system.h ****         enum class Type : uint32_t
  79:../libs/libDaisy/../../libs/libDaisy/src/sys/system.h ****         {
  80:../libs/libDaisy/../../libs/libDaisy/src/sys/system.h ****             INVALID      = 0x00000000,
  81:../libs/libDaisy/../../libs/libDaisy/src/sys/system.h ****             JUMP         = 0xDEADBEEF,
  82:../libs/libDaisy/../../libs/libDaisy/src/sys/system.h ****             SKIP_TIMEOUT = 0x5AFEB007,
  83:../libs/libDaisy/../../libs/libDaisy/src/sys/system.h ****             INF_TIMEOUT  = 0xB0074EFA,
  84:../libs/libDaisy/../../libs/libDaisy/src/sys/system.h ****         } status;
  85:../libs/libDaisy/../../libs/libDaisy/src/sys/system.h ****         uint32_t data;
  86:../libs/libDaisy/../../libs/libDaisy/src/sys/system.h ****         enum class Version : uint32_t
ARM GAS  C:\Users\skipi\AppData\Local\Temp\ccY7P3ru.s 			page 4


  87:../libs/libDaisy/../../libs/libDaisy/src/sys/system.h ****         {
  88:../libs/libDaisy/../../libs/libDaisy/src/sys/system.h ****             LT_v6_0 = 0, // Less than v6.0
  89:../libs/libDaisy/../../libs/libDaisy/src/sys/system.h ****             NONE,        // No bootloader present
  90:../libs/libDaisy/../../libs/libDaisy/src/sys/system.h ****             v6_0,        // v6.0
  91:../libs/libDaisy/../../libs/libDaisy/src/sys/system.h ****             v6_1,        // v6.1 or greater
  92:../libs/libDaisy/../../libs/libDaisy/src/sys/system.h ****             LAST
  93:../libs/libDaisy/../../libs/libDaisy/src/sys/system.h ****         } version;
  94:../libs/libDaisy/../../libs/libDaisy/src/sys/system.h ****     };
  95:../libs/libDaisy/../../libs/libDaisy/src/sys/system.h **** 
  96:../libs/libDaisy/../../libs/libDaisy/src/sys/system.h ****     System() {}
  97:../libs/libDaisy/../../libs/libDaisy/src/sys/system.h ****     ~System() {}
  44              		.loc 3 97 5 is_stmt 1 view .LVU3
  45              		.loc 3 97 5 is_stmt 0 view .LVU4
  46              	.LBE258:
  47              	.LBB259:
  48              	.LBI259:
  49              		.file 4 "../libs/libDaisy/src/hid/usb.h"
   1:../libs/libDaisy/src/hid/usb.h **** #pragma once
   2:../libs/libDaisy/src/hid/usb.h **** #ifndef DSY_HID_USB_H
   3:../libs/libDaisy/src/hid/usb.h **** #define DSY_HID_USB_H
   4:../libs/libDaisy/src/hid/usb.h **** #include <stdint.h>
   5:../libs/libDaisy/src/hid/usb.h **** #include <stdlib.h>
   6:../libs/libDaisy/src/hid/usb.h **** 
   7:../libs/libDaisy/src/hid/usb.h **** namespace daisy
   8:../libs/libDaisy/src/hid/usb.h **** /** @addtogroup human_interface
   9:../libs/libDaisy/src/hid/usb.h ****     @{
  10:../libs/libDaisy/src/hid/usb.h **** */
  11:../libs/libDaisy/src/hid/usb.h **** 
  12:../libs/libDaisy/src/hid/usb.h **** {
  13:../libs/libDaisy/src/hid/usb.h **** /** 
  14:../libs/libDaisy/src/hid/usb.h ****     @brief Interface for initializing and using the USB Peripherals on the daisy
  15:../libs/libDaisy/src/hid/usb.h ****     @author Stephen Hensley
  16:../libs/libDaisy/src/hid/usb.h ****     @date December 2019
  17:../libs/libDaisy/src/hid/usb.h **** */
  18:../libs/libDaisy/src/hid/usb.h **** class UsbHandle
  19:../libs/libDaisy/src/hid/usb.h **** {
  20:../libs/libDaisy/src/hid/usb.h ****   public:
  21:../libs/libDaisy/src/hid/usb.h ****     /** Return values for USBHandle Functions */
  22:../libs/libDaisy/src/hid/usb.h ****     enum class Result
  23:../libs/libDaisy/src/hid/usb.h ****     {
  24:../libs/libDaisy/src/hid/usb.h ****         OK,
  25:../libs/libDaisy/src/hid/usb.h ****         ERR,
  26:../libs/libDaisy/src/hid/usb.h ****     };
  27:../libs/libDaisy/src/hid/usb.h **** 
  28:../libs/libDaisy/src/hid/usb.h ****     /** Specified which of the two USB Peripherals to initialize. */
  29:../libs/libDaisy/src/hid/usb.h ****     enum UsbPeriph
  30:../libs/libDaisy/src/hid/usb.h ****     {
  31:../libs/libDaisy/src/hid/usb.h ****         FS_INTERNAL, /**< Internal pin */
  32:../libs/libDaisy/src/hid/usb.h ****         FS_EXTERNAL, /**< FS External D+ pin is Pin 38 (GPIO32). FS External D- pin is Pin 37 (GPIO
  33:../libs/libDaisy/src/hid/usb.h ****         FS_BOTH,     /**< Both */
  34:../libs/libDaisy/src/hid/usb.h ****     };
  35:../libs/libDaisy/src/hid/usb.h **** 
  36:../libs/libDaisy/src/hid/usb.h **** 
  37:../libs/libDaisy/src/hid/usb.h ****     /** Function called upon reception of a buffer */
  38:../libs/libDaisy/src/hid/usb.h ****     typedef void (*ReceiveCallback)(uint8_t* buff, uint32_t* len);
  39:../libs/libDaisy/src/hid/usb.h **** 
  40:../libs/libDaisy/src/hid/usb.h ****     UsbHandle() {}
ARM GAS  C:\Users\skipi\AppData\Local\Temp\ccY7P3ru.s 			page 5


  41:../libs/libDaisy/src/hid/usb.h **** 
  42:../libs/libDaisy/src/hid/usb.h ****     ~UsbHandle() {}
  50              		.loc 4 42 5 is_stmt 1 view .LVU5
  51              		.loc 4 42 5 is_stmt 0 view .LVU6
  52              	.LBE259:
  53              	.LBB260:
  54              	.LBI260:
  55              		.file 5 "../libs/libDaisy/../../libs/libDaisy/src/per/adc.h"
   1:../libs/libDaisy/../../libs/libDaisy/src/per/adc.h **** #pragma once
   2:../libs/libDaisy/../../libs/libDaisy/src/per/adc.h **** #ifndef DSY_ADC_H
   3:../libs/libDaisy/../../libs/libDaisy/src/per/adc.h **** #define DSY_ADC_H /**< Macro */
   4:../libs/libDaisy/../../libs/libDaisy/src/per/adc.h **** #include <stdint.h>
   5:../libs/libDaisy/../../libs/libDaisy/src/per/adc.h **** #include <stdlib.h>
   6:../libs/libDaisy/../../libs/libDaisy/src/per/adc.h **** #include "daisy_core.h"
   7:../libs/libDaisy/../../libs/libDaisy/src/per/adc.h **** #include "per/gpio.h"
   8:../libs/libDaisy/../../libs/libDaisy/src/per/adc.h **** 
   9:../libs/libDaisy/../../libs/libDaisy/src/per/adc.h **** #define DSY_ADC_MAX_CHANNELS 16 /**< Maximum number of ADC channels */
  10:../libs/libDaisy/../../libs/libDaisy/src/per/adc.h **** 
  11:../libs/libDaisy/../../libs/libDaisy/src/per/adc.h **** namespace daisy
  12:../libs/libDaisy/../../libs/libDaisy/src/per/adc.h **** {
  13:../libs/libDaisy/../../libs/libDaisy/src/per/adc.h **** /** @addtogroup per_analog
  14:../libs/libDaisy/../../libs/libDaisy/src/per/adc.h ****     @{
  15:../libs/libDaisy/../../libs/libDaisy/src/per/adc.h **** */
  16:../libs/libDaisy/../../libs/libDaisy/src/per/adc.h **** 
  17:../libs/libDaisy/../../libs/libDaisy/src/per/adc.h **** /* While there may not be many configuration options here,
  18:../libs/libDaisy/../../libs/libDaisy/src/per/adc.h **** using a struct like this allows us to add more configuration
  19:../libs/libDaisy/../../libs/libDaisy/src/per/adc.h **** later without breaking existing functionality.
  20:../libs/libDaisy/../../libs/libDaisy/src/per/adc.h **** */
  21:../libs/libDaisy/../../libs/libDaisy/src/per/adc.h **** 
  22:../libs/libDaisy/../../libs/libDaisy/src/per/adc.h **** /** @brief   Configuration Structure for an ADC Channel 
  23:../libs/libDaisy/../../libs/libDaisy/src/per/adc.h ****  *  @details This can be used to configure a a single input, 
  24:../libs/libDaisy/../../libs/libDaisy/src/per/adc.h ****  *           or a multiplexed input, allowing up to 8 inputs on 
  25:../libs/libDaisy/../../libs/libDaisy/src/per/adc.h ****  *           one channel.
  26:../libs/libDaisy/../../libs/libDaisy/src/per/adc.h ****  *  @note    Sharing data lines to multiple muxes _is_ possible, but
  27:../libs/libDaisy/../../libs/libDaisy/src/per/adc.h ****  *           each channel sharing data lines must be set to the maximum
  28:../libs/libDaisy/../../libs/libDaisy/src/per/adc.h ****  *           number of channels, even if some multiplexers have fewer
  29:../libs/libDaisy/../../libs/libDaisy/src/per/adc.h ****  *           inputs connected.
  30:../libs/libDaisy/../../libs/libDaisy/src/per/adc.h **** */
  31:../libs/libDaisy/../../libs/libDaisy/src/per/adc.h **** struct AdcChannelConfig
  32:../libs/libDaisy/../../libs/libDaisy/src/per/adc.h **** {
  33:../libs/libDaisy/../../libs/libDaisy/src/per/adc.h ****     /** Which pin to use for multiplexing */
  34:../libs/libDaisy/../../libs/libDaisy/src/per/adc.h ****     enum MuxPin
  35:../libs/libDaisy/../../libs/libDaisy/src/per/adc.h ****     {
  36:../libs/libDaisy/../../libs/libDaisy/src/per/adc.h ****         MUX_SEL_0,    /**< & */
  37:../libs/libDaisy/../../libs/libDaisy/src/per/adc.h ****         MUX_SEL_1,    /**< & */
  38:../libs/libDaisy/../../libs/libDaisy/src/per/adc.h ****         MUX_SEL_2,    /**< & */
  39:../libs/libDaisy/../../libs/libDaisy/src/per/adc.h ****         MUX_SEL_LAST, /**< & */
  40:../libs/libDaisy/../../libs/libDaisy/src/per/adc.h ****     };
  41:../libs/libDaisy/../../libs/libDaisy/src/per/adc.h **** 
  42:../libs/libDaisy/../../libs/libDaisy/src/per/adc.h ****     /** \brief per channel conversion speed added to fixed time based on bitdepth, etc. */
  43:../libs/libDaisy/../../libs/libDaisy/src/per/adc.h ****     enum ConversionSpeed
  44:../libs/libDaisy/../../libs/libDaisy/src/per/adc.h ****     {
  45:../libs/libDaisy/../../libs/libDaisy/src/per/adc.h ****         SPEED_1CYCLES_5,
  46:../libs/libDaisy/../../libs/libDaisy/src/per/adc.h ****         SPEED_2CYCLES_5,
  47:../libs/libDaisy/../../libs/libDaisy/src/per/adc.h ****         SPEED_8CYCLES_5,
  48:../libs/libDaisy/../../libs/libDaisy/src/per/adc.h ****         SPEED_16CYCLES_5,
  49:../libs/libDaisy/../../libs/libDaisy/src/per/adc.h ****         SPEED_32CYCLES_5,
ARM GAS  C:\Users\skipi\AppData\Local\Temp\ccY7P3ru.s 			page 6


  50:../libs/libDaisy/../../libs/libDaisy/src/per/adc.h ****         SPEED_64CYCLES_5,
  51:../libs/libDaisy/../../libs/libDaisy/src/per/adc.h ****         SPEED_387CYCLES_5,
  52:../libs/libDaisy/../../libs/libDaisy/src/per/adc.h ****         SPEED_810CYCLES_5,
  53:../libs/libDaisy/../../libs/libDaisy/src/per/adc.h ****     };
  54:../libs/libDaisy/../../libs/libDaisy/src/per/adc.h **** 
  55:../libs/libDaisy/../../libs/libDaisy/src/per/adc.h ****     /** Initializes a single ADC pin as an ADC. 
  56:../libs/libDaisy/../../libs/libDaisy/src/per/adc.h ****     \param pin Pin to init.
  57:../libs/libDaisy/../../libs/libDaisy/src/per/adc.h ****     \param speed conversion speed for this pin defaults to 8.5 cycles
  58:../libs/libDaisy/../../libs/libDaisy/src/per/adc.h ****      */
  59:../libs/libDaisy/../../libs/libDaisy/src/per/adc.h ****     void InitSingle(Pin pin, ConversionSpeed speed = SPEED_8CYCLES_5);
  60:../libs/libDaisy/../../libs/libDaisy/src/per/adc.h **** 
  61:../libs/libDaisy/../../libs/libDaisy/src/per/adc.h ****     /** 
  62:../libs/libDaisy/../../libs/libDaisy/src/per/adc.h ****     Initializes a single ADC pin as a Multiplexed ADC.
  63:../libs/libDaisy/../../libs/libDaisy/src/per/adc.h ****     Requires a CD405X Multiplexer connected to the pin.
  64:../libs/libDaisy/../../libs/libDaisy/src/per/adc.h ****     You only need to supply the mux pins that are required,
  65:../libs/libDaisy/../../libs/libDaisy/src/per/adc.h ****     e.g. a 4052 mux would only require mux_0 and mux_1.
  66:../libs/libDaisy/../../libs/libDaisy/src/per/adc.h ****     Internal Callbacks handle the pin addressing.
  67:../libs/libDaisy/../../libs/libDaisy/src/per/adc.h ****     \param adc_pin &
  68:../libs/libDaisy/../../libs/libDaisy/src/per/adc.h ****     \param mux_channels must be 1-8
  69:../libs/libDaisy/../../libs/libDaisy/src/per/adc.h ****     \param mux_0 First mux pin
  70:../libs/libDaisy/../../libs/libDaisy/src/per/adc.h ****     \param mux_1 Second mux pin
  71:../libs/libDaisy/../../libs/libDaisy/src/per/adc.h ****     \param mux_2 Third mux pin
  72:../libs/libDaisy/../../libs/libDaisy/src/per/adc.h ****     \param speed conversion speed for this pin defaults to 8.5 cycles
  73:../libs/libDaisy/../../libs/libDaisy/src/per/adc.h ****     */
  74:../libs/libDaisy/../../libs/libDaisy/src/per/adc.h ****     void InitMux(Pin             adc_pin,
  75:../libs/libDaisy/../../libs/libDaisy/src/per/adc.h ****                  size_t          mux_channels,
  76:../libs/libDaisy/../../libs/libDaisy/src/per/adc.h ****                  Pin             mux_0,
  77:../libs/libDaisy/../../libs/libDaisy/src/per/adc.h ****                  Pin             mux_1 = Pin(PORTX, 0),
  78:../libs/libDaisy/../../libs/libDaisy/src/per/adc.h ****                  Pin             mux_2 = Pin(PORTX, 0),
  79:../libs/libDaisy/../../libs/libDaisy/src/per/adc.h ****                  ConversionSpeed speed = SPEED_8CYCLES_5);
  80:../libs/libDaisy/../../libs/libDaisy/src/per/adc.h **** 
  81:../libs/libDaisy/../../libs/libDaisy/src/per/adc.h ****     GPIO            pin_;                   /**< & */
  82:../libs/libDaisy/../../libs/libDaisy/src/per/adc.h ****     GPIO            mux_pin_[MUX_SEL_LAST]; /**< & */
  83:../libs/libDaisy/../../libs/libDaisy/src/per/adc.h ****     uint8_t         mux_channels_;          /**< & */
  84:../libs/libDaisy/../../libs/libDaisy/src/per/adc.h ****     ConversionSpeed speed_;
  85:../libs/libDaisy/../../libs/libDaisy/src/per/adc.h **** };
  86:../libs/libDaisy/../../libs/libDaisy/src/per/adc.h **** 
  87:../libs/libDaisy/../../libs/libDaisy/src/per/adc.h **** /**
  88:../libs/libDaisy/../../libs/libDaisy/src/per/adc.h ****    @brief Handler for analog to digital conversion
  89:../libs/libDaisy/../../libs/libDaisy/src/per/adc.h **** */
  90:../libs/libDaisy/../../libs/libDaisy/src/per/adc.h **** class AdcHandle
  91:../libs/libDaisy/../../libs/libDaisy/src/per/adc.h **** {
  92:../libs/libDaisy/../../libs/libDaisy/src/per/adc.h ****   public:
  93:../libs/libDaisy/../../libs/libDaisy/src/per/adc.h ****     /** Supported oversampling amounts */
  94:../libs/libDaisy/../../libs/libDaisy/src/per/adc.h ****     enum OverSampling
  95:../libs/libDaisy/../../libs/libDaisy/src/per/adc.h ****     {
  96:../libs/libDaisy/../../libs/libDaisy/src/per/adc.h ****         OVS_NONE, /**< & */
  97:../libs/libDaisy/../../libs/libDaisy/src/per/adc.h ****         OVS_4,    /**< & */
  98:../libs/libDaisy/../../libs/libDaisy/src/per/adc.h ****         OVS_8,    /**< & */
  99:../libs/libDaisy/../../libs/libDaisy/src/per/adc.h ****         OVS_16,   /**< & */
 100:../libs/libDaisy/../../libs/libDaisy/src/per/adc.h ****         OVS_32,   /**< & */
 101:../libs/libDaisy/../../libs/libDaisy/src/per/adc.h ****         OVS_64,   /**< & */
 102:../libs/libDaisy/../../libs/libDaisy/src/per/adc.h ****         OVS_128,  /**< & */
 103:../libs/libDaisy/../../libs/libDaisy/src/per/adc.h ****         OVS_256,  /**< & */
 104:../libs/libDaisy/../../libs/libDaisy/src/per/adc.h ****         OVS_512,  /**< & */
 105:../libs/libDaisy/../../libs/libDaisy/src/per/adc.h ****         OVS_1024, /**< & */
 106:../libs/libDaisy/../../libs/libDaisy/src/per/adc.h ****         OVS_LAST, /**< & */
ARM GAS  C:\Users\skipi\AppData\Local\Temp\ccY7P3ru.s 			page 7


 107:../libs/libDaisy/../../libs/libDaisy/src/per/adc.h ****     };
 108:../libs/libDaisy/../../libs/libDaisy/src/per/adc.h **** 
 109:../libs/libDaisy/../../libs/libDaisy/src/per/adc.h ****     AdcHandle() {}
 110:../libs/libDaisy/../../libs/libDaisy/src/per/adc.h ****     ~AdcHandle() {}
  56              		.loc 5 110 5 is_stmt 1 view .LVU7
  57              		.loc 5 110 5 is_stmt 0 view .LVU8
  58              	.LBE260:
  59              	.LBB261:
  60              	.LBI261:
  61              		.file 6 "../libs/libDaisy/../../libs/libDaisy/src/hid/audio.h"
   1:../libs/libDaisy/../../libs/libDaisy/src/hid/audio.h **** #ifndef DSY_AUDIO_H
   2:../libs/libDaisy/../../libs/libDaisy/src/hid/audio.h **** #define DSY_AUDIO_H /**< & */
   3:../libs/libDaisy/../../libs/libDaisy/src/hid/audio.h **** 
   4:../libs/libDaisy/../../libs/libDaisy/src/hid/audio.h **** #include "per/sai.h"
   5:../libs/libDaisy/../../libs/libDaisy/src/hid/audio.h **** 
   6:../libs/libDaisy/../../libs/libDaisy/src/hid/audio.h **** namespace daisy
   7:../libs/libDaisy/../../libs/libDaisy/src/hid/audio.h **** {
   8:../libs/libDaisy/../../libs/libDaisy/src/hid/audio.h **** /** @brief Audio Engine Handle
   9:../libs/libDaisy/../../libs/libDaisy/src/hid/audio.h ****  *  @ingroup audio 
  10:../libs/libDaisy/../../libs/libDaisy/src/hid/audio.h ****  *  @details This class allows for higher level access to an audio engine.
  11:../libs/libDaisy/../../libs/libDaisy/src/hid/audio.h ****  *           If you're using a SOM like the DaisySeed or DaisyPatchSM (or any 
  12:../libs/libDaisy/../../libs/libDaisy/src/hid/audio.h ****  *            board that includes one of those objects) then the intialization
  13:../libs/libDaisy/../../libs/libDaisy/src/hid/audio.h ****  *            is already taken  care of.
  14:../libs/libDaisy/../../libs/libDaisy/src/hid/audio.h ****  *           If you're setting up your own custom hardware, or need to make changes
  15:../libs/libDaisy/../../libs/libDaisy/src/hid/audio.h ****  *           you will have to take the following steps:
  16:../libs/libDaisy/../../libs/libDaisy/src/hid/audio.h ****  *             1. Create and Initialize an SaiHandle or two depending on your requirements
  17:../libs/libDaisy/../../libs/libDaisy/src/hid/audio.h ****  *             2. Initialize the Audio Handle with the desired settings and the Initialized SaiHand
  18:../libs/libDaisy/../../libs/libDaisy/src/hid/audio.h ****  *             3. If the connected codec requires special configuration or initialization, do so
  19:../libs/libDaisy/../../libs/libDaisy/src/hid/audio.h ****  *             4. Write a callback method using either the AudioCallback or the InterleavingAudioCa
  20:../libs/libDaisy/../../libs/libDaisy/src/hid/audio.h ****  *             5. Start the Audio using one of the StartAudio function
  21:../libs/libDaisy/../../libs/libDaisy/src/hid/audio.h ****  */
  22:../libs/libDaisy/../../libs/libDaisy/src/hid/audio.h **** class AudioHandle
  23:../libs/libDaisy/../../libs/libDaisy/src/hid/audio.h **** {
  24:../libs/libDaisy/../../libs/libDaisy/src/hid/audio.h ****   public:
  25:../libs/libDaisy/../../libs/libDaisy/src/hid/audio.h ****     /** Manually configurable details about the Audio Engine */
  26:../libs/libDaisy/../../libs/libDaisy/src/hid/audio.h ****     /** TODO: Figure out how to get samplerate in here. */
  27:../libs/libDaisy/../../libs/libDaisy/src/hid/audio.h ****     struct Config
  28:../libs/libDaisy/../../libs/libDaisy/src/hid/audio.h ****     {
  29:../libs/libDaisy/../../libs/libDaisy/src/hid/audio.h ****         /** number of samples to process per callback */
  30:../libs/libDaisy/../../libs/libDaisy/src/hid/audio.h ****         size_t blocksize = 48;
  31:../libs/libDaisy/../../libs/libDaisy/src/hid/audio.h **** 
  32:../libs/libDaisy/../../libs/libDaisy/src/hid/audio.h ****         /**< Sample rate of audio */
  33:../libs/libDaisy/../../libs/libDaisy/src/hid/audio.h ****         SaiHandle::Config::SampleRate samplerate
  34:../libs/libDaisy/../../libs/libDaisy/src/hid/audio.h ****             = SaiHandle::Config::SampleRate::SAI_48KHZ;
  35:../libs/libDaisy/../../libs/libDaisy/src/hid/audio.h **** 
  36:../libs/libDaisy/../../libs/libDaisy/src/hid/audio.h ****         /** factor for adjustment before and after callback for hardware that may have extra headro
  37:../libs/libDaisy/../../libs/libDaisy/src/hid/audio.h ****         float postgain = 1.f;
  38:../libs/libDaisy/../../libs/libDaisy/src/hid/audio.h **** 
  39:../libs/libDaisy/../../libs/libDaisy/src/hid/audio.h ****         /** factor for additional one-sided compensation to audio path for hardware that may
  40:../libs/libDaisy/../../libs/libDaisy/src/hid/audio.h ****          *  have unequal input/output ranges
  41:../libs/libDaisy/../../libs/libDaisy/src/hid/audio.h ****          */
  42:../libs/libDaisy/../../libs/libDaisy/src/hid/audio.h ****         float output_compensation = 1.f;
  43:../libs/libDaisy/../../libs/libDaisy/src/hid/audio.h ****     };
  44:../libs/libDaisy/../../libs/libDaisy/src/hid/audio.h **** 
  45:../libs/libDaisy/../../libs/libDaisy/src/hid/audio.h ****     enum class Result
  46:../libs/libDaisy/../../libs/libDaisy/src/hid/audio.h ****     {
  47:../libs/libDaisy/../../libs/libDaisy/src/hid/audio.h ****         OK,
ARM GAS  C:\Users\skipi\AppData\Local\Temp\ccY7P3ru.s 			page 8


  48:../libs/libDaisy/../../libs/libDaisy/src/hid/audio.h ****         ERR,
  49:../libs/libDaisy/../../libs/libDaisy/src/hid/audio.h ****     };
  50:../libs/libDaisy/../../libs/libDaisy/src/hid/audio.h **** 
  51:../libs/libDaisy/../../libs/libDaisy/src/hid/audio.h ****     /** Non-Interleaving input buffer
  52:../libs/libDaisy/../../libs/libDaisy/src/hid/audio.h ****      * Buffer arranged by float[chn][sample] 
  53:../libs/libDaisy/../../libs/libDaisy/src/hid/audio.h ****      * const so that the user can't modify the input
  54:../libs/libDaisy/../../libs/libDaisy/src/hid/audio.h ****      */
  55:../libs/libDaisy/../../libs/libDaisy/src/hid/audio.h ****     typedef const float* const* InputBuffer;
  56:../libs/libDaisy/../../libs/libDaisy/src/hid/audio.h **** 
  57:../libs/libDaisy/../../libs/libDaisy/src/hid/audio.h ****     /** Non-Interleaving output buffer
  58:../libs/libDaisy/../../libs/libDaisy/src/hid/audio.h ****      * Arranged by float[chn][sample] 
  59:../libs/libDaisy/../../libs/libDaisy/src/hid/audio.h ****      */
  60:../libs/libDaisy/../../libs/libDaisy/src/hid/audio.h ****     typedef float** OutputBuffer;
  61:../libs/libDaisy/../../libs/libDaisy/src/hid/audio.h **** 
  62:../libs/libDaisy/../../libs/libDaisy/src/hid/audio.h ****     /** Type for a Non-Interleaving audio callback 
  63:../libs/libDaisy/../../libs/libDaisy/src/hid/audio.h ****      * Non-Interleaving audio callbacks in daisy will be of this type
  64:../libs/libDaisy/../../libs/libDaisy/src/hid/audio.h ****      */
  65:../libs/libDaisy/../../libs/libDaisy/src/hid/audio.h ****     typedef void (*AudioCallback)(InputBuffer  in,
  66:../libs/libDaisy/../../libs/libDaisy/src/hid/audio.h ****                                   OutputBuffer out,
  67:../libs/libDaisy/../../libs/libDaisy/src/hid/audio.h ****                                   size_t       size);
  68:../libs/libDaisy/../../libs/libDaisy/src/hid/audio.h **** 
  69:../libs/libDaisy/../../libs/libDaisy/src/hid/audio.h ****     /** Interleaving Input buffer
  70:../libs/libDaisy/../../libs/libDaisy/src/hid/audio.h ****      ** audio is prepared as { L0, R0, L1, R1, . . . LN, RN }]
  71:../libs/libDaisy/../../libs/libDaisy/src/hid/audio.h ****      ** this is const, as the user shouldn't modify it
  72:../libs/libDaisy/../../libs/libDaisy/src/hid/audio.h ****     */
  73:../libs/libDaisy/../../libs/libDaisy/src/hid/audio.h ****     typedef const float* InterleavingInputBuffer;
  74:../libs/libDaisy/../../libs/libDaisy/src/hid/audio.h **** 
  75:../libs/libDaisy/../../libs/libDaisy/src/hid/audio.h ****     /** Interleaving Output buffer 
  76:../libs/libDaisy/../../libs/libDaisy/src/hid/audio.h ****      ** audio is prepared as { L0, R0, L1, R1, . . . LN, RN }
  77:../libs/libDaisy/../../libs/libDaisy/src/hid/audio.h ****     */
  78:../libs/libDaisy/../../libs/libDaisy/src/hid/audio.h ****     typedef float* InterleavingOutputBuffer;
  79:../libs/libDaisy/../../libs/libDaisy/src/hid/audio.h **** 
  80:../libs/libDaisy/../../libs/libDaisy/src/hid/audio.h ****     /** Interleaving Audio Callback 
  81:../libs/libDaisy/../../libs/libDaisy/src/hid/audio.h ****      * Interleaving audio callbacks in daisy must be of this type
  82:../libs/libDaisy/../../libs/libDaisy/src/hid/audio.h ****      */
  83:../libs/libDaisy/../../libs/libDaisy/src/hid/audio.h ****     typedef void (*InterleavingAudioCallback)(InterleavingInputBuffer  in,
  84:../libs/libDaisy/../../libs/libDaisy/src/hid/audio.h ****                                               InterleavingOutputBuffer out,
  85:../libs/libDaisy/../../libs/libDaisy/src/hid/audio.h ****                                               size_t                   size);
  86:../libs/libDaisy/../../libs/libDaisy/src/hid/audio.h **** 
  87:../libs/libDaisy/../../libs/libDaisy/src/hid/audio.h ****     AudioHandle() : pimpl_(nullptr) {}
  88:../libs/libDaisy/../../libs/libDaisy/src/hid/audio.h ****     ~AudioHandle() {}
  62              		.loc 6 88 5 is_stmt 1 view .LVU9
  63              		.loc 6 88 5 is_stmt 0 view .LVU10
  64              	.LBE261:
  65              		.loc 1 22 19 view .LVU11
  66 0000 7047     		bx	lr
  67              		.cfi_endproc
  68              	.LFE2671:
  70              		.weak	_ZN5daisy9DaisySeedD1Ev
  71              		.thumb_set _ZN5daisy9DaisySeedD1Ev,_ZN5daisy9DaisySeedD2Ev
  72 0002 00BF     		.section	.text._ZN7daisysp4AdsrD2Ev,"axG",%progbits,_ZN7daisysp4AdsrD5Ev,comdat
  73              		.align	1
  74              		.p2align 2,,3
  75              		.weak	_ZN7daisysp4AdsrD2Ev
  76              		.syntax unified
  77              		.thumb
  78              		.thumb_func
ARM GAS  C:\Users\skipi\AppData\Local\Temp\ccY7P3ru.s 			page 9


  79              		.fpu fpv5-d16
  81              	_ZN7daisysp4AdsrD2Ev:
  82              	.LVL1:
  83              	.LFB2694:
  84              		.file 7 "../libs/libDaisy/../../libs/DaisySP/Source/Control/adsr.h"
   1:../libs/libDaisy/../../libs/DaisySP/Source/Control/adsr.h **** /*
   2:../libs/libDaisy/../../libs/DaisySP/Source/Control/adsr.h **** Copyright (c) 2020 Electrosmith, Corp, Paul Batchelor
   3:../libs/libDaisy/../../libs/DaisySP/Source/Control/adsr.h **** 
   4:../libs/libDaisy/../../libs/DaisySP/Source/Control/adsr.h **** Use of this source code is governed by an MIT-style
   5:../libs/libDaisy/../../libs/DaisySP/Source/Control/adsr.h **** license that can be found in the LICENSE file or at
   6:../libs/libDaisy/../../libs/DaisySP/Source/Control/adsr.h **** https://opensource.org/licenses/MIT.
   7:../libs/libDaisy/../../libs/DaisySP/Source/Control/adsr.h **** */
   8:../libs/libDaisy/../../libs/DaisySP/Source/Control/adsr.h **** 
   9:../libs/libDaisy/../../libs/DaisySP/Source/Control/adsr.h **** #pragma once
  10:../libs/libDaisy/../../libs/DaisySP/Source/Control/adsr.h **** #ifndef DSY_ADSR_H
  11:../libs/libDaisy/../../libs/DaisySP/Source/Control/adsr.h **** #define DSY_ADSR_H
  12:../libs/libDaisy/../../libs/DaisySP/Source/Control/adsr.h **** 
  13:../libs/libDaisy/../../libs/DaisySP/Source/Control/adsr.h **** #include <stdint.h>
  14:../libs/libDaisy/../../libs/DaisySP/Source/Control/adsr.h **** #ifdef __cplusplus
  15:../libs/libDaisy/../../libs/DaisySP/Source/Control/adsr.h **** 
  16:../libs/libDaisy/../../libs/DaisySP/Source/Control/adsr.h **** namespace daisysp
  17:../libs/libDaisy/../../libs/DaisySP/Source/Control/adsr.h **** {
  18:../libs/libDaisy/../../libs/DaisySP/Source/Control/adsr.h **** /** Distinct stages that the phase of the envelope can be located in.
  19:../libs/libDaisy/../../libs/DaisySP/Source/Control/adsr.h **** - IDLE   = located at phase location 0, and not currently running
  20:../libs/libDaisy/../../libs/DaisySP/Source/Control/adsr.h **** - ATTACK  = First segment of envelope where phase moves from 0 to 1
  21:../libs/libDaisy/../../libs/DaisySP/Source/Control/adsr.h **** - DECAY   = Second segment of envelope where phase moves from 1 to SUSTAIN value
  22:../libs/libDaisy/../../libs/DaisySP/Source/Control/adsr.h **** - RELEASE =     Fourth segment of envelop where phase moves from SUSTAIN to 0
  23:../libs/libDaisy/../../libs/DaisySP/Source/Control/adsr.h **** */
  24:../libs/libDaisy/../../libs/DaisySP/Source/Control/adsr.h **** enum
  25:../libs/libDaisy/../../libs/DaisySP/Source/Control/adsr.h **** {
  26:../libs/libDaisy/../../libs/DaisySP/Source/Control/adsr.h ****     ADSR_SEG_IDLE    = 0,
  27:../libs/libDaisy/../../libs/DaisySP/Source/Control/adsr.h ****     ADSR_SEG_ATTACK  = 1,
  28:../libs/libDaisy/../../libs/DaisySP/Source/Control/adsr.h ****     ADSR_SEG_DECAY   = 2,
  29:../libs/libDaisy/../../libs/DaisySP/Source/Control/adsr.h ****     ADSR_SEG_RELEASE = 4
  30:../libs/libDaisy/../../libs/DaisySP/Source/Control/adsr.h **** };
  31:../libs/libDaisy/../../libs/DaisySP/Source/Control/adsr.h **** 
  32:../libs/libDaisy/../../libs/DaisySP/Source/Control/adsr.h **** 
  33:../libs/libDaisy/../../libs/DaisySP/Source/Control/adsr.h **** /** adsr envelope module
  34:../libs/libDaisy/../../libs/DaisySP/Source/Control/adsr.h **** 
  35:../libs/libDaisy/../../libs/DaisySP/Source/Control/adsr.h **** Original author(s) : Paul Batchelor
  36:../libs/libDaisy/../../libs/DaisySP/Source/Control/adsr.h **** 
  37:../libs/libDaisy/../../libs/DaisySP/Source/Control/adsr.h **** Ported from Soundpipe by Ben Sergentanis, May 2020
  38:../libs/libDaisy/../../libs/DaisySP/Source/Control/adsr.h ****  
  39:../libs/libDaisy/../../libs/DaisySP/Source/Control/adsr.h **** Remake by Steffan DIedrichsen, May 2021
  40:../libs/libDaisy/../../libs/DaisySP/Source/Control/adsr.h **** */
  41:../libs/libDaisy/../../libs/DaisySP/Source/Control/adsr.h **** class Adsr
  42:../libs/libDaisy/../../libs/DaisySP/Source/Control/adsr.h **** {
  43:../libs/libDaisy/../../libs/DaisySP/Source/Control/adsr.h ****   public:
  44:../libs/libDaisy/../../libs/DaisySP/Source/Control/adsr.h ****     Adsr() {}
  45:../libs/libDaisy/../../libs/DaisySP/Source/Control/adsr.h ****     ~Adsr() {}
  85              		.loc 7 45 5 is_stmt 1 view -0
  86              		.cfi_startproc
  87              		@ args = 0, pretend = 0, frame = 0
  88              		@ frame_needed = 0, uses_anonymous_args = 0
  89              		@ link register save eliminated.
  90              		.loc 7 45 14 is_stmt 0 view .LVU13
  91 0000 7047     		bx	lr
ARM GAS  C:\Users\skipi\AppData\Local\Temp\ccY7P3ru.s 			page 10


  92              		.cfi_endproc
  93              	.LFE2694:
  95              		.weak	_ZN7daisysp4AdsrD1Ev
  96              		.thumb_set _ZN7daisysp4AdsrD1Ev,_ZN7daisysp4AdsrD2Ev
  97              		.section	.text._ZN7daisysp10OscillatorD2Ev,"axG",%progbits,_ZN7daisysp10OscillatorD5Ev,comdat
  98              		.align	1
  99              		.p2align 2,,3
 100              		.weak	_ZN7daisysp10OscillatorD2Ev
 101              		.syntax unified
 102              		.thumb
 103              		.thumb_func
 104              		.fpu fpv5-d16
 106              	_ZN7daisysp10OscillatorD2Ev:
 107              	.LVL2:
 108              	.LFB4356:
 109              		.file 8 "../libs/DaisySP/Source/Synthesis/oscillator.h"
   1:../libs/DaisySP/Source/Synthesis/oscillator.h **** /*
   2:../libs/DaisySP/Source/Synthesis/oscillator.h **** Copyright (c) 2020 Electrosmith, Corp
   3:../libs/DaisySP/Source/Synthesis/oscillator.h **** 
   4:../libs/DaisySP/Source/Synthesis/oscillator.h **** Use of this source code is governed by an MIT-style
   5:../libs/DaisySP/Source/Synthesis/oscillator.h **** license that can be found in the LICENSE file or at
   6:../libs/DaisySP/Source/Synthesis/oscillator.h **** https://opensource.org/licenses/MIT.
   7:../libs/DaisySP/Source/Synthesis/oscillator.h **** */
   8:../libs/DaisySP/Source/Synthesis/oscillator.h **** 
   9:../libs/DaisySP/Source/Synthesis/oscillator.h **** #pragma once
  10:../libs/DaisySP/Source/Synthesis/oscillator.h **** #ifndef DSY_OSCILLATOR_H
  11:../libs/DaisySP/Source/Synthesis/oscillator.h **** #define DSY_OSCILLATOR_H
  12:../libs/DaisySP/Source/Synthesis/oscillator.h **** #include <stdint.h>
  13:../libs/DaisySP/Source/Synthesis/oscillator.h **** #include "Utility/dsp.h"
  14:../libs/DaisySP/Source/Synthesis/oscillator.h **** #ifdef __cplusplus
  15:../libs/DaisySP/Source/Synthesis/oscillator.h **** 
  16:../libs/DaisySP/Source/Synthesis/oscillator.h **** namespace daisysp
  17:../libs/DaisySP/Source/Synthesis/oscillator.h **** {
  18:../libs/DaisySP/Source/Synthesis/oscillator.h **** /** Synthesis of several waveforms, including polyBLEP bandlimited waveforms.
  19:../libs/DaisySP/Source/Synthesis/oscillator.h **** */
  20:../libs/DaisySP/Source/Synthesis/oscillator.h **** class Oscillator
  21:../libs/DaisySP/Source/Synthesis/oscillator.h **** {
  22:../libs/DaisySP/Source/Synthesis/oscillator.h ****   public:
  23:../libs/DaisySP/Source/Synthesis/oscillator.h ****     Oscillator() {}
  24:../libs/DaisySP/Source/Synthesis/oscillator.h ****     ~Oscillator() {}
 110              		.loc 8 24 5 is_stmt 1 view -0
 111              		.cfi_startproc
 112              		@ args = 0, pretend = 0, frame = 0
 113              		@ frame_needed = 0, uses_anonymous_args = 0
 114              		@ link register save eliminated.
 115              		.loc 8 24 20 is_stmt 0 view .LVU15
 116 0000 7047     		bx	lr
 117              		.cfi_endproc
 118              	.LFE4356:
 120              		.weak	_ZN7daisysp10OscillatorD1Ev
 121              		.thumb_set _ZN7daisysp10OscillatorD1Ev,_ZN7daisysp10OscillatorD2Ev
 122              		.section	.text._ZN7daisysp7OnePoleD2Ev,"axG",%progbits,_ZN7daisysp7OnePoleD5Ev,comdat
 123              		.align	1
 124              		.p2align 2,,3
 125              		.weak	_ZN7daisysp7OnePoleD2Ev
 126              		.syntax unified
 127              		.thumb
ARM GAS  C:\Users\skipi\AppData\Local\Temp\ccY7P3ru.s 			page 11


 128              		.thumb_func
 129              		.fpu fpv5-d16
 131              	_ZN7daisysp7OnePoleD2Ev:
 132              	.LVL3:
 133              	.LFB4611:
 134              		.file 9 "../libs/libDaisy/../../libs/DaisySP/Source/Filters/onepole.h"
   1:../libs/libDaisy/../../libs/DaisySP/Source/Filters/onepole.h **** /*
   2:../libs/libDaisy/../../libs/DaisySP/Source/Filters/onepole.h **** Copyright (c) 2020 Electrosmith, Corp, Emilie Gillet
   3:../libs/libDaisy/../../libs/DaisySP/Source/Filters/onepole.h **** 
   4:../libs/libDaisy/../../libs/DaisySP/Source/Filters/onepole.h **** Use of this source code is governed by an MIT-style
   5:../libs/libDaisy/../../libs/DaisySP/Source/Filters/onepole.h **** license that can be found in the LICENSE file or at
   6:../libs/libDaisy/../../libs/DaisySP/Source/Filters/onepole.h **** https://opensource.org/licenses/MIT.
   7:../libs/libDaisy/../../libs/DaisySP/Source/Filters/onepole.h **** */
   8:../libs/libDaisy/../../libs/DaisySP/Source/Filters/onepole.h **** 
   9:../libs/libDaisy/../../libs/DaisySP/Source/Filters/onepole.h **** #ifndef DSY_ONEPOLE_H
  10:../libs/libDaisy/../../libs/DaisySP/Source/Filters/onepole.h **** #define DSY_ONEPOLE_H
  11:../libs/libDaisy/../../libs/DaisySP/Source/Filters/onepole.h **** 
  12:../libs/libDaisy/../../libs/DaisySP/Source/Filters/onepole.h **** #include "Utility/dsp.h"
  13:../libs/libDaisy/../../libs/DaisySP/Source/Filters/onepole.h **** #include <cmath>
  14:../libs/libDaisy/../../libs/DaisySP/Source/Filters/onepole.h **** #include <algorithm>
  15:../libs/libDaisy/../../libs/DaisySP/Source/Filters/onepole.h **** 
  16:../libs/libDaisy/../../libs/DaisySP/Source/Filters/onepole.h **** namespace daisysp
  17:../libs/libDaisy/../../libs/DaisySP/Source/Filters/onepole.h **** {
  18:../libs/libDaisy/../../libs/DaisySP/Source/Filters/onepole.h **** /**         
  19:../libs/libDaisy/../../libs/DaisySP/Source/Filters/onepole.h ****     @brief One Pole Lowpass / Highpass Filter
  20:../libs/libDaisy/../../libs/DaisySP/Source/Filters/onepole.h ****     @author beserge
  21:../libs/libDaisy/../../libs/DaisySP/Source/Filters/onepole.h ****     @date Dec 2023 
  22:../libs/libDaisy/../../libs/DaisySP/Source/Filters/onepole.h ****     Ported from pichenettes/stmlib/dsp/filter.h \n 
  23:../libs/libDaisy/../../libs/DaisySP/Source/Filters/onepole.h ****     \n to an independent module. \n
  24:../libs/libDaisy/../../libs/DaisySP/Source/Filters/onepole.h ****     Original code written by Emilie Gillet. \n
  25:../libs/libDaisy/../../libs/DaisySP/Source/Filters/onepole.h **** */
  26:../libs/libDaisy/../../libs/DaisySP/Source/Filters/onepole.h **** class OnePole
  27:../libs/libDaisy/../../libs/DaisySP/Source/Filters/onepole.h **** {
  28:../libs/libDaisy/../../libs/DaisySP/Source/Filters/onepole.h ****   public:
  29:../libs/libDaisy/../../libs/DaisySP/Source/Filters/onepole.h ****     OnePole() {}
  30:../libs/libDaisy/../../libs/DaisySP/Source/Filters/onepole.h ****     ~OnePole() {}
 135              		.loc 9 30 5 is_stmt 1 view -0
 136              		.cfi_startproc
 137              		@ args = 0, pretend = 0, frame = 0
 138              		@ frame_needed = 0, uses_anonymous_args = 0
 139              		@ link register save eliminated.
 140              		.loc 9 30 17 is_stmt 0 view .LVU17
 141 0000 7047     		bx	lr
 142              		.cfi_endproc
 143              	.LFE4611:
 145              		.weak	_ZN7daisysp7OnePoleD1Ev
 146              		.thumb_set _ZN7daisysp7OnePoleD1Ev,_ZN7daisysp7OnePoleD2Ev
 147              		.section	.text._ZL13AudioCallbackPKfPfj,"ax",%progbits
 148              		.align	1
 149              		.p2align 2,,3
 150              		.syntax unified
 151              		.thumb
 152              		.thumb_func
 153              		.fpu fpv5-d16
 155              	_ZL13AudioCallbackPKfPfj:
 156              	.LVL4:
 157              	.LFB4850:
ARM GAS  C:\Users\skipi\AppData\Local\Temp\ccY7P3ru.s 			page 12


 158              		.file 10 "PSP.cpp"
   1:PSP.cpp       **** #include "../../libs/libDaisy/src/daisy_seed.h"
   2:PSP.cpp       **** #include "../../libs/DaisySP/Source/daisysp.h"
   3:PSP.cpp       **** #include "../../Classes/Effects/AnalogDelay/src/AnalogDelay.h"
   4:PSP.cpp       **** #include "classes/ControlPanel.h"
   5:PSP.cpp       **** #define DEBUG_MODE
   6:PSP.cpp       **** 
   7:PSP.cpp       **** using namespace daisy;
   8:PSP.cpp       **** using namespace daisysp;
   9:PSP.cpp       **** 
  10:PSP.cpp       **** DaisySeed hw;
  11:PSP.cpp       **** 
  12:PSP.cpp       **** static ControlPanel control;
  13:PSP.cpp       **** static Oscillator osc;
  14:PSP.cpp       **** static Adsr env;
  15:PSP.cpp       **** static OnePole SmoothFreq;
  16:PSP.cpp       **** 
  17:PSP.cpp       **** 
  18:PSP.cpp       **** 
  19:PSP.cpp       **** 
  20:PSP.cpp       **** // --- AUDIO CALLBACK (High Priority) ---
  21:PSP.cpp       **** static void AudioCallback(AudioHandle::InterleavingInputBuffer in, AudioHandle::InterleavingOutputB
  22:PSP.cpp       **** {
 159              		.loc 10 22 1 is_stmt 1 view -0
 160              		.cfi_startproc
 161              		@ args = 0, pretend = 0, frame = 0
 162              		@ frame_needed = 0, uses_anonymous_args = 0
  23:PSP.cpp       ****     float envOut, oscOut;
 163              		.loc 10 23 5 view .LVU19
  24:PSP.cpp       ****     for (size_t i = 0; i < size; i += 2)
 164              		.loc 10 24 5 view .LVU20
 165              	.LBB274:
 166              		.loc 10 24 26 view .LVU21
 167 0000 002A     		cmp	r2, #0
 168 0002 49D0     		beq	.L19
 169 0004 013A     		subs	r2, r2, #1
 170              	.LVL5:
 171              		.loc 10 24 26 is_stmt 0 view .LVU22
 172              	.LBE274:
  22:PSP.cpp       ****     float envOut, oscOut;
 173              		.loc 10 22 1 view .LVU23
 174 0006 2DE9F047 		push	{r4, r5, r6, r7, r8, r9, r10, lr}
 175              		.cfi_def_cfa_offset 32
 176              		.cfi_offset 4, -32
 177              		.cfi_offset 5, -28
 178              		.cfi_offset 6, -24
 179              		.cfi_offset 7, -20
 180              		.cfi_offset 8, -16
 181              		.cfi_offset 9, -12
 182              		.cfi_offset 10, -8
 183              		.cfi_offset 14, -4
 184 000a DFF8A4A0 		ldr	r10, .L22+20
 185 000e 0D46     		mov	r5, r1
 186              	.LBB297:
 187              		.loc 10 24 26 view .LVU24
 188 0010 0027     		movs	r7, #0
 189 0012 4FEA5208 		lsr	r8, r2, #1
ARM GAS  C:\Users\skipi\AppData\Local\Temp\ccY7P3ru.s 			page 13


 190 0016 214C     		ldr	r4, .L22
 191 0018 AAF67419 		subw	r9, r10, #2420
 192 001c 204E     		ldr	r6, .L22+4
 193              	.LVL6:
 194              	.L9:
 195              	.LBB275:
  25:PSP.cpp       ****     {
  26:PSP.cpp       ****         // 1. FREQUENCY CONTROL
  27:PSP.cpp       ****         float smoothedFreq = SmoothFreq.Process(control.GetTargetFreq());
 196              		.loc 10 27 9 is_stmt 1 view .LVU25
 197              	.LBB276:
 198              	.LBI276:
 199              		.file 11 "classes/ControlPanel.h"
   1:classes/ControlPanel.h **** #pragma once
   2:classes/ControlPanel.h **** #include "daisy_seed.h"
   3:classes/ControlPanel.h **** #include "PlantConditioner.h"
   4:classes/ControlPanel.h **** #include <cstdint>
   5:classes/ControlPanel.h **** #include <cmath>
   6:classes/ControlPanel.h **** 
   7:classes/ControlPanel.h **** 
   8:classes/ControlPanel.h **** #ifndef _BV
   9:classes/ControlPanel.h **** #define _BV(bit) (1 << (bit))
  10:classes/ControlPanel.h **** #endif
  11:classes/ControlPanel.h **** 
  12:classes/ControlPanel.h **** 
  13:classes/ControlPanel.h **** class ControlPanel {
  14:classes/ControlPanel.h **** public:
  15:classes/ControlPanel.h ****     
  16:classes/ControlPanel.h ****     void Init(daisy::DaisySeed* hw);
  17:classes/ControlPanel.h **** 
  18:classes/ControlPanel.h ****     // Gestisce la logica dei menu e dei sensori (da chiamare nel loop @ 100-200Hz)
  19:classes/ControlPanel.h ****     void Update();
  20:classes/ControlPanel.h **** 
  21:classes/ControlPanel.h ****     /*
  22:classes/ControlPanel.h ****         * \return Target freqeuncy in Hz, calculated based on the current sensor readings and sensi
  23:classes/ControlPanel.h ****     */
  24:classes/ControlPanel.h ****     float GetTargetFreq() const { return _target_freq; }
 200              		.loc 11 24 11 view .LVU26
 201              	.LBB277:
 202              		.loc 11 24 35 view .LVU27
 203              		.loc 11 24 42 is_stmt 0 view .LVU28
 204 001e DAED007A 		vldr.32	s15, [r10]
 205              	.LVL7:
 206              		.loc 11 24 42 view .LVU29
 207              	.LBE277:
 208              	.LBE276:
 209              	.LBB278:
 210              	.LBI278:
  31:../libs/libDaisy/../../libs/DaisySP/Source/Filters/onepole.h **** 
  32:../libs/libDaisy/../../libs/DaisySP/Source/Filters/onepole.h ****     /**
  33:../libs/libDaisy/../../libs/DaisySP/Source/Filters/onepole.h ****      * @brief Operational modes of the filter
  34:../libs/libDaisy/../../libs/DaisySP/Source/Filters/onepole.h ****      * - LOW_PASS = cuts out high frequency sound, lets low frequency sound pass through
  35:../libs/libDaisy/../../libs/DaisySP/Source/Filters/onepole.h ****      * - HIGH_PASS = cuts out low frequency sound, lets high frequency sound pass through
  36:../libs/libDaisy/../../libs/DaisySP/Source/Filters/onepole.h ****      */
  37:../libs/libDaisy/../../libs/DaisySP/Source/Filters/onepole.h ****     enum FilterMode
  38:../libs/libDaisy/../../libs/DaisySP/Source/Filters/onepole.h ****     {
  39:../libs/libDaisy/../../libs/DaisySP/Source/Filters/onepole.h ****         FILTER_MODE_LOW_PASS,
ARM GAS  C:\Users\skipi\AppData\Local\Temp\ccY7P3ru.s 			page 14


  40:../libs/libDaisy/../../libs/DaisySP/Source/Filters/onepole.h ****         FILTER_MODE_HIGH_PASS
  41:../libs/libDaisy/../../libs/DaisySP/Source/Filters/onepole.h ****     };
  42:../libs/libDaisy/../../libs/DaisySP/Source/Filters/onepole.h **** 
  43:../libs/libDaisy/../../libs/DaisySP/Source/Filters/onepole.h ****     /** Initializes the module */
  44:../libs/libDaisy/../../libs/DaisySP/Source/Filters/onepole.h ****     void Init()
  45:../libs/libDaisy/../../libs/DaisySP/Source/Filters/onepole.h ****     {
  46:../libs/libDaisy/../../libs/DaisySP/Source/Filters/onepole.h ****         Reset();
  47:../libs/libDaisy/../../libs/DaisySP/Source/Filters/onepole.h ****         mode_ = FILTER_MODE_LOW_PASS;
  48:../libs/libDaisy/../../libs/DaisySP/Source/Filters/onepole.h ****     }
  49:../libs/libDaisy/../../libs/DaisySP/Source/Filters/onepole.h **** 
  50:../libs/libDaisy/../../libs/DaisySP/Source/Filters/onepole.h ****     /** Reset the module to its default state */
  51:../libs/libDaisy/../../libs/DaisySP/Source/Filters/onepole.h ****     inline void Reset() { state_ = 0.0f; }
  52:../libs/libDaisy/../../libs/DaisySP/Source/Filters/onepole.h **** 
  53:../libs/libDaisy/../../libs/DaisySP/Source/Filters/onepole.h ****     /** Set the filter cutoff frequency
  54:../libs/libDaisy/../../libs/DaisySP/Source/Filters/onepole.h ****     *   \param freq Cutoff frequency. Valid range from 0 to .497f
  55:../libs/libDaisy/../../libs/DaisySP/Source/Filters/onepole.h ****     */
  56:../libs/libDaisy/../../libs/DaisySP/Source/Filters/onepole.h ****     inline void SetFrequency(float freq)
  57:../libs/libDaisy/../../libs/DaisySP/Source/Filters/onepole.h ****     {
  58:../libs/libDaisy/../../libs/DaisySP/Source/Filters/onepole.h ****         // Clip coefficient to about 100.
  59:../libs/libDaisy/../../libs/DaisySP/Source/Filters/onepole.h ****         freq = freq < 0.497f ? freq : 0.497f;
  60:../libs/libDaisy/../../libs/DaisySP/Source/Filters/onepole.h **** 
  61:../libs/libDaisy/../../libs/DaisySP/Source/Filters/onepole.h ****         g_  = tanf(PI_F * freq);
  62:../libs/libDaisy/../../libs/DaisySP/Source/Filters/onepole.h ****         gi_ = 1.f / (1.f + g_);
  63:../libs/libDaisy/../../libs/DaisySP/Source/Filters/onepole.h ****     }
  64:../libs/libDaisy/../../libs/DaisySP/Source/Filters/onepole.h **** 
  65:../libs/libDaisy/../../libs/DaisySP/Source/Filters/onepole.h ****     /** Set the filter mode
  66:../libs/libDaisy/../../libs/DaisySP/Source/Filters/onepole.h ****     *   \param mode Filter mode. Can be lowpass or highpass
  67:../libs/libDaisy/../../libs/DaisySP/Source/Filters/onepole.h ****     */
  68:../libs/libDaisy/../../libs/DaisySP/Source/Filters/onepole.h ****     inline void SetFilterMode(FilterMode mode) { mode_ = mode; }
  69:../libs/libDaisy/../../libs/DaisySP/Source/Filters/onepole.h **** 
  70:../libs/libDaisy/../../libs/DaisySP/Source/Filters/onepole.h ****     /** Process audio through the filter
  71:../libs/libDaisy/../../libs/DaisySP/Source/Filters/onepole.h ****     *   \param in The next sample to be processed
  72:../libs/libDaisy/../../libs/DaisySP/Source/Filters/onepole.h ****     */
  73:../libs/libDaisy/../../libs/DaisySP/Source/Filters/onepole.h ****     inline float Process(float in)
 211              		.loc 9 73 18 is_stmt 1 view .LVU30
 212              	.LBB279:
  74:../libs/libDaisy/../../libs/DaisySP/Source/Filters/onepole.h ****     {
  75:../libs/libDaisy/../../libs/DaisySP/Source/Filters/onepole.h ****         float lp;
 213              		.loc 9 75 9 view .LVU31
  76:../libs/libDaisy/../../libs/DaisySP/Source/Filters/onepole.h ****         lp     = (g_ * in + state_) * gi_;
 214              		.loc 9 76 9 view .LVU32
 215              		.loc 9 76 19 is_stmt 0 view .LVU33
 216 0022 94ED007A 		vldr.32	s14, [r4]
 217              		.loc 9 76 27 view .LVU34
 218 0026 94ED020A 		vldr.32	s0, [r4, #8]
 219              		.loc 9 76 16 view .LVU35
 220 002a 94ED016A 		vldr.32	s12, [r4, #4]
 221              		.loc 9 76 27 view .LVU36
 222 002e A7EE870A 		vfma.f32	s0, s15, s14
  77:../libs/libDaisy/../../libs/DaisySP/Source/Filters/onepole.h ****         state_ = g_ * (in - lp) + lp;
  78:../libs/libDaisy/../../libs/DaisySP/Source/Filters/onepole.h **** 
  79:../libs/libDaisy/../../libs/DaisySP/Source/Filters/onepole.h ****         switch(mode_)
 223              		.loc 9 79 16 view .LVU37
 224 0032 237B     		ldrb	r3, [r4, #12]	@ zero_extendqisi2
 225              	.LBE279:
 226              	.LBE278:
 227              	.LBB281:
ARM GAS  C:\Users\skipi\AppData\Local\Temp\ccY7P3ru.s 			page 15


 228              	.LBB282:
  25:../libs/DaisySP/Source/Synthesis/oscillator.h ****     /** Choices for output waveforms, POLYBLEP are appropriately labeled. Others are naive forms.
  26:../libs/DaisySP/Source/Synthesis/oscillator.h ****     */
  27:../libs/DaisySP/Source/Synthesis/oscillator.h ****     enum
  28:../libs/DaisySP/Source/Synthesis/oscillator.h ****     {
  29:../libs/DaisySP/Source/Synthesis/oscillator.h ****         WAVE_SIN,
  30:../libs/DaisySP/Source/Synthesis/oscillator.h ****         WAVE_TRI,
  31:../libs/DaisySP/Source/Synthesis/oscillator.h ****         WAVE_SAW,
  32:../libs/DaisySP/Source/Synthesis/oscillator.h ****         WAVE_RAMP,
  33:../libs/DaisySP/Source/Synthesis/oscillator.h ****         WAVE_SQUARE,
  34:../libs/DaisySP/Source/Synthesis/oscillator.h ****         WAVE_POLYBLEP_TRI,
  35:../libs/DaisySP/Source/Synthesis/oscillator.h ****         WAVE_POLYBLEP_SAW,
  36:../libs/DaisySP/Source/Synthesis/oscillator.h ****         WAVE_POLYBLEP_SQUARE,
  37:../libs/DaisySP/Source/Synthesis/oscillator.h ****         WAVE_LAST,
  38:../libs/DaisySP/Source/Synthesis/oscillator.h ****     };
  39:../libs/DaisySP/Source/Synthesis/oscillator.h **** 
  40:../libs/DaisySP/Source/Synthesis/oscillator.h **** 
  41:../libs/DaisySP/Source/Synthesis/oscillator.h ****     /** Initializes the Oscillator
  42:../libs/DaisySP/Source/Synthesis/oscillator.h **** 
  43:../libs/DaisySP/Source/Synthesis/oscillator.h ****         \param sample_rate - sample rate of the audio engine being run, and the frequency that the 
  44:../libs/DaisySP/Source/Synthesis/oscillator.h **** 
  45:../libs/DaisySP/Source/Synthesis/oscillator.h ****         Defaults:
  46:../libs/DaisySP/Source/Synthesis/oscillator.h ****         - freq_ = 100 Hz
  47:../libs/DaisySP/Source/Synthesis/oscillator.h ****         - amp_ = 0.5
  48:../libs/DaisySP/Source/Synthesis/oscillator.h ****         - waveform_ = sine wave.
  49:../libs/DaisySP/Source/Synthesis/oscillator.h ****     */
  50:../libs/DaisySP/Source/Synthesis/oscillator.h ****     void Init(float sample_rate)
  51:../libs/DaisySP/Source/Synthesis/oscillator.h ****     {
  52:../libs/DaisySP/Source/Synthesis/oscillator.h ****         sr_        = sample_rate;
  53:../libs/DaisySP/Source/Synthesis/oscillator.h ****         sr_recip_  = 1.0f / sample_rate;
  54:../libs/DaisySP/Source/Synthesis/oscillator.h ****         freq_      = 100.0f;
  55:../libs/DaisySP/Source/Synthesis/oscillator.h ****         amp_       = 0.5f;
  56:../libs/DaisySP/Source/Synthesis/oscillator.h ****         pw_        = 0.5f;
  57:../libs/DaisySP/Source/Synthesis/oscillator.h ****         phase_     = 0.0f;
  58:../libs/DaisySP/Source/Synthesis/oscillator.h ****         phase_inc_ = CalcPhaseInc(freq_);
  59:../libs/DaisySP/Source/Synthesis/oscillator.h ****         waveform_  = WAVE_SIN;
  60:../libs/DaisySP/Source/Synthesis/oscillator.h ****         eoc_       = true;
  61:../libs/DaisySP/Source/Synthesis/oscillator.h ****         eor_       = true;
  62:../libs/DaisySP/Source/Synthesis/oscillator.h ****     }
  63:../libs/DaisySP/Source/Synthesis/oscillator.h **** 
  64:../libs/DaisySP/Source/Synthesis/oscillator.h **** 
  65:../libs/DaisySP/Source/Synthesis/oscillator.h ****     /** Changes the frequency of the Oscillator, and recalculates phase increment.
  66:../libs/DaisySP/Source/Synthesis/oscillator.h ****     */
  67:../libs/DaisySP/Source/Synthesis/oscillator.h ****     inline void SetFreq(const float f)
  68:../libs/DaisySP/Source/Synthesis/oscillator.h ****     {
  69:../libs/DaisySP/Source/Synthesis/oscillator.h ****         freq_      = f;
  70:../libs/DaisySP/Source/Synthesis/oscillator.h ****         phase_inc_ = CalcPhaseInc(f);
 229              		.loc 8 70 34 view .LVU38
 230 0034 1A48     		ldr	r0, .L22+4
 231              	.LBE282:
 232              	.LBE281:
 233              	.LBB285:
 234              	.LBB280:
 235              		.loc 9 79 9 view .LVU39
 236 0036 DFED1B6A 		vldr.32	s13, .L22+8
  76:../libs/libDaisy/../../libs/DaisySP/Source/Filters/onepole.h ****         state_ = g_ * (in - lp) + lp;
 237              		.loc 9 76 16 view .LVU40
ARM GAS  C:\Users\skipi\AppData\Local\Temp\ccY7P3ru.s 			page 16


 238 003a 20EE060A 		vmul.f32	s0, s0, s12
 239              	.LVL8:
  77:../libs/libDaisy/../../libs/DaisySP/Source/Filters/onepole.h ****         state_ = g_ * (in - lp) + lp;
 240              		.loc 9 77 9 is_stmt 1 view .LVU41
  77:../libs/libDaisy/../../libs/DaisySP/Source/Filters/onepole.h ****         state_ = g_ * (in - lp) + lp;
 241              		.loc 9 77 27 is_stmt 0 view .LVU42
 242 003e 77EEC07A 		vsub.f32	s15, s15, s0
 243              	.LVL9:
  77:../libs/libDaisy/../../libs/DaisySP/Source/Filters/onepole.h ****         state_ = g_ * (in - lp) + lp;
 244              		.loc 9 77 33 view .LVU43
 245 0042 B0EE406A 		vmov.f32	s12, s0
 246 0046 A7EE276A 		vfma.f32	s12, s14, s15
  77:../libs/libDaisy/../../libs/DaisySP/Source/Filters/onepole.h ****         state_ = g_ * (in - lp) + lp;
 247              		.loc 9 77 16 view .LVU44
 248 004a 84ED026A 		vstr.32	s12, [r4, #8]
 249              		.loc 9 79 9 is_stmt 1 view .LVU45
 250 004e 13B1     		cbz	r3, .L8
 251 0050 012B     		cmp	r3, #1
 252 0052 07FEA60A 		vseleq.f32	s0, s15, s13
 253              	.LVL10:
 254              	.L8:
 255              		.loc 9 79 9 is_stmt 0 view .LVU46
 256              	.LBE280:
 257              	.LBE285:
  28:PSP.cpp       ****         osc.SetFreq(smoothedFreq);
 258              		.loc 10 28 9 is_stmt 1 view .LVU47
 259              	.LBB286:
 260              	.LBI281:
  67:../libs/DaisySP/Source/Synthesis/oscillator.h ****     {
 261              		.loc 8 67 17 view .LVU48
 262              	.LBB283:
  69:../libs/DaisySP/Source/Synthesis/oscillator.h ****         phase_inc_ = CalcPhaseInc(f);
 263              		.loc 8 69 9 view .LVU49
  69:../libs/DaisySP/Source/Synthesis/oscillator.h ****         phase_inc_ = CalcPhaseInc(f);
 264              		.loc 8 69 20 is_stmt 0 view .LVU50
 265 0056 86ED020A 		vstr.32	s0, [r6, #8]
 266              		.loc 8 70 9 is_stmt 1 view .LVU51
 267              		.loc 8 70 34 is_stmt 0 view .LVU52
 268 005a FFF7FEFF 		bl	_ZN7daisysp10Oscillator12CalcPhaseIncEf
 269              	.LVL11:
 270              		.loc 8 70 34 view .LVU53
 271              	.LBE283:
 272              	.LBE286:
  29:PSP.cpp       **** 
  30:PSP.cpp       ****         // 2. ENVELOPE GENERATION
  31:PSP.cpp       ****         envOut = env.Process(control.IsTouched());
 273              		.loc 10 31 29 view .LVU54
 274 005e 99F87819 		ldrb	r1, [r9, #2424]	@ zero_extendqisi2
 275 0062 1148     		ldr	r0, .L22+12
 276              	.LBB287:
 277              	.LBB284:
 278              		.loc 8 70 20 view .LVU55
 279 0064 86ED070A 		vstr.32	s0, [r6, #28]
 280              	.LVL12:
 281              		.loc 8 70 20 view .LVU56
 282              	.LBE284:
 283              	.LBE287:
ARM GAS  C:\Users\skipi\AppData\Local\Temp\ccY7P3ru.s 			page 17


 284              		.loc 10 31 9 is_stmt 1 view .LVU57
 285              	.LBB288:
 286              	.LBI288:
  25:classes/ControlPanel.h **** 
  26:classes/ControlPanel.h ****     /*
  27:classes/ControlPanel.h ****         * \return True if the sensor is currently being touched, false otherwise.
  28:classes/ControlPanel.h ****     */
  29:classes/ControlPanel.h ****     bool  IsTouched()     const { return _is_touched; }
 287              		.loc 11 29 11 view .LVU58
 288              	.LBB289:
 289              		.loc 11 29 35 view .LVU59
 290              		.loc 11 29 35 is_stmt 0 view .LVU60
 291              	.LBE289:
 292              	.LBE288:
 293              		.loc 10 31 29 view .LVU61
 294 0068 FFF7FEFF 		bl	_ZN7daisysp4Adsr7ProcessEb
 295              	.LVL13:
  32:PSP.cpp       ****         
  33:PSP.cpp       ****         // 3. GAIN STAGING
  34:PSP.cpp       ****         osc.SetAmp(envOut * 0.85f); 
 296              		.loc 10 34 9 is_stmt 1 view .LVU62
 297              	.LBB290:
 298              	.LBI290:
  71:../libs/DaisySP/Source/Synthesis/oscillator.h ****     }
  72:../libs/DaisySP/Source/Synthesis/oscillator.h **** 
  73:../libs/DaisySP/Source/Synthesis/oscillator.h **** 
  74:../libs/DaisySP/Source/Synthesis/oscillator.h ****     /** Sets the amplitude of the waveform.
  75:../libs/DaisySP/Source/Synthesis/oscillator.h ****     */
  76:../libs/DaisySP/Source/Synthesis/oscillator.h ****     inline void SetAmp(const float a) { amp_ = a; }
 299              		.loc 8 76 17 view .LVU63
 300              	.LBB291:
 301              		.loc 8 76 41 view .LVU64
 302              	.LBE291:
 303              	.LBE290:
 304              		.loc 10 34 19 is_stmt 0 view .LVU65
 305 006c DFED0F7A 		vldr.32	s15, .L22+16
  35:PSP.cpp       **** 
  36:PSP.cpp       ****         // 4. OSCILLATOR PROCESSING
  37:PSP.cpp       ****         oscOut = osc.Process();
 306              		.loc 10 37 29 view .LVU66
 307 0070 0B48     		ldr	r0, .L22+4
  34:PSP.cpp       **** 
 308              		.loc 10 34 19 view .LVU67
 309 0072 20EE270A 		vmul.f32	s0, s0, s15
 310              	.LVL14:
 311              	.LBB293:
 312              	.LBB292:
 313              		.loc 8 76 46 view .LVU68
 314 0076 86ED010A 		vstr.32	s0, [r6, #4]
 315              	.LVL15:
 316              		.loc 8 76 46 view .LVU69
 317              	.LBE292:
 318              	.LBE293:
 319              		.loc 10 37 9 is_stmt 1 view .LVU70
 320              		.loc 10 37 29 is_stmt 0 view .LVU71
 321 007a FFF7FEFF 		bl	_ZN7daisysp10Oscillator7ProcessEv
 322              	.LVL16:
ARM GAS  C:\Users\skipi\AppData\Local\Temp\ccY7P3ru.s 			page 18


  38:PSP.cpp       ****         
  39:PSP.cpp       ****         out[i] = out[i + 1] = oscOut;
 323              		.loc 10 39 16 view .LVU72
 324 007e 2A46     		mov	r2, r5
 325              	.LBE275:
  24:PSP.cpp       ****     {
 326              		.loc 10 24 26 view .LVU73
 327 0080 7B1C     		adds	r3, r7, #1
 328              	.LVL17:
 329              	.LBB294:
 330              		.loc 10 39 9 is_stmt 1 view .LVU74
 331              	.LBE294:
  24:PSP.cpp       ****     {
 332              		.loc 10 24 26 is_stmt 0 view .LVU75
 333 0082 4745     		cmp	r7, r8
 334              	.LBB295:
 335              		.loc 10 39 29 view .LVU76
 336 0084 85ED010A 		vstr.32	s0, [r5, #4]
 337              	.LBE295:
 338 0088 1F46     		mov	r7, r3
 339              	.LVL18:
 340              	.LBB296:
 341              		.loc 10 39 16 view .LVU77
 342 008a 05F10805 		add	r5, r5, #8
 343 008e 82ED000A 		vstr.32	s0, [r2]
 344              	.LBE296:
  24:PSP.cpp       ****     {
 345              		.loc 10 24 5 is_stmt 1 view .LVU78
 346              	.LVL19:
  24:PSP.cpp       ****     {
 347              		.loc 10 24 26 view .LVU79
 348 0092 C4D1     		bne	.L9
 349              	.LBE297:
  40:PSP.cpp       ****     }
  41:PSP.cpp       **** }
 350              		.loc 10 41 1 is_stmt 0 view .LVU80
 351 0094 BDE8F087 		pop	{r4, r5, r6, r7, r8, r9, r10, pc}
 352              	.LVL20:
 353              	.L19:
 354              		.cfi_def_cfa_offset 0
 355              		.cfi_restore 4
 356              		.cfi_restore 5
 357              		.cfi_restore 6
 358              		.cfi_restore 7
 359              		.cfi_restore 8
 360              		.cfi_restore 9
 361              		.cfi_restore 10
 362              		.cfi_restore 14
 363              		.loc 10 41 1 view .LVU81
 364 0098 7047     		bx	lr
 365              	.L23:
 366 009a 00BF     		.align	2
 367              	.L22:
 368 009c 00000000 		.word	.LANCHOR1
 369 00a0 00000000 		.word	.LANCHOR2
 370 00a4 00000000 		.word	0
 371 00a8 00000000 		.word	.LANCHOR3
ARM GAS  C:\Users\skipi\AppData\Local\Temp\ccY7P3ru.s 			page 19


 372 00ac 9A99593F 		.word	1062836634
 373 00b0 74090000 		.word	.LANCHOR0+2420
 374              		.cfi_endproc
 375              	.LFE4850:
 377              		.section	.text._ZN12ControlPanelD2Ev,"axG",%progbits,_ZN12ControlPanelD5Ev,comdat
 378              		.align	1
 379              		.p2align 2,,3
 380              		.weak	_ZN12ControlPanelD2Ev
 381              		.syntax unified
 382              		.thumb
 383              		.thumb_func
 384              		.fpu fpv5-d16
 386              	_ZN12ControlPanelD2Ev:
 387              	.LVL21:
 388              	.LFB5415:
  13:classes/ControlPanel.h **** public:
 389              		.loc 11 13 7 is_stmt 1 view -0
 390              		.cfi_startproc
 391              		@ args = 0, pretend = 0, frame = 0
 392              		@ frame_needed = 0, uses_anonymous_args = 0
  13:classes/ControlPanel.h **** public:
 393              		.loc 11 13 7 is_stmt 0 view .LVU83
 394 0000 10B5     		push	{r4, lr}
 395              		.cfi_def_cfa_offset 8
 396              		.cfi_offset 4, -8
 397              		.cfi_offset 14, -4
  13:classes/ControlPanel.h **** public:
 398              		.loc 11 13 7 view .LVU84
 399 0002 0446     		mov	r4, r0
 400              	.LBB298:
 401 0004 6430     		adds	r0, r0, #100
 402              	.LVL22:
  13:classes/ControlPanel.h **** public:
 403              		.loc 11 13 7 view .LVU85
 404 0006 FFF7FEFF 		bl	_ZN16PlantConditionerD1Ev
 405              	.LVL23:
 406              	.LBB299:
 407              	.LBI299:
 408              		.file 12 "../libs/libDaisy/../../libs/libDaisy/src/hid/encoder.h"
   1:../libs/libDaisy/../../libs/libDaisy/src/hid/encoder.h **** #pragma once
   2:../libs/libDaisy/../../libs/libDaisy/src/hid/encoder.h **** #ifndef DSY_ENCODER_H
   3:../libs/libDaisy/../../libs/libDaisy/src/hid/encoder.h **** #define DSY_ENCODER_H
   4:../libs/libDaisy/../../libs/libDaisy/src/hid/encoder.h **** #include "daisy_core.h"
   5:../libs/libDaisy/../../libs/libDaisy/src/hid/encoder.h **** #include "per/gpio.h"
   6:../libs/libDaisy/../../libs/libDaisy/src/hid/encoder.h **** #include "hid/switch.h"
   7:../libs/libDaisy/../../libs/libDaisy/src/hid/encoder.h **** 
   8:../libs/libDaisy/../../libs/libDaisy/src/hid/encoder.h **** namespace daisy
   9:../libs/libDaisy/../../libs/libDaisy/src/hid/encoder.h **** {
  10:../libs/libDaisy/../../libs/libDaisy/src/hid/encoder.h **** /** 
  11:../libs/libDaisy/../../libs/libDaisy/src/hid/encoder.h ****     @brief Generic Class for handling Quadrature Encoders \n 
  12:../libs/libDaisy/../../libs/libDaisy/src/hid/encoder.h ****     Inspired/influenced by Mutable Instruments (pichenettes) Encoder classes
  13:../libs/libDaisy/../../libs/libDaisy/src/hid/encoder.h ****     @author Stephen Hensley
  14:../libs/libDaisy/../../libs/libDaisy/src/hid/encoder.h ****     @date December 2019
  15:../libs/libDaisy/../../libs/libDaisy/src/hid/encoder.h ****     @ingroup controls
  16:../libs/libDaisy/../../libs/libDaisy/src/hid/encoder.h **** */
  17:../libs/libDaisy/../../libs/libDaisy/src/hid/encoder.h **** class Encoder
  18:../libs/libDaisy/../../libs/libDaisy/src/hid/encoder.h **** {
ARM GAS  C:\Users\skipi\AppData\Local\Temp\ccY7P3ru.s 			page 20


  19:../libs/libDaisy/../../libs/libDaisy/src/hid/encoder.h ****   public:
  20:../libs/libDaisy/../../libs/libDaisy/src/hid/encoder.h ****     Encoder() {}
  21:../libs/libDaisy/../../libs/libDaisy/src/hid/encoder.h ****     ~Encoder() {}
 409              		.loc 12 21 5 is_stmt 1 view .LVU86
 410              	.LBB300:
 411              	.LBI300:
 412              		.file 13 "../libs/libDaisy/src/hid/switch.h"
   1:../libs/libDaisy/src/hid/switch.h **** #pragma once
   2:../libs/libDaisy/src/hid/switch.h **** #ifndef DSY_SWITCH_H
   3:../libs/libDaisy/src/hid/switch.h **** #define DSY_SWITCH_H
   4:../libs/libDaisy/src/hid/switch.h **** #include "daisy_core.h"
   5:../libs/libDaisy/src/hid/switch.h **** #include "per/gpio.h"
   6:../libs/libDaisy/src/hid/switch.h **** #include "sys/system.h"
   7:../libs/libDaisy/src/hid/switch.h **** 
   8:../libs/libDaisy/src/hid/switch.h **** namespace daisy
   9:../libs/libDaisy/src/hid/switch.h **** {
  10:../libs/libDaisy/src/hid/switch.h **** /** 
  11:../libs/libDaisy/src/hid/switch.h ****     Generic Class for handling momentary/latching switches \n 
  12:../libs/libDaisy/src/hid/switch.h ****     Inspired/influenced by Mutable Instruments (pichenettes) Switch classes
  13:../libs/libDaisy/src/hid/switch.h ****     @author Stephen Hensley
  14:../libs/libDaisy/src/hid/switch.h ****     @date December 2019
  15:../libs/libDaisy/src/hid/switch.h ****     @ingroup controls
  16:../libs/libDaisy/src/hid/switch.h **** */
  17:../libs/libDaisy/src/hid/switch.h **** class Switch
  18:../libs/libDaisy/src/hid/switch.h **** {
  19:../libs/libDaisy/src/hid/switch.h ****   public:
  20:../libs/libDaisy/src/hid/switch.h ****     /** Specifies the expected behavior of the switch */
  21:../libs/libDaisy/src/hid/switch.h ****     enum Type
  22:../libs/libDaisy/src/hid/switch.h ****     {
  23:../libs/libDaisy/src/hid/switch.h ****         TYPE_TOGGLE,    /**< & */
  24:../libs/libDaisy/src/hid/switch.h ****         TYPE_MOMENTARY, /**< & */
  25:../libs/libDaisy/src/hid/switch.h ****     };
  26:../libs/libDaisy/src/hid/switch.h ****     /** Specifies whether the pressed is HIGH or LOW. */
  27:../libs/libDaisy/src/hid/switch.h ****     enum Polarity
  28:../libs/libDaisy/src/hid/switch.h ****     {
  29:../libs/libDaisy/src/hid/switch.h ****         POLARITY_NORMAL,   /**< & */
  30:../libs/libDaisy/src/hid/switch.h ****         POLARITY_INVERTED, /**< & */
  31:../libs/libDaisy/src/hid/switch.h ****     };
  32:../libs/libDaisy/src/hid/switch.h **** 
  33:../libs/libDaisy/src/hid/switch.h ****     Switch() {}
  34:../libs/libDaisy/src/hid/switch.h ****     ~Switch() {}
 413              		.loc 13 34 5 view .LVU87
 414              		.loc 13 34 5 is_stmt 0 view .LVU88
 415              	.LBE300:
 416              	.LBE299:
 417              	.LBE298:
  13:classes/ControlPanel.h **** public:
 418              		.loc 11 13 7 view .LVU89
 419 000a 2046     		mov	r0, r4
 420 000c 10BD     		pop	{r4, pc}
  13:classes/ControlPanel.h **** public:
 421              		.loc 11 13 7 view .LVU90
 422              		.cfi_endproc
 423              	.LFE5415:
 425              		.weak	_ZN12ControlPanelD1Ev
 426              		.thumb_set _ZN12ControlPanelD1Ev,_ZN12ControlPanelD2Ev
 427 000e 00BF     		.section	.text.startup.main,"ax",%progbits
ARM GAS  C:\Users\skipi\AppData\Local\Temp\ccY7P3ru.s 			page 21


 428              		.align	1
 429              		.p2align 2,,3
 430              		.global	main
 431              		.syntax unified
 432              		.thumb
 433              		.thumb_func
 434              		.fpu fpv5-d16
 436              	main:
 437              	.LFB4851:
  42:PSP.cpp       **** 
  43:PSP.cpp       **** int main(){
 438              		.loc 10 43 11 is_stmt 1 view -0
 439              		.cfi_startproc
 440              		@ Volatile: function does not return.
 441              		@ args = 0, pretend = 0, frame = 0
 442              		@ frame_needed = 0, uses_anonymous_args = 0
  44:PSP.cpp       ****     hw.Configure();
 443              		.loc 10 44 5 view .LVU92
  43:PSP.cpp       ****     hw.Configure();
 444              		.loc 10 43 11 is_stmt 0 view .LVU93
 445 0000 80B5     		push	{r7, lr}
 446              		.cfi_def_cfa_offset 8
 447              		.cfi_offset 7, -8
 448              		.cfi_offset 14, -4
 449              		.loc 10 44 17 view .LVU94
 450 0002 4748     		ldr	r0, .L30
 451              	.LBB319:
 452              	.LBB320:
  55:../libs/DaisySP/Source/Synthesis/oscillator.h ****         pw_        = 0.5f;
 453              		.loc 8 55 20 view .LVU95
 454 0004 B6EE008A 		vmov.f32	s16, #5.0e-1
 455              	.LBE320:
 456              	.LBE319:
 457              		.loc 10 44 17 view .LVU96
 458 0008 FFF7FEFF 		bl	_ZN5daisy9DaisySeed9ConfigureEv
 459              	.LVL24:
  45:PSP.cpp       ****     hw.Init();
 460              		.loc 10 45 5 is_stmt 1 view .LVU97
 461              		.loc 10 45 12 is_stmt 0 view .LVU98
 462 000c 0021     		movs	r1, #0
 463 000e 4448     		ldr	r0, .L30
 464              	.LBB328:
 465              	.LBB321:
  57:../libs/DaisySP/Source/Synthesis/oscillator.h ****         phase_inc_ = CalcPhaseInc(freq_);
 466              		.loc 8 57 20 view .LVU99
 467 0010 0027     		movs	r7, #0
 468              	.LBE321:
 469              	.LBE328:
 470              		.loc 10 45 12 view .LVU100
 471 0012 FFF7FEFF 		bl	_ZN5daisy9DaisySeed4InitEb
 472              	.LVL25:
  46:PSP.cpp       ****     hw.SetAudioBlockSize(48);
 473              		.loc 10 46 5 is_stmt 1 view .LVU101
 474              		.loc 10 46 25 is_stmt 0 view .LVU102
 475 0016 3021     		movs	r1, #48
 476 0018 4148     		ldr	r0, .L30
 477              	.LBB329:
ARM GAS  C:\Users\skipi\AppData\Local\Temp\ccY7P3ru.s 			page 22


 478              	.LBB322:
  59:../libs/DaisySP/Source/Synthesis/oscillator.h ****         eoc_       = true;
 479              		.loc 8 59 20 view .LVU103
 480 001a 0026     		movs	r6, #0
 481              	.LBE322:
 482              	.LBE329:
 483              		.loc 10 46 25 view .LVU104
 484 001c FFF7FEFF 		bl	_ZN5daisy9DaisySeed17SetAudioBlockSizeEj
 485              	.LVL26:
  47:PSP.cpp       ****     hw.StartLog(false);
 486              		.loc 10 47 5 is_stmt 1 view .LVU105
 487              	.LBB330:
 488              	.LBI330:
  23:../libs/libDaisy/../../libs/libDaisy/src/daisy_seed.h **** 
  24:../libs/libDaisy/../../libs/libDaisy/src/daisy_seed.h ****     /** This function used to provide a pre-initialization configuraiton 
  25:../libs/libDaisy/../../libs/libDaisy/src/daisy_seed.h ****      *  it has since been deprecated, and does nothing.
  26:../libs/libDaisy/../../libs/libDaisy/src/daisy_seed.h ****      */
  27:../libs/libDaisy/../../libs/libDaisy/src/daisy_seed.h ****     void Configure();
  28:../libs/libDaisy/../../libs/libDaisy/src/daisy_seed.h **** 
  29:../libs/libDaisy/../../libs/libDaisy/src/daisy_seed.h ****     /** 
  30:../libs/libDaisy/../../libs/libDaisy/src/daisy_seed.h ****     Initializes the Daisy Seed and the following peripherals:
  31:../libs/libDaisy/../../libs/libDaisy/src/daisy_seed.h ****     SDRAM, QSPI, 24-bit 48kHz Audio via AK4556, Internal USB,
  32:../libs/libDaisy/../../libs/libDaisy/src/daisy_seed.h ****     as well as the built-in LED and Testpoint.
  33:../libs/libDaisy/../../libs/libDaisy/src/daisy_seed.h **** 
  34:../libs/libDaisy/../../libs/libDaisy/src/daisy_seed.h ****     ADCs, DACs, and other special peripherals (such as I2C, SPI, etc.)
  35:../libs/libDaisy/../../libs/libDaisy/src/daisy_seed.h ****     can be initialized using their specific initializers within libdaisy
  36:../libs/libDaisy/../../libs/libDaisy/src/daisy_seed.h ****     for a specific application.
  37:../libs/libDaisy/../../libs/libDaisy/src/daisy_seed.h ****     */
  38:../libs/libDaisy/../../libs/libDaisy/src/daisy_seed.h ****     void Init(bool boost = false);
  39:../libs/libDaisy/../../libs/libDaisy/src/daisy_seed.h **** 
  40:../libs/libDaisy/../../libs/libDaisy/src/daisy_seed.h ****     /** 
  41:../libs/libDaisy/../../libs/libDaisy/src/daisy_seed.h ****     Deinitializes all peripherals automatically handled by `Init`.
  42:../libs/libDaisy/../../libs/libDaisy/src/daisy_seed.h ****     */
  43:../libs/libDaisy/../../libs/libDaisy/src/daisy_seed.h ****     void DeInit();
  44:../libs/libDaisy/../../libs/libDaisy/src/daisy_seed.h **** 
  45:../libs/libDaisy/../../libs/libDaisy/src/daisy_seed.h ****     /** 
  46:../libs/libDaisy/../../libs/libDaisy/src/daisy_seed.h ****     Wait some ms before going on.
  47:../libs/libDaisy/../../libs/libDaisy/src/daisy_seed.h ****     \param del Delay time in ms.
  48:../libs/libDaisy/../../libs/libDaisy/src/daisy_seed.h ****     */
  49:../libs/libDaisy/../../libs/libDaisy/src/daisy_seed.h ****     void DelayMs(size_t del);
  50:../libs/libDaisy/../../libs/libDaisy/src/daisy_seed.h **** 
  51:../libs/libDaisy/../../libs/libDaisy/src/daisy_seed.h ****     /** 
  52:../libs/libDaisy/../../libs/libDaisy/src/daisy_seed.h ****     Returns the gpio_pin corresponding to the index 0-31.
  53:../libs/libDaisy/../../libs/libDaisy/src/daisy_seed.h ****     For the given GPIO on the Daisy Seed (labeled 1-32 in docs).
  54:../libs/libDaisy/../../libs/libDaisy/src/daisy_seed.h ****     */
  55:../libs/libDaisy/../../libs/libDaisy/src/daisy_seed.h ****     static Pin GetPin(uint8_t pin_idx);
  56:../libs/libDaisy/../../libs/libDaisy/src/daisy_seed.h **** 
  57:../libs/libDaisy/../../libs/libDaisy/src/daisy_seed.h ****     /** Begins the audio for the seeds builtin audio.
  58:../libs/libDaisy/../../libs/libDaisy/src/daisy_seed.h ****     the specified callback will get called whenever
  59:../libs/libDaisy/../../libs/libDaisy/src/daisy_seed.h ****     new data is ready to be prepared.
  60:../libs/libDaisy/../../libs/libDaisy/src/daisy_seed.h ****     */
  61:../libs/libDaisy/../../libs/libDaisy/src/daisy_seed.h ****     void StartAudio(AudioHandle::InterleavingAudioCallback cb);
  62:../libs/libDaisy/../../libs/libDaisy/src/daisy_seed.h **** 
  63:../libs/libDaisy/../../libs/libDaisy/src/daisy_seed.h ****     /** Begins the audio for the seeds builtin audio.
  64:../libs/libDaisy/../../libs/libDaisy/src/daisy_seed.h ****     the specified callback will get called whenever
  65:../libs/libDaisy/../../libs/libDaisy/src/daisy_seed.h ****     new data is ready to be prepared.
  66:../libs/libDaisy/../../libs/libDaisy/src/daisy_seed.h ****     This will use the newer non-interleaved callback.
ARM GAS  C:\Users\skipi\AppData\Local\Temp\ccY7P3ru.s 			page 23


  67:../libs/libDaisy/../../libs/libDaisy/src/daisy_seed.h ****     */
  68:../libs/libDaisy/../../libs/libDaisy/src/daisy_seed.h ****     void StartAudio(AudioHandle::AudioCallback cb);
  69:../libs/libDaisy/../../libs/libDaisy/src/daisy_seed.h **** 
  70:../libs/libDaisy/../../libs/libDaisy/src/daisy_seed.h ****     /** Changes to a new interleaved callback
  71:../libs/libDaisy/../../libs/libDaisy/src/daisy_seed.h ****      */
  72:../libs/libDaisy/../../libs/libDaisy/src/daisy_seed.h ****     void ChangeAudioCallback(AudioHandle::InterleavingAudioCallback cb);
  73:../libs/libDaisy/../../libs/libDaisy/src/daisy_seed.h **** 
  74:../libs/libDaisy/../../libs/libDaisy/src/daisy_seed.h ****     /** Changes to a new multichannel callback
  75:../libs/libDaisy/../../libs/libDaisy/src/daisy_seed.h ****      */
  76:../libs/libDaisy/../../libs/libDaisy/src/daisy_seed.h ****     void ChangeAudioCallback(AudioHandle::AudioCallback cb);
  77:../libs/libDaisy/../../libs/libDaisy/src/daisy_seed.h **** 
  78:../libs/libDaisy/../../libs/libDaisy/src/daisy_seed.h ****     /** Stops the audio if it is running. */
  79:../libs/libDaisy/../../libs/libDaisy/src/daisy_seed.h ****     void StopAudio();
  80:../libs/libDaisy/../../libs/libDaisy/src/daisy_seed.h **** 
  81:../libs/libDaisy/../../libs/libDaisy/src/daisy_seed.h ****     /** Updates the Audio Sample Rate, and reinitializes.
  82:../libs/libDaisy/../../libs/libDaisy/src/daisy_seed.h ****      ** Audio must be stopped for this to work.
  83:../libs/libDaisy/../../libs/libDaisy/src/daisy_seed.h ****      */
  84:../libs/libDaisy/../../libs/libDaisy/src/daisy_seed.h ****     void SetAudioSampleRate(SaiHandle::Config::SampleRate samplerate);
  85:../libs/libDaisy/../../libs/libDaisy/src/daisy_seed.h **** 
  86:../libs/libDaisy/../../libs/libDaisy/src/daisy_seed.h ****     /** Returns the audio sample rate in Hz as a floating point number.
  87:../libs/libDaisy/../../libs/libDaisy/src/daisy_seed.h ****      */
  88:../libs/libDaisy/../../libs/libDaisy/src/daisy_seed.h ****     float AudioSampleRate();
  89:../libs/libDaisy/../../libs/libDaisy/src/daisy_seed.h **** 
  90:../libs/libDaisy/../../libs/libDaisy/src/daisy_seed.h ****     /** Sets the number of samples processed per channel by the audio callback.
  91:../libs/libDaisy/../../libs/libDaisy/src/daisy_seed.h ****      */
  92:../libs/libDaisy/../../libs/libDaisy/src/daisy_seed.h ****     void SetAudioBlockSize(size_t blocksize);
  93:../libs/libDaisy/../../libs/libDaisy/src/daisy_seed.h **** 
  94:../libs/libDaisy/../../libs/libDaisy/src/daisy_seed.h ****     /** Returns the number of samples per channel in a block of audio. */
  95:../libs/libDaisy/../../libs/libDaisy/src/daisy_seed.h ****     size_t AudioBlockSize();
  96:../libs/libDaisy/../../libs/libDaisy/src/daisy_seed.h **** 
  97:../libs/libDaisy/../../libs/libDaisy/src/daisy_seed.h ****     /** Returns the rate in Hz that the Audio callback is called */
  98:../libs/libDaisy/../../libs/libDaisy/src/daisy_seed.h ****     float AudioCallbackRate() const;
  99:../libs/libDaisy/../../libs/libDaisy/src/daisy_seed.h **** 
 100:../libs/libDaisy/../../libs/libDaisy/src/daisy_seed.h ****     /** Returns the SAI Handle for the Daisy Seed 
 101:../libs/libDaisy/../../libs/libDaisy/src/daisy_seed.h ****      *  This can be useful when adding a secondary codec,
 102:../libs/libDaisy/../../libs/libDaisy/src/daisy_seed.h ****      *  the result of this function can be passed to the audio reinit 
 103:../libs/libDaisy/../../libs/libDaisy/src/daisy_seed.h ****      *  with an SAI2 configuration
 104:../libs/libDaisy/../../libs/libDaisy/src/daisy_seed.h ****      */
 105:../libs/libDaisy/../../libs/libDaisy/src/daisy_seed.h ****     const SaiHandle& AudioSaiHandle() const;
 106:../libs/libDaisy/../../libs/libDaisy/src/daisy_seed.h **** 
 107:../libs/libDaisy/../../libs/libDaisy/src/daisy_seed.h ****     /** Sets the state of the built in LED
 108:../libs/libDaisy/../../libs/libDaisy/src/daisy_seed.h ****      */
 109:../libs/libDaisy/../../libs/libDaisy/src/daisy_seed.h ****     void SetLed(bool state);
 110:../libs/libDaisy/../../libs/libDaisy/src/daisy_seed.h **** 
 111:../libs/libDaisy/../../libs/libDaisy/src/daisy_seed.h ****     /** Sets the state of the test point near pin 10
 112:../libs/libDaisy/../../libs/libDaisy/src/daisy_seed.h ****      */
 113:../libs/libDaisy/../../libs/libDaisy/src/daisy_seed.h ****     void SetTestPoint(bool state);
 114:../libs/libDaisy/../../libs/libDaisy/src/daisy_seed.h **** 
 115:../libs/libDaisy/../../libs/libDaisy/src/daisy_seed.h ****     /** Print formatted debug log message
 116:../libs/libDaisy/../../libs/libDaisy/src/daisy_seed.h ****      */
 117:../libs/libDaisy/../../libs/libDaisy/src/daisy_seed.h ****     template <typename... VA>
 118:../libs/libDaisy/../../libs/libDaisy/src/daisy_seed.h ****     static void Print(const char* format, VA... va)
 119:../libs/libDaisy/../../libs/libDaisy/src/daisy_seed.h ****     {
 120:../libs/libDaisy/../../libs/libDaisy/src/daisy_seed.h ****         Log::Print(format, va...);
 121:../libs/libDaisy/../../libs/libDaisy/src/daisy_seed.h ****     }
 122:../libs/libDaisy/../../libs/libDaisy/src/daisy_seed.h **** 
 123:../libs/libDaisy/../../libs/libDaisy/src/daisy_seed.h ****     /** Print formatted debug log message with automatic line termination
ARM GAS  C:\Users\skipi\AppData\Local\Temp\ccY7P3ru.s 			page 24


 124:../libs/libDaisy/../../libs/libDaisy/src/daisy_seed.h ****     */
 125:../libs/libDaisy/../../libs/libDaisy/src/daisy_seed.h ****     template <typename... VA>
 126:../libs/libDaisy/../../libs/libDaisy/src/daisy_seed.h ****     static void PrintLine(const char* format, VA... va)
 127:../libs/libDaisy/../../libs/libDaisy/src/daisy_seed.h ****     {
 128:../libs/libDaisy/../../libs/libDaisy/src/daisy_seed.h ****         Log::PrintLine(format, va...);
 129:../libs/libDaisy/../../libs/libDaisy/src/daisy_seed.h ****     }
 130:../libs/libDaisy/../../libs/libDaisy/src/daisy_seed.h **** 
 131:../libs/libDaisy/../../libs/libDaisy/src/daisy_seed.h ****     /** Start the logging session. Optionally wait for terminal connection before proceeding.
 132:../libs/libDaisy/../../libs/libDaisy/src/daisy_seed.h ****     */
 133:../libs/libDaisy/../../libs/libDaisy/src/daisy_seed.h ****     static void StartLog(bool wait_for_pc = false)
 489              		.loc 1 133 17 view .LVU106
 490              	.LBB331:
 134:../libs/libDaisy/../../libs/libDaisy/src/daisy_seed.h ****     {
 135:../libs/libDaisy/../../libs/libDaisy/src/daisy_seed.h ****         Log::StartLog(wait_for_pc);
 491              		.loc 1 135 9 view .LVU107
 492              		.loc 1 135 22 is_stmt 0 view .LVU108
 493 0020 0020     		movs	r0, #0
 494 0022 FFF7FEFF 		bl	_ZN5daisy6LoggerILNS_17LoggerDestinationE1EE8StartLogEb
 495              	.LVL27:
 496              		.loc 1 135 22 view .LVU109
 497              	.LBE331:
 498              	.LBE330:
  48:PSP.cpp       ****     control.Init(&hw);
 499              		.loc 10 48 5 is_stmt 1 view .LVU110
 500              		.loc 10 48 17 is_stmt 0 view .LVU111
 501 0026 3E49     		ldr	r1, .L30
 502 0028 3E48     		ldr	r0, .L30+4
 503 002a FFF7FEFF 		bl	_ZN12ControlPanel4InitEPN5daisy9DaisySeedE
 504              	.LVL28:
  49:PSP.cpp       **** 
  50:PSP.cpp       ****     osc.Init(hw.AudioSampleRate());
 505              		.loc 10 50 5 is_stmt 1 view .LVU112
 506              		.loc 10 50 13 is_stmt 0 view .LVU113
 507 002e 3C48     		ldr	r0, .L30
 508 0030 FFF7FEFF 		bl	_ZN5daisy9DaisySeed15AudioSampleRateEv
 509              	.LVL29:
 510              	.LBB332:
 511              	.LBB323:
  53:../libs/DaisySP/Source/Synthesis/oscillator.h ****         freq_      = 100.0f;
 512              		.loc 8 53 27 view .LVU114
 513 0034 F7EE006A 		vmov.f32	s13, #1.0e+0
 514              	.LBE323:
 515              	.LBE332:
 516              		.loc 10 50 13 view .LVU115
 517 0038 F0EE407A 		vmov.f32	s15, s0
 518              	.LVL30:
 519              	.LBB333:
 520              	.LBI319:
  50:../libs/DaisySP/Source/Synthesis/oscillator.h ****     {
 521              		.loc 8 50 10 is_stmt 1 view .LVU116
 522              	.LBB324:
  52:../libs/DaisySP/Source/Synthesis/oscillator.h ****         sr_recip_  = 1.0f / sample_rate;
 523              		.loc 8 52 9 view .LVU117
  52:../libs/DaisySP/Source/Synthesis/oscillator.h ****         sr_recip_  = 1.0f / sample_rate;
 524              		.loc 8 52 20 is_stmt 0 view .LVU118
 525 003c 3A4C     		ldr	r4, .L30+8
  54:../libs/DaisySP/Source/Synthesis/oscillator.h ****         amp_       = 0.5f;
ARM GAS  C:\Users\skipi\AppData\Local\Temp\ccY7P3ru.s 			page 25


 526              		.loc 8 54 20 view .LVU119
 527 003e 9FED3B7A 		vldr.32	s14, .L30+12
  58:../libs/DaisySP/Source/Synthesis/oscillator.h ****         waveform_  = WAVE_SIN;
 528              		.loc 8 58 34 view .LVU120
 529 0042 2046     		mov	r0, r4
  55:../libs/DaisySP/Source/Synthesis/oscillator.h ****         pw_        = 0.5f;
 530              		.loc 8 55 20 view .LVU121
 531 0044 84ED018A 		vstr.32	s16, [r4, #4]
  54:../libs/DaisySP/Source/Synthesis/oscillator.h ****         amp_       = 0.5f;
 532              		.loc 8 54 20 view .LVU122
 533 0048 84ED027A 		vstr.32	s14, [r4, #8]
  58:../libs/DaisySP/Source/Synthesis/oscillator.h ****         waveform_  = WAVE_SIN;
 534              		.loc 8 58 34 view .LVU123
 535 004c B0EE470A 		vmov.f32	s0, s14
 536              	.LVL31:
  53:../libs/DaisySP/Source/Synthesis/oscillator.h ****         freq_      = 100.0f;
 537              		.loc 8 53 27 view .LVU124
 538 0050 86EEA77A 		vdiv.f32	s14, s13, s15
  52:../libs/DaisySP/Source/Synthesis/oscillator.h ****         sr_recip_  = 1.0f / sample_rate;
 539              		.loc 8 52 20 view .LVU125
 540 0054 C4ED047A 		vstr.32	s15, [r4, #16]
  53:../libs/DaisySP/Source/Synthesis/oscillator.h ****         freq_      = 100.0f;
 541              		.loc 8 53 9 is_stmt 1 view .LVU126
  56:../libs/DaisySP/Source/Synthesis/oscillator.h ****         phase_     = 0.0f;
 542              		.loc 8 56 20 is_stmt 0 view .LVU127
 543 0058 84ED038A 		vstr.32	s16, [r4, #12]
  57:../libs/DaisySP/Source/Synthesis/oscillator.h ****         phase_inc_ = CalcPhaseInc(freq_);
 544              		.loc 8 57 20 view .LVU128
 545 005c A761     		str	r7, [r4, #24]	@ float
 546              	.LBE324:
 547              	.LBE333:
  51:PSP.cpp       ****     osc.SetWaveform(Oscillator::WAVE_SIN); 
  52:PSP.cpp       ****     osc.SetFreq(440.0f);
  53:PSP.cpp       ****     osc.SetAmp(0.85f); 
  54:PSP.cpp       **** 
  55:PSP.cpp       ****     env.Init(hw.AudioSampleRate());
 548              		.loc 10 55 13 view .LVU129
 549 005e 344D     		ldr	r5, .L30+16
 550              	.LBB334:
 551              	.LBB325:
  53:../libs/DaisySP/Source/Synthesis/oscillator.h ****         freq_      = 100.0f;
 552              		.loc 8 53 20 view .LVU130
 553 0060 84ED057A 		vstr.32	s14, [r4, #20]
  54:../libs/DaisySP/Source/Synthesis/oscillator.h ****         amp_       = 0.5f;
 554              		.loc 8 54 9 is_stmt 1 view .LVU131
  55:../libs/DaisySP/Source/Synthesis/oscillator.h ****         pw_        = 0.5f;
 555              		.loc 8 55 9 view .LVU132
  56:../libs/DaisySP/Source/Synthesis/oscillator.h ****         phase_     = 0.0f;
 556              		.loc 8 56 9 view .LVU133
  57:../libs/DaisySP/Source/Synthesis/oscillator.h ****         phase_inc_ = CalcPhaseInc(freq_);
 557              		.loc 8 57 9 view .LVU134
  58:../libs/DaisySP/Source/Synthesis/oscillator.h ****         waveform_  = WAVE_SIN;
 558              		.loc 8 58 9 view .LVU135
  58:../libs/DaisySP/Source/Synthesis/oscillator.h ****         waveform_  = WAVE_SIN;
 559              		.loc 8 58 34 is_stmt 0 view .LVU136
 560 0064 FFF7FEFF 		bl	_ZN7daisysp10Oscillator12CalcPhaseIncEf
 561              	.LVL32:
ARM GAS  C:\Users\skipi\AppData\Local\Temp\ccY7P3ru.s 			page 26


  61:../libs/DaisySP/Source/Synthesis/oscillator.h ****     }
 562              		.loc 8 61 20 view .LVU137
 563 0068 40F20113 		movw	r3, #257
  58:../libs/DaisySP/Source/Synthesis/oscillator.h ****         waveform_  = WAVE_SIN;
 564              		.loc 8 58 34 view .LVU138
 565 006c F0EE407A 		vmov.f32	s15, s0
 566              	.LBE325:
 567              	.LBE334:
 568              	.LBB335:
 569              	.LBB336:
  69:../libs/DaisySP/Source/Synthesis/oscillator.h ****         phase_inc_ = CalcPhaseInc(f);
 570              		.loc 8 69 20 view .LVU139
 571 0070 9FED300A 		vldr.32	s0, .L30+20
  70:../libs/DaisySP/Source/Synthesis/oscillator.h ****     }
 572              		.loc 8 70 34 view .LVU140
 573 0074 2046     		mov	r0, r4
 574              	.LBE336:
 575              	.LBE335:
 576              	.LBB340:
 577              	.LBB326:
  61:../libs/DaisySP/Source/Synthesis/oscillator.h ****     }
 578              		.loc 8 61 20 view .LVU141
 579 0076 2385     		strh	r3, [r4, #40]	@ movhi
  58:../libs/DaisySP/Source/Synthesis/oscillator.h ****         waveform_  = WAVE_SIN;
 580              		.loc 8 58 20 view .LVU142
 581 0078 C4ED077A 		vstr.32	s15, [r4, #28]
  59:../libs/DaisySP/Source/Synthesis/oscillator.h ****         eoc_       = true;
 582              		.loc 8 59 9 is_stmt 1 view .LVU143
  60:../libs/DaisySP/Source/Synthesis/oscillator.h ****         eor_       = true;
 583              		.loc 8 60 9 view .LVU144
  61:../libs/DaisySP/Source/Synthesis/oscillator.h ****     }
 584              		.loc 8 61 9 view .LVU145
 585              	.LVL33:
  61:../libs/DaisySP/Source/Synthesis/oscillator.h ****     }
 586              		.loc 8 61 9 is_stmt 0 view .LVU146
 587              	.LBE326:
 588              	.LBE340:
  51:PSP.cpp       ****     osc.SetFreq(440.0f);
 589              		.loc 10 51 5 is_stmt 1 view .LVU147
  77:../libs/DaisySP/Source/Synthesis/oscillator.h ****     /** Sets the waveform to be synthesized by the Process() function.
  78:../libs/DaisySP/Source/Synthesis/oscillator.h ****     */
  79:../libs/DaisySP/Source/Synthesis/oscillator.h ****     inline void SetWaveform(const uint8_t wf)
  80:../libs/DaisySP/Source/Synthesis/oscillator.h ****     {
  81:../libs/DaisySP/Source/Synthesis/oscillator.h ****         waveform_ = wf < WAVE_LAST ? wf : WAVE_SIN;
 590              		.loc 8 81 9 view .LVU148
  52:PSP.cpp       ****     osc.SetAmp(0.85f); 
 591              		.loc 10 52 5 view .LVU149
 592              	.LBB341:
 593              	.LBI335:
  67:../libs/DaisySP/Source/Synthesis/oscillator.h ****     {
 594              		.loc 8 67 17 view .LVU150
 595              	.LBB337:
  69:../libs/DaisySP/Source/Synthesis/oscillator.h ****         phase_inc_ = CalcPhaseInc(f);
 596              		.loc 8 69 9 view .LVU151
  70:../libs/DaisySP/Source/Synthesis/oscillator.h ****     }
 597              		.loc 8 70 9 view .LVU152
 598              	.LBE337:
ARM GAS  C:\Users\skipi\AppData\Local\Temp\ccY7P3ru.s 			page 27


 599              	.LBE341:
 600              	.LBB342:
 601              	.LBB327:
  59:../libs/DaisySP/Source/Synthesis/oscillator.h ****         eoc_       = true;
 602              		.loc 8 59 20 is_stmt 0 view .LVU153
 603 007c 2670     		strb	r6, [r4]
 604              	.LBE327:
 605              	.LBE342:
 606              	.LBB343:
 607              	.LBB338:
  69:../libs/DaisySP/Source/Synthesis/oscillator.h ****         phase_inc_ = CalcPhaseInc(f);
 608              		.loc 8 69 20 view .LVU154
 609 007e 84ED020A 		vstr.32	s0, [r4, #8]
  70:../libs/DaisySP/Source/Synthesis/oscillator.h ****     }
 610              		.loc 8 70 34 view .LVU155
 611 0082 FFF7FEFF 		bl	_ZN7daisysp10Oscillator12CalcPhaseIncEf
 612              	.LVL34:
 613              	.LBE338:
 614              	.LBE343:
 615              	.LBB344:
 616              	.LBB345:
  76:../libs/DaisySP/Source/Synthesis/oscillator.h ****     /** Sets the waveform to be synthesized by the Process() function.
 617              		.loc 8 76 46 view .LVU156
 618 0086 2C4B     		ldr	r3, .L30+24
 619              	.LBE345:
 620              	.LBE344:
 621              		.loc 10 55 13 view .LVU157
 622 0088 2548     		ldr	r0, .L30
 623              	.LBB348:
 624              	.LBB346:
  76:../libs/DaisySP/Source/Synthesis/oscillator.h ****     /** Sets the waveform to be synthesized by the Process() function.
 625              		.loc 8 76 46 view .LVU158
 626 008a 6360     		str	r3, [r4, #4]	@ float
 627              	.LBE346:
 628              	.LBE348:
 629              	.LBB349:
 630              	.LBB339:
  70:../libs/DaisySP/Source/Synthesis/oscillator.h ****     }
 631              		.loc 8 70 20 view .LVU159
 632 008c 84ED070A 		vstr.32	s0, [r4, #28]
 633              	.LVL35:
  70:../libs/DaisySP/Source/Synthesis/oscillator.h ****     }
 634              		.loc 8 70 20 view .LVU160
 635              	.LBE339:
 636              	.LBE349:
  53:PSP.cpp       **** 
 637              		.loc 10 53 5 is_stmt 1 view .LVU161
 638              	.LBB350:
 639              	.LBI344:
  76:../libs/DaisySP/Source/Synthesis/oscillator.h ****     /** Sets the waveform to be synthesized by the Process() function.
 640              		.loc 8 76 17 view .LVU162
 641              	.LBB347:
  76:../libs/DaisySP/Source/Synthesis/oscillator.h ****     /** Sets the waveform to be synthesized by the Process() function.
 642              		.loc 8 76 41 view .LVU163
  76:../libs/DaisySP/Source/Synthesis/oscillator.h ****     /** Sets the waveform to be synthesized by the Process() function.
 643              		.loc 8 76 41 is_stmt 0 view .LVU164
 644              	.LBE347:
ARM GAS  C:\Users\skipi\AppData\Local\Temp\ccY7P3ru.s 			page 28


 645              	.LBE350:
 646              		.loc 10 55 5 is_stmt 1 view .LVU165
 647              		.loc 10 55 13 is_stmt 0 view .LVU166
 648 0090 FFF7FEFF 		bl	_ZN5daisy9DaisySeed15AudioSampleRateEv
 649              	.LVL36:
 650 0094 0121     		movs	r1, #1
 651 0096 2846     		mov	r0, r5
 652 0098 FFF7FEFF 		bl	_ZN7daisysp4Adsr4InitEfi
 653              	.LVL37:
  56:PSP.cpp       ****     env.SetTime(ADSR_SEG_ATTACK, 0.05f);
 654              		.loc 10 56 5 is_stmt 1 view .LVU167
 655              		.loc 10 56 16 is_stmt 0 view .LVU168
 656 009c 9FED270A 		vldr.32	s0, .L30+28
 657 00a0 0121     		movs	r1, #1
 658 00a2 2846     		mov	r0, r5
 659 00a4 FFF7FEFF 		bl	_ZN7daisysp4Adsr7SetTimeEif
 660              	.LVL38:
  57:PSP.cpp       ****     env.SetTime(ADSR_SEG_DECAY, 0.1f);
 661              		.loc 10 57 5 is_stmt 1 view .LVU169
 662              		.loc 10 57 16 is_stmt 0 view .LVU170
 663 00a8 9FED250A 		vldr.32	s0, .L30+32
 664 00ac 0221     		movs	r1, #2
 665 00ae 2846     		mov	r0, r5
 666 00b0 FFF7FEFF 		bl	_ZN7daisysp4Adsr7SetTimeEif
 667              	.LVL39:
  58:PSP.cpp       ****     env.SetSustainLevel(0.7f);
 668              		.loc 10 58 5 is_stmt 1 view .LVU171
 669              	.LBB351:
 670              	.LBI351:
  46:../libs/libDaisy/../../libs/DaisySP/Source/Control/adsr.h ****     /** Initializes the Adsr module.
  47:../libs/libDaisy/../../libs/DaisySP/Source/Control/adsr.h ****         \param sample_rate - The sample rate of the audio engine being run. 
  48:../libs/libDaisy/../../libs/DaisySP/Source/Control/adsr.h ****     */
  49:../libs/libDaisy/../../libs/DaisySP/Source/Control/adsr.h ****     void Init(float sample_rate, int blockSize = 1);
  50:../libs/libDaisy/../../libs/DaisySP/Source/Control/adsr.h ****     /**
  51:../libs/libDaisy/../../libs/DaisySP/Source/Control/adsr.h ****      \function Retrigger forces the envelope back to attack phase
  52:../libs/libDaisy/../../libs/DaisySP/Source/Control/adsr.h ****      \param hard  resets the history to zero, results in a click.
  53:../libs/libDaisy/../../libs/DaisySP/Source/Control/adsr.h ****      */
  54:../libs/libDaisy/../../libs/DaisySP/Source/Control/adsr.h ****     void Retrigger(bool hard);
  55:../libs/libDaisy/../../libs/DaisySP/Source/Control/adsr.h ****     /** Processes one sample through the filter and returns one sample.
  56:../libs/libDaisy/../../libs/DaisySP/Source/Control/adsr.h ****         \param gate - trigger the envelope, hold it to sustain 
  57:../libs/libDaisy/../../libs/DaisySP/Source/Control/adsr.h ****     */
  58:../libs/libDaisy/../../libs/DaisySP/Source/Control/adsr.h ****     float Process(bool gate);
  59:../libs/libDaisy/../../libs/DaisySP/Source/Control/adsr.h ****     /** Sets time
  60:../libs/libDaisy/../../libs/DaisySP/Source/Control/adsr.h ****         Set time per segment in seconds
  61:../libs/libDaisy/../../libs/DaisySP/Source/Control/adsr.h ****     */
  62:../libs/libDaisy/../../libs/DaisySP/Source/Control/adsr.h ****     void SetTime(int seg, float time);
  63:../libs/libDaisy/../../libs/DaisySP/Source/Control/adsr.h ****     void SetAttackTime(float timeInS, float shape = 0.0f);
  64:../libs/libDaisy/../../libs/DaisySP/Source/Control/adsr.h ****     void SetDecayTime(float timeInS);
  65:../libs/libDaisy/../../libs/DaisySP/Source/Control/adsr.h ****     void SetReleaseTime(float timeInS);
  66:../libs/libDaisy/../../libs/DaisySP/Source/Control/adsr.h **** 
  67:../libs/libDaisy/../../libs/DaisySP/Source/Control/adsr.h ****   private:
  68:../libs/libDaisy/../../libs/DaisySP/Source/Control/adsr.h ****     void SetTimeConstant(float timeInS, float& time, float& coeff);
  69:../libs/libDaisy/../../libs/DaisySP/Source/Control/adsr.h **** 
  70:../libs/libDaisy/../../libs/DaisySP/Source/Control/adsr.h ****   public:
  71:../libs/libDaisy/../../libs/DaisySP/Source/Control/adsr.h ****     /** Sustain level
  72:../libs/libDaisy/../../libs/DaisySP/Source/Control/adsr.h ****         \param sus_level - sets sustain level, 0...1.0
  73:../libs/libDaisy/../../libs/DaisySP/Source/Control/adsr.h ****     */
ARM GAS  C:\Users\skipi\AppData\Local\Temp\ccY7P3ru.s 			page 29


  74:../libs/libDaisy/../../libs/DaisySP/Source/Control/adsr.h ****     inline void SetSustainLevel(float sus_level)
 671              		.loc 7 74 17 view .LVU172
 672              	.LBB352:
  75:../libs/libDaisy/../../libs/DaisySP/Source/Control/adsr.h ****     {
  76:../libs/libDaisy/../../libs/DaisySP/Source/Control/adsr.h ****         sus_level = (sus_level <= 0.f) ? -0.01f // forces envelope into idle
 673              		.loc 7 76 9 view .LVU173
  77:../libs/libDaisy/../../libs/DaisySP/Source/Control/adsr.h ****                                        : (sus_level > 1.f) ? 1.f : sus_level;
  78:../libs/libDaisy/../../libs/DaisySP/Source/Control/adsr.h ****         sus_level_ = sus_level;
 674              		.loc 7 78 9 view .LVU174
 675              		.loc 7 78 20 is_stmt 0 view .LVU175
 676 00b4 234B     		ldr	r3, .L30+36
 677              	.LBE352:
 678              	.LBE351:
  59:PSP.cpp       ****     env.SetTime(ADSR_SEG_RELEASE, 0.5f);
 679              		.loc 10 59 16 view .LVU176
 680 00b6 0421     		movs	r1, #4
 681              	.LBB354:
 682              	.LBB355:
 683              	.LBB356:
 684              	.LBB357:
  51:../libs/libDaisy/../../libs/DaisySP/Source/Filters/onepole.h **** 
 685              		.loc 9 51 34 view .LVU177
 686 00b8 234C     		ldr	r4, .L30+40
 687              	.LBE357:
 688              	.LBE356:
 689              	.LBE355:
 690              	.LBE354:
 691              		.loc 10 59 16 view .LVU178
 692 00ba B0EE480A 		vmov.f32	s0, s16
 693 00be 2846     		mov	r0, r5
 694              	.LBB364:
 695              	.LBB353:
 696              		.loc 7 78 20 view .LVU179
 697 00c0 2B60     		str	r3, [r5]	@ float
 698              	.LVL40:
 699              		.loc 7 78 20 view .LVU180
 700              	.LBE353:
 701              	.LBE364:
 702              		.loc 10 59 5 is_stmt 1 view .LVU181
 703              		.loc 10 59 16 is_stmt 0 view .LVU182
 704 00c2 FFF7FEFF 		bl	_ZN7daisysp4Adsr7SetTimeEif
 705              	.LVL41:
  60:PSP.cpp       **** 
  61:PSP.cpp       ****     SmoothFreq.Init();
 706              		.loc 10 61 5 is_stmt 1 view .LVU183
 707              	.LBB365:
 708              	.LBI354:
  44:../libs/libDaisy/../../libs/DaisySP/Source/Filters/onepole.h ****     {
 709              		.loc 9 44 10 view .LVU184
 710              	.LBB362:
  46:../libs/libDaisy/../../libs/DaisySP/Source/Filters/onepole.h ****         mode_ = FILTER_MODE_LOW_PASS;
 711              		.loc 9 46 9 view .LVU185
 712              	.LBB360:
 713              	.LBI356:
  51:../libs/libDaisy/../../libs/DaisySP/Source/Filters/onepole.h **** 
 714              		.loc 9 51 17 view .LVU186
 715              	.LBB358:
ARM GAS  C:\Users\skipi\AppData\Local\Temp\ccY7P3ru.s 			page 30


  51:../libs/libDaisy/../../libs/DaisySP/Source/Filters/onepole.h **** 
 716              		.loc 9 51 27 view .LVU187
 717              	.LBE358:
 718              	.LBE360:
 719              	.LBE362:
 720              	.LBE365:
  62:PSP.cpp       ****     SmoothFreq.SetFrequency(10/hw.AudioSampleRate()); // 10 Hz smoothing
 721              		.loc 10 62 50 is_stmt 0 view .LVU188
 722 00c6 1648     		ldr	r0, .L30
 723              	.LBB366:
 724              	.LBB363:
 725              	.LBB361:
 726              	.LBB359:
  51:../libs/libDaisy/../../libs/DaisySP/Source/Filters/onepole.h **** 
 727              		.loc 9 51 34 view .LVU189
 728 00c8 A760     		str	r7, [r4, #8]	@ float
 729              	.LVL42:
  51:../libs/libDaisy/../../libs/DaisySP/Source/Filters/onepole.h **** 
 730              		.loc 9 51 34 view .LVU190
 731              	.LBE359:
 732              	.LBE361:
  47:../libs/libDaisy/../../libs/DaisySP/Source/Filters/onepole.h ****     }
 733              		.loc 9 47 9 is_stmt 1 view .LVU191
  47:../libs/libDaisy/../../libs/DaisySP/Source/Filters/onepole.h ****     }
 734              		.loc 9 47 15 is_stmt 0 view .LVU192
 735 00ca 2673     		strb	r6, [r4, #12]
 736              	.LVL43:
  47:../libs/libDaisy/../../libs/DaisySP/Source/Filters/onepole.h ****     }
 737              		.loc 9 47 15 view .LVU193
 738              	.LBE363:
 739              	.LBE366:
 740              		.loc 10 62 5 is_stmt 1 view .LVU194
 741              		.loc 10 62 50 is_stmt 0 view .LVU195
 742 00cc FFF7FEFF 		bl	_ZN5daisy9DaisySeed15AudioSampleRateEv
 743              	.LVL44:
 744              		.loc 10 62 28 view .LVU196
 745 00d0 B2EE046A 		vmov.f32	s12, #1.0e+1
 746              	.LBB367:
 747              	.LBB368:
  59:../libs/libDaisy/../../libs/DaisySP/Source/Filters/onepole.h **** 
 748              		.loc 9 59 30 view .LVU197
 749 00d4 9FED1D7A 		vldr.32	s14, .L30+44
  61:../libs/libDaisy/../../libs/DaisySP/Source/Filters/onepole.h ****         gi_ = 1.f / (1.f + g_);
 750              		.loc 9 61 19 view .LVU198
 751 00d8 DFED1D6A 		vldr.32	s13, .L30+48
 752              	.LBE368:
 753              	.LBE367:
 754              		.loc 10 62 28 view .LVU199
 755 00dc C6EE007A 		vdiv.f32	s15, s12, s0
 756              	.LVL45:
 757              	.LBB371:
 758              	.LBI367:
  56:../libs/libDaisy/../../libs/DaisySP/Source/Filters/onepole.h ****     {
 759              		.loc 9 56 17 is_stmt 1 view .LVU200
 760              	.LBB369:
  59:../libs/libDaisy/../../libs/DaisySP/Source/Filters/onepole.h **** 
 761              		.loc 9 59 9 view .LVU201
ARM GAS  C:\Users\skipi\AppData\Local\Temp\ccY7P3ru.s 			page 31


  59:../libs/libDaisy/../../libs/DaisySP/Source/Filters/onepole.h **** 
 762              		.loc 9 59 30 is_stmt 0 view .LVU202
 763 00e0 F4EEC77A 		vcmpe.f32	s15, s14
 764 00e4 F1EE10FA 		vmrs	APSR_nzcv, FPSCR
 765 00e8 58BF     		it	pl
 766 00ea F0EE477A 		vmovpl.f32	s15, s14
 767              	.LVL46:
  61:../libs/libDaisy/../../libs/DaisySP/Source/Filters/onepole.h ****         gi_ = 1.f / (1.f + g_);
 768              		.loc 9 61 9 is_stmt 1 view .LVU203
  61:../libs/libDaisy/../../libs/DaisySP/Source/Filters/onepole.h ****         gi_ = 1.f / (1.f + g_);
 769              		.loc 9 61 19 is_stmt 0 view .LVU204
 770 00ee 27EEA60A 		vmul.f32	s0, s15, s13
 771 00f2 FFF7FEFF 		bl	tanf
 772              	.LVL47:
  62:../libs/libDaisy/../../libs/DaisySP/Source/Filters/onepole.h ****     }
 773              		.loc 9 62 26 view .LVU205
 774 00f6 F7EE007A 		vmov.f32	s15, #1.0e+0
 775              	.LBE369:
 776              	.LBE371:
  63:PSP.cpp       **** 
  64:PSP.cpp       ****     hw.StartAudio(AudioCallback);
 777              		.loc 10 64 18 view .LVU206
 778 00fa 1649     		ldr	r1, .L30+52
 779 00fc 0848     		ldr	r0, .L30
 780              	.LBB372:
 781              	.LBB370:
  62:../libs/libDaisy/../../libs/DaisySP/Source/Filters/onepole.h ****     }
 782              		.loc 9 62 26 view .LVU207
 783 00fe 70EE276A 		vadd.f32	s13, s0, s15
  61:../libs/libDaisy/../../libs/DaisySP/Source/Filters/onepole.h ****         gi_ = 1.f / (1.f + g_);
 784              		.loc 9 61 13 view .LVU208
 785 0102 84ED000A 		vstr.32	s0, [r4]
  62:../libs/libDaisy/../../libs/DaisySP/Source/Filters/onepole.h ****     }
 786              		.loc 9 62 9 is_stmt 1 view .LVU209
  62:../libs/libDaisy/../../libs/DaisySP/Source/Filters/onepole.h ****     }
 787              		.loc 9 62 19 is_stmt 0 view .LVU210
 788 0106 87EEA67A 		vdiv.f32	s14, s15, s13
  62:../libs/libDaisy/../../libs/DaisySP/Source/Filters/onepole.h ****     }
 789              		.loc 9 62 13 view .LVU211
 790 010a 84ED017A 		vstr.32	s14, [r4, #4]
 791              	.LVL48:
  62:../libs/libDaisy/../../libs/DaisySP/Source/Filters/onepole.h ****     }
 792              		.loc 9 62 13 view .LVU212
 793              	.LBE370:
 794              	.LBE372:
 795              		.loc 10 64 5 is_stmt 1 view .LVU213
 796              		.loc 10 64 18 is_stmt 0 view .LVU214
 797 010e FFF7FEFF 		bl	_ZN5daisy9DaisySeed10StartAudioEPFvPKfPfjE
 798              	.LVL49:
 799              	.L28:
  65:PSP.cpp       **** 
  66:PSP.cpp       ****     while(1)
 800              		.loc 10 66 5 is_stmt 1 discriminator 1 view .LVU215
  67:PSP.cpp       ****     {
  68:PSP.cpp       **** 
  69:PSP.cpp       ****         control.Update();
 801              		.loc 10 69 9 discriminator 1 view .LVU216
ARM GAS  C:\Users\skipi\AppData\Local\Temp\ccY7P3ru.s 			page 32


 802              		.loc 10 69 23 is_stmt 0 discriminator 1 view .LVU217
 803 0112 0448     		ldr	r0, .L30+4
 804 0114 FFF7FEFF 		bl	_ZN12ControlPanel6UpdateEv
 805              	.LVL50:
  70:PSP.cpp       **** 
  71:PSP.cpp       ****         System::Delay(5); // Loop a 200Hz
 806              		.loc 10 71 9 is_stmt 1 discriminator 1 view .LVU218
 807              		.loc 10 71 22 is_stmt 0 discriminator 1 view .LVU219
 808 0118 0520     		movs	r0, #5
 809 011a FFF7FEFF 		bl	_ZN5daisy6System5DelayEm
 810              	.LVL51:
  66:PSP.cpp       ****     {
 811              		.loc 10 66 5 is_stmt 1 discriminator 1 view .LVU220
 812 011e F8E7     		b	.L28
 813              	.L31:
 814              		.align	2
 815              	.L30:
 816 0120 00000000 		.word	.LANCHOR4
 817 0124 00000000 		.word	.LANCHOR0
 818 0128 00000000 		.word	.LANCHOR2
 819 012c 0000C842 		.word	1120403456
 820 0130 00000000 		.word	.LANCHOR3
 821 0134 0000DC43 		.word	1138491392
 822 0138 9A99593F 		.word	1062836634
 823 013c CDCC4C3D 		.word	1028443341
 824 0140 CDCCCC3D 		.word	1036831949
 825 0144 3333333F 		.word	1060320051
 826 0148 00000000 		.word	.LANCHOR1
 827 014c C976FE3E 		.word	1056863945
 828 0150 DB0F4940 		.word	1078530011
 829 0154 00000000 		.word	_ZL13AudioCallbackPKfPfj
 830              		.cfi_endproc
 831              	.LFE4851:
 833              		.section	.text.startup._GLOBAL__sub_I_hw,"ax",%progbits
 834              		.align	1
 835              		.p2align 2,,3
 836              		.syntax unified
 837              		.thumb
 838              		.thumb_func
 839              		.fpu fpv5-d16
 841              	_GLOBAL__sub_I_hw:
 842              	.LFB5417:
  72:PSP.cpp       ****     }
  73:PSP.cpp       **** }...
 843              		.loc 10 73 1 view -0
 844              		.cfi_startproc
 845              		@ args = 0, pretend = 0, frame = 0
 846              		@ frame_needed = 0, uses_anonymous_args = 0
 847              	.LBB477:
 848              	.LBI477:
 849              		.loc 10 73 1 view .LVU222
 850              	.LVL52:
 851              	.LBB478:
 852              	.LBB479:
 853              	.LBI479:
  21:../libs/libDaisy/../../libs/libDaisy/src/daisy_seed.h ****     ~DaisySeed() {}
 854              		.loc 1 21 5 view .LVU223
ARM GAS  C:\Users\skipi\AppData\Local\Temp\ccY7P3ru.s 			page 33


 855              	.LBB480:
 856              	.LBB481:
 857              	.LBI481:
 858              		.file 14 "../libs/libDaisy/../../libs/libDaisy/src/per/qspi.h"
   1:../libs/libDaisy/../../libs/libDaisy/src/per/qspi.h **** #ifndef DSY_QSPI
   2:../libs/libDaisy/../../libs/libDaisy/src/per/qspi.h **** #define DSY_QSPI /**< Macro */
   3:../libs/libDaisy/../../libs/libDaisy/src/per/qspi.h **** 
   4:../libs/libDaisy/../../libs/libDaisy/src/per/qspi.h **** #ifndef UNIT_TEST // for unit tests, a dummy implementation
   5:../libs/libDaisy/../../libs/libDaisy/src/per/qspi.h **** 
   6:../libs/libDaisy/../../libs/libDaisy/src/per/qspi.h **** #include <cstdint>
   7:../libs/libDaisy/../../libs/libDaisy/src/per/qspi.h **** #include "daisy_core.h"
   8:../libs/libDaisy/../../libs/libDaisy/src/per/qspi.h **** #include "util/hal_map.h"
   9:../libs/libDaisy/../../libs/libDaisy/src/per/qspi.h **** 
  10:../libs/libDaisy/../../libs/libDaisy/src/per/qspi.h **** #define DSY_QSPI_TEXT       \
  11:../libs/libDaisy/../../libs/libDaisy/src/per/qspi.h ****     __attribute__((section( \
  12:../libs/libDaisy/../../libs/libDaisy/src/per/qspi.h ****         ".qspiflash_text"))) /**< used for reading memory in memory_mapped mode. */
  13:../libs/libDaisy/../../libs/libDaisy/src/per/qspi.h **** #define DSY_QSPI_DATA       \
  14:../libs/libDaisy/../../libs/libDaisy/src/per/qspi.h ****     __attribute__((section( \
  15:../libs/libDaisy/../../libs/libDaisy/src/per/qspi.h ****         ".qspiflash_data"))) /**< used for reading memory in memory_mapped mode. */
  16:../libs/libDaisy/../../libs/libDaisy/src/per/qspi.h **** #define DSY_QSPI_BSS        \
  17:../libs/libDaisy/../../libs/libDaisy/src/per/qspi.h ****     __attribute__((section( \
  18:../libs/libDaisy/../../libs/libDaisy/src/per/qspi.h ****         ".qspiflash_bss"))) /**< used for reading memory in memory_mapped mode. */
  19:../libs/libDaisy/../../libs/libDaisy/src/per/qspi.h **** 
  20:../libs/libDaisy/../../libs/libDaisy/src/per/qspi.h **** namespace daisy
  21:../libs/libDaisy/../../libs/libDaisy/src/per/qspi.h **** {
  22:../libs/libDaisy/../../libs/libDaisy/src/per/qspi.h **** /** @addtogroup serial
  23:../libs/libDaisy/../../libs/libDaisy/src/per/qspi.h **** @{
  24:../libs/libDaisy/../../libs/libDaisy/src/per/qspi.h **** */
  25:../libs/libDaisy/../../libs/libDaisy/src/per/qspi.h **** 
  26:../libs/libDaisy/../../libs/libDaisy/src/per/qspi.h **** /**
  27:../libs/libDaisy/../../libs/libDaisy/src/per/qspi.h ****  Driver for QSPI peripheral to interface with external flash memory. \n
  28:../libs/libDaisy/../../libs/libDaisy/src/per/qspi.h ****     Currently supported QSPI Devices: \n
  29:../libs/libDaisy/../../libs/libDaisy/src/per/qspi.h ****     * IS25LP080D
  30:../libs/libDaisy/../../libs/libDaisy/src/per/qspi.h **** */
  31:../libs/libDaisy/../../libs/libDaisy/src/per/qspi.h **** class QSPIHandle
  32:../libs/libDaisy/../../libs/libDaisy/src/per/qspi.h **** {
  33:../libs/libDaisy/../../libs/libDaisy/src/per/qspi.h ****   public:
  34:../libs/libDaisy/../../libs/libDaisy/src/per/qspi.h ****     enum Result
  35:../libs/libDaisy/../../libs/libDaisy/src/per/qspi.h ****     {
  36:../libs/libDaisy/../../libs/libDaisy/src/per/qspi.h ****         OK = 0,
  37:../libs/libDaisy/../../libs/libDaisy/src/per/qspi.h ****         ERR
  38:../libs/libDaisy/../../libs/libDaisy/src/per/qspi.h ****     };
  39:../libs/libDaisy/../../libs/libDaisy/src/per/qspi.h **** 
  40:../libs/libDaisy/../../libs/libDaisy/src/per/qspi.h ****     /** Indicates the current status of the module.
  41:../libs/libDaisy/../../libs/libDaisy/src/per/qspi.h ****          *  Warnings are indicated by a leading W.
  42:../libs/libDaisy/../../libs/libDaisy/src/per/qspi.h ****          *  Errors are indicated by a leading E and cause an immediate exit.
  43:../libs/libDaisy/../../libs/libDaisy/src/per/qspi.h ****          *
  44:../libs/libDaisy/../../libs/libDaisy/src/per/qspi.h ****          *  \param GOOD - No errors have been reported.
  45:../libs/libDaisy/../../libs/libDaisy/src/per/qspi.h ****          *  \param E_HAL_ERROR - HAL code did not return HAL_OK.
  46:../libs/libDaisy/../../libs/libDaisy/src/per/qspi.h ****          *  \param E_SWITCHING_MODES - An error was encountered while switching QSPI peripheral mod
  47:../libs/libDaisy/../../libs/libDaisy/src/per/qspi.h ****          *  \param E_INVALID_MODE - QSPI should not be written to while the program is executing fr
  48:../libs/libDaisy/../../libs/libDaisy/src/per/qspi.h ****          */
  49:../libs/libDaisy/../../libs/libDaisy/src/per/qspi.h ****     enum Status
  50:../libs/libDaisy/../../libs/libDaisy/src/per/qspi.h ****     {
  51:../libs/libDaisy/../../libs/libDaisy/src/per/qspi.h ****         GOOD = 0,
  52:../libs/libDaisy/../../libs/libDaisy/src/per/qspi.h ****         E_HAL_ERROR,
  53:../libs/libDaisy/../../libs/libDaisy/src/per/qspi.h ****         E_SWITCHING_MODES,
ARM GAS  C:\Users\skipi\AppData\Local\Temp\ccY7P3ru.s 			page 34


  54:../libs/libDaisy/../../libs/libDaisy/src/per/qspi.h ****         E_INVALID_MODE,
  55:../libs/libDaisy/../../libs/libDaisy/src/per/qspi.h ****     };
  56:../libs/libDaisy/../../libs/libDaisy/src/per/qspi.h **** 
  57:../libs/libDaisy/../../libs/libDaisy/src/per/qspi.h ****     /** Configuration structure for interfacing with QSPI Driver */
  58:../libs/libDaisy/../../libs/libDaisy/src/per/qspi.h ****     struct Config
  59:../libs/libDaisy/../../libs/libDaisy/src/per/qspi.h ****     {
  60:../libs/libDaisy/../../libs/libDaisy/src/per/qspi.h ****         /** Flash Devices supported. (Both of these are more-or-less the same, just different sizes
  61:../libs/libDaisy/../../libs/libDaisy/src/per/qspi.h ****         enum Device
  62:../libs/libDaisy/../../libs/libDaisy/src/per/qspi.h ****         {
  63:../libs/libDaisy/../../libs/libDaisy/src/per/qspi.h ****             IS25LP080D,  /**< & */
  64:../libs/libDaisy/../../libs/libDaisy/src/per/qspi.h ****             IS25LP064A,  /**< & */
  65:../libs/libDaisy/../../libs/libDaisy/src/per/qspi.h ****             DEVICE_LAST, /**< & */
  66:../libs/libDaisy/../../libs/libDaisy/src/per/qspi.h ****         };
  67:../libs/libDaisy/../../libs/libDaisy/src/per/qspi.h **** 
  68:../libs/libDaisy/../../libs/libDaisy/src/per/qspi.h ****         /**
  69:../libs/libDaisy/../../libs/libDaisy/src/per/qspi.h ****         Modes of operation.
  70:../libs/libDaisy/../../libs/libDaisy/src/per/qspi.h ****         Memory Mapped mode: QSPI configured so that the QSPI can be
  71:../libs/libDaisy/../../libs/libDaisy/src/per/qspi.h ****         read from starting address 0x90000000. Writing is not
  72:../libs/libDaisy/../../libs/libDaisy/src/per/qspi.h ****         possible in this mode. \n
  73:../libs/libDaisy/../../libs/libDaisy/src/per/qspi.h ****         Indirect Polling mode: Device driver enabled.
  74:../libs/libDaisy/../../libs/libDaisy/src/per/qspi.h ****         */
  75:../libs/libDaisy/../../libs/libDaisy/src/per/qspi.h ****         enum Mode
  76:../libs/libDaisy/../../libs/libDaisy/src/per/qspi.h ****         {
  77:../libs/libDaisy/../../libs/libDaisy/src/per/qspi.h ****             MEMORY_MAPPED,    /**< & */
  78:../libs/libDaisy/../../libs/libDaisy/src/per/qspi.h ****             INDIRECT_POLLING, /**< & */
  79:../libs/libDaisy/../../libs/libDaisy/src/per/qspi.h ****             MODE_LAST,
  80:../libs/libDaisy/../../libs/libDaisy/src/per/qspi.h ****         };
  81:../libs/libDaisy/../../libs/libDaisy/src/per/qspi.h **** 
  82:../libs/libDaisy/../../libs/libDaisy/src/per/qspi.h ****         //SCK,  CE# (active low)
  83:../libs/libDaisy/../../libs/libDaisy/src/per/qspi.h ****         struct
  84:../libs/libDaisy/../../libs/libDaisy/src/per/qspi.h ****         {
  85:../libs/libDaisy/../../libs/libDaisy/src/per/qspi.h ****             Pin io0; /**< & */
  86:../libs/libDaisy/../../libs/libDaisy/src/per/qspi.h ****             Pin io1; /**< & */
  87:../libs/libDaisy/../../libs/libDaisy/src/per/qspi.h ****             Pin io2; /**< & */
  88:../libs/libDaisy/../../libs/libDaisy/src/per/qspi.h ****             Pin io3; /**< & */
  89:../libs/libDaisy/../../libs/libDaisy/src/per/qspi.h ****             Pin clk; /**< & */
  90:../libs/libDaisy/../../libs/libDaisy/src/per/qspi.h ****             Pin ncs; /**< & */
  91:../libs/libDaisy/../../libs/libDaisy/src/per/qspi.h ****         } pin_config;
  92:../libs/libDaisy/../../libs/libDaisy/src/per/qspi.h **** 
  93:../libs/libDaisy/../../libs/libDaisy/src/per/qspi.h ****         Device device;
  94:../libs/libDaisy/../../libs/libDaisy/src/per/qspi.h ****         Mode   mode;
  95:../libs/libDaisy/../../libs/libDaisy/src/per/qspi.h ****     };
  96:../libs/libDaisy/../../libs/libDaisy/src/per/qspi.h **** 
  97:../libs/libDaisy/../../libs/libDaisy/src/per/qspi.h ****     /**
  98:../libs/libDaisy/../../libs/libDaisy/src/per/qspi.h ****         Initializes QSPI peripheral, and Resets, and prepares memory for access.
  99:../libs/libDaisy/../../libs/libDaisy/src/per/qspi.h ****         \param config should be populated with the mode, device and pin_config before calling this 
 100:../libs/libDaisy/../../libs/libDaisy/src/per/qspi.h ****         \return Result::OK or Result::ERR
 101:../libs/libDaisy/../../libs/libDaisy/src/per/qspi.h ****         */
 102:../libs/libDaisy/../../libs/libDaisy/src/per/qspi.h ****     Result Init(const Config& config);
 103:../libs/libDaisy/../../libs/libDaisy/src/per/qspi.h **** 
 104:../libs/libDaisy/../../libs/libDaisy/src/per/qspi.h ****     /** Returns the current config. */
 105:../libs/libDaisy/../../libs/libDaisy/src/per/qspi.h ****     const Config& GetConfig() const;
 106:../libs/libDaisy/../../libs/libDaisy/src/per/qspi.h **** 
 107:../libs/libDaisy/../../libs/libDaisy/src/per/qspi.h ****     // Couldn't this just be called before anything else in init? That
 108:../libs/libDaisy/../../libs/libDaisy/src/per/qspi.h ****     // would make manually calling it unnecessary.
 109:../libs/libDaisy/../../libs/libDaisy/src/per/qspi.h ****     /**
 110:../libs/libDaisy/../../libs/libDaisy/src/per/qspi.h ****         Deinitializes the peripheral
ARM GAS  C:\Users\skipi\AppData\Local\Temp\ccY7P3ru.s 			page 35


 111:../libs/libDaisy/../../libs/libDaisy/src/per/qspi.h ****         This should be called before reinitializing QSPI in a different mode.
 112:../libs/libDaisy/../../libs/libDaisy/src/per/qspi.h ****         \return Result::OK or Result::ERR
 113:../libs/libDaisy/../../libs/libDaisy/src/per/qspi.h ****         */
 114:../libs/libDaisy/../../libs/libDaisy/src/per/qspi.h ****     Result DeInit();
 115:../libs/libDaisy/../../libs/libDaisy/src/per/qspi.h **** 
 116:../libs/libDaisy/../../libs/libDaisy/src/per/qspi.h ****     /**
 117:../libs/libDaisy/../../libs/libDaisy/src/per/qspi.h ****         Writes a single page to to the specified address on the QSPI chip.
 118:../libs/libDaisy/../../libs/libDaisy/src/per/qspi.h ****         For IS25LP*, page size is 256 bytes.
 119:../libs/libDaisy/../../libs/libDaisy/src/per/qspi.h ****         \param address Address to write to
 120:../libs/libDaisy/../../libs/libDaisy/src/per/qspi.h ****         \param size Buffer size
 121:../libs/libDaisy/../../libs/libDaisy/src/per/qspi.h ****         \param buffer Buffer to write
 122:../libs/libDaisy/../../libs/libDaisy/src/per/qspi.h ****         \return Result::OK or Result::ERR
 123:../libs/libDaisy/../../libs/libDaisy/src/per/qspi.h ****         */
 124:../libs/libDaisy/../../libs/libDaisy/src/per/qspi.h ****     Result WritePage(uint32_t address, uint32_t size, uint8_t* buffer);
 125:../libs/libDaisy/../../libs/libDaisy/src/per/qspi.h **** 
 126:../libs/libDaisy/../../libs/libDaisy/src/per/qspi.h ****     /**
 127:../libs/libDaisy/../../libs/libDaisy/src/per/qspi.h ****         Writes data in buffer to to the QSPI. Starting at address to address+size
 128:../libs/libDaisy/../../libs/libDaisy/src/per/qspi.h ****         \param address Address to write to
 129:../libs/libDaisy/../../libs/libDaisy/src/per/qspi.h ****         \param size Buffer size
 130:../libs/libDaisy/../../libs/libDaisy/src/per/qspi.h ****         \param buffer Buffer to write
 131:../libs/libDaisy/../../libs/libDaisy/src/per/qspi.h ****         \return Result::OK or Result::ERR
 132:../libs/libDaisy/../../libs/libDaisy/src/per/qspi.h ****         */
 133:../libs/libDaisy/../../libs/libDaisy/src/per/qspi.h ****     Result Write(uint32_t address, uint32_t size, uint8_t* buffer);
 134:../libs/libDaisy/../../libs/libDaisy/src/per/qspi.h **** 
 135:../libs/libDaisy/../../libs/libDaisy/src/per/qspi.h ****     /**
 136:../libs/libDaisy/../../libs/libDaisy/src/per/qspi.h ****         Erases the area specified on the chip.
 137:../libs/libDaisy/../../libs/libDaisy/src/per/qspi.h ****         Erasures will happen by 4K, 32K or 64K increments.
 138:../libs/libDaisy/../../libs/libDaisy/src/per/qspi.h ****         Smallest erase possible is 4kB at a time. (on IS25LP*)
 139:../libs/libDaisy/../../libs/libDaisy/src/per/qspi.h ****         \param start_addr Address to begin erasing from
 140:../libs/libDaisy/../../libs/libDaisy/src/per/qspi.h ****         \param end_addr  Address to stop erasing at
 141:../libs/libDaisy/../../libs/libDaisy/src/per/qspi.h ****         \return Result::OK or Result::ERR
 142:../libs/libDaisy/../../libs/libDaisy/src/per/qspi.h ****         */
 143:../libs/libDaisy/../../libs/libDaisy/src/per/qspi.h ****     Result Erase(uint32_t start_addr, uint32_t end_addr);
 144:../libs/libDaisy/../../libs/libDaisy/src/per/qspi.h **** 
 145:../libs/libDaisy/../../libs/libDaisy/src/per/qspi.h ****     /**
 146:../libs/libDaisy/../../libs/libDaisy/src/per/qspi.h ****          Erases a single sector of the chip.
 147:../libs/libDaisy/../../libs/libDaisy/src/per/qspi.h ****         TODO: Document the size of this function.
 148:../libs/libDaisy/../../libs/libDaisy/src/per/qspi.h ****         \param address Address of sector to erase
 149:../libs/libDaisy/../../libs/libDaisy/src/per/qspi.h ****         \return Result::OK or Result::ERR
 150:../libs/libDaisy/../../libs/libDaisy/src/per/qspi.h ****         */
 151:../libs/libDaisy/../../libs/libDaisy/src/per/qspi.h ****     Result EraseSector(uint32_t address);
 152:../libs/libDaisy/../../libs/libDaisy/src/per/qspi.h **** 
 153:../libs/libDaisy/../../libs/libDaisy/src/per/qspi.h ****     /** Returns the current class status. Useful for debugging.
 154:../libs/libDaisy/../../libs/libDaisy/src/per/qspi.h ****      *  \returns Status
 155:../libs/libDaisy/../../libs/libDaisy/src/per/qspi.h ****      */
 156:../libs/libDaisy/../../libs/libDaisy/src/per/qspi.h ****     Status GetStatus();
 157:../libs/libDaisy/../../libs/libDaisy/src/per/qspi.h **** 
 158:../libs/libDaisy/../../libs/libDaisy/src/per/qspi.h ****     /** Returns a pointer to the actual memory used
 159:../libs/libDaisy/../../libs/libDaisy/src/per/qspi.h ****      *  The memory at this address is read-only
 160:../libs/libDaisy/../../libs/libDaisy/src/per/qspi.h ****      *  to write to it use the Write function.
 161:../libs/libDaisy/../../libs/libDaisy/src/per/qspi.h ****      *
 162:../libs/libDaisy/../../libs/libDaisy/src/per/qspi.h ****      *  \param offset returns the pointer starting this
 163:../libs/libDaisy/../../libs/libDaisy/src/per/qspi.h ****      *                many bytes into the memory
 164:../libs/libDaisy/../../libs/libDaisy/src/per/qspi.h ****     */
 165:../libs/libDaisy/../../libs/libDaisy/src/per/qspi.h ****     void* GetData(uint32_t offset = 0);
 166:../libs/libDaisy/../../libs/libDaisy/src/per/qspi.h **** 
 167:../libs/libDaisy/../../libs/libDaisy/src/per/qspi.h ****     QSPIHandle() : pimpl_(nullptr) {}
ARM GAS  C:\Users\skipi\AppData\Local\Temp\ccY7P3ru.s 			page 36


 859              		.loc 14 167 5 view .LVU224
 860              		.loc 14 167 5 is_stmt 0 view .LVU225
 861              	.LBE481:
 862              	.LBB486:
 863              	.LBI486:
  58:../libs/libDaisy/../../libs/libDaisy/src/per/qspi.h ****     {
 864              		.loc 14 58 12 is_stmt 1 view .LVU226
 865              	.LBB487:
 866              	.LBI487:
  84:../libs/libDaisy/../../libs/libDaisy/src/per/qspi.h ****             Pin io0; /**< & */
 867              		.loc 14 84 9 view .LVU227
 868              	.LBB488:
 869              	.LBI488:
 870              		.file 15 "../libs/libDaisy/../../libs/libDaisy/src/daisy_core.h"
   1:../libs/libDaisy/../../libs/libDaisy/src/daisy_core.h **** #pragma once
   2:../libs/libDaisy/../../libs/libDaisy/src/daisy_core.h **** #ifndef DSY_CORE_HW_H
   3:../libs/libDaisy/../../libs/libDaisy/src/daisy_core.h **** #define DSY_CORE_HW_H /**< & */
   4:../libs/libDaisy/../../libs/libDaisy/src/daisy_core.h **** #include <stdint.h>
   5:../libs/libDaisy/../../libs/libDaisy/src/daisy_core.h **** #include <stdlib.h>
   6:../libs/libDaisy/../../libs/libDaisy/src/daisy_core.h **** 
   7:../libs/libDaisy/../../libs/libDaisy/src/daisy_core.h **** #if defined(_MSC_VER)
   8:../libs/libDaisy/../../libs/libDaisy/src/daisy_core.h **** #define FORCE_INLINE __forceinline /**< & */
   9:../libs/libDaisy/../../libs/libDaisy/src/daisy_core.h **** #elif defined(__clang__)
  10:../libs/libDaisy/../../libs/libDaisy/src/daisy_core.h **** #define FORCE_INLINE inline __attribute__((always_inline)) /**< & */
  11:../libs/libDaisy/../../libs/libDaisy/src/daisy_core.h **** #pragma clang diagnostic ignored "-Wduplicate-decl-specifier"
  12:../libs/libDaisy/../../libs/libDaisy/src/daisy_core.h **** #elif defined(__GNUC__)
  13:../libs/libDaisy/../../libs/libDaisy/src/daisy_core.h **** #define FORCE_INLINE inline __attribute__((always_inline)) /**< & */
  14:../libs/libDaisy/../../libs/libDaisy/src/daisy_core.h **** #else
  15:../libs/libDaisy/../../libs/libDaisy/src/daisy_core.h **** #error unknown compiler
  16:../libs/libDaisy/../../libs/libDaisy/src/daisy_core.h **** #endif
  17:../libs/libDaisy/../../libs/libDaisy/src/daisy_core.h **** 
  18:../libs/libDaisy/../../libs/libDaisy/src/daisy_core.h **** /** @addtogroup utility
  19:../libs/libDaisy/../../libs/libDaisy/src/daisy_core.h ****     @{
  20:../libs/libDaisy/../../libs/libDaisy/src/daisy_core.h **** */
  21:../libs/libDaisy/../../libs/libDaisy/src/daisy_core.h **** 
  22:../libs/libDaisy/../../libs/libDaisy/src/daisy_core.h **** /** Macro for area of memory that is configured as cacheless
  23:../libs/libDaisy/../../libs/libDaisy/src/daisy_core.h **** This should be used primarily for DMA buffers, and the like.
  24:../libs/libDaisy/../../libs/libDaisy/src/daisy_core.h **** */
  25:../libs/libDaisy/../../libs/libDaisy/src/daisy_core.h **** #define DMA_BUFFER_MEM_SECTION __attribute__((section(".sram1_bss")))
  26:../libs/libDaisy/../../libs/libDaisy/src/daisy_core.h **** /** 
  27:../libs/libDaisy/../../libs/libDaisy/src/daisy_core.h **** THE DTCM RAM section is also non-cached. However, is not suitable 
  28:../libs/libDaisy/../../libs/libDaisy/src/daisy_core.h **** for DMA transfers. Performance is on par with internal SRAM w/ 
  29:../libs/libDaisy/../../libs/libDaisy/src/daisy_core.h **** cache enabled.
  30:../libs/libDaisy/../../libs/libDaisy/src/daisy_core.h **** */
  31:../libs/libDaisy/../../libs/libDaisy/src/daisy_core.h **** #define DTCM_MEM_SECTION __attribute__((section(".dtcmram_bss")))
  32:../libs/libDaisy/../../libs/libDaisy/src/daisy_core.h **** 
  33:../libs/libDaisy/../../libs/libDaisy/src/daisy_core.h **** #define FBIPMAX 0.999985f             /**< close to 1.0f-LSB at 16 bit */
  34:../libs/libDaisy/../../libs/libDaisy/src/daisy_core.h **** #define FBIPMIN (-FBIPMAX)            /**< - (1 - LSB) */
  35:../libs/libDaisy/../../libs/libDaisy/src/daisy_core.h **** #define U82F_SCALE 0.0078740f         /**< 1 / 127 */
  36:../libs/libDaisy/../../libs/libDaisy/src/daisy_core.h **** #define F2U8_SCALE 127.0f             /**< 128 - 1 */
  37:../libs/libDaisy/../../libs/libDaisy/src/daisy_core.h **** #define S82F_SCALE 0.0078125f         /**< 1 / (2**7) */
  38:../libs/libDaisy/../../libs/libDaisy/src/daisy_core.h **** #define F2S8_SCALE 127.0f             /**< (2 ** 7) - 1 */
  39:../libs/libDaisy/../../libs/libDaisy/src/daisy_core.h **** #define S162F_SCALE 3.0517578125e-05f /**< 1 / (2** 15) */
  40:../libs/libDaisy/../../libs/libDaisy/src/daisy_core.h **** #define F2S16_SCALE 32767.0f          /**< (2 ** 15) - 1 */
  41:../libs/libDaisy/../../libs/libDaisy/src/daisy_core.h **** #define F2S24_SCALE 8388608.0f        /**< 2 ** 23 */
  42:../libs/libDaisy/../../libs/libDaisy/src/daisy_core.h **** #define S242F_SCALE 1.192092896e-07f  /**< 1 / (2 ** 23) */
  43:../libs/libDaisy/../../libs/libDaisy/src/daisy_core.h **** #define S24SIGN 0x800000              /**< 2 ** 23 */
ARM GAS  C:\Users\skipi\AppData\Local\Temp\ccY7P3ru.s 			page 37


  44:../libs/libDaisy/../../libs/libDaisy/src/daisy_core.h **** #define S322F_SCALE 4.6566129e-10f    /**< 1 / (2** 31) */
  45:../libs/libDaisy/../../libs/libDaisy/src/daisy_core.h **** #define F2S32_SCALE 2147483647.f      /**< (2 ** 31) - 1 */
  46:../libs/libDaisy/../../libs/libDaisy/src/daisy_core.h **** 
  47:../libs/libDaisy/../../libs/libDaisy/src/daisy_core.h **** 
  48:../libs/libDaisy/../../libs/libDaisy/src/daisy_core.h **** /** shorthand macro for simplifying the reading of the left 
  49:../libs/libDaisy/../../libs/libDaisy/src/daisy_core.h ****  *  channel of a non-interleaved output buffer named out */
  50:../libs/libDaisy/../../libs/libDaisy/src/daisy_core.h **** #define OUT_L out[0]
  51:../libs/libDaisy/../../libs/libDaisy/src/daisy_core.h **** 
  52:../libs/libDaisy/../../libs/libDaisy/src/daisy_core.h **** /** shorthand macro for simplifying the reading of the right 
  53:../libs/libDaisy/../../libs/libDaisy/src/daisy_core.h ****  *  channel of a non-interleaved output buffer named out */
  54:../libs/libDaisy/../../libs/libDaisy/src/daisy_core.h **** #define OUT_R out[1]
  55:../libs/libDaisy/../../libs/libDaisy/src/daisy_core.h **** 
  56:../libs/libDaisy/../../libs/libDaisy/src/daisy_core.h **** /** shorthand macro for simplifying the reading of the left 
  57:../libs/libDaisy/../../libs/libDaisy/src/daisy_core.h ****  *  channel of a non-interleaved input buffer named in */
  58:../libs/libDaisy/../../libs/libDaisy/src/daisy_core.h **** #define IN_L in[0]
  59:../libs/libDaisy/../../libs/libDaisy/src/daisy_core.h **** 
  60:../libs/libDaisy/../../libs/libDaisy/src/daisy_core.h **** /** shorthand macro for simplifying the reading of the right 
  61:../libs/libDaisy/../../libs/libDaisy/src/daisy_core.h ****  *  channel of a non-interleaved input buffer named in */
  62:../libs/libDaisy/../../libs/libDaisy/src/daisy_core.h **** #define IN_R in[1]
  63:../libs/libDaisy/../../libs/libDaisy/src/daisy_core.h **** 
  64:../libs/libDaisy/../../libs/libDaisy/src/daisy_core.h **** /** 
  65:../libs/libDaisy/../../libs/libDaisy/src/daisy_core.h ****     Computes cube.
  66:../libs/libDaisy/../../libs/libDaisy/src/daisy_core.h ****     \param x Number to be cubed
  67:../libs/libDaisy/../../libs/libDaisy/src/daisy_core.h ****     \return x ^ 3
  68:../libs/libDaisy/../../libs/libDaisy/src/daisy_core.h **** */
  69:../libs/libDaisy/../../libs/libDaisy/src/daisy_core.h **** FORCE_INLINE float cube(float x)
  70:../libs/libDaisy/../../libs/libDaisy/src/daisy_core.h **** {
  71:../libs/libDaisy/../../libs/libDaisy/src/daisy_core.h ****     return (x * x) * x;
  72:../libs/libDaisy/../../libs/libDaisy/src/daisy_core.h **** }
  73:../libs/libDaisy/../../libs/libDaisy/src/daisy_core.h **** 
  74:../libs/libDaisy/../../libs/libDaisy/src/daisy_core.h **** /** 
  75:../libs/libDaisy/../../libs/libDaisy/src/daisy_core.h ****     Converts unsigned 8-bit to float
  76:../libs/libDaisy/../../libs/libDaisy/src/daisy_core.h ****     \param x Number to be scaled.
  77:../libs/libDaisy/../../libs/libDaisy/src/daisy_core.h ****     \return Scaled number.
  78:../libs/libDaisy/../../libs/libDaisy/src/daisy_core.h **** */
  79:../libs/libDaisy/../../libs/libDaisy/src/daisy_core.h **** FORCE_INLINE float u82f(uint8_t x)
  80:../libs/libDaisy/../../libs/libDaisy/src/daisy_core.h **** {
  81:../libs/libDaisy/../../libs/libDaisy/src/daisy_core.h ****     return ((float)x - 127.f) * U82F_SCALE;
  82:../libs/libDaisy/../../libs/libDaisy/src/daisy_core.h **** }
  83:../libs/libDaisy/../../libs/libDaisy/src/daisy_core.h **** 
  84:../libs/libDaisy/../../libs/libDaisy/src/daisy_core.h **** /**
  85:../libs/libDaisy/../../libs/libDaisy/src/daisy_core.h ****     Converts float to unsigned 8-bit
  86:../libs/libDaisy/../../libs/libDaisy/src/daisy_core.h **** */
  87:../libs/libDaisy/../../libs/libDaisy/src/daisy_core.h **** FORCE_INLINE uint8_t f2u8(float x)
  88:../libs/libDaisy/../../libs/libDaisy/src/daisy_core.h **** {
  89:../libs/libDaisy/../../libs/libDaisy/src/daisy_core.h ****     x = x <= FBIPMIN ? FBIPMIN : x;
  90:../libs/libDaisy/../../libs/libDaisy/src/daisy_core.h ****     x = x >= FBIPMAX ? FBIPMAX : x;
  91:../libs/libDaisy/../../libs/libDaisy/src/daisy_core.h ****     return (uint8_t)((x * F2U8_SCALE) + F2U8_SCALE);
  92:../libs/libDaisy/../../libs/libDaisy/src/daisy_core.h **** }
  93:../libs/libDaisy/../../libs/libDaisy/src/daisy_core.h **** 
  94:../libs/libDaisy/../../libs/libDaisy/src/daisy_core.h **** 
  95:../libs/libDaisy/../../libs/libDaisy/src/daisy_core.h **** /** 
  96:../libs/libDaisy/../../libs/libDaisy/src/daisy_core.h ****     Converts Signed 8-bit to float
  97:../libs/libDaisy/../../libs/libDaisy/src/daisy_core.h ****     \param x Number to be scaled.
  98:../libs/libDaisy/../../libs/libDaisy/src/daisy_core.h ****     \return Scaled number.
  99:../libs/libDaisy/../../libs/libDaisy/src/daisy_core.h **** */
 100:../libs/libDaisy/../../libs/libDaisy/src/daisy_core.h **** FORCE_INLINE float s82f(int8_t x)
ARM GAS  C:\Users\skipi\AppData\Local\Temp\ccY7P3ru.s 			page 38


 101:../libs/libDaisy/../../libs/libDaisy/src/daisy_core.h **** {
 102:../libs/libDaisy/../../libs/libDaisy/src/daisy_core.h ****     return (float)x * S82F_SCALE;
 103:../libs/libDaisy/../../libs/libDaisy/src/daisy_core.h **** }
 104:../libs/libDaisy/../../libs/libDaisy/src/daisy_core.h **** 
 105:../libs/libDaisy/../../libs/libDaisy/src/daisy_core.h **** /**
 106:../libs/libDaisy/../../libs/libDaisy/src/daisy_core.h ****     Converts float to Signed 8-bit
 107:../libs/libDaisy/../../libs/libDaisy/src/daisy_core.h **** */
 108:../libs/libDaisy/../../libs/libDaisy/src/daisy_core.h **** FORCE_INLINE int8_t f2s8(float x)
 109:../libs/libDaisy/../../libs/libDaisy/src/daisy_core.h **** {
 110:../libs/libDaisy/../../libs/libDaisy/src/daisy_core.h ****     x = x <= FBIPMIN ? FBIPMIN : x;
 111:../libs/libDaisy/../../libs/libDaisy/src/daisy_core.h ****     x = x >= FBIPMAX ? FBIPMAX : x;
 112:../libs/libDaisy/../../libs/libDaisy/src/daisy_core.h ****     return (int32_t)(x * F2S8_SCALE);
 113:../libs/libDaisy/../../libs/libDaisy/src/daisy_core.h **** }
 114:../libs/libDaisy/../../libs/libDaisy/src/daisy_core.h **** 
 115:../libs/libDaisy/../../libs/libDaisy/src/daisy_core.h **** /** 
 116:../libs/libDaisy/../../libs/libDaisy/src/daisy_core.h ****     Converts Signed 16-bit to float
 117:../libs/libDaisy/../../libs/libDaisy/src/daisy_core.h ****     \param x Number to be scaled.
 118:../libs/libDaisy/../../libs/libDaisy/src/daisy_core.h ****     \return Scaled number.
 119:../libs/libDaisy/../../libs/libDaisy/src/daisy_core.h **** */
 120:../libs/libDaisy/../../libs/libDaisy/src/daisy_core.h **** FORCE_INLINE float s162f(int16_t x)
 121:../libs/libDaisy/../../libs/libDaisy/src/daisy_core.h **** {
 122:../libs/libDaisy/../../libs/libDaisy/src/daisy_core.h ****     return (float)x * S162F_SCALE;
 123:../libs/libDaisy/../../libs/libDaisy/src/daisy_core.h **** }
 124:../libs/libDaisy/../../libs/libDaisy/src/daisy_core.h **** 
 125:../libs/libDaisy/../../libs/libDaisy/src/daisy_core.h **** /**
 126:../libs/libDaisy/../../libs/libDaisy/src/daisy_core.h ****     Converts float to Signed 16-bit
 127:../libs/libDaisy/../../libs/libDaisy/src/daisy_core.h **** */
 128:../libs/libDaisy/../../libs/libDaisy/src/daisy_core.h **** FORCE_INLINE int16_t f2s16(float x)
 129:../libs/libDaisy/../../libs/libDaisy/src/daisy_core.h **** {
 130:../libs/libDaisy/../../libs/libDaisy/src/daisy_core.h ****     x = x <= FBIPMIN ? FBIPMIN : x;
 131:../libs/libDaisy/../../libs/libDaisy/src/daisy_core.h ****     x = x >= FBIPMAX ? FBIPMAX : x;
 132:../libs/libDaisy/../../libs/libDaisy/src/daisy_core.h ****     return (int32_t)(x * F2S16_SCALE);
 133:../libs/libDaisy/../../libs/libDaisy/src/daisy_core.h **** }
 134:../libs/libDaisy/../../libs/libDaisy/src/daisy_core.h **** 
 135:../libs/libDaisy/../../libs/libDaisy/src/daisy_core.h **** /**
 136:../libs/libDaisy/../../libs/libDaisy/src/daisy_core.h ****     Converts Signed 24-bit to float
 137:../libs/libDaisy/../../libs/libDaisy/src/daisy_core.h ****  */
 138:../libs/libDaisy/../../libs/libDaisy/src/daisy_core.h **** FORCE_INLINE float s242f(int32_t x)
 139:../libs/libDaisy/../../libs/libDaisy/src/daisy_core.h **** {
 140:../libs/libDaisy/../../libs/libDaisy/src/daisy_core.h ****     x = (x ^ S24SIGN) - S24SIGN; //sign extend aka ((x<<8)>>8)
 141:../libs/libDaisy/../../libs/libDaisy/src/daisy_core.h ****     return (float)x * S242F_SCALE;
 142:../libs/libDaisy/../../libs/libDaisy/src/daisy_core.h **** }
 143:../libs/libDaisy/../../libs/libDaisy/src/daisy_core.h **** /**
 144:../libs/libDaisy/../../libs/libDaisy/src/daisy_core.h ****     Converts float to Signed 24-bit
 145:../libs/libDaisy/../../libs/libDaisy/src/daisy_core.h ****  */
 146:../libs/libDaisy/../../libs/libDaisy/src/daisy_core.h **** FORCE_INLINE int32_t f2s24(float x)
 147:../libs/libDaisy/../../libs/libDaisy/src/daisy_core.h **** {
 148:../libs/libDaisy/../../libs/libDaisy/src/daisy_core.h ****     x = x <= FBIPMIN ? FBIPMIN : x;
 149:../libs/libDaisy/../../libs/libDaisy/src/daisy_core.h ****     x = x >= FBIPMAX ? FBIPMAX : x;
 150:../libs/libDaisy/../../libs/libDaisy/src/daisy_core.h ****     return (int32_t)(x * F2S24_SCALE);
 151:../libs/libDaisy/../../libs/libDaisy/src/daisy_core.h **** }
 152:../libs/libDaisy/../../libs/libDaisy/src/daisy_core.h **** 
 153:../libs/libDaisy/../../libs/libDaisy/src/daisy_core.h **** /**
 154:../libs/libDaisy/../../libs/libDaisy/src/daisy_core.h ****     Converts Signed 32-bit to float
 155:../libs/libDaisy/../../libs/libDaisy/src/daisy_core.h ****  */
 156:../libs/libDaisy/../../libs/libDaisy/src/daisy_core.h **** FORCE_INLINE float s322f(int32_t x)
 157:../libs/libDaisy/../../libs/libDaisy/src/daisy_core.h **** {
ARM GAS  C:\Users\skipi\AppData\Local\Temp\ccY7P3ru.s 			page 39


 158:../libs/libDaisy/../../libs/libDaisy/src/daisy_core.h ****     return (float)x * S322F_SCALE;
 159:../libs/libDaisy/../../libs/libDaisy/src/daisy_core.h **** }
 160:../libs/libDaisy/../../libs/libDaisy/src/daisy_core.h **** /**
 161:../libs/libDaisy/../../libs/libDaisy/src/daisy_core.h ****     Converts float to Signed 24-bit
 162:../libs/libDaisy/../../libs/libDaisy/src/daisy_core.h ****  */
 163:../libs/libDaisy/../../libs/libDaisy/src/daisy_core.h **** FORCE_INLINE int32_t f2s32(float x)
 164:../libs/libDaisy/../../libs/libDaisy/src/daisy_core.h **** {
 165:../libs/libDaisy/../../libs/libDaisy/src/daisy_core.h ****     x = x <= FBIPMIN ? FBIPMIN : x;
 166:../libs/libDaisy/../../libs/libDaisy/src/daisy_core.h ****     x = x >= FBIPMAX ? FBIPMAX : x;
 167:../libs/libDaisy/../../libs/libDaisy/src/daisy_core.h ****     return (int32_t)(x * F2S32_SCALE);
 168:../libs/libDaisy/../../libs/libDaisy/src/daisy_core.h **** }
 169:../libs/libDaisy/../../libs/libDaisy/src/daisy_core.h **** 
 170:../libs/libDaisy/../../libs/libDaisy/src/daisy_core.h **** #ifdef __cplusplus
 171:../libs/libDaisy/../../libs/libDaisy/src/daisy_core.h **** 
 172:../libs/libDaisy/../../libs/libDaisy/src/daisy_core.h **** namespace daisy
 173:../libs/libDaisy/../../libs/libDaisy/src/daisy_core.h **** {
 174:../libs/libDaisy/../../libs/libDaisy/src/daisy_core.h **** /** @brief GPIO Port names */
 175:../libs/libDaisy/../../libs/libDaisy/src/daisy_core.h **** enum GPIOPort
 176:../libs/libDaisy/../../libs/libDaisy/src/daisy_core.h **** {
 177:../libs/libDaisy/../../libs/libDaisy/src/daisy_core.h ****     PORTA, /**< Port A */
 178:../libs/libDaisy/../../libs/libDaisy/src/daisy_core.h ****     PORTB, /**< Port B */
 179:../libs/libDaisy/../../libs/libDaisy/src/daisy_core.h ****     PORTC, /**< Port C */
 180:../libs/libDaisy/../../libs/libDaisy/src/daisy_core.h ****     PORTD, /**< Port D */
 181:../libs/libDaisy/../../libs/libDaisy/src/daisy_core.h ****     PORTE, /**< Port E */
 182:../libs/libDaisy/../../libs/libDaisy/src/daisy_core.h ****     PORTF, /**< Port F */
 183:../libs/libDaisy/../../libs/libDaisy/src/daisy_core.h ****     PORTG, /**< Port G */
 184:../libs/libDaisy/../../libs/libDaisy/src/daisy_core.h ****     PORTH, /**< Port H */
 185:../libs/libDaisy/../../libs/libDaisy/src/daisy_core.h ****     PORTI, /**< Port I */
 186:../libs/libDaisy/../../libs/libDaisy/src/daisy_core.h ****     PORTJ, /**< Port J */
 187:../libs/libDaisy/../../libs/libDaisy/src/daisy_core.h ****     PORTK, /**< Port K */
 188:../libs/libDaisy/../../libs/libDaisy/src/daisy_core.h ****     PORTX, /**< Used as a dummy port to signal an invalid pin. */
 189:../libs/libDaisy/../../libs/libDaisy/src/daisy_core.h **** };
 190:../libs/libDaisy/../../libs/libDaisy/src/daisy_core.h **** 
 191:../libs/libDaisy/../../libs/libDaisy/src/daisy_core.h **** /** @brief representation of hardware port/pin combination */
 192:../libs/libDaisy/../../libs/libDaisy/src/daisy_core.h **** struct Pin
 193:../libs/libDaisy/../../libs/libDaisy/src/daisy_core.h **** {
 194:../libs/libDaisy/../../libs/libDaisy/src/daisy_core.h ****     GPIOPort port;
 195:../libs/libDaisy/../../libs/libDaisy/src/daisy_core.h ****     uint8_t  pin;
 196:../libs/libDaisy/../../libs/libDaisy/src/daisy_core.h **** 
 197:../libs/libDaisy/../../libs/libDaisy/src/daisy_core.h ****     /** @brief Constructor creates a valid pin. 
 198:../libs/libDaisy/../../libs/libDaisy/src/daisy_core.h ****      *  @param pt GPIOPort between PA, and PK corresponding to STM32 Port.
 199:../libs/libDaisy/../../libs/libDaisy/src/daisy_core.h ****      *  @param pn pin number in range of 0-15
 200:../libs/libDaisy/../../libs/libDaisy/src/daisy_core.h ****     */
 201:../libs/libDaisy/../../libs/libDaisy/src/daisy_core.h ****     constexpr Pin(const GPIOPort pt, const uint8_t pn) : port(pt), pin(pn) {}
 202:../libs/libDaisy/../../libs/libDaisy/src/daisy_core.h **** 
 203:../libs/libDaisy/../../libs/libDaisy/src/daisy_core.h ****     /** @brief Basic Constructor creates an invalid Pin object */
 204:../libs/libDaisy/../../libs/libDaisy/src/daisy_core.h ****     constexpr Pin() : port(PORTX), pin(255) {}
 871              		.loc 15 204 15 view .LVU228
 872              		.loc 15 204 15 is_stmt 0 view .LVU229
 873              	.LBE488:
 874              	.LBB489:
 875              	.LBI489:
 876              		.loc 15 204 15 is_stmt 1 view .LVU230
 877              		.loc 15 204 15 is_stmt 0 view .LVU231
 878              	.LBE489:
 879              	.LBB490:
 880              	.LBI490:
ARM GAS  C:\Users\skipi\AppData\Local\Temp\ccY7P3ru.s 			page 40


 881              		.loc 15 204 15 is_stmt 1 view .LVU232
 882              		.loc 15 204 15 is_stmt 0 view .LVU233
 883              	.LBE490:
 884              	.LBB491:
 885              	.LBI491:
 886              		.loc 15 204 15 is_stmt 1 view .LVU234
 887              		.loc 15 204 15 is_stmt 0 view .LVU235
 888              	.LBE491:
 889              	.LBB492:
 890              	.LBI492:
 891              		.loc 15 204 15 is_stmt 1 view .LVU236
 892              		.loc 15 204 15 is_stmt 0 view .LVU237
 893              	.LBE492:
 894              	.LBB493:
 895              	.LBI493:
 896              		.loc 15 204 15 is_stmt 1 view .LVU238
 897              		.loc 15 204 15 is_stmt 0 view .LVU239
 898              	.LBE493:
 899              	.LBE487:
 900              	.LBE486:
 901              	.LBB494:
 902              	.LBI494:
  87:../libs/libDaisy/../../libs/libDaisy/src/hid/audio.h ****     ~AudioHandle() {}
 903              		.loc 6 87 5 is_stmt 1 view .LVU240
  87:../libs/libDaisy/../../libs/libDaisy/src/hid/audio.h ****     ~AudioHandle() {}
 904              		.loc 6 87 5 is_stmt 0 view .LVU241
 905              	.LBE494:
 906              	.LBB497:
 907              	.LBI497:
 109:../libs/libDaisy/../../libs/libDaisy/src/per/adc.h ****     ~AdcHandle() {}
 908              		.loc 5 109 5 is_stmt 1 view .LVU242
 109:../libs/libDaisy/../../libs/libDaisy/src/per/adc.h ****     ~AdcHandle() {}
 909              		.loc 5 109 5 is_stmt 0 view .LVU243
 910              	.LBE497:
 911              	.LBB498:
 912              	.LBI498:
 913              		.file 16 "../libs/libDaisy/../../libs/libDaisy/src/per/dac.h"
   1:../libs/libDaisy/../../libs/libDaisy/src/per/dac.h **** #pragma once
   2:../libs/libDaisy/../../libs/libDaisy/src/per/dac.h **** #ifndef DSY_DAC_H
   3:../libs/libDaisy/../../libs/libDaisy/src/per/dac.h **** #define DSY_DAC_H
   4:../libs/libDaisy/../../libs/libDaisy/src/per/dac.h **** #include "stm32h7xx_hal.h"
   5:../libs/libDaisy/../../libs/libDaisy/src/per/dac.h **** #include "daisy_core.h"
   6:../libs/libDaisy/../../libs/libDaisy/src/per/dac.h **** 
   7:../libs/libDaisy/../../libs/libDaisy/src/per/dac.h **** namespace daisy
   8:../libs/libDaisy/../../libs/libDaisy/src/per/dac.h **** {
   9:../libs/libDaisy/../../libs/libDaisy/src/per/dac.h **** /** @brief DAC handle for Built-in DAC Peripheral 
  10:../libs/libDaisy/../../libs/libDaisy/src/per/dac.h ****  *  @ingroup per_analog
  11:../libs/libDaisy/../../libs/libDaisy/src/per/dac.h ****  ** 
  12:../libs/libDaisy/../../libs/libDaisy/src/per/dac.h ****  ** For now only Normal Mode is supported,
  13:../libs/libDaisy/../../libs/libDaisy/src/per/dac.h ****  ** Sample and hold mode provides reduced power consumption, but requires a bit more setup.
  14:../libs/libDaisy/../../libs/libDaisy/src/per/dac.h ****  **
  15:../libs/libDaisy/../../libs/libDaisy/src/per/dac.h ****  ** For now connecting the DAC through other internal peripherals is also not supported.
  16:../libs/libDaisy/../../libs/libDaisy/src/per/dac.h ****  **
  17:../libs/libDaisy/../../libs/libDaisy/src/per/dac.h ****  ** Since the DAC channels have dedicated pins we don't need to pass in a pin config like with
  18:../libs/libDaisy/../../libs/libDaisy/src/per/dac.h ****  ** other modules. However, it is still important to not try to use the DAC pins for anything else.
  19:../libs/libDaisy/../../libs/libDaisy/src/per/dac.h ****  ** DAC Channel 1 is on PA4, and DAC Channel 2 is on PA5
  20:../libs/libDaisy/../../libs/libDaisy/src/per/dac.h ****  ***/
ARM GAS  C:\Users\skipi\AppData\Local\Temp\ccY7P3ru.s 			page 41


  21:../libs/libDaisy/../../libs/libDaisy/src/per/dac.h **** class DacHandle
  22:../libs/libDaisy/../../libs/libDaisy/src/per/dac.h **** {
  23:../libs/libDaisy/../../libs/libDaisy/src/per/dac.h ****   public:
  24:../libs/libDaisy/../../libs/libDaisy/src/per/dac.h ****     /** Return Values for the DacHandle class */
  25:../libs/libDaisy/../../libs/libDaisy/src/per/dac.h ****     enum class Result
  26:../libs/libDaisy/../../libs/libDaisy/src/per/dac.h ****     {
  27:../libs/libDaisy/../../libs/libDaisy/src/per/dac.h ****         OK,
  28:../libs/libDaisy/../../libs/libDaisy/src/per/dac.h ****         ERR,
  29:../libs/libDaisy/../../libs/libDaisy/src/per/dac.h ****     };
  30:../libs/libDaisy/../../libs/libDaisy/src/per/dac.h **** 
  31:../libs/libDaisy/../../libs/libDaisy/src/per/dac.h ****     /** Selects which channel(s) will be configured for use. */
  32:../libs/libDaisy/../../libs/libDaisy/src/per/dac.h ****     enum class Channel
  33:../libs/libDaisy/../../libs/libDaisy/src/per/dac.h ****     {
  34:../libs/libDaisy/../../libs/libDaisy/src/per/dac.h ****         ONE,
  35:../libs/libDaisy/../../libs/libDaisy/src/per/dac.h ****         TWO,
  36:../libs/libDaisy/../../libs/libDaisy/src/per/dac.h ****         BOTH,
  37:../libs/libDaisy/../../libs/libDaisy/src/per/dac.h ****     };
  38:../libs/libDaisy/../../libs/libDaisy/src/per/dac.h **** 
  39:../libs/libDaisy/../../libs/libDaisy/src/per/dac.h ****     /** Sets the Mode for the DAC channels.
  40:../libs/libDaisy/../../libs/libDaisy/src/per/dac.h ****      **
  41:../libs/libDaisy/../../libs/libDaisy/src/per/dac.h ****      ** Polling mode uses the blocking mode to transmit a single value at a time.
  42:../libs/libDaisy/../../libs/libDaisy/src/per/dac.h ****      **
  43:../libs/libDaisy/../../libs/libDaisy/src/per/dac.h ****      ** DMA mode uses a buffer, and periodically transmits it triggering a 
  44:../libs/libDaisy/../../libs/libDaisy/src/per/dac.h ****      ** callback to fill the buffer when it is ready for more samples.
  45:../libs/libDaisy/../../libs/libDaisy/src/per/dac.h ****      ***/
  46:../libs/libDaisy/../../libs/libDaisy/src/per/dac.h ****     enum class Mode
  47:../libs/libDaisy/../../libs/libDaisy/src/per/dac.h ****     {
  48:../libs/libDaisy/../../libs/libDaisy/src/per/dac.h ****         POLLING,
  49:../libs/libDaisy/../../libs/libDaisy/src/per/dac.h ****         DMA,
  50:../libs/libDaisy/../../libs/libDaisy/src/per/dac.h ****     };
  51:../libs/libDaisy/../../libs/libDaisy/src/per/dac.h **** 
  52:../libs/libDaisy/../../libs/libDaisy/src/per/dac.h ****     /** Sets the number of bits per sample transmitted out of the DAC.
  53:../libs/libDaisy/../../libs/libDaisy/src/per/dac.h ****      ** The output range will be: 0V - VDDA
  54:../libs/libDaisy/../../libs/libDaisy/src/per/dac.h ****      ** The resolution will be roughly: bitdepth / (VDDA - 0V) 
  55:../libs/libDaisy/../../libs/libDaisy/src/per/dac.h ****      ***/
  56:../libs/libDaisy/../../libs/libDaisy/src/per/dac.h ****     enum class BitDepth
  57:../libs/libDaisy/../../libs/libDaisy/src/per/dac.h ****     {
  58:../libs/libDaisy/../../libs/libDaisy/src/per/dac.h ****         BITS_8,
  59:../libs/libDaisy/../../libs/libDaisy/src/per/dac.h ****         BITS_12
  60:../libs/libDaisy/../../libs/libDaisy/src/per/dac.h ****     };
  61:../libs/libDaisy/../../libs/libDaisy/src/per/dac.h **** 
  62:../libs/libDaisy/../../libs/libDaisy/src/per/dac.h ****     /** Sets whether the DAC output is buffered for higher drive ability. */
  63:../libs/libDaisy/../../libs/libDaisy/src/per/dac.h ****     enum class BufferState
  64:../libs/libDaisy/../../libs/libDaisy/src/per/dac.h ****     {
  65:../libs/libDaisy/../../libs/libDaisy/src/per/dac.h ****         ENABLED,
  66:../libs/libDaisy/../../libs/libDaisy/src/per/dac.h ****         DISABLED,
  67:../libs/libDaisy/../../libs/libDaisy/src/per/dac.h ****     };
  68:../libs/libDaisy/../../libs/libDaisy/src/per/dac.h **** 
  69:../libs/libDaisy/../../libs/libDaisy/src/per/dac.h ****     /** Configuration structure for initializing the DAC structure. */
  70:../libs/libDaisy/../../libs/libDaisy/src/per/dac.h ****     struct Config
  71:../libs/libDaisy/../../libs/libDaisy/src/per/dac.h ****     {
  72:../libs/libDaisy/../../libs/libDaisy/src/per/dac.h ****         /** Target Samplerate in Hz used to configure the internal 
  73:../libs/libDaisy/../../libs/libDaisy/src/per/dac.h ****          ** timebase for DMA mode. Does nothing in POLLING mode.
  74:../libs/libDaisy/../../libs/libDaisy/src/per/dac.h ****          ** If the value is 0 at Init time this will default to 48000Hz 
  75:../libs/libDaisy/../../libs/libDaisy/src/per/dac.h ****          ** otherwise the driver will attempt meet the target.*/
  76:../libs/libDaisy/../../libs/libDaisy/src/per/dac.h ****         uint32_t target_samplerate;
  77:../libs/libDaisy/../../libs/libDaisy/src/per/dac.h **** 
ARM GAS  C:\Users\skipi\AppData\Local\Temp\ccY7P3ru.s 			page 42


  78:../libs/libDaisy/../../libs/libDaisy/src/per/dac.h ****         Channel     chn;
  79:../libs/libDaisy/../../libs/libDaisy/src/per/dac.h ****         Mode        mode;
  80:../libs/libDaisy/../../libs/libDaisy/src/per/dac.h ****         BitDepth    bitdepth;
  81:../libs/libDaisy/../../libs/libDaisy/src/per/dac.h ****         BufferState buff_state;
  82:../libs/libDaisy/../../libs/libDaisy/src/per/dac.h ****     };
  83:../libs/libDaisy/../../libs/libDaisy/src/per/dac.h **** 
  84:../libs/libDaisy/../../libs/libDaisy/src/per/dac.h ****     DacHandle() : pimpl_(nullptr) {}
 914              		.loc 16 84 5 is_stmt 1 view .LVU244
 915              		.loc 16 84 5 is_stmt 0 view .LVU245
 916              	.LBE498:
 917              	.LBB501:
 918              	.LBI501:
  40:../libs/libDaisy/src/hid/usb.h **** 
 919              		.loc 4 40 5 is_stmt 1 view .LVU246
  40:../libs/libDaisy/src/hid/usb.h **** 
 920              		.loc 4 40 5 is_stmt 0 view .LVU247
 921              	.LBE501:
 922              	.LBB502:
 923              	.LBI502:
 924              		.file 17 "../libs/libDaisy/../../libs/libDaisy/src/per/gpio.h"
   1:../libs/libDaisy/../../libs/libDaisy/src/per/gpio.h **** #pragma once
   2:../libs/libDaisy/../../libs/libDaisy/src/per/gpio.h **** #ifndef DSY_GPIO_H
   3:../libs/libDaisy/../../libs/libDaisy/src/per/gpio.h **** #define DSY_GPIO_H
   4:../libs/libDaisy/../../libs/libDaisy/src/per/gpio.h **** #include "daisy_core.h"
   5:../libs/libDaisy/../../libs/libDaisy/src/per/gpio.h **** 
   6:../libs/libDaisy/../../libs/libDaisy/src/per/gpio.h **** #ifdef __cplusplus
   7:../libs/libDaisy/../../libs/libDaisy/src/per/gpio.h **** 
   8:../libs/libDaisy/../../libs/libDaisy/src/per/gpio.h **** namespace daisy
   9:../libs/libDaisy/../../libs/libDaisy/src/per/gpio.h **** {
  10:../libs/libDaisy/../../libs/libDaisy/src/per/gpio.h **** /** @brief General Purpose I/O control 
  11:../libs/libDaisy/../../libs/libDaisy/src/per/gpio.h ****  *  @details peripheral control over a single GPIO
  12:../libs/libDaisy/../../libs/libDaisy/src/per/gpio.h ****  *  @ingroup peripheral
  13:../libs/libDaisy/../../libs/libDaisy/src/per/gpio.h ****  *   
  14:../libs/libDaisy/../../libs/libDaisy/src/per/gpio.h ****  *  Button Input (with internal Pullup resistor)
  15:../libs/libDaisy/../../libs/libDaisy/src/per/gpio.h ****  *  @include GPIO_Input.cpp 
  16:../libs/libDaisy/../../libs/libDaisy/src/per/gpio.h ****  * 
  17:../libs/libDaisy/../../libs/libDaisy/src/per/gpio.h ****  *  Output Example (perfect for blinking an LED)
  18:../libs/libDaisy/../../libs/libDaisy/src/per/gpio.h ****  *  @include GPIO_Output.cpp
  19:../libs/libDaisy/../../libs/libDaisy/src/per/gpio.h ****  * 
  20:../libs/libDaisy/../../libs/libDaisy/src/per/gpio.h **** */
  21:../libs/libDaisy/../../libs/libDaisy/src/per/gpio.h **** class GPIO
  22:../libs/libDaisy/../../libs/libDaisy/src/per/gpio.h **** {
  23:../libs/libDaisy/../../libs/libDaisy/src/per/gpio.h ****   public:
  24:../libs/libDaisy/../../libs/libDaisy/src/per/gpio.h ****     /** @brief Mode of operation for the specified GPIO */
  25:../libs/libDaisy/../../libs/libDaisy/src/per/gpio.h ****     enum class Mode
  26:../libs/libDaisy/../../libs/libDaisy/src/per/gpio.h ****     {
  27:../libs/libDaisy/../../libs/libDaisy/src/per/gpio.h ****         INPUT,      /**< Input for reading state of pin */
  28:../libs/libDaisy/../../libs/libDaisy/src/per/gpio.h ****         OUTPUT,     /**< Output w/ push-pull configuration */
  29:../libs/libDaisy/../../libs/libDaisy/src/per/gpio.h ****         OPEN_DRAIN, /**< Output w/ open-drain configuration */
  30:../libs/libDaisy/../../libs/libDaisy/src/per/gpio.h ****         ANALOG,     /**< Analog for connection to ADC or DAC peripheral */
  31:../libs/libDaisy/../../libs/libDaisy/src/per/gpio.h ****     };
  32:../libs/libDaisy/../../libs/libDaisy/src/per/gpio.h **** 
  33:../libs/libDaisy/../../libs/libDaisy/src/per/gpio.h ****     /** @brief Configures whether an internal Pull up or Pull down resistor is used. 
  34:../libs/libDaisy/../../libs/libDaisy/src/per/gpio.h ****      *  
  35:../libs/libDaisy/../../libs/libDaisy/src/per/gpio.h ****      * Internal Pull up/down resistors are typically 40k ohms, and will be between
  36:../libs/libDaisy/../../libs/libDaisy/src/per/gpio.h ****      * 30k and 50k
  37:../libs/libDaisy/../../libs/libDaisy/src/per/gpio.h ****      * 
ARM GAS  C:\Users\skipi\AppData\Local\Temp\ccY7P3ru.s 			page 43


  38:../libs/libDaisy/../../libs/libDaisy/src/per/gpio.h ****      * When the Pin is configured in Analog mode, the pull up/down resistors are
  39:../libs/libDaisy/../../libs/libDaisy/src/per/gpio.h ****      * disabled by hardware. 
  40:../libs/libDaisy/../../libs/libDaisy/src/per/gpio.h ****      */
  41:../libs/libDaisy/../../libs/libDaisy/src/per/gpio.h ****     enum class Pull
  42:../libs/libDaisy/../../libs/libDaisy/src/per/gpio.h ****     {
  43:../libs/libDaisy/../../libs/libDaisy/src/per/gpio.h ****         NOPULL,   /**< No pull up resistor */
  44:../libs/libDaisy/../../libs/libDaisy/src/per/gpio.h ****         PULLUP,   /**< Internal pull up enabled */
  45:../libs/libDaisy/../../libs/libDaisy/src/per/gpio.h ****         PULLDOWN, /**< Internal pull down enabled*/
  46:../libs/libDaisy/../../libs/libDaisy/src/per/gpio.h ****     };
  47:../libs/libDaisy/../../libs/libDaisy/src/per/gpio.h **** 
  48:../libs/libDaisy/../../libs/libDaisy/src/per/gpio.h ****     /** @brief Output speed controls the drive strength, and slew rate of the pin */
  49:../libs/libDaisy/../../libs/libDaisy/src/per/gpio.h ****     enum class Speed
  50:../libs/libDaisy/../../libs/libDaisy/src/per/gpio.h ****     {
  51:../libs/libDaisy/../../libs/libDaisy/src/per/gpio.h ****         LOW,
  52:../libs/libDaisy/../../libs/libDaisy/src/per/gpio.h ****         MEDIUM,
  53:../libs/libDaisy/../../libs/libDaisy/src/per/gpio.h ****         HIGH,
  54:../libs/libDaisy/../../libs/libDaisy/src/per/gpio.h ****         VERY_HIGH,
  55:../libs/libDaisy/../../libs/libDaisy/src/per/gpio.h ****     };
  56:../libs/libDaisy/../../libs/libDaisy/src/per/gpio.h **** 
  57:../libs/libDaisy/../../libs/libDaisy/src/per/gpio.h ****     /** @brief Configuration for a given GPIO */
  58:../libs/libDaisy/../../libs/libDaisy/src/per/gpio.h ****     struct Config
  59:../libs/libDaisy/../../libs/libDaisy/src/per/gpio.h ****     {
  60:../libs/libDaisy/../../libs/libDaisy/src/per/gpio.h ****         Pin   pin;
  61:../libs/libDaisy/../../libs/libDaisy/src/per/gpio.h ****         Mode  mode;
  62:../libs/libDaisy/../../libs/libDaisy/src/per/gpio.h ****         Pull  pull;
  63:../libs/libDaisy/../../libs/libDaisy/src/per/gpio.h ****         Speed speed;
  64:../libs/libDaisy/../../libs/libDaisy/src/per/gpio.h **** 
  65:../libs/libDaisy/../../libs/libDaisy/src/per/gpio.h ****         /** Constructor with no arguments will prepare an invalid GPIO set as
  66:../libs/libDaisy/../../libs/libDaisy/src/per/gpio.h ****          *  an input, with no pullup. 
  67:../libs/libDaisy/../../libs/libDaisy/src/per/gpio.h ****          */
  68:../libs/libDaisy/../../libs/libDaisy/src/per/gpio.h ****         Config()
  69:../libs/libDaisy/../../libs/libDaisy/src/per/gpio.h ****         : pin(), mode(Mode::INPUT), pull(Pull::NOPULL), speed(Speed::LOW)
  70:../libs/libDaisy/../../libs/libDaisy/src/per/gpio.h ****         {
  71:../libs/libDaisy/../../libs/libDaisy/src/per/gpio.h ****         }
  72:../libs/libDaisy/../../libs/libDaisy/src/per/gpio.h ****     };
  73:../libs/libDaisy/../../libs/libDaisy/src/per/gpio.h **** 
  74:../libs/libDaisy/../../libs/libDaisy/src/per/gpio.h ****     GPIO() {}
 925              		.loc 17 74 5 is_stmt 1 view .LVU248
 926              	.LBB503:
 927              	.LBB504:
 928              	.LBI504:
  68:../libs/libDaisy/../../libs/libDaisy/src/per/gpio.h ****         : pin(), mode(Mode::INPUT), pull(Pull::NOPULL), speed(Speed::LOW)
 929              		.loc 17 68 9 view .LVU249
 930              	.LBB505:
 931              	.LBB506:
 932              	.LBB507:
 933              	.LBI507:
 934              		.loc 15 204 15 view .LVU250
 935              		.loc 15 204 15 is_stmt 0 view .LVU251
 936              	.LBE507:
 937              	.LBE506:
 938              	.LBE505:
 939              	.LBE504:
 940              	.LBE503:
 941              	.LBE502:
 942              	.LBB512:
 943              	.LBI512:
ARM GAS  C:\Users\skipi\AppData\Local\Temp\ccY7P3ru.s 			page 44


 944              		.loc 17 74 5 is_stmt 1 view .LVU252
 945              	.LBB513:
 946              	.LBB514:
 947              	.LBI514:
  68:../libs/libDaisy/../../libs/libDaisy/src/per/gpio.h ****         : pin(), mode(Mode::INPUT), pull(Pull::NOPULL), speed(Speed::LOW)
 948              		.loc 17 68 9 view .LVU253
 949              	.LBB515:
 950              	.LBB516:
 951              	.LBB517:
 952              	.LBI517:
 953              		.loc 15 204 15 view .LVU254
 954              		.loc 15 204 15 is_stmt 0 view .LVU255
 955              	.LBE517:
 956              	.LBE516:
 957              	.LBE515:
 958              	.LBE514:
 959              	.LBE513:
 960              	.LBE512:
 961              	.LBB522:
 962              	.LBI522:
  96:../libs/libDaisy/../../libs/libDaisy/src/sys/system.h ****     ~System() {}
 963              		.loc 3 96 5 is_stmt 1 view .LVU256
  96:../libs/libDaisy/../../libs/libDaisy/src/sys/system.h ****     ~System() {}
 964              		.loc 3 96 5 is_stmt 0 view .LVU257
 965              	.LBE522:
 966              	.LBB523:
 967              	.LBI523:
  20:../libs/libDaisy/../../libs/libDaisy/src/dev/codec_ak4556.h ****     ~Ak4556() {}
 968              		.loc 2 20 5 is_stmt 1 view .LVU258
 969              	.LBB524:
 970              	.LBI524:
 971              		.loc 17 74 5 view .LVU259
 972              	.LBB525:
 973              	.LBB526:
 974              	.LBI526:
  68:../libs/libDaisy/../../libs/libDaisy/src/per/gpio.h ****         : pin(), mode(Mode::INPUT), pull(Pull::NOPULL), speed(Speed::LOW)
 975              		.loc 17 68 9 view .LVU260
 976              	.LBB527:
 977              	.LBB528:
 978              	.LBB529:
 979              	.LBI529:
 980              		.loc 15 204 15 view .LVU261
 981              		.loc 15 204 15 is_stmt 0 view .LVU262
 982              	.LBE529:
 983              	.LBE528:
 984              	.LBE527:
 985              	.LBE526:
 986              	.LBE525:
 987              	.LBE524:
 988              	.LBE523:
 989              	.LBB535:
 990              	.LBI535:
 991              		.file 18 "../libs/libDaisy/src/per/sai.h"
   1:../libs/libDaisy/src/per/sai.h **** #pragma once
   2:../libs/libDaisy/src/per/sai.h **** #ifndef DSY_SAI_H
   3:../libs/libDaisy/src/per/sai.h **** #define DSY_SAI_H
   4:../libs/libDaisy/src/per/sai.h **** 
ARM GAS  C:\Users\skipi\AppData\Local\Temp\ccY7P3ru.s 			page 45


   5:../libs/libDaisy/src/per/sai.h **** #include "util/hal_map.h"
   6:../libs/libDaisy/src/per/sai.h **** #include "daisy_core.h"
   7:../libs/libDaisy/src/per/sai.h **** 
   8:../libs/libDaisy/src/per/sai.h **** namespace daisy
   9:../libs/libDaisy/src/per/sai.h **** {
  10:../libs/libDaisy/src/per/sai.h **** /** 
  11:../libs/libDaisy/src/per/sai.h ****  * Support for I2S Audio Protocol with different bit-depth, samplerate options
  12:../libs/libDaisy/src/per/sai.h ****  * Allows for master or slave, as well as freedom of selecting direction, 
  13:../libs/libDaisy/src/per/sai.h ****  * and other behavior for each peripheral, and block.
  14:../libs/libDaisy/src/per/sai.h ****  * 
  15:../libs/libDaisy/src/per/sai.h ****  * DMA Transfer commands must use buffers located within non-cached memory or use cache maintenance
  16:../libs/libDaisy/src/per/sai.h ****  * To declare an unitialized global element in the DMA memory section:
  17:../libs/libDaisy/src/per/sai.h ****  *    int32_t DSY_DMA_BUFFER_SECTOR my_buffer[96];
  18:../libs/libDaisy/src/per/sai.h ****  *
  19:../libs/libDaisy/src/per/sai.h ****  * Callback functions will be called once per half of the buffer. In the above example, 
  20:../libs/libDaisy/src/per/sai.h ****  * the callback function would be called once for every 48 samples.
  21:../libs/libDaisy/src/per/sai.h ****  * 
  22:../libs/libDaisy/src/per/sai.h ****  * Use SAI Handle like this:
  23:../libs/libDaisy/src/per/sai.h ****  * 
  24:../libs/libDaisy/src/per/sai.h ****  *  SaiHandle::Config sai_config;
  25:../libs/libDaisy/src/per/sai.h ****  *  sai_config.periph          = SaiHandle::Config::Peripheral::SAI_1;
  26:../libs/libDaisy/src/per/sai.h ****  *  sai_config.sr              = SaiHandle::Config::SampleRate::SAI_48KHZ;
  27:../libs/libDaisy/src/per/sai.h ****  *  sai_config.bit_depth       = SaiHandle::Config::BitDepth::SAI_24BIT;
  28:../libs/libDaisy/src/per/sai.h ****  *  sai_config.a_sync          = SaiHandle::Config::Sync::MASTER;
  29:../libs/libDaisy/src/per/sai.h ****  *  sai_config.b_sync          = SaiHandle::Config::Sync::SLAVE;
  30:../libs/libDaisy/src/per/sai.h ****  *  sai_config.a_dir           = SaiHandle::Config::Direction::RECEIVE;
  31:../libs/libDaisy/src/per/sai.h ****  *  sai_config.b_dir           = SaiHandle::Config::Direction::TRANSMIT;
  32:../libs/libDaisy/src/per/sai.h ****  *  sai_config.pin_config.fs   = {DSY_GPIOE, 4};
  33:../libs/libDaisy/src/per/sai.h ****  *  sai_config.pin_config.mclk = {DSY_GPIOE, 2};
  34:../libs/libDaisy/src/per/sai.h ****  *  sai_config.pin_config.sck  = {DSY_GPIOE, 5};
  35:../libs/libDaisy/src/per/sai.h ****  *  sai_config.pin_config.sa   = {DSY_GPIOE, 6};
  36:../libs/libDaisy/src/per/sai.h ****  *  sai_config.pin_config.sb   = {DSY_GPIOE, 3};
  37:../libs/libDaisy/src/per/sai.h ****  *  // Then Initialize
  38:../libs/libDaisy/src/per/sai.h ****  *  SaiHandle sai;
  39:../libs/libDaisy/src/per/sai.h ****  *  sai.Init(sai_config);
  40:../libs/libDaisy/src/per/sai.h ****  *  // Now you can use it:
  41:../libs/libDaisy/src/per/sai.h ****  *  sai.StartDma(. . .);
  42:../libs/libDaisy/src/per/sai.h ****  */
  43:../libs/libDaisy/src/per/sai.h **** class SaiHandle
  44:../libs/libDaisy/src/per/sai.h **** {
  45:../libs/libDaisy/src/per/sai.h ****   public:
  46:../libs/libDaisy/src/per/sai.h ****     /** Contains settings for initialising an SAI Interface */
  47:../libs/libDaisy/src/per/sai.h ****     struct Config
  48:../libs/libDaisy/src/per/sai.h ****     {
  49:../libs/libDaisy/src/per/sai.h ****         /** Specifies the internal peripheral to use (mapped to different hardware pins) */
  50:../libs/libDaisy/src/per/sai.h ****         enum class Peripheral
  51:../libs/libDaisy/src/per/sai.h ****         {
  52:../libs/libDaisy/src/per/sai.h ****             SAI_1,
  53:../libs/libDaisy/src/per/sai.h ****             SAI_2,
  54:../libs/libDaisy/src/per/sai.h ****         };
  55:../libs/libDaisy/src/per/sai.h **** 
  56:../libs/libDaisy/src/per/sai.h ****         /** Rate at which samples will be streaming to/from the device. */
  57:../libs/libDaisy/src/per/sai.h ****         enum class SampleRate
  58:../libs/libDaisy/src/per/sai.h ****         {
  59:../libs/libDaisy/src/per/sai.h ****             SAI_8KHZ,
  60:../libs/libDaisy/src/per/sai.h ****             SAI_16KHZ,
  61:../libs/libDaisy/src/per/sai.h ****             SAI_32KHZ,
ARM GAS  C:\Users\skipi\AppData\Local\Temp\ccY7P3ru.s 			page 46


  62:../libs/libDaisy/src/per/sai.h ****             SAI_48KHZ,
  63:../libs/libDaisy/src/per/sai.h ****             SAI_96KHZ,
  64:../libs/libDaisy/src/per/sai.h ****         };
  65:../libs/libDaisy/src/per/sai.h **** 
  66:../libs/libDaisy/src/per/sai.h ****         /** Bit Depth that the hardware expects to be transferred to/from the device. */
  67:../libs/libDaisy/src/per/sai.h ****         enum class BitDepth
  68:../libs/libDaisy/src/per/sai.h ****         {
  69:../libs/libDaisy/src/per/sai.h ****             SAI_16BIT,
  70:../libs/libDaisy/src/per/sai.h ****             SAI_24BIT,
  71:../libs/libDaisy/src/per/sai.h ****             SAI_32BIT,
  72:../libs/libDaisy/src/per/sai.h ****         };
  73:../libs/libDaisy/src/per/sai.h **** 
  74:../libs/libDaisy/src/per/sai.h ****         /** Specifies whether a particular block is the master or the slave 
  75:../libs/libDaisy/src/per/sai.h ****          ** If both are set to slave, no MCLK signal will be used, and it is
  76:../libs/libDaisy/src/per/sai.h ****          ** expected that the codec will have its own xtal.
  77:../libs/libDaisy/src/per/sai.h ****          */
  78:../libs/libDaisy/src/per/sai.h ****         enum class Sync
  79:../libs/libDaisy/src/per/sai.h ****         {
  80:../libs/libDaisy/src/per/sai.h ****             MASTER,
  81:../libs/libDaisy/src/per/sai.h ****             SLAVE,
  82:../libs/libDaisy/src/per/sai.h ****         };
  83:../libs/libDaisy/src/per/sai.h **** 
  84:../libs/libDaisy/src/per/sai.h ****         /** Specifies the direction for each peripheral block. */
  85:../libs/libDaisy/src/per/sai.h ****         enum class Direction
  86:../libs/libDaisy/src/per/sai.h ****         {
  87:../libs/libDaisy/src/per/sai.h ****             TRANSMIT,
  88:../libs/libDaisy/src/per/sai.h ****             RECEIVE,
  89:../libs/libDaisy/src/per/sai.h ****         };
  90:../libs/libDaisy/src/per/sai.h **** 
  91:../libs/libDaisy/src/per/sai.h ****         Peripheral periph;
  92:../libs/libDaisy/src/per/sai.h ****         struct
  93:../libs/libDaisy/src/per/sai.h ****         {
  94:../libs/libDaisy/src/per/sai.h ****             Pin mclk, fs, sck, sa, sb;
  95:../libs/libDaisy/src/per/sai.h ****         } pin_config;
  96:../libs/libDaisy/src/per/sai.h ****         SampleRate sr;
  97:../libs/libDaisy/src/per/sai.h ****         BitDepth   bit_depth;
  98:../libs/libDaisy/src/per/sai.h ****         Sync       a_sync, b_sync;
  99:../libs/libDaisy/src/per/sai.h ****         Direction  a_dir, b_dir;
 100:../libs/libDaisy/src/per/sai.h ****     };
 101:../libs/libDaisy/src/per/sai.h **** 
 102:../libs/libDaisy/src/per/sai.h ****     /** Return values for SAI functions */
 103:../libs/libDaisy/src/per/sai.h ****     enum class Result
 104:../libs/libDaisy/src/per/sai.h ****     {
 105:../libs/libDaisy/src/per/sai.h ****         OK,
 106:../libs/libDaisy/src/per/sai.h ****         ERR,
 107:../libs/libDaisy/src/per/sai.h ****     };
 108:../libs/libDaisy/src/per/sai.h **** 
 109:../libs/libDaisy/src/per/sai.h ****     SaiHandle() : pimpl_(nullptr) {}
 992              		.loc 18 109 5 is_stmt 1 view .LVU263
 993              	.LBE535:
 994              	.LBE480:
 995              	.LBE479:
 996              	.LBE478:
 997              	.LBE477:
 998              		.loc 10 73 1 is_stmt 0 view .LVU264
 999 0000 70B5     		push	{r4, r5, r6, lr}
 1000              		.cfi_def_cfa_offset 16
ARM GAS  C:\Users\skipi\AppData\Local\Temp\ccY7P3ru.s 			page 47


 1001              		.cfi_offset 4, -16
 1002              		.cfi_offset 5, -12
 1003              		.cfi_offset 6, -8
 1004              		.cfi_offset 14, -4
 1005              	.LBB608:
 1006              	.LBB606:
 1007              	.LBB548:
 1008              	.LBB546:
 1009              	.LBB538:
 1010              	.LBB482:
 1011              	.LBB483:
 1012              		.loc 14 167 34 view .LVU265
 1013 0002 3148     		ldr	r0, .L34
 1014 0004 0024     		movs	r4, #0
 1015              	.LBE483:
 1016              	.LBE482:
 1017              	.LBE538:
  21:../libs/libDaisy/../../libs/libDaisy/src/daisy_seed.h ****     ~DaisySeed() {}
 1018              		.loc 1 21 17 view .LVU266
 1019 0006 4FF60B76 		movw	r6, #65291
 1020 000a 6FF0F413 		mvn	r3, #15991028
 1021              	.LBE546:
 1022              	.LBE548:
 1023              	.LBB549:
 1024              	.LBB550:
  13:classes/ControlPanel.h **** public:
 1025              		.loc 11 13 7 view .LVU267
 1026 000e 2F4D     		ldr	r5, .L34+4
 1027              	.LBE550:
 1028              	.LBE549:
  10:PSP.cpp       **** DaisySeed hw;
 1029              		.loc 10 10 11 view .LVU268
 1030 0010 2F4A     		ldr	r2, .L34+8
 1031 0012 3049     		ldr	r1, .L34+12
 1032              	.LBB592:
 1033              	.LBB547:
  21:../libs/libDaisy/../../libs/libDaisy/src/daisy_seed.h ****     ~DaisySeed() {}
 1034              		.loc 1 21 17 view .LVU269
 1035 0014 C360     		str	r3, [r0, #12]
 1036              	.LBB539:
 1037              	.LBB485:
 1038              	.LBB484:
 1039              		.loc 14 167 34 view .LVU270
 1040 0016 0460     		str	r4, [r0]
 1041              	.LBE484:
 1042              	.LBE485:
 1043              	.LBE539:
 1044              	.LBB540:
 1045              	.LBB495:
 1046              	.LBB496:
  87:../libs/libDaisy/../../libs/libDaisy/src/hid/audio.h ****     ~AudioHandle() {}
 1047              		.loc 6 87 35 view .LVU271
 1048 0018 4461     		str	r4, [r0, #20]
 1049              	.LBE496:
 1050              	.LBE495:
 1051              	.LBE540:
 1052              	.LBB541:
ARM GAS  C:\Users\skipi\AppData\Local\Temp\ccY7P3ru.s 			page 48


 1053              	.LBB499:
 1054              	.LBB500:
 1055              		.loc 16 84 33 view .LVU272
 1056 001a 0462     		str	r4, [r0, #32]
 1057              	.LBE500:
 1058              	.LBE499:
 1059              	.LBE541:
 1060              	.LBB542:
 1061              	.LBB536:
 1062              	.LBB537:
 1063              		.loc 18 109 33 view .LVU273
 1064 001c 0467     		str	r4, [r0, #112]
 1065              	.LVL53:
 1066              		.loc 18 109 33 view .LVU274
 1067              	.LBE537:
 1068              	.LBE536:
 1069              	.LBE542:
  21:../libs/libDaisy/../../libs/libDaisy/src/daisy_seed.h ****     ~DaisySeed() {}
 1070              		.loc 1 21 17 view .LVU275
 1071 001e C0E90133 		strd	r3, r3, [r0, #4]
 1072              	.LBB543:
 1073              	.LBB511:
 1074              	.LBB510:
 1075              	.LBB509:
 1076              	.LBB508:
  69:../libs/libDaisy/../../libs/libDaisy/src/per/gpio.h ****         {
 1077              		.loc 17 69 73 view .LVU276
 1078 0022 C0E90A64 		strd	r6, r4, [r0, #40]
 1079 0026 C0E90C44 		strd	r4, r4, [r0, #48]
 1080              	.LBE508:
 1081              	.LBE509:
 1082              	.LBE510:
 1083              	.LBE511:
 1084              	.LBE543:
 1085              	.LBB544:
 1086              	.LBB521:
 1087              	.LBB520:
 1088              	.LBB519:
 1089              	.LBB518:
 1090 002a C0E90F64 		strd	r6, r4, [r0, #60]
 1091 002e C0E91144 		strd	r4, r4, [r0, #68]
 1092              	.LBE518:
 1093              	.LBE519:
 1094              	.LBE520:
 1095              	.LBE521:
 1096              	.LBE544:
 1097              	.LBB545:
 1098              	.LBB534:
 1099              	.LBB533:
 1100              	.LBB532:
 1101              	.LBB531:
 1102              	.LBB530:
 1103 0032 C0E91664 		strd	r6, r4, [r0, #88]
 1104 0036 C0E91844 		strd	r4, r4, [r0, #96]
 1105              	.LBE530:
 1106              	.LBE531:
 1107              	.LBE532:
ARM GAS  C:\Users\skipi\AppData\Local\Temp\ccY7P3ru.s 			page 49


 1108              	.LBE533:
 1109              	.LBE534:
 1110              	.LBE545:
 1111              	.LBE547:
 1112              	.LBE592:
  10:PSP.cpp       **** DaisySeed hw;
 1113              		.loc 10 10 11 view .LVU277
 1114 003a FFF7FEFF 		bl	__aeabi_atexit
 1115              	.LVL54:
 1116              	.LBB593:
 1117              	.LBI549:
  13:classes/ControlPanel.h **** public:
 1118              		.loc 11 13 7 is_stmt 1 view .LVU278
 1119              	.LBB590:
 1120 003e 05F16400 		add	r0, r5, #100
 1121 0042 2C70     		strb	r4, [r5]
 1122              	.LVL55:
 1123              	.LBB551:
 1124              	.LBI551:
  20:../libs/libDaisy/../../libs/libDaisy/src/hid/encoder.h ****     ~Encoder() {}
 1125              		.loc 12 20 5 view .LVU279
 1126              	.LBB552:
 1127              	.LBB553:
 1128              	.LBI553:
  33:../libs/libDaisy/src/hid/switch.h ****     ~Switch() {}
 1129              		.loc 13 33 5 view .LVU280
 1130              	.LBB554:
 1131              	.LBB555:
 1132              	.LBI555:
 1133              		.loc 17 74 5 view .LVU281
 1134              	.LBB556:
 1135              	.LBB557:
 1136              	.LBI557:
  68:../libs/libDaisy/../../libs/libDaisy/src/per/gpio.h ****         : pin(), mode(Mode::INPUT), pull(Pull::NOPULL), speed(Speed::LOW)
 1137              		.loc 17 68 9 view .LVU282
 1138              	.LBB558:
 1139              	.LBB559:
 1140              	.LBB560:
 1141              	.LBI560:
 1142              		.loc 15 204 15 view .LVU283
 1143              		.loc 15 204 15 is_stmt 0 view .LVU284
 1144              	.LBE560:
 1145              	.LBE559:
 1146              	.LBE558:
 1147              	.LBE557:
 1148              	.LBE556:
 1149              	.LBE555:
 1150              	.LBE554:
 1151              	.LBE553:
 1152              	.LBB567:
 1153              	.LBI567:
 1154              		.loc 17 74 5 is_stmt 1 view .LVU285
 1155              	.LBB568:
 1156              	.LBB569:
 1157              	.LBI569:
  68:../libs/libDaisy/../../libs/libDaisy/src/per/gpio.h ****         : pin(), mode(Mode::INPUT), pull(Pull::NOPULL), speed(Speed::LOW)
 1158              		.loc 17 68 9 view .LVU286
ARM GAS  C:\Users\skipi\AppData\Local\Temp\ccY7P3ru.s 			page 50


 1159              	.LBB570:
 1160              	.LBB571:
 1161              	.LBB572:
 1162              	.LBI572:
 1163              		.loc 15 204 15 view .LVU287
 1164              		.loc 15 204 15 is_stmt 0 view .LVU288
 1165              	.LBE572:
 1166              	.LBE571:
 1167              	.LBE570:
 1168              	.LBE569:
 1169              	.LBE568:
 1170              	.LBE567:
 1171              	.LBB577:
 1172              	.LBI577:
 1173              		.loc 17 74 5 is_stmt 1 view .LVU289
 1174              	.LBB578:
 1175              	.LBB579:
 1176              	.LBI579:
  68:../libs/libDaisy/../../libs/libDaisy/src/per/gpio.h ****         : pin(), mode(Mode::INPUT), pull(Pull::NOPULL), speed(Speed::LOW)
 1177              		.loc 17 68 9 view .LVU290
 1178              	.LBB580:
 1179              	.LBB581:
 1180              	.LBB582:
 1181              	.LBI582:
 1182              		.loc 15 204 15 view .LVU291
 1183              		.loc 15 204 15 is_stmt 0 view .LVU292
 1184              	.LBE582:
 1185              	.LBE581:
 1186              	.LBE580:
 1187              	.LBE579:
 1188              	.LBE578:
 1189              	.LBE577:
 1190              	.LBB587:
 1191              	.LBB566:
 1192              	.LBB565:
 1193              	.LBB564:
 1194              	.LBB563:
 1195              	.LBB562:
 1196              	.LBB561:
  69:../libs/libDaisy/../../libs/libDaisy/src/per/gpio.h ****         {
 1197              		.loc 17 69 73 view .LVU293
 1198 0044 C5E90664 		strd	r6, r4, [r5, #24]
 1199 0048 C5E90844 		strd	r4, r4, [r5, #32]
 1200              	.LBE561:
 1201              	.LBE562:
 1202              	.LBE563:
 1203              	.LBE564:
 1204              	.LBE565:
 1205              	.LBE566:
 1206              	.LBE587:
 1207              	.LBB588:
 1208              	.LBB576:
 1209              	.LBB575:
 1210              	.LBB574:
 1211              	.LBB573:
 1212 004c C5E90D64 		strd	r6, r4, [r5, #52]
 1213 0050 C5E90F44 		strd	r4, r4, [r5, #60]
ARM GAS  C:\Users\skipi\AppData\Local\Temp\ccY7P3ru.s 			page 51


 1214              	.LBE573:
 1215              	.LBE574:
 1216              	.LBE575:
 1217              	.LBE576:
 1218              	.LBE588:
 1219              	.LBB589:
 1220              	.LBB586:
 1221              	.LBB585:
 1222              	.LBB584:
 1223              	.LBB583:
 1224 0054 C5E91264 		strd	r6, r4, [r5, #72]
 1225 0058 C5E91444 		strd	r4, r4, [r5, #80]
 1226              	.LVL56:
  69:../libs/libDaisy/../../libs/libDaisy/src/per/gpio.h ****         {
 1227              		.loc 17 69 73 view .LVU294
 1228              	.LBE583:
 1229              	.LBE584:
 1230              	.LBE585:
 1231              	.LBE586:
 1232              	.LBE589:
 1233              	.LBE552:
 1234              	.LBE551:
  13:classes/ControlPanel.h **** public:
 1235              		.loc 11 13 7 view .LVU295
 1236 005c FFF7FEFF 		bl	_ZN16PlantConditionerC1Ev
 1237              	.LVL57:
 1238 0060 05F67413 		addw	r3, r5, #2420
 1239 0064 1C49     		ldr	r1, .L34+16
 1240              	.LBE590:
 1241              	.LBE593:
  12:PSP.cpp       **** static ControlPanel control;
 1242              		.loc 10 12 21 view .LVU296
 1243 0066 2846     		mov	r0, r5
 1244 0068 194A     		ldr	r2, .L34+8
 1245              	.LBB594:
 1246              	.LBB591:
  13:classes/ControlPanel.h **** public:
 1247              		.loc 11 13 7 view .LVU297
 1248 006a 1960     		str	r1, [r3]	@ float
 1249 006c 05F67C13 		addw	r3, r5, #2428
 1250 0070 1A49     		ldr	r1, .L34+20
 1251 0072 85F87849 		strb	r4, [r5, #2424]
 1252 0076 1960     		str	r1, [r3]	@ float
 1253 0078 05F51863 		add	r3, r5, #2432
 1254 007c 1849     		ldr	r1, .L34+24
 1255 007e 85F88449 		strb	r4, [r5, #2436]
 1256              	.LVL58:
  13:classes/ControlPanel.h **** public:
 1257              		.loc 11 13 7 view .LVU298
 1258 0082 1960     		str	r1, [r3]	@ float
 1259              	.LBE591:
 1260              	.LBE594:
  12:PSP.cpp       **** static ControlPanel control;
 1261              		.loc 10 12 21 view .LVU299
 1262 0084 1749     		ldr	r1, .L34+28
 1263 0086 FFF7FEFF 		bl	__aeabi_atexit
 1264              	.LVL59:
ARM GAS  C:\Users\skipi\AppData\Local\Temp\ccY7P3ru.s 			page 52


 1265              	.LBB595:
 1266              	.LBI595:
  23:../libs/DaisySP/Source/Synthesis/oscillator.h ****     ~Oscillator() {}
 1267              		.loc 8 23 5 is_stmt 1 view .LVU300
  23:../libs/DaisySP/Source/Synthesis/oscillator.h ****     ~Oscillator() {}
 1268              		.loc 8 23 5 is_stmt 0 view .LVU301
 1269              	.LBE595:
  13:PSP.cpp       **** static Oscillator osc;
 1270              		.loc 10 13 19 view .LVU302
 1271 008a 114A     		ldr	r2, .L34+8
 1272 008c 1649     		ldr	r1, .L34+32
 1273 008e 1748     		ldr	r0, .L34+36
 1274 0090 FFF7FEFF 		bl	__aeabi_atexit
 1275              	.LVL60:
 1276              	.LBB596:
 1277              	.LBI596:
  44:../libs/libDaisy/../../libs/DaisySP/Source/Control/adsr.h ****     ~Adsr() {}
 1278              		.loc 7 44 5 is_stmt 1 view .LVU303
 1279              	.LBB597:
 1280              	.LBB598:
  44:../libs/libDaisy/../../libs/DaisySP/Source/Control/adsr.h ****     ~Adsr() {}
 1281              		.loc 7 44 12 is_stmt 0 view .LVU304
 1282 0094 1648     		ldr	r0, .L34+40
 1283 0096 0023     		movs	r3, #0
 1284 0098 1649     		ldr	r1, .L34+44
 1285              	.LBE598:
 1286              	.LBE597:
 1287              	.LBE596:
  14:PSP.cpp       **** static Adsr env;
 1288              		.loc 10 14 13 view .LVU305
 1289 009a 0D4A     		ldr	r2, .L34+8
 1290              	.LBB603:
 1291              	.LBB601:
  44:../libs/libDaisy/../../libs/DaisySP/Source/Control/adsr.h ****     ~Adsr() {}
 1292              		.loc 7 44 12 view .LVU306
 1293 009c 8485     		strh	r4, [r0, #44]	@ movhi
 1294              	.LVL61:
 1295              	.LBB599:
  44:../libs/libDaisy/../../libs/DaisySP/Source/Control/adsr.h ****     ~Adsr() {}
 1296              		.loc 7 44 12 view .LVU307
 1297 009e 8160     		str	r1, [r0, #8]	@ float
 1298 00a0 0161     		str	r1, [r0, #16]	@ float
 1299 00a2 4161     		str	r1, [r0, #20]	@ float
 1300 00a4 8161     		str	r1, [r0, #24]	@ float
 1301 00a6 0360     		str	r3, [r0]	@ float
 1302              	.LBE599:
 1303              	.LBE601:
 1304              	.LBE603:
  14:PSP.cpp       **** static Adsr env;
 1305              		.loc 10 14 13 view .LVU308
 1306 00a8 1349     		ldr	r1, .L34+48
 1307              	.LBB604:
 1308              	.LBB602:
 1309              	.LBB600:
  44:../libs/libDaisy/../../libs/DaisySP/Source/Control/adsr.h ****     ~Adsr() {}
 1310              		.loc 7 44 12 view .LVU309
 1311 00aa 4360     		str	r3, [r0, #4]	@ float
ARM GAS  C:\Users\skipi\AppData\Local\Temp\ccY7P3ru.s 			page 53


 1312 00ac C360     		str	r3, [r0, #12]	@ float
 1313 00ae C361     		str	r3, [r0, #28]	@ float
 1314 00b0 0362     		str	r3, [r0, #32]	@ float
 1315 00b2 4362     		str	r3, [r0, #36]	@ float
 1316              	.LBE600:
 1317              	.LBE602:
 1318              	.LBE604:
  14:PSP.cpp       **** static Adsr env;
 1319              		.loc 10 14 13 view .LVU310
 1320 00b4 FFF7FEFF 		bl	__aeabi_atexit
 1321              	.LVL62:
 1322              	.LBB605:
 1323              	.LBI605:
  29:../libs/libDaisy/../../libs/DaisySP/Source/Filters/onepole.h ****     ~OnePole() {}
 1324              		.loc 9 29 5 is_stmt 1 view .LVU311
  29:../libs/libDaisy/../../libs/DaisySP/Source/Filters/onepole.h ****     ~OnePole() {}
 1325              		.loc 9 29 5 is_stmt 0 view .LVU312
 1326              	.LBE605:
  15:PSP.cpp       **** static OnePole SmoothFreq;
 1327              		.loc 10 15 16 view .LVU313
 1328 00b8 054A     		ldr	r2, .L34+8
 1329 00ba 1049     		ldr	r1, .L34+52
 1330 00bc 1048     		ldr	r0, .L34+56
 1331              	.LBE606:
 1332              	.LBE608:
 1333              		.loc 10 73 1 view .LVU314
 1334 00be BDE87040 		pop	{r4, r5, r6, lr}
 1335              		.cfi_restore 14
 1336              		.cfi_restore 6
 1337              		.cfi_restore 5
 1338              		.cfi_restore 4
 1339              		.cfi_def_cfa_offset 0
 1340              	.LBB609:
 1341              	.LBB607:
  15:PSP.cpp       **** static OnePole SmoothFreq;
 1342              		.loc 10 15 16 view .LVU315
 1343 00c2 FFF7FEBF 		b	__aeabi_atexit
 1344              	.LVL63:
 1345              	.L35:
 1346 00c6 00BF     		.align	2
 1347              	.L34:
 1348 00c8 00000000 		.word	.LANCHOR4
 1349 00cc 00000000 		.word	.LANCHOR0
 1350 00d0 00000000 		.word	__dso_handle
 1351 00d4 00000000 		.word	_ZN5daisy9DaisySeedD1Ev
 1352 00d8 0000DC43 		.word	1138491392
 1353 00dc 00004842 		.word	1112014848
 1354 00e0 CDCC8C3F 		.word	1066192077
 1355 00e4 00000000 		.word	_ZN12ControlPanelD1Ev
 1356 00e8 00000000 		.word	_ZN7daisysp10OscillatorD1Ev
 1357 00ec 00000000 		.word	.LANCHOR2
 1358 00f0 00000000 		.word	.LANCHOR3
 1359 00f4 000080BF 		.word	-1082130432
 1360 00f8 00000000 		.word	_ZN7daisysp4AdsrD1Ev
 1361 00fc 00000000 		.word	_ZN7daisysp7OnePoleD1Ev
 1362 0100 00000000 		.word	.LANCHOR1
 1363              	.LBE607:
ARM GAS  C:\Users\skipi\AppData\Local\Temp\ccY7P3ru.s 			page 54


 1364              	.LBE609:
 1365              		.cfi_endproc
 1366              	.LFE5417:
 1368              		.section	.init_array,"aw",%init_array
 1369              		.align	2
 1370 0000 00000000 		.word	_GLOBAL__sub_I_hw(target1)
 1371              		.global	hw
 1372              		.section	.bss._ZL10SmoothFreq,"aw",%nobits
 1373              		.align	2
 1374              		.set	.LANCHOR1,. + 0
 1377              	_ZL10SmoothFreq:
 1378 0000 00000000 		.space	16
 1378      00000000 
 1378      00000000 
 1378      00000000 
 1379              		.section	.bss._ZL3env,"aw",%nobits
 1380              		.align	2
 1381              		.set	.LANCHOR3,. + 0
 1384              	_ZL3env:
 1385 0000 00000000 		.space	48
 1385      00000000 
 1385      00000000 
 1385      00000000 
 1385      00000000 
 1386              		.section	.bss._ZL3osc,"aw",%nobits
 1387              		.align	2
 1388              		.set	.LANCHOR2,. + 0
 1391              	_ZL3osc:
 1392 0000 00000000 		.space	44
 1392      00000000 
 1392      00000000 
 1392      00000000 
 1392      00000000 
 1393              		.section	.bss._ZL7control,"aw",%nobits
 1394              		.align	2
 1395              		.set	.LANCHOR0,. + 0
 1398              	_ZL7control:
 1399 0000 00000000 		.space	2440
 1399      00000000 
 1399      00000000 
 1399      00000000 
 1399      00000000 
 1400              		.section	.bss.hw,"aw",%nobits
 1401              		.align	2
 1402              		.set	.LANCHOR4,. + 0
 1405              	hw:
 1406 0000 00000000 		.space	116
 1406      00000000 
 1406      00000000 
 1406      00000000 
 1406      00000000 
 1407              		.text
 1408              	.Letext0:
 1409              		.file 19 "c:\\program files\\daisytoolchain\\arm-none-eabi\\include\\machine\\_default_types.h"
 1410              		.file 20 "c:\\program files\\daisytoolchain\\arm-none-eabi\\include\\sys\\_stdint.h"
 1411              		.file 21 "c:\\program files\\daisytoolchain\\arm-none-eabi\\include\\stdint.h"
 1412              		.file 22 "c:\\program files\\daisytoolchain\\lib\\gcc\\arm-none-eabi\\10.2.1\\include\\stddef.h"
ARM GAS  C:\Users\skipi\AppData\Local\Temp\ccY7P3ru.s 			page 55


 1413              		.file 23 "c:\\program files\\daisytoolchain\\arm-none-eabi\\include\\c++\\10.2.1\\cmath"
 1414              		.file 24 "c:\\program files\\daisytoolchain\\arm-none-eabi\\include\\c++\\10.2.1\\bits\\std_abs.h"
 1415              		.file 25 "c:\\program files\\daisytoolchain\\arm-none-eabi\\include\\c++\\10.2.1\\cstdlib"
 1416              		.file 26 "c:\\program files\\daisytoolchain\\arm-none-eabi\\include\\c++\\10.2.1\\cstdint"
 1417              		.file 27 "c:\\program files\\daisytoolchain\\arm-none-eabi\\include\\c++\\10.2.1\\type_traits"
 1418              		.file 28 "c:\\program files\\daisytoolchain\\arm-none-eabi\\include\\c++\\10.2.1\\debug\\debug.h"
 1419              		.file 29 "c:\\program files\\daisytoolchain\\arm-none-eabi\\include\\c++\\10.2.1\\arm-none-eabi\\t
 1420              		.file 30 "c:\\program files\\daisytoolchain\\arm-none-eabi\\include\\c++\\10.2.1\\bits\\algorithmf
 1421              		.file 31 "c:\\program files\\daisytoolchain\\arm-none-eabi\\include\\c++\\10.2.1\\bits\\stl_pair.h
 1422              		.file 32 "c:\\program files\\daisytoolchain\\arm-none-eabi\\include\\c++\\10.2.1\\bits\\exception_
 1423              		.file 33 "c:\\program files\\daisytoolchain\\arm-none-eabi\\include\\c++\\10.2.1\\cstdarg"
 1424              		.file 34 "c:\\program files\\daisytoolchain\\arm-none-eabi\\include\\c++\\10.2.1\\cstdio"
 1425              		.file 35 "c:\\program files\\daisytoolchain\\arm-none-eabi\\include\\c++\\10.2.1\\cstring"
 1426              		.file 36 "c:\\program files\\daisytoolchain\\arm-none-eabi\\include\\c++\\10.2.1\\cwchar"
 1427              		.file 37 "c:\\program files\\daisytoolchain\\arm-none-eabi\\include\\c++\\10.2.1\\clocale"
 1428              		.file 38 "c:\\program files\\daisytoolchain\\arm-none-eabi\\include\\c++\\10.2.1\\bits\\basic_stri
 1429              		.file 39 "c:\\program files\\daisytoolchain\\arm-none-eabi\\include\\c++\\10.2.1\\bits\\stl_tempbu
 1430              		.file 40 "c:\\program files\\daisytoolchain\\arm-none-eabi\\include\\c++\\10.2.1\\bits\\predefined
 1431              		.file 41 "c:\\program files\\daisytoolchain\\arm-none-eabi\\include\\sys\\_types.h"
 1432              		.file 42 "c:\\program files\\daisytoolchain\\arm-none-eabi\\include\\sys\\reent.h"
 1433              		.file 43 "c:\\program files\\daisytoolchain\\arm-none-eabi\\include\\sys\\lock.h"
 1434              		.file 44 "c:\\program files\\daisytoolchain\\arm-none-eabi\\include\\math.h"
 1435              		.file 45 "c:\\program files\\daisytoolchain\\arm-none-eabi\\include\\stdlib.h"
 1436              		.file 46 "c:\\program files\\daisytoolchain\\arm-none-eabi\\include\\c++\\10.2.1\\math.h"
 1437              		.file 47 "c:\\program files\\daisytoolchain\\arm-none-eabi\\include\\c++\\10.2.1\\stdlib.h"
 1438              		.file 48 "../libs/libDaisy/src/per/tim.h"
 1439              		.file 49 "../libs/libDaisy/src/per/i2c.h"
 1440              		.file 50 "../libs/libDaisy/../../libs/libDaisy/src/dev/mpr121.h"
 1441              		.file 51 "../libs/libDaisy/../../libs/libDaisy/src/hid/logger_impl.h"
 1442              		.file 52 "../libs/libDaisy/src/util/wav_format.h"
 1443              		.file 53 "../libs/libDaisy/../../libs/libDaisy/src/dev/sr_595.h"
 1444              		.file 54 "../libs/libDaisy/../../libs/libDaisy/src/dev/max11300.h"
 1445              		.file 55 "../libs/libDaisy/../../libs/libDaisy/src/hid/logger.h"
 1446              		.file 56 "../libs/libDaisy/../../libs/libDaisy/src/dev/sdram.h"
 1447              		.file 57 "c:\\program files\\daisytoolchain\\lib\\gcc\\arm-none-eabi\\10.2.1\\include\\stdarg.h"
 1448              		.file 58 "c:\\program files\\daisytoolchain\\arm-none-eabi\\include\\stdio.h"
 1449              		.file 59 "c:\\program files\\daisytoolchain\\arm-none-eabi\\include\\string.h"
 1450              		.file 60 "../libs/libDaisy/../../libs/DaisySP/Source/Control/adenv.h"
 1451              		.file 61 "../libs/DaisySP/Source/Utility/dsp.h"
 1452              		.file 62 "c:\\program files\\daisytoolchain\\arm-none-eabi\\include\\wchar.h"
 1453              		.file 63 "c:\\program files\\daisytoolchain\\arm-none-eabi\\include\\locale.h"
 1454              		.file 64 "../libs/libDaisy/../../Classes/Effects/AnalogDelay/src/AnalogDelay.h"
 1455              		.file 65 "classes/../../Classes/SensorFilters/FIIR/CapFir.h"
 1456              		.file 66 "classes/../../Classes/SensorFilters/IIR/iir.h"
 1457              		.file 67 "classes/../../Classes/SensorFilters/MF/MF.h"
 1458              		.file 68 "classes/PlantConditioner.h"
 1459              		.file 69 "<built-in>"
ARM GAS  C:\Users\skipi\AppData\Local\Temp\ccY7P3ru.s 			page 56

