ARM GAS  C:\Users\skipi\AppData\Local\Temp\ccdbNCKv.s 			page 1


   1              		.cpu cortex-m7
   2              		.eabi_attribute 28, 1
   3              		.eabi_attribute 20, 1
   4              		.eabi_attribute 21, 1
   5              		.eabi_attribute 23, 3
   6              		.eabi_attribute 24, 1
   7              		.eabi_attribute 25, 1
   8              		.eabi_attribute 26, 1
   9              		.eabi_attribute 30, 2
  10              		.eabi_attribute 34, 1
  11              		.eabi_attribute 18, 4
  12              		.file	"main0.cpp"
  13              		.text
  14              	.Ltext0:
  15              		.cfi_sections	.debug_frame
  16              		.section	.text._ZN5daisy9DaisySeedD2Ev,"axG",%progbits,_ZN5daisy9DaisySeedD5Ev,comdat
  17              		.align	1
  18              		.p2align 2,,3
  19              		.weak	_ZN5daisy9DaisySeedD2Ev
  20              		.arch armv7e-m
  21              		.syntax unified
  22              		.thumb
  23              		.thumb_func
  24              		.fpu fpv5-d16
  26              	_ZN5daisy9DaisySeedD2Ev:
  27              	.LVL0:
  28              	.LFB2645:
  29              		.file 1 "../../libs/libDaisy/src/daisy_seed.h"
   1:../../libs/libDaisy/src/daisy_seed.h **** #pragma once
   2:../../libs/libDaisy/src/daisy_seed.h **** #ifndef DSY_SEED_H
   3:../../libs/libDaisy/src/daisy_seed.h **** #define DSY_SEED_H
   4:../../libs/libDaisy/src/daisy_seed.h **** 
   5:../../libs/libDaisy/src/daisy_seed.h **** #include "daisy.h"
   6:../../libs/libDaisy/src/daisy_seed.h **** 
   7:../../libs/libDaisy/src/daisy_seed.h **** //Uncomment this out if you're still using the rev2 hardware
   8:../../libs/libDaisy/src/daisy_seed.h **** //#define SEED_REV2
   9:../../libs/libDaisy/src/daisy_seed.h **** 
  10:../../libs/libDaisy/src/daisy_seed.h **** namespace daisy
  11:../../libs/libDaisy/src/daisy_seed.h **** {
  12:../../libs/libDaisy/src/daisy_seed.h **** /**
  13:../../libs/libDaisy/src/daisy_seed.h ****    @brief This is the higher-level interface for the Daisy board. \n 
  14:../../libs/libDaisy/src/daisy_seed.h ****     All basic peripheral configuration/initialization is setup here. \n
  15:../../libs/libDaisy/src/daisy_seed.h **** 
  16:../../libs/libDaisy/src/daisy_seed.h ****    @ingroup boards
  17:../../libs/libDaisy/src/daisy_seed.h **** */
  18:../../libs/libDaisy/src/daisy_seed.h **** class DaisySeed
  19:../../libs/libDaisy/src/daisy_seed.h **** {
  20:../../libs/libDaisy/src/daisy_seed.h ****   public:
  21:../../libs/libDaisy/src/daisy_seed.h ****     DaisySeed() {}
  22:../../libs/libDaisy/src/daisy_seed.h ****     ~DaisySeed() {}
  30              		.loc 1 22 5 view -0
  31              		.cfi_startproc
  32              		@ args = 0, pretend = 0, frame = 0
  33              		@ frame_needed = 0, uses_anonymous_args = 0
  34              		@ link register save eliminated.
  35              	.LBB306:
  36              	.LBI306:
ARM GAS  C:\Users\skipi\AppData\Local\Temp\ccdbNCKv.s 			page 2


  37              		.file 2 "../../libs/libDaisy/src/dev/codec_ak4556.h"
   1:../../libs/libDaisy/src/dev/codec_ak4556.h **** #pragma once
   2:../../libs/libDaisy/src/dev/codec_ak4556.h **** #ifndef DSY_CODEC_AK4556_H
   3:../../libs/libDaisy/src/dev/codec_ak4556.h **** #define DSY_CODEC_AK4556_H
   4:../../libs/libDaisy/src/dev/codec_ak4556.h **** 
   5:../../libs/libDaisy/src/dev/codec_ak4556.h **** #include "daisy_core.h"
   6:../../libs/libDaisy/src/dev/codec_ak4556.h **** #include "per/gpio.h"
   7:../../libs/libDaisy/src/dev/codec_ak4556.h **** 
   8:../../libs/libDaisy/src/dev/codec_ak4556.h **** namespace daisy
   9:../../libs/libDaisy/src/dev/codec_ak4556.h **** {
  10:../../libs/libDaisy/src/dev/codec_ak4556.h **** /** @brief Ak4556 Codec support 
  11:../../libs/libDaisy/src/dev/codec_ak4556.h ****  ** @author shensley
  12:../../libs/libDaisy/src/dev/codec_ak4556.h ****  ** @addtogroup codec
  13:../../libs/libDaisy/src/dev/codec_ak4556.h ****  ** 
  14:../../libs/libDaisy/src/dev/codec_ak4556.h ****  ** I don't see any real reason to have this be more than a function, but in case we want
  15:../../libs/libDaisy/src/dev/codec_ak4556.h ****  ** to add other functions down the road I wrapped the function in a class.
  16:../../libs/libDaisy/src/dev/codec_ak4556.h ****  ***/
  17:../../libs/libDaisy/src/dev/codec_ak4556.h **** class Ak4556
  18:../../libs/libDaisy/src/dev/codec_ak4556.h **** {
  19:../../libs/libDaisy/src/dev/codec_ak4556.h ****   public:
  20:../../libs/libDaisy/src/dev/codec_ak4556.h ****     Ak4556() {}
  21:../../libs/libDaisy/src/dev/codec_ak4556.h ****     ~Ak4556() {}
  38              		.loc 2 21 5 view .LVU1
  39              		.loc 2 21 5 is_stmt 0 view .LVU2
  40              	.LBE306:
  41              	.LBB307:
  42              	.LBI307:
  43              		.file 3 "../../libs/libDaisy/src/sys/system.h"
   1:../../libs/libDaisy/src/sys/system.h **** #ifndef DSY_SYSTEM_H
   2:../../libs/libDaisy/src/sys/system.h **** #define DSY_SYSTEM_H
   3:../../libs/libDaisy/src/sys/system.h **** 
   4:../../libs/libDaisy/src/sys/system.h **** #ifndef UNIT_TEST // for unit tests, a dummy implementation is provided below
   5:../../libs/libDaisy/src/sys/system.h **** 
   6:../../libs/libDaisy/src/sys/system.h **** #include <cstdint>
   7:../../libs/libDaisy/src/sys/system.h **** #include "per/tim.h"
   8:../../libs/libDaisy/src/sys/system.h **** 
   9:../../libs/libDaisy/src/sys/system.h **** namespace daisy
  10:../../libs/libDaisy/src/sys/system.h **** {
  11:../../libs/libDaisy/src/sys/system.h **** /** A handle for interacting with the Core System.
  12:../../libs/libDaisy/src/sys/system.h ****  ** This includes the Clock tree, MPU, global DMA initialization,
  13:../../libs/libDaisy/src/sys/system.h ****  ** cache handling, and any other necessary global initiailzation
  14:../../libs/libDaisy/src/sys/system.h ****  **
  15:../../libs/libDaisy/src/sys/system.h ****  ** @author shensley
  16:../../libs/libDaisy/src/sys/system.h ****  ** @ingroup system
  17:../../libs/libDaisy/src/sys/system.h ****  */
  18:../../libs/libDaisy/src/sys/system.h **** class System
  19:../../libs/libDaisy/src/sys/system.h **** {
  20:../../libs/libDaisy/src/sys/system.h ****   public:
  21:../../libs/libDaisy/src/sys/system.h ****     /** Contains settings for initializing the System */
  22:../../libs/libDaisy/src/sys/system.h ****     struct Config
  23:../../libs/libDaisy/src/sys/system.h ****     {
  24:../../libs/libDaisy/src/sys/system.h ****         /** Specifies the system clock frequency that feeds APB/AHB clocks, etc. */
  25:../../libs/libDaisy/src/sys/system.h ****         enum class SysClkFreq
  26:../../libs/libDaisy/src/sys/system.h ****         {
  27:../../libs/libDaisy/src/sys/system.h ****             FREQ_400MHZ,
  28:../../libs/libDaisy/src/sys/system.h ****             FREQ_480MHZ,
  29:../../libs/libDaisy/src/sys/system.h ****         };
ARM GAS  C:\Users\skipi\AppData\Local\Temp\ccdbNCKv.s 			page 3


  30:../../libs/libDaisy/src/sys/system.h **** 
  31:../../libs/libDaisy/src/sys/system.h ****         /** Method to call on the struct to set to defaults
  32:../../libs/libDaisy/src/sys/system.h ****          ** CPU Freq set to 400MHz
  33:../../libs/libDaisy/src/sys/system.h ****          ** Cache Enabled
  34:../../libs/libDaisy/src/sys/system.h ****          ** */
  35:../../libs/libDaisy/src/sys/system.h ****         void Defaults()
  36:../../libs/libDaisy/src/sys/system.h ****         {
  37:../../libs/libDaisy/src/sys/system.h ****             cpu_freq    = SysClkFreq::FREQ_400MHZ;
  38:../../libs/libDaisy/src/sys/system.h ****             use_dcache  = true;
  39:../../libs/libDaisy/src/sys/system.h ****             use_icache  = true;
  40:../../libs/libDaisy/src/sys/system.h ****             skip_clocks = false;
  41:../../libs/libDaisy/src/sys/system.h ****         }
  42:../../libs/libDaisy/src/sys/system.h **** 
  43:../../libs/libDaisy/src/sys/system.h ****         /** Method to call on the struct to set to boost mode:
  44:../../libs/libDaisy/src/sys/system.h ****          ** CPU Freq set to 480MHz
  45:../../libs/libDaisy/src/sys/system.h ****          ** Cache Enabled
  46:../../libs/libDaisy/src/sys/system.h ****          ** */
  47:../../libs/libDaisy/src/sys/system.h ****         void Boost()
  48:../../libs/libDaisy/src/sys/system.h ****         {
  49:../../libs/libDaisy/src/sys/system.h ****             cpu_freq    = SysClkFreq::FREQ_480MHZ;
  50:../../libs/libDaisy/src/sys/system.h ****             use_dcache  = true;
  51:../../libs/libDaisy/src/sys/system.h ****             use_icache  = true;
  52:../../libs/libDaisy/src/sys/system.h ****             skip_clocks = false;
  53:../../libs/libDaisy/src/sys/system.h ****         }
  54:../../libs/libDaisy/src/sys/system.h **** 
  55:../../libs/libDaisy/src/sys/system.h ****         SysClkFreq cpu_freq;
  56:../../libs/libDaisy/src/sys/system.h ****         bool       use_dcache;
  57:../../libs/libDaisy/src/sys/system.h ****         bool       use_icache;
  58:../../libs/libDaisy/src/sys/system.h ****         bool       skip_clocks;
  59:../../libs/libDaisy/src/sys/system.h ****     };
  60:../../libs/libDaisy/src/sys/system.h **** 
  61:../../libs/libDaisy/src/sys/system.h ****     /** Describes the different regions of memory available to the Daisy */
  62:../../libs/libDaisy/src/sys/system.h ****     enum MemoryRegion
  63:../../libs/libDaisy/src/sys/system.h ****     {
  64:../../libs/libDaisy/src/sys/system.h ****         INTERNAL_FLASH = 0,
  65:../../libs/libDaisy/src/sys/system.h ****         ITCMRAM,
  66:../../libs/libDaisy/src/sys/system.h ****         DTCMRAM,
  67:../../libs/libDaisy/src/sys/system.h ****         SRAM_D1,
  68:../../libs/libDaisy/src/sys/system.h ****         SRAM_D2,
  69:../../libs/libDaisy/src/sys/system.h ****         SRAM_D3,
  70:../../libs/libDaisy/src/sys/system.h ****         SDRAM,
  71:../../libs/libDaisy/src/sys/system.h ****         QSPI,
  72:../../libs/libDaisy/src/sys/system.h ****         INVALID_ADDRESS,
  73:../../libs/libDaisy/src/sys/system.h ****     };
  74:../../libs/libDaisy/src/sys/system.h **** 
  75:../../libs/libDaisy/src/sys/system.h ****     /** Bootloader struct for controlling bootloading parameters */
  76:../../libs/libDaisy/src/sys/system.h ****     struct BootInfo
  77:../../libs/libDaisy/src/sys/system.h ****     {
  78:../../libs/libDaisy/src/sys/system.h ****         enum class Type : uint32_t
  79:../../libs/libDaisy/src/sys/system.h ****         {
  80:../../libs/libDaisy/src/sys/system.h ****             INVALID      = 0x00000000,
  81:../../libs/libDaisy/src/sys/system.h ****             JUMP         = 0xDEADBEEF,
  82:../../libs/libDaisy/src/sys/system.h ****             SKIP_TIMEOUT = 0x5AFEB007,
  83:../../libs/libDaisy/src/sys/system.h ****             INF_TIMEOUT  = 0xB0074EFA,
  84:../../libs/libDaisy/src/sys/system.h ****         } status;
  85:../../libs/libDaisy/src/sys/system.h ****         uint32_t data;
  86:../../libs/libDaisy/src/sys/system.h ****         enum class Version : uint32_t
ARM GAS  C:\Users\skipi\AppData\Local\Temp\ccdbNCKv.s 			page 4


  87:../../libs/libDaisy/src/sys/system.h ****         {
  88:../../libs/libDaisy/src/sys/system.h ****             LT_v6_0 = 0, // Less than v6.0
  89:../../libs/libDaisy/src/sys/system.h ****             NONE,        // No bootloader present
  90:../../libs/libDaisy/src/sys/system.h ****             v6_0,        // v6.0
  91:../../libs/libDaisy/src/sys/system.h ****             v6_1,        // v6.1 or greater
  92:../../libs/libDaisy/src/sys/system.h ****             LAST
  93:../../libs/libDaisy/src/sys/system.h ****         } version;
  94:../../libs/libDaisy/src/sys/system.h ****     };
  95:../../libs/libDaisy/src/sys/system.h **** 
  96:../../libs/libDaisy/src/sys/system.h ****     System() {}
  97:../../libs/libDaisy/src/sys/system.h ****     ~System() {}
  44              		.loc 3 97 5 is_stmt 1 view .LVU3
  45              		.loc 3 97 5 is_stmt 0 view .LVU4
  46              	.LBE307:
  47              	.LBB308:
  48              	.LBI308:
  49              		.file 4 "../../libs/libDaisy/src/hid/usb.h"
   1:../../libs/libDaisy/src/hid/usb.h **** #pragma once
   2:../../libs/libDaisy/src/hid/usb.h **** #ifndef DSY_HID_USB_H
   3:../../libs/libDaisy/src/hid/usb.h **** #define DSY_HID_USB_H
   4:../../libs/libDaisy/src/hid/usb.h **** #include <stdint.h>
   5:../../libs/libDaisy/src/hid/usb.h **** #include <stdlib.h>
   6:../../libs/libDaisy/src/hid/usb.h **** 
   7:../../libs/libDaisy/src/hid/usb.h **** namespace daisy
   8:../../libs/libDaisy/src/hid/usb.h **** /** @addtogroup human_interface
   9:../../libs/libDaisy/src/hid/usb.h ****     @{
  10:../../libs/libDaisy/src/hid/usb.h **** */
  11:../../libs/libDaisy/src/hid/usb.h **** 
  12:../../libs/libDaisy/src/hid/usb.h **** {
  13:../../libs/libDaisy/src/hid/usb.h **** /** 
  14:../../libs/libDaisy/src/hid/usb.h ****     @brief Interface for initializing and using the USB Peripherals on the daisy
  15:../../libs/libDaisy/src/hid/usb.h ****     @author Stephen Hensley
  16:../../libs/libDaisy/src/hid/usb.h ****     @date December 2019
  17:../../libs/libDaisy/src/hid/usb.h **** */
  18:../../libs/libDaisy/src/hid/usb.h **** class UsbHandle
  19:../../libs/libDaisy/src/hid/usb.h **** {
  20:../../libs/libDaisy/src/hid/usb.h ****   public:
  21:../../libs/libDaisy/src/hid/usb.h ****     /** Return values for USBHandle Functions */
  22:../../libs/libDaisy/src/hid/usb.h ****     enum class Result
  23:../../libs/libDaisy/src/hid/usb.h ****     {
  24:../../libs/libDaisy/src/hid/usb.h ****         OK,
  25:../../libs/libDaisy/src/hid/usb.h ****         ERR,
  26:../../libs/libDaisy/src/hid/usb.h ****     };
  27:../../libs/libDaisy/src/hid/usb.h **** 
  28:../../libs/libDaisy/src/hid/usb.h ****     /** Specified which of the two USB Peripherals to initialize. */
  29:../../libs/libDaisy/src/hid/usb.h ****     enum UsbPeriph
  30:../../libs/libDaisy/src/hid/usb.h ****     {
  31:../../libs/libDaisy/src/hid/usb.h ****         FS_INTERNAL, /**< Internal pin */
  32:../../libs/libDaisy/src/hid/usb.h ****         FS_EXTERNAL, /**< FS External D+ pin is Pin 38 (GPIO32). FS External D- pin is Pin 37 (GPIO
  33:../../libs/libDaisy/src/hid/usb.h ****         FS_BOTH,     /**< Both */
  34:../../libs/libDaisy/src/hid/usb.h ****     };
  35:../../libs/libDaisy/src/hid/usb.h **** 
  36:../../libs/libDaisy/src/hid/usb.h **** 
  37:../../libs/libDaisy/src/hid/usb.h ****     /** Function called upon reception of a buffer */
  38:../../libs/libDaisy/src/hid/usb.h ****     typedef void (*ReceiveCallback)(uint8_t* buff, uint32_t* len);
  39:../../libs/libDaisy/src/hid/usb.h **** 
  40:../../libs/libDaisy/src/hid/usb.h ****     UsbHandle() {}
ARM GAS  C:\Users\skipi\AppData\Local\Temp\ccdbNCKv.s 			page 5


  41:../../libs/libDaisy/src/hid/usb.h **** 
  42:../../libs/libDaisy/src/hid/usb.h ****     ~UsbHandle() {}
  50              		.loc 4 42 5 is_stmt 1 view .LVU5
  51              		.loc 4 42 5 is_stmt 0 view .LVU6
  52              	.LBE308:
  53              	.LBB309:
  54              	.LBI309:
  55              		.file 5 "../../libs/libDaisy/src/per/adc.h"
   1:../../libs/libDaisy/src/per/adc.h **** #pragma once
   2:../../libs/libDaisy/src/per/adc.h **** #ifndef DSY_ADC_H
   3:../../libs/libDaisy/src/per/adc.h **** #define DSY_ADC_H /**< Macro */
   4:../../libs/libDaisy/src/per/adc.h **** #include <stdint.h>
   5:../../libs/libDaisy/src/per/adc.h **** #include <stdlib.h>
   6:../../libs/libDaisy/src/per/adc.h **** #include "daisy_core.h"
   7:../../libs/libDaisy/src/per/adc.h **** #include "per/gpio.h"
   8:../../libs/libDaisy/src/per/adc.h **** 
   9:../../libs/libDaisy/src/per/adc.h **** #define DSY_ADC_MAX_CHANNELS 16 /**< Maximum number of ADC channels */
  10:../../libs/libDaisy/src/per/adc.h **** 
  11:../../libs/libDaisy/src/per/adc.h **** namespace daisy
  12:../../libs/libDaisy/src/per/adc.h **** {
  13:../../libs/libDaisy/src/per/adc.h **** /** @addtogroup per_analog
  14:../../libs/libDaisy/src/per/adc.h ****     @{
  15:../../libs/libDaisy/src/per/adc.h **** */
  16:../../libs/libDaisy/src/per/adc.h **** 
  17:../../libs/libDaisy/src/per/adc.h **** /* While there may not be many configuration options here,
  18:../../libs/libDaisy/src/per/adc.h **** using a struct like this allows us to add more configuration
  19:../../libs/libDaisy/src/per/adc.h **** later without breaking existing functionality.
  20:../../libs/libDaisy/src/per/adc.h **** */
  21:../../libs/libDaisy/src/per/adc.h **** 
  22:../../libs/libDaisy/src/per/adc.h **** /** @brief   Configuration Structure for an ADC Channel 
  23:../../libs/libDaisy/src/per/adc.h ****  *  @details This can be used to configure a a single input, 
  24:../../libs/libDaisy/src/per/adc.h ****  *           or a multiplexed input, allowing up to 8 inputs on 
  25:../../libs/libDaisy/src/per/adc.h ****  *           one channel.
  26:../../libs/libDaisy/src/per/adc.h ****  *  @note    Sharing data lines to multiple muxes _is_ possible, but
  27:../../libs/libDaisy/src/per/adc.h ****  *           each channel sharing data lines must be set to the maximum
  28:../../libs/libDaisy/src/per/adc.h ****  *           number of channels, even if some multiplexers have fewer
  29:../../libs/libDaisy/src/per/adc.h ****  *           inputs connected.
  30:../../libs/libDaisy/src/per/adc.h **** */
  31:../../libs/libDaisy/src/per/adc.h **** struct AdcChannelConfig
  32:../../libs/libDaisy/src/per/adc.h **** {
  33:../../libs/libDaisy/src/per/adc.h ****     /** Which pin to use for multiplexing */
  34:../../libs/libDaisy/src/per/adc.h ****     enum MuxPin
  35:../../libs/libDaisy/src/per/adc.h ****     {
  36:../../libs/libDaisy/src/per/adc.h ****         MUX_SEL_0,    /**< & */
  37:../../libs/libDaisy/src/per/adc.h ****         MUX_SEL_1,    /**< & */
  38:../../libs/libDaisy/src/per/adc.h ****         MUX_SEL_2,    /**< & */
  39:../../libs/libDaisy/src/per/adc.h ****         MUX_SEL_LAST, /**< & */
  40:../../libs/libDaisy/src/per/adc.h ****     };
  41:../../libs/libDaisy/src/per/adc.h **** 
  42:../../libs/libDaisy/src/per/adc.h ****     /** \brief per channel conversion speed added to fixed time based on bitdepth, etc. */
  43:../../libs/libDaisy/src/per/adc.h ****     enum ConversionSpeed
  44:../../libs/libDaisy/src/per/adc.h ****     {
  45:../../libs/libDaisy/src/per/adc.h ****         SPEED_1CYCLES_5,
  46:../../libs/libDaisy/src/per/adc.h ****         SPEED_2CYCLES_5,
  47:../../libs/libDaisy/src/per/adc.h ****         SPEED_8CYCLES_5,
  48:../../libs/libDaisy/src/per/adc.h ****         SPEED_16CYCLES_5,
  49:../../libs/libDaisy/src/per/adc.h ****         SPEED_32CYCLES_5,
ARM GAS  C:\Users\skipi\AppData\Local\Temp\ccdbNCKv.s 			page 6


  50:../../libs/libDaisy/src/per/adc.h ****         SPEED_64CYCLES_5,
  51:../../libs/libDaisy/src/per/adc.h ****         SPEED_387CYCLES_5,
  52:../../libs/libDaisy/src/per/adc.h ****         SPEED_810CYCLES_5,
  53:../../libs/libDaisy/src/per/adc.h ****     };
  54:../../libs/libDaisy/src/per/adc.h **** 
  55:../../libs/libDaisy/src/per/adc.h ****     /** Initializes a single ADC pin as an ADC. 
  56:../../libs/libDaisy/src/per/adc.h ****     \param pin Pin to init.
  57:../../libs/libDaisy/src/per/adc.h ****     \param speed conversion speed for this pin defaults to 8.5 cycles
  58:../../libs/libDaisy/src/per/adc.h ****      */
  59:../../libs/libDaisy/src/per/adc.h ****     void InitSingle(Pin pin, ConversionSpeed speed = SPEED_8CYCLES_5);
  60:../../libs/libDaisy/src/per/adc.h **** 
  61:../../libs/libDaisy/src/per/adc.h ****     /** 
  62:../../libs/libDaisy/src/per/adc.h ****     Initializes a single ADC pin as a Multiplexed ADC.
  63:../../libs/libDaisy/src/per/adc.h ****     Requires a CD405X Multiplexer connected to the pin.
  64:../../libs/libDaisy/src/per/adc.h ****     You only need to supply the mux pins that are required,
  65:../../libs/libDaisy/src/per/adc.h ****     e.g. a 4052 mux would only require mux_0 and mux_1.
  66:../../libs/libDaisy/src/per/adc.h ****     Internal Callbacks handle the pin addressing.
  67:../../libs/libDaisy/src/per/adc.h ****     \param adc_pin &
  68:../../libs/libDaisy/src/per/adc.h ****     \param mux_channels must be 1-8
  69:../../libs/libDaisy/src/per/adc.h ****     \param mux_0 First mux pin
  70:../../libs/libDaisy/src/per/adc.h ****     \param mux_1 Second mux pin
  71:../../libs/libDaisy/src/per/adc.h ****     \param mux_2 Third mux pin
  72:../../libs/libDaisy/src/per/adc.h ****     \param speed conversion speed for this pin defaults to 8.5 cycles
  73:../../libs/libDaisy/src/per/adc.h ****     */
  74:../../libs/libDaisy/src/per/adc.h ****     void InitMux(Pin             adc_pin,
  75:../../libs/libDaisy/src/per/adc.h ****                  size_t          mux_channels,
  76:../../libs/libDaisy/src/per/adc.h ****                  Pin             mux_0,
  77:../../libs/libDaisy/src/per/adc.h ****                  Pin             mux_1 = Pin(PORTX, 0),
  78:../../libs/libDaisy/src/per/adc.h ****                  Pin             mux_2 = Pin(PORTX, 0),
  79:../../libs/libDaisy/src/per/adc.h ****                  ConversionSpeed speed = SPEED_8CYCLES_5);
  80:../../libs/libDaisy/src/per/adc.h **** 
  81:../../libs/libDaisy/src/per/adc.h ****     GPIO            pin_;                   /**< & */
  82:../../libs/libDaisy/src/per/adc.h ****     GPIO            mux_pin_[MUX_SEL_LAST]; /**< & */
  83:../../libs/libDaisy/src/per/adc.h ****     uint8_t         mux_channels_;          /**< & */
  84:../../libs/libDaisy/src/per/adc.h ****     ConversionSpeed speed_;
  85:../../libs/libDaisy/src/per/adc.h **** };
  86:../../libs/libDaisy/src/per/adc.h **** 
  87:../../libs/libDaisy/src/per/adc.h **** /**
  88:../../libs/libDaisy/src/per/adc.h ****    @brief Handler for analog to digital conversion
  89:../../libs/libDaisy/src/per/adc.h **** */
  90:../../libs/libDaisy/src/per/adc.h **** class AdcHandle
  91:../../libs/libDaisy/src/per/adc.h **** {
  92:../../libs/libDaisy/src/per/adc.h ****   public:
  93:../../libs/libDaisy/src/per/adc.h ****     /** Supported oversampling amounts */
  94:../../libs/libDaisy/src/per/adc.h ****     enum OverSampling
  95:../../libs/libDaisy/src/per/adc.h ****     {
  96:../../libs/libDaisy/src/per/adc.h ****         OVS_NONE, /**< & */
  97:../../libs/libDaisy/src/per/adc.h ****         OVS_4,    /**< & */
  98:../../libs/libDaisy/src/per/adc.h ****         OVS_8,    /**< & */
  99:../../libs/libDaisy/src/per/adc.h ****         OVS_16,   /**< & */
 100:../../libs/libDaisy/src/per/adc.h ****         OVS_32,   /**< & */
 101:../../libs/libDaisy/src/per/adc.h ****         OVS_64,   /**< & */
 102:../../libs/libDaisy/src/per/adc.h ****         OVS_128,  /**< & */
 103:../../libs/libDaisy/src/per/adc.h ****         OVS_256,  /**< & */
 104:../../libs/libDaisy/src/per/adc.h ****         OVS_512,  /**< & */
 105:../../libs/libDaisy/src/per/adc.h ****         OVS_1024, /**< & */
 106:../../libs/libDaisy/src/per/adc.h ****         OVS_LAST, /**< & */
ARM GAS  C:\Users\skipi\AppData\Local\Temp\ccdbNCKv.s 			page 7


 107:../../libs/libDaisy/src/per/adc.h ****     };
 108:../../libs/libDaisy/src/per/adc.h **** 
 109:../../libs/libDaisy/src/per/adc.h ****     AdcHandle() {}
 110:../../libs/libDaisy/src/per/adc.h ****     ~AdcHandle() {}
  56              		.loc 5 110 5 is_stmt 1 view .LVU7
  57              		.loc 5 110 5 is_stmt 0 view .LVU8
  58              	.LBE309:
  59              	.LBB310:
  60              	.LBI310:
  61              		.file 6 "../../libs/libDaisy/src/hid/audio.h"
   1:../../libs/libDaisy/src/hid/audio.h **** #ifndef DSY_AUDIO_H
   2:../../libs/libDaisy/src/hid/audio.h **** #define DSY_AUDIO_H /**< & */
   3:../../libs/libDaisy/src/hid/audio.h **** 
   4:../../libs/libDaisy/src/hid/audio.h **** #include "per/sai.h"
   5:../../libs/libDaisy/src/hid/audio.h **** 
   6:../../libs/libDaisy/src/hid/audio.h **** namespace daisy
   7:../../libs/libDaisy/src/hid/audio.h **** {
   8:../../libs/libDaisy/src/hid/audio.h **** /** @brief Audio Engine Handle
   9:../../libs/libDaisy/src/hid/audio.h ****  *  @ingroup audio 
  10:../../libs/libDaisy/src/hid/audio.h ****  *  @details This class allows for higher level access to an audio engine.
  11:../../libs/libDaisy/src/hid/audio.h ****  *           If you're using a SOM like the DaisySeed or DaisyPatchSM (or any 
  12:../../libs/libDaisy/src/hid/audio.h ****  *            board that includes one of those objects) then the intialization
  13:../../libs/libDaisy/src/hid/audio.h ****  *            is already taken  care of.
  14:../../libs/libDaisy/src/hid/audio.h ****  *           If you're setting up your own custom hardware, or need to make changes
  15:../../libs/libDaisy/src/hid/audio.h ****  *           you will have to take the following steps:
  16:../../libs/libDaisy/src/hid/audio.h ****  *             1. Create and Initialize an SaiHandle or two depending on your requirements
  17:../../libs/libDaisy/src/hid/audio.h ****  *             2. Initialize the Audio Handle with the desired settings and the Initialized SaiHand
  18:../../libs/libDaisy/src/hid/audio.h ****  *             3. If the connected codec requires special configuration or initialization, do so
  19:../../libs/libDaisy/src/hid/audio.h ****  *             4. Write a callback method using either the AudioCallback or the InterleavingAudioCa
  20:../../libs/libDaisy/src/hid/audio.h ****  *             5. Start the Audio using one of the StartAudio function
  21:../../libs/libDaisy/src/hid/audio.h ****  */
  22:../../libs/libDaisy/src/hid/audio.h **** class AudioHandle
  23:../../libs/libDaisy/src/hid/audio.h **** {
  24:../../libs/libDaisy/src/hid/audio.h ****   public:
  25:../../libs/libDaisy/src/hid/audio.h ****     /** Manually configurable details about the Audio Engine */
  26:../../libs/libDaisy/src/hid/audio.h ****     /** TODO: Figure out how to get samplerate in here. */
  27:../../libs/libDaisy/src/hid/audio.h ****     struct Config
  28:../../libs/libDaisy/src/hid/audio.h ****     {
  29:../../libs/libDaisy/src/hid/audio.h ****         /** number of samples to process per callback */
  30:../../libs/libDaisy/src/hid/audio.h ****         size_t blocksize = 48;
  31:../../libs/libDaisy/src/hid/audio.h **** 
  32:../../libs/libDaisy/src/hid/audio.h ****         /**< Sample rate of audio */
  33:../../libs/libDaisy/src/hid/audio.h ****         SaiHandle::Config::SampleRate samplerate
  34:../../libs/libDaisy/src/hid/audio.h ****             = SaiHandle::Config::SampleRate::SAI_48KHZ;
  35:../../libs/libDaisy/src/hid/audio.h **** 
  36:../../libs/libDaisy/src/hid/audio.h ****         /** factor for adjustment before and after callback for hardware that may have extra headro
  37:../../libs/libDaisy/src/hid/audio.h ****         float postgain = 1.f;
  38:../../libs/libDaisy/src/hid/audio.h **** 
  39:../../libs/libDaisy/src/hid/audio.h ****         /** factor for additional one-sided compensation to audio path for hardware that may
  40:../../libs/libDaisy/src/hid/audio.h ****          *  have unequal input/output ranges
  41:../../libs/libDaisy/src/hid/audio.h ****          */
  42:../../libs/libDaisy/src/hid/audio.h ****         float output_compensation = 1.f;
  43:../../libs/libDaisy/src/hid/audio.h ****     };
  44:../../libs/libDaisy/src/hid/audio.h **** 
  45:../../libs/libDaisy/src/hid/audio.h ****     enum class Result
  46:../../libs/libDaisy/src/hid/audio.h ****     {
  47:../../libs/libDaisy/src/hid/audio.h ****         OK,
ARM GAS  C:\Users\skipi\AppData\Local\Temp\ccdbNCKv.s 			page 8


  48:../../libs/libDaisy/src/hid/audio.h ****         ERR,
  49:../../libs/libDaisy/src/hid/audio.h ****     };
  50:../../libs/libDaisy/src/hid/audio.h **** 
  51:../../libs/libDaisy/src/hid/audio.h ****     /** Non-Interleaving input buffer
  52:../../libs/libDaisy/src/hid/audio.h ****      * Buffer arranged by float[chn][sample] 
  53:../../libs/libDaisy/src/hid/audio.h ****      * const so that the user can't modify the input
  54:../../libs/libDaisy/src/hid/audio.h ****      */
  55:../../libs/libDaisy/src/hid/audio.h ****     typedef const float* const* InputBuffer;
  56:../../libs/libDaisy/src/hid/audio.h **** 
  57:../../libs/libDaisy/src/hid/audio.h ****     /** Non-Interleaving output buffer
  58:../../libs/libDaisy/src/hid/audio.h ****      * Arranged by float[chn][sample] 
  59:../../libs/libDaisy/src/hid/audio.h ****      */
  60:../../libs/libDaisy/src/hid/audio.h ****     typedef float** OutputBuffer;
  61:../../libs/libDaisy/src/hid/audio.h **** 
  62:../../libs/libDaisy/src/hid/audio.h ****     /** Type for a Non-Interleaving audio callback 
  63:../../libs/libDaisy/src/hid/audio.h ****      * Non-Interleaving audio callbacks in daisy will be of this type
  64:../../libs/libDaisy/src/hid/audio.h ****      */
  65:../../libs/libDaisy/src/hid/audio.h ****     typedef void (*AudioCallback)(InputBuffer  in,
  66:../../libs/libDaisy/src/hid/audio.h ****                                   OutputBuffer out,
  67:../../libs/libDaisy/src/hid/audio.h ****                                   size_t       size);
  68:../../libs/libDaisy/src/hid/audio.h **** 
  69:../../libs/libDaisy/src/hid/audio.h ****     /** Interleaving Input buffer
  70:../../libs/libDaisy/src/hid/audio.h ****      ** audio is prepared as { L0, R0, L1, R1, . . . LN, RN }]
  71:../../libs/libDaisy/src/hid/audio.h ****      ** this is const, as the user shouldn't modify it
  72:../../libs/libDaisy/src/hid/audio.h ****     */
  73:../../libs/libDaisy/src/hid/audio.h ****     typedef const float* InterleavingInputBuffer;
  74:../../libs/libDaisy/src/hid/audio.h **** 
  75:../../libs/libDaisy/src/hid/audio.h ****     /** Interleaving Output buffer 
  76:../../libs/libDaisy/src/hid/audio.h ****      ** audio is prepared as { L0, R0, L1, R1, . . . LN, RN }
  77:../../libs/libDaisy/src/hid/audio.h ****     */
  78:../../libs/libDaisy/src/hid/audio.h ****     typedef float* InterleavingOutputBuffer;
  79:../../libs/libDaisy/src/hid/audio.h **** 
  80:../../libs/libDaisy/src/hid/audio.h ****     /** Interleaving Audio Callback 
  81:../../libs/libDaisy/src/hid/audio.h ****      * Interleaving audio callbacks in daisy must be of this type
  82:../../libs/libDaisy/src/hid/audio.h ****      */
  83:../../libs/libDaisy/src/hid/audio.h ****     typedef void (*InterleavingAudioCallback)(InterleavingInputBuffer  in,
  84:../../libs/libDaisy/src/hid/audio.h ****                                               InterleavingOutputBuffer out,
  85:../../libs/libDaisy/src/hid/audio.h ****                                               size_t                   size);
  86:../../libs/libDaisy/src/hid/audio.h **** 
  87:../../libs/libDaisy/src/hid/audio.h ****     AudioHandle() : pimpl_(nullptr) {}
  88:../../libs/libDaisy/src/hid/audio.h ****     ~AudioHandle() {}
  62              		.loc 6 88 5 is_stmt 1 view .LVU9
  63              		.loc 6 88 5 is_stmt 0 view .LVU10
  64              	.LBE310:
  65              		.loc 1 22 19 view .LVU11
  66 0000 7047     		bx	lr
  67              		.cfi_endproc
  68              	.LFE2645:
  70              		.weak	_ZN5daisy9DaisySeedD1Ev
  71              		.thumb_set _ZN5daisy9DaisySeedD1Ev,_ZN5daisy9DaisySeedD2Ev
  72 0002 00BF     		.section	.text._ZN5daisy6Mpr121INS_18Mpr121I2CTransportEED2Ev,"axG",%progbits,_ZN5daisy6Mpr121INS_
  73              		.align	1
  74              		.p2align 2,,3
  75              		.weak	_ZN5daisy6Mpr121INS_18Mpr121I2CTransportEED2Ev
  76              		.syntax unified
  77              		.thumb
  78              		.thumb_func
ARM GAS  C:\Users\skipi\AppData\Local\Temp\ccdbNCKv.s 			page 9


  79              		.fpu fpv5-d16
  81              	_ZN5daisy6Mpr121INS_18Mpr121I2CTransportEED2Ev:
  82              	.LVL1:
  83              	.LFB5394:
  84              		.file 7 "../../libs/libDaisy/src/dev/mpr121.h"
   1:../../libs/libDaisy/src/dev/mpr121.h **** #pragma once
   2:../../libs/libDaisy/src/dev/mpr121.h **** #ifndef DSY_MPR121_H
   3:../../libs/libDaisy/src/dev/mpr121.h **** #define DSY_MPR121_H
   4:../../libs/libDaisy/src/dev/mpr121.h **** 
   5:../../libs/libDaisy/src/dev/mpr121.h **** // The default I2C address
   6:../../libs/libDaisy/src/dev/mpr121.h **** #define MPR121_I2CADDR_DEFAULT 0x5A        ///< default I2C address
   7:../../libs/libDaisy/src/dev/mpr121.h **** #define MPR121_TOUCH_THRESHOLD_DEFAULT 3  ///< default touch threshold value
   8:../../libs/libDaisy/src/dev/mpr121.h **** #define MPR121_RELEASE_THRESHOLD_DEFAULT 2  ///< default relese threshold value
   9:../../libs/libDaisy/src/dev/mpr121.h **** 
  10:../../libs/libDaisy/src/dev/mpr121.h **** namespace daisy
  11:../../libs/libDaisy/src/dev/mpr121.h **** {
  12:../../libs/libDaisy/src/dev/mpr121.h **** /** @addtogroup external 
  13:../../libs/libDaisy/src/dev/mpr121.h ****     @{ 
  14:../../libs/libDaisy/src/dev/mpr121.h **** */
  15:../../libs/libDaisy/src/dev/mpr121.h **** 
  16:../../libs/libDaisy/src/dev/mpr121.h **** /** I2C Transport for MPR121 */
  17:../../libs/libDaisy/src/dev/mpr121.h **** class Mpr121I2CTransport
  18:../../libs/libDaisy/src/dev/mpr121.h **** {
  19:../../libs/libDaisy/src/dev/mpr121.h ****   public:
  20:../../libs/libDaisy/src/dev/mpr121.h ****     Mpr121I2CTransport() {}
  21:../../libs/libDaisy/src/dev/mpr121.h ****     ~Mpr121I2CTransport() {}
  22:../../libs/libDaisy/src/dev/mpr121.h **** 
  23:../../libs/libDaisy/src/dev/mpr121.h ****     struct Config
  24:../../libs/libDaisy/src/dev/mpr121.h ****     {
  25:../../libs/libDaisy/src/dev/mpr121.h ****         I2CHandle::Config::Peripheral periph;
  26:../../libs/libDaisy/src/dev/mpr121.h ****         I2CHandle::Config::Speed      speed;
  27:../../libs/libDaisy/src/dev/mpr121.h ****         Pin                           scl;
  28:../../libs/libDaisy/src/dev/mpr121.h ****         Pin                           sda;
  29:../../libs/libDaisy/src/dev/mpr121.h **** 
  30:../../libs/libDaisy/src/dev/mpr121.h ****         I2CHandle::Config::Mode mode;
  31:../../libs/libDaisy/src/dev/mpr121.h **** 
  32:../../libs/libDaisy/src/dev/mpr121.h ****         uint8_t dev_addr;
  33:../../libs/libDaisy/src/dev/mpr121.h **** 
  34:../../libs/libDaisy/src/dev/mpr121.h ****         Config()
  35:../../libs/libDaisy/src/dev/mpr121.h ****         {
  36:../../libs/libDaisy/src/dev/mpr121.h ****             periph = I2CHandle::Config::Peripheral::I2C_1;
  37:../../libs/libDaisy/src/dev/mpr121.h ****             speed  = I2CHandle::Config::Speed::I2C_400KHZ;
  38:../../libs/libDaisy/src/dev/mpr121.h **** 
  39:../../libs/libDaisy/src/dev/mpr121.h ****             scl = Pin(PORTB, 8);
  40:../../libs/libDaisy/src/dev/mpr121.h ****             sda = Pin(PORTB, 9);
  41:../../libs/libDaisy/src/dev/mpr121.h **** 
  42:../../libs/libDaisy/src/dev/mpr121.h ****             dev_addr = MPR121_I2CADDR_DEFAULT;
  43:../../libs/libDaisy/src/dev/mpr121.h ****         }
  44:../../libs/libDaisy/src/dev/mpr121.h ****     };
  45:../../libs/libDaisy/src/dev/mpr121.h **** 
  46:../../libs/libDaisy/src/dev/mpr121.h ****     /** \return Did the transaction error? i.e. Return true if error, false if ok */
  47:../../libs/libDaisy/src/dev/mpr121.h ****     inline bool Init(Config config)
  48:../../libs/libDaisy/src/dev/mpr121.h ****     {
  49:../../libs/libDaisy/src/dev/mpr121.h ****         config_ = config;
  50:../../libs/libDaisy/src/dev/mpr121.h **** 
  51:../../libs/libDaisy/src/dev/mpr121.h ****         I2CHandle::Config i2c_conf;
  52:../../libs/libDaisy/src/dev/mpr121.h ****         i2c_conf.mode   = I2CHandle::Config::Mode::I2C_MASTER;
ARM GAS  C:\Users\skipi\AppData\Local\Temp\ccdbNCKv.s 			page 10


  53:../../libs/libDaisy/src/dev/mpr121.h ****         i2c_conf.periph = config.periph;
  54:../../libs/libDaisy/src/dev/mpr121.h ****         i2c_conf.speed  = config.speed;
  55:../../libs/libDaisy/src/dev/mpr121.h **** 
  56:../../libs/libDaisy/src/dev/mpr121.h ****         i2c_conf.pin_config.scl = config.scl;
  57:../../libs/libDaisy/src/dev/mpr121.h ****         i2c_conf.pin_config.sda = config.sda;
  58:../../libs/libDaisy/src/dev/mpr121.h **** 
  59:../../libs/libDaisy/src/dev/mpr121.h ****         return I2CHandle::Result::OK != i2c_.Init(i2c_conf);
  60:../../libs/libDaisy/src/dev/mpr121.h ****     }
  61:../../libs/libDaisy/src/dev/mpr121.h **** 
  62:../../libs/libDaisy/src/dev/mpr121.h ****     /** \return Did the transaction error? i.e. Return true if error, false if ok */
  63:../../libs/libDaisy/src/dev/mpr121.h ****     bool Write(uint8_t *data, uint16_t size)
  64:../../libs/libDaisy/src/dev/mpr121.h ****     {
  65:../../libs/libDaisy/src/dev/mpr121.h ****         return I2CHandle::Result::OK
  66:../../libs/libDaisy/src/dev/mpr121.h ****                != i2c_.TransmitBlocking(config_.dev_addr, data, size, 10);
  67:../../libs/libDaisy/src/dev/mpr121.h ****     }
  68:../../libs/libDaisy/src/dev/mpr121.h **** 
  69:../../libs/libDaisy/src/dev/mpr121.h ****     /** \return Did the transaction error? i.e. Return true if error, false if ok */
  70:../../libs/libDaisy/src/dev/mpr121.h ****     bool Read(uint8_t *data, uint16_t size)
  71:../../libs/libDaisy/src/dev/mpr121.h ****     {
  72:../../libs/libDaisy/src/dev/mpr121.h ****         return I2CHandle::Result::OK
  73:../../libs/libDaisy/src/dev/mpr121.h ****                != i2c_.ReceiveBlocking(config_.dev_addr, data, size, 10);
  74:../../libs/libDaisy/src/dev/mpr121.h ****     }
  75:../../libs/libDaisy/src/dev/mpr121.h **** 
  76:../../libs/libDaisy/src/dev/mpr121.h ****   private:
  77:../../libs/libDaisy/src/dev/mpr121.h ****     I2CHandle i2c_;
  78:../../libs/libDaisy/src/dev/mpr121.h ****     Config    config_;
  79:../../libs/libDaisy/src/dev/mpr121.h **** };
  80:../../libs/libDaisy/src/dev/mpr121.h **** 
  81:../../libs/libDaisy/src/dev/mpr121.h **** 
  82:../../libs/libDaisy/src/dev/mpr121.h **** /** @brief Device support for MPR121 12x Capacitive Touch Sensor
  83:../../libs/libDaisy/src/dev/mpr121.h ****     @author beserge
  84:../../libs/libDaisy/src/dev/mpr121.h ****     @date December 2021
  85:../../libs/libDaisy/src/dev/mpr121.h **** */
  86:../../libs/libDaisy/src/dev/mpr121.h **** template <typename Transport>
  87:../../libs/libDaisy/src/dev/mpr121.h **** class Mpr121
  88:../../libs/libDaisy/src/dev/mpr121.h **** {
  89:../../libs/libDaisy/src/dev/mpr121.h ****   public:
  90:../../libs/libDaisy/src/dev/mpr121.h ****     Mpr121() {}
  91:../../libs/libDaisy/src/dev/mpr121.h ****     ~Mpr121() {}
  85              		.loc 7 91 5 is_stmt 1 view -0
  86              		.cfi_startproc
  87              		@ args = 0, pretend = 0, frame = 0
  88              		@ frame_needed = 0, uses_anonymous_args = 0
  89              		@ link register save eliminated.
  90              	.LBB311:
  91              	.LBI311:
  21:../../libs/libDaisy/src/dev/mpr121.h **** 
  92              		.loc 7 21 5 view .LVU13
  21:../../libs/libDaisy/src/dev/mpr121.h **** 
  93              		.loc 7 21 5 is_stmt 0 view .LVU14
  94              	.LBE311:
  95              		.loc 7 91 16 view .LVU15
  96 0000 7047     		bx	lr
  97              		.cfi_endproc
  98              	.LFE5394:
 100              		.weak	_ZN5daisy6Mpr121INS_18Mpr121I2CTransportEED1Ev
 101              		.thumb_set _ZN5daisy6Mpr121INS_18Mpr121I2CTransportEED1Ev,_ZN5daisy6Mpr121INS_18Mpr121I2CTransport
ARM GAS  C:\Users\skipi\AppData\Local\Temp\ccdbNCKv.s 			page 11


 102 0002 00BF     		.section	.text._ZN5daisy6Mpr121INS_18Mpr121I2CTransportEE13WriteRegisterEhh,"axG",%progbits,_ZN5da
 103              		.align	1
 104              		.p2align 2,,3
 105              		.weak	_ZN5daisy6Mpr121INS_18Mpr121I2CTransportEE13WriteRegisterEhh
 106              		.syntax unified
 107              		.thumb
 108              		.thumb_func
 109              		.fpu fpv5-d16
 111              	_ZN5daisy6Mpr121INS_18Mpr121I2CTransportEE13WriteRegisterEhh:
 112              	.LVL2:
 113              	.LFB5249:
  92:../../libs/libDaisy/src/dev/mpr121.h **** 
  93:../../libs/libDaisy/src/dev/mpr121.h ****     struct Config
  94:../../libs/libDaisy/src/dev/mpr121.h ****     {
  95:../../libs/libDaisy/src/dev/mpr121.h ****         typename Transport::Config transport_config;
  96:../../libs/libDaisy/src/dev/mpr121.h ****         uint8_t                    touch_threshold;
  97:../../libs/libDaisy/src/dev/mpr121.h ****         uint8_t                    release_threshold;
  98:../../libs/libDaisy/src/dev/mpr121.h **** 
  99:../../libs/libDaisy/src/dev/mpr121.h ****         Config()
 100:../../libs/libDaisy/src/dev/mpr121.h ****         {
 101:../../libs/libDaisy/src/dev/mpr121.h ****             touch_threshold   = MPR121_TOUCH_THRESHOLD_DEFAULT;
 102:../../libs/libDaisy/src/dev/mpr121.h ****             release_threshold = MPR121_RELEASE_THRESHOLD_DEFAULT;
 103:../../libs/libDaisy/src/dev/mpr121.h ****         }
 104:../../libs/libDaisy/src/dev/mpr121.h ****     };
 105:../../libs/libDaisy/src/dev/mpr121.h **** 
 106:../../libs/libDaisy/src/dev/mpr121.h ****     enum Result
 107:../../libs/libDaisy/src/dev/mpr121.h ****     {
 108:../../libs/libDaisy/src/dev/mpr121.h ****         OK = 0,
 109:../../libs/libDaisy/src/dev/mpr121.h ****         ERR
 110:../../libs/libDaisy/src/dev/mpr121.h ****     };
 111:../../libs/libDaisy/src/dev/mpr121.h **** 
 112:../../libs/libDaisy/src/dev/mpr121.h ****     /** Initialize the MPR121 device
 113:../../libs/libDaisy/src/dev/mpr121.h ****         \param config Configuration settings
 114:../../libs/libDaisy/src/dev/mpr121.h ****     */
 115:../../libs/libDaisy/src/dev/mpr121.h ****     Result Init(Config config)
 116:../../libs/libDaisy/src/dev/mpr121.h ****     {
 117:../../libs/libDaisy/src/dev/mpr121.h ****         config_ = config;
 118:../../libs/libDaisy/src/dev/mpr121.h **** 
 119:../../libs/libDaisy/src/dev/mpr121.h ****         SetTransportErr(transport_.Init(config_.transport_config));
 120:../../libs/libDaisy/src/dev/mpr121.h **** 
 121:../../libs/libDaisy/src/dev/mpr121.h ****         // soft reset
 122:../../libs/libDaisy/src/dev/mpr121.h ****         WriteRegister(MPR121_SOFTRESET, 0x63);
 123:../../libs/libDaisy/src/dev/mpr121.h ****         System::Delay(1);
 124:../../libs/libDaisy/src/dev/mpr121.h **** 
 125:../../libs/libDaisy/src/dev/mpr121.h ****         WriteRegister(MPR121_ECR, 0x0);
 126:../../libs/libDaisy/src/dev/mpr121.h **** 
 127:../../libs/libDaisy/src/dev/mpr121.h ****         // this doesn't work for some reason...
 128:../../libs/libDaisy/src/dev/mpr121.h ****         // uint8_t c = ReadRegister8(MPR121_CONFIG2);
 129:../../libs/libDaisy/src/dev/mpr121.h **** 
 130:../../libs/libDaisy/src/dev/mpr121.h ****         // if(c != 0x24)
 131:../../libs/libDaisy/src/dev/mpr121.h ****         //     return ERR;
 132:../../libs/libDaisy/src/dev/mpr121.h **** 
 133:../../libs/libDaisy/src/dev/mpr121.h ****         SetThresholds(config_.touch_threshold, config_.release_threshold);
 134:../../libs/libDaisy/src/dev/mpr121.h ****         WriteRegister(MPR121_MHDR, 0x01);
 135:../../libs/libDaisy/src/dev/mpr121.h ****         WriteRegister(MPR121_NHDR, 0x01);
 136:../../libs/libDaisy/src/dev/mpr121.h ****         WriteRegister(MPR121_NCLR, 0x0E);
 137:../../libs/libDaisy/src/dev/mpr121.h ****         WriteRegister(MPR121_FDLR, 0x00);
ARM GAS  C:\Users\skipi\AppData\Local\Temp\ccdbNCKv.s 			page 12


 138:../../libs/libDaisy/src/dev/mpr121.h **** 
 139:../../libs/libDaisy/src/dev/mpr121.h ****         WriteRegister(MPR121_MHDF, 0x01);
 140:../../libs/libDaisy/src/dev/mpr121.h ****         WriteRegister(MPR121_NHDF, 0x05);
 141:../../libs/libDaisy/src/dev/mpr121.h ****         WriteRegister(MPR121_NCLF, 0x01);
 142:../../libs/libDaisy/src/dev/mpr121.h ****         WriteRegister(MPR121_FDLF, 0x00);
 143:../../libs/libDaisy/src/dev/mpr121.h **** 
 144:../../libs/libDaisy/src/dev/mpr121.h ****         WriteRegister(MPR121_NHDT, 0x00);
 145:../../libs/libDaisy/src/dev/mpr121.h ****         WriteRegister(MPR121_NCLT, 0x00);
 146:../../libs/libDaisy/src/dev/mpr121.h ****         WriteRegister(MPR121_FDLT, 0x00);
 147:../../libs/libDaisy/src/dev/mpr121.h **** 
 148:../../libs/libDaisy/src/dev/mpr121.h ****         WriteRegister(MPR121_DEBOUNCE, 0);
 149:../../libs/libDaisy/src/dev/mpr121.h ****         WriteRegister(MPR121_CONFIG1, 0x10); // default, 16uA charge current
 150:../../libs/libDaisy/src/dev/mpr121.h ****         WriteRegister(MPR121_CONFIG2, 0x20); // 0.5uS encoding, 1ms period
 151:../../libs/libDaisy/src/dev/mpr121.h **** 
 152:../../libs/libDaisy/src/dev/mpr121.h ****         // autoconfig
 153:../../libs/libDaisy/src/dev/mpr121.h ****         // WriteRegister(MPR121_AUTOCONFIG0, 0x0B);
 154:../../libs/libDaisy/src/dev/mpr121.h **** 
 155:../../libs/libDaisy/src/dev/mpr121.h ****         // correct values for Vdd = 3.3V
 156:../../libs/libDaisy/src/dev/mpr121.h ****         // WriteRegister(MPR121_UPLIMIT, 200);     // ((Vdd - 0.7)/Vdd) * 256
 157:../../libs/libDaisy/src/dev/mpr121.h ****         // WriteRegister(MPR121_TARGETLIMIT, 180); // UPLIMIT * 0.9
 158:../../libs/libDaisy/src/dev/mpr121.h ****         // WriteRegister(MPR121_LOWLIMIT, 130);    // UPLIMIT * 0.65
 159:../../libs/libDaisy/src/dev/mpr121.h ****         // autoconfig
 160:../../libs/libDaisy/src/dev/mpr121.h **** 
 161:../../libs/libDaisy/src/dev/mpr121.h ****         // enable X electrodes and start MPR121
 162:../../libs/libDaisy/src/dev/mpr121.h ****         uint8_t ECR_SETTING
 163:../../libs/libDaisy/src/dev/mpr121.h ****             = 0x80
 164:../../libs/libDaisy/src/dev/mpr121.h ****               + 12; // 5 bits for baseline tracking & proximity disabled + X
 165:../../libs/libDaisy/src/dev/mpr121.h ****                     // amount of electrodes running (12)
 166:../../libs/libDaisy/src/dev/mpr121.h ****         WriteRegister(MPR121_ECR,
 167:../../libs/libDaisy/src/dev/mpr121.h ****                       ECR_SETTING); // start with above ECR setting
 168:../../libs/libDaisy/src/dev/mpr121.h **** 
 169:../../libs/libDaisy/src/dev/mpr121.h ****         return GetTransportErr();
 170:../../libs/libDaisy/src/dev/mpr121.h ****     }
 171:../../libs/libDaisy/src/dev/mpr121.h **** 
 172:../../libs/libDaisy/src/dev/mpr121.h ****     /** Set the touch and release thresholds for all 13 channels on the
 173:../../libs/libDaisy/src/dev/mpr121.h ****         device to the passed values.
 174:../../libs/libDaisy/src/dev/mpr121.h ****         \param      touch The touch threshold value from 0 to 255.
 175:../../libs/libDaisy/src/dev/mpr121.h ****         \param      release The release threshold from 0 to 255.
 176:../../libs/libDaisy/src/dev/mpr121.h ****     */
 177:../../libs/libDaisy/src/dev/mpr121.h ****     void SetThresholds(uint8_t touch, uint8_t release)
 178:../../libs/libDaisy/src/dev/mpr121.h ****     {
 179:../../libs/libDaisy/src/dev/mpr121.h ****         // set all thresholds (the same)
 180:../../libs/libDaisy/src/dev/mpr121.h ****         for(uint8_t i = 0; i < 12; i++)
 181:../../libs/libDaisy/src/dev/mpr121.h ****         {
 182:../../libs/libDaisy/src/dev/mpr121.h ****             WriteRegister(MPR121_TOUCHTH_0 + 2 * i, touch);
 183:../../libs/libDaisy/src/dev/mpr121.h ****             WriteRegister(MPR121_RELEASETH_0 + 2 * i, release);
 184:../../libs/libDaisy/src/dev/mpr121.h ****         }
 185:../../libs/libDaisy/src/dev/mpr121.h ****     }
 186:../../libs/libDaisy/src/dev/mpr121.h **** 
 187:../../libs/libDaisy/src/dev/mpr121.h **** 
 188:../../libs/libDaisy/src/dev/mpr121.h ****     /** Read the filtered data from channel t. The ADC raw data outputs
 189:../../libs/libDaisy/src/dev/mpr121.h ****         run through 3 levels of digital filtering to filter out the high
 190:../../libs/libDaisy/src/dev/mpr121.h ****         frequency and low frequency noise encountered. For detailed information on
 191:../../libs/libDaisy/src/dev/mpr121.h ****         this filtering see page 6 of the device datasheet.
 192:../../libs/libDaisy/src/dev/mpr121.h ****         \param      t the channel to read
 193:../../libs/libDaisy/src/dev/mpr121.h ****         \returns    the filtered reading as a 10 bit unsigned value
 194:../../libs/libDaisy/src/dev/mpr121.h ****     */
ARM GAS  C:\Users\skipi\AppData\Local\Temp\ccdbNCKv.s 			page 13


 195:../../libs/libDaisy/src/dev/mpr121.h ****     uint16_t FilteredData(uint8_t t)
 196:../../libs/libDaisy/src/dev/mpr121.h ****     {
 197:../../libs/libDaisy/src/dev/mpr121.h ****         if(t > 12)
 198:../../libs/libDaisy/src/dev/mpr121.h ****             return 0;
 199:../../libs/libDaisy/src/dev/mpr121.h ****         return ReadRegister16(MPR121_FILTDATA_0L + t * 2);
 200:../../libs/libDaisy/src/dev/mpr121.h ****     }
 201:../../libs/libDaisy/src/dev/mpr121.h **** 
 202:../../libs/libDaisy/src/dev/mpr121.h ****     /** Read the baseline value for the channel. The 3rd level filtered
 203:../../libs/libDaisy/src/dev/mpr121.h ****         result is internally 10bit but only high 8 bits are readable
 204:../../libs/libDaisy/src/dev/mpr121.h ****         from registers 0x1E~0x2A as the baseline value output for each channel.
 205:../../libs/libDaisy/src/dev/mpr121.h ****         \param      t the channel to read.
 206:../../libs/libDaisy/src/dev/mpr121.h ****         \returns    the baseline data that was read
 207:../../libs/libDaisy/src/dev/mpr121.h ****     */
 208:../../libs/libDaisy/src/dev/mpr121.h ****     uint16_t BaselineData(uint8_t t)
 209:../../libs/libDaisy/src/dev/mpr121.h ****     {
 210:../../libs/libDaisy/src/dev/mpr121.h ****         if(t > 12)
 211:../../libs/libDaisy/src/dev/mpr121.h ****             return 0;
 212:../../libs/libDaisy/src/dev/mpr121.h ****         uint16_t bl = ReadRegister8(MPR121_BASELINE_0 + t);
 213:../../libs/libDaisy/src/dev/mpr121.h ****         return (bl << 2);
 214:../../libs/libDaisy/src/dev/mpr121.h ****     }
 215:../../libs/libDaisy/src/dev/mpr121.h **** 
 216:../../libs/libDaisy/src/dev/mpr121.h ****     /** Read the touch status of all 13 channels as bit values in a 12 bit integer.
 217:../../libs/libDaisy/src/dev/mpr121.h ****         \returns    a 12 bit integer with each bit corresponding to the touch status
 218:../../libs/libDaisy/src/dev/mpr121.h ****         of a sensor. For example, if bit 0 is set then channel 0 of the
 219:../../libs/libDaisy/src/dev/mpr121.h ****         device is currently deemed to be touched.
 220:../../libs/libDaisy/src/dev/mpr121.h ****     */
 221:../../libs/libDaisy/src/dev/mpr121.h ****     uint16_t Touched()
 222:../../libs/libDaisy/src/dev/mpr121.h ****     {
 223:../../libs/libDaisy/src/dev/mpr121.h ****         uint16_t t = ReadRegister16(MPR121_TOUCHSTATUS_L);
 224:../../libs/libDaisy/src/dev/mpr121.h ****         return t & 0x0FFF;
 225:../../libs/libDaisy/src/dev/mpr121.h ****     }
 226:../../libs/libDaisy/src/dev/mpr121.h **** 
 227:../../libs/libDaisy/src/dev/mpr121.h ****     /** Read the contents of an 8 bit device register.
 228:../../libs/libDaisy/src/dev/mpr121.h ****         \param      reg the register address to read from
 229:../../libs/libDaisy/src/dev/mpr121.h ****         \returns    the 8 bit value that was read.
 230:../../libs/libDaisy/src/dev/mpr121.h ****     */
 231:../../libs/libDaisy/src/dev/mpr121.h ****     uint8_t ReadRegister8(uint8_t reg)
 232:../../libs/libDaisy/src/dev/mpr121.h ****     {
 233:../../libs/libDaisy/src/dev/mpr121.h ****         uint8_t buff;
 234:../../libs/libDaisy/src/dev/mpr121.h ****         SetTransportErr(transport_.Write(&reg, 1));
 235:../../libs/libDaisy/src/dev/mpr121.h ****         SetTransportErr(transport_.Read(&buff, 1));
 236:../../libs/libDaisy/src/dev/mpr121.h **** 
 237:../../libs/libDaisy/src/dev/mpr121.h ****         return buff;
 238:../../libs/libDaisy/src/dev/mpr121.h ****     }
 239:../../libs/libDaisy/src/dev/mpr121.h **** 
 240:../../libs/libDaisy/src/dev/mpr121.h ****     /** Read the contents of a 16 bit device register.
 241:../../libs/libDaisy/src/dev/mpr121.h ****         \param      reg the register address to read from
 242:../../libs/libDaisy/src/dev/mpr121.h ****         \returns    the 16 bit value that was read.
 243:../../libs/libDaisy/src/dev/mpr121.h ****     */
 244:../../libs/libDaisy/src/dev/mpr121.h ****     uint16_t ReadRegister16(uint8_t reg)
 245:../../libs/libDaisy/src/dev/mpr121.h ****     {
 246:../../libs/libDaisy/src/dev/mpr121.h ****         uint16_t buff;
 247:../../libs/libDaisy/src/dev/mpr121.h ****         SetTransportErr(transport_.Write(&reg, 1));
 248:../../libs/libDaisy/src/dev/mpr121.h ****         SetTransportErr(transport_.Read((uint8_t *)&buff, 2));
 249:../../libs/libDaisy/src/dev/mpr121.h **** 
 250:../../libs/libDaisy/src/dev/mpr121.h ****         return buff;
 251:../../libs/libDaisy/src/dev/mpr121.h ****     }
ARM GAS  C:\Users\skipi\AppData\Local\Temp\ccdbNCKv.s 			page 14


 252:../../libs/libDaisy/src/dev/mpr121.h **** 
 253:../../libs/libDaisy/src/dev/mpr121.h ****     /** Writes 8-bits to the specified destination register
 254:../../libs/libDaisy/src/dev/mpr121.h ****         \param  reg the register address to write to
 255:../../libs/libDaisy/src/dev/mpr121.h ****         \param  value the value to write
 256:../../libs/libDaisy/src/dev/mpr121.h ****     */
 257:../../libs/libDaisy/src/dev/mpr121.h ****     void WriteRegister(uint8_t reg, uint8_t value)
 114              		.loc 7 257 10 is_stmt 1 view -0
 115              		.cfi_startproc
 116              		@ args = 0, pretend = 0, frame = 8
 117              		@ frame_needed = 0, uses_anonymous_args = 0
 118              		.loc 7 257 10 is_stmt 0 view .LVU17
 119 0000 2DE9F043 		push	{r4, r5, r6, r7, r8, r9, lr}
 120              		.cfi_def_cfa_offset 28
 121              		.cfi_offset 4, -28
 122              		.cfi_offset 5, -24
 123              		.cfi_offset 6, -20
 124              		.cfi_offset 7, -16
 125              		.cfi_offset 8, -12
 126              		.cfi_offset 9, -8
 127              		.cfi_offset 14, -4
 258:../../libs/libDaisy/src/dev/mpr121.h ****     {
 259:../../libs/libDaisy/src/dev/mpr121.h ****         // MPR121 must be put in Stop Mode to write to most registers
 260:../../libs/libDaisy/src/dev/mpr121.h ****         bool stop_required = true;
 261:../../libs/libDaisy/src/dev/mpr121.h **** 
 262:../../libs/libDaisy/src/dev/mpr121.h ****         // first get the current set value of the MPR121_ECR register
 263:../../libs/libDaisy/src/dev/mpr121.h ****         uint8_t ecr_reg = MPR121_ECR;
 264:../../libs/libDaisy/src/dev/mpr121.h ****         uint8_t buff[2] = {ecr_reg, 0x00};
 128              		.loc 7 264 17 view .LVU18
 129 0004 0023     		movs	r3, #0
 257:../../libs/libDaisy/src/dev/mpr121.h ****     {
 130              		.loc 7 257 10 view .LVU19
 131 0006 85B0     		sub	sp, sp, #20
 132              		.cfi_def_cfa_offset 48
 133              	.LBB342:
 134              	.LBB343:
  66:../../libs/libDaisy/src/dev/mpr121.h ****     }
 135              		.loc 7 66 40 view .LVU20
 136 0008 00F11806 		add	r6, r0, #24
 137 000c 4FF00A08 		mov	r8, #10
 138              	.LBE343:
 139              	.LBE342:
 257:../../libs/libDaisy/src/dev/mpr121.h ****     {
 140              		.loc 7 257 10 view .LVU21
 141 0010 0446     		mov	r4, r0
 142              		.loc 7 264 17 view .LVU22
 143 0012 4FF05E09 		mov	r9, #94
 257:../../libs/libDaisy/src/dev/mpr121.h ****     {
 144              		.loc 7 257 10 view .LVU23
 145 0016 0D46     		mov	r5, r1
 146              		.loc 7 264 17 view .LVU24
 147 0018 8DF80D30 		strb	r3, [sp, #13]
 148              	.LBB347:
 149              	.LBB344:
  66:../../libs/libDaisy/src/dev/mpr121.h ****     }
 150              		.loc 7 66 40 view .LVU25
 151 001c CDF80080 		str	r8, [sp]
 152 0020 0123     		movs	r3, #1
ARM GAS  C:\Users\skipi\AppData\Local\Temp\ccdbNCKv.s 			page 15


 153 0022 90F82C10 		ldrb	r1, [r0, #44]	@ zero_extendqisi2
 154              	.LVL3:
  66:../../libs/libDaisy/src/dev/mpr121.h ****     }
 155              		.loc 7 66 40 view .LVU26
 156              	.LBE344:
 157              	.LBE347:
 257:../../libs/libDaisy/src/dev/mpr121.h ****     {
 158              		.loc 7 257 10 view .LVU27
 159 0026 1746     		mov	r7, r2
 160              	.LBB348:
 161              	.LBB345:
  66:../../libs/libDaisy/src/dev/mpr121.h ****     }
 162              		.loc 7 66 40 view .LVU28
 163 0028 3046     		mov	r0, r6
 164              	.LVL4:
  66:../../libs/libDaisy/src/dev/mpr121.h ****     }
 165              		.loc 7 66 40 view .LVU29
 166 002a 03AA     		add	r2, sp, #12
 167              	.LVL5:
  66:../../libs/libDaisy/src/dev/mpr121.h ****     }
 168              		.loc 7 66 40 view .LVU30
 169              	.LBE345:
 170              	.LBE348:
 171              		.loc 7 264 17 view .LVU31
 172 002c 8DF80C90 		strb	r9, [sp, #12]
 173              	.LVL6:
 174              	.LBB349:
 175              	.LBI342:
  63:../../libs/libDaisy/src/dev/mpr121.h ****     {
 176              		.loc 7 63 10 is_stmt 1 view .LVU32
 177              	.LBB346:
  65:../../libs/libDaisy/src/dev/mpr121.h ****                != i2c_.TransmitBlocking(config_.dev_addr, data, size, 10);
 178              		.loc 7 65 9 view .LVU33
  66:../../libs/libDaisy/src/dev/mpr121.h ****     }
 179              		.loc 7 66 40 is_stmt 0 view .LVU34
 180 0030 FFF7FEFF 		bl	_ZN5daisy9I2CHandle16TransmitBlockingEtPhtm
 181              	.LVL7:
  66:../../libs/libDaisy/src/dev/mpr121.h ****     }
 182              		.loc 7 66 40 view .LVU35
 183              	.LBE346:
 184              	.LBE349:
 185              	.LBB350:
 186              	.LBI350:
 265:../../libs/libDaisy/src/dev/mpr121.h **** 
 266:../../libs/libDaisy/src/dev/mpr121.h ****         SetTransportErr(transport_.Write(buff, 1));
 267:../../libs/libDaisy/src/dev/mpr121.h **** 
 268:../../libs/libDaisy/src/dev/mpr121.h ****         uint8_t ecr_backup;
 269:../../libs/libDaisy/src/dev/mpr121.h ****         SetTransportErr(transport_.Read(&ecr_backup, 1));
 270:../../libs/libDaisy/src/dev/mpr121.h ****         if((reg == MPR121_ECR) || ((0x73 <= reg) && (reg <= 0x7A)))
 271:../../libs/libDaisy/src/dev/mpr121.h ****         {
 272:../../libs/libDaisy/src/dev/mpr121.h ****             stop_required = false;
 273:../../libs/libDaisy/src/dev/mpr121.h ****         }
 274:../../libs/libDaisy/src/dev/mpr121.h **** 
 275:../../libs/libDaisy/src/dev/mpr121.h ****         if(stop_required)
 276:../../libs/libDaisy/src/dev/mpr121.h ****         {
 277:../../libs/libDaisy/src/dev/mpr121.h ****             // clear this register to set stop mode
 278:../../libs/libDaisy/src/dev/mpr121.h ****             SetTransportErr(transport_.Write(buff, 2));
ARM GAS  C:\Users\skipi\AppData\Local\Temp\ccdbNCKv.s 			page 16


 279:../../libs/libDaisy/src/dev/mpr121.h ****         }
 280:../../libs/libDaisy/src/dev/mpr121.h **** 
 281:../../libs/libDaisy/src/dev/mpr121.h ****         buff[0] = reg;
 282:../../libs/libDaisy/src/dev/mpr121.h ****         buff[1] = value;
 283:../../libs/libDaisy/src/dev/mpr121.h ****         SetTransportErr(transport_.Write(buff, 2));
 284:../../libs/libDaisy/src/dev/mpr121.h **** 
 285:../../libs/libDaisy/src/dev/mpr121.h ****         if(stop_required)
 286:../../libs/libDaisy/src/dev/mpr121.h ****         {
 287:../../libs/libDaisy/src/dev/mpr121.h ****             // write back the previous set ECR settings
 288:../../libs/libDaisy/src/dev/mpr121.h ****             buff[0] = ecr_reg;
 289:../../libs/libDaisy/src/dev/mpr121.h ****             buff[1] = ecr_backup;
 290:../../libs/libDaisy/src/dev/mpr121.h ****             SetTransportErr(transport_.Write(buff, 2));
 291:../../libs/libDaisy/src/dev/mpr121.h ****         }
 292:../../libs/libDaisy/src/dev/mpr121.h ****     }
 293:../../libs/libDaisy/src/dev/mpr121.h **** 
 294:../../libs/libDaisy/src/dev/mpr121.h ****     /** Device register map */
 295:../../libs/libDaisy/src/dev/mpr121.h ****     enum RegMap
 296:../../libs/libDaisy/src/dev/mpr121.h ****     {
 297:../../libs/libDaisy/src/dev/mpr121.h ****         MPR121_TOUCHSTATUS_L = 0x00,
 298:../../libs/libDaisy/src/dev/mpr121.h ****         MPR121_TOUCHSTATUS_H = 0x01,
 299:../../libs/libDaisy/src/dev/mpr121.h ****         MPR121_FILTDATA_0L   = 0x04,
 300:../../libs/libDaisy/src/dev/mpr121.h ****         MPR121_FILTDATA_0H   = 0x05,
 301:../../libs/libDaisy/src/dev/mpr121.h ****         MPR121_BASELINE_0    = 0x1E,
 302:../../libs/libDaisy/src/dev/mpr121.h ****         MPR121_MHDR          = 0x2B,
 303:../../libs/libDaisy/src/dev/mpr121.h ****         MPR121_NHDR          = 0x2C,
 304:../../libs/libDaisy/src/dev/mpr121.h ****         MPR121_NCLR          = 0x2D,
 305:../../libs/libDaisy/src/dev/mpr121.h ****         MPR121_FDLR          = 0x2E,
 306:../../libs/libDaisy/src/dev/mpr121.h ****         MPR121_MHDF          = 0x2F,
 307:../../libs/libDaisy/src/dev/mpr121.h ****         MPR121_NHDF          = 0x30,
 308:../../libs/libDaisy/src/dev/mpr121.h ****         MPR121_NCLF          = 0x31,
 309:../../libs/libDaisy/src/dev/mpr121.h ****         MPR121_FDLF          = 0x32,
 310:../../libs/libDaisy/src/dev/mpr121.h ****         MPR121_NHDT          = 0x33,
 311:../../libs/libDaisy/src/dev/mpr121.h ****         MPR121_NCLT          = 0x34,
 312:../../libs/libDaisy/src/dev/mpr121.h ****         MPR121_FDLT          = 0x35,
 313:../../libs/libDaisy/src/dev/mpr121.h **** 
 314:../../libs/libDaisy/src/dev/mpr121.h ****         MPR121_TOUCHTH_0    = 0x41,
 315:../../libs/libDaisy/src/dev/mpr121.h ****         MPR121_RELEASETH_0  = 0x42,
 316:../../libs/libDaisy/src/dev/mpr121.h ****         MPR121_DEBOUNCE     = 0x5B,
 317:../../libs/libDaisy/src/dev/mpr121.h ****         MPR121_CONFIG1      = 0x5C,
 318:../../libs/libDaisy/src/dev/mpr121.h ****         MPR121_CONFIG2      = 0x5D,
 319:../../libs/libDaisy/src/dev/mpr121.h ****         MPR121_CHARGECURR_0 = 0x5F,
 320:../../libs/libDaisy/src/dev/mpr121.h ****         MPR121_CHARGETIME_1 = 0x6C,
 321:../../libs/libDaisy/src/dev/mpr121.h ****         MPR121_ECR          = 0x5E,
 322:../../libs/libDaisy/src/dev/mpr121.h ****         MPR121_AUTOCONFIG0  = 0x7B,
 323:../../libs/libDaisy/src/dev/mpr121.h ****         MPR121_AUTOCONFIG1  = 0x7C,
 324:../../libs/libDaisy/src/dev/mpr121.h ****         MPR121_UPLIMIT      = 0x7D,
 325:../../libs/libDaisy/src/dev/mpr121.h ****         MPR121_LOWLIMIT     = 0x7E,
 326:../../libs/libDaisy/src/dev/mpr121.h ****         MPR121_TARGETLIMIT  = 0x7F,
 327:../../libs/libDaisy/src/dev/mpr121.h **** 
 328:../../libs/libDaisy/src/dev/mpr121.h ****         MPR121_GPIODIR    = 0x76,
 329:../../libs/libDaisy/src/dev/mpr121.h ****         MPR121_GPIOEN     = 0x77,
 330:../../libs/libDaisy/src/dev/mpr121.h ****         MPR121_GPIOSET    = 0x78,
 331:../../libs/libDaisy/src/dev/mpr121.h ****         MPR121_GPIOCLR    = 0x79,
 332:../../libs/libDaisy/src/dev/mpr121.h ****         MPR121_GPIOTOGGLE = 0x7A,
 333:../../libs/libDaisy/src/dev/mpr121.h **** 
 334:../../libs/libDaisy/src/dev/mpr121.h ****         MPR121_SOFTRESET = 0x80,
 335:../../libs/libDaisy/src/dev/mpr121.h ****     };
ARM GAS  C:\Users\skipi\AppData\Local\Temp\ccdbNCKv.s 			page 17


 336:../../libs/libDaisy/src/dev/mpr121.h **** 
 337:../../libs/libDaisy/src/dev/mpr121.h ****   private:
 338:../../libs/libDaisy/src/dev/mpr121.h ****     Config    config_;
 339:../../libs/libDaisy/src/dev/mpr121.h ****     Transport transport_;
 340:../../libs/libDaisy/src/dev/mpr121.h ****     bool      transport_error_;
 341:../../libs/libDaisy/src/dev/mpr121.h **** 
 342:../../libs/libDaisy/src/dev/mpr121.h ****     /** Set the global transport_error_ bool */
 343:../../libs/libDaisy/src/dev/mpr121.h ****     void SetTransportErr(bool err) { transport_error_ |= err; }
 187              		.loc 7 343 10 is_stmt 1 view .LVU36
 188              	.LBE350:
 189              	.LBB354:
 190              	.LBB355:
  73:../../libs/libDaisy/src/dev/mpr121.h ****     }
 191              		.loc 7 73 39 is_stmt 0 view .LVU37
 192 0034 CDF80080 		str	r8, [sp]
 193 0038 0DF10B02 		add	r2, sp, #11
 194              	.LBE355:
 195              	.LBE354:
 196              	.LBB359:
 197              	.LBB351:
 198              		.loc 7 343 55 view .LVU38
 199 003c 94F83030 		ldrb	r3, [r4, #48]	@ zero_extendqisi2
 200              	.LBE351:
 201              	.LBE359:
 202              	.LBB360:
 203              	.LBB356:
  73:../../libs/libDaisy/src/dev/mpr121.h ****     }
 204              		.loc 7 73 39 view .LVU39
 205 0040 94F82C10 		ldrb	r1, [r4, #44]	@ zero_extendqisi2
 206              	.LBE356:
 207              	.LBE360:
 208              	.LBB361:
 209              	.LBB352:
 210              		.loc 7 343 55 view .LVU40
 211 0044 0028     		cmp	r0, #0
 212 0046 18BF     		it	ne
 213 0048 43F00103 		orrne	r3, r3, #1
 214              	.LBE352:
 215              	.LBE361:
 216              	.LBB362:
 217              	.LBB357:
  73:../../libs/libDaisy/src/dev/mpr121.h ****     }
 218              		.loc 7 73 39 view .LVU41
 219 004c 3046     		mov	r0, r6
 220              	.LVL8:
  73:../../libs/libDaisy/src/dev/mpr121.h ****     }
 221              		.loc 7 73 39 view .LVU42
 222              	.LBE357:
 223              	.LBE362:
 224              	.LBB363:
 225              	.LBB353:
 226              		.loc 7 343 55 view .LVU43
 227 004e 84F83030 		strb	r3, [r4, #48]
 228              	.LVL9:
 229              		.loc 7 343 55 view .LVU44
 230              	.LBE353:
 231              	.LBE363:
ARM GAS  C:\Users\skipi\AppData\Local\Temp\ccdbNCKv.s 			page 18


 232              	.LBB364:
 233              	.LBI354:
  70:../../libs/libDaisy/src/dev/mpr121.h ****     {
 234              		.loc 7 70 10 is_stmt 1 view .LVU45
 235              	.LBB358:
  72:../../libs/libDaisy/src/dev/mpr121.h ****                != i2c_.ReceiveBlocking(config_.dev_addr, data, size, 10);
 236              		.loc 7 72 9 view .LVU46
  73:../../libs/libDaisy/src/dev/mpr121.h ****     }
 237              		.loc 7 73 39 is_stmt 0 view .LVU47
 238 0052 0123     		movs	r3, #1
 239 0054 FFF7FEFF 		bl	_ZN5daisy9I2CHandle15ReceiveBlockingEtPhtm
 240              	.LVL10:
  73:../../libs/libDaisy/src/dev/mpr121.h ****     }
 241              		.loc 7 73 39 view .LVU48
 242              	.LBE358:
 243              	.LBE364:
 244              	.LBB365:
 245              	.LBI365:
 246              		.loc 7 343 10 is_stmt 1 view .LVU49
 247              	.LBB366:
 248              		.loc 7 343 55 is_stmt 0 view .LVU50
 249 0058 94F83030 		ldrb	r3, [r4, #48]	@ zero_extendqisi2
 250 005c 0028     		cmp	r0, #0
 251 005e 18BF     		it	ne
 252 0060 43F00103 		orrne	r3, r3, #1
 253 0064 84F83030 		strb	r3, [r4, #48]
 254              	.LVL11:
 255              		.loc 7 343 55 view .LVU51
 256              	.LBE366:
 257              	.LBE365:
 270:../../libs/libDaisy/src/dev/mpr121.h ****         {
 258              		.loc 7 270 50 view .LVU52
 259 0068 A5F17303 		sub	r3, r5, #115
 270:../../libs/libDaisy/src/dev/mpr121.h ****         {
 260              		.loc 7 270 9 view .LVU53
 261 006c 072B     		cmp	r3, #7
 262 006e 01D9     		bls	.L5
 263 0070 4D45     		cmp	r5, r9
 264 0072 17D1     		bne	.L9
 265              	.L5:
 266              	.LVL12:
 267              	.LBB367:
 268              	.LBB368:
  66:../../libs/libDaisy/src/dev/mpr121.h ****     }
 269              		.loc 7 66 40 view .LVU54
 270 0074 0A23     		movs	r3, #10
 271 0076 03AA     		add	r2, sp, #12
 272 0078 3046     		mov	r0, r6
 273              	.LBE368:
 274              	.LBE367:
 281:../../libs/libDaisy/src/dev/mpr121.h ****         buff[1] = value;
 275              		.loc 7 281 17 view .LVU55
 276 007a 8DF80C50 		strb	r5, [sp, #12]
 277              	.LBB377:
 278              	.LBB369:
  66:../../libs/libDaisy/src/dev/mpr121.h ****     }
 279              		.loc 7 66 40 view .LVU56
ARM GAS  C:\Users\skipi\AppData\Local\Temp\ccdbNCKv.s 			page 19


 280 007e 0093     		str	r3, [sp]
 281 0080 0223     		movs	r3, #2
 282              	.LBE369:
 283              	.LBE377:
 282:../../libs/libDaisy/src/dev/mpr121.h ****         SetTransportErr(transport_.Write(buff, 2));
 284              		.loc 7 282 17 view .LVU57
 285 0082 8DF80D70 		strb	r7, [sp, #13]
 286              	.LVL13:
 287              	.LBB378:
 288              	.LBI367:
  63:../../libs/libDaisy/src/dev/mpr121.h ****     {
 289              		.loc 7 63 10 is_stmt 1 view .LVU58
 290              	.LBB370:
  65:../../libs/libDaisy/src/dev/mpr121.h ****                != i2c_.TransmitBlocking(config_.dev_addr, data, size, 10);
 291              		.loc 7 65 9 view .LVU59
 292              	.L8:
  66:../../libs/libDaisy/src/dev/mpr121.h ****     }
 293              		.loc 7 66 40 is_stmt 0 view .LVU60
 294 0086 94F82C10 		ldrb	r1, [r4, #44]	@ zero_extendqisi2
 295 008a FFF7FEFF 		bl	_ZN5daisy9I2CHandle16TransmitBlockingEtPhtm
 296              	.LVL14:
  66:../../libs/libDaisy/src/dev/mpr121.h ****     }
 297              		.loc 7 66 40 view .LVU61
 298              	.LBE370:
 299              	.LBE378:
 300              	.LBB379:
 301              	.LBI379:
 302              		.loc 7 343 10 is_stmt 1 view .LVU62
 303              	.LBB380:
 304              		.loc 7 343 55 is_stmt 0 view .LVU63
 305 008e 94F83030 		ldrb	r3, [r4, #48]	@ zero_extendqisi2
 306 0092 0028     		cmp	r0, #0
 307 0094 18BF     		it	ne
 308 0096 43F00103 		orrne	r3, r3, #1
 309 009a 84F83030 		strb	r3, [r4, #48]
 310              	.LVL15:
 311              		.loc 7 343 55 view .LVU64
 312              	.LBE380:
 313              	.LBE379:
 292:../../libs/libDaisy/src/dev/mpr121.h **** 
 314              		.loc 7 292 5 view .LVU65
 315 009e 05B0     		add	sp, sp, #20
 316              		.cfi_remember_state
 317              		.cfi_def_cfa_offset 28
 318              		@ sp needed
 319 00a0 BDE8F083 		pop	{r4, r5, r6, r7, r8, r9, pc}
 320              	.LVL16:
 321              	.L9:
 322              		.cfi_restore_state
 323              	.LBB384:
 324              	.LBI384:
  63:../../libs/libDaisy/src/dev/mpr121.h ****     {
 325              		.loc 7 63 10 is_stmt 1 view .LVU66
 326              	.LBB385:
  65:../../libs/libDaisy/src/dev/mpr121.h ****                != i2c_.TransmitBlocking(config_.dev_addr, data, size, 10);
 327              		.loc 7 65 9 view .LVU67
  66:../../libs/libDaisy/src/dev/mpr121.h ****     }
ARM GAS  C:\Users\skipi\AppData\Local\Temp\ccdbNCKv.s 			page 20


 328              		.loc 7 66 40 is_stmt 0 view .LVU68
 329 00a4 0223     		movs	r3, #2
 330 00a6 03AA     		add	r2, sp, #12
 331              	.LVL17:
  66:../../libs/libDaisy/src/dev/mpr121.h ****     }
 332              		.loc 7 66 40 view .LVU69
 333 00a8 CDF80080 		str	r8, [sp]
 334 00ac 3046     		mov	r0, r6
 335 00ae 94F82C10 		ldrb	r1, [r4, #44]	@ zero_extendqisi2
 336 00b2 FFF7FEFF 		bl	_ZN5daisy9I2CHandle16TransmitBlockingEtPhtm
 337              	.LVL18:
  66:../../libs/libDaisy/src/dev/mpr121.h ****     }
 338              		.loc 7 66 40 view .LVU70
 339              	.LBE385:
 340              	.LBE384:
 341              	.LBB386:
 342              	.LBI386:
 343              		.loc 7 343 10 is_stmt 1 view .LVU71
 344              	.LBE386:
 345              	.LBB390:
 346              	.LBB371:
  66:../../libs/libDaisy/src/dev/mpr121.h ****     }
 347              		.loc 7 66 40 is_stmt 0 view .LVU72
 348 00b6 CDF80080 		str	r8, [sp]
 349              	.LBE371:
 350              	.LBE390:
 351              	.LBB391:
 352              	.LBB387:
 353              		.loc 7 343 55 view .LVU73
 354 00ba 94F83030 		ldrb	r3, [r4, #48]	@ zero_extendqisi2
 355              	.LBE387:
 356              	.LBE391:
 357              	.LBB392:
 358              	.LBB372:
  66:../../libs/libDaisy/src/dev/mpr121.h ****     }
 359              		.loc 7 66 40 view .LVU74
 360 00be 03AA     		add	r2, sp, #12
 361 00c0 94F82C10 		ldrb	r1, [r4, #44]	@ zero_extendqisi2
 362              	.LBE372:
 363              	.LBE392:
 364              	.LBB393:
 365              	.LBB388:
 366              		.loc 7 343 55 view .LVU75
 367 00c4 0028     		cmp	r0, #0
 368 00c6 18BF     		it	ne
 369 00c8 43F00103 		orrne	r3, r3, #1
 370              	.LBE388:
 371              	.LBE393:
 372              	.LBB394:
 373              	.LBB373:
  66:../../libs/libDaisy/src/dev/mpr121.h ****     }
 374              		.loc 7 66 40 view .LVU76
 375 00cc 3046     		mov	r0, r6
 376              	.LVL19:
  66:../../libs/libDaisy/src/dev/mpr121.h ****     }
 377              		.loc 7 66 40 view .LVU77
 378              	.LBE373:
ARM GAS  C:\Users\skipi\AppData\Local\Temp\ccdbNCKv.s 			page 21


 379              	.LBE394:
 281:../../libs/libDaisy/src/dev/mpr121.h ****         buff[1] = value;
 380              		.loc 7 281 17 view .LVU78
 381 00ce 8DF80C50 		strb	r5, [sp, #12]
 382              	.LBB395:
 383              	.LBB389:
 384              		.loc 7 343 55 view .LVU79
 385 00d2 84F83030 		strb	r3, [r4, #48]
 386              	.LVL20:
 387              		.loc 7 343 55 view .LVU80
 388              	.LBE389:
 389              	.LBE395:
 390              	.LBB396:
  63:../../libs/libDaisy/src/dev/mpr121.h ****     {
 391              		.loc 7 63 10 is_stmt 1 view .LVU81
 392              	.LBB374:
  65:../../libs/libDaisy/src/dev/mpr121.h ****                != i2c_.TransmitBlocking(config_.dev_addr, data, size, 10);
 393              		.loc 7 65 9 view .LVU82
  66:../../libs/libDaisy/src/dev/mpr121.h ****     }
 394              		.loc 7 66 40 is_stmt 0 view .LVU83
 395 00d6 0223     		movs	r3, #2
 396              	.LBE374:
 397              	.LBE396:
 282:../../libs/libDaisy/src/dev/mpr121.h ****         SetTransportErr(transport_.Write(buff, 2));
 398              		.loc 7 282 17 view .LVU84
 399 00d8 8DF80D70 		strb	r7, [sp, #13]
 400              	.LBB397:
 401              	.LBB375:
  66:../../libs/libDaisy/src/dev/mpr121.h ****     }
 402              		.loc 7 66 40 view .LVU85
 403 00dc FFF7FEFF 		bl	_ZN5daisy9I2CHandle16TransmitBlockingEtPhtm
 404              	.LVL21:
  66:../../libs/libDaisy/src/dev/mpr121.h ****     }
 405              		.loc 7 66 40 view .LVU86
 406              	.LBE375:
 407              	.LBE397:
 408              	.LBB398:
 409              	.LBB399:
 410 00e0 CDF80080 		str	r8, [sp]
 411              	.LBE399:
 412              	.LBE398:
 413              	.LBB404:
 414              	.LBB376:
 415 00e4 0546     		mov	r5, r0
 416              	.LVL22:
  66:../../libs/libDaisy/src/dev/mpr121.h ****     }
 417              		.loc 7 66 40 view .LVU87
 418              	.LBE376:
 419              	.LBE404:
 420              	.LBB405:
 421              		.loc 7 343 10 is_stmt 1 view .LVU88
 422              	.LBB381:
 423              		.loc 7 343 55 is_stmt 0 view .LVU89
 424 00e6 94F83010 		ldrb	r1, [r4, #48]	@ zero_extendqisi2
 425              	.LBE381:
 426              	.LBE405:
 427              	.LBB406:
ARM GAS  C:\Users\skipi\AppData\Local\Temp\ccdbNCKv.s 			page 22


 428              	.LBB400:
  66:../../libs/libDaisy/src/dev/mpr121.h ****     }
 429              		.loc 7 66 40 view .LVU90
 430 00ea 03AA     		add	r2, sp, #12
 431              	.LBE400:
 432              	.LBE406:
 289:../../libs/libDaisy/src/dev/mpr121.h ****             SetTransportErr(transport_.Write(buff, 2));
 433              		.loc 7 289 21 view .LVU91
 434 00ec 9DF80B30 		ldrb	r3, [sp, #11]	@ zero_extendqisi2
 435              	.LBB407:
 436              	.LBB401:
  66:../../libs/libDaisy/src/dev/mpr121.h ****     }
 437              		.loc 7 66 40 view .LVU92
 438 00f0 3046     		mov	r0, r6
 439              	.LVL23:
  66:../../libs/libDaisy/src/dev/mpr121.h ****     }
 440              		.loc 7 66 40 view .LVU93
 441              	.LBE401:
 442              	.LBE407:
 443              	.LBB408:
 444              	.LBB382:
 445              		.loc 7 343 55 view .LVU94
 446 00f2 002D     		cmp	r5, #0
 447 00f4 18BF     		it	ne
 448 00f6 41F00101 		orrne	r1, r1, #1
 449              	.LBE382:
 450              	.LBE408:
 288:../../libs/libDaisy/src/dev/mpr121.h ****             buff[1] = ecr_backup;
 451              		.loc 7 288 21 view .LVU95
 452 00fa 8DF80C90 		strb	r9, [sp, #12]
 289:../../libs/libDaisy/src/dev/mpr121.h ****             SetTransportErr(transport_.Write(buff, 2));
 453              		.loc 7 289 21 view .LVU96
 454 00fe 8DF80D30 		strb	r3, [sp, #13]
 455              	.LBB409:
 456              	.LBB402:
  66:../../libs/libDaisy/src/dev/mpr121.h ****     }
 457              		.loc 7 66 40 view .LVU97
 458 0102 0223     		movs	r3, #2
 459              	.LBE402:
 460              	.LBE409:
 461              	.LBB410:
 462              	.LBB383:
 463              		.loc 7 343 55 view .LVU98
 464 0104 84F83010 		strb	r1, [r4, #48]
 465              	.LVL24:
 466              		.loc 7 343 55 view .LVU99
 467              	.LBE383:
 468              	.LBE410:
 469              	.LBB411:
 470              	.LBI398:
  63:../../libs/libDaisy/src/dev/mpr121.h ****     {
 471              		.loc 7 63 10 is_stmt 1 view .LVU100
 472              	.LBB403:
  65:../../libs/libDaisy/src/dev/mpr121.h ****                != i2c_.TransmitBlocking(config_.dev_addr, data, size, 10);
 473              		.loc 7 65 9 view .LVU101
 474 0108 BDE7     		b	.L8
 475              	.LBE403:
ARM GAS  C:\Users\skipi\AppData\Local\Temp\ccdbNCKv.s 			page 23


 476              	.LBE411:
 477              		.cfi_endproc
 478              	.LFE5249:
 480 010a 00BF     		.section	.rodata.main.str1.4,"aMS",%progbits,1
 481              		.align	2
 482              	.LC0:
 483 0000 4D505231 		.ascii	"MPR121 not found, check wiring?\000"
 483      3231206E 
 483      6F742066 
 483      6F756E64 
 483      2C206368 
 484              		.align	2
 485              	.LC1:
 486 0020 4D505231 		.ascii	"MPR121 found!\000"
 486      32312066 
 486      6F756E64 
 486      2100
 487 002e 0000     		.align	2
 488              	.LC2:
 489 0030 2D2D2D2D 		.ascii	"---------------------------------------------------"
 489      2D2D2D2D 
 489      2D2D2D2D 
 489      2D2D2D2D 
 489      2D2D2D2D 
 490 0063 2D2D2D2D 		.ascii	"-----------------------------\000"
 490      2D2D2D2D 
 490      2D2D2D2D 
 490      2D2D2D2D 
 490      2D2D2D2D 
 491 0081 000000   		.align	2
 492              	.LC3:
 493 0084 43415020 		.ascii	"CAP 0 touched\000"
 493      3020746F 
 493      75636865 
 493      6400
 494 0092 0000     		.align	2
 495              	.LC4:
 496 0094 256400   		.ascii	"%d\000"
 497 0097 00       		.align	2
 498              	.LC5:
 499 0098 43415020 		.ascii	"CAP 0 released\000"
 499      30207265 
 499      6C656173 
 499      656400
 500              		.section	.text.startup.main,"ax",%progbits
 501              		.align	1
 502              		.p2align 2,,3
 503              		.global	main
 504              		.syntax unified
 505              		.thumb
 506              		.thumb_func
 507              		.fpu fpv5-d16
 509              	main:
 510              	.LFB4814:
 511              		.file 8 "main0.cpp"
   1:main0.cpp     **** #include "../../libs/libDaisy/src/daisy_seed.h"
   2:main0.cpp     **** #include "../../libs/DaisySP/Source/daisysp.h"
ARM GAS  C:\Users\skipi\AppData\Local\Temp\ccdbNCKv.s 			page 24


   3:main0.cpp     **** 
   4:main0.cpp     **** #ifndef _BV // used to mask registers' bits related to the channel
   5:main0.cpp     **** #define _BV(bit) (1 << (bit))
   6:main0.cpp     **** #endif
   7:main0.cpp     **** 
   8:main0.cpp     **** using namespace daisy;
   9:main0.cpp     **** using namespace daisysp;
  10:main0.cpp     **** //--OLD ARDUINO: Adafruit_MPR121 cap = Adafruit_MPR121();
  11:main0.cpp     **** 
  12:main0.cpp     **** daisy::Mpr121I2C::Config mpr121ObjConf; // creates config for mpr121 (constructor sets all to deafu
  13:main0.cpp     **** 
  14:main0.cpp     **** daisy::Mpr121I2C cap; // creates object for mpr121
  15:main0.cpp     **** 
  16:main0.cpp     **** DaisySeed hw;
  17:main0.cpp     **** 
  18:main0.cpp     **** uint16_t lasttouched = 0;
  19:main0.cpp     **** uint16_t currtouched = 0;
  20:main0.cpp     **** 
  21:main0.cpp     **** int main()
  22:main0.cpp     **** {
 512              		.loc 8 22 1 view -0
 513              		.cfi_startproc
 514              		@ args = 0, pretend = 0, frame = 64
 515              		@ frame_needed = 0, uses_anonymous_args = 0
  23:main0.cpp     **** 
  24:main0.cpp     ****   float sample_rate;
 516              		.loc 8 24 3 view .LVU103
  25:main0.cpp     ****   hw.Configure();
 517              		.loc 8 25 3 view .LVU104
  22:main0.cpp     **** 
 518              		.loc 8 22 1 is_stmt 0 view .LVU105
 519 0000 2DE9F04F 		push	{r4, r5, r6, r7, r8, r9, r10, fp, lr}
 520              		.cfi_def_cfa_offset 36
 521              		.cfi_offset 4, -36
 522              		.cfi_offset 5, -32
 523              		.cfi_offset 6, -28
 524              		.cfi_offset 7, -24
 525              		.cfi_offset 8, -20
 526              		.cfi_offset 9, -16
 527              		.cfi_offset 10, -12
 528              		.cfi_offset 11, -8
 529              		.cfi_offset 14, -4
 530              		.loc 8 25 15 view .LVU106
 531 0004 C948     		ldr	r0, .L25
  22:main0.cpp     **** 
 532              		.loc 8 22 1 view .LVU107
 533 0006 93B0     		sub	sp, sp, #76
 534              		.cfi_def_cfa_offset 112
 535              		.loc 8 25 15 view .LVU108
 536 0008 FFF7FEFF 		bl	_ZN5daisy9DaisySeed9ConfigureEv
 537              	.LVL25:
  26:main0.cpp     ****   hw.Init();
 538              		.loc 8 26 3 is_stmt 1 view .LVU109
 539              		.loc 8 26 10 is_stmt 0 view .LVU110
 540 000c 0021     		movs	r1, #0
 541 000e C748     		ldr	r0, .L25
 542 0010 0CAD     		add	r5, sp, #48
ARM GAS  C:\Users\skipi\AppData\Local\Temp\ccdbNCKv.s 			page 25


 543 0012 FFF7FEFF 		bl	_ZN5daisy9DaisySeed4InitEb
 544              	.LVL26:
  27:main0.cpp     ****   hw.SetAudioBlockSize(4);
 545              		.loc 8 27 3 is_stmt 1 view .LVU111
 546              		.loc 8 27 23 is_stmt 0 view .LVU112
 547 0016 0421     		movs	r1, #4
 548 0018 C448     		ldr	r0, .L25
 549              	.LBB520:
 550              	.LBB521:
 117:../../libs/libDaisy/src/dev/mpr121.h **** 
 551              		.loc 7 117 9 view .LVU113
 552 001a 2F46     		mov	r7, r5
 553              	.LBE521:
 554              	.LBE520:
 555              		.loc 8 27 23 view .LVU114
 556 001c FFF7FEFF 		bl	_ZN5daisy9DaisySeed17SetAudioBlockSizeEj
 557              	.LVL27:
  28:main0.cpp     ****   sample_rate = hw.AudioSampleRate();
 558              		.loc 8 28 3 is_stmt 1 view .LVU115
 559 0020 C34C     		ldr	r4, .L25+4
 560              		.loc 8 28 35 is_stmt 0 view .LVU116
 561 0022 C248     		ldr	r0, .L25
 562              	.LBB710:
 563              	.LBB706:
 564              	.LBB522:
 565              	.LBB523:
  52:../../libs/libDaisy/src/dev/mpr121.h ****         i2c_conf.periph = config.periph;
 566              		.loc 7 52 25 view .LVU117
 567 0024 4FF00009 		mov	r9, #0
 568              	.LBE523:
 569              	.LBE522:
 570              	.LBE706:
 571              	.LBE710:
 572              		.loc 8 28 35 view .LVU118
 573 0028 FFF7FEFF 		bl	_ZN5daisy9DaisySeed15AudioSampleRateEv
 574              	.LVL28:
  29:main0.cpp     **** 
  30:main0.cpp     ****   hw.StartLog(true);
 575              		.loc 8 30 3 is_stmt 1 view .LVU119
 576              	.LBB711:
 577              	.LBI711:
  23:../../libs/libDaisy/src/daisy_seed.h **** 
  24:../../libs/libDaisy/src/daisy_seed.h ****     /** This function used to provide a pre-initialization configuraiton 
  25:../../libs/libDaisy/src/daisy_seed.h ****      *  it has since been deprecated, and does nothing.
  26:../../libs/libDaisy/src/daisy_seed.h ****      */
  27:../../libs/libDaisy/src/daisy_seed.h ****     void Configure();
  28:../../libs/libDaisy/src/daisy_seed.h **** 
  29:../../libs/libDaisy/src/daisy_seed.h ****     /** 
  30:../../libs/libDaisy/src/daisy_seed.h ****     Initializes the Daisy Seed and the following peripherals:
  31:../../libs/libDaisy/src/daisy_seed.h ****     SDRAM, QSPI, 24-bit 48kHz Audio via AK4556, Internal USB,
  32:../../libs/libDaisy/src/daisy_seed.h ****     as well as the built-in LED and Testpoint.
  33:../../libs/libDaisy/src/daisy_seed.h **** 
  34:../../libs/libDaisy/src/daisy_seed.h ****     ADCs, DACs, and other special peripherals (such as I2C, SPI, etc.)
  35:../../libs/libDaisy/src/daisy_seed.h ****     can be initialized using their specific initializers within libdaisy
  36:../../libs/libDaisy/src/daisy_seed.h ****     for a specific application.
  37:../../libs/libDaisy/src/daisy_seed.h ****     */
  38:../../libs/libDaisy/src/daisy_seed.h ****     void Init(bool boost = false);
ARM GAS  C:\Users\skipi\AppData\Local\Temp\ccdbNCKv.s 			page 26


  39:../../libs/libDaisy/src/daisy_seed.h **** 
  40:../../libs/libDaisy/src/daisy_seed.h ****     /** 
  41:../../libs/libDaisy/src/daisy_seed.h ****     Deinitializes all peripherals automatically handled by `Init`.
  42:../../libs/libDaisy/src/daisy_seed.h ****     */
  43:../../libs/libDaisy/src/daisy_seed.h ****     void DeInit();
  44:../../libs/libDaisy/src/daisy_seed.h **** 
  45:../../libs/libDaisy/src/daisy_seed.h ****     /** 
  46:../../libs/libDaisy/src/daisy_seed.h ****     Wait some ms before going on.
  47:../../libs/libDaisy/src/daisy_seed.h ****     \param del Delay time in ms.
  48:../../libs/libDaisy/src/daisy_seed.h ****     */
  49:../../libs/libDaisy/src/daisy_seed.h ****     void DelayMs(size_t del);
  50:../../libs/libDaisy/src/daisy_seed.h **** 
  51:../../libs/libDaisy/src/daisy_seed.h ****     /** 
  52:../../libs/libDaisy/src/daisy_seed.h ****     Returns the gpio_pin corresponding to the index 0-31.
  53:../../libs/libDaisy/src/daisy_seed.h ****     For the given GPIO on the Daisy Seed (labeled 1-32 in docs).
  54:../../libs/libDaisy/src/daisy_seed.h ****     */
  55:../../libs/libDaisy/src/daisy_seed.h ****     static Pin GetPin(uint8_t pin_idx);
  56:../../libs/libDaisy/src/daisy_seed.h **** 
  57:../../libs/libDaisy/src/daisy_seed.h ****     /** Begins the audio for the seeds builtin audio.
  58:../../libs/libDaisy/src/daisy_seed.h ****     the specified callback will get called whenever
  59:../../libs/libDaisy/src/daisy_seed.h ****     new data is ready to be prepared.
  60:../../libs/libDaisy/src/daisy_seed.h ****     */
  61:../../libs/libDaisy/src/daisy_seed.h ****     void StartAudio(AudioHandle::InterleavingAudioCallback cb);
  62:../../libs/libDaisy/src/daisy_seed.h **** 
  63:../../libs/libDaisy/src/daisy_seed.h ****     /** Begins the audio for the seeds builtin audio.
  64:../../libs/libDaisy/src/daisy_seed.h ****     the specified callback will get called whenever
  65:../../libs/libDaisy/src/daisy_seed.h ****     new data is ready to be prepared.
  66:../../libs/libDaisy/src/daisy_seed.h ****     This will use the newer non-interleaved callback.
  67:../../libs/libDaisy/src/daisy_seed.h ****     */
  68:../../libs/libDaisy/src/daisy_seed.h ****     void StartAudio(AudioHandle::AudioCallback cb);
  69:../../libs/libDaisy/src/daisy_seed.h **** 
  70:../../libs/libDaisy/src/daisy_seed.h ****     /** Changes to a new interleaved callback
  71:../../libs/libDaisy/src/daisy_seed.h ****      */
  72:../../libs/libDaisy/src/daisy_seed.h ****     void ChangeAudioCallback(AudioHandle::InterleavingAudioCallback cb);
  73:../../libs/libDaisy/src/daisy_seed.h **** 
  74:../../libs/libDaisy/src/daisy_seed.h ****     /** Changes to a new multichannel callback
  75:../../libs/libDaisy/src/daisy_seed.h ****      */
  76:../../libs/libDaisy/src/daisy_seed.h ****     void ChangeAudioCallback(AudioHandle::AudioCallback cb);
  77:../../libs/libDaisy/src/daisy_seed.h **** 
  78:../../libs/libDaisy/src/daisy_seed.h ****     /** Stops the audio if it is running. */
  79:../../libs/libDaisy/src/daisy_seed.h ****     void StopAudio();
  80:../../libs/libDaisy/src/daisy_seed.h **** 
  81:../../libs/libDaisy/src/daisy_seed.h ****     /** Updates the Audio Sample Rate, and reinitializes.
  82:../../libs/libDaisy/src/daisy_seed.h ****      ** Audio must be stopped for this to work.
  83:../../libs/libDaisy/src/daisy_seed.h ****      */
  84:../../libs/libDaisy/src/daisy_seed.h ****     void SetAudioSampleRate(SaiHandle::Config::SampleRate samplerate);
  85:../../libs/libDaisy/src/daisy_seed.h **** 
  86:../../libs/libDaisy/src/daisy_seed.h ****     /** Returns the audio sample rate in Hz as a floating point number.
  87:../../libs/libDaisy/src/daisy_seed.h ****      */
  88:../../libs/libDaisy/src/daisy_seed.h ****     float AudioSampleRate();
  89:../../libs/libDaisy/src/daisy_seed.h **** 
  90:../../libs/libDaisy/src/daisy_seed.h ****     /** Sets the number of samples processed per channel by the audio callback.
  91:../../libs/libDaisy/src/daisy_seed.h ****      */
  92:../../libs/libDaisy/src/daisy_seed.h ****     void SetAudioBlockSize(size_t blocksize);
  93:../../libs/libDaisy/src/daisy_seed.h **** 
  94:../../libs/libDaisy/src/daisy_seed.h ****     /** Returns the number of samples per channel in a block of audio. */
  95:../../libs/libDaisy/src/daisy_seed.h ****     size_t AudioBlockSize();
ARM GAS  C:\Users\skipi\AppData\Local\Temp\ccdbNCKv.s 			page 27


  96:../../libs/libDaisy/src/daisy_seed.h **** 
  97:../../libs/libDaisy/src/daisy_seed.h ****     /** Returns the rate in Hz that the Audio callback is called */
  98:../../libs/libDaisy/src/daisy_seed.h ****     float AudioCallbackRate() const;
  99:../../libs/libDaisy/src/daisy_seed.h **** 
 100:../../libs/libDaisy/src/daisy_seed.h ****     /** Returns the SAI Handle for the Daisy Seed 
 101:../../libs/libDaisy/src/daisy_seed.h ****      *  This can be useful when adding a secondary codec,
 102:../../libs/libDaisy/src/daisy_seed.h ****      *  the result of this function can be passed to the audio reinit 
 103:../../libs/libDaisy/src/daisy_seed.h ****      *  with an SAI2 configuration
 104:../../libs/libDaisy/src/daisy_seed.h ****      */
 105:../../libs/libDaisy/src/daisy_seed.h ****     const SaiHandle& AudioSaiHandle() const;
 106:../../libs/libDaisy/src/daisy_seed.h **** 
 107:../../libs/libDaisy/src/daisy_seed.h ****     /** Sets the state of the built in LED
 108:../../libs/libDaisy/src/daisy_seed.h ****      */
 109:../../libs/libDaisy/src/daisy_seed.h ****     void SetLed(bool state);
 110:../../libs/libDaisy/src/daisy_seed.h **** 
 111:../../libs/libDaisy/src/daisy_seed.h ****     /** Sets the state of the test point near pin 10
 112:../../libs/libDaisy/src/daisy_seed.h ****      */
 113:../../libs/libDaisy/src/daisy_seed.h ****     void SetTestPoint(bool state);
 114:../../libs/libDaisy/src/daisy_seed.h **** 
 115:../../libs/libDaisy/src/daisy_seed.h ****     /** Print formatted debug log message
 116:../../libs/libDaisy/src/daisy_seed.h ****      */
 117:../../libs/libDaisy/src/daisy_seed.h ****     template <typename... VA>
 118:../../libs/libDaisy/src/daisy_seed.h ****     static void Print(const char* format, VA... va)
 119:../../libs/libDaisy/src/daisy_seed.h ****     {
 120:../../libs/libDaisy/src/daisy_seed.h ****         Log::Print(format, va...);
 121:../../libs/libDaisy/src/daisy_seed.h ****     }
 122:../../libs/libDaisy/src/daisy_seed.h **** 
 123:../../libs/libDaisy/src/daisy_seed.h ****     /** Print formatted debug log message with automatic line termination
 124:../../libs/libDaisy/src/daisy_seed.h ****     */
 125:../../libs/libDaisy/src/daisy_seed.h ****     template <typename... VA>
 126:../../libs/libDaisy/src/daisy_seed.h ****     static void PrintLine(const char* format, VA... va)
 127:../../libs/libDaisy/src/daisy_seed.h ****     {
 128:../../libs/libDaisy/src/daisy_seed.h ****         Log::PrintLine(format, va...);
 129:../../libs/libDaisy/src/daisy_seed.h ****     }
 130:../../libs/libDaisy/src/daisy_seed.h **** 
 131:../../libs/libDaisy/src/daisy_seed.h ****     /** Start the logging session. Optionally wait for terminal connection before proceeding.
 132:../../libs/libDaisy/src/daisy_seed.h ****     */
 133:../../libs/libDaisy/src/daisy_seed.h ****     static void StartLog(bool wait_for_pc = false)
 578              		.loc 1 133 17 view .LVU120
 579              	.LBB712:
 134:../../libs/libDaisy/src/daisy_seed.h ****     {
 135:../../libs/libDaisy/src/daisy_seed.h ****         Log::StartLog(wait_for_pc);
 580              		.loc 1 135 9 view .LVU121
 581              		.loc 1 135 22 is_stmt 0 view .LVU122
 582 002c 0120     		movs	r0, #1
 583 002e FFF7FEFF 		bl	_ZN5daisy6LoggerILNS_17LoggerDestinationE1EE8StartLogEb
 584              	.LVL29:
 585              		.loc 1 135 22 view .LVU123
 586              	.LBE712:
 587              	.LBE711:
  31:main0.cpp     **** 
  32:main0.cpp     ****   if (cap.Init(mpr121ObjConf) != daisy::Mpr121I2C::Result::OK)
 588              		.loc 8 32 3 is_stmt 1 view .LVU124
 589              		.loc 8 32 3 is_stmt 0 view .LVU125
 590 0032 0DF1080E 		add	lr, sp, #8
 591              	.LBB713:
 592              	.LBB707:
ARM GAS  C:\Users\skipi\AppData\Local\Temp\ccdbNCKv.s 			page 28


 593              	.LBB538:
 594              	.LBB533:
 595              	.LBB524:
 596              	.LBB525:
 597              		.file 9 "../../libs/libDaisy/src/per/i2c.h"
   1:../../libs/libDaisy/src/per/i2c.h **** #pragma once
   2:../../libs/libDaisy/src/per/i2c.h **** #include "util/hal_map.h"
   3:../../libs/libDaisy/src/per/i2c.h **** #include "daisy_core.h"
   4:../../libs/libDaisy/src/per/i2c.h **** 
   5:../../libs/libDaisy/src/per/i2c.h **** namespace daisy
   6:../../libs/libDaisy/src/per/i2c.h **** {
   7:../../libs/libDaisy/src/per/i2c.h **** /** A handle for interacting with an I2C peripheral. This is a dumb
   8:../../libs/libDaisy/src/per/i2c.h ****  *  gateway that internally points to one of the four I2C peripherals
   9:../../libs/libDaisy/src/per/i2c.h ****  *  after it was initialised. It can then be copied and passed around.
  10:../../libs/libDaisy/src/per/i2c.h ****  *  Use an I2CHandle like this:
  11:../../libs/libDaisy/src/per/i2c.h ****  *  
  12:../../libs/libDaisy/src/per/i2c.h ****  *      // setup the configuration
  13:../../libs/libDaisy/src/per/i2c.h ****  *      I2CHandle::Config i2c_conf;
  14:../../libs/libDaisy/src/per/i2c.h ****  *      i2c_conf.periph = I2CHandle::Config::Peripheral::I2C_1;
  15:../../libs/libDaisy/src/per/i2c.h ****  *      i2c_conf.speed  = I2CHandle::Config::Speed::I2C_400KHZ;
  16:../../libs/libDaisy/src/per/i2c.h ****  *      i2c_conf.mode   = I2CHandle::Config::Mode::Master;
  17:../../libs/libDaisy/src/per/i2c.h ****  *      i2c_conf.pin_config.scl  = {DSY_GPIOB, 8};
  18:../../libs/libDaisy/src/per/i2c.h ****  *      i2c_conf.pin_config.sda  = {DSY_GPIOB, 9};
  19:../../libs/libDaisy/src/per/i2c.h ****  *      // initialise the peripheral
  20:../../libs/libDaisy/src/per/i2c.h ****  *      I2CHandle i2c;
  21:../../libs/libDaisy/src/per/i2c.h ****  *      i2c.Init(i2c_conf);
  22:../../libs/libDaisy/src/per/i2c.h ****  *      // now i2c points to the corresponding peripheral and can be used.
  23:../../libs/libDaisy/src/per/i2c.h ****  *      i2c.TransmitBlocking( ... );
  24:../../libs/libDaisy/src/per/i2c.h ****  */
  25:../../libs/libDaisy/src/per/i2c.h **** class I2CHandle
  26:../../libs/libDaisy/src/per/i2c.h **** {
  27:../../libs/libDaisy/src/per/i2c.h ****   public:
  28:../../libs/libDaisy/src/per/i2c.h ****     /** Contains settings for initialising an I2C interface. */
  29:../../libs/libDaisy/src/per/i2c.h ****     struct Config
 598              		.loc 9 29 12 view .LVU126
 599 0036 4FF0100B 		mov	fp, #16
 600              	.LBE525:
 601              	.LBE524:
 602              	.LBE533:
 603              	.LBE538:
 133:../../libs/libDaisy/src/dev/mpr121.h ****         WriteRegister(MPR121_MHDR, 0x01);
 604              		.loc 7 133 22 view .LVU127
 605 003a 4126     		movs	r6, #65
 606              	.LBB539:
 607              	.LBB534:
  49:../../libs/libDaisy/src/dev/mpr121.h **** 
 608              		.loc 7 49 17 view .LVU128
 609 003c F046     		mov	r8, lr
 610 003e 0FCC     		ldmia	r4!, {r0, r1, r2, r3}
 611 0040 0FC5     		stmia	r5!, {r0, r1, r2, r3}
 612 0042 94E80300 		ldm	r4, {r0, r1}
 613              	.LBE534:
 614              	.LBE539:
 117:../../libs/libDaisy/src/dev/mpr121.h **** 
 615              		.loc 7 117 9 view .LVU129
 616 0046 BB4C     		ldr	r4, .L25+8
 617 0048 45F8040B 		str	r0, [r5], #4
ARM GAS  C:\Users\skipi\AppData\Local\Temp\ccdbNCKv.s 			page 29


 618 004c 2980     		strh	r1, [r5]	@ movhi
 619              	.LBE707:
 620              	.LBI520:
 115:../../libs/libDaisy/src/dev/mpr121.h ****     {
 621              		.loc 7 115 12 is_stmt 1 view .LVU130
 622              	.LBB708:
 117:../../libs/libDaisy/src/dev/mpr121.h **** 
 623              		.loc 7 117 9 is_stmt 0 view .LVU131
 624 004e 2546     		mov	r5, r4
 625 0050 A246     		mov	r10, r4
 626              	.LBB540:
 627              	.LBB535:
  49:../../libs/libDaisy/src/dev/mpr121.h **** 
 628              		.loc 7 49 17 view .LVU132
 629 0052 04F11C0C 		add	ip, r4, #28
 630              	.LBE535:
 631              	.LBE540:
 117:../../libs/libDaisy/src/dev/mpr121.h **** 
 632              		.loc 7 117 9 view .LVU133
 633 0056 0FCF     		ldmia	r7!, {r0, r1, r2, r3}
 634 0058 0FC5     		stmia	r5!, {r0, r1, r2, r3}
 635 005a 97E80300 		ldm	r7, {r0, r1}
 636 005e 45F8040B 		str	r0, [r5], #4
 637 0062 2980     		strh	r1, [r5]	@ movhi
 638              	.LVL30:
 117:../../libs/libDaisy/src/dev/mpr121.h **** 
 639              		.loc 7 117 9 view .LVU134
 640 0064 0546     		mov	r5, r0
 641 0066 BAE80F00 		ldmia	r10!, {r0, r1, r2, r3}
 642 006a AEE80F00 		stmia	lr!, {r0, r1, r2, r3}
 643 006e CEF80050 		str	r5, [lr]
 644              	.LBB541:
 645              	.LBB536:
  56:../../libs/libDaisy/src/dev/mpr121.h ****         i2c_conf.pin_config.sda = config.sda;
 646              		.loc 7 56 33 view .LVU135
 647 0072 BDF81030 		ldrh	r3, [sp, #16]
  49:../../libs/libDaisy/src/dev/mpr121.h **** 
 648              		.loc 7 49 17 view .LVU136
 649 0076 0290     		str	r0, [sp, #8]
  56:../../libs/libDaisy/src/dev/mpr121.h ****         i2c_conf.pin_config.sda = config.sda;
 650              		.loc 7 56 33 view .LVU137
 651 0078 ADF82030 		strh	r3, [sp, #32]	@ movhi
  57:../../libs/libDaisy/src/dev/mpr121.h **** 
 652              		.loc 7 57 33 view .LVU138
 653 007c BDF81230 		ldrh	r3, [sp, #18]
  53:../../libs/libDaisy/src/dev/mpr121.h ****         i2c_conf.speed  = config.speed;
 654              		.loc 7 53 25 view .LVU139
 655 0080 0790     		str	r0, [sp, #28]
  49:../../libs/libDaisy/src/dev/mpr121.h **** 
 656              		.loc 7 49 17 view .LVU140
 657 0082 0391     		str	r1, [sp, #12]
  54:../../libs/libDaisy/src/dev/mpr121.h **** 
 658              		.loc 7 54 25 view .LVU141
 659 0084 0991     		str	r1, [sp, #36]
  57:../../libs/libDaisy/src/dev/mpr121.h **** 
 660              		.loc 7 57 33 view .LVU142
 661 0086 ADF82230 		strh	r3, [sp, #34]	@ movhi
ARM GAS  C:\Users\skipi\AppData\Local\Temp\ccdbNCKv.s 			page 30


  52:../../libs/libDaisy/src/dev/mpr121.h ****         i2c_conf.periph = config.periph;
 662              		.loc 7 52 25 view .LVU143
 663 008a CDF82890 		str	r9, [sp, #40]
 664              	.LVL31:
  52:../../libs/libDaisy/src/dev/mpr121.h ****         i2c_conf.periph = config.periph;
 665              		.loc 7 52 25 view .LVU144
 666              	.LBE536:
 667              	.LBI522:
  47:../../libs/libDaisy/src/dev/mpr121.h ****     {
 668              		.loc 7 47 17 is_stmt 1 view .LVU145
 669              	.LBB537:
  49:../../libs/libDaisy/src/dev/mpr121.h **** 
 670              		.loc 7 49 9 view .LVU146
 671              	.LBB531:
 672              	.LBB529:
 673              		.loc 9 29 12 is_stmt 0 view .LVU147
 674 008e 8DF82CB0 		strb	fp, [sp, #44]
 675              	.LBE529:
 676              	.LBE531:
  49:../../libs/libDaisy/src/dev/mpr121.h **** 
 677              		.loc 7 49 17 view .LVU148
 678 0092 B8E80F00 		ldmia	r8!, {r0, r1, r2, r3}
 679              	.LVL32:
  49:../../libs/libDaisy/src/dev/mpr121.h **** 
 680              		.loc 7 49 17 view .LVU149
 681 0096 ACE80F00 		stmia	ip!, {r0, r1, r2, r3}
  59:../../libs/libDaisy/src/dev/mpr121.h ****     }
 682              		.loc 7 59 50 view .LVU150
 683 009a 07A9     		add	r1, sp, #28
  49:../../libs/libDaisy/src/dev/mpr121.h **** 
 684              		.loc 7 49 17 view .LVU151
 685 009c 8CF80050 		strb	r5, [ip]
  51:../../libs/libDaisy/src/dev/mpr121.h ****         i2c_conf.mode   = I2CHandle::Config::Mode::I2C_MASTER;
 686              		.loc 7 51 9 is_stmt 1 view .LVU152
 687              	.LVL33:
 688              	.LBB532:
 689              	.LBI524:
 690              		.loc 9 29 12 view .LVU153
 691              	.LBB530:
 692              	.LBB526:
 693              	.LBI526:
  30:../../libs/libDaisy/src/per/i2c.h ****     {
  31:../../libs/libDaisy/src/per/i2c.h ****         /** Specifies whether the interface will operate in master or slave mode. */
  32:../../libs/libDaisy/src/per/i2c.h ****         enum class Mode
  33:../../libs/libDaisy/src/per/i2c.h ****         {
  34:../../libs/libDaisy/src/per/i2c.h ****             I2C_MASTER,
  35:../../libs/libDaisy/src/per/i2c.h ****             I2C_SLAVE,
  36:../../libs/libDaisy/src/per/i2c.h ****         };
  37:../../libs/libDaisy/src/per/i2c.h **** 
  38:../../libs/libDaisy/src/per/i2c.h ****         /** Specifices the internal peripheral to use (these are mapped to different pins on the ha
  39:../../libs/libDaisy/src/per/i2c.h ****         enum class Peripheral
  40:../../libs/libDaisy/src/per/i2c.h ****         {
  41:../../libs/libDaisy/src/per/i2c.h ****             I2C_1 = 0, /**< & */
  42:../../libs/libDaisy/src/per/i2c.h ****             I2C_2,     /**< & */
  43:../../libs/libDaisy/src/per/i2c.h ****             I2C_3,     /**< & */
  44:../../libs/libDaisy/src/per/i2c.h ****             I2C_4,     /**< & */
  45:../../libs/libDaisy/src/per/i2c.h ****         };
ARM GAS  C:\Users\skipi\AppData\Local\Temp\ccdbNCKv.s 			page 31


  46:../../libs/libDaisy/src/per/i2c.h **** 
  47:../../libs/libDaisy/src/per/i2c.h ****         /** Rate at which the clock/data will be sent/received. The device being used will have max
  48:../../libs/libDaisy/src/per/i2c.h ****          *  1MHZ Mode is currently 886kHz
  49:../../libs/libDaisy/src/per/i2c.h ****          */
  50:../../libs/libDaisy/src/per/i2c.h ****         enum class Speed
  51:../../libs/libDaisy/src/per/i2c.h ****         {
  52:../../libs/libDaisy/src/per/i2c.h ****             I2C_100KHZ, /**< & */
  53:../../libs/libDaisy/src/per/i2c.h ****             I2C_400KHZ, /**< & */
  54:../../libs/libDaisy/src/per/i2c.h ****             I2C_1MHZ,   /**< & */
  55:../../libs/libDaisy/src/per/i2c.h ****         };
  56:../../libs/libDaisy/src/per/i2c.h **** 
  57:../../libs/libDaisy/src/per/i2c.h ****         Peripheral periph; /**< & */
  58:../../libs/libDaisy/src/per/i2c.h ****         struct
  59:../../libs/libDaisy/src/per/i2c.h ****         {
 694              		.loc 9 59 9 view .LVU154
 695              	.LBB527:
 696              	.LBI527:
 697              		.file 10 "../../libs/libDaisy/src/daisy_core.h"
   1:../../libs/libDaisy/src/daisy_core.h **** #pragma once
   2:../../libs/libDaisy/src/daisy_core.h **** #ifndef DSY_CORE_HW_H
   3:../../libs/libDaisy/src/daisy_core.h **** #define DSY_CORE_HW_H /**< & */
   4:../../libs/libDaisy/src/daisy_core.h **** #include <stdint.h>
   5:../../libs/libDaisy/src/daisy_core.h **** #include <stdlib.h>
   6:../../libs/libDaisy/src/daisy_core.h **** 
   7:../../libs/libDaisy/src/daisy_core.h **** #if defined(_MSC_VER)
   8:../../libs/libDaisy/src/daisy_core.h **** #define FORCE_INLINE __forceinline /**< & */
   9:../../libs/libDaisy/src/daisy_core.h **** #elif defined(__clang__)
  10:../../libs/libDaisy/src/daisy_core.h **** #define FORCE_INLINE inline __attribute__((always_inline)) /**< & */
  11:../../libs/libDaisy/src/daisy_core.h **** #pragma clang diagnostic ignored "-Wduplicate-decl-specifier"
  12:../../libs/libDaisy/src/daisy_core.h **** #elif defined(__GNUC__)
  13:../../libs/libDaisy/src/daisy_core.h **** #define FORCE_INLINE inline __attribute__((always_inline)) /**< & */
  14:../../libs/libDaisy/src/daisy_core.h **** #else
  15:../../libs/libDaisy/src/daisy_core.h **** #error unknown compiler
  16:../../libs/libDaisy/src/daisy_core.h **** #endif
  17:../../libs/libDaisy/src/daisy_core.h **** 
  18:../../libs/libDaisy/src/daisy_core.h **** /** @addtogroup utility
  19:../../libs/libDaisy/src/daisy_core.h ****     @{
  20:../../libs/libDaisy/src/daisy_core.h **** */
  21:../../libs/libDaisy/src/daisy_core.h **** 
  22:../../libs/libDaisy/src/daisy_core.h **** /** Macro for area of memory that is configured as cacheless
  23:../../libs/libDaisy/src/daisy_core.h **** This should be used primarily for DMA buffers, and the like.
  24:../../libs/libDaisy/src/daisy_core.h **** */
  25:../../libs/libDaisy/src/daisy_core.h **** #define DMA_BUFFER_MEM_SECTION __attribute__((section(".sram1_bss")))
  26:../../libs/libDaisy/src/daisy_core.h **** /** 
  27:../../libs/libDaisy/src/daisy_core.h **** THE DTCM RAM section is also non-cached. However, is not suitable 
  28:../../libs/libDaisy/src/daisy_core.h **** for DMA transfers. Performance is on par with internal SRAM w/ 
  29:../../libs/libDaisy/src/daisy_core.h **** cache enabled.
  30:../../libs/libDaisy/src/daisy_core.h **** */
  31:../../libs/libDaisy/src/daisy_core.h **** #define DTCM_MEM_SECTION __attribute__((section(".dtcmram_bss")))
  32:../../libs/libDaisy/src/daisy_core.h **** 
  33:../../libs/libDaisy/src/daisy_core.h **** #define FBIPMAX 0.999985f             /**< close to 1.0f-LSB at 16 bit */
  34:../../libs/libDaisy/src/daisy_core.h **** #define FBIPMIN (-FBIPMAX)            /**< - (1 - LSB) */
  35:../../libs/libDaisy/src/daisy_core.h **** #define U82F_SCALE 0.0078740f         /**< 1 / 127 */
  36:../../libs/libDaisy/src/daisy_core.h **** #define F2U8_SCALE 127.0f             /**< 128 - 1 */
  37:../../libs/libDaisy/src/daisy_core.h **** #define S82F_SCALE 0.0078125f         /**< 1 / (2**7) */
  38:../../libs/libDaisy/src/daisy_core.h **** #define F2S8_SCALE 127.0f             /**< (2 ** 7) - 1 */
  39:../../libs/libDaisy/src/daisy_core.h **** #define S162F_SCALE 3.0517578125e-05f /**< 1 / (2** 15) */
ARM GAS  C:\Users\skipi\AppData\Local\Temp\ccdbNCKv.s 			page 32


  40:../../libs/libDaisy/src/daisy_core.h **** #define F2S16_SCALE 32767.0f          /**< (2 ** 15) - 1 */
  41:../../libs/libDaisy/src/daisy_core.h **** #define F2S24_SCALE 8388608.0f        /**< 2 ** 23 */
  42:../../libs/libDaisy/src/daisy_core.h **** #define S242F_SCALE 1.192092896e-07f  /**< 1 / (2 ** 23) */
  43:../../libs/libDaisy/src/daisy_core.h **** #define S24SIGN 0x800000              /**< 2 ** 23 */
  44:../../libs/libDaisy/src/daisy_core.h **** #define S322F_SCALE 4.6566129e-10f    /**< 1 / (2** 31) */
  45:../../libs/libDaisy/src/daisy_core.h **** #define F2S32_SCALE 2147483647.f      /**< (2 ** 31) - 1 */
  46:../../libs/libDaisy/src/daisy_core.h **** 
  47:../../libs/libDaisy/src/daisy_core.h **** 
  48:../../libs/libDaisy/src/daisy_core.h **** /** shorthand macro for simplifying the reading of the left 
  49:../../libs/libDaisy/src/daisy_core.h ****  *  channel of a non-interleaved output buffer named out */
  50:../../libs/libDaisy/src/daisy_core.h **** #define OUT_L out[0]
  51:../../libs/libDaisy/src/daisy_core.h **** 
  52:../../libs/libDaisy/src/daisy_core.h **** /** shorthand macro for simplifying the reading of the right 
  53:../../libs/libDaisy/src/daisy_core.h ****  *  channel of a non-interleaved output buffer named out */
  54:../../libs/libDaisy/src/daisy_core.h **** #define OUT_R out[1]
  55:../../libs/libDaisy/src/daisy_core.h **** 
  56:../../libs/libDaisy/src/daisy_core.h **** /** shorthand macro for simplifying the reading of the left 
  57:../../libs/libDaisy/src/daisy_core.h ****  *  channel of a non-interleaved input buffer named in */
  58:../../libs/libDaisy/src/daisy_core.h **** #define IN_L in[0]
  59:../../libs/libDaisy/src/daisy_core.h **** 
  60:../../libs/libDaisy/src/daisy_core.h **** /** shorthand macro for simplifying the reading of the right 
  61:../../libs/libDaisy/src/daisy_core.h ****  *  channel of a non-interleaved input buffer named in */
  62:../../libs/libDaisy/src/daisy_core.h **** #define IN_R in[1]
  63:../../libs/libDaisy/src/daisy_core.h **** 
  64:../../libs/libDaisy/src/daisy_core.h **** /** 
  65:../../libs/libDaisy/src/daisy_core.h ****     Computes cube.
  66:../../libs/libDaisy/src/daisy_core.h ****     \param x Number to be cubed
  67:../../libs/libDaisy/src/daisy_core.h ****     \return x ^ 3
  68:../../libs/libDaisy/src/daisy_core.h **** */
  69:../../libs/libDaisy/src/daisy_core.h **** FORCE_INLINE float cube(float x)
  70:../../libs/libDaisy/src/daisy_core.h **** {
  71:../../libs/libDaisy/src/daisy_core.h ****     return (x * x) * x;
  72:../../libs/libDaisy/src/daisy_core.h **** }
  73:../../libs/libDaisy/src/daisy_core.h **** 
  74:../../libs/libDaisy/src/daisy_core.h **** /** 
  75:../../libs/libDaisy/src/daisy_core.h ****     Converts unsigned 8-bit to float
  76:../../libs/libDaisy/src/daisy_core.h ****     \param x Number to be scaled.
  77:../../libs/libDaisy/src/daisy_core.h ****     \return Scaled number.
  78:../../libs/libDaisy/src/daisy_core.h **** */
  79:../../libs/libDaisy/src/daisy_core.h **** FORCE_INLINE float u82f(uint8_t x)
  80:../../libs/libDaisy/src/daisy_core.h **** {
  81:../../libs/libDaisy/src/daisy_core.h ****     return ((float)x - 127.f) * U82F_SCALE;
  82:../../libs/libDaisy/src/daisy_core.h **** }
  83:../../libs/libDaisy/src/daisy_core.h **** 
  84:../../libs/libDaisy/src/daisy_core.h **** /**
  85:../../libs/libDaisy/src/daisy_core.h ****     Converts float to unsigned 8-bit
  86:../../libs/libDaisy/src/daisy_core.h **** */
  87:../../libs/libDaisy/src/daisy_core.h **** FORCE_INLINE uint8_t f2u8(float x)
  88:../../libs/libDaisy/src/daisy_core.h **** {
  89:../../libs/libDaisy/src/daisy_core.h ****     x = x <= FBIPMIN ? FBIPMIN : x;
  90:../../libs/libDaisy/src/daisy_core.h ****     x = x >= FBIPMAX ? FBIPMAX : x;
  91:../../libs/libDaisy/src/daisy_core.h ****     return (uint8_t)((x * F2U8_SCALE) + F2U8_SCALE);
  92:../../libs/libDaisy/src/daisy_core.h **** }
  93:../../libs/libDaisy/src/daisy_core.h **** 
  94:../../libs/libDaisy/src/daisy_core.h **** 
  95:../../libs/libDaisy/src/daisy_core.h **** /** 
  96:../../libs/libDaisy/src/daisy_core.h ****     Converts Signed 8-bit to float
ARM GAS  C:\Users\skipi\AppData\Local\Temp\ccdbNCKv.s 			page 33


  97:../../libs/libDaisy/src/daisy_core.h ****     \param x Number to be scaled.
  98:../../libs/libDaisy/src/daisy_core.h ****     \return Scaled number.
  99:../../libs/libDaisy/src/daisy_core.h **** */
 100:../../libs/libDaisy/src/daisy_core.h **** FORCE_INLINE float s82f(int8_t x)
 101:../../libs/libDaisy/src/daisy_core.h **** {
 102:../../libs/libDaisy/src/daisy_core.h ****     return (float)x * S82F_SCALE;
 103:../../libs/libDaisy/src/daisy_core.h **** }
 104:../../libs/libDaisy/src/daisy_core.h **** 
 105:../../libs/libDaisy/src/daisy_core.h **** /**
 106:../../libs/libDaisy/src/daisy_core.h ****     Converts float to Signed 8-bit
 107:../../libs/libDaisy/src/daisy_core.h **** */
 108:../../libs/libDaisy/src/daisy_core.h **** FORCE_INLINE int8_t f2s8(float x)
 109:../../libs/libDaisy/src/daisy_core.h **** {
 110:../../libs/libDaisy/src/daisy_core.h ****     x = x <= FBIPMIN ? FBIPMIN : x;
 111:../../libs/libDaisy/src/daisy_core.h ****     x = x >= FBIPMAX ? FBIPMAX : x;
 112:../../libs/libDaisy/src/daisy_core.h ****     return (int32_t)(x * F2S8_SCALE);
 113:../../libs/libDaisy/src/daisy_core.h **** }
 114:../../libs/libDaisy/src/daisy_core.h **** 
 115:../../libs/libDaisy/src/daisy_core.h **** /** 
 116:../../libs/libDaisy/src/daisy_core.h ****     Converts Signed 16-bit to float
 117:../../libs/libDaisy/src/daisy_core.h ****     \param x Number to be scaled.
 118:../../libs/libDaisy/src/daisy_core.h ****     \return Scaled number.
 119:../../libs/libDaisy/src/daisy_core.h **** */
 120:../../libs/libDaisy/src/daisy_core.h **** FORCE_INLINE float s162f(int16_t x)
 121:../../libs/libDaisy/src/daisy_core.h **** {
 122:../../libs/libDaisy/src/daisy_core.h ****     return (float)x * S162F_SCALE;
 123:../../libs/libDaisy/src/daisy_core.h **** }
 124:../../libs/libDaisy/src/daisy_core.h **** 
 125:../../libs/libDaisy/src/daisy_core.h **** /**
 126:../../libs/libDaisy/src/daisy_core.h ****     Converts float to Signed 16-bit
 127:../../libs/libDaisy/src/daisy_core.h **** */
 128:../../libs/libDaisy/src/daisy_core.h **** FORCE_INLINE int16_t f2s16(float x)
 129:../../libs/libDaisy/src/daisy_core.h **** {
 130:../../libs/libDaisy/src/daisy_core.h ****     x = x <= FBIPMIN ? FBIPMIN : x;
 131:../../libs/libDaisy/src/daisy_core.h ****     x = x >= FBIPMAX ? FBIPMAX : x;
 132:../../libs/libDaisy/src/daisy_core.h ****     return (int32_t)(x * F2S16_SCALE);
 133:../../libs/libDaisy/src/daisy_core.h **** }
 134:../../libs/libDaisy/src/daisy_core.h **** 
 135:../../libs/libDaisy/src/daisy_core.h **** /**
 136:../../libs/libDaisy/src/daisy_core.h ****     Converts Signed 24-bit to float
 137:../../libs/libDaisy/src/daisy_core.h ****  */
 138:../../libs/libDaisy/src/daisy_core.h **** FORCE_INLINE float s242f(int32_t x)
 139:../../libs/libDaisy/src/daisy_core.h **** {
 140:../../libs/libDaisy/src/daisy_core.h ****     x = (x ^ S24SIGN) - S24SIGN; //sign extend aka ((x<<8)>>8)
 141:../../libs/libDaisy/src/daisy_core.h ****     return (float)x * S242F_SCALE;
 142:../../libs/libDaisy/src/daisy_core.h **** }
 143:../../libs/libDaisy/src/daisy_core.h **** /**
 144:../../libs/libDaisy/src/daisy_core.h ****     Converts float to Signed 24-bit
 145:../../libs/libDaisy/src/daisy_core.h ****  */
 146:../../libs/libDaisy/src/daisy_core.h **** FORCE_INLINE int32_t f2s24(float x)
 147:../../libs/libDaisy/src/daisy_core.h **** {
 148:../../libs/libDaisy/src/daisy_core.h ****     x = x <= FBIPMIN ? FBIPMIN : x;
 149:../../libs/libDaisy/src/daisy_core.h ****     x = x >= FBIPMAX ? FBIPMAX : x;
 150:../../libs/libDaisy/src/daisy_core.h ****     return (int32_t)(x * F2S24_SCALE);
 151:../../libs/libDaisy/src/daisy_core.h **** }
 152:../../libs/libDaisy/src/daisy_core.h **** 
 153:../../libs/libDaisy/src/daisy_core.h **** /**
ARM GAS  C:\Users\skipi\AppData\Local\Temp\ccdbNCKv.s 			page 34


 154:../../libs/libDaisy/src/daisy_core.h ****     Converts Signed 32-bit to float
 155:../../libs/libDaisy/src/daisy_core.h ****  */
 156:../../libs/libDaisy/src/daisy_core.h **** FORCE_INLINE float s322f(int32_t x)
 157:../../libs/libDaisy/src/daisy_core.h **** {
 158:../../libs/libDaisy/src/daisy_core.h ****     return (float)x * S322F_SCALE;
 159:../../libs/libDaisy/src/daisy_core.h **** }
 160:../../libs/libDaisy/src/daisy_core.h **** /**
 161:../../libs/libDaisy/src/daisy_core.h ****     Converts float to Signed 24-bit
 162:../../libs/libDaisy/src/daisy_core.h ****  */
 163:../../libs/libDaisy/src/daisy_core.h **** FORCE_INLINE int32_t f2s32(float x)
 164:../../libs/libDaisy/src/daisy_core.h **** {
 165:../../libs/libDaisy/src/daisy_core.h ****     x = x <= FBIPMIN ? FBIPMIN : x;
 166:../../libs/libDaisy/src/daisy_core.h ****     x = x >= FBIPMAX ? FBIPMAX : x;
 167:../../libs/libDaisy/src/daisy_core.h ****     return (int32_t)(x * F2S32_SCALE);
 168:../../libs/libDaisy/src/daisy_core.h **** }
 169:../../libs/libDaisy/src/daisy_core.h **** 
 170:../../libs/libDaisy/src/daisy_core.h **** #ifdef __cplusplus
 171:../../libs/libDaisy/src/daisy_core.h **** 
 172:../../libs/libDaisy/src/daisy_core.h **** namespace daisy
 173:../../libs/libDaisy/src/daisy_core.h **** {
 174:../../libs/libDaisy/src/daisy_core.h **** /** @brief GPIO Port names */
 175:../../libs/libDaisy/src/daisy_core.h **** enum GPIOPort
 176:../../libs/libDaisy/src/daisy_core.h **** {
 177:../../libs/libDaisy/src/daisy_core.h ****     PORTA, /**< Port A */
 178:../../libs/libDaisy/src/daisy_core.h ****     PORTB, /**< Port B */
 179:../../libs/libDaisy/src/daisy_core.h ****     PORTC, /**< Port C */
 180:../../libs/libDaisy/src/daisy_core.h ****     PORTD, /**< Port D */
 181:../../libs/libDaisy/src/daisy_core.h ****     PORTE, /**< Port E */
 182:../../libs/libDaisy/src/daisy_core.h ****     PORTF, /**< Port F */
 183:../../libs/libDaisy/src/daisy_core.h ****     PORTG, /**< Port G */
 184:../../libs/libDaisy/src/daisy_core.h ****     PORTH, /**< Port H */
 185:../../libs/libDaisy/src/daisy_core.h ****     PORTI, /**< Port I */
 186:../../libs/libDaisy/src/daisy_core.h ****     PORTJ, /**< Port J */
 187:../../libs/libDaisy/src/daisy_core.h ****     PORTK, /**< Port K */
 188:../../libs/libDaisy/src/daisy_core.h ****     PORTX, /**< Used as a dummy port to signal an invalid pin. */
 189:../../libs/libDaisy/src/daisy_core.h **** };
 190:../../libs/libDaisy/src/daisy_core.h **** 
 191:../../libs/libDaisy/src/daisy_core.h **** /** @brief representation of hardware port/pin combination */
 192:../../libs/libDaisy/src/daisy_core.h **** struct Pin
 193:../../libs/libDaisy/src/daisy_core.h **** {
 194:../../libs/libDaisy/src/daisy_core.h ****     GPIOPort port;
 195:../../libs/libDaisy/src/daisy_core.h ****     uint8_t  pin;
 196:../../libs/libDaisy/src/daisy_core.h **** 
 197:../../libs/libDaisy/src/daisy_core.h ****     /** @brief Constructor creates a valid pin. 
 198:../../libs/libDaisy/src/daisy_core.h ****      *  @param pt GPIOPort between PA, and PK corresponding to STM32 Port.
 199:../../libs/libDaisy/src/daisy_core.h ****      *  @param pn pin number in range of 0-15
 200:../../libs/libDaisy/src/daisy_core.h ****     */
 201:../../libs/libDaisy/src/daisy_core.h ****     constexpr Pin(const GPIOPort pt, const uint8_t pn) : port(pt), pin(pn) {}
 202:../../libs/libDaisy/src/daisy_core.h **** 
 203:../../libs/libDaisy/src/daisy_core.h ****     /** @brief Basic Constructor creates an invalid Pin object */
 204:../../libs/libDaisy/src/daisy_core.h ****     constexpr Pin() : port(PORTX), pin(255) {}
 698              		.loc 10 204 15 view .LVU155
 699              		.loc 10 204 15 is_stmt 0 view .LVU156
 700              	.LBE527:
 701              	.LBB528:
 702              	.LBI528:
 703              		.loc 10 204 15 is_stmt 1 view .LVU157
ARM GAS  C:\Users\skipi\AppData\Local\Temp\ccdbNCKv.s 			page 35


 704              		.loc 10 204 15 is_stmt 0 view .LVU158
 705              	.LBE528:
 706              	.LBE526:
 707              	.LBE530:
 708              	.LBE532:
  52:../../libs/libDaisy/src/dev/mpr121.h ****         i2c_conf.periph = config.periph;
 709              		.loc 7 52 9 is_stmt 1 view .LVU159
  53:../../libs/libDaisy/src/dev/mpr121.h ****         i2c_conf.speed  = config.speed;
 710              		.loc 7 53 9 view .LVU160
  54:../../libs/libDaisy/src/dev/mpr121.h **** 
 711              		.loc 7 54 9 view .LVU161
  56:../../libs/libDaisy/src/dev/mpr121.h ****         i2c_conf.pin_config.sda = config.sda;
 712              		.loc 7 56 9 view .LVU162
  57:../../libs/libDaisy/src/dev/mpr121.h **** 
 713              		.loc 7 57 9 view .LVU163
  59:../../libs/libDaisy/src/dev/mpr121.h ****     }
 714              		.loc 7 59 9 view .LVU164
  59:../../libs/libDaisy/src/dev/mpr121.h ****     }
 715              		.loc 7 59 50 is_stmt 0 view .LVU165
 716 00a0 04F11800 		add	r0, r4, #24
 717              	.LVL34:
  59:../../libs/libDaisy/src/dev/mpr121.h ****     }
 718              		.loc 7 59 50 view .LVU166
 719 00a4 FFF7FEFF 		bl	_ZN5daisy9I2CHandle4InitERKNS0_6ConfigE
 720              	.LVL35:
  59:../../libs/libDaisy/src/dev/mpr121.h ****     }
 721              		.loc 7 59 50 view .LVU167
 722              	.LBE537:
 723              	.LBE541:
 724              	.LBB542:
 725              	.LBI542:
 726              		.loc 7 343 10 is_stmt 1 view .LVU168
 727              	.LBB543:
 728              		.loc 7 343 55 is_stmt 0 view .LVU169
 729 00a8 94F83030 		ldrb	r3, [r4, #48]	@ zero_extendqisi2
 730              	.LBE543:
 731              	.LBE542:
 122:../../libs/libDaisy/src/dev/mpr121.h ****         System::Delay(1);
 732              		.loc 7 122 22 view .LVU170
 733 00ac 8021     		movs	r1, #128
 734 00ae 6322     		movs	r2, #99
 735              	.LBB546:
 736              	.LBB544:
 737              		.loc 7 343 55 view .LVU171
 738 00b0 4845     		cmp	r0, r9
 739 00b2 18BF     		it	ne
 740 00b4 43F00103 		orrne	r3, r3, #1
 741              	.LBE544:
 742              	.LBE546:
 122:../../libs/libDaisy/src/dev/mpr121.h ****         System::Delay(1);
 743              		.loc 7 122 22 view .LVU172
 744 00b8 2046     		mov	r0, r4
 745              	.LVL36:
 746              	.LBB547:
 747              	.LBB545:
 748              		.loc 7 343 55 view .LVU173
 749 00ba 84F83030 		strb	r3, [r4, #48]
ARM GAS  C:\Users\skipi\AppData\Local\Temp\ccdbNCKv.s 			page 36


 750              	.LVL37:
 751              		.loc 7 343 55 view .LVU174
 752              	.LBE545:
 753              	.LBE547:
 122:../../libs/libDaisy/src/dev/mpr121.h ****         System::Delay(1);
 754              		.loc 7 122 22 view .LVU175
 755 00be FFF7FEFF 		bl	_ZN5daisy6Mpr121INS_18Mpr121I2CTransportEE13WriteRegisterEhh
 756              	.LVL38:
 123:../../libs/libDaisy/src/dev/mpr121.h **** 
 757              		.loc 7 123 22 view .LVU176
 758 00c2 0120     		movs	r0, #1
 759 00c4 FFF7FEFF 		bl	_ZN5daisy6System5DelayEm
 760              	.LVL39:
 125:../../libs/libDaisy/src/dev/mpr121.h **** 
 761              		.loc 7 125 22 view .LVU177
 762 00c8 4A46     		mov	r2, r9
 763 00ca 5E21     		movs	r1, #94
 764 00cc 2046     		mov	r0, r4
 765 00ce FFF7FEFF 		bl	_ZN5daisy6Mpr121INS_18Mpr121I2CTransportEE13WriteRegisterEhh
 766              	.LVL40:
 133:../../libs/libDaisy/src/dev/mpr121.h ****         WriteRegister(MPR121_MHDR, 0x01);
 767              		.loc 7 133 22 view .LVU178
 768 00d2 94F814A0 		ldrb	r10, [r4, #20]	@ zero_extendqisi2
 769 00d6 94F81590 		ldrb	r9, [r4, #21]	@ zero_extendqisi2
 770              	.LVL41:
 771              	.LBB548:
 772              	.LBI548:
 177:../../libs/libDaisy/src/dev/mpr121.h ****     {
 773              		.loc 7 177 10 is_stmt 1 view .LVU179
 774              	.LBB549:
 180:../../libs/libDaisy/src/dev/mpr121.h ****         {
 775              		.loc 7 180 30 view .LVU180
 776              	.L11:
 777              	.LBB550:
 778              	.LBI550:
 257:../../libs/libDaisy/src/dev/mpr121.h ****     {
 779              		.loc 7 257 10 view .LVU181
 780              	.LBB551:
 781              	.LBB552:
 782              	.LBB553:
  66:../../libs/libDaisy/src/dev/mpr121.h ****     }
 783              		.loc 7 66 40 is_stmt 0 view .LVU182
 784 00da 0A25     		movs	r5, #10
 785              	.LBE553:
 786              	.LBE552:
 264:../../libs/libDaisy/src/dev/mpr121.h **** 
 787              		.loc 7 264 17 view .LVU183
 788 00dc 4FF00008 		mov	r8, #0
 789 00e0 5E27     		movs	r7, #94
 790              	.LBB556:
 791              	.LBB554:
  66:../../libs/libDaisy/src/dev/mpr121.h ****     }
 792              		.loc 7 66 40 view .LVU184
 793 00e2 94F82C10 		ldrb	r1, [r4, #44]	@ zero_extendqisi2
 794 00e6 0123     		movs	r3, #1
 795 00e8 07AA     		add	r2, sp, #28
 796 00ea 0095     		str	r5, [sp]
ARM GAS  C:\Users\skipi\AppData\Local\Temp\ccdbNCKv.s 			page 37


 797 00ec 9248     		ldr	r0, .L25+12
 798              	.LBE554:
 799              	.LBE556:
 264:../../libs/libDaisy/src/dev/mpr121.h **** 
 800              		.loc 7 264 17 view .LVU185
 801 00ee 8DF81D80 		strb	r8, [sp, #29]
 802 00f2 8DF81C70 		strb	r7, [sp, #28]
 803              	.LVL42:
 804              	.LBB557:
 805              	.LBI552:
  63:../../libs/libDaisy/src/dev/mpr121.h ****     {
 806              		.loc 7 63 10 is_stmt 1 view .LVU186
 807              	.LBB555:
  65:../../libs/libDaisy/src/dev/mpr121.h ****                != i2c_.TransmitBlocking(config_.dev_addr, data, size, 10);
 808              		.loc 7 65 9 view .LVU187
  66:../../libs/libDaisy/src/dev/mpr121.h ****     }
 809              		.loc 7 66 40 is_stmt 0 view .LVU188
 810 00f6 FFF7FEFF 		bl	_ZN5daisy9I2CHandle16TransmitBlockingEtPhtm
 811              	.LVL43:
  66:../../libs/libDaisy/src/dev/mpr121.h ****     }
 812              		.loc 7 66 40 view .LVU189
 813              	.LBE555:
 814              	.LBE557:
 815              	.LBB558:
 816              	.LBI558:
 817              		.loc 7 343 10 is_stmt 1 view .LVU190
 818              	.LBB559:
 819              		.loc 7 343 55 is_stmt 0 view .LVU191
 820 00fa 94F83020 		ldrb	r2, [r4, #48]	@ zero_extendqisi2
 821              	.LBE559:
 822              	.LBE558:
 823              	.LBB562:
 824              	.LBB563:
  73:../../libs/libDaisy/src/dev/mpr121.h ****     }
 825              		.loc 7 73 39 view .LVU192
 826 00fe 0123     		movs	r3, #1
 827 0100 0095     		str	r5, [sp]
 828              	.LBE563:
 829              	.LBE562:
 830              	.LBB566:
 831              	.LBB560:
 832              		.loc 7 343 55 view .LVU193
 833 0102 4045     		cmp	r0, r8
 834 0104 18BF     		it	ne
 835 0106 42F00102 		orrne	r2, r2, #1
 836              	.LBE560:
 837              	.LBE566:
 838              	.LBB567:
 839              	.LBB564:
  73:../../libs/libDaisy/src/dev/mpr121.h ****     }
 840              		.loc 7 73 39 view .LVU194
 841 010a 94F82C10 		ldrb	r1, [r4, #44]	@ zero_extendqisi2
 842 010e 8A48     		ldr	r0, .L25+12
 843              	.LVL44:
  73:../../libs/libDaisy/src/dev/mpr121.h ****     }
 844              		.loc 7 73 39 view .LVU195
 845              	.LBE564:
ARM GAS  C:\Users\skipi\AppData\Local\Temp\ccdbNCKv.s 			page 38


 846              	.LBE567:
 847              	.LBB568:
 848              	.LBB561:
 849              		.loc 7 343 55 view .LVU196
 850 0110 84F83020 		strb	r2, [r4, #48]
 851              	.LVL45:
 852              		.loc 7 343 55 view .LVU197
 853              	.LBE561:
 854              	.LBE568:
 855              	.LBB569:
 856              	.LBI562:
  70:../../libs/libDaisy/src/dev/mpr121.h ****     {
 857              		.loc 7 70 10 is_stmt 1 view .LVU198
 858              	.LBB565:
  72:../../libs/libDaisy/src/dev/mpr121.h ****                != i2c_.ReceiveBlocking(config_.dev_addr, data, size, 10);
 859              		.loc 7 72 9 view .LVU199
  73:../../libs/libDaisy/src/dev/mpr121.h ****     }
 860              		.loc 7 73 39 is_stmt 0 view .LVU200
 861 0114 02AA     		add	r2, sp, #8
 862              	.LVL46:
  73:../../libs/libDaisy/src/dev/mpr121.h ****     }
 863              		.loc 7 73 39 view .LVU201
 864 0116 FFF7FEFF 		bl	_ZN5daisy9I2CHandle15ReceiveBlockingEtPhtm
 865              	.LVL47:
  73:../../libs/libDaisy/src/dev/mpr121.h ****     }
 866              		.loc 7 73 39 view .LVU202
 867              	.LBE565:
 868              	.LBE569:
 869              	.LBB570:
 870              	.LBI570:
 871              		.loc 7 343 10 is_stmt 1 view .LVU203
 872              	.LBB571:
 873              		.loc 7 343 55 is_stmt 0 view .LVU204
 874 011a 94F83020 		ldrb	r2, [r4, #48]	@ zero_extendqisi2
 875              	.LBE571:
 876              	.LBE570:
 877              	.LBB574:
 878              	.LBB575:
  66:../../libs/libDaisy/src/dev/mpr121.h ****     }
 879              		.loc 7 66 40 view .LVU205
 880 011e 0223     		movs	r3, #2
 881 0120 0095     		str	r5, [sp]
 882              	.LBE575:
 883              	.LBE574:
 884              	.LBB578:
 885              	.LBB572:
 886              		.loc 7 343 55 view .LVU206
 887 0122 4045     		cmp	r0, r8
 888 0124 18BF     		it	ne
 889 0126 42F00102 		orrne	r2, r2, #1
 890              	.LBE572:
 891              	.LBE578:
 892              	.LBB579:
 893              	.LBB576:
  66:../../libs/libDaisy/src/dev/mpr121.h ****     }
 894              		.loc 7 66 40 view .LVU207
 895 012a 94F82C10 		ldrb	r1, [r4, #44]	@ zero_extendqisi2
ARM GAS  C:\Users\skipi\AppData\Local\Temp\ccdbNCKv.s 			page 39


 896 012e 8248     		ldr	r0, .L25+12
 897              	.LVL48:
  66:../../libs/libDaisy/src/dev/mpr121.h ****     }
 898              		.loc 7 66 40 view .LVU208
 899              	.LBE576:
 900              	.LBE579:
 901              	.LBB580:
 902              	.LBB573:
 903              		.loc 7 343 55 view .LVU209
 904 0130 84F83020 		strb	r2, [r4, #48]
 905              	.LVL49:
 906              		.loc 7 343 55 view .LVU210
 907              	.LBE573:
 908              	.LBE580:
 909              	.LBB581:
 910              	.LBI574:
  63:../../libs/libDaisy/src/dev/mpr121.h ****     {
 911              		.loc 7 63 10 is_stmt 1 view .LVU211
 912              	.LBB577:
  65:../../libs/libDaisy/src/dev/mpr121.h ****                != i2c_.TransmitBlocking(config_.dev_addr, data, size, 10);
 913              		.loc 7 65 9 view .LVU212
  66:../../libs/libDaisy/src/dev/mpr121.h ****     }
 914              		.loc 7 66 40 is_stmt 0 view .LVU213
 915 0134 07AA     		add	r2, sp, #28
 916              	.LVL50:
  66:../../libs/libDaisy/src/dev/mpr121.h ****     }
 917              		.loc 7 66 40 view .LVU214
 918 0136 FFF7FEFF 		bl	_ZN5daisy9I2CHandle16TransmitBlockingEtPhtm
 919              	.LVL51:
  66:../../libs/libDaisy/src/dev/mpr121.h ****     }
 920              		.loc 7 66 40 view .LVU215
 921              	.LBE577:
 922              	.LBE581:
 923              	.LBB582:
 924              	.LBI582:
 925              		.loc 7 343 10 is_stmt 1 view .LVU216
 926              	.LBB583:
 927              		.loc 7 343 55 is_stmt 0 view .LVU217
 928 013a 94F83020 		ldrb	r2, [r4, #48]	@ zero_extendqisi2
 929              	.LBE583:
 930              	.LBE582:
 931              	.LBB586:
 932              	.LBB587:
  66:../../libs/libDaisy/src/dev/mpr121.h ****     }
 933              		.loc 7 66 40 view .LVU218
 934 013e 0223     		movs	r3, #2
 935 0140 0095     		str	r5, [sp]
 936              	.LBE587:
 937              	.LBE586:
 938              	.LBB591:
 939              	.LBB584:
 940              		.loc 7 343 55 view .LVU219
 941 0142 4045     		cmp	r0, r8
 942 0144 18BF     		it	ne
 943 0146 42F00102 		orrne	r2, r2, #1
 944              	.LBE584:
 945              	.LBE591:
ARM GAS  C:\Users\skipi\AppData\Local\Temp\ccdbNCKv.s 			page 40


 946              	.LBB592:
 947              	.LBB588:
  66:../../libs/libDaisy/src/dev/mpr121.h ****     }
 948              		.loc 7 66 40 view .LVU220
 949 014a 94F82C10 		ldrb	r1, [r4, #44]	@ zero_extendqisi2
 950 014e 7A48     		ldr	r0, .L25+12
 951              	.LVL52:
  66:../../libs/libDaisy/src/dev/mpr121.h ****     }
 952              		.loc 7 66 40 view .LVU221
 953              	.LBE588:
 954              	.LBE592:
 955              	.LBB593:
 956              	.LBB585:
 957              		.loc 7 343 55 view .LVU222
 958 0150 84F83020 		strb	r2, [r4, #48]
 959              	.LVL53:
 960              		.loc 7 343 55 view .LVU223
 961              	.LBE585:
 962              	.LBE593:
 963              	.LBB594:
 964              	.LBI586:
  63:../../libs/libDaisy/src/dev/mpr121.h ****     {
 965              		.loc 7 63 10 is_stmt 1 view .LVU224
 966              	.LBB589:
  65:../../libs/libDaisy/src/dev/mpr121.h ****                != i2c_.TransmitBlocking(config_.dev_addr, data, size, 10);
 967              		.loc 7 65 9 view .LVU225
  66:../../libs/libDaisy/src/dev/mpr121.h ****     }
 968              		.loc 7 66 40 is_stmt 0 view .LVU226
 969 0154 07AA     		add	r2, sp, #28
 970              	.LVL54:
  66:../../libs/libDaisy/src/dev/mpr121.h ****     }
 971              		.loc 7 66 40 view .LVU227
 972              	.LBE589:
 973              	.LBE594:
 281:../../libs/libDaisy/src/dev/mpr121.h ****         buff[1] = value;
 974              		.loc 7 281 17 view .LVU228
 975 0156 8DF81C60 		strb	r6, [sp, #28]
 282:../../libs/libDaisy/src/dev/mpr121.h ****         SetTransportErr(transport_.Write(buff, 2));
 976              		.loc 7 282 17 view .LVU229
 977 015a 8DF81DA0 		strb	r10, [sp, #29]
 978              	.LBB595:
 979              	.LBB590:
  66:../../libs/libDaisy/src/dev/mpr121.h ****     }
 980              		.loc 7 66 40 view .LVU230
 981 015e FFF7FEFF 		bl	_ZN5daisy9I2CHandle16TransmitBlockingEtPhtm
 982              	.LVL55:
  66:../../libs/libDaisy/src/dev/mpr121.h ****     }
 983              		.loc 7 66 40 view .LVU231
 984              	.LBE590:
 985              	.LBE595:
 986              	.LBB596:
 987              	.LBI596:
 988              		.loc 7 343 10 is_stmt 1 view .LVU232
 989              	.LBB597:
 990              		.loc 7 343 55 is_stmt 0 view .LVU233
 991 0162 94F83010 		ldrb	r1, [r4, #48]	@ zero_extendqisi2
 992              	.LBE597:
ARM GAS  C:\Users\skipi\AppData\Local\Temp\ccdbNCKv.s 			page 41


 993              	.LBE596:
 994              	.LBB600:
 995              	.LBB601:
  66:../../libs/libDaisy/src/dev/mpr121.h ****     }
 996              		.loc 7 66 40 view .LVU234
 997 0166 07AA     		add	r2, sp, #28
 998              	.LBE601:
 999              	.LBE600:
 289:../../libs/libDaisy/src/dev/mpr121.h ****             SetTransportErr(transport_.Write(buff, 2));
 1000              		.loc 7 289 21 view .LVU235
 1001 0168 9DF80830 		ldrb	r3, [sp, #8]	@ zero_extendqisi2
 1002              	.LBB606:
 1003              	.LBB598:
 1004              		.loc 7 343 55 view .LVU236
 1005 016c 4045     		cmp	r0, r8
 1006 016e 18BF     		it	ne
 1007 0170 41F00101 		orrne	r1, r1, #1
 1008              	.LBE598:
 1009              	.LBE606:
 1010              	.LBB607:
 1011              	.LBB602:
  66:../../libs/libDaisy/src/dev/mpr121.h ****     }
 1012              		.loc 7 66 40 view .LVU237
 1013 0174 0095     		str	r5, [sp]
 1014              	.LBE602:
 1015              	.LBE607:
 289:../../libs/libDaisy/src/dev/mpr121.h ****             SetTransportErr(transport_.Write(buff, 2));
 1016              		.loc 7 289 21 view .LVU238
 1017 0176 8DF81D30 		strb	r3, [sp, #29]
 1018              	.LBB608:
 1019              	.LBB603:
  66:../../libs/libDaisy/src/dev/mpr121.h ****     }
 1020              		.loc 7 66 40 view .LVU239
 1021 017a 0223     		movs	r3, #2
 1022              	.LBE603:
 1023              	.LBE608:
 1024              	.LBB609:
 1025              	.LBB599:
 1026              		.loc 7 343 55 view .LVU240
 1027 017c 84F83010 		strb	r1, [r4, #48]
 1028              	.LVL56:
 1029              		.loc 7 343 55 view .LVU241
 1030              	.LBE599:
 1031              	.LBE609:
 1032              	.LBB610:
 1033              	.LBI600:
  63:../../libs/libDaisy/src/dev/mpr121.h ****     {
 1034              		.loc 7 63 10 is_stmt 1 view .LVU242
 1035              	.LBB604:
  65:../../libs/libDaisy/src/dev/mpr121.h ****                != i2c_.TransmitBlocking(config_.dev_addr, data, size, 10);
 1036              		.loc 7 65 9 view .LVU243
  66:../../libs/libDaisy/src/dev/mpr121.h ****     }
 1037              		.loc 7 66 40 is_stmt 0 view .LVU244
 1038 0180 6D48     		ldr	r0, .L25+12
 1039 0182 94F82C10 		ldrb	r1, [r4, #44]	@ zero_extendqisi2
 1040              	.LBE604:
 1041              	.LBE610:
ARM GAS  C:\Users\skipi\AppData\Local\Temp\ccdbNCKv.s 			page 42


 288:../../libs/libDaisy/src/dev/mpr121.h ****             buff[1] = ecr_backup;
 1042              		.loc 7 288 21 view .LVU245
 1043 0186 8DF81C70 		strb	r7, [sp, #28]
 1044              	.LBB611:
 1045              	.LBB605:
  66:../../libs/libDaisy/src/dev/mpr121.h ****     }
 1046              		.loc 7 66 40 view .LVU246
 1047 018a FFF7FEFF 		bl	_ZN5daisy9I2CHandle16TransmitBlockingEtPhtm
 1048              	.LVL57:
  66:../../libs/libDaisy/src/dev/mpr121.h ****     }
 1049              		.loc 7 66 40 view .LVU247
 1050              	.LBE605:
 1051              	.LBE611:
 1052              	.LBB612:
 1053              	.LBI612:
 1054              		.loc 7 343 10 is_stmt 1 view .LVU248
 1055              	.LBB613:
 1056              		.loc 7 343 55 is_stmt 0 view .LVU249
 1057 018e 94F83020 		ldrb	r2, [r4, #48]	@ zero_extendqisi2
 1058              	.LBE613:
 1059              	.LBE612:
 1060              	.LBE551:
 1061              	.LBE550:
 1062              	.LBB620:
 1063              	.LBB621:
 1064              	.LBB622:
 1065              	.LBB623:
  66:../../libs/libDaisy/src/dev/mpr121.h ****     }
 1066              		.loc 7 66 40 view .LVU250
 1067 0192 0123     		movs	r3, #1
 1068 0194 0095     		str	r5, [sp]
 1069              	.LBE623:
 1070              	.LBE622:
 1071              	.LBE621:
 1072              	.LBE620:
 1073              	.LBB695:
 1074              	.LBB618:
 1075              	.LBB616:
 1076              	.LBB614:
 1077              		.loc 7 343 55 view .LVU251
 1078 0196 4045     		cmp	r0, r8
 1079 0198 18BF     		it	ne
 1080 019a 42F00102 		orrne	r2, r2, #1
 1081              	.LBE614:
 1082              	.LBE616:
 1083              	.LBE618:
 1084              	.LBE695:
 1085              	.LBB696:
 1086              	.LBB690:
 1087              	.LBB627:
 1088              	.LBB624:
  66:../../libs/libDaisy/src/dev/mpr121.h ****     }
 1089              		.loc 7 66 40 view .LVU252
 1090 019e 94F82C10 		ldrb	r1, [r4, #44]	@ zero_extendqisi2
 1091 01a2 6548     		ldr	r0, .L25+12
 1092              	.LVL58:
  66:../../libs/libDaisy/src/dev/mpr121.h ****     }
ARM GAS  C:\Users\skipi\AppData\Local\Temp\ccdbNCKv.s 			page 43


 1093              		.loc 7 66 40 view .LVU253
 1094              	.LBE624:
 1095              	.LBE627:
 1096              	.LBE690:
 1097              	.LBE696:
 1098              	.LBB697:
 1099              	.LBB619:
 1100              	.LBB617:
 1101              	.LBB615:
 1102              		.loc 7 343 55 view .LVU254
 1103 01a4 84F83020 		strb	r2, [r4, #48]
 1104              	.LVL59:
 1105              		.loc 7 343 55 view .LVU255
 1106              	.LBE615:
 1107              	.LBE617:
 1108              	.LBE619:
 1109              	.LBE697:
 1110              	.LBB698:
 1111              	.LBI620:
 257:../../libs/libDaisy/src/dev/mpr121.h ****     {
 1112              		.loc 7 257 10 is_stmt 1 view .LVU256
 1113              	.LBB691:
 1114              	.LBB628:
 1115              	.LBI622:
  63:../../libs/libDaisy/src/dev/mpr121.h ****     {
 1116              		.loc 7 63 10 view .LVU257
 1117              	.LBB625:
  65:../../libs/libDaisy/src/dev/mpr121.h ****                != i2c_.TransmitBlocking(config_.dev_addr, data, size, 10);
 1118              		.loc 7 65 9 view .LVU258
  66:../../libs/libDaisy/src/dev/mpr121.h ****     }
 1119              		.loc 7 66 40 is_stmt 0 view .LVU259
 1120 01a8 07AA     		add	r2, sp, #28
 1121              	.LVL60:
  66:../../libs/libDaisy/src/dev/mpr121.h ****     }
 1122              		.loc 7 66 40 view .LVU260
 1123              	.LBE625:
 1124              	.LBE628:
 264:../../libs/libDaisy/src/dev/mpr121.h **** 
 1125              		.loc 7 264 17 view .LVU261
 1126 01aa 8DF81D80 		strb	r8, [sp, #29]
 1127 01ae 8DF81C70 		strb	r7, [sp, #28]
 1128              	.LBB629:
 1129              	.LBB626:
  66:../../libs/libDaisy/src/dev/mpr121.h ****     }
 1130              		.loc 7 66 40 view .LVU262
 1131 01b2 FFF7FEFF 		bl	_ZN5daisy9I2CHandle16TransmitBlockingEtPhtm
 1132              	.LVL61:
  66:../../libs/libDaisy/src/dev/mpr121.h ****     }
 1133              		.loc 7 66 40 view .LVU263
 1134              	.LBE626:
 1135              	.LBE629:
 1136              	.LBB630:
 1137              	.LBI630:
 1138              		.loc 7 343 10 is_stmt 1 view .LVU264
 1139              	.LBB631:
 1140              		.loc 7 343 55 is_stmt 0 view .LVU265
 1141 01b6 94F83020 		ldrb	r2, [r4, #48]	@ zero_extendqisi2
ARM GAS  C:\Users\skipi\AppData\Local\Temp\ccdbNCKv.s 			page 44


 1142              	.LBE631:
 1143              	.LBE630:
 1144              	.LBB634:
 1145              	.LBB635:
  73:../../libs/libDaisy/src/dev/mpr121.h ****     }
 1146              		.loc 7 73 39 view .LVU266
 1147 01ba 0123     		movs	r3, #1
 1148 01bc 0095     		str	r5, [sp]
 1149              	.LBE635:
 1150              	.LBE634:
 1151              	.LBB638:
 1152              	.LBB632:
 1153              		.loc 7 343 55 view .LVU267
 1154 01be 4045     		cmp	r0, r8
 1155 01c0 18BF     		it	ne
 1156 01c2 42F00102 		orrne	r2, r2, #1
 1157              	.LBE632:
 1158              	.LBE638:
 1159              	.LBB639:
 1160              	.LBB636:
  73:../../libs/libDaisy/src/dev/mpr121.h ****     }
 1161              		.loc 7 73 39 view .LVU268
 1162 01c6 94F82C10 		ldrb	r1, [r4, #44]	@ zero_extendqisi2
 1163 01ca 5B48     		ldr	r0, .L25+12
 1164              	.LVL62:
  73:../../libs/libDaisy/src/dev/mpr121.h ****     }
 1165              		.loc 7 73 39 view .LVU269
 1166              	.LBE636:
 1167              	.LBE639:
 1168              	.LBB640:
 1169              	.LBB633:
 1170              		.loc 7 343 55 view .LVU270
 1171 01cc 84F83020 		strb	r2, [r4, #48]
 1172              	.LVL63:
 1173              		.loc 7 343 55 view .LVU271
 1174              	.LBE633:
 1175              	.LBE640:
 1176              	.LBB641:
 1177              	.LBI634:
  70:../../libs/libDaisy/src/dev/mpr121.h ****     {
 1178              		.loc 7 70 10 is_stmt 1 view .LVU272
 1179              	.LBB637:
  72:../../libs/libDaisy/src/dev/mpr121.h ****                != i2c_.ReceiveBlocking(config_.dev_addr, data, size, 10);
 1180              		.loc 7 72 9 view .LVU273
  73:../../libs/libDaisy/src/dev/mpr121.h ****     }
 1181              		.loc 7 73 39 is_stmt 0 view .LVU274
 1182 01d0 02AA     		add	r2, sp, #8
 1183              	.LVL64:
  73:../../libs/libDaisy/src/dev/mpr121.h ****     }
 1184              		.loc 7 73 39 view .LVU275
 1185 01d2 FFF7FEFF 		bl	_ZN5daisy9I2CHandle15ReceiveBlockingEtPhtm
 1186              	.LVL65:
  73:../../libs/libDaisy/src/dev/mpr121.h ****     }
 1187              		.loc 7 73 39 view .LVU276
 1188              	.LBE637:
 1189              	.LBE641:
 1190              	.LBB642:
ARM GAS  C:\Users\skipi\AppData\Local\Temp\ccdbNCKv.s 			page 45


 1191              	.LBI642:
 1192              		.loc 7 343 10 is_stmt 1 view .LVU277
 1193              	.LBB643:
 1194              		.loc 7 343 55 is_stmt 0 view .LVU278
 1195 01d6 94F83020 		ldrb	r2, [r4, #48]	@ zero_extendqisi2
 1196              	.LBE643:
 1197              	.LBE642:
 1198              	.LBB646:
 1199              	.LBB647:
  66:../../libs/libDaisy/src/dev/mpr121.h ****     }
 1200              		.loc 7 66 40 view .LVU279
 1201 01da 0223     		movs	r3, #2
 1202 01dc 0095     		str	r5, [sp]
 1203              	.LBE647:
 1204              	.LBE646:
 1205              	.LBB650:
 1206              	.LBB644:
 1207              		.loc 7 343 55 view .LVU280
 1208 01de 4045     		cmp	r0, r8
 1209 01e0 18BF     		it	ne
 1210 01e2 42F00102 		orrne	r2, r2, #1
 1211              	.LBE644:
 1212              	.LBE650:
 1213              	.LBB651:
 1214              	.LBB648:
  66:../../libs/libDaisy/src/dev/mpr121.h ****     }
 1215              		.loc 7 66 40 view .LVU281
 1216 01e6 94F82C10 		ldrb	r1, [r4, #44]	@ zero_extendqisi2
 1217 01ea 5348     		ldr	r0, .L25+12
 1218              	.LVL66:
  66:../../libs/libDaisy/src/dev/mpr121.h ****     }
 1219              		.loc 7 66 40 view .LVU282
 1220              	.LBE648:
 1221              	.LBE651:
 1222              	.LBB652:
 1223              	.LBB645:
 1224              		.loc 7 343 55 view .LVU283
 1225 01ec 84F83020 		strb	r2, [r4, #48]
 1226              	.LVL67:
 1227              		.loc 7 343 55 view .LVU284
 1228              	.LBE645:
 1229              	.LBE652:
 1230              	.LBB653:
 1231              	.LBI646:
  63:../../libs/libDaisy/src/dev/mpr121.h ****     {
 1232              		.loc 7 63 10 is_stmt 1 view .LVU285
 1233              	.LBB649:
  65:../../libs/libDaisy/src/dev/mpr121.h ****                != i2c_.TransmitBlocking(config_.dev_addr, data, size, 10);
 1234              		.loc 7 65 9 view .LVU286
  66:../../libs/libDaisy/src/dev/mpr121.h ****     }
 1235              		.loc 7 66 40 is_stmt 0 view .LVU287
 1236 01f0 07AA     		add	r2, sp, #28
 1237              	.LVL68:
  66:../../libs/libDaisy/src/dev/mpr121.h ****     }
 1238              		.loc 7 66 40 view .LVU288
 1239 01f2 FFF7FEFF 		bl	_ZN5daisy9I2CHandle16TransmitBlockingEtPhtm
 1240              	.LVL69:
ARM GAS  C:\Users\skipi\AppData\Local\Temp\ccdbNCKv.s 			page 46


  66:../../libs/libDaisy/src/dev/mpr121.h ****     }
 1241              		.loc 7 66 40 view .LVU289
 1242              	.LBE649:
 1243              	.LBE653:
 1244              	.LBB654:
 1245              	.LBI654:
 1246              		.loc 7 343 10 is_stmt 1 view .LVU290
 1247              	.LBB655:
 1248              		.loc 7 343 55 is_stmt 0 view .LVU291
 1249 01f6 94F83010 		ldrb	r1, [r4, #48]	@ zero_extendqisi2
 1250              	.LBE655:
 1251              	.LBE654:
 281:../../libs/libDaisy/src/dev/mpr121.h ****         buff[1] = value;
 1252              		.loc 7 281 17 view .LVU292
 1253 01fa 731C     		adds	r3, r6, #1
 1254              	.LBB658:
 1255              	.LBB659:
  66:../../libs/libDaisy/src/dev/mpr121.h ****     }
 1256              		.loc 7 66 40 view .LVU293
 1257 01fc 0095     		str	r5, [sp]
 1258              	.LBE659:
 1259              	.LBE658:
 1260              	.LBB665:
 1261              	.LBB656:
 1262              		.loc 7 343 55 view .LVU294
 1263 01fe 4045     		cmp	r0, r8
 1264 0200 18BF     		it	ne
 1265 0202 41F00101 		orrne	r1, r1, #1
 1266              	.LBE656:
 1267              	.LBE665:
 1268              	.LBB666:
 1269              	.LBB660:
  66:../../libs/libDaisy/src/dev/mpr121.h ****     }
 1270              		.loc 7 66 40 view .LVU295
 1271 0206 07AA     		add	r2, sp, #28
 1272              	.LBE660:
 1273              	.LBE666:
 281:../../libs/libDaisy/src/dev/mpr121.h ****         buff[1] = value;
 1274              		.loc 7 281 17 view .LVU296
 1275 0208 8DF81C30 		strb	r3, [sp, #28]
 1276              	.LBB667:
 1277              	.LBB661:
  66:../../libs/libDaisy/src/dev/mpr121.h ****     }
 1278              		.loc 7 66 40 view .LVU297
 1279 020c 0223     		movs	r3, #2
 1280              	.LBE661:
 1281              	.LBE667:
 1282              	.LBB668:
 1283              	.LBB657:
 1284              		.loc 7 343 55 view .LVU298
 1285 020e 84F83010 		strb	r1, [r4, #48]
 1286              	.LVL70:
 1287              		.loc 7 343 55 view .LVU299
 1288              	.LBE657:
 1289              	.LBE668:
 1290              	.LBB669:
 1291              	.LBI658:
ARM GAS  C:\Users\skipi\AppData\Local\Temp\ccdbNCKv.s 			page 47


  63:../../libs/libDaisy/src/dev/mpr121.h ****     {
 1292              		.loc 7 63 10 is_stmt 1 view .LVU300
 1293              	.LBB662:
  65:../../libs/libDaisy/src/dev/mpr121.h ****                != i2c_.TransmitBlocking(config_.dev_addr, data, size, 10);
 1294              		.loc 7 65 9 view .LVU301
 1295              	.LBE662:
 1296              	.LBE669:
 1297              	.LBE691:
 1298              	.LBE698:
 180:../../libs/libDaisy/src/dev/mpr121.h ****         {
 1299              		.loc 7 180 30 is_stmt 0 view .LVU302
 1300 0212 0236     		adds	r6, r6, #2
 1301              	.LVL71:
 1302              	.LBB699:
 1303              	.LBB692:
 1304              	.LBB670:
 1305              	.LBB663:
  66:../../libs/libDaisy/src/dev/mpr121.h ****     }
 1306              		.loc 7 66 40 view .LVU303
 1307 0214 94F82C10 		ldrb	r1, [r4, #44]	@ zero_extendqisi2
 1308 0218 4748     		ldr	r0, .L25+12
 1309              	.LBE663:
 1310              	.LBE670:
 1311              	.LBE692:
 1312              	.LBE699:
 180:../../libs/libDaisy/src/dev/mpr121.h ****         {
 1313              		.loc 7 180 30 view .LVU304
 1314 021a F6B2     		uxtb	r6, r6
 1315              	.LBB700:
 1316              	.LBB693:
 282:../../libs/libDaisy/src/dev/mpr121.h ****         SetTransportErr(transport_.Write(buff, 2));
 1317              		.loc 7 282 17 view .LVU305
 1318 021c 8DF81D90 		strb	r9, [sp, #29]
 1319              	.LBB671:
 1320              	.LBB664:
  66:../../libs/libDaisy/src/dev/mpr121.h ****     }
 1321              		.loc 7 66 40 view .LVU306
 1322 0220 FFF7FEFF 		bl	_ZN5daisy9I2CHandle16TransmitBlockingEtPhtm
 1323              	.LVL72:
  66:../../libs/libDaisy/src/dev/mpr121.h ****     }
 1324              		.loc 7 66 40 view .LVU307
 1325              	.LBE664:
 1326              	.LBE671:
 1327              	.LBB672:
 1328              	.LBI672:
 1329              		.loc 7 343 10 is_stmt 1 view .LVU308
 1330              	.LBB673:
 1331              		.loc 7 343 55 is_stmt 0 view .LVU309
 1332 0224 94F83020 		ldrb	r2, [r4, #48]	@ zero_extendqisi2
 1333              	.LBE673:
 1334              	.LBE672:
 1335              	.LBB676:
 1336              	.LBB677:
  66:../../libs/libDaisy/src/dev/mpr121.h ****     }
 1337              		.loc 7 66 40 view .LVU310
 1338 0228 0223     		movs	r3, #2
 1339 022a 0095     		str	r5, [sp]
ARM GAS  C:\Users\skipi\AppData\Local\Temp\ccdbNCKv.s 			page 48


 1340              	.LBE677:
 1341              	.LBE676:
 289:../../libs/libDaisy/src/dev/mpr121.h ****             SetTransportErr(transport_.Write(buff, 2));
 1342              		.loc 7 289 21 view .LVU311
 1343 022c 9DF80810 		ldrb	r1, [sp, #8]	@ zero_extendqisi2
 1344              	.LBB681:
 1345              	.LBB674:
 1346              		.loc 7 343 55 view .LVU312
 1347 0230 4045     		cmp	r0, r8
 1348 0232 0CBF     		ite	eq
 1349 0234 1546     		moveq	r5, r2
 1350 0236 42F00105 		orrne	r5, r2, #1
 1351              	.LBE674:
 1352              	.LBE681:
 1353              	.LBB682:
 1354              	.LBB678:
  66:../../libs/libDaisy/src/dev/mpr121.h ****     }
 1355              		.loc 7 66 40 view .LVU313
 1356 023a 07AA     		add	r2, sp, #28
 1357 023c 3E48     		ldr	r0, .L25+12
 1358              	.LVL73:
  66:../../libs/libDaisy/src/dev/mpr121.h ****     }
 1359              		.loc 7 66 40 view .LVU314
 1360              	.LBE678:
 1361              	.LBE682:
 289:../../libs/libDaisy/src/dev/mpr121.h ****             SetTransportErr(transport_.Write(buff, 2));
 1362              		.loc 7 289 21 view .LVU315
 1363 023e 8DF81D10 		strb	r1, [sp, #29]
 1364              	.LBB683:
 1365              	.LBB675:
 1366              		.loc 7 343 55 view .LVU316
 1367 0242 84F83050 		strb	r5, [r4, #48]
 1368              	.LVL74:
 1369              		.loc 7 343 55 view .LVU317
 1370              	.LBE675:
 1371              	.LBE683:
 1372              	.LBB684:
 1373              	.LBI676:
  63:../../libs/libDaisy/src/dev/mpr121.h ****     {
 1374              		.loc 7 63 10 is_stmt 1 view .LVU318
 1375              	.LBB679:
  65:../../libs/libDaisy/src/dev/mpr121.h ****                != i2c_.TransmitBlocking(config_.dev_addr, data, size, 10);
 1376              		.loc 7 65 9 view .LVU319
  66:../../libs/libDaisy/src/dev/mpr121.h ****     }
 1377              		.loc 7 66 40 is_stmt 0 view .LVU320
 1378 0246 94F82C10 		ldrb	r1, [r4, #44]	@ zero_extendqisi2
 1379              	.LBE679:
 1380              	.LBE684:
 288:../../libs/libDaisy/src/dev/mpr121.h ****             buff[1] = ecr_backup;
 1381              		.loc 7 288 21 view .LVU321
 1382 024a 8DF81C70 		strb	r7, [sp, #28]
 1383              	.LBB685:
 1384              	.LBB680:
  66:../../libs/libDaisy/src/dev/mpr121.h ****     }
 1385              		.loc 7 66 40 view .LVU322
 1386 024e FFF7FEFF 		bl	_ZN5daisy9I2CHandle16TransmitBlockingEtPhtm
 1387              	.LVL75:
ARM GAS  C:\Users\skipi\AppData\Local\Temp\ccdbNCKv.s 			page 49


  66:../../libs/libDaisy/src/dev/mpr121.h ****     }
 1388              		.loc 7 66 40 view .LVU323
 1389              	.LBE680:
 1390              	.LBE685:
 1391              	.LBB686:
 1392              	.LBI686:
 1393              		.loc 7 343 10 is_stmt 1 view .LVU324
 1394              	.LBB687:
 1395              		.loc 7 343 55 is_stmt 0 view .LVU325
 1396 0252 94F83030 		ldrb	r3, [r4, #48]	@ zero_extendqisi2
 1397 0256 4045     		cmp	r0, r8
 1398 0258 18BF     		it	ne
 1399 025a 43F00103 		orrne	r3, r3, #1
 1400              	.LBE687:
 1401              	.LBE686:
 1402              	.LBE693:
 1403              	.LBE700:
 180:../../libs/libDaisy/src/dev/mpr121.h ****         {
 1404              		.loc 7 180 30 view .LVU326
 1405 025e 592E     		cmp	r6, #89
 1406              	.LBB701:
 1407              	.LBB694:
 1408              	.LBB689:
 1409              	.LBB688:
 1410              		.loc 7 343 55 view .LVU327
 1411 0260 84F83030 		strb	r3, [r4, #48]
 1412              	.LVL76:
 1413              		.loc 7 343 55 view .LVU328
 1414              	.LBE688:
 1415              	.LBE689:
 1416              	.LBE694:
 1417              	.LBE701:
 180:../../libs/libDaisy/src/dev/mpr121.h ****         {
 1418              		.loc 7 180 9 is_stmt 1 view .LVU329
 180:../../libs/libDaisy/src/dev/mpr121.h ****         {
 1419              		.loc 7 180 30 view .LVU330
 1420 0264 7FF439AF 		bne	.L11
 1421              	.LVL77:
 180:../../libs/libDaisy/src/dev/mpr121.h ****         {
 1422              		.loc 7 180 30 is_stmt 0 view .LVU331
 1423              	.LBE549:
 1424              	.LBE548:
 134:../../libs/libDaisy/src/dev/mpr121.h ****         WriteRegister(MPR121_NHDR, 0x01);
 1425              		.loc 7 134 22 view .LVU332
 1426 0268 0122     		movs	r2, #1
 1427 026a 2B21     		movs	r1, #43
 1428 026c 3148     		ldr	r0, .L25+8
 1429 026e FFF7FEFF 		bl	_ZN5daisy6Mpr121INS_18Mpr121I2CTransportEE13WriteRegisterEhh
 1430              	.LVL78:
 135:../../libs/libDaisy/src/dev/mpr121.h ****         WriteRegister(MPR121_NCLR, 0x0E);
 1431              		.loc 7 135 22 view .LVU333
 1432 0272 0122     		movs	r2, #1
 1433 0274 2C21     		movs	r1, #44
 1434 0276 2F48     		ldr	r0, .L25+8
 1435 0278 FFF7FEFF 		bl	_ZN5daisy6Mpr121INS_18Mpr121I2CTransportEE13WriteRegisterEhh
 1436              	.LVL79:
 136:../../libs/libDaisy/src/dev/mpr121.h ****         WriteRegister(MPR121_FDLR, 0x00);
ARM GAS  C:\Users\skipi\AppData\Local\Temp\ccdbNCKv.s 			page 50


 1437              		.loc 7 136 22 view .LVU334
 1438 027c 2D21     		movs	r1, #45
 1439 027e 2D48     		ldr	r0, .L25+8
 1440 0280 0E22     		movs	r2, #14
 1441 0282 FFF7FEFF 		bl	_ZN5daisy6Mpr121INS_18Mpr121I2CTransportEE13WriteRegisterEhh
 1442              	.LVL80:
 137:../../libs/libDaisy/src/dev/mpr121.h **** 
 1443              		.loc 7 137 22 view .LVU335
 1444 0286 4246     		mov	r2, r8
 1445 0288 2E21     		movs	r1, #46
 1446 028a 2A48     		ldr	r0, .L25+8
 1447 028c FFF7FEFF 		bl	_ZN5daisy6Mpr121INS_18Mpr121I2CTransportEE13WriteRegisterEhh
 1448              	.LVL81:
 139:../../libs/libDaisy/src/dev/mpr121.h ****         WriteRegister(MPR121_NHDF, 0x05);
 1449              		.loc 7 139 22 view .LVU336
 1450 0290 0122     		movs	r2, #1
 1451 0292 2F21     		movs	r1, #47
 1452 0294 2748     		ldr	r0, .L25+8
 1453 0296 FFF7FEFF 		bl	_ZN5daisy6Mpr121INS_18Mpr121I2CTransportEE13WriteRegisterEhh
 1454              	.LVL82:
 140:../../libs/libDaisy/src/dev/mpr121.h ****         WriteRegister(MPR121_NCLF, 0x01);
 1455              		.loc 7 140 22 view .LVU337
 1456 029a 0522     		movs	r2, #5
 1457 029c 3021     		movs	r1, #48
 1458 029e 2548     		ldr	r0, .L25+8
 1459 02a0 FFF7FEFF 		bl	_ZN5daisy6Mpr121INS_18Mpr121I2CTransportEE13WriteRegisterEhh
 1460              	.LVL83:
 141:../../libs/libDaisy/src/dev/mpr121.h ****         WriteRegister(MPR121_FDLF, 0x00);
 1461              		.loc 7 141 22 view .LVU338
 1462 02a4 3121     		movs	r1, #49
 1463 02a6 2348     		ldr	r0, .L25+8
 1464 02a8 0122     		movs	r2, #1
 1465 02aa FFF7FEFF 		bl	_ZN5daisy6Mpr121INS_18Mpr121I2CTransportEE13WriteRegisterEhh
 1466              	.LVL84:
 142:../../libs/libDaisy/src/dev/mpr121.h **** 
 1467              		.loc 7 142 22 view .LVU339
 1468 02ae 4246     		mov	r2, r8
 1469 02b0 3221     		movs	r1, #50
 1470 02b2 2048     		ldr	r0, .L25+8
 1471 02b4 FFF7FEFF 		bl	_ZN5daisy6Mpr121INS_18Mpr121I2CTransportEE13WriteRegisterEhh
 1472              	.LVL85:
 144:../../libs/libDaisy/src/dev/mpr121.h ****         WriteRegister(MPR121_NCLT, 0x00);
 1473              		.loc 7 144 22 view .LVU340
 1474 02b8 4246     		mov	r2, r8
 1475 02ba 3321     		movs	r1, #51
 1476 02bc 1D48     		ldr	r0, .L25+8
 1477 02be FFF7FEFF 		bl	_ZN5daisy6Mpr121INS_18Mpr121I2CTransportEE13WriteRegisterEhh
 1478              	.LVL86:
 145:../../libs/libDaisy/src/dev/mpr121.h ****         WriteRegister(MPR121_FDLT, 0x00);
 1479              		.loc 7 145 22 view .LVU341
 1480 02c2 4246     		mov	r2, r8
 1481 02c4 3421     		movs	r1, #52
 1482 02c6 1B48     		ldr	r0, .L25+8
 1483 02c8 FFF7FEFF 		bl	_ZN5daisy6Mpr121INS_18Mpr121I2CTransportEE13WriteRegisterEhh
 1484              	.LVL87:
 146:../../libs/libDaisy/src/dev/mpr121.h **** 
 1485              		.loc 7 146 22 view .LVU342
ARM GAS  C:\Users\skipi\AppData\Local\Temp\ccdbNCKv.s 			page 51


 1486 02cc 4246     		mov	r2, r8
 1487 02ce 3521     		movs	r1, #53
 1488 02d0 1848     		ldr	r0, .L25+8
 1489 02d2 FFF7FEFF 		bl	_ZN5daisy6Mpr121INS_18Mpr121I2CTransportEE13WriteRegisterEhh
 1490              	.LVL88:
 148:../../libs/libDaisy/src/dev/mpr121.h ****         WriteRegister(MPR121_CONFIG1, 0x10); // default, 16uA charge current
 1491              		.loc 7 148 22 view .LVU343
 1492 02d6 4246     		mov	r2, r8
 1493 02d8 5B21     		movs	r1, #91
 1494 02da 1648     		ldr	r0, .L25+8
 1495 02dc FFF7FEFF 		bl	_ZN5daisy6Mpr121INS_18Mpr121I2CTransportEE13WriteRegisterEhh
 1496              	.LVL89:
 149:../../libs/libDaisy/src/dev/mpr121.h ****         WriteRegister(MPR121_CONFIG2, 0x20); // 0.5uS encoding, 1ms period
 1497              		.loc 7 149 22 view .LVU344
 1498 02e0 1022     		movs	r2, #16
 1499 02e2 5C21     		movs	r1, #92
 1500 02e4 1348     		ldr	r0, .L25+8
 1501 02e6 FFF7FEFF 		bl	_ZN5daisy6Mpr121INS_18Mpr121I2CTransportEE13WriteRegisterEhh
 1502              	.LVL90:
 150:../../libs/libDaisy/src/dev/mpr121.h **** 
 1503              		.loc 7 150 22 view .LVU345
 1504 02ea 2022     		movs	r2, #32
 1505 02ec 5D21     		movs	r1, #93
 1506 02ee 1148     		ldr	r0, .L25+8
 1507 02f0 FFF7FEFF 		bl	_ZN5daisy6Mpr121INS_18Mpr121I2CTransportEE13WriteRegisterEhh
 1508              	.LVL91:
 166:../../libs/libDaisy/src/dev/mpr121.h ****                       ECR_SETTING); // start with above ECR setting
 1509              		.loc 7 166 22 view .LVU346
 1510 02f4 3946     		mov	r1, r7
 1511 02f6 8C22     		movs	r2, #140
 1512 02f8 0E48     		ldr	r0, .L25+8
 1513 02fa FFF7FEFF 		bl	_ZN5daisy6Mpr121INS_18Mpr121I2CTransportEE13WriteRegisterEhh
 1514              	.LVL92:
 1515              	.LBB702:
 1516              	.LBI702:
 344:../../libs/libDaisy/src/dev/mpr121.h **** 
 345:../../libs/libDaisy/src/dev/mpr121.h ****     /** Get the global transport_error_ bool (as a Result), then reset it */
 346:../../libs/libDaisy/src/dev/mpr121.h ****     Result GetTransportErr()
 1517              		.loc 7 346 12 is_stmt 1 view .LVU347
 1518              	.LBB703:
 347:../../libs/libDaisy/src/dev/mpr121.h ****     {
 348:../../libs/libDaisy/src/dev/mpr121.h ****         Result ret       = transport_error_ ? ERR : OK;
 1519              		.loc 7 348 45 is_stmt 0 view .LVU348
 1520 02fe 94F83030 		ldrb	r3, [r4, #48]	@ zero_extendqisi2
 1521 0302 1BB3     		cbz	r3, .L12
 1522              	.LVL93:
 1523              		.loc 7 348 45 view .LVU349
 1524              	.LBE703:
 1525              	.LBE702:
 1526              	.LBE708:
 1527              	.LBE713:
 1528              	.LBB714:
 1529              	.LBB715:
 128:../../libs/libDaisy/src/daisy_seed.h ****     }
 1530              		.loc 1 128 23 view .LVU350
 1531 0304 0D48     		ldr	r0, .L25+16
 1532              	.LBE715:
ARM GAS  C:\Users\skipi\AppData\Local\Temp\ccdbNCKv.s 			page 52


 1533              	.LBE714:
 1534              	.LBB717:
 1535              	.LBB709:
 1536              	.LBB705:
 1537              	.LBB704:
 349:../../libs/libDaisy/src/dev/mpr121.h ****         transport_error_ = false;
 1538              		.loc 7 349 26 view .LVU351
 1539 0306 84F83080 		strb	r8, [r4, #48]
 1540              	.LVL94:
 1541              		.loc 7 349 26 view .LVU352
 1542              	.LBE704:
 1543              	.LBE705:
 1544              	.LBE709:
 1545              	.LBE717:
  33:main0.cpp     ****   {
  34:main0.cpp     ****     hw.PrintLine("MPR121 not found, check wiring?");
 1546              		.loc 8 34 5 is_stmt 1 view .LVU353
 1547              	.LBB718:
 1548              	.LBI714:
 126:../../libs/libDaisy/src/daisy_seed.h ****     {
 1549              		.loc 1 126 17 view .LVU354
 1550              	.LBB716:
 128:../../libs/libDaisy/src/daisy_seed.h ****     }
 1551              		.loc 1 128 23 is_stmt 0 view .LVU355
 1552 030a FFF7FEFF 		bl	_ZN5daisy6LoggerILNS_17LoggerDestinationE1EE9PrintLineEPKcz
 1553              	.LVL95:
 1554              	.L13:
 128:../../libs/libDaisy/src/daisy_seed.h ****     }
 1555              		.loc 1 128 23 view .LVU356
 1556              	.LBE716:
 1557              	.LBE718:
  35:main0.cpp     ****     while (1)
 1558              		.loc 8 35 5 is_stmt 1 discriminator 1 view .LVU357
  36:main0.cpp     ****     {
  37:main0.cpp     ****       hw.SetLed(true);
 1559              		.loc 8 37 7 discriminator 1 view .LVU358
 1560              		.loc 8 37 16 is_stmt 0 discriminator 1 view .LVU359
 1561 030e 0121     		movs	r1, #1
 1562 0310 0648     		ldr	r0, .L25
 1563 0312 FFF7FEFF 		bl	_ZN5daisy9DaisySeed6SetLedEb
 1564              	.LVL96:
  38:main0.cpp     ****       hw.DelayMs(500);
 1565              		.loc 8 38 7 is_stmt 1 discriminator 1 view .LVU360
 1566              		.loc 8 38 17 is_stmt 0 discriminator 1 view .LVU361
 1567 0316 4FF4FA71 		mov	r1, #500
 1568 031a 0448     		ldr	r0, .L25
 1569 031c FFF7FEFF 		bl	_ZN5daisy9DaisySeed7DelayMsEj
 1570              	.LVL97:
  39:main0.cpp     ****       hw.SetLed(false);
 1571              		.loc 8 39 7 is_stmt 1 discriminator 1 view .LVU362
 1572              		.loc 8 39 16 is_stmt 0 discriminator 1 view .LVU363
 1573 0320 0021     		movs	r1, #0
 1574 0322 0248     		ldr	r0, .L25
 1575 0324 FFF7FEFF 		bl	_ZN5daisy9DaisySeed6SetLedEb
 1576              	.LVL98:
 1577 0328 0AE0     		b	.L26
 1578              	.L27:
ARM GAS  C:\Users\skipi\AppData\Local\Temp\ccdbNCKv.s 			page 53


 1579 032a 00BF     		.align	2
 1580              	.L25:
 1581 032c 00000000 		.word	.LANCHOR0
 1582 0330 00000000 		.word	.LANCHOR1
 1583 0334 00000000 		.word	.LANCHOR2
 1584 0338 18000000 		.word	.LANCHOR2+24
 1585 033c 00000000 		.word	.LC0
 1586              	.L26:
  40:main0.cpp     ****       hw.DelayMs(500);
 1587              		.loc 8 40 7 is_stmt 1 discriminator 1 view .LVU364
 1588              		.loc 8 40 17 is_stmt 0 discriminator 1 view .LVU365
 1589 0340 4FF4FA71 		mov	r1, #500
 1590 0344 4048     		ldr	r0, .L28
 1591 0346 FFF7FEFF 		bl	_ZN5daisy9DaisySeed7DelayMsEj
 1592              	.LVL99:
  35:main0.cpp     ****     {
 1593              		.loc 8 35 5 is_stmt 1 discriminator 1 view .LVU366
 1594 034a E0E7     		b	.L13
 1595              	.LVL100:
 1596              	.L12:
  41:main0.cpp     ****     }
  42:main0.cpp     ****   }
  43:main0.cpp     ****   hw.PrintLine("MPR121 found!");
 1597              		.loc 8 43 3 view .LVU367
 1598              	.LBB719:
 1599              	.LBI719:
 126:../../libs/libDaisy/src/daisy_seed.h ****     {
 1600              		.loc 1 126 17 view .LVU368
 1601              	.LBB720:
 128:../../libs/libDaisy/src/daisy_seed.h ****     }
 1602              		.loc 1 128 23 is_stmt 0 view .LVU369
 1603 034c 3F48     		ldr	r0, .L28+4
 1604 034e 404F     		ldr	r7, .L28+8
 1605 0350 FFF7FEFF 		bl	_ZN5daisy6LoggerILNS_17LoggerDestinationE1EE9PrintLineEPKcz
 1606              	.LVL101:
 1607 0354 3F4E     		ldr	r6, .L28+12
 129:../../libs/libDaisy/src/daisy_seed.h **** 
 1608              		.loc 1 129 5 view .LVU370
 1609 0356 11E0     		b	.L14
 1610              	.LVL102:
 1611              	.L15:
 129:../../libs/libDaisy/src/daisy_seed.h **** 
 1612              		.loc 1 129 5 view .LVU371
 1613              	.LBE720:
 1614              	.LBE719:
  44:main0.cpp     ****   //cap.SetThresholds(12, 6); // sets the touch and release thresholds for all 12 channels
  45:main0.cpp     **** 
  46:main0.cpp     ****   while (1)
  47:main0.cpp     ****   {
  48:main0.cpp     **** 
  49:main0.cpp     ****     currtouched = cap.Touched();
  50:main0.cpp     **** 
  51:main0.cpp     ****     
  52:main0.cpp     ****     if ((currtouched & _BV(0)) && !(lasttouched & _BV(0)))
  53:main0.cpp     ****     {
  54:main0.cpp     ****       hw.PrintLine("-------------------------------------------------------------------------------
  55:main0.cpp     ****       hw.PrintLine("CAP 0 touched");
ARM GAS  C:\Users\skipi\AppData\Local\Temp\ccdbNCKv.s 			page 54


  56:main0.cpp     ****       hw.PrintLine("%d", cap.FilteredData(0));
  57:main0.cpp     ****       hw.PrintLine("-------------------------------------------------------------------------------
  58:main0.cpp     ****       
  59:main0.cpp     ****     }
  60:main0.cpp     **** 
  61:main0.cpp     ****     //if it *was* touched and now *isnt*, alert!
  62:main0.cpp     ****     if (!(currtouched & _BV(0)) && (lasttouched & _BV(0)))
 1615              		.loc 8 62 33 discriminator 1 view .LVU372
 1616 0358 3388     		ldrh	r3, [r6]
 1617 035a DB07     		lsls	r3, r3, #31
 1618 035c 09D5     		bpl	.L16
  63:main0.cpp     ****     {
  64:main0.cpp     ****        hw.PrintLine("------------------------------------------------------------------------------
 1619              		.loc 8 64 8 is_stmt 1 view .LVU373
 1620              	.LVL103:
 1621              	.LBB721:
 1622              	.LBI721:
 126:../../libs/libDaisy/src/daisy_seed.h ****     {
 1623              		.loc 1 126 17 view .LVU374
 1624              	.LBB722:
 128:../../libs/libDaisy/src/daisy_seed.h ****     }
 1625              		.loc 1 128 23 is_stmt 0 view .LVU375
 1626 035e 3E48     		ldr	r0, .L28+16
 1627 0360 FFF7FEFF 		bl	_ZN5daisy6LoggerILNS_17LoggerDestinationE1EE9PrintLineEPKcz
 1628              	.LVL104:
 128:../../libs/libDaisy/src/daisy_seed.h ****     }
 1629              		.loc 1 128 23 view .LVU376
 1630              	.LBE722:
 1631              	.LBE721:
  65:main0.cpp     ****        hw.PrintLine("CAP 0 released");
 1632              		.loc 8 65 8 is_stmt 1 view .LVU377
 1633              	.LBB723:
 1634              	.LBI723:
 126:../../libs/libDaisy/src/daisy_seed.h ****     {
 1635              		.loc 1 126 17 view .LVU378
 1636              	.LBB724:
 128:../../libs/libDaisy/src/daisy_seed.h ****     }
 1637              		.loc 1 128 23 is_stmt 0 view .LVU379
 1638 0364 3D48     		ldr	r0, .L28+20
 1639 0366 FFF7FEFF 		bl	_ZN5daisy6LoggerILNS_17LoggerDestinationE1EE9PrintLineEPKcz
 1640              	.LVL105:
 128:../../libs/libDaisy/src/daisy_seed.h ****     }
 1641              		.loc 1 128 23 view .LVU380
 1642              	.LBE724:
 1643              	.LBE723:
  66:main0.cpp     ****        hw.PrintLine("------------------------------------------------------------------------------
 1644              		.loc 8 66 8 is_stmt 1 view .LVU381
 1645              	.LBB725:
 1646              	.LBI725:
 126:../../libs/libDaisy/src/daisy_seed.h ****     {
 1647              		.loc 1 126 17 view .LVU382
 1648              	.LBB726:
 128:../../libs/libDaisy/src/daisy_seed.h ****     }
 1649              		.loc 1 128 23 is_stmt 0 view .LVU383
 1650 036a 3B48     		ldr	r0, .L28+16
 1651 036c FFF7FEFF 		bl	_ZN5daisy6LoggerILNS_17LoggerDestinationE1EE9PrintLineEPKcz
 1652              	.LVL106:
ARM GAS  C:\Users\skipi\AppData\Local\Temp\ccdbNCKv.s 			page 55


 1653              	.LBE726:
 1654              	.LBE725:
  67:main0.cpp     ****        
  68:main0.cpp     ****     }
  69:main0.cpp     ****     
  70:main0.cpp     ****     lasttouched = currtouched;
 1655              		.loc 8 70 17 view .LVU384
 1656 0370 3A88     		ldrh	r2, [r7]
 1657              	.LVL107:
 1658              	.L16:
 1659              		.loc 8 70 5 is_stmt 1 view .LVU385
  71:main0.cpp     **** 
  72:main0.cpp     ****    
  73:main0.cpp     ****     hw.DelayMs(50);
 1660              		.loc 8 73 15 is_stmt 0 view .LVU386
 1661 0372 3221     		movs	r1, #50
 1662 0374 3448     		ldr	r0, .L28
  70:main0.cpp     **** 
 1663              		.loc 8 70 17 view .LVU387
 1664 0376 3280     		strh	r2, [r6]	@ movhi
 1665              		.loc 8 73 5 is_stmt 1 view .LVU388
 1666              		.loc 8 73 15 is_stmt 0 view .LVU389
 1667 0378 FFF7FEFF 		bl	_ZN5daisy9DaisySeed7DelayMsEj
 1668              	.LVL108:
  46:main0.cpp     ****   {
 1669              		.loc 8 46 3 is_stmt 1 view .LVU390
 1670              	.L14:
  46:main0.cpp     ****   {
 1671              		.loc 8 46 3 view .LVU391
  49:main0.cpp     **** 
 1672              		.loc 8 49 5 view .LVU392
 1673              	.LBB727:
 1674              	.LBI727:
 221:../../libs/libDaisy/src/dev/mpr121.h ****     {
 1675              		.loc 7 221 14 view .LVU393
 1676              	.LBB728:
 1677              	.LBB729:
 1678              	.LBB730:
 1679              	.LBB731:
 1680              	.LBB732:
  66:../../libs/libDaisy/src/dev/mpr121.h ****     }
 1681              		.loc 7 66 40 is_stmt 0 view .LVU394
 1682 037c 0A25     		movs	r5, #10
 1683 037e 4FF0000C 		mov	ip, #0
 1684 0382 94F82C10 		ldrb	r1, [r4, #44]	@ zero_extendqisi2
 1685 0386 07AA     		add	r2, sp, #28
 1686 0388 0123     		movs	r3, #1
 1687 038a 3548     		ldr	r0, .L28+24
 1688 038c 0095     		str	r5, [sp]
 1689 038e 8DF81CC0 		strb	ip, [sp, #28]
 1690              	.LVL109:
  66:../../libs/libDaisy/src/dev/mpr121.h ****     }
 1691              		.loc 7 66 40 view .LVU395
 1692              	.LBE732:
 1693              	.LBE731:
 1694              	.LBE730:
 1695              	.LBI729:
ARM GAS  C:\Users\skipi\AppData\Local\Temp\ccdbNCKv.s 			page 56


 244:../../libs/libDaisy/src/dev/mpr121.h ****     {
 1696              		.loc 7 244 14 is_stmt 1 view .LVU396
 1697              	.LBB753:
 1698              	.LBB734:
 1699              	.LBI731:
  63:../../libs/libDaisy/src/dev/mpr121.h ****     {
 1700              		.loc 7 63 10 view .LVU397
 1701              	.LBB733:
  65:../../libs/libDaisy/src/dev/mpr121.h ****                != i2c_.TransmitBlocking(config_.dev_addr, data, size, 10);
 1702              		.loc 7 65 9 view .LVU398
  66:../../libs/libDaisy/src/dev/mpr121.h ****     }
 1703              		.loc 7 66 40 is_stmt 0 view .LVU399
 1704 0392 FFF7FEFF 		bl	_ZN5daisy9I2CHandle16TransmitBlockingEtPhtm
 1705              	.LVL110:
  66:../../libs/libDaisy/src/dev/mpr121.h ****     }
 1706              		.loc 7 66 40 view .LVU400
 1707              	.LBE733:
 1708              	.LBE734:
 1709              	.LBB735:
 1710              	.LBI735:
 343:../../libs/libDaisy/src/dev/mpr121.h **** 
 1711              		.loc 7 343 10 is_stmt 1 view .LVU401
 1712              	.LBB736:
 343:../../libs/libDaisy/src/dev/mpr121.h **** 
 1713              		.loc 7 343 55 is_stmt 0 view .LVU402
 1714 0396 94F830C0 		ldrb	ip, [r4, #48]	@ zero_extendqisi2
 1715              	.LBE736:
 1716              	.LBE735:
 1717              	.LBB739:
 1718              	.LBB740:
  73:../../libs/libDaisy/src/dev/mpr121.h ****     }
 1719              		.loc 7 73 39 view .LVU403
 1720 039a 0223     		movs	r3, #2
 1721 039c 94F82C10 		ldrb	r1, [r4, #44]	@ zero_extendqisi2
 1722 03a0 0CAA     		add	r2, sp, #48
 1723              	.LBE740:
 1724              	.LBE739:
 1725              	.LBB743:
 1726              	.LBB737:
 343:../../libs/libDaisy/src/dev/mpr121.h **** 
 1727              		.loc 7 343 55 view .LVU404
 1728 03a2 0028     		cmp	r0, #0
 1729 03a4 18BF     		it	ne
 1730 03a6 4CF0010C 		orrne	ip, ip, #1
 1731              	.LBE737:
 1732              	.LBE743:
 1733              	.LBB744:
 1734              	.LBB741:
  73:../../libs/libDaisy/src/dev/mpr121.h ****     }
 1735              		.loc 7 73 39 view .LVU405
 1736 03aa 0095     		str	r5, [sp]
 1737 03ac 2C48     		ldr	r0, .L28+24
 1738              	.LVL111:
  73:../../libs/libDaisy/src/dev/mpr121.h ****     }
 1739              		.loc 7 73 39 view .LVU406
 1740              	.LBE741:
 1741              	.LBE744:
ARM GAS  C:\Users\skipi\AppData\Local\Temp\ccdbNCKv.s 			page 57


 1742              	.LBB745:
 1743              	.LBB738:
 343:../../libs/libDaisy/src/dev/mpr121.h **** 
 1744              		.loc 7 343 55 view .LVU407
 1745 03ae 84F830C0 		strb	ip, [r4, #48]
 1746              	.LVL112:
 343:../../libs/libDaisy/src/dev/mpr121.h **** 
 1747              		.loc 7 343 55 view .LVU408
 1748              	.LBE738:
 1749              	.LBE745:
 1750              	.LBB746:
 1751              	.LBI739:
  70:../../libs/libDaisy/src/dev/mpr121.h ****     {
 1752              		.loc 7 70 10 is_stmt 1 view .LVU409
 1753              	.LBB742:
  72:../../libs/libDaisy/src/dev/mpr121.h ****                != i2c_.ReceiveBlocking(config_.dev_addr, data, size, 10);
 1754              		.loc 7 72 9 view .LVU410
  73:../../libs/libDaisy/src/dev/mpr121.h ****     }
 1755              		.loc 7 73 39 is_stmt 0 view .LVU411
 1756 03b2 FFF7FEFF 		bl	_ZN5daisy9I2CHandle15ReceiveBlockingEtPhtm
 1757              	.LVL113:
  73:../../libs/libDaisy/src/dev/mpr121.h ****     }
 1758              		.loc 7 73 39 view .LVU412
 1759              	.LBE742:
 1760              	.LBE746:
 1761              	.LBB747:
 1762              	.LBI747:
 343:../../libs/libDaisy/src/dev/mpr121.h **** 
 1763              		.loc 7 343 10 is_stmt 1 view .LVU413
 1764              	.LBB748:
 343:../../libs/libDaisy/src/dev/mpr121.h **** 
 1765              		.loc 7 343 55 is_stmt 0 view .LVU414
 1766 03b6 94F83030 		ldrb	r3, [r4, #48]	@ zero_extendqisi2
 1767              	.LBE748:
 1768              	.LBE747:
 250:../../libs/libDaisy/src/dev/mpr121.h ****     }
 1769              		.loc 7 250 16 view .LVU415
 1770 03ba BDF83010 		ldrh	r1, [sp, #48]
 1771              	.LBB751:
 1772              	.LBB749:
 343:../../libs/libDaisy/src/dev/mpr121.h **** 
 1773              		.loc 7 343 55 view .LVU416
 1774 03be 0028     		cmp	r0, #0
 1775 03c0 18BF     		it	ne
 1776 03c2 43F00103 		orrne	r3, r3, #1
 1777              	.LBE749:
 1778              	.LBE751:
 1779              	.LBE753:
 1780              	.LBE729:
 224:../../libs/libDaisy/src/dev/mpr121.h ****     }
 1781              		.loc 7 224 20 view .LVU417
 1782 03c6 C1F30B02 		ubfx	r2, r1, #0, #12
 1783              	.LBB755:
 1784              	.LBB754:
 1785              	.LBB752:
 1786              	.LBB750:
 343:../../libs/libDaisy/src/dev/mpr121.h **** 
ARM GAS  C:\Users\skipi\AppData\Local\Temp\ccdbNCKv.s 			page 58


 1787              		.loc 7 343 55 view .LVU418
 1788 03ca 84F83030 		strb	r3, [r4, #48]
 1789              	.LVL114:
 343:../../libs/libDaisy/src/dev/mpr121.h **** 
 1790              		.loc 7 343 55 view .LVU419
 1791              	.LBE750:
 1792              	.LBE752:
 1793              	.LBE754:
 1794              	.LBE755:
 1795              	.LBE728:
 1796              	.LBE727:
  52:main0.cpp     ****     {
 1797              		.loc 8 52 5 view .LVU420
 1798 03ce CB07     		lsls	r3, r1, #31
  49:main0.cpp     **** 
 1799              		.loc 8 49 17 view .LVU421
 1800 03d0 3A80     		strh	r2, [r7]	@ movhi
  52:main0.cpp     ****     {
 1801              		.loc 8 52 5 is_stmt 1 view .LVU422
 1802 03d2 C1D5     		bpl	.L15
  52:main0.cpp     ****     {
 1803              		.loc 8 52 32 is_stmt 0 discriminator 1 view .LVU423
 1804 03d4 3388     		ldrh	r3, [r6]
 1805 03d6 D807     		lsls	r0, r3, #31
 1806 03d8 CBD4     		bmi	.L16
  54:main0.cpp     ****       hw.PrintLine("CAP 0 touched");
 1807              		.loc 8 54 7 is_stmt 1 view .LVU424
 1808              	.LVL115:
 1809              	.LBB756:
 1810              	.LBI756:
 126:../../libs/libDaisy/src/daisy_seed.h ****     {
 1811              		.loc 1 126 17 view .LVU425
 1812              	.LBB757:
 128:../../libs/libDaisy/src/daisy_seed.h ****     }
 1813              		.loc 1 128 23 is_stmt 0 view .LVU426
 1814 03da 1F48     		ldr	r0, .L28+16
 1815 03dc FFF7FEFF 		bl	_ZN5daisy6LoggerILNS_17LoggerDestinationE1EE9PrintLineEPKcz
 1816              	.LVL116:
 128:../../libs/libDaisy/src/daisy_seed.h ****     }
 1817              		.loc 1 128 23 view .LVU427
 1818              	.LBE757:
 1819              	.LBE756:
  55:main0.cpp     ****       hw.PrintLine("%d", cap.FilteredData(0));
 1820              		.loc 8 55 7 is_stmt 1 view .LVU428
 1821              	.LBB758:
 1822              	.LBI758:
 126:../../libs/libDaisy/src/daisy_seed.h ****     {
 1823              		.loc 1 126 17 view .LVU429
 1824              	.LBB759:
 128:../../libs/libDaisy/src/daisy_seed.h ****     }
 1825              		.loc 1 128 23 is_stmt 0 view .LVU430
 1826 03e0 2048     		ldr	r0, .L28+28
 1827 03e2 FFF7FEFF 		bl	_ZN5daisy6LoggerILNS_17LoggerDestinationE1EE9PrintLineEPKcz
 1828              	.LVL117:
 128:../../libs/libDaisy/src/daisy_seed.h ****     }
 1829              		.loc 1 128 23 view .LVU431
 1830              	.LBE759:
ARM GAS  C:\Users\skipi\AppData\Local\Temp\ccdbNCKv.s 			page 59


 1831              	.LBE758:
  56:main0.cpp     ****       hw.PrintLine("-------------------------------------------------------------------------------
 1832              		.loc 8 56 7 is_stmt 1 view .LVU432
 1833              	.LBB760:
 1834              	.LBI760:
 195:../../libs/libDaisy/src/dev/mpr121.h ****     {
 1835              		.loc 7 195 14 view .LVU433
 1836              	.LBB761:
 1837              	.LBI761:
 195:../../libs/libDaisy/src/dev/mpr121.h ****     {
 1838              		.loc 7 195 14 view .LVU434
 195:../../libs/libDaisy/src/dev/mpr121.h ****     {
 1839              		.loc 7 195 14 is_stmt 0 view .LVU435
 1840 03e6 4FF0040C 		mov	ip, #4
 1841              	.LBB762:
 1842              	.LBB763:
 1843              	.LBB764:
 1844              	.LBB765:
 1845              	.LBB766:
  66:../../libs/libDaisy/src/dev/mpr121.h ****     }
 1846              		.loc 7 66 40 view .LVU436
 1847 03ea 94F82C10 		ldrb	r1, [r4, #44]	@ zero_extendqisi2
 1848 03ee 07AA     		add	r2, sp, #28
 1849 03f0 0123     		movs	r3, #1
 1850 03f2 1B48     		ldr	r0, .L28+24
 1851 03f4 0095     		str	r5, [sp]
 1852 03f6 8DF81CC0 		strb	ip, [sp, #28]
 1853              	.LVL118:
  66:../../libs/libDaisy/src/dev/mpr121.h ****     }
 1854              		.loc 7 66 40 view .LVU437
 1855              	.LBE766:
 1856              	.LBE765:
 1857              	.LBE764:
 1858              	.LBI763:
 244:../../libs/libDaisy/src/dev/mpr121.h ****     {
 1859              		.loc 7 244 14 is_stmt 1 view .LVU438
 1860              	.LBB788:
 1861              	.LBB768:
 1862              	.LBI765:
  63:../../libs/libDaisy/src/dev/mpr121.h ****     {
 1863              		.loc 7 63 10 view .LVU439
 1864              	.LBB767:
  65:../../libs/libDaisy/src/dev/mpr121.h ****                != i2c_.TransmitBlocking(config_.dev_addr, data, size, 10);
 1865              		.loc 7 65 9 view .LVU440
  66:../../libs/libDaisy/src/dev/mpr121.h ****     }
 1866              		.loc 7 66 40 is_stmt 0 view .LVU441
 1867 03fa FFF7FEFF 		bl	_ZN5daisy9I2CHandle16TransmitBlockingEtPhtm
 1868              	.LVL119:
  66:../../libs/libDaisy/src/dev/mpr121.h ****     }
 1869              		.loc 7 66 40 view .LVU442
 1870              	.LBE767:
 1871              	.LBE768:
 1872              	.LBB769:
 1873              	.LBI769:
 343:../../libs/libDaisy/src/dev/mpr121.h **** 
 1874              		.loc 7 343 10 is_stmt 1 view .LVU443
 1875              	.LBB770:
ARM GAS  C:\Users\skipi\AppData\Local\Temp\ccdbNCKv.s 			page 60


 343:../../libs/libDaisy/src/dev/mpr121.h **** 
 1876              		.loc 7 343 55 is_stmt 0 view .LVU444
 1877 03fe 94F830C0 		ldrb	ip, [r4, #48]	@ zero_extendqisi2
 1878              	.LBE770:
 1879              	.LBE769:
 1880              	.LBB773:
 1881              	.LBB774:
  73:../../libs/libDaisy/src/dev/mpr121.h ****     }
 1882              		.loc 7 73 39 view .LVU445
 1883 0402 0223     		movs	r3, #2
 1884 0404 94F82C10 		ldrb	r1, [r4, #44]	@ zero_extendqisi2
 1885 0408 0CAA     		add	r2, sp, #48
 1886              	.LBE774:
 1887              	.LBE773:
 1888              	.LBB778:
 1889              	.LBB771:
 343:../../libs/libDaisy/src/dev/mpr121.h **** 
 1890              		.loc 7 343 55 view .LVU446
 1891 040a 0028     		cmp	r0, #0
 1892 040c 18BF     		it	ne
 1893 040e 4CF0010C 		orrne	ip, ip, #1
 1894              	.LBE771:
 1895              	.LBE778:
 1896              	.LBB779:
 1897              	.LBB775:
  73:../../libs/libDaisy/src/dev/mpr121.h ****     }
 1898              		.loc 7 73 39 view .LVU447
 1899 0412 0095     		str	r5, [sp]
 1900 0414 1248     		ldr	r0, .L28+24
 1901              	.LVL120:
  73:../../libs/libDaisy/src/dev/mpr121.h ****     }
 1902              		.loc 7 73 39 view .LVU448
 1903              	.LBE775:
 1904              	.LBE779:
 1905              	.LBB780:
 1906              	.LBB772:
 343:../../libs/libDaisy/src/dev/mpr121.h **** 
 1907              		.loc 7 343 55 view .LVU449
 1908 0416 84F830C0 		strb	ip, [r4, #48]
 1909              	.LVL121:
 343:../../libs/libDaisy/src/dev/mpr121.h **** 
 1910              		.loc 7 343 55 view .LVU450
 1911              	.LBE772:
 1912              	.LBE780:
 1913              	.LBB781:
 1914              	.LBI773:
  70:../../libs/libDaisy/src/dev/mpr121.h ****     {
 1915              		.loc 7 70 10 is_stmt 1 view .LVU451
 1916              	.LBB776:
  72:../../libs/libDaisy/src/dev/mpr121.h ****                != i2c_.ReceiveBlocking(config_.dev_addr, data, size, 10);
 1917              		.loc 7 72 9 view .LVU452
  73:../../libs/libDaisy/src/dev/mpr121.h ****     }
 1918              		.loc 7 73 39 is_stmt 0 view .LVU453
 1919 041a FFF7FEFF 		bl	_ZN5daisy9I2CHandle15ReceiveBlockingEtPhtm
 1920              	.LVL122:
  73:../../libs/libDaisy/src/dev/mpr121.h ****     }
 1921              		.loc 7 73 39 view .LVU454
ARM GAS  C:\Users\skipi\AppData\Local\Temp\ccdbNCKv.s 			page 61


 1922              	.LBE776:
 1923              	.LBE781:
 1924              	.LBB782:
 1925              	.LBB783:
 343:../../libs/libDaisy/src/dev/mpr121.h **** 
 1926              		.loc 7 343 55 view .LVU455
 1927 041e 94F83030 		ldrb	r3, [r4, #48]	@ zero_extendqisi2
 1928              	.LBE783:
 1929              	.LBE782:
 1930              	.LBB785:
 1931              	.LBB777:
  73:../../libs/libDaisy/src/dev/mpr121.h ****     }
 1932              		.loc 7 73 39 view .LVU456
 1933 0422 0246     		mov	r2, r0
 1934              	.LVL123:
  73:../../libs/libDaisy/src/dev/mpr121.h ****     }
 1935              		.loc 7 73 39 view .LVU457
 1936              	.LBE777:
 1937              	.LBE785:
 1938              	.LBB786:
 1939              	.LBI782:
 343:../../libs/libDaisy/src/dev/mpr121.h **** 
 1940              		.loc 7 343 10 is_stmt 1 view .LVU458
 1941              	.LBE786:
 1942              	.LBE788:
 1943              	.LBE763:
 1944              	.LBE762:
 1945              	.LBE761:
 1946              	.LBE760:
 1947              	.LBB793:
 1948              	.LBB794:
 128:../../libs/libDaisy/src/daisy_seed.h ****     }
 1949              		.loc 1 128 23 is_stmt 0 view .LVU459
 1950 0424 BDF83010 		ldrh	r1, [sp, #48]
 1951 0428 0F48     		ldr	r0, .L28+32
 1952              	.LVL124:
 128:../../libs/libDaisy/src/daisy_seed.h ****     }
 1953              		.loc 1 128 23 view .LVU460
 1954              	.LBE794:
 1955              	.LBE793:
 1956              	.LBB796:
 1957              	.LBB792:
 1958              	.LBB791:
 1959              	.LBB790:
 1960              	.LBB789:
 1961              	.LBB787:
 1962              	.LBB784:
 343:../../libs/libDaisy/src/dev/mpr121.h **** 
 1963              		.loc 7 343 55 view .LVU461
 1964 042a 002A     		cmp	r2, #0
 1965 042c 18BF     		it	ne
 1966 042e 43F00103 		orrne	r3, r3, #1
 1967 0432 84F83030 		strb	r3, [r4, #48]
 1968              	.LVL125:
 343:../../libs/libDaisy/src/dev/mpr121.h **** 
 1969              		.loc 7 343 55 view .LVU462
 1970              	.LBE784:
ARM GAS  C:\Users\skipi\AppData\Local\Temp\ccdbNCKv.s 			page 62


 1971              	.LBE787:
 1972              	.LBE789:
 1973              	.LBE790:
 1974              	.LBE791:
 1975              	.LBE792:
 1976              	.LBE796:
 1977              	.LBB797:
 1978              	.LBI793:
 126:../../libs/libDaisy/src/daisy_seed.h ****     {
 1979              		.loc 1 126 17 is_stmt 1 view .LVU463
 1980              	.LBB795:
 128:../../libs/libDaisy/src/daisy_seed.h ****     }
 1981              		.loc 1 128 23 is_stmt 0 view .LVU464
 1982 0436 FFF7FEFF 		bl	_ZN5daisy6LoggerILNS_17LoggerDestinationE1EE9PrintLineEPKcz
 1983              	.LVL126:
 128:../../libs/libDaisy/src/daisy_seed.h ****     }
 1984              		.loc 1 128 23 view .LVU465
 1985              	.LBE795:
 1986              	.LBE797:
  57:main0.cpp     ****       
 1987              		.loc 8 57 7 is_stmt 1 view .LVU466
 1988              	.LBB798:
 1989              	.LBI798:
 126:../../libs/libDaisy/src/daisy_seed.h ****     {
 1990              		.loc 1 126 17 view .LVU467
 1991              	.LBB799:
 128:../../libs/libDaisy/src/daisy_seed.h ****     }
 1992              		.loc 1 128 23 is_stmt 0 view .LVU468
 1993 043a 0748     		ldr	r0, .L28+16
 1994 043c FFF7FEFF 		bl	_ZN5daisy6LoggerILNS_17LoggerDestinationE1EE9PrintLineEPKcz
 1995              	.LVL127:
 1996              	.LBE799:
 1997              	.LBE798:
  62:main0.cpp     ****     {
 1998              		.loc 8 62 11 view .LVU469
 1999 0440 3A88     		ldrh	r2, [r7]
 2000              	.LVL128:
  62:main0.cpp     ****     {
 2001              		.loc 8 62 5 is_stmt 1 view .LVU470
 2002 0442 D107     		lsls	r1, r2, #31
 2003 0444 95D4     		bmi	.L16
 2004 0446 87E7     		b	.L15
 2005              	.L29:
 2006              		.align	2
 2007              	.L28:
 2008 0448 00000000 		.word	.LANCHOR0
 2009 044c 20000000 		.word	.LC1
 2010 0450 00000000 		.word	.LANCHOR3
 2011 0454 00000000 		.word	.LANCHOR4
 2012 0458 30000000 		.word	.LC2
 2013 045c 98000000 		.word	.LC5
 2014 0460 18000000 		.word	.LANCHOR2+24
 2015 0464 84000000 		.word	.LC3
 2016 0468 94000000 		.word	.LC4
 2017              		.cfi_endproc
 2018              	.LFE4814:
 2020              		.section	.text.startup._GLOBAL__sub_I_mpr121ObjConf,"ax",%progbits
ARM GAS  C:\Users\skipi\AppData\Local\Temp\ccdbNCKv.s 			page 63


 2021              		.align	1
 2022              		.p2align 2,,3
 2023              		.syntax unified
 2024              		.thumb
 2025              		.thumb_func
 2026              		.fpu fpv5-d16
 2028              	_GLOBAL__sub_I_mpr121ObjConf:
 2029              	.LFB5396:
  74:main0.cpp     ****   }
  75:main0.cpp     **** }
 2030              		.loc 8 75 1 view -0
 2031              		.cfi_startproc
 2032              		@ args = 0, pretend = 0, frame = 0
 2033              		@ frame_needed = 0, uses_anonymous_args = 0
 2034              	.LBB906:
 2035              	.LBI906:
 2036              		.loc 8 75 1 view .LVU472
 2037              	.LVL129:
 2038              	.LBB907:
 2039              	.LBB908:
 2040              	.LBI908:
  99:../../libs/libDaisy/src/dev/mpr121.h ****         {
 2041              		.loc 7 99 9 view .LVU473
 2042              	.LBB909:
 2043              	.LBB910:
 2044              	.LBI910:
  34:../../libs/libDaisy/src/dev/mpr121.h ****         {
 2045              		.loc 7 34 9 view .LVU474
 2046              	.LBB911:
 2047              	.LBB912:
 2048              	.LBB913:
 2049              	.LBI913:
 2050              		.loc 10 204 15 view .LVU475
 2051              		.loc 10 204 15 is_stmt 0 view .LVU476
 2052              	.LBE913:
 2053              	.LBB914:
 2054              	.LBI914:
 2055              		.loc 10 204 15 is_stmt 1 view .LVU477
 2056              		.loc 10 204 15 is_stmt 0 view .LVU478
 2057              	.LBE914:
  36:../../libs/libDaisy/src/dev/mpr121.h ****             speed  = I2CHandle::Config::Speed::I2C_400KHZ;
 2058              		.loc 7 36 13 is_stmt 1 view .LVU479
  37:../../libs/libDaisy/src/dev/mpr121.h **** 
 2059              		.loc 7 37 13 view .LVU480
  39:../../libs/libDaisy/src/dev/mpr121.h ****             sda = Pin(PORTB, 9);
 2060              		.loc 7 39 13 view .LVU481
 2061              	.LBB915:
 2062              	.LBI915:
 201:../../libs/libDaisy/src/daisy_core.h **** 
 2063              		.loc 10 201 15 view .LVU482
 201:../../libs/libDaisy/src/daisy_core.h **** 
 2064              		.loc 10 201 15 is_stmt 0 view .LVU483
 2065              	.LBE915:
  40:../../libs/libDaisy/src/dev/mpr121.h **** 
 2066              		.loc 7 40 13 is_stmt 1 view .LVU484
 2067              	.LBB916:
 2068              	.LBI916:
ARM GAS  C:\Users\skipi\AppData\Local\Temp\ccdbNCKv.s 			page 64


 201:../../libs/libDaisy/src/daisy_core.h **** 
 2069              		.loc 10 201 15 view .LVU485
 201:../../libs/libDaisy/src/daisy_core.h **** 
 2070              		.loc 10 201 15 is_stmt 0 view .LVU486
 2071              	.LBE916:
  42:../../libs/libDaisy/src/dev/mpr121.h ****         }
 2072              		.loc 7 42 13 is_stmt 1 view .LVU487
  42:../../libs/libDaisy/src/dev/mpr121.h ****         }
 2073              		.loc 7 42 13 is_stmt 0 view .LVU488
 2074              	.LBE912:
 2075              	.LBE911:
 2076              	.LBE910:
 2077              	.LBE909:
 2078              	.LBE908:
 2079              	.LBE907:
 2080              	.LBE906:
 2081              		.loc 8 75 1 view .LVU489
 2082 0000 38B5     		push	{r3, r4, r5, lr}
 2083              		.cfi_def_cfa_offset 16
 2084              		.cfi_offset 3, -16
 2085              		.cfi_offset 4, -12
 2086              		.cfi_offset 5, -8
 2087              		.cfi_offset 14, -4
 2088              	.LBB1045:
 2089              	.LBB1043:
 2090              	.LBB926:
 2091              	.LBB927:
 2092              	.LBB928:
 2093              	.LBB929:
 2094              	.LBB930:
 2095              	.LBB931:
 2096              	.LBB932:
  36:../../libs/libDaisy/src/dev/mpr121.h ****             speed  = I2CHandle::Config::Speed::I2C_400KHZ;
 2097              		.loc 7 36 20 view .LVU490
 2098 0002 1C48     		ldr	r0, .L32
 2099              	.LBE932:
 2100              	.LBE931:
 2101              	.LBE930:
 2102              	.LBE929:
 2103              	.LBE928:
 2104              	.LBE927:
 2105              	.LBE926:
 2106              	.LBB965:
 2107              	.LBB923:
  99:../../libs/libDaisy/src/dev/mpr121.h ****         {
 2108              		.loc 7 99 9 view .LVU491
 2109 0004 5A21     		movs	r1, #90
 2110              	.LBB921:
 2111              	.LBB919:
 2112              	.LBB917:
  36:../../libs/libDaisy/src/dev/mpr121.h ****             speed  = I2CHandle::Config::Speed::I2C_400KHZ;
 2113              		.loc 7 36 20 view .LVU492
 2114 0006 1C4B     		ldr	r3, .L32+4
 2115 0008 0024     		movs	r4, #0
  37:../../libs/libDaisy/src/dev/mpr121.h **** 
 2116              		.loc 7 37 20 view .LVU493
 2117 000a 0125     		movs	r5, #1
ARM GAS  C:\Users\skipi\AppData\Local\Temp\ccdbNCKv.s 			page 65


 2118              	.LBE917:
 2119              	.LBE919:
 2120              	.LBE921:
  99:../../libs/libDaisy/src/dev/mpr121.h ****         {
 2121              		.loc 7 99 9 view .LVU494
 2122 000c 1B4A     		ldr	r2, .L32+8
 2123 000e 1961     		str	r1, [r3, #16]
 2124              	.LBE923:
 2125              	.LBE965:
 2126              	.LBB966:
 2127              	.LBB962:
  90:../../libs/libDaisy/src/dev/mpr121.h ****     ~Mpr121() {}
 2128              		.loc 7 90 5 view .LVU495
 2129 0010 0161     		str	r1, [r0, #16]
 2130 0012 C162     		str	r1, [r0, #44]
 2131              	.LBE962:
 2132              	.LBE966:
 2133              	.LBB967:
 2134              	.LBB924:
  99:../../libs/libDaisy/src/dev/mpr121.h ****         {
 2135              		.loc 7 99 9 view .LVU496
 2136 0014 40F20321 		movw	r1, #515
 2137 0018 9A60     		str	r2, [r3, #8]
 2138 001a 9982     		strh	r1, [r3, #20]	@ movhi
 2139              	.LVL130:
  99:../../libs/libDaisy/src/dev/mpr121.h ****         {
 2140              		.loc 7 99 9 view .LVU497
 2141              	.LBE924:
 2142              	.LBE967:
 2143              	.LBB968:
 2144              	.LBI926:
  90:../../libs/libDaisy/src/dev/mpr121.h ****     ~Mpr121() {}
 2145              		.loc 7 90 5 is_stmt 1 view .LVU498
 2146              	.LBB963:
 2147              	.LBB945:
 2148              	.LBI928:
  99:../../libs/libDaisy/src/dev/mpr121.h ****         {
 2149              		.loc 7 99 9 view .LVU499
 2150              	.LBB943:
 2151              	.LBB941:
 2152              	.LBI930:
  34:../../libs/libDaisy/src/dev/mpr121.h ****         {
 2153              		.loc 7 34 9 view .LVU500
 2154              	.LBB939:
 2155              	.LBB937:
 2156              	.LBB933:
 2157              	.LBI933:
 2158              		.loc 10 204 15 view .LVU501
 2159              		.loc 10 204 15 is_stmt 0 view .LVU502
 2160              	.LBE933:
 2161              	.LBB934:
 2162              	.LBI934:
 2163              		.loc 10 204 15 is_stmt 1 view .LVU503
 2164              		.loc 10 204 15 is_stmt 0 view .LVU504
 2165              	.LBE934:
  36:../../libs/libDaisy/src/dev/mpr121.h ****             speed  = I2CHandle::Config::Speed::I2C_400KHZ;
 2166              		.loc 7 36 13 is_stmt 1 view .LVU505
ARM GAS  C:\Users\skipi\AppData\Local\Temp\ccdbNCKv.s 			page 66


  37:../../libs/libDaisy/src/dev/mpr121.h **** 
 2167              		.loc 7 37 13 view .LVU506
  39:../../libs/libDaisy/src/dev/mpr121.h ****             sda = Pin(PORTB, 9);
 2168              		.loc 7 39 13 view .LVU507
 2169              	.LBB935:
 2170              	.LBI935:
 201:../../libs/libDaisy/src/daisy_core.h **** 
 2171              		.loc 10 201 15 view .LVU508
 201:../../libs/libDaisy/src/daisy_core.h **** 
 2172              		.loc 10 201 15 is_stmt 0 view .LVU509
 2173              	.LBE935:
  40:../../libs/libDaisy/src/dev/mpr121.h **** 
 2174              		.loc 7 40 13 is_stmt 1 view .LVU510
 2175              	.LBB936:
 2176              	.LBI936:
 201:../../libs/libDaisy/src/daisy_core.h **** 
 2177              		.loc 10 201 15 view .LVU511
 201:../../libs/libDaisy/src/daisy_core.h **** 
 2178              		.loc 10 201 15 is_stmt 0 view .LVU512
 2179              	.LBE936:
  42:../../libs/libDaisy/src/dev/mpr121.h ****         }
 2180              		.loc 7 42 13 is_stmt 1 view .LVU513
  42:../../libs/libDaisy/src/dev/mpr121.h ****         }
 2181              		.loc 7 42 13 is_stmt 0 view .LVU514
 2182              	.LBE937:
 2183              	.LBE939:
 2184              	.LBE941:
 2185              	.LBE943:
 2186              	.LBE945:
 2187              	.LBB946:
 2188              	.LBI946:
  20:../../libs/libDaisy/src/dev/mpr121.h ****     ~Mpr121I2CTransport() {}
 2189              		.loc 7 20 5 is_stmt 1 view .LVU515
 2190              	.LBB947:
 2191              	.LBB948:
 2192              	.LBI948:
  60:../../libs/libDaisy/src/per/i2c.h ****             Pin scl;  /**< & */
  61:../../libs/libDaisy/src/per/i2c.h ****             Pin sda;  /**< & */
  62:../../libs/libDaisy/src/per/i2c.h ****         } pin_config; /**< & */
  63:../../libs/libDaisy/src/per/i2c.h **** 
  64:../../libs/libDaisy/src/per/i2c.h ****         Speed speed; /**< & */
  65:../../libs/libDaisy/src/per/i2c.h ****         Mode  mode;  /**< & */
  66:../../libs/libDaisy/src/per/i2c.h ****         // 0x10 is chosen as a default to avoid conflicts with reserved addresses
  67:../../libs/libDaisy/src/per/i2c.h ****         uint8_t address = 0x10; /**< & */
  68:../../libs/libDaisy/src/per/i2c.h ****     };
  69:../../libs/libDaisy/src/per/i2c.h **** 
  70:../../libs/libDaisy/src/per/i2c.h ****     /** Return values for I2C functions. */
  71:../../libs/libDaisy/src/per/i2c.h ****     enum class Result
  72:../../libs/libDaisy/src/per/i2c.h ****     {
  73:../../libs/libDaisy/src/per/i2c.h ****         OK, /**< & */
  74:../../libs/libDaisy/src/per/i2c.h ****         ERR /**< & */
  75:../../libs/libDaisy/src/per/i2c.h ****     };
  76:../../libs/libDaisy/src/per/i2c.h **** 
  77:../../libs/libDaisy/src/per/i2c.h ****     enum class Direction
  78:../../libs/libDaisy/src/per/i2c.h ****     {
  79:../../libs/libDaisy/src/per/i2c.h ****         TRANSMIT, /**< & */
  80:../../libs/libDaisy/src/per/i2c.h ****         RECEIVE,  /**< & */
ARM GAS  C:\Users\skipi\AppData\Local\Temp\ccdbNCKv.s 			page 67


  81:../../libs/libDaisy/src/per/i2c.h ****     };
  82:../../libs/libDaisy/src/per/i2c.h **** 
  83:../../libs/libDaisy/src/per/i2c.h ****     I2CHandle() : pimpl_(nullptr) {}
 2193              		.loc 9 83 5 view .LVU516
 2194              		.loc 9 83 5 is_stmt 0 view .LVU517
 2195              	.LBE948:
 2196              	.LBB949:
 2197              	.LBI949:
  34:../../libs/libDaisy/src/dev/mpr121.h ****         {
 2198              		.loc 7 34 9 is_stmt 1 view .LVU518
 2199              	.LBB950:
 2200              	.LBB951:
 2201              	.LBB952:
 2202              	.LBI952:
 2203              		.loc 10 204 15 view .LVU519
 2204              		.loc 10 204 15 is_stmt 0 view .LVU520
 2205              	.LBE952:
 2206              	.LBB953:
 2207              	.LBI953:
 2208              		.loc 10 204 15 is_stmt 1 view .LVU521
 2209              		.loc 10 204 15 is_stmt 0 view .LVU522
 2210              	.LBE953:
  36:../../libs/libDaisy/src/dev/mpr121.h ****             speed  = I2CHandle::Config::Speed::I2C_400KHZ;
 2211              		.loc 7 36 13 is_stmt 1 view .LVU523
  37:../../libs/libDaisy/src/dev/mpr121.h **** 
 2212              		.loc 7 37 13 view .LVU524
  39:../../libs/libDaisy/src/dev/mpr121.h ****             sda = Pin(PORTB, 9);
 2213              		.loc 7 39 13 view .LVU525
 2214              	.LBB954:
 2215              	.LBI954:
 201:../../libs/libDaisy/src/daisy_core.h **** 
 2216              		.loc 10 201 15 view .LVU526
 201:../../libs/libDaisy/src/daisy_core.h **** 
 2217              		.loc 10 201 15 is_stmt 0 view .LVU527
 2218              	.LBE954:
  40:../../libs/libDaisy/src/dev/mpr121.h **** 
 2219              		.loc 7 40 13 is_stmt 1 view .LVU528
 2220              	.LBB955:
 2221              	.LBI955:
 201:../../libs/libDaisy/src/daisy_core.h **** 
 2222              		.loc 10 201 15 view .LVU529
 201:../../libs/libDaisy/src/daisy_core.h **** 
 2223              		.loc 10 201 15 is_stmt 0 view .LVU530
 2224              	.LBE955:
  42:../../libs/libDaisy/src/dev/mpr121.h ****         }
 2225              		.loc 7 42 13 is_stmt 1 view .LVU531
  37:../../libs/libDaisy/src/dev/mpr121.h **** 
 2226              		.loc 7 37 20 is_stmt 0 view .LVU532
 2227 001c 0562     		str	r5, [r0, #32]
 2228              	.LBE951:
 2229              	.LBE950:
 2230              	.LBE949:
 2231              	.LBE947:
 2232              	.LBE946:
  90:../../libs/libDaisy/src/dev/mpr121.h ****     ~Mpr121() {}
 2233              		.loc 7 90 5 view .LVU533
 2234 001e 8260     		str	r2, [r0, #8]
ARM GAS  C:\Users\skipi\AppData\Local\Temp\ccdbNCKv.s 			page 68


 2235 0020 4262     		str	r2, [r0, #36]
 2236 0022 4161     		str	r1, [r0, #20]
 2237              	.LBE963:
 2238              	.LBE968:
  14:main0.cpp     **** 
 2239              		.loc 8 14 18 view .LVU534
 2240 0024 164A     		ldr	r2, .L32+12
 2241 0026 1749     		ldr	r1, .L32+16
 2242              	.LBB969:
 2243              	.LBB925:
 2244              	.LBB922:
 2245              	.LBB920:
 2246              	.LBB918:
  37:../../libs/libDaisy/src/dev/mpr121.h **** 
 2247              		.loc 7 37 20 view .LVU535
 2248 0028 C3E90045 		strd	r4, r5, [r3]
 2249              	.LBE918:
 2250              	.LBE920:
 2251              	.LBE922:
 2252              	.LBE925:
 2253              	.LBE969:
 2254              	.LBB970:
 2255              	.LBB964:
 2256              	.LBB960:
 2257              	.LBB944:
 2258              	.LBB942:
 2259              	.LBB940:
 2260              	.LBB938:
 2261 002c C0E90045 		strd	r4, r5, [r0]
 2262              	.LBE938:
 2263              	.LBE940:
 2264              	.LBE942:
 2265              	.LBE944:
 2266              	.LBE960:
 2267              	.LBB961:
 2268              	.LBB959:
 2269              	.LBB958:
 2270              	.LBB957:
 2271              	.LBB956:
  36:../../libs/libDaisy/src/dev/mpr121.h ****             speed  = I2CHandle::Config::Speed::I2C_400KHZ;
 2272              		.loc 7 36 20 view .LVU536
 2273 0030 C0E90644 		strd	r4, r4, [r0, #24]
 2274              	.LBE956:
 2275              	.LBE957:
 2276              	.LBE958:
 2277              	.LBE959:
 2278              	.LBE961:
 2279              	.LBE964:
 2280              	.LBE970:
  14:main0.cpp     **** 
 2281              		.loc 8 14 18 view .LVU537
 2282 0034 FFF7FEFF 		bl	__aeabi_atexit
 2283              	.LVL131:
 2284              	.LBB971:
 2285              	.LBI971:
  21:../../libs/libDaisy/src/daisy_seed.h ****     ~DaisySeed() {}
 2286              		.loc 1 21 5 is_stmt 1 view .LVU538
ARM GAS  C:\Users\skipi\AppData\Local\Temp\ccdbNCKv.s 			page 69


 2287              	.LBB972:
 2288              	.LBB973:
 2289              	.LBI973:
 2290              		.file 11 "../../libs/libDaisy/src/per/qspi.h"
   1:../../libs/libDaisy/src/per/qspi.h **** #ifndef DSY_QSPI
   2:../../libs/libDaisy/src/per/qspi.h **** #define DSY_QSPI /**< Macro */
   3:../../libs/libDaisy/src/per/qspi.h **** 
   4:../../libs/libDaisy/src/per/qspi.h **** #ifndef UNIT_TEST // for unit tests, a dummy implementation
   5:../../libs/libDaisy/src/per/qspi.h **** 
   6:../../libs/libDaisy/src/per/qspi.h **** #include <cstdint>
   7:../../libs/libDaisy/src/per/qspi.h **** #include "daisy_core.h"
   8:../../libs/libDaisy/src/per/qspi.h **** #include "util/hal_map.h"
   9:../../libs/libDaisy/src/per/qspi.h **** 
  10:../../libs/libDaisy/src/per/qspi.h **** #define DSY_QSPI_TEXT       \
  11:../../libs/libDaisy/src/per/qspi.h ****     __attribute__((section( \
  12:../../libs/libDaisy/src/per/qspi.h ****         ".qspiflash_text"))) /**< used for reading memory in memory_mapped mode. */
  13:../../libs/libDaisy/src/per/qspi.h **** #define DSY_QSPI_DATA       \
  14:../../libs/libDaisy/src/per/qspi.h ****     __attribute__((section( \
  15:../../libs/libDaisy/src/per/qspi.h ****         ".qspiflash_data"))) /**< used for reading memory in memory_mapped mode. */
  16:../../libs/libDaisy/src/per/qspi.h **** #define DSY_QSPI_BSS        \
  17:../../libs/libDaisy/src/per/qspi.h ****     __attribute__((section( \
  18:../../libs/libDaisy/src/per/qspi.h ****         ".qspiflash_bss"))) /**< used for reading memory in memory_mapped mode. */
  19:../../libs/libDaisy/src/per/qspi.h **** 
  20:../../libs/libDaisy/src/per/qspi.h **** namespace daisy
  21:../../libs/libDaisy/src/per/qspi.h **** {
  22:../../libs/libDaisy/src/per/qspi.h **** /** @addtogroup serial
  23:../../libs/libDaisy/src/per/qspi.h **** @{
  24:../../libs/libDaisy/src/per/qspi.h **** */
  25:../../libs/libDaisy/src/per/qspi.h **** 
  26:../../libs/libDaisy/src/per/qspi.h **** /** 
  27:../../libs/libDaisy/src/per/qspi.h ****  Driver for QSPI peripheral to interface with external flash memory. \n 
  28:../../libs/libDaisy/src/per/qspi.h ****     Currently supported QSPI Devices: \n 
  29:../../libs/libDaisy/src/per/qspi.h ****     * IS25LP080D
  30:../../libs/libDaisy/src/per/qspi.h **** */
  31:../../libs/libDaisy/src/per/qspi.h **** class QSPIHandle
  32:../../libs/libDaisy/src/per/qspi.h **** {
  33:../../libs/libDaisy/src/per/qspi.h ****   public:
  34:../../libs/libDaisy/src/per/qspi.h ****     enum Result
  35:../../libs/libDaisy/src/per/qspi.h ****     {
  36:../../libs/libDaisy/src/per/qspi.h ****         OK = 0,
  37:../../libs/libDaisy/src/per/qspi.h ****         ERR
  38:../../libs/libDaisy/src/per/qspi.h ****     };
  39:../../libs/libDaisy/src/per/qspi.h **** 
  40:../../libs/libDaisy/src/per/qspi.h ****     /** Indicates the current status of the module. 
  41:../../libs/libDaisy/src/per/qspi.h ****          *  Warnings are indicated by a leading W.
  42:../../libs/libDaisy/src/per/qspi.h ****          *  Errors are indicated by a leading E and cause an immediate exit.
  43:../../libs/libDaisy/src/per/qspi.h ****          * 
  44:../../libs/libDaisy/src/per/qspi.h ****          *  \param GOOD - No errors have been reported.
  45:../../libs/libDaisy/src/per/qspi.h ****          *  \param E_HAL_ERROR - HAL code did not return HAL_OK.
  46:../../libs/libDaisy/src/per/qspi.h ****          *  \param E_SWITCHING_MODES - An error was encountered while switching QSPI peripheral mod
  47:../../libs/libDaisy/src/per/qspi.h ****          *  \param E_INVALID_MODE - QSPI should not be written to while the program is executing fr
  48:../../libs/libDaisy/src/per/qspi.h ****          */
  49:../../libs/libDaisy/src/per/qspi.h ****     enum Status
  50:../../libs/libDaisy/src/per/qspi.h ****     {
  51:../../libs/libDaisy/src/per/qspi.h ****         GOOD = 0,
  52:../../libs/libDaisy/src/per/qspi.h ****         E_HAL_ERROR,
  53:../../libs/libDaisy/src/per/qspi.h ****         E_SWITCHING_MODES,
ARM GAS  C:\Users\skipi\AppData\Local\Temp\ccdbNCKv.s 			page 70


  54:../../libs/libDaisy/src/per/qspi.h ****         E_INVALID_MODE,
  55:../../libs/libDaisy/src/per/qspi.h ****     };
  56:../../libs/libDaisy/src/per/qspi.h **** 
  57:../../libs/libDaisy/src/per/qspi.h ****     /** Configuration structure for interfacing with QSPI Driver */
  58:../../libs/libDaisy/src/per/qspi.h ****     struct Config
  59:../../libs/libDaisy/src/per/qspi.h ****     {
  60:../../libs/libDaisy/src/per/qspi.h ****         /** Flash Devices supported. (Both of these are more-or-less the same, just different sizes
  61:../../libs/libDaisy/src/per/qspi.h ****         enum Device
  62:../../libs/libDaisy/src/per/qspi.h ****         {
  63:../../libs/libDaisy/src/per/qspi.h ****             IS25LP080D,  /**< & */
  64:../../libs/libDaisy/src/per/qspi.h ****             IS25LP064A,  /**< & */
  65:../../libs/libDaisy/src/per/qspi.h ****             DEVICE_LAST, /**< & */
  66:../../libs/libDaisy/src/per/qspi.h ****         };
  67:../../libs/libDaisy/src/per/qspi.h **** 
  68:../../libs/libDaisy/src/per/qspi.h ****         /** 
  69:../../libs/libDaisy/src/per/qspi.h ****         Modes of operation.
  70:../../libs/libDaisy/src/per/qspi.h ****         Memory Mapped mode: QSPI configured so that the QSPI can be
  71:../../libs/libDaisy/src/per/qspi.h ****         read from starting address 0x90000000. Writing is not
  72:../../libs/libDaisy/src/per/qspi.h ****         possible in this mode. \n 
  73:../../libs/libDaisy/src/per/qspi.h ****         Indirect Polling mode: Device driver enabled. 
  74:../../libs/libDaisy/src/per/qspi.h ****         */
  75:../../libs/libDaisy/src/per/qspi.h ****         enum Mode
  76:../../libs/libDaisy/src/per/qspi.h ****         {
  77:../../libs/libDaisy/src/per/qspi.h ****             MEMORY_MAPPED,    /**< & */
  78:../../libs/libDaisy/src/per/qspi.h ****             INDIRECT_POLLING, /**< & */
  79:../../libs/libDaisy/src/per/qspi.h ****             MODE_LAST,
  80:../../libs/libDaisy/src/per/qspi.h ****         };
  81:../../libs/libDaisy/src/per/qspi.h **** 
  82:../../libs/libDaisy/src/per/qspi.h ****         //SCK,  CE# (active low)
  83:../../libs/libDaisy/src/per/qspi.h ****         struct
  84:../../libs/libDaisy/src/per/qspi.h ****         {
  85:../../libs/libDaisy/src/per/qspi.h ****             Pin io0; /**< & */
  86:../../libs/libDaisy/src/per/qspi.h ****             Pin io1; /**< & */
  87:../../libs/libDaisy/src/per/qspi.h ****             Pin io2; /**< & */
  88:../../libs/libDaisy/src/per/qspi.h ****             Pin io3; /**< & */
  89:../../libs/libDaisy/src/per/qspi.h ****             Pin clk; /**< & */
  90:../../libs/libDaisy/src/per/qspi.h ****             Pin ncs; /**< & */
  91:../../libs/libDaisy/src/per/qspi.h ****         } pin_config;
  92:../../libs/libDaisy/src/per/qspi.h **** 
  93:../../libs/libDaisy/src/per/qspi.h ****         Device device;
  94:../../libs/libDaisy/src/per/qspi.h ****         Mode   mode;
  95:../../libs/libDaisy/src/per/qspi.h ****     };
  96:../../libs/libDaisy/src/per/qspi.h **** 
  97:../../libs/libDaisy/src/per/qspi.h ****     /** 
  98:../../libs/libDaisy/src/per/qspi.h ****         Initializes QSPI peripheral, and Resets, and prepares memory for access.
  99:../../libs/libDaisy/src/per/qspi.h ****         \param config should be populated with the mode, device and pin_config before calling this 
 100:../../libs/libDaisy/src/per/qspi.h ****         \return Result::OK or Result::ERR
 101:../../libs/libDaisy/src/per/qspi.h ****         */
 102:../../libs/libDaisy/src/per/qspi.h ****     Result Init(const Config& config);
 103:../../libs/libDaisy/src/per/qspi.h **** 
 104:../../libs/libDaisy/src/per/qspi.h ****     /** Returns the current config. */
 105:../../libs/libDaisy/src/per/qspi.h ****     const Config& GetConfig() const;
 106:../../libs/libDaisy/src/per/qspi.h **** 
 107:../../libs/libDaisy/src/per/qspi.h ****     // Couldn't this just be called before anything else in init? That
 108:../../libs/libDaisy/src/per/qspi.h ****     // would make manually calling it unnecessary.
 109:../../libs/libDaisy/src/per/qspi.h ****     /** 
 110:../../libs/libDaisy/src/per/qspi.h ****         Deinitializes the peripheral
ARM GAS  C:\Users\skipi\AppData\Local\Temp\ccdbNCKv.s 			page 71


 111:../../libs/libDaisy/src/per/qspi.h ****         This should be called before reinitializing QSPI in a different mode.
 112:../../libs/libDaisy/src/per/qspi.h ****         \return Result::OK or Result::ERR
 113:../../libs/libDaisy/src/per/qspi.h ****         */
 114:../../libs/libDaisy/src/per/qspi.h ****     Result DeInit();
 115:../../libs/libDaisy/src/per/qspi.h **** 
 116:../../libs/libDaisy/src/per/qspi.h ****     /** 
 117:../../libs/libDaisy/src/per/qspi.h ****         Writes a single page to to the specified address on the QSPI chip.
 118:../../libs/libDaisy/src/per/qspi.h ****         For IS25LP*, page size is 256 bytes.
 119:../../libs/libDaisy/src/per/qspi.h ****         \param address Address to write to
 120:../../libs/libDaisy/src/per/qspi.h ****         \param size Buffer size
 121:../../libs/libDaisy/src/per/qspi.h ****         \param buffer Buffer to write
 122:../../libs/libDaisy/src/per/qspi.h ****         \return Result::OK or Result::ERR
 123:../../libs/libDaisy/src/per/qspi.h ****         */
 124:../../libs/libDaisy/src/per/qspi.h ****     Result WritePage(uint32_t address, uint32_t size, uint8_t* buffer);
 125:../../libs/libDaisy/src/per/qspi.h **** 
 126:../../libs/libDaisy/src/per/qspi.h ****     /** 
 127:../../libs/libDaisy/src/per/qspi.h ****         Writes data in buffer to to the QSPI. Starting at address to address+size 
 128:../../libs/libDaisy/src/per/qspi.h ****         \param address Address to write to
 129:../../libs/libDaisy/src/per/qspi.h ****         \param size Buffer size
 130:../../libs/libDaisy/src/per/qspi.h ****         \param buffer Buffer to write
 131:../../libs/libDaisy/src/per/qspi.h ****         \return Result::OK or Result::ERR
 132:../../libs/libDaisy/src/per/qspi.h ****         */
 133:../../libs/libDaisy/src/per/qspi.h ****     Result Write(uint32_t address, uint32_t size, uint8_t* buffer);
 134:../../libs/libDaisy/src/per/qspi.h **** 
 135:../../libs/libDaisy/src/per/qspi.h ****     /** 
 136:../../libs/libDaisy/src/per/qspi.h ****         Erases the area specified on the chip.
 137:../../libs/libDaisy/src/per/qspi.h ****         Erasures will happen by 4K, 32K or 64K increments.
 138:../../libs/libDaisy/src/per/qspi.h ****         Smallest erase possible is 4kB at a time. (on IS25LP*)
 139:../../libs/libDaisy/src/per/qspi.h ****         \param start_addr Address to begin erasing from
 140:../../libs/libDaisy/src/per/qspi.h ****         \param end_addr  Address to stop erasing at
 141:../../libs/libDaisy/src/per/qspi.h ****         \return Result::OK or Result::ERR
 142:../../libs/libDaisy/src/per/qspi.h ****         */
 143:../../libs/libDaisy/src/per/qspi.h ****     Result Erase(uint32_t start_addr, uint32_t end_addr);
 144:../../libs/libDaisy/src/per/qspi.h **** 
 145:../../libs/libDaisy/src/per/qspi.h ****     /**  
 146:../../libs/libDaisy/src/per/qspi.h ****          Erases a single sector of the chip.  
 147:../../libs/libDaisy/src/per/qspi.h ****         TODO: Document the size of this function. 
 148:../../libs/libDaisy/src/per/qspi.h ****         \param address Address of sector to erase
 149:../../libs/libDaisy/src/per/qspi.h ****         \return Result::OK or Result::ERR
 150:../../libs/libDaisy/src/per/qspi.h ****         */
 151:../../libs/libDaisy/src/per/qspi.h ****     Result EraseSector(uint32_t address);
 152:../../libs/libDaisy/src/per/qspi.h **** 
 153:../../libs/libDaisy/src/per/qspi.h ****     /** Returns the current class status. Useful for debugging.
 154:../../libs/libDaisy/src/per/qspi.h ****      *  \returns Status
 155:../../libs/libDaisy/src/per/qspi.h ****      */
 156:../../libs/libDaisy/src/per/qspi.h ****     Status GetStatus();
 157:../../libs/libDaisy/src/per/qspi.h **** 
 158:../../libs/libDaisy/src/per/qspi.h ****     /** Returns a pointer to the actual memory used 
 159:../../libs/libDaisy/src/per/qspi.h ****      *  The memory at this address is read-only
 160:../../libs/libDaisy/src/per/qspi.h ****      *  to write to it use the Write function.
 161:../../libs/libDaisy/src/per/qspi.h ****      * 
 162:../../libs/libDaisy/src/per/qspi.h ****      *  \param offset returns the pointer starting this 
 163:../../libs/libDaisy/src/per/qspi.h ****      *                many bytes into the memory
 164:../../libs/libDaisy/src/per/qspi.h ****     */
 165:../../libs/libDaisy/src/per/qspi.h ****     void* GetData(uint32_t offset = 0);
 166:../../libs/libDaisy/src/per/qspi.h **** 
 167:../../libs/libDaisy/src/per/qspi.h ****     QSPIHandle() : pimpl_(nullptr) {}
ARM GAS  C:\Users\skipi\AppData\Local\Temp\ccdbNCKv.s 			page 72


 2291              		.loc 11 167 5 view .LVU539
 2292              		.loc 11 167 5 is_stmt 0 view .LVU540
 2293              	.LBE973:
 2294              	.LBB976:
 2295              	.LBI976:
  58:../../libs/libDaisy/src/per/qspi.h ****     {
 2296              		.loc 11 58 12 is_stmt 1 view .LVU541
 2297              	.LBB977:
 2298              	.LBI977:
  84:../../libs/libDaisy/src/per/qspi.h ****             Pin io0; /**< & */
 2299              		.loc 11 84 9 view .LVU542
 2300              	.LBB978:
 2301              	.LBI978:
 2302              		.loc 10 204 15 view .LVU543
 2303              		.loc 10 204 15 is_stmt 0 view .LVU544
 2304              	.LBE978:
 2305              	.LBB979:
 2306              	.LBI979:
 2307              		.loc 10 204 15 is_stmt 1 view .LVU545
 2308              		.loc 10 204 15 is_stmt 0 view .LVU546
 2309              	.LBE979:
 2310              	.LBB980:
 2311              	.LBI980:
 2312              		.loc 10 204 15 is_stmt 1 view .LVU547
 2313              		.loc 10 204 15 is_stmt 0 view .LVU548
 2314              	.LBE980:
 2315              	.LBB981:
 2316              	.LBI981:
 2317              		.loc 10 204 15 is_stmt 1 view .LVU549
 2318              		.loc 10 204 15 is_stmt 0 view .LVU550
 2319              	.LBE981:
 2320              	.LBB982:
 2321              	.LBI982:
 2322              		.loc 10 204 15 is_stmt 1 view .LVU551
 2323              		.loc 10 204 15 is_stmt 0 view .LVU552
 2324              	.LBE982:
 2325              	.LBB983:
 2326              	.LBI983:
 2327              		.loc 10 204 15 is_stmt 1 view .LVU553
 2328              		.loc 10 204 15 is_stmt 0 view .LVU554
 2329              	.LBE983:
 2330              	.LBE977:
 2331              	.LBE976:
 2332              	.LBB984:
 2333              	.LBI984:
  87:../../libs/libDaisy/src/hid/audio.h ****     ~AudioHandle() {}
 2334              		.loc 6 87 5 is_stmt 1 view .LVU555
  87:../../libs/libDaisy/src/hid/audio.h ****     ~AudioHandle() {}
 2335              		.loc 6 87 5 is_stmt 0 view .LVU556
 2336              	.LBE984:
 2337              	.LBB987:
 2338              	.LBI987:
 109:../../libs/libDaisy/src/per/adc.h ****     ~AdcHandle() {}
 2339              		.loc 5 109 5 is_stmt 1 view .LVU557
 109:../../libs/libDaisy/src/per/adc.h ****     ~AdcHandle() {}
 2340              		.loc 5 109 5 is_stmt 0 view .LVU558
 2341              	.LBE987:
ARM GAS  C:\Users\skipi\AppData\Local\Temp\ccdbNCKv.s 			page 73


 2342              	.LBB988:
 2343              	.LBI988:
 2344              		.file 12 "../../libs/libDaisy/src/per/dac.h"
   1:../../libs/libDaisy/src/per/dac.h **** #pragma once
   2:../../libs/libDaisy/src/per/dac.h **** #ifndef DSY_DAC_H
   3:../../libs/libDaisy/src/per/dac.h **** #define DSY_DAC_H
   4:../../libs/libDaisy/src/per/dac.h **** #include "stm32h7xx_hal.h"
   5:../../libs/libDaisy/src/per/dac.h **** #include "daisy_core.h"
   6:../../libs/libDaisy/src/per/dac.h **** 
   7:../../libs/libDaisy/src/per/dac.h **** namespace daisy
   8:../../libs/libDaisy/src/per/dac.h **** {
   9:../../libs/libDaisy/src/per/dac.h **** /** @brief DAC handle for Built-in DAC Peripheral 
  10:../../libs/libDaisy/src/per/dac.h ****  *  @ingroup per_analog
  11:../../libs/libDaisy/src/per/dac.h ****  ** 
  12:../../libs/libDaisy/src/per/dac.h ****  ** For now only Normal Mode is supported,
  13:../../libs/libDaisy/src/per/dac.h ****  ** Sample and hold mode provides reduced power consumption, but requires a bit more setup.
  14:../../libs/libDaisy/src/per/dac.h ****  **
  15:../../libs/libDaisy/src/per/dac.h ****  ** For now connecting the DAC through other internal peripherals is also not supported.
  16:../../libs/libDaisy/src/per/dac.h ****  **
  17:../../libs/libDaisy/src/per/dac.h ****  ** Since the DAC channels have dedicated pins we don't need to pass in a pin config like with
  18:../../libs/libDaisy/src/per/dac.h ****  ** other modules. However, it is still important to not try to use the DAC pins for anything else.
  19:../../libs/libDaisy/src/per/dac.h ****  ** DAC Channel 1 is on PA4, and DAC Channel 2 is on PA5
  20:../../libs/libDaisy/src/per/dac.h ****  ***/
  21:../../libs/libDaisy/src/per/dac.h **** class DacHandle
  22:../../libs/libDaisy/src/per/dac.h **** {
  23:../../libs/libDaisy/src/per/dac.h ****   public:
  24:../../libs/libDaisy/src/per/dac.h ****     /** Return Values for the DacHandle class */
  25:../../libs/libDaisy/src/per/dac.h ****     enum class Result
  26:../../libs/libDaisy/src/per/dac.h ****     {
  27:../../libs/libDaisy/src/per/dac.h ****         OK,
  28:../../libs/libDaisy/src/per/dac.h ****         ERR,
  29:../../libs/libDaisy/src/per/dac.h ****     };
  30:../../libs/libDaisy/src/per/dac.h **** 
  31:../../libs/libDaisy/src/per/dac.h ****     /** Selects which channel(s) will be configured for use. */
  32:../../libs/libDaisy/src/per/dac.h ****     enum class Channel
  33:../../libs/libDaisy/src/per/dac.h ****     {
  34:../../libs/libDaisy/src/per/dac.h ****         ONE,
  35:../../libs/libDaisy/src/per/dac.h ****         TWO,
  36:../../libs/libDaisy/src/per/dac.h ****         BOTH,
  37:../../libs/libDaisy/src/per/dac.h ****     };
  38:../../libs/libDaisy/src/per/dac.h **** 
  39:../../libs/libDaisy/src/per/dac.h ****     /** Sets the Mode for the DAC channels.
  40:../../libs/libDaisy/src/per/dac.h ****      **
  41:../../libs/libDaisy/src/per/dac.h ****      ** Polling mode uses the blocking mode to transmit a single value at a time.
  42:../../libs/libDaisy/src/per/dac.h ****      **
  43:../../libs/libDaisy/src/per/dac.h ****      ** DMA mode uses a buffer, and periodically transmits it triggering a 
  44:../../libs/libDaisy/src/per/dac.h ****      ** callback to fill the buffer when it is ready for more samples.
  45:../../libs/libDaisy/src/per/dac.h ****      ***/
  46:../../libs/libDaisy/src/per/dac.h ****     enum class Mode
  47:../../libs/libDaisy/src/per/dac.h ****     {
  48:../../libs/libDaisy/src/per/dac.h ****         POLLING,
  49:../../libs/libDaisy/src/per/dac.h ****         DMA,
  50:../../libs/libDaisy/src/per/dac.h ****     };
  51:../../libs/libDaisy/src/per/dac.h **** 
  52:../../libs/libDaisy/src/per/dac.h ****     /** Sets the number of bits per sample transmitted out of the DAC.
  53:../../libs/libDaisy/src/per/dac.h ****      ** The output range will be: 0V - VDDA
  54:../../libs/libDaisy/src/per/dac.h ****      ** The resolution will be roughly: bitdepth / (VDDA - 0V) 
ARM GAS  C:\Users\skipi\AppData\Local\Temp\ccdbNCKv.s 			page 74


  55:../../libs/libDaisy/src/per/dac.h ****      ***/
  56:../../libs/libDaisy/src/per/dac.h ****     enum class BitDepth
  57:../../libs/libDaisy/src/per/dac.h ****     {
  58:../../libs/libDaisy/src/per/dac.h ****         BITS_8,
  59:../../libs/libDaisy/src/per/dac.h ****         BITS_12
  60:../../libs/libDaisy/src/per/dac.h ****     };
  61:../../libs/libDaisy/src/per/dac.h **** 
  62:../../libs/libDaisy/src/per/dac.h ****     /** Sets whether the DAC output is buffered for higher drive ability. */
  63:../../libs/libDaisy/src/per/dac.h ****     enum class BufferState
  64:../../libs/libDaisy/src/per/dac.h ****     {
  65:../../libs/libDaisy/src/per/dac.h ****         ENABLED,
  66:../../libs/libDaisy/src/per/dac.h ****         DISABLED,
  67:../../libs/libDaisy/src/per/dac.h ****     };
  68:../../libs/libDaisy/src/per/dac.h **** 
  69:../../libs/libDaisy/src/per/dac.h ****     /** Configuration structure for initializing the DAC structure. */
  70:../../libs/libDaisy/src/per/dac.h ****     struct Config
  71:../../libs/libDaisy/src/per/dac.h ****     {
  72:../../libs/libDaisy/src/per/dac.h ****         /** Target Samplerate in Hz used to configure the internal 
  73:../../libs/libDaisy/src/per/dac.h ****          ** timebase for DMA mode. Does nothing in POLLING mode.
  74:../../libs/libDaisy/src/per/dac.h ****          ** If the value is 0 at Init time this will default to 48000Hz 
  75:../../libs/libDaisy/src/per/dac.h ****          ** otherwise the driver will attempt meet the target.*/
  76:../../libs/libDaisy/src/per/dac.h ****         uint32_t target_samplerate;
  77:../../libs/libDaisy/src/per/dac.h **** 
  78:../../libs/libDaisy/src/per/dac.h ****         Channel     chn;
  79:../../libs/libDaisy/src/per/dac.h ****         Mode        mode;
  80:../../libs/libDaisy/src/per/dac.h ****         BitDepth    bitdepth;
  81:../../libs/libDaisy/src/per/dac.h ****         BufferState buff_state;
  82:../../libs/libDaisy/src/per/dac.h ****     };
  83:../../libs/libDaisy/src/per/dac.h **** 
  84:../../libs/libDaisy/src/per/dac.h ****     DacHandle() : pimpl_(nullptr) {}
 2345              		.loc 12 84 5 is_stmt 1 view .LVU559
 2346              		.loc 12 84 5 is_stmt 0 view .LVU560
 2347              	.LBE988:
 2348              	.LBB991:
 2349              	.LBI991:
  40:../../libs/libDaisy/src/hid/usb.h **** 
 2350              		.loc 4 40 5 is_stmt 1 view .LVU561
  40:../../libs/libDaisy/src/hid/usb.h **** 
 2351              		.loc 4 40 5 is_stmt 0 view .LVU562
 2352              	.LBE991:
 2353              	.LBB992:
 2354              	.LBI992:
 2355              		.file 13 "../../libs/libDaisy/src/per/gpio.h"
   1:../../libs/libDaisy/src/per/gpio.h **** #pragma once
   2:../../libs/libDaisy/src/per/gpio.h **** #ifndef DSY_GPIO_H
   3:../../libs/libDaisy/src/per/gpio.h **** #define DSY_GPIO_H
   4:../../libs/libDaisy/src/per/gpio.h **** #include "daisy_core.h"
   5:../../libs/libDaisy/src/per/gpio.h **** 
   6:../../libs/libDaisy/src/per/gpio.h **** #ifdef __cplusplus
   7:../../libs/libDaisy/src/per/gpio.h **** 
   8:../../libs/libDaisy/src/per/gpio.h **** namespace daisy
   9:../../libs/libDaisy/src/per/gpio.h **** {
  10:../../libs/libDaisy/src/per/gpio.h **** /** @brief General Purpose I/O control 
  11:../../libs/libDaisy/src/per/gpio.h ****  *  @details peripheral control over a single GPIO
  12:../../libs/libDaisy/src/per/gpio.h ****  *  @ingroup peripheral
  13:../../libs/libDaisy/src/per/gpio.h ****  *   
  14:../../libs/libDaisy/src/per/gpio.h ****  *  Button Input (with internal Pullup resistor)
ARM GAS  C:\Users\skipi\AppData\Local\Temp\ccdbNCKv.s 			page 75


  15:../../libs/libDaisy/src/per/gpio.h ****  *  @include GPIO_Input.cpp 
  16:../../libs/libDaisy/src/per/gpio.h ****  * 
  17:../../libs/libDaisy/src/per/gpio.h ****  *  Output Example (perfect for blinking an LED)
  18:../../libs/libDaisy/src/per/gpio.h ****  *  @include GPIO_Output.cpp
  19:../../libs/libDaisy/src/per/gpio.h ****  * 
  20:../../libs/libDaisy/src/per/gpio.h **** */
  21:../../libs/libDaisy/src/per/gpio.h **** class GPIO
  22:../../libs/libDaisy/src/per/gpio.h **** {
  23:../../libs/libDaisy/src/per/gpio.h ****   public:
  24:../../libs/libDaisy/src/per/gpio.h ****     /** @brief Mode of operation for the specified GPIO */
  25:../../libs/libDaisy/src/per/gpio.h ****     enum class Mode
  26:../../libs/libDaisy/src/per/gpio.h ****     {
  27:../../libs/libDaisy/src/per/gpio.h ****         INPUT,      /**< Input for reading state of pin */
  28:../../libs/libDaisy/src/per/gpio.h ****         OUTPUT,     /**< Output w/ push-pull configuration */
  29:../../libs/libDaisy/src/per/gpio.h ****         OPEN_DRAIN, /**< Output w/ open-drain configuration */
  30:../../libs/libDaisy/src/per/gpio.h ****         ANALOG,     /**< Analog for connection to ADC or DAC peripheral */
  31:../../libs/libDaisy/src/per/gpio.h ****     };
  32:../../libs/libDaisy/src/per/gpio.h **** 
  33:../../libs/libDaisy/src/per/gpio.h ****     /** @brief Configures whether an internal Pull up or Pull down resistor is used. 
  34:../../libs/libDaisy/src/per/gpio.h ****      *  
  35:../../libs/libDaisy/src/per/gpio.h ****      * Internal Pull up/down resistors are typically 40k ohms, and will be between
  36:../../libs/libDaisy/src/per/gpio.h ****      * 30k and 50k
  37:../../libs/libDaisy/src/per/gpio.h ****      * 
  38:../../libs/libDaisy/src/per/gpio.h ****      * When the Pin is configured in Analog mode, the pull up/down resistors are
  39:../../libs/libDaisy/src/per/gpio.h ****      * disabled by hardware. 
  40:../../libs/libDaisy/src/per/gpio.h ****      */
  41:../../libs/libDaisy/src/per/gpio.h ****     enum class Pull
  42:../../libs/libDaisy/src/per/gpio.h ****     {
  43:../../libs/libDaisy/src/per/gpio.h ****         NOPULL,   /**< No pull up resistor */
  44:../../libs/libDaisy/src/per/gpio.h ****         PULLUP,   /**< Internal pull up enabled */
  45:../../libs/libDaisy/src/per/gpio.h ****         PULLDOWN, /**< Internal pull down enabled*/
  46:../../libs/libDaisy/src/per/gpio.h ****     };
  47:../../libs/libDaisy/src/per/gpio.h **** 
  48:../../libs/libDaisy/src/per/gpio.h ****     /** @brief Output speed controls the drive strength, and slew rate of the pin */
  49:../../libs/libDaisy/src/per/gpio.h ****     enum class Speed
  50:../../libs/libDaisy/src/per/gpio.h ****     {
  51:../../libs/libDaisy/src/per/gpio.h ****         LOW,
  52:../../libs/libDaisy/src/per/gpio.h ****         MEDIUM,
  53:../../libs/libDaisy/src/per/gpio.h ****         HIGH,
  54:../../libs/libDaisy/src/per/gpio.h ****         VERY_HIGH,
  55:../../libs/libDaisy/src/per/gpio.h ****     };
  56:../../libs/libDaisy/src/per/gpio.h **** 
  57:../../libs/libDaisy/src/per/gpio.h ****     /** @brief Configuration for a given GPIO */
  58:../../libs/libDaisy/src/per/gpio.h ****     struct Config
  59:../../libs/libDaisy/src/per/gpio.h ****     {
  60:../../libs/libDaisy/src/per/gpio.h ****         Pin   pin;
  61:../../libs/libDaisy/src/per/gpio.h ****         Mode  mode;
  62:../../libs/libDaisy/src/per/gpio.h ****         Pull  pull;
  63:../../libs/libDaisy/src/per/gpio.h ****         Speed speed;
  64:../../libs/libDaisy/src/per/gpio.h **** 
  65:../../libs/libDaisy/src/per/gpio.h ****         /** Constructor with no arguments will prepare an invalid GPIO set as
  66:../../libs/libDaisy/src/per/gpio.h ****          *  an input, with no pullup. 
  67:../../libs/libDaisy/src/per/gpio.h ****          */
  68:../../libs/libDaisy/src/per/gpio.h ****         Config()
  69:../../libs/libDaisy/src/per/gpio.h ****         : pin(), mode(Mode::INPUT), pull(Pull::NOPULL), speed(Speed::LOW)
  70:../../libs/libDaisy/src/per/gpio.h ****         {
  71:../../libs/libDaisy/src/per/gpio.h ****         }
ARM GAS  C:\Users\skipi\AppData\Local\Temp\ccdbNCKv.s 			page 76


  72:../../libs/libDaisy/src/per/gpio.h ****     };
  73:../../libs/libDaisy/src/per/gpio.h **** 
  74:../../libs/libDaisy/src/per/gpio.h ****     GPIO() {}
 2356              		.loc 13 74 5 is_stmt 1 view .LVU563
 2357              	.LBB993:
 2358              	.LBB994:
 2359              	.LBI994:
  68:../../libs/libDaisy/src/per/gpio.h ****         : pin(), mode(Mode::INPUT), pull(Pull::NOPULL), speed(Speed::LOW)
 2360              		.loc 13 68 9 view .LVU564
 2361              	.LBB995:
 2362              	.LBB996:
 2363              	.LBB997:
 2364              	.LBI997:
 2365              		.loc 10 204 15 view .LVU565
 2366              		.loc 10 204 15 is_stmt 0 view .LVU566
 2367              	.LBE997:
 2368              	.LBE996:
 2369              	.LBE995:
 2370              	.LBE994:
 2371              	.LBE993:
 2372              	.LBE992:
 2373              	.LBB1002:
 2374              	.LBI1002:
 2375              		.loc 13 74 5 is_stmt 1 view .LVU567
 2376              	.LBB1003:
 2377              	.LBB1004:
 2378              	.LBI1004:
  68:../../libs/libDaisy/src/per/gpio.h ****         : pin(), mode(Mode::INPUT), pull(Pull::NOPULL), speed(Speed::LOW)
 2379              		.loc 13 68 9 view .LVU568
 2380              	.LBB1005:
 2381              	.LBB1006:
 2382              	.LBB1007:
 2383              	.LBI1007:
 2384              		.loc 10 204 15 view .LVU569
 2385              		.loc 10 204 15 is_stmt 0 view .LVU570
 2386              	.LBE1007:
 2387              	.LBE1006:
 2388              	.LBE1005:
 2389              	.LBE1004:
 2390              	.LBE1003:
 2391              	.LBE1002:
 2392              	.LBB1012:
 2393              	.LBI1012:
  96:../../libs/libDaisy/src/sys/system.h ****     ~System() {}
 2394              		.loc 3 96 5 is_stmt 1 view .LVU571
  96:../../libs/libDaisy/src/sys/system.h ****     ~System() {}
 2395              		.loc 3 96 5 is_stmt 0 view .LVU572
 2396              	.LBE1012:
 2397              	.LBB1013:
 2398              	.LBI1013:
  20:../../libs/libDaisy/src/dev/codec_ak4556.h ****     ~Ak4556() {}
 2399              		.loc 2 20 5 is_stmt 1 view .LVU573
 2400              	.LBB1014:
 2401              	.LBI1014:
 2402              		.loc 13 74 5 view .LVU574
 2403              	.LBB1015:
 2404              	.LBB1016:
ARM GAS  C:\Users\skipi\AppData\Local\Temp\ccdbNCKv.s 			page 77


 2405              	.LBI1016:
  68:../../libs/libDaisy/src/per/gpio.h ****         : pin(), mode(Mode::INPUT), pull(Pull::NOPULL), speed(Speed::LOW)
 2406              		.loc 13 68 9 view .LVU575
 2407              	.LBB1017:
 2408              	.LBB1018:
 2409              	.LBB1019:
 2410              	.LBI1019:
 2411              		.loc 10 204 15 view .LVU576
 2412              		.loc 10 204 15 is_stmt 0 view .LVU577
 2413              	.LBE1019:
 2414              	.LBE1018:
 2415              	.LBE1017:
 2416              	.LBE1016:
 2417              	.LBE1015:
 2418              	.LBE1014:
 2419              	.LBE1013:
 2420              	.LBB1030:
 2421              	.LBI1030:
 2422              		.file 14 "../../libs/libDaisy/src/per/sai.h"
   1:../../libs/libDaisy/src/per/sai.h **** #pragma once
   2:../../libs/libDaisy/src/per/sai.h **** #ifndef DSY_SAI_H
   3:../../libs/libDaisy/src/per/sai.h **** #define DSY_SAI_H
   4:../../libs/libDaisy/src/per/sai.h **** 
   5:../../libs/libDaisy/src/per/sai.h **** #include "util/hal_map.h"
   6:../../libs/libDaisy/src/per/sai.h **** #include "daisy_core.h"
   7:../../libs/libDaisy/src/per/sai.h **** 
   8:../../libs/libDaisy/src/per/sai.h **** namespace daisy
   9:../../libs/libDaisy/src/per/sai.h **** {
  10:../../libs/libDaisy/src/per/sai.h **** /** 
  11:../../libs/libDaisy/src/per/sai.h ****  * Support for I2S Audio Protocol with different bit-depth, samplerate options
  12:../../libs/libDaisy/src/per/sai.h ****  * Allows for master or slave, as well as freedom of selecting direction, 
  13:../../libs/libDaisy/src/per/sai.h ****  * and other behavior for each peripheral, and block.
  14:../../libs/libDaisy/src/per/sai.h ****  * 
  15:../../libs/libDaisy/src/per/sai.h ****  * DMA Transfer commands must use buffers located within non-cached memory or use cache maintenance
  16:../../libs/libDaisy/src/per/sai.h ****  * To declare an unitialized global element in the DMA memory section:
  17:../../libs/libDaisy/src/per/sai.h ****  *    int32_t DSY_DMA_BUFFER_SECTOR my_buffer[96];
  18:../../libs/libDaisy/src/per/sai.h ****  *
  19:../../libs/libDaisy/src/per/sai.h ****  * Callback functions will be called once per half of the buffer. In the above example, 
  20:../../libs/libDaisy/src/per/sai.h ****  * the callback function would be called once for every 48 samples.
  21:../../libs/libDaisy/src/per/sai.h ****  * 
  22:../../libs/libDaisy/src/per/sai.h ****  * Use SAI Handle like this:
  23:../../libs/libDaisy/src/per/sai.h ****  * 
  24:../../libs/libDaisy/src/per/sai.h ****  *  SaiHandle::Config sai_config;
  25:../../libs/libDaisy/src/per/sai.h ****  *  sai_config.periph          = SaiHandle::Config::Peripheral::SAI_1;
  26:../../libs/libDaisy/src/per/sai.h ****  *  sai_config.sr              = SaiHandle::Config::SampleRate::SAI_48KHZ;
  27:../../libs/libDaisy/src/per/sai.h ****  *  sai_config.bit_depth       = SaiHandle::Config::BitDepth::SAI_24BIT;
  28:../../libs/libDaisy/src/per/sai.h ****  *  sai_config.a_sync          = SaiHandle::Config::Sync::MASTER;
  29:../../libs/libDaisy/src/per/sai.h ****  *  sai_config.b_sync          = SaiHandle::Config::Sync::SLAVE;
  30:../../libs/libDaisy/src/per/sai.h ****  *  sai_config.a_dir           = SaiHandle::Config::Direction::RECEIVE;
  31:../../libs/libDaisy/src/per/sai.h ****  *  sai_config.b_dir           = SaiHandle::Config::Direction::TRANSMIT;
  32:../../libs/libDaisy/src/per/sai.h ****  *  sai_config.pin_config.fs   = {DSY_GPIOE, 4};
  33:../../libs/libDaisy/src/per/sai.h ****  *  sai_config.pin_config.mclk = {DSY_GPIOE, 2};
  34:../../libs/libDaisy/src/per/sai.h ****  *  sai_config.pin_config.sck  = {DSY_GPIOE, 5};
  35:../../libs/libDaisy/src/per/sai.h ****  *  sai_config.pin_config.sa   = {DSY_GPIOE, 6};
  36:../../libs/libDaisy/src/per/sai.h ****  *  sai_config.pin_config.sb   = {DSY_GPIOE, 3};
  37:../../libs/libDaisy/src/per/sai.h ****  *  // Then Initialize
  38:../../libs/libDaisy/src/per/sai.h ****  *  SaiHandle sai;
ARM GAS  C:\Users\skipi\AppData\Local\Temp\ccdbNCKv.s 			page 78


  39:../../libs/libDaisy/src/per/sai.h ****  *  sai.Init(sai_config);
  40:../../libs/libDaisy/src/per/sai.h ****  *  // Now you can use it:
  41:../../libs/libDaisy/src/per/sai.h ****  *  sai.StartDma(. . .);
  42:../../libs/libDaisy/src/per/sai.h ****  */
  43:../../libs/libDaisy/src/per/sai.h **** class SaiHandle
  44:../../libs/libDaisy/src/per/sai.h **** {
  45:../../libs/libDaisy/src/per/sai.h ****   public:
  46:../../libs/libDaisy/src/per/sai.h ****     /** Contains settings for initialising an SAI Interface */
  47:../../libs/libDaisy/src/per/sai.h ****     struct Config
  48:../../libs/libDaisy/src/per/sai.h ****     {
  49:../../libs/libDaisy/src/per/sai.h ****         /** Specifies the internal peripheral to use (mapped to different hardware pins) */
  50:../../libs/libDaisy/src/per/sai.h ****         enum class Peripheral
  51:../../libs/libDaisy/src/per/sai.h ****         {
  52:../../libs/libDaisy/src/per/sai.h ****             SAI_1,
  53:../../libs/libDaisy/src/per/sai.h ****             SAI_2,
  54:../../libs/libDaisy/src/per/sai.h ****         };
  55:../../libs/libDaisy/src/per/sai.h **** 
  56:../../libs/libDaisy/src/per/sai.h ****         /** Rate at which samples will be streaming to/from the device. */
  57:../../libs/libDaisy/src/per/sai.h ****         enum class SampleRate
  58:../../libs/libDaisy/src/per/sai.h ****         {
  59:../../libs/libDaisy/src/per/sai.h ****             SAI_8KHZ,
  60:../../libs/libDaisy/src/per/sai.h ****             SAI_16KHZ,
  61:../../libs/libDaisy/src/per/sai.h ****             SAI_32KHZ,
  62:../../libs/libDaisy/src/per/sai.h ****             SAI_48KHZ,
  63:../../libs/libDaisy/src/per/sai.h ****             SAI_96KHZ,
  64:../../libs/libDaisy/src/per/sai.h ****         };
  65:../../libs/libDaisy/src/per/sai.h **** 
  66:../../libs/libDaisy/src/per/sai.h ****         /** Bit Depth that the hardware expects to be transferred to/from the device. */
  67:../../libs/libDaisy/src/per/sai.h ****         enum class BitDepth
  68:../../libs/libDaisy/src/per/sai.h ****         {
  69:../../libs/libDaisy/src/per/sai.h ****             SAI_16BIT,
  70:../../libs/libDaisy/src/per/sai.h ****             SAI_24BIT,
  71:../../libs/libDaisy/src/per/sai.h ****             SAI_32BIT,
  72:../../libs/libDaisy/src/per/sai.h ****         };
  73:../../libs/libDaisy/src/per/sai.h **** 
  74:../../libs/libDaisy/src/per/sai.h ****         /** Specifies whether a particular block is the master or the slave 
  75:../../libs/libDaisy/src/per/sai.h ****          ** If both are set to slave, no MCLK signal will be used, and it is
  76:../../libs/libDaisy/src/per/sai.h ****          ** expected that the codec will have its own xtal.
  77:../../libs/libDaisy/src/per/sai.h ****          */
  78:../../libs/libDaisy/src/per/sai.h ****         enum class Sync
  79:../../libs/libDaisy/src/per/sai.h ****         {
  80:../../libs/libDaisy/src/per/sai.h ****             MASTER,
  81:../../libs/libDaisy/src/per/sai.h ****             SLAVE,
  82:../../libs/libDaisy/src/per/sai.h ****         };
  83:../../libs/libDaisy/src/per/sai.h **** 
  84:../../libs/libDaisy/src/per/sai.h ****         /** Specifies the direction for each peripheral block. */
  85:../../libs/libDaisy/src/per/sai.h ****         enum class Direction
  86:../../libs/libDaisy/src/per/sai.h ****         {
  87:../../libs/libDaisy/src/per/sai.h ****             TRANSMIT,
  88:../../libs/libDaisy/src/per/sai.h ****             RECEIVE,
  89:../../libs/libDaisy/src/per/sai.h ****         };
  90:../../libs/libDaisy/src/per/sai.h **** 
  91:../../libs/libDaisy/src/per/sai.h ****         Peripheral periph;
  92:../../libs/libDaisy/src/per/sai.h ****         struct
  93:../../libs/libDaisy/src/per/sai.h ****         {
  94:../../libs/libDaisy/src/per/sai.h ****             Pin mclk, fs, sck, sa, sb;
  95:../../libs/libDaisy/src/per/sai.h ****         } pin_config;
ARM GAS  C:\Users\skipi\AppData\Local\Temp\ccdbNCKv.s 			page 79


  96:../../libs/libDaisy/src/per/sai.h ****         SampleRate sr;
  97:../../libs/libDaisy/src/per/sai.h ****         BitDepth   bit_depth;
  98:../../libs/libDaisy/src/per/sai.h ****         Sync       a_sync, b_sync;
  99:../../libs/libDaisy/src/per/sai.h ****         Direction  a_dir, b_dir;
 100:../../libs/libDaisy/src/per/sai.h ****     };
 101:../../libs/libDaisy/src/per/sai.h **** 
 102:../../libs/libDaisy/src/per/sai.h ****     /** Return values for SAI functions */
 103:../../libs/libDaisy/src/per/sai.h ****     enum class Result
 104:../../libs/libDaisy/src/per/sai.h ****     {
 105:../../libs/libDaisy/src/per/sai.h ****         OK,
 106:../../libs/libDaisy/src/per/sai.h ****         ERR,
 107:../../libs/libDaisy/src/per/sai.h ****     };
 108:../../libs/libDaisy/src/per/sai.h **** 
 109:../../libs/libDaisy/src/per/sai.h ****     SaiHandle() : pimpl_(nullptr) {}
 2423              		.loc 14 109 5 is_stmt 1 view .LVU578
 2424              	.LBE1030:
 2425              	.LBB1033:
 2426              	.LBB974:
 2427              	.LBB975:
 2428              		.loc 11 167 34 is_stmt 0 view .LVU579
 2429 0038 1348     		ldr	r0, .L32+20
 2430              	.LBE975:
 2431              	.LBE974:
 2432              	.LBE1033:
  21:../../libs/libDaisy/src/daisy_seed.h ****     ~DaisySeed() {}
 2433              		.loc 1 21 17 view .LVU580
 2434 003a 4FF60B73 		movw	r3, #65291
 2435 003e 6FF0F411 		mvn	r1, #15991028
 2436              	.LBB1034:
 2437              	.LBB985:
 2438              	.LBB986:
  87:../../libs/libDaisy/src/hid/audio.h ****     ~AudioHandle() {}
 2439              		.loc 6 87 35 view .LVU581
 2440 0042 4461     		str	r4, [r0, #20]
 2441              	.LBE986:
 2442              	.LBE985:
 2443              	.LBE1034:
 2444              	.LBB1035:
 2445              	.LBB989:
 2446              	.LBB990:
 2447              		.loc 12 84 33 view .LVU582
 2448 0044 0462     		str	r4, [r0, #32]
 2449              	.LBE990:
 2450              	.LBE989:
 2451              	.LBE1035:
  21:../../libs/libDaisy/src/daisy_seed.h ****     ~DaisySeed() {}
 2452              		.loc 1 21 17 view .LVU583
 2453 0046 8365     		str	r3, [r0, #88]
 2454              	.LBB1036:
 2455              	.LBB1028:
 2456              	.LBB1026:
 2457              	.LBB1024:
 2458              	.LBB1022:
 2459              	.LBB1020:
  69:../../libs/libDaisy/src/per/gpio.h ****         {
 2460              		.loc 13 69 73 view .LVU584
 2461 0048 4466     		str	r4, [r0, #100]
ARM GAS  C:\Users\skipi\AppData\Local\Temp\ccdbNCKv.s 			page 80


 2462              	.LBE1020:
 2463              	.LBE1022:
 2464              	.LBE1024:
 2465              	.LBE1026:
 2466              	.LBE1028:
 2467              	.LBE1036:
 2468              	.LBB1037:
 2469              	.LBB1031:
 2470              	.LBB1032:
 2471              		.loc 14 109 33 view .LVU585
 2472 004a 0467     		str	r4, [r0, #112]
 2473              	.LVL132:
 2474              		.loc 14 109 33 view .LVU586
 2475              	.LBE1032:
 2476              	.LBE1031:
 2477              	.LBE1037:
 2478              	.LBE972:
 2479              	.LBE971:
  16:main0.cpp     **** 
 2480              		.loc 8 16 11 view .LVU587
 2481 004c 0C4A     		ldr	r2, .L32+12
 2482              	.LBB1042:
 2483              	.LBB1041:
  21:../../libs/libDaisy/src/daisy_seed.h ****     ~DaisySeed() {}
 2484              		.loc 1 21 17 view .LVU588
 2485 004e C0E90041 		strd	r4, r1, [r0]
 2486 0052 C0E90211 		strd	r1, r1, [r0, #8]
 2487              	.LBB1038:
 2488              	.LBB1001:
 2489              	.LBB1000:
 2490              	.LBB999:
 2491              	.LBB998:
  69:../../libs/libDaisy/src/per/gpio.h ****         {
 2492              		.loc 13 69 73 view .LVU589
 2493 0056 C0E90A34 		strd	r3, r4, [r0, #40]
 2494 005a C0E90C44 		strd	r4, r4, [r0, #48]
 2495              	.LBE998:
 2496              	.LBE999:
 2497              	.LBE1000:
 2498              	.LBE1001:
 2499              	.LBE1038:
 2500              	.LBB1039:
 2501              	.LBB1011:
 2502              	.LBB1010:
 2503              	.LBB1009:
 2504              	.LBB1008:
 2505 005e C0E90F34 		strd	r3, r4, [r0, #60]
 2506 0062 C0E91144 		strd	r4, r4, [r0, #68]
 2507              	.LBE1008:
 2508              	.LBE1009:
 2509              	.LBE1010:
 2510              	.LBE1011:
 2511              	.LBE1039:
 2512              	.LBB1040:
 2513              	.LBB1029:
 2514              	.LBB1027:
 2515              	.LBB1025:
ARM GAS  C:\Users\skipi\AppData\Local\Temp\ccdbNCKv.s 			page 81


 2516              	.LBB1023:
 2517              	.LBB1021:
 2518 0066 C0E91744 		strd	r4, r4, [r0, #92]
 2519              	.LBE1021:
 2520              	.LBE1023:
 2521              	.LBE1025:
 2522              	.LBE1027:
 2523              	.LBE1029:
 2524              	.LBE1040:
 2525              	.LBE1041:
 2526              	.LBE1042:
  16:main0.cpp     **** 
 2527              		.loc 8 16 11 view .LVU590
 2528 006a 0849     		ldr	r1, .L32+24
 2529              	.LBE1043:
 2530              	.LBE1045:
 2531              		.loc 8 75 1 view .LVU591
 2532 006c BDE83840 		pop	{r3, r4, r5, lr}
 2533              		.cfi_restore 14
 2534              		.cfi_restore 5
 2535              		.cfi_restore 4
 2536              		.cfi_restore 3
 2537              		.cfi_def_cfa_offset 0
 2538              	.LBB1046:
 2539              	.LBB1044:
  16:main0.cpp     **** 
 2540              		.loc 8 16 11 view .LVU592
 2541 0070 FFF7FEBF 		b	__aeabi_atexit
 2542              	.LVL133:
 2543              	.L33:
 2544              		.align	2
 2545              	.L32:
 2546 0074 00000000 		.word	.LANCHOR2
 2547 0078 00000000 		.word	.LANCHOR1
 2548 007c 01080109 		.word	151062529
 2549 0080 00000000 		.word	__dso_handle
 2550 0084 00000000 		.word	_ZN5daisy6Mpr121INS_18Mpr121I2CTransportEED1Ev
 2551 0088 00000000 		.word	.LANCHOR0
 2552 008c 00000000 		.word	_ZN5daisy9DaisySeedD1Ev
 2553              	.LBE1044:
 2554              	.LBE1046:
 2555              		.cfi_endproc
 2556              	.LFE5396:
 2558              		.section	.init_array,"aw",%init_array
 2559              		.align	2
 2560 0000 00000000 		.word	_GLOBAL__sub_I_mpr121ObjConf(target1)
 2561              		.global	currtouched
 2562              		.global	lasttouched
 2563              		.global	hw
 2564              		.global	cap
 2565              		.global	mpr121ObjConf
 2566              		.section	.bss.cap,"aw",%nobits
 2567              		.align	2
 2568              		.set	.LANCHOR2,. + 0
 2571              	cap:
 2572 0000 00000000 		.space	52
 2572      00000000 
ARM GAS  C:\Users\skipi\AppData\Local\Temp\ccdbNCKv.s 			page 82


 2572      00000000 
 2572      00000000 
 2572      00000000 
 2573              		.section	.bss.currtouched,"aw",%nobits
 2574              		.align	1
 2575              		.set	.LANCHOR3,. + 0
 2578              	currtouched:
 2579 0000 0000     		.space	2
 2580              		.section	.bss.hw,"aw",%nobits
 2581              		.align	2
 2582              		.set	.LANCHOR0,. + 0
 2585              	hw:
 2586 0000 00000000 		.space	116
 2586      00000000 
 2586      00000000 
 2586      00000000 
 2586      00000000 
 2587              		.section	.bss.lasttouched,"aw",%nobits
 2588              		.align	1
 2589              		.set	.LANCHOR4,. + 0
 2592              	lasttouched:
 2593 0000 0000     		.space	2
 2594              		.section	.bss.mpr121ObjConf,"aw",%nobits
 2595              		.align	2
 2596              		.set	.LANCHOR1,. + 0
 2599              	mpr121ObjConf:
 2600 0000 00000000 		.space	24
 2600      00000000 
 2600      00000000 
 2600      00000000 
 2600      00000000 
 2601              		.text
 2602              	.Letext0:
 2603              		.file 15 "c:\\program files\\daisytoolchain\\arm-none-eabi\\include\\machine\\_default_types.h"
 2604              		.file 16 "c:\\program files\\daisytoolchain\\arm-none-eabi\\include\\sys\\_stdint.h"
 2605              		.file 17 "c:\\program files\\daisytoolchain\\arm-none-eabi\\include\\stdint.h"
 2606              		.file 18 "c:\\program files\\daisytoolchain\\lib\\gcc\\arm-none-eabi\\10.2.1\\include\\stddef.h"
 2607              		.file 19 "c:\\program files\\daisytoolchain\\arm-none-eabi\\include\\c++\\10.2.1\\cmath"
 2608              		.file 20 "c:\\program files\\daisytoolchain\\arm-none-eabi\\include\\c++\\10.2.1\\bits\\std_abs.h"
 2609              		.file 21 "c:\\program files\\daisytoolchain\\arm-none-eabi\\include\\c++\\10.2.1\\cstdlib"
 2610              		.file 22 "c:\\program files\\daisytoolchain\\arm-none-eabi\\include\\c++\\10.2.1\\cstdint"
 2611              		.file 23 "c:\\program files\\daisytoolchain\\arm-none-eabi\\include\\c++\\10.2.1\\type_traits"
 2612              		.file 24 "c:\\program files\\daisytoolchain\\arm-none-eabi\\include\\c++\\10.2.1\\debug\\debug.h"
 2613              		.file 25 "c:\\program files\\daisytoolchain\\arm-none-eabi\\include\\c++\\10.2.1\\arm-none-eabi\\t
 2614              		.file 26 "c:\\program files\\daisytoolchain\\arm-none-eabi\\include\\c++\\10.2.1\\bits\\algorithmf
 2615              		.file 27 "c:\\program files\\daisytoolchain\\arm-none-eabi\\include\\c++\\10.2.1\\bits\\stl_pair.h
 2616              		.file 28 "c:\\program files\\daisytoolchain\\arm-none-eabi\\include\\c++\\10.2.1\\bits\\exception_
 2617              		.file 29 "c:\\program files\\daisytoolchain\\arm-none-eabi\\include\\c++\\10.2.1\\cstdarg"
 2618              		.file 30 "c:\\program files\\daisytoolchain\\arm-none-eabi\\include\\c++\\10.2.1\\cstdio"
 2619              		.file 31 "c:\\program files\\daisytoolchain\\arm-none-eabi\\include\\c++\\10.2.1\\cstring"
 2620              		.file 32 "c:\\program files\\daisytoolchain\\arm-none-eabi\\include\\c++\\10.2.1\\cwchar"
 2621              		.file 33 "c:\\program files\\daisytoolchain\\arm-none-eabi\\include\\c++\\10.2.1\\clocale"
 2622              		.file 34 "c:\\program files\\daisytoolchain\\arm-none-eabi\\include\\c++\\10.2.1\\bits\\basic_stri
 2623              		.file 35 "c:\\program files\\daisytoolchain\\arm-none-eabi\\include\\c++\\10.2.1\\bits\\stl_tempbu
 2624              		.file 36 "c:\\program files\\daisytoolchain\\arm-none-eabi\\include\\c++\\10.2.1\\bits\\predefined
 2625              		.file 37 "c:\\program files\\daisytoolchain\\arm-none-eabi\\include\\sys\\_types.h"
 2626              		.file 38 "c:\\program files\\daisytoolchain\\arm-none-eabi\\include\\sys\\reent.h"
ARM GAS  C:\Users\skipi\AppData\Local\Temp\ccdbNCKv.s 			page 83


 2627              		.file 39 "c:\\program files\\daisytoolchain\\arm-none-eabi\\include\\sys\\lock.h"
 2628              		.file 40 "c:\\program files\\daisytoolchain\\arm-none-eabi\\include\\math.h"
 2629              		.file 41 "c:\\program files\\daisytoolchain\\arm-none-eabi\\include\\stdlib.h"
 2630              		.file 42 "c:\\program files\\daisytoolchain\\arm-none-eabi\\include\\c++\\10.2.1\\math.h"
 2631              		.file 43 "c:\\program files\\daisytoolchain\\arm-none-eabi\\include\\c++\\10.2.1\\stdlib.h"
 2632              		.file 44 "../../libs/libDaisy/src/per/tim.h"
 2633              		.file 45 "../../libs/libDaisy/src/hid/logger_impl.h"
 2634              		.file 46 "../../libs/libDaisy/src/util/wav_format.h"
 2635              		.file 47 "../../libs/libDaisy/src/dev/sr_595.h"
 2636              		.file 48 "../../libs/libDaisy/src/dev/max11300.h"
 2637              		.file 49 "../../libs/libDaisy/src/hid/logger.h"
 2638              		.file 50 "../../libs/libDaisy/src/dev/sdram.h"
 2639              		.file 51 "c:\\program files\\daisytoolchain\\lib\\gcc\\arm-none-eabi\\10.2.1\\include\\stdarg.h"
 2640              		.file 52 "c:\\program files\\daisytoolchain\\arm-none-eabi\\include\\stdio.h"
 2641              		.file 53 "c:\\program files\\daisytoolchain\\arm-none-eabi\\include\\string.h"
 2642              		.file 54 "../../libs/DaisySP/Source/Control/adenv.h"
 2643              		.file 55 "../../libs/DaisySP/Source/Utility/dsp.h"
 2644              		.file 56 "c:\\program files\\daisytoolchain\\arm-none-eabi\\include\\wchar.h"
 2645              		.file 57 "c:\\program files\\daisytoolchain\\arm-none-eabi\\include\\locale.h"
 2646              		.file 58 "<built-in>"
ARM GAS  C:\Users\skipi\AppData\Local\Temp\ccdbNCKv.s 			page 84


DEFINED SYMBOLS
                            *ABS*:00000000 main0.cpp
C:\Users\skipi\AppData\Local\Temp\ccdbNCKv.s:17     .text._ZN5daisy9DaisySeedD2Ev:00000000 $t
C:\Users\skipi\AppData\Local\Temp\ccdbNCKv.s:26     .text._ZN5daisy9DaisySeedD2Ev:00000000 _ZN5daisy9DaisySeedD2Ev
C:\Users\skipi\AppData\Local\Temp\ccdbNCKv.s:26     .text._ZN5daisy9DaisySeedD2Ev:00000000 _ZN5daisy9DaisySeedD1Ev
C:\Users\skipi\AppData\Local\Temp\ccdbNCKv.s:73     .text._ZN5daisy6Mpr121INS_18Mpr121I2CTransportEED2Ev:00000000 $t
C:\Users\skipi\AppData\Local\Temp\ccdbNCKv.s:81     .text._ZN5daisy6Mpr121INS_18Mpr121I2CTransportEED2Ev:00000000 _ZN5daisy6Mpr121INS_18Mpr121I2CTransportEED2Ev
C:\Users\skipi\AppData\Local\Temp\ccdbNCKv.s:81     .text._ZN5daisy6Mpr121INS_18Mpr121I2CTransportEED2Ev:00000000 _ZN5daisy6Mpr121INS_18Mpr121I2CTransportEED1Ev
C:\Users\skipi\AppData\Local\Temp\ccdbNCKv.s:103    .text._ZN5daisy6Mpr121INS_18Mpr121I2CTransportEE13WriteRegisterEhh:00000000 $t
C:\Users\skipi\AppData\Local\Temp\ccdbNCKv.s:111    .text._ZN5daisy6Mpr121INS_18Mpr121I2CTransportEE13WriteRegisterEhh:00000000 _ZN5daisy6Mpr121INS_18Mpr121I2CTransportEE13WriteRegisterEhh
C:\Users\skipi\AppData\Local\Temp\ccdbNCKv.s:481    .rodata.main.str1.4:00000000 $d
C:\Users\skipi\AppData\Local\Temp\ccdbNCKv.s:501    .text.startup.main:00000000 $t
C:\Users\skipi\AppData\Local\Temp\ccdbNCKv.s:509    .text.startup.main:00000000 main
C:\Users\skipi\AppData\Local\Temp\ccdbNCKv.s:1581   .text.startup.main:0000032c $d
C:\Users\skipi\AppData\Local\Temp\ccdbNCKv.s:1589   .text.startup.main:00000340 $t
C:\Users\skipi\AppData\Local\Temp\ccdbNCKv.s:2008   .text.startup.main:00000448 $d
C:\Users\skipi\AppData\Local\Temp\ccdbNCKv.s:2021   .text.startup._GLOBAL__sub_I_mpr121ObjConf:00000000 $t
C:\Users\skipi\AppData\Local\Temp\ccdbNCKv.s:2028   .text.startup._GLOBAL__sub_I_mpr121ObjConf:00000000 _GLOBAL__sub_I_mpr121ObjConf
C:\Users\skipi\AppData\Local\Temp\ccdbNCKv.s:2546   .text.startup._GLOBAL__sub_I_mpr121ObjConf:00000074 $d
C:\Users\skipi\AppData\Local\Temp\ccdbNCKv.s:2559   .init_array:00000000 $d
C:\Users\skipi\AppData\Local\Temp\ccdbNCKv.s:2578   .bss.currtouched:00000000 currtouched
C:\Users\skipi\AppData\Local\Temp\ccdbNCKv.s:2592   .bss.lasttouched:00000000 lasttouched
C:\Users\skipi\AppData\Local\Temp\ccdbNCKv.s:2585   .bss.hw:00000000 hw
C:\Users\skipi\AppData\Local\Temp\ccdbNCKv.s:2571   .bss.cap:00000000 cap
C:\Users\skipi\AppData\Local\Temp\ccdbNCKv.s:2599   .bss.mpr121ObjConf:00000000 mpr121ObjConf
C:\Users\skipi\AppData\Local\Temp\ccdbNCKv.s:2567   .bss.cap:00000000 $d
C:\Users\skipi\AppData\Local\Temp\ccdbNCKv.s:2574   .bss.currtouched:00000000 $d
C:\Users\skipi\AppData\Local\Temp\ccdbNCKv.s:2581   .bss.hw:00000000 $d
C:\Users\skipi\AppData\Local\Temp\ccdbNCKv.s:2588   .bss.lasttouched:00000000 $d
C:\Users\skipi\AppData\Local\Temp\ccdbNCKv.s:2595   .bss.mpr121ObjConf:00000000 $d
                           .group:00000000 _ZN5daisy9DaisySeedD5Ev
                           .group:00000000 _ZN5daisy6Mpr121INS_18Mpr121I2CTransportEED5Ev

UNDEFINED SYMBOLS
_ZN5daisy9I2CHandle16TransmitBlockingEtPhtm
_ZN5daisy9I2CHandle15ReceiveBlockingEtPhtm
_ZN5daisy9DaisySeed9ConfigureEv
_ZN5daisy9DaisySeed4InitEb
_ZN5daisy9DaisySeed17SetAudioBlockSizeEj
_ZN5daisy9DaisySeed15AudioSampleRateEv
_ZN5daisy6LoggerILNS_17LoggerDestinationE1EE8StartLogEb
_ZN5daisy9I2CHandle4InitERKNS0_6ConfigE
_ZN5daisy6System5DelayEm
_ZN5daisy6LoggerILNS_17LoggerDestinationE1EE9PrintLineEPKcz
_ZN5daisy9DaisySeed6SetLedEb
_ZN5daisy9DaisySeed7DelayMsEj
__aeabi_atexit
__dso_handle
