ARM GAS  C:\Users\skipi\AppData\Local\Temp\ccYcyPVo.s 			page 1


   1              		.cpu cortex-m7
   2              		.eabi_attribute 28, 1
   3              		.eabi_attribute 20, 1
   4              		.eabi_attribute 21, 1
   5              		.eabi_attribute 23, 3
   6              		.eabi_attribute 24, 1
   7              		.eabi_attribute 25, 1
   8              		.eabi_attribute 26, 1
   9              		.eabi_attribute 30, 2
  10              		.eabi_attribute 34, 1
  11              		.eabi_attribute 18, 4
  12              		.file	"main0.cpp"
  13              		.text
  14              	.Ltext0:
  15              		.cfi_sections	.debug_frame
  16              		.section	.text._ZN5daisy9DaisySeedD2Ev,"axG",%progbits,_ZN5daisy9DaisySeedD5Ev,comdat
  17              		.align	1
  18              		.p2align 2,,3
  19              		.weak	_ZN5daisy9DaisySeedD2Ev
  20              		.arch armv7e-m
  21              		.syntax unified
  22              		.thumb
  23              		.thumb_func
  24              		.fpu fpv5-d16
  26              	_ZN5daisy9DaisySeedD2Ev:
  27              	.LVL0:
  28              	.LFB2671:
  29              		.file 1 "../../libs/libDaisy/src/daisy_seed.h"
   1:../../libs/libDaisy/src/daisy_seed.h **** #pragma once
   2:../../libs/libDaisy/src/daisy_seed.h **** #ifndef DSY_SEED_H
   3:../../libs/libDaisy/src/daisy_seed.h **** #define DSY_SEED_H
   4:../../libs/libDaisy/src/daisy_seed.h **** 
   5:../../libs/libDaisy/src/daisy_seed.h **** #include "daisy.h"
   6:../../libs/libDaisy/src/daisy_seed.h **** 
   7:../../libs/libDaisy/src/daisy_seed.h **** //Uncomment this out if you're still using the rev2 hardware
   8:../../libs/libDaisy/src/daisy_seed.h **** //#define SEED_REV2
   9:../../libs/libDaisy/src/daisy_seed.h **** 
  10:../../libs/libDaisy/src/daisy_seed.h **** namespace daisy
  11:../../libs/libDaisy/src/daisy_seed.h **** {
  12:../../libs/libDaisy/src/daisy_seed.h **** /**
  13:../../libs/libDaisy/src/daisy_seed.h ****    @brief This is the higher-level interface for the Daisy board. \n 
  14:../../libs/libDaisy/src/daisy_seed.h ****     All basic peripheral configuration/initialization is setup here. \n
  15:../../libs/libDaisy/src/daisy_seed.h **** 
  16:../../libs/libDaisy/src/daisy_seed.h ****    @ingroup boards
  17:../../libs/libDaisy/src/daisy_seed.h **** */
  18:../../libs/libDaisy/src/daisy_seed.h **** class DaisySeed
  19:../../libs/libDaisy/src/daisy_seed.h **** {
  20:../../libs/libDaisy/src/daisy_seed.h ****   public:
  21:../../libs/libDaisy/src/daisy_seed.h ****     DaisySeed() {}
  22:../../libs/libDaisy/src/daisy_seed.h ****     ~DaisySeed() {}
  30              		.loc 1 22 5 view -0
  31              		.cfi_startproc
  32              		@ args = 0, pretend = 0, frame = 0
  33              		@ frame_needed = 0, uses_anonymous_args = 0
  34              		@ link register save eliminated.
  35              	.LBB352:
  36              	.LBI352:
ARM GAS  C:\Users\skipi\AppData\Local\Temp\ccYcyPVo.s 			page 2


  37              		.file 2 "../../libs/libDaisy/src/dev/codec_ak4556.h"
   1:../../libs/libDaisy/src/dev/codec_ak4556.h **** #pragma once
   2:../../libs/libDaisy/src/dev/codec_ak4556.h **** #ifndef DSY_CODEC_AK4556_H
   3:../../libs/libDaisy/src/dev/codec_ak4556.h **** #define DSY_CODEC_AK4556_H
   4:../../libs/libDaisy/src/dev/codec_ak4556.h **** 
   5:../../libs/libDaisy/src/dev/codec_ak4556.h **** #include "daisy_core.h"
   6:../../libs/libDaisy/src/dev/codec_ak4556.h **** #include "per/gpio.h"
   7:../../libs/libDaisy/src/dev/codec_ak4556.h **** 
   8:../../libs/libDaisy/src/dev/codec_ak4556.h **** namespace daisy
   9:../../libs/libDaisy/src/dev/codec_ak4556.h **** {
  10:../../libs/libDaisy/src/dev/codec_ak4556.h **** /** @brief Ak4556 Codec support 
  11:../../libs/libDaisy/src/dev/codec_ak4556.h ****  ** @author shensley
  12:../../libs/libDaisy/src/dev/codec_ak4556.h ****  ** @addtogroup codec
  13:../../libs/libDaisy/src/dev/codec_ak4556.h ****  ** 
  14:../../libs/libDaisy/src/dev/codec_ak4556.h ****  ** I don't see any real reason to have this be more than a function, but in case we want
  15:../../libs/libDaisy/src/dev/codec_ak4556.h ****  ** to add other functions down the road I wrapped the function in a class.
  16:../../libs/libDaisy/src/dev/codec_ak4556.h ****  ***/
  17:../../libs/libDaisy/src/dev/codec_ak4556.h **** class Ak4556
  18:../../libs/libDaisy/src/dev/codec_ak4556.h **** {
  19:../../libs/libDaisy/src/dev/codec_ak4556.h ****   public:
  20:../../libs/libDaisy/src/dev/codec_ak4556.h ****     Ak4556() {}
  21:../../libs/libDaisy/src/dev/codec_ak4556.h ****     ~Ak4556() {}
  38              		.loc 2 21 5 view .LVU1
  39              		.loc 2 21 5 is_stmt 0 view .LVU2
  40              	.LBE352:
  41              	.LBB353:
  42              	.LBI353:
  43              		.file 3 "../../libs/libDaisy/src/sys/system.h"
   1:../../libs/libDaisy/src/sys/system.h **** #ifndef DSY_SYSTEM_H
   2:../../libs/libDaisy/src/sys/system.h **** #define DSY_SYSTEM_H
   3:../../libs/libDaisy/src/sys/system.h **** 
   4:../../libs/libDaisy/src/sys/system.h **** #ifndef UNIT_TEST // for unit tests, a dummy implementation is provided below
   5:../../libs/libDaisy/src/sys/system.h **** 
   6:../../libs/libDaisy/src/sys/system.h **** #include <cstdint>
   7:../../libs/libDaisy/src/sys/system.h **** #include "per/tim.h"
   8:../../libs/libDaisy/src/sys/system.h **** 
   9:../../libs/libDaisy/src/sys/system.h **** namespace daisy
  10:../../libs/libDaisy/src/sys/system.h **** {
  11:../../libs/libDaisy/src/sys/system.h **** /** A handle for interacting with the Core System.
  12:../../libs/libDaisy/src/sys/system.h ****  ** This includes the Clock tree, MPU, global DMA initialization,
  13:../../libs/libDaisy/src/sys/system.h ****  ** cache handling, and any other necessary global initiailzation
  14:../../libs/libDaisy/src/sys/system.h ****  **
  15:../../libs/libDaisy/src/sys/system.h ****  ** @author shensley
  16:../../libs/libDaisy/src/sys/system.h ****  ** @ingroup system
  17:../../libs/libDaisy/src/sys/system.h ****  */
  18:../../libs/libDaisy/src/sys/system.h **** class System
  19:../../libs/libDaisy/src/sys/system.h **** {
  20:../../libs/libDaisy/src/sys/system.h ****   public:
  21:../../libs/libDaisy/src/sys/system.h ****     /** Contains settings for initializing the System */
  22:../../libs/libDaisy/src/sys/system.h ****     struct Config
  23:../../libs/libDaisy/src/sys/system.h ****     {
  24:../../libs/libDaisy/src/sys/system.h ****         /** Specifies the system clock frequency that feeds APB/AHB clocks, etc. */
  25:../../libs/libDaisy/src/sys/system.h ****         enum class SysClkFreq
  26:../../libs/libDaisy/src/sys/system.h ****         {
  27:../../libs/libDaisy/src/sys/system.h ****             FREQ_400MHZ,
  28:../../libs/libDaisy/src/sys/system.h ****             FREQ_480MHZ,
  29:../../libs/libDaisy/src/sys/system.h ****         };
ARM GAS  C:\Users\skipi\AppData\Local\Temp\ccYcyPVo.s 			page 3


  30:../../libs/libDaisy/src/sys/system.h **** 
  31:../../libs/libDaisy/src/sys/system.h ****         /** Method to call on the struct to set to defaults
  32:../../libs/libDaisy/src/sys/system.h ****          ** CPU Freq set to 400MHz
  33:../../libs/libDaisy/src/sys/system.h ****          ** Cache Enabled
  34:../../libs/libDaisy/src/sys/system.h ****          ** */
  35:../../libs/libDaisy/src/sys/system.h ****         void Defaults()
  36:../../libs/libDaisy/src/sys/system.h ****         {
  37:../../libs/libDaisy/src/sys/system.h ****             cpu_freq    = SysClkFreq::FREQ_400MHZ;
  38:../../libs/libDaisy/src/sys/system.h ****             use_dcache  = true;
  39:../../libs/libDaisy/src/sys/system.h ****             use_icache  = true;
  40:../../libs/libDaisy/src/sys/system.h ****             skip_clocks = false;
  41:../../libs/libDaisy/src/sys/system.h ****         }
  42:../../libs/libDaisy/src/sys/system.h **** 
  43:../../libs/libDaisy/src/sys/system.h ****         /** Method to call on the struct to set to boost mode:
  44:../../libs/libDaisy/src/sys/system.h ****          ** CPU Freq set to 480MHz
  45:../../libs/libDaisy/src/sys/system.h ****          ** Cache Enabled
  46:../../libs/libDaisy/src/sys/system.h ****          ** */
  47:../../libs/libDaisy/src/sys/system.h ****         void Boost()
  48:../../libs/libDaisy/src/sys/system.h ****         {
  49:../../libs/libDaisy/src/sys/system.h ****             cpu_freq    = SysClkFreq::FREQ_480MHZ;
  50:../../libs/libDaisy/src/sys/system.h ****             use_dcache  = true;
  51:../../libs/libDaisy/src/sys/system.h ****             use_icache  = true;
  52:../../libs/libDaisy/src/sys/system.h ****             skip_clocks = false;
  53:../../libs/libDaisy/src/sys/system.h ****         }
  54:../../libs/libDaisy/src/sys/system.h **** 
  55:../../libs/libDaisy/src/sys/system.h ****         SysClkFreq cpu_freq;
  56:../../libs/libDaisy/src/sys/system.h ****         bool       use_dcache;
  57:../../libs/libDaisy/src/sys/system.h ****         bool       use_icache;
  58:../../libs/libDaisy/src/sys/system.h ****         bool       skip_clocks;
  59:../../libs/libDaisy/src/sys/system.h ****     };
  60:../../libs/libDaisy/src/sys/system.h **** 
  61:../../libs/libDaisy/src/sys/system.h ****     /** Describes the different regions of memory available to the Daisy */
  62:../../libs/libDaisy/src/sys/system.h ****     enum MemoryRegion
  63:../../libs/libDaisy/src/sys/system.h ****     {
  64:../../libs/libDaisy/src/sys/system.h ****         INTERNAL_FLASH = 0,
  65:../../libs/libDaisy/src/sys/system.h ****         ITCMRAM,
  66:../../libs/libDaisy/src/sys/system.h ****         DTCMRAM,
  67:../../libs/libDaisy/src/sys/system.h ****         SRAM_D1,
  68:../../libs/libDaisy/src/sys/system.h ****         SRAM_D2,
  69:../../libs/libDaisy/src/sys/system.h ****         SRAM_D3,
  70:../../libs/libDaisy/src/sys/system.h ****         SDRAM,
  71:../../libs/libDaisy/src/sys/system.h ****         QSPI,
  72:../../libs/libDaisy/src/sys/system.h ****         INVALID_ADDRESS,
  73:../../libs/libDaisy/src/sys/system.h ****     };
  74:../../libs/libDaisy/src/sys/system.h **** 
  75:../../libs/libDaisy/src/sys/system.h ****     /** Bootloader struct for controlling bootloading parameters */
  76:../../libs/libDaisy/src/sys/system.h ****     struct BootInfo
  77:../../libs/libDaisy/src/sys/system.h ****     {
  78:../../libs/libDaisy/src/sys/system.h ****         enum class Type : uint32_t
  79:../../libs/libDaisy/src/sys/system.h ****         {
  80:../../libs/libDaisy/src/sys/system.h ****             INVALID      = 0x00000000,
  81:../../libs/libDaisy/src/sys/system.h ****             JUMP         = 0xDEADBEEF,
  82:../../libs/libDaisy/src/sys/system.h ****             SKIP_TIMEOUT = 0x5AFEB007,
  83:../../libs/libDaisy/src/sys/system.h ****             INF_TIMEOUT  = 0xB0074EFA,
  84:../../libs/libDaisy/src/sys/system.h ****         } status;
  85:../../libs/libDaisy/src/sys/system.h ****         uint32_t data;
  86:../../libs/libDaisy/src/sys/system.h ****         enum class Version : uint32_t
ARM GAS  C:\Users\skipi\AppData\Local\Temp\ccYcyPVo.s 			page 4


  87:../../libs/libDaisy/src/sys/system.h ****         {
  88:../../libs/libDaisy/src/sys/system.h ****             LT_v6_0 = 0, // Less than v6.0
  89:../../libs/libDaisy/src/sys/system.h ****             NONE,        // No bootloader present
  90:../../libs/libDaisy/src/sys/system.h ****             v6_0,        // v6.0
  91:../../libs/libDaisy/src/sys/system.h ****             v6_1,        // v6.1 or greater
  92:../../libs/libDaisy/src/sys/system.h ****             LAST
  93:../../libs/libDaisy/src/sys/system.h ****         } version;
  94:../../libs/libDaisy/src/sys/system.h ****     };
  95:../../libs/libDaisy/src/sys/system.h **** 
  96:../../libs/libDaisy/src/sys/system.h ****     System() {}
  97:../../libs/libDaisy/src/sys/system.h ****     ~System() {}
  44              		.loc 3 97 5 is_stmt 1 view .LVU3
  45              		.loc 3 97 5 is_stmt 0 view .LVU4
  46              	.LBE353:
  47              	.LBB354:
  48              	.LBI354:
  49              		.file 4 "../../libs/libDaisy/src/hid/usb.h"
   1:../../libs/libDaisy/src/hid/usb.h **** #pragma once
   2:../../libs/libDaisy/src/hid/usb.h **** #ifndef DSY_HID_USB_H
   3:../../libs/libDaisy/src/hid/usb.h **** #define DSY_HID_USB_H
   4:../../libs/libDaisy/src/hid/usb.h **** #include <stdint.h>
   5:../../libs/libDaisy/src/hid/usb.h **** #include <stdlib.h>
   6:../../libs/libDaisy/src/hid/usb.h **** 
   7:../../libs/libDaisy/src/hid/usb.h **** namespace daisy
   8:../../libs/libDaisy/src/hid/usb.h **** /** @addtogroup human_interface
   9:../../libs/libDaisy/src/hid/usb.h ****     @{
  10:../../libs/libDaisy/src/hid/usb.h **** */
  11:../../libs/libDaisy/src/hid/usb.h **** 
  12:../../libs/libDaisy/src/hid/usb.h **** {
  13:../../libs/libDaisy/src/hid/usb.h **** /** 
  14:../../libs/libDaisy/src/hid/usb.h ****     @brief Interface for initializing and using the USB Peripherals on the daisy
  15:../../libs/libDaisy/src/hid/usb.h ****     @author Stephen Hensley
  16:../../libs/libDaisy/src/hid/usb.h ****     @date December 2019
  17:../../libs/libDaisy/src/hid/usb.h **** */
  18:../../libs/libDaisy/src/hid/usb.h **** class UsbHandle
  19:../../libs/libDaisy/src/hid/usb.h **** {
  20:../../libs/libDaisy/src/hid/usb.h ****   public:
  21:../../libs/libDaisy/src/hid/usb.h ****     /** Return values for USBHandle Functions */
  22:../../libs/libDaisy/src/hid/usb.h ****     enum class Result
  23:../../libs/libDaisy/src/hid/usb.h ****     {
  24:../../libs/libDaisy/src/hid/usb.h ****         OK,
  25:../../libs/libDaisy/src/hid/usb.h ****         ERR,
  26:../../libs/libDaisy/src/hid/usb.h ****     };
  27:../../libs/libDaisy/src/hid/usb.h **** 
  28:../../libs/libDaisy/src/hid/usb.h ****     /** Specified which of the two USB Peripherals to initialize. */
  29:../../libs/libDaisy/src/hid/usb.h ****     enum UsbPeriph
  30:../../libs/libDaisy/src/hid/usb.h ****     {
  31:../../libs/libDaisy/src/hid/usb.h ****         FS_INTERNAL, /**< Internal pin */
  32:../../libs/libDaisy/src/hid/usb.h ****         FS_EXTERNAL, /**< FS External D+ pin is Pin 38 (GPIO32). FS External D- pin is Pin 37 (GPIO
  33:../../libs/libDaisy/src/hid/usb.h ****         FS_BOTH,     /**< Both */
  34:../../libs/libDaisy/src/hid/usb.h ****     };
  35:../../libs/libDaisy/src/hid/usb.h **** 
  36:../../libs/libDaisy/src/hid/usb.h **** 
  37:../../libs/libDaisy/src/hid/usb.h ****     /** Function called upon reception of a buffer */
  38:../../libs/libDaisy/src/hid/usb.h ****     typedef void (*ReceiveCallback)(uint8_t* buff, uint32_t* len);
  39:../../libs/libDaisy/src/hid/usb.h **** 
  40:../../libs/libDaisy/src/hid/usb.h ****     UsbHandle() {}
ARM GAS  C:\Users\skipi\AppData\Local\Temp\ccYcyPVo.s 			page 5


  41:../../libs/libDaisy/src/hid/usb.h **** 
  42:../../libs/libDaisy/src/hid/usb.h ****     ~UsbHandle() {}
  50              		.loc 4 42 5 is_stmt 1 view .LVU5
  51              		.loc 4 42 5 is_stmt 0 view .LVU6
  52              	.LBE354:
  53              	.LBB355:
  54              	.LBI355:
  55              		.file 5 "../../libs/libDaisy/src/per/adc.h"
   1:../../libs/libDaisy/src/per/adc.h **** #pragma once
   2:../../libs/libDaisy/src/per/adc.h **** #ifndef DSY_ADC_H
   3:../../libs/libDaisy/src/per/adc.h **** #define DSY_ADC_H /**< Macro */
   4:../../libs/libDaisy/src/per/adc.h **** #include <stdint.h>
   5:../../libs/libDaisy/src/per/adc.h **** #include <stdlib.h>
   6:../../libs/libDaisy/src/per/adc.h **** #include "daisy_core.h"
   7:../../libs/libDaisy/src/per/adc.h **** #include "per/gpio.h"
   8:../../libs/libDaisy/src/per/adc.h **** 
   9:../../libs/libDaisy/src/per/adc.h **** #define DSY_ADC_MAX_CHANNELS 16 /**< Maximum number of ADC channels */
  10:../../libs/libDaisy/src/per/adc.h **** 
  11:../../libs/libDaisy/src/per/adc.h **** namespace daisy
  12:../../libs/libDaisy/src/per/adc.h **** {
  13:../../libs/libDaisy/src/per/adc.h **** /** @addtogroup per_analog
  14:../../libs/libDaisy/src/per/adc.h ****     @{
  15:../../libs/libDaisy/src/per/adc.h **** */
  16:../../libs/libDaisy/src/per/adc.h **** 
  17:../../libs/libDaisy/src/per/adc.h **** /* While there may not be many configuration options here,
  18:../../libs/libDaisy/src/per/adc.h **** using a struct like this allows us to add more configuration
  19:../../libs/libDaisy/src/per/adc.h **** later without breaking existing functionality.
  20:../../libs/libDaisy/src/per/adc.h **** */
  21:../../libs/libDaisy/src/per/adc.h **** 
  22:../../libs/libDaisy/src/per/adc.h **** /** @brief   Configuration Structure for an ADC Channel 
  23:../../libs/libDaisy/src/per/adc.h ****  *  @details This can be used to configure a a single input, 
  24:../../libs/libDaisy/src/per/adc.h ****  *           or a multiplexed input, allowing up to 8 inputs on 
  25:../../libs/libDaisy/src/per/adc.h ****  *           one channel.
  26:../../libs/libDaisy/src/per/adc.h ****  *  @note    Sharing data lines to multiple muxes _is_ possible, but
  27:../../libs/libDaisy/src/per/adc.h ****  *           each channel sharing data lines must be set to the maximum
  28:../../libs/libDaisy/src/per/adc.h ****  *           number of channels, even if some multiplexers have fewer
  29:../../libs/libDaisy/src/per/adc.h ****  *           inputs connected.
  30:../../libs/libDaisy/src/per/adc.h **** */
  31:../../libs/libDaisy/src/per/adc.h **** struct AdcChannelConfig
  32:../../libs/libDaisy/src/per/adc.h **** {
  33:../../libs/libDaisy/src/per/adc.h ****     /** Which pin to use for multiplexing */
  34:../../libs/libDaisy/src/per/adc.h ****     enum MuxPin
  35:../../libs/libDaisy/src/per/adc.h ****     {
  36:../../libs/libDaisy/src/per/adc.h ****         MUX_SEL_0,    /**< & */
  37:../../libs/libDaisy/src/per/adc.h ****         MUX_SEL_1,    /**< & */
  38:../../libs/libDaisy/src/per/adc.h ****         MUX_SEL_2,    /**< & */
  39:../../libs/libDaisy/src/per/adc.h ****         MUX_SEL_LAST, /**< & */
  40:../../libs/libDaisy/src/per/adc.h ****     };
  41:../../libs/libDaisy/src/per/adc.h **** 
  42:../../libs/libDaisy/src/per/adc.h ****     /** \brief per channel conversion speed added to fixed time based on bitdepth, etc. */
  43:../../libs/libDaisy/src/per/adc.h ****     enum ConversionSpeed
  44:../../libs/libDaisy/src/per/adc.h ****     {
  45:../../libs/libDaisy/src/per/adc.h ****         SPEED_1CYCLES_5,
  46:../../libs/libDaisy/src/per/adc.h ****         SPEED_2CYCLES_5,
  47:../../libs/libDaisy/src/per/adc.h ****         SPEED_8CYCLES_5,
  48:../../libs/libDaisy/src/per/adc.h ****         SPEED_16CYCLES_5,
  49:../../libs/libDaisy/src/per/adc.h ****         SPEED_32CYCLES_5,
ARM GAS  C:\Users\skipi\AppData\Local\Temp\ccYcyPVo.s 			page 6


  50:../../libs/libDaisy/src/per/adc.h ****         SPEED_64CYCLES_5,
  51:../../libs/libDaisy/src/per/adc.h ****         SPEED_387CYCLES_5,
  52:../../libs/libDaisy/src/per/adc.h ****         SPEED_810CYCLES_5,
  53:../../libs/libDaisy/src/per/adc.h ****     };
  54:../../libs/libDaisy/src/per/adc.h **** 
  55:../../libs/libDaisy/src/per/adc.h ****     /** Initializes a single ADC pin as an ADC. 
  56:../../libs/libDaisy/src/per/adc.h ****     \param pin Pin to init.
  57:../../libs/libDaisy/src/per/adc.h ****     \param speed conversion speed for this pin defaults to 8.5 cycles
  58:../../libs/libDaisy/src/per/adc.h ****      */
  59:../../libs/libDaisy/src/per/adc.h ****     void InitSingle(Pin pin, ConversionSpeed speed = SPEED_8CYCLES_5);
  60:../../libs/libDaisy/src/per/adc.h **** 
  61:../../libs/libDaisy/src/per/adc.h ****     /** 
  62:../../libs/libDaisy/src/per/adc.h ****     Initializes a single ADC pin as a Multiplexed ADC.
  63:../../libs/libDaisy/src/per/adc.h ****     Requires a CD405X Multiplexer connected to the pin.
  64:../../libs/libDaisy/src/per/adc.h ****     You only need to supply the mux pins that are required,
  65:../../libs/libDaisy/src/per/adc.h ****     e.g. a 4052 mux would only require mux_0 and mux_1.
  66:../../libs/libDaisy/src/per/adc.h ****     Internal Callbacks handle the pin addressing.
  67:../../libs/libDaisy/src/per/adc.h ****     \param adc_pin &
  68:../../libs/libDaisy/src/per/adc.h ****     \param mux_channels must be 1-8
  69:../../libs/libDaisy/src/per/adc.h ****     \param mux_0 First mux pin
  70:../../libs/libDaisy/src/per/adc.h ****     \param mux_1 Second mux pin
  71:../../libs/libDaisy/src/per/adc.h ****     \param mux_2 Third mux pin
  72:../../libs/libDaisy/src/per/adc.h ****     \param speed conversion speed for this pin defaults to 8.5 cycles
  73:../../libs/libDaisy/src/per/adc.h ****     */
  74:../../libs/libDaisy/src/per/adc.h ****     void InitMux(Pin             adc_pin,
  75:../../libs/libDaisy/src/per/adc.h ****                  size_t          mux_channels,
  76:../../libs/libDaisy/src/per/adc.h ****                  Pin             mux_0,
  77:../../libs/libDaisy/src/per/adc.h ****                  Pin             mux_1 = Pin(PORTX, 0),
  78:../../libs/libDaisy/src/per/adc.h ****                  Pin             mux_2 = Pin(PORTX, 0),
  79:../../libs/libDaisy/src/per/adc.h ****                  ConversionSpeed speed = SPEED_8CYCLES_5);
  80:../../libs/libDaisy/src/per/adc.h **** 
  81:../../libs/libDaisy/src/per/adc.h ****     GPIO            pin_;                   /**< & */
  82:../../libs/libDaisy/src/per/adc.h ****     GPIO            mux_pin_[MUX_SEL_LAST]; /**< & */
  83:../../libs/libDaisy/src/per/adc.h ****     uint8_t         mux_channels_;          /**< & */
  84:../../libs/libDaisy/src/per/adc.h ****     ConversionSpeed speed_;
  85:../../libs/libDaisy/src/per/adc.h **** };
  86:../../libs/libDaisy/src/per/adc.h **** 
  87:../../libs/libDaisy/src/per/adc.h **** /**
  88:../../libs/libDaisy/src/per/adc.h ****    @brief Handler for analog to digital conversion
  89:../../libs/libDaisy/src/per/adc.h **** */
  90:../../libs/libDaisy/src/per/adc.h **** class AdcHandle
  91:../../libs/libDaisy/src/per/adc.h **** {
  92:../../libs/libDaisy/src/per/adc.h ****   public:
  93:../../libs/libDaisy/src/per/adc.h ****     /** Supported oversampling amounts */
  94:../../libs/libDaisy/src/per/adc.h ****     enum OverSampling
  95:../../libs/libDaisy/src/per/adc.h ****     {
  96:../../libs/libDaisy/src/per/adc.h ****         OVS_NONE, /**< & */
  97:../../libs/libDaisy/src/per/adc.h ****         OVS_4,    /**< & */
  98:../../libs/libDaisy/src/per/adc.h ****         OVS_8,    /**< & */
  99:../../libs/libDaisy/src/per/adc.h ****         OVS_16,   /**< & */
 100:../../libs/libDaisy/src/per/adc.h ****         OVS_32,   /**< & */
 101:../../libs/libDaisy/src/per/adc.h ****         OVS_64,   /**< & */
 102:../../libs/libDaisy/src/per/adc.h ****         OVS_128,  /**< & */
 103:../../libs/libDaisy/src/per/adc.h ****         OVS_256,  /**< & */
 104:../../libs/libDaisy/src/per/adc.h ****         OVS_512,  /**< & */
 105:../../libs/libDaisy/src/per/adc.h ****         OVS_1024, /**< & */
 106:../../libs/libDaisy/src/per/adc.h ****         OVS_LAST, /**< & */
ARM GAS  C:\Users\skipi\AppData\Local\Temp\ccYcyPVo.s 			page 7


 107:../../libs/libDaisy/src/per/adc.h ****     };
 108:../../libs/libDaisy/src/per/adc.h **** 
 109:../../libs/libDaisy/src/per/adc.h ****     AdcHandle() {}
 110:../../libs/libDaisy/src/per/adc.h ****     ~AdcHandle() {}
  56              		.loc 5 110 5 is_stmt 1 view .LVU7
  57              		.loc 5 110 5 is_stmt 0 view .LVU8
  58              	.LBE355:
  59              	.LBB356:
  60              	.LBI356:
  61              		.file 6 "../../libs/libDaisy/src/hid/audio.h"
   1:../../libs/libDaisy/src/hid/audio.h **** #ifndef DSY_AUDIO_H
   2:../../libs/libDaisy/src/hid/audio.h **** #define DSY_AUDIO_H /**< & */
   3:../../libs/libDaisy/src/hid/audio.h **** 
   4:../../libs/libDaisy/src/hid/audio.h **** #include "per/sai.h"
   5:../../libs/libDaisy/src/hid/audio.h **** 
   6:../../libs/libDaisy/src/hid/audio.h **** namespace daisy
   7:../../libs/libDaisy/src/hid/audio.h **** {
   8:../../libs/libDaisy/src/hid/audio.h **** /** @brief Audio Engine Handle
   9:../../libs/libDaisy/src/hid/audio.h ****  *  @ingroup audio 
  10:../../libs/libDaisy/src/hid/audio.h ****  *  @details This class allows for higher level access to an audio engine.
  11:../../libs/libDaisy/src/hid/audio.h ****  *           If you're using a SOM like the DaisySeed or DaisyPatchSM (or any 
  12:../../libs/libDaisy/src/hid/audio.h ****  *            board that includes one of those objects) then the intialization
  13:../../libs/libDaisy/src/hid/audio.h ****  *            is already taken  care of.
  14:../../libs/libDaisy/src/hid/audio.h ****  *           If you're setting up your own custom hardware, or need to make changes
  15:../../libs/libDaisy/src/hid/audio.h ****  *           you will have to take the following steps:
  16:../../libs/libDaisy/src/hid/audio.h ****  *             1. Create and Initialize an SaiHandle or two depending on your requirements
  17:../../libs/libDaisy/src/hid/audio.h ****  *             2. Initialize the Audio Handle with the desired settings and the Initialized SaiHand
  18:../../libs/libDaisy/src/hid/audio.h ****  *             3. If the connected codec requires special configuration or initialization, do so
  19:../../libs/libDaisy/src/hid/audio.h ****  *             4. Write a callback method using either the AudioCallback or the InterleavingAudioCa
  20:../../libs/libDaisy/src/hid/audio.h ****  *             5. Start the Audio using one of the StartAudio function
  21:../../libs/libDaisy/src/hid/audio.h ****  */
  22:../../libs/libDaisy/src/hid/audio.h **** class AudioHandle
  23:../../libs/libDaisy/src/hid/audio.h **** {
  24:../../libs/libDaisy/src/hid/audio.h ****   public:
  25:../../libs/libDaisy/src/hid/audio.h ****     /** Manually configurable details about the Audio Engine */
  26:../../libs/libDaisy/src/hid/audio.h ****     /** TODO: Figure out how to get samplerate in here. */
  27:../../libs/libDaisy/src/hid/audio.h ****     struct Config
  28:../../libs/libDaisy/src/hid/audio.h ****     {
  29:../../libs/libDaisy/src/hid/audio.h ****         /** number of samples to process per callback */
  30:../../libs/libDaisy/src/hid/audio.h ****         size_t blocksize = 48;
  31:../../libs/libDaisy/src/hid/audio.h **** 
  32:../../libs/libDaisy/src/hid/audio.h ****         /**< Sample rate of audio */
  33:../../libs/libDaisy/src/hid/audio.h ****         SaiHandle::Config::SampleRate samplerate
  34:../../libs/libDaisy/src/hid/audio.h ****             = SaiHandle::Config::SampleRate::SAI_48KHZ;
  35:../../libs/libDaisy/src/hid/audio.h **** 
  36:../../libs/libDaisy/src/hid/audio.h ****         /** factor for adjustment before and after callback for hardware that may have extra headro
  37:../../libs/libDaisy/src/hid/audio.h ****         float postgain = 1.f;
  38:../../libs/libDaisy/src/hid/audio.h **** 
  39:../../libs/libDaisy/src/hid/audio.h ****         /** factor for additional one-sided compensation to audio path for hardware that may
  40:../../libs/libDaisy/src/hid/audio.h ****          *  have unequal input/output ranges
  41:../../libs/libDaisy/src/hid/audio.h ****          */
  42:../../libs/libDaisy/src/hid/audio.h ****         float output_compensation = 1.f;
  43:../../libs/libDaisy/src/hid/audio.h ****     };
  44:../../libs/libDaisy/src/hid/audio.h **** 
  45:../../libs/libDaisy/src/hid/audio.h ****     enum class Result
  46:../../libs/libDaisy/src/hid/audio.h ****     {
  47:../../libs/libDaisy/src/hid/audio.h ****         OK,
ARM GAS  C:\Users\skipi\AppData\Local\Temp\ccYcyPVo.s 			page 8


  48:../../libs/libDaisy/src/hid/audio.h ****         ERR,
  49:../../libs/libDaisy/src/hid/audio.h ****     };
  50:../../libs/libDaisy/src/hid/audio.h **** 
  51:../../libs/libDaisy/src/hid/audio.h ****     /** Non-Interleaving input buffer
  52:../../libs/libDaisy/src/hid/audio.h ****      * Buffer arranged by float[chn][sample] 
  53:../../libs/libDaisy/src/hid/audio.h ****      * const so that the user can't modify the input
  54:../../libs/libDaisy/src/hid/audio.h ****      */
  55:../../libs/libDaisy/src/hid/audio.h ****     typedef const float* const* InputBuffer;
  56:../../libs/libDaisy/src/hid/audio.h **** 
  57:../../libs/libDaisy/src/hid/audio.h ****     /** Non-Interleaving output buffer
  58:../../libs/libDaisy/src/hid/audio.h ****      * Arranged by float[chn][sample] 
  59:../../libs/libDaisy/src/hid/audio.h ****      */
  60:../../libs/libDaisy/src/hid/audio.h ****     typedef float** OutputBuffer;
  61:../../libs/libDaisy/src/hid/audio.h **** 
  62:../../libs/libDaisy/src/hid/audio.h ****     /** Type for a Non-Interleaving audio callback 
  63:../../libs/libDaisy/src/hid/audio.h ****      * Non-Interleaving audio callbacks in daisy will be of this type
  64:../../libs/libDaisy/src/hid/audio.h ****      */
  65:../../libs/libDaisy/src/hid/audio.h ****     typedef void (*AudioCallback)(InputBuffer  in,
  66:../../libs/libDaisy/src/hid/audio.h ****                                   OutputBuffer out,
  67:../../libs/libDaisy/src/hid/audio.h ****                                   size_t       size);
  68:../../libs/libDaisy/src/hid/audio.h **** 
  69:../../libs/libDaisy/src/hid/audio.h ****     /** Interleaving Input buffer
  70:../../libs/libDaisy/src/hid/audio.h ****      ** audio is prepared as { L0, R0, L1, R1, . . . LN, RN }]
  71:../../libs/libDaisy/src/hid/audio.h ****      ** this is const, as the user shouldn't modify it
  72:../../libs/libDaisy/src/hid/audio.h ****     */
  73:../../libs/libDaisy/src/hid/audio.h ****     typedef const float* InterleavingInputBuffer;
  74:../../libs/libDaisy/src/hid/audio.h **** 
  75:../../libs/libDaisy/src/hid/audio.h ****     /** Interleaving Output buffer 
  76:../../libs/libDaisy/src/hid/audio.h ****      ** audio is prepared as { L0, R0, L1, R1, . . . LN, RN }
  77:../../libs/libDaisy/src/hid/audio.h ****     */
  78:../../libs/libDaisy/src/hid/audio.h ****     typedef float* InterleavingOutputBuffer;
  79:../../libs/libDaisy/src/hid/audio.h **** 
  80:../../libs/libDaisy/src/hid/audio.h ****     /** Interleaving Audio Callback 
  81:../../libs/libDaisy/src/hid/audio.h ****      * Interleaving audio callbacks in daisy must be of this type
  82:../../libs/libDaisy/src/hid/audio.h ****      */
  83:../../libs/libDaisy/src/hid/audio.h ****     typedef void (*InterleavingAudioCallback)(InterleavingInputBuffer  in,
  84:../../libs/libDaisy/src/hid/audio.h ****                                               InterleavingOutputBuffer out,
  85:../../libs/libDaisy/src/hid/audio.h ****                                               size_t                   size);
  86:../../libs/libDaisy/src/hid/audio.h **** 
  87:../../libs/libDaisy/src/hid/audio.h ****     AudioHandle() : pimpl_(nullptr) {}
  88:../../libs/libDaisy/src/hid/audio.h ****     ~AudioHandle() {}
  62              		.loc 6 88 5 is_stmt 1 view .LVU9
  63              		.loc 6 88 5 is_stmt 0 view .LVU10
  64              	.LBE356:
  65              		.loc 1 22 19 view .LVU11
  66 0000 7047     		bx	lr
  67              		.cfi_endproc
  68              	.LFE2671:
  70              		.weak	_ZN5daisy9DaisySeedD1Ev
  71              		.thumb_set _ZN5daisy9DaisySeedD1Ev,_ZN5daisy9DaisySeedD2Ev
  72 0002 00BF     		.section	.text._ZN5daisy6Mpr121INS_18Mpr121I2CTransportEED2Ev,"axG",%progbits,_ZN5daisy6Mpr121INS_
  73              		.align	1
  74              		.p2align 2,,3
  75              		.weak	_ZN5daisy6Mpr121INS_18Mpr121I2CTransportEED2Ev
  76              		.syntax unified
  77              		.thumb
  78              		.thumb_func
ARM GAS  C:\Users\skipi\AppData\Local\Temp\ccYcyPVo.s 			page 9


  79              		.fpu fpv5-d16
  81              	_ZN5daisy6Mpr121INS_18Mpr121I2CTransportEED2Ev:
  82              	.LVL1:
  83              	.LFB5424:
  84              		.file 7 "../../libs/libDaisy/src/dev/mpr121.h"
   1:../../libs/libDaisy/src/dev/mpr121.h **** #pragma once
   2:../../libs/libDaisy/src/dev/mpr121.h **** #ifndef DSY_MPR121_H
   3:../../libs/libDaisy/src/dev/mpr121.h **** #define DSY_MPR121_H
   4:../../libs/libDaisy/src/dev/mpr121.h **** 
   5:../../libs/libDaisy/src/dev/mpr121.h **** // The default I2C address
   6:../../libs/libDaisy/src/dev/mpr121.h **** #define MPR121_I2CADDR_DEFAULT 0x5A        ///< default I2C address
   7:../../libs/libDaisy/src/dev/mpr121.h **** #define MPR121_TOUCH_THRESHOLD_DEFAULT 1  ///< default touch threshold value
   8:../../libs/libDaisy/src/dev/mpr121.h **** #define MPR121_RELEASE_THRESHOLD_DEFAULT 0 ///< default relese threshold value
   9:../../libs/libDaisy/src/dev/mpr121.h **** 
  10:../../libs/libDaisy/src/dev/mpr121.h **** namespace daisy
  11:../../libs/libDaisy/src/dev/mpr121.h **** {
  12:../../libs/libDaisy/src/dev/mpr121.h **** /** @addtogroup external 
  13:../../libs/libDaisy/src/dev/mpr121.h ****     @{ 
  14:../../libs/libDaisy/src/dev/mpr121.h **** */
  15:../../libs/libDaisy/src/dev/mpr121.h **** 
  16:../../libs/libDaisy/src/dev/mpr121.h **** /** I2C Transport for MPR121 */
  17:../../libs/libDaisy/src/dev/mpr121.h **** class Mpr121I2CTransport
  18:../../libs/libDaisy/src/dev/mpr121.h **** {
  19:../../libs/libDaisy/src/dev/mpr121.h ****   public:
  20:../../libs/libDaisy/src/dev/mpr121.h ****     Mpr121I2CTransport() {}
  21:../../libs/libDaisy/src/dev/mpr121.h ****     ~Mpr121I2CTransport() {}
  22:../../libs/libDaisy/src/dev/mpr121.h **** 
  23:../../libs/libDaisy/src/dev/mpr121.h ****     struct Config
  24:../../libs/libDaisy/src/dev/mpr121.h ****     {
  25:../../libs/libDaisy/src/dev/mpr121.h ****         I2CHandle::Config::Peripheral periph;
  26:../../libs/libDaisy/src/dev/mpr121.h ****         I2CHandle::Config::Speed      speed;
  27:../../libs/libDaisy/src/dev/mpr121.h ****         Pin                           scl;
  28:../../libs/libDaisy/src/dev/mpr121.h ****         Pin                           sda;
  29:../../libs/libDaisy/src/dev/mpr121.h **** 
  30:../../libs/libDaisy/src/dev/mpr121.h ****         I2CHandle::Config::Mode mode;
  31:../../libs/libDaisy/src/dev/mpr121.h **** 
  32:../../libs/libDaisy/src/dev/mpr121.h ****         uint8_t dev_addr;
  33:../../libs/libDaisy/src/dev/mpr121.h **** 
  34:../../libs/libDaisy/src/dev/mpr121.h ****         Config()
  35:../../libs/libDaisy/src/dev/mpr121.h ****         {
  36:../../libs/libDaisy/src/dev/mpr121.h ****             periph = I2CHandle::Config::Peripheral::I2C_1;
  37:../../libs/libDaisy/src/dev/mpr121.h ****             speed  = I2CHandle::Config::Speed::I2C_400KHZ;
  38:../../libs/libDaisy/src/dev/mpr121.h **** 
  39:../../libs/libDaisy/src/dev/mpr121.h ****             scl = Pin(PORTB, 8);
  40:../../libs/libDaisy/src/dev/mpr121.h ****             sda = Pin(PORTB, 9);
  41:../../libs/libDaisy/src/dev/mpr121.h **** 
  42:../../libs/libDaisy/src/dev/mpr121.h ****             dev_addr = MPR121_I2CADDR_DEFAULT;
  43:../../libs/libDaisy/src/dev/mpr121.h ****         }
  44:../../libs/libDaisy/src/dev/mpr121.h ****     };
  45:../../libs/libDaisy/src/dev/mpr121.h **** 
  46:../../libs/libDaisy/src/dev/mpr121.h ****     /** \return Did the transaction error? i.e. Return true if error, false if ok */
  47:../../libs/libDaisy/src/dev/mpr121.h ****     inline bool Init(Config config)
  48:../../libs/libDaisy/src/dev/mpr121.h ****     {
  49:../../libs/libDaisy/src/dev/mpr121.h ****         config_ = config;
  50:../../libs/libDaisy/src/dev/mpr121.h **** 
  51:../../libs/libDaisy/src/dev/mpr121.h ****         I2CHandle::Config i2c_conf;
  52:../../libs/libDaisy/src/dev/mpr121.h ****         i2c_conf.mode   = I2CHandle::Config::Mode::I2C_MASTER;
ARM GAS  C:\Users\skipi\AppData\Local\Temp\ccYcyPVo.s 			page 10


  53:../../libs/libDaisy/src/dev/mpr121.h ****         i2c_conf.periph = config.periph;
  54:../../libs/libDaisy/src/dev/mpr121.h ****         i2c_conf.speed  = config.speed;
  55:../../libs/libDaisy/src/dev/mpr121.h **** 
  56:../../libs/libDaisy/src/dev/mpr121.h ****         i2c_conf.pin_config.scl = config.scl;
  57:../../libs/libDaisy/src/dev/mpr121.h ****         i2c_conf.pin_config.sda = config.sda;
  58:../../libs/libDaisy/src/dev/mpr121.h **** 
  59:../../libs/libDaisy/src/dev/mpr121.h ****         return I2CHandle::Result::OK != i2c_.Init(i2c_conf);
  60:../../libs/libDaisy/src/dev/mpr121.h ****     }
  61:../../libs/libDaisy/src/dev/mpr121.h **** 
  62:../../libs/libDaisy/src/dev/mpr121.h ****     /** \return Did the transaction error? i.e. Return true if error, false if ok */
  63:../../libs/libDaisy/src/dev/mpr121.h ****     bool Write(uint8_t *data, uint16_t size)
  64:../../libs/libDaisy/src/dev/mpr121.h ****     {
  65:../../libs/libDaisy/src/dev/mpr121.h ****         return I2CHandle::Result::OK
  66:../../libs/libDaisy/src/dev/mpr121.h ****                != i2c_.TransmitBlocking(config_.dev_addr, data, size, 10);
  67:../../libs/libDaisy/src/dev/mpr121.h ****     }
  68:../../libs/libDaisy/src/dev/mpr121.h **** 
  69:../../libs/libDaisy/src/dev/mpr121.h ****     /** \return Did the transaction error? i.e. Return true if error, false if ok */
  70:../../libs/libDaisy/src/dev/mpr121.h ****     bool Read(uint8_t *data, uint16_t size)
  71:../../libs/libDaisy/src/dev/mpr121.h ****     {
  72:../../libs/libDaisy/src/dev/mpr121.h ****         return I2CHandle::Result::OK
  73:../../libs/libDaisy/src/dev/mpr121.h ****                != i2c_.ReceiveBlocking(config_.dev_addr, data, size, 10);
  74:../../libs/libDaisy/src/dev/mpr121.h ****     }
  75:../../libs/libDaisy/src/dev/mpr121.h ****     bool ReadMem(uint8_t *data, uint8_t memAddress, uint16_t memSize)
  76:../../libs/libDaisy/src/dev/mpr121.h ****     {
  77:../../libs/libDaisy/src/dev/mpr121.h ****         return I2CHandle::Result::OK
  78:../../libs/libDaisy/src/dev/mpr121.h ****                != i2c_.Mem_read(
  79:../../libs/libDaisy/src/dev/mpr121.h ****                    config_.dev_addr, memAddress, 1, data, memSize, 10);
  80:../../libs/libDaisy/src/dev/mpr121.h ****     }
  81:../../libs/libDaisy/src/dev/mpr121.h **** 
  82:../../libs/libDaisy/src/dev/mpr121.h ****   private:
  83:../../libs/libDaisy/src/dev/mpr121.h ****     I2CHandle i2c_;
  84:../../libs/libDaisy/src/dev/mpr121.h ****     Config    config_;
  85:../../libs/libDaisy/src/dev/mpr121.h **** };
  86:../../libs/libDaisy/src/dev/mpr121.h **** 
  87:../../libs/libDaisy/src/dev/mpr121.h **** 
  88:../../libs/libDaisy/src/dev/mpr121.h **** /** @brief Device support for MPR121 12x Capacitive Touch Sensor
  89:../../libs/libDaisy/src/dev/mpr121.h ****     @author beserge
  90:../../libs/libDaisy/src/dev/mpr121.h ****     @date December 2021
  91:../../libs/libDaisy/src/dev/mpr121.h **** */
  92:../../libs/libDaisy/src/dev/mpr121.h **** template <typename Transport>
  93:../../libs/libDaisy/src/dev/mpr121.h **** class Mpr121
  94:../../libs/libDaisy/src/dev/mpr121.h **** {
  95:../../libs/libDaisy/src/dev/mpr121.h ****   public:
  96:../../libs/libDaisy/src/dev/mpr121.h ****     Mpr121() {}
  97:../../libs/libDaisy/src/dev/mpr121.h ****     ~Mpr121() {}
  85              		.loc 7 97 5 is_stmt 1 view -0
  86              		.cfi_startproc
  87              		@ args = 0, pretend = 0, frame = 0
  88              		@ frame_needed = 0, uses_anonymous_args = 0
  89              		@ link register save eliminated.
  90              	.LBB357:
  91              	.LBI357:
  21:../../libs/libDaisy/src/dev/mpr121.h **** 
  92              		.loc 7 21 5 view .LVU13
  21:../../libs/libDaisy/src/dev/mpr121.h **** 
  93              		.loc 7 21 5 is_stmt 0 view .LVU14
  94              	.LBE357:
ARM GAS  C:\Users\skipi\AppData\Local\Temp\ccYcyPVo.s 			page 11


  95              		.loc 7 97 16 view .LVU15
  96 0000 7047     		bx	lr
  97              		.cfi_endproc
  98              	.LFE5424:
 100              		.weak	_ZN5daisy6Mpr121INS_18Mpr121I2CTransportEED1Ev
 101              		.thumb_set _ZN5daisy6Mpr121INS_18Mpr121I2CTransportEED1Ev,_ZN5daisy6Mpr121INS_18Mpr121I2CTransport
 102 0002 00BF     		.section	.text._ZN5daisy6Mpr121INS_18Mpr121I2CTransportEE13WriteRegisterEhh,"axG",%progbits,_ZN5da
 103              		.align	1
 104              		.p2align 2,,3
 105              		.weak	_ZN5daisy6Mpr121INS_18Mpr121I2CTransportEE13WriteRegisterEhh
 106              		.syntax unified
 107              		.thumb
 108              		.thumb_func
 109              		.fpu fpv5-d16
 111              	_ZN5daisy6Mpr121INS_18Mpr121I2CTransportEE13WriteRegisterEhh:
 112              	.LVL2:
 113              	.LFB5278:
  98:../../libs/libDaisy/src/dev/mpr121.h **** 
  99:../../libs/libDaisy/src/dev/mpr121.h ****     struct Config
 100:../../libs/libDaisy/src/dev/mpr121.h ****     {
 101:../../libs/libDaisy/src/dev/mpr121.h ****         typename Transport::Config transport_config;
 102:../../libs/libDaisy/src/dev/mpr121.h ****         uint8_t                    touch_threshold;
 103:../../libs/libDaisy/src/dev/mpr121.h ****         uint8_t                    release_threshold;
 104:../../libs/libDaisy/src/dev/mpr121.h **** 
 105:../../libs/libDaisy/src/dev/mpr121.h ****         Config()
 106:../../libs/libDaisy/src/dev/mpr121.h ****         {
 107:../../libs/libDaisy/src/dev/mpr121.h ****             touch_threshold   = MPR121_TOUCH_THRESHOLD_DEFAULT;
 108:../../libs/libDaisy/src/dev/mpr121.h ****             release_threshold = MPR121_RELEASE_THRESHOLD_DEFAULT;
 109:../../libs/libDaisy/src/dev/mpr121.h ****         }
 110:../../libs/libDaisy/src/dev/mpr121.h ****     };
 111:../../libs/libDaisy/src/dev/mpr121.h **** 
 112:../../libs/libDaisy/src/dev/mpr121.h ****     enum Result
 113:../../libs/libDaisy/src/dev/mpr121.h ****     {
 114:../../libs/libDaisy/src/dev/mpr121.h ****         OK = 0,
 115:../../libs/libDaisy/src/dev/mpr121.h ****         ERR
 116:../../libs/libDaisy/src/dev/mpr121.h ****     };
 117:../../libs/libDaisy/src/dev/mpr121.h **** 
 118:../../libs/libDaisy/src/dev/mpr121.h ****     /** Initialize the MPR121 device
 119:../../libs/libDaisy/src/dev/mpr121.h ****         \param config Configuration settings
 120:../../libs/libDaisy/src/dev/mpr121.h ****     */
 121:../../libs/libDaisy/src/dev/mpr121.h ****     Result Init(Config config)
 122:../../libs/libDaisy/src/dev/mpr121.h ****     {
 123:../../libs/libDaisy/src/dev/mpr121.h ****         config_ = config;
 124:../../libs/libDaisy/src/dev/mpr121.h **** 
 125:../../libs/libDaisy/src/dev/mpr121.h ****         SetTransportErr(transport_.Init(config_.transport_config));
 126:../../libs/libDaisy/src/dev/mpr121.h **** 
 127:../../libs/libDaisy/src/dev/mpr121.h ****         // soft reset
 128:../../libs/libDaisy/src/dev/mpr121.h ****         WriteRegister(MPR121_SOFTRESET, 0x63);
 129:../../libs/libDaisy/src/dev/mpr121.h ****         System::Delay(1);
 130:../../libs/libDaisy/src/dev/mpr121.h **** 
 131:../../libs/libDaisy/src/dev/mpr121.h ****         WriteRegister(MPR121_ECR, 0x0);
 132:../../libs/libDaisy/src/dev/mpr121.h **** 
 133:../../libs/libDaisy/src/dev/mpr121.h ****         // this doesn't work for some reason...
 134:../../libs/libDaisy/src/dev/mpr121.h ****         // uint8_t c = ReadRegister8(MPR121_CONFIG2);
 135:../../libs/libDaisy/src/dev/mpr121.h **** 
 136:../../libs/libDaisy/src/dev/mpr121.h ****         // if(c != 0x24)
 137:../../libs/libDaisy/src/dev/mpr121.h ****         //     return ERR;
ARM GAS  C:\Users\skipi\AppData\Local\Temp\ccYcyPVo.s 			page 12


 138:../../libs/libDaisy/src/dev/mpr121.h **** 
 139:../../libs/libDaisy/src/dev/mpr121.h ****         SetThresholds(config_.touch_threshold, config_.release_threshold);
 140:../../libs/libDaisy/src/dev/mpr121.h ****         WriteRegister(MPR121_MHDR, 0x01);
 141:../../libs/libDaisy/src/dev/mpr121.h ****         WriteRegister(MPR121_NHDR, 0x01);
 142:../../libs/libDaisy/src/dev/mpr121.h ****         WriteRegister(MPR121_NCLR, 0x0E);
 143:../../libs/libDaisy/src/dev/mpr121.h ****         WriteRegister(MPR121_FDLR, 0x00);
 144:../../libs/libDaisy/src/dev/mpr121.h **** 
 145:../../libs/libDaisy/src/dev/mpr121.h ****         WriteRegister(MPR121_MHDF, 0x01);
 146:../../libs/libDaisy/src/dev/mpr121.h ****         WriteRegister(MPR121_NHDF, 0x05);
 147:../../libs/libDaisy/src/dev/mpr121.h ****         WriteRegister(MPR121_NCLF, 0x01);
 148:../../libs/libDaisy/src/dev/mpr121.h ****         WriteRegister(MPR121_FDLF, 0x00);
 149:../../libs/libDaisy/src/dev/mpr121.h **** 
 150:../../libs/libDaisy/src/dev/mpr121.h ****         WriteRegister(MPR121_NHDT, 0x00);
 151:../../libs/libDaisy/src/dev/mpr121.h ****         WriteRegister(MPR121_NCLT, 0x00);
 152:../../libs/libDaisy/src/dev/mpr121.h ****         WriteRegister(MPR121_FDLT, 0x00);
 153:../../libs/libDaisy/src/dev/mpr121.h **** 
 154:../../libs/libDaisy/src/dev/mpr121.h ****         WriteRegister(MPR121_DEBOUNCE, 0);
 155:../../libs/libDaisy/src/dev/mpr121.h ****         WriteRegister(MPR121_CONFIG1, 0x10); // default, 16uA charge current
 156:../../libs/libDaisy/src/dev/mpr121.h ****         WriteRegister(MPR121_CONFIG2, 0x20); // 0.5uS encoding, 1ms period
 157:../../libs/libDaisy/src/dev/mpr121.h **** 
 158:../../libs/libDaisy/src/dev/mpr121.h ****         // autoconfig
 159:../../libs/libDaisy/src/dev/mpr121.h ****         // WriteRegister(MPR121_AUTOCONFIG0, 0x0B);
 160:../../libs/libDaisy/src/dev/mpr121.h **** 
 161:../../libs/libDaisy/src/dev/mpr121.h ****         // correct values for Vdd = 3.3V
 162:../../libs/libDaisy/src/dev/mpr121.h ****         // WriteRegister(MPR121_UPLIMIT, 200);     // ((Vdd - 0.7)/Vdd) * 256
 163:../../libs/libDaisy/src/dev/mpr121.h ****         // WriteRegister(MPR121_TARGETLIMIT, 180); // UPLIMIT * 0.9
 164:../../libs/libDaisy/src/dev/mpr121.h ****         // WriteRegister(MPR121_LOWLIMIT, 130);    // UPLIMIT * 0.65
 165:../../libs/libDaisy/src/dev/mpr121.h ****         // autoconfig
 166:../../libs/libDaisy/src/dev/mpr121.h **** 
 167:../../libs/libDaisy/src/dev/mpr121.h ****         // enable X electrodes and start MPR121
 168:../../libs/libDaisy/src/dev/mpr121.h ****         uint8_t ECR_SETTING
 169:../../libs/libDaisy/src/dev/mpr121.h ****             = 0x80
 170:../../libs/libDaisy/src/dev/mpr121.h ****               + 12; // 5 bits for baseline tracking & proximity disabled + X
 171:../../libs/libDaisy/src/dev/mpr121.h ****                     // amount of electrodes running (12)
 172:../../libs/libDaisy/src/dev/mpr121.h ****         WriteRegister(MPR121_ECR,
 173:../../libs/libDaisy/src/dev/mpr121.h ****                       ECR_SETTING); // start with above ECR setting
 174:../../libs/libDaisy/src/dev/mpr121.h **** 
 175:../../libs/libDaisy/src/dev/mpr121.h ****         return GetTransportErr();
 176:../../libs/libDaisy/src/dev/mpr121.h ****     }
 177:../../libs/libDaisy/src/dev/mpr121.h **** 
 178:../../libs/libDaisy/src/dev/mpr121.h ****     /** Set the touch and release thresholds for all 13 channels on the
 179:../../libs/libDaisy/src/dev/mpr121.h ****         device to the passed values.
 180:../../libs/libDaisy/src/dev/mpr121.h ****         \param      touch The touch threshold value from 0 to 255.
 181:../../libs/libDaisy/src/dev/mpr121.h ****         \param      release The release threshold from 0 to 255.
 182:../../libs/libDaisy/src/dev/mpr121.h ****     */
 183:../../libs/libDaisy/src/dev/mpr121.h ****     void SetThresholds(uint8_t touch, uint8_t release)
 184:../../libs/libDaisy/src/dev/mpr121.h ****     {
 185:../../libs/libDaisy/src/dev/mpr121.h ****         // set all thresholds (the same)
 186:../../libs/libDaisy/src/dev/mpr121.h ****         for(uint8_t i = 0; i < 12; i++)
 187:../../libs/libDaisy/src/dev/mpr121.h ****         {
 188:../../libs/libDaisy/src/dev/mpr121.h ****             WriteRegister(MPR121_TOUCHTH_0 + 2 * i, touch);
 189:../../libs/libDaisy/src/dev/mpr121.h ****             WriteRegister(MPR121_RELEASETH_0 + 2 * i, release);
 190:../../libs/libDaisy/src/dev/mpr121.h ****         }
 191:../../libs/libDaisy/src/dev/mpr121.h ****     }
 192:../../libs/libDaisy/src/dev/mpr121.h **** 
 193:../../libs/libDaisy/src/dev/mpr121.h **** 
 194:../../libs/libDaisy/src/dev/mpr121.h ****     /** Read the filtered data from channel t. The ADC raw data outputs
ARM GAS  C:\Users\skipi\AppData\Local\Temp\ccYcyPVo.s 			page 13


 195:../../libs/libDaisy/src/dev/mpr121.h ****         run through 3 levels of digital filtering to filter out the high
 196:../../libs/libDaisy/src/dev/mpr121.h ****         frequency and low frequency noise encountered. For detailed information on
 197:../../libs/libDaisy/src/dev/mpr121.h ****         this filtering see page 6 of the device datasheet.
 198:../../libs/libDaisy/src/dev/mpr121.h ****         \param      t the channel to read
 199:../../libs/libDaisy/src/dev/mpr121.h ****         \returns    the filtered reading as a 10 bit unsigned value
 200:../../libs/libDaisy/src/dev/mpr121.h ****     */
 201:../../libs/libDaisy/src/dev/mpr121.h ****     uint16_t FilteredData(uint8_t t)
 202:../../libs/libDaisy/src/dev/mpr121.h ****     {
 203:../../libs/libDaisy/src/dev/mpr121.h ****         if(t > 12)
 204:../../libs/libDaisy/src/dev/mpr121.h ****             return 0;
 205:../../libs/libDaisy/src/dev/mpr121.h ****         return ReadRegister16(MPR121_FILTDATA_0L + t * 2);
 206:../../libs/libDaisy/src/dev/mpr121.h ****     }
 207:../../libs/libDaisy/src/dev/mpr121.h **** 
 208:../../libs/libDaisy/src/dev/mpr121.h ****     /** Read the baseline value for the channel. The 3rd level filtered
 209:../../libs/libDaisy/src/dev/mpr121.h ****         result is internally 10bit but only high 8 bits are readable
 210:../../libs/libDaisy/src/dev/mpr121.h ****         from registers 0x1E~0x2A as the baseline value output for each channel.
 211:../../libs/libDaisy/src/dev/mpr121.h ****         \param      t the channel to read.
 212:../../libs/libDaisy/src/dev/mpr121.h ****         \returns    the baseline data that was read
 213:../../libs/libDaisy/src/dev/mpr121.h ****     */
 214:../../libs/libDaisy/src/dev/mpr121.h ****     uint16_t BaselineData(uint8_t t)
 215:../../libs/libDaisy/src/dev/mpr121.h ****     {
 216:../../libs/libDaisy/src/dev/mpr121.h ****         if(t > 12)
 217:../../libs/libDaisy/src/dev/mpr121.h ****             return 0;
 218:../../libs/libDaisy/src/dev/mpr121.h ****         uint16_t bl = ReadRegister8(MPR121_BASELINE_0 + t);
 219:../../libs/libDaisy/src/dev/mpr121.h ****         return (bl << 2);
 220:../../libs/libDaisy/src/dev/mpr121.h ****     }
 221:../../libs/libDaisy/src/dev/mpr121.h **** 
 222:../../libs/libDaisy/src/dev/mpr121.h ****     /** Read the touch status of all 13 channels as bit values in a 12 bit integer.
 223:../../libs/libDaisy/src/dev/mpr121.h ****         \returns    a 12 bit integer with each bit corresponding to the touch status
 224:../../libs/libDaisy/src/dev/mpr121.h ****         of a sensor. For example, if bit 0 is set then channel 0 of the
 225:../../libs/libDaisy/src/dev/mpr121.h ****         device is currently deemed to be touched.
 226:../../libs/libDaisy/src/dev/mpr121.h ****     */
 227:../../libs/libDaisy/src/dev/mpr121.h ****     uint16_t Touched()
 228:../../libs/libDaisy/src/dev/mpr121.h ****     {
 229:../../libs/libDaisy/src/dev/mpr121.h ****         uint16_t t = ReadRegister16(MPR121_TOUCHSTATUS_L);
 230:../../libs/libDaisy/src/dev/mpr121.h ****         return t & 0x0FFF;
 231:../../libs/libDaisy/src/dev/mpr121.h ****     }
 232:../../libs/libDaisy/src/dev/mpr121.h **** 
 233:../../libs/libDaisy/src/dev/mpr121.h ****     /** Read the contents of an 8 bit device register.
 234:../../libs/libDaisy/src/dev/mpr121.h ****         \param      reg the register address to read from
 235:../../libs/libDaisy/src/dev/mpr121.h ****         \returns    the 8 bit value that was read.
 236:../../libs/libDaisy/src/dev/mpr121.h ****     */
 237:../../libs/libDaisy/src/dev/mpr121.h ****     uint8_t ReadRegister8(uint8_t reg)
 238:../../libs/libDaisy/src/dev/mpr121.h ****     {
 239:../../libs/libDaisy/src/dev/mpr121.h ****         uint8_t buff;
 240:../../libs/libDaisy/src/dev/mpr121.h ****         SetTransportErr(transport_.ReadMem(&buff, reg, 1));
 241:../../libs/libDaisy/src/dev/mpr121.h ****         return buff;
 242:../../libs/libDaisy/src/dev/mpr121.h ****     }
 243:../../libs/libDaisy/src/dev/mpr121.h **** 
 244:../../libs/libDaisy/src/dev/mpr121.h ****     uint16_t ReadRegister16(uint8_t reg)
 245:../../libs/libDaisy/src/dev/mpr121.h ****     {
 246:../../libs/libDaisy/src/dev/mpr121.h ****         uint16_t buff;
 247:../../libs/libDaisy/src/dev/mpr121.h ****         SetTransportErr(transport_.ReadMem((uint8_t *)&buff, reg, 2));
 248:../../libs/libDaisy/src/dev/mpr121.h **** 
 249:../../libs/libDaisy/src/dev/mpr121.h **** 
 250:../../libs/libDaisy/src/dev/mpr121.h ****         return buff;
 251:../../libs/libDaisy/src/dev/mpr121.h ****     }
ARM GAS  C:\Users\skipi\AppData\Local\Temp\ccYcyPVo.s 			page 14


 252:../../libs/libDaisy/src/dev/mpr121.h **** 
 253:../../libs/libDaisy/src/dev/mpr121.h ****     /** Writes 8-bits to the specified destination register
 254:../../libs/libDaisy/src/dev/mpr121.h ****         \param  reg the register address to write to
 255:../../libs/libDaisy/src/dev/mpr121.h ****         \param  value the value to write
 256:../../libs/libDaisy/src/dev/mpr121.h ****     */
 257:../../libs/libDaisy/src/dev/mpr121.h ****     void WriteRegister(uint8_t reg, uint8_t value)
 114              		.loc 7 257 10 is_stmt 1 view -0
 115              		.cfi_startproc
 116              		@ args = 0, pretend = 0, frame = 8
 117              		@ frame_needed = 0, uses_anonymous_args = 0
 118              		.loc 7 257 10 is_stmt 0 view .LVU17
 119 0000 2DE9F043 		push	{r4, r5, r6, r7, r8, r9, lr}
 120              		.cfi_def_cfa_offset 28
 121              		.cfi_offset 4, -28
 122              		.cfi_offset 5, -24
 123              		.cfi_offset 6, -20
 124              		.cfi_offset 7, -16
 125              		.cfi_offset 8, -12
 126              		.cfi_offset 9, -8
 127              		.cfi_offset 14, -4
 258:../../libs/libDaisy/src/dev/mpr121.h ****     {
 259:../../libs/libDaisy/src/dev/mpr121.h ****         // MPR121 must be put in Stop Mode to write to most registers
 260:../../libs/libDaisy/src/dev/mpr121.h ****         bool stop_required = true;
 261:../../libs/libDaisy/src/dev/mpr121.h **** 
 262:../../libs/libDaisy/src/dev/mpr121.h ****         // first get the current set value of the MPR121_ECR register
 263:../../libs/libDaisy/src/dev/mpr121.h ****         uint8_t ecr_reg = MPR121_ECR;
 264:../../libs/libDaisy/src/dev/mpr121.h ****         uint8_t buff[2] = {ecr_reg, 0x00};
 128              		.loc 7 264 17 view .LVU18
 129 0004 0023     		movs	r3, #0
 257:../../libs/libDaisy/src/dev/mpr121.h ****     {
 130              		.loc 7 257 10 view .LVU19
 131 0006 85B0     		sub	sp, sp, #20
 132              		.cfi_def_cfa_offset 48
 133              	.LBB388:
 134              	.LBB389:
  66:../../libs/libDaisy/src/dev/mpr121.h ****     }
 135              		.loc 7 66 40 view .LVU20
 136 0008 00F11806 		add	r6, r0, #24
 137 000c 4FF00A08 		mov	r8, #10
 138              	.LBE389:
 139              	.LBE388:
 257:../../libs/libDaisy/src/dev/mpr121.h ****     {
 140              		.loc 7 257 10 view .LVU21
 141 0010 0446     		mov	r4, r0
 142              		.loc 7 264 17 view .LVU22
 143 0012 4FF05E09 		mov	r9, #94
 257:../../libs/libDaisy/src/dev/mpr121.h ****     {
 144              		.loc 7 257 10 view .LVU23
 145 0016 0D46     		mov	r5, r1
 146              		.loc 7 264 17 view .LVU24
 147 0018 8DF80D30 		strb	r3, [sp, #13]
 148              	.LBB393:
 149              	.LBB390:
  66:../../libs/libDaisy/src/dev/mpr121.h ****     }
 150              		.loc 7 66 40 view .LVU25
 151 001c CDF80080 		str	r8, [sp]
 152 0020 0123     		movs	r3, #1
ARM GAS  C:\Users\skipi\AppData\Local\Temp\ccYcyPVo.s 			page 15


 153 0022 90F82C10 		ldrb	r1, [r0, #44]	@ zero_extendqisi2
 154              	.LVL3:
  66:../../libs/libDaisy/src/dev/mpr121.h ****     }
 155              		.loc 7 66 40 view .LVU26
 156              	.LBE390:
 157              	.LBE393:
 257:../../libs/libDaisy/src/dev/mpr121.h ****     {
 158              		.loc 7 257 10 view .LVU27
 159 0026 1746     		mov	r7, r2
 160              	.LBB394:
 161              	.LBB391:
  66:../../libs/libDaisy/src/dev/mpr121.h ****     }
 162              		.loc 7 66 40 view .LVU28
 163 0028 3046     		mov	r0, r6
 164              	.LVL4:
  66:../../libs/libDaisy/src/dev/mpr121.h ****     }
 165              		.loc 7 66 40 view .LVU29
 166 002a 03AA     		add	r2, sp, #12
 167              	.LVL5:
  66:../../libs/libDaisy/src/dev/mpr121.h ****     }
 168              		.loc 7 66 40 view .LVU30
 169              	.LBE391:
 170              	.LBE394:
 171              		.loc 7 264 17 view .LVU31
 172 002c 8DF80C90 		strb	r9, [sp, #12]
 173              	.LVL6:
 174              	.LBB395:
 175              	.LBI388:
  63:../../libs/libDaisy/src/dev/mpr121.h ****     {
 176              		.loc 7 63 10 is_stmt 1 view .LVU32
 177              	.LBB392:
  65:../../libs/libDaisy/src/dev/mpr121.h ****                != i2c_.TransmitBlocking(config_.dev_addr, data, size, 10);
 178              		.loc 7 65 9 view .LVU33
  66:../../libs/libDaisy/src/dev/mpr121.h ****     }
 179              		.loc 7 66 40 is_stmt 0 view .LVU34
 180 0030 FFF7FEFF 		bl	_ZN5daisy9I2CHandle16TransmitBlockingEtPhtm
 181              	.LVL7:
  66:../../libs/libDaisy/src/dev/mpr121.h ****     }
 182              		.loc 7 66 40 view .LVU35
 183              	.LBE392:
 184              	.LBE395:
 185              	.LBB396:
 186              	.LBI396:
 265:../../libs/libDaisy/src/dev/mpr121.h **** 
 266:../../libs/libDaisy/src/dev/mpr121.h ****         SetTransportErr(transport_.Write(buff, 1));
 267:../../libs/libDaisy/src/dev/mpr121.h **** 
 268:../../libs/libDaisy/src/dev/mpr121.h ****         uint8_t ecr_backup;
 269:../../libs/libDaisy/src/dev/mpr121.h ****         SetTransportErr(transport_.Read(&ecr_backup, 1));
 270:../../libs/libDaisy/src/dev/mpr121.h ****         if((reg == MPR121_ECR) || ((0x73 <= reg) && (reg <= 0x7A)))
 271:../../libs/libDaisy/src/dev/mpr121.h ****         {
 272:../../libs/libDaisy/src/dev/mpr121.h ****             stop_required = false;
 273:../../libs/libDaisy/src/dev/mpr121.h ****         }
 274:../../libs/libDaisy/src/dev/mpr121.h **** 
 275:../../libs/libDaisy/src/dev/mpr121.h ****         if(stop_required)
 276:../../libs/libDaisy/src/dev/mpr121.h ****         {
 277:../../libs/libDaisy/src/dev/mpr121.h ****             // clear this register to set stop mode
 278:../../libs/libDaisy/src/dev/mpr121.h ****             SetTransportErr(transport_.Write(buff, 2));
ARM GAS  C:\Users\skipi\AppData\Local\Temp\ccYcyPVo.s 			page 16


 279:../../libs/libDaisy/src/dev/mpr121.h ****         }
 280:../../libs/libDaisy/src/dev/mpr121.h **** 
 281:../../libs/libDaisy/src/dev/mpr121.h ****         buff[0] = reg;
 282:../../libs/libDaisy/src/dev/mpr121.h ****         buff[1] = value;
 283:../../libs/libDaisy/src/dev/mpr121.h ****         SetTransportErr(transport_.Write(buff, 2));
 284:../../libs/libDaisy/src/dev/mpr121.h **** 
 285:../../libs/libDaisy/src/dev/mpr121.h ****         if(stop_required)
 286:../../libs/libDaisy/src/dev/mpr121.h ****         {
 287:../../libs/libDaisy/src/dev/mpr121.h ****             // write back the previous set ECR settings
 288:../../libs/libDaisy/src/dev/mpr121.h ****             buff[0] = ecr_reg;
 289:../../libs/libDaisy/src/dev/mpr121.h ****             buff[1] = ecr_backup;
 290:../../libs/libDaisy/src/dev/mpr121.h ****             SetTransportErr(transport_.Write(buff, 2));
 291:../../libs/libDaisy/src/dev/mpr121.h ****         }
 292:../../libs/libDaisy/src/dev/mpr121.h ****     }
 293:../../libs/libDaisy/src/dev/mpr121.h **** 
 294:../../libs/libDaisy/src/dev/mpr121.h ****     /** Device register map */
 295:../../libs/libDaisy/src/dev/mpr121.h ****     enum RegMap
 296:../../libs/libDaisy/src/dev/mpr121.h ****     {
 297:../../libs/libDaisy/src/dev/mpr121.h ****         MPR121_TOUCHSTATUS_L = 0x00,
 298:../../libs/libDaisy/src/dev/mpr121.h ****         MPR121_TOUCHSTATUS_H = 0x01,
 299:../../libs/libDaisy/src/dev/mpr121.h ****         MPR121_FILTDATA_0L   = 0x04,
 300:../../libs/libDaisy/src/dev/mpr121.h ****         MPR121_FILTDATA_0H   = 0x05,
 301:../../libs/libDaisy/src/dev/mpr121.h ****         MPR121_BASELINE_0    = 0x1E,
 302:../../libs/libDaisy/src/dev/mpr121.h ****         MPR121_MHDR          = 0x2B,
 303:../../libs/libDaisy/src/dev/mpr121.h ****         MPR121_NHDR          = 0x2C,
 304:../../libs/libDaisy/src/dev/mpr121.h ****         MPR121_NCLR          = 0x2D,
 305:../../libs/libDaisy/src/dev/mpr121.h ****         MPR121_FDLR          = 0x2E,
 306:../../libs/libDaisy/src/dev/mpr121.h ****         MPR121_MHDF          = 0x2F,
 307:../../libs/libDaisy/src/dev/mpr121.h ****         MPR121_NHDF          = 0x30,
 308:../../libs/libDaisy/src/dev/mpr121.h ****         MPR121_NCLF          = 0x31,
 309:../../libs/libDaisy/src/dev/mpr121.h ****         MPR121_FDLF          = 0x32,
 310:../../libs/libDaisy/src/dev/mpr121.h ****         MPR121_NHDT          = 0x33,
 311:../../libs/libDaisy/src/dev/mpr121.h ****         MPR121_NCLT          = 0x34,
 312:../../libs/libDaisy/src/dev/mpr121.h ****         MPR121_FDLT          = 0x35,
 313:../../libs/libDaisy/src/dev/mpr121.h **** 
 314:../../libs/libDaisy/src/dev/mpr121.h ****         MPR121_TOUCHTH_0    = 0x41,
 315:../../libs/libDaisy/src/dev/mpr121.h ****         MPR121_RELEASETH_0  = 0x42,
 316:../../libs/libDaisy/src/dev/mpr121.h ****         MPR121_DEBOUNCE     = 0x5B,
 317:../../libs/libDaisy/src/dev/mpr121.h ****         MPR121_CONFIG1      = 0x5C,
 318:../../libs/libDaisy/src/dev/mpr121.h ****         MPR121_CONFIG2      = 0x5D,
 319:../../libs/libDaisy/src/dev/mpr121.h ****         MPR121_CHARGECURR_0 = 0x5F,
 320:../../libs/libDaisy/src/dev/mpr121.h ****         MPR121_CHARGETIME_1 = 0x6C,
 321:../../libs/libDaisy/src/dev/mpr121.h ****         MPR121_ECR          = 0x5E,
 322:../../libs/libDaisy/src/dev/mpr121.h ****         MPR121_AUTOCONFIG0  = 0x7B,
 323:../../libs/libDaisy/src/dev/mpr121.h ****         MPR121_AUTOCONFIG1  = 0x7C,
 324:../../libs/libDaisy/src/dev/mpr121.h ****         MPR121_UPLIMIT      = 0x7D,
 325:../../libs/libDaisy/src/dev/mpr121.h ****         MPR121_LOWLIMIT     = 0x7E,
 326:../../libs/libDaisy/src/dev/mpr121.h ****         MPR121_TARGETLIMIT  = 0x7F,
 327:../../libs/libDaisy/src/dev/mpr121.h **** 
 328:../../libs/libDaisy/src/dev/mpr121.h ****         MPR121_GPIODIR    = 0x76,
 329:../../libs/libDaisy/src/dev/mpr121.h ****         MPR121_GPIOEN     = 0x77,
 330:../../libs/libDaisy/src/dev/mpr121.h ****         MPR121_GPIOSET    = 0x78,
 331:../../libs/libDaisy/src/dev/mpr121.h ****         MPR121_GPIOCLR    = 0x79,
 332:../../libs/libDaisy/src/dev/mpr121.h ****         MPR121_GPIOTOGGLE = 0x7A,
 333:../../libs/libDaisy/src/dev/mpr121.h **** 
 334:../../libs/libDaisy/src/dev/mpr121.h ****         MPR121_SOFTRESET = 0x80,
 335:../../libs/libDaisy/src/dev/mpr121.h ****     };
ARM GAS  C:\Users\skipi\AppData\Local\Temp\ccYcyPVo.s 			page 17


 336:../../libs/libDaisy/src/dev/mpr121.h **** 
 337:../../libs/libDaisy/src/dev/mpr121.h ****   private:
 338:../../libs/libDaisy/src/dev/mpr121.h ****     Config    config_;
 339:../../libs/libDaisy/src/dev/mpr121.h ****     Transport transport_;
 340:../../libs/libDaisy/src/dev/mpr121.h ****     bool      transport_error_;
 341:../../libs/libDaisy/src/dev/mpr121.h **** 
 342:../../libs/libDaisy/src/dev/mpr121.h ****     /** Set the global transport_error_ bool */
 343:../../libs/libDaisy/src/dev/mpr121.h ****     void SetTransportErr(bool err) { transport_error_ |= err; }
 187              		.loc 7 343 10 is_stmt 1 view .LVU36
 188              	.LBE396:
 189              	.LBB400:
 190              	.LBB401:
  73:../../libs/libDaisy/src/dev/mpr121.h ****     }
 191              		.loc 7 73 39 is_stmt 0 view .LVU37
 192 0034 CDF80080 		str	r8, [sp]
 193 0038 0DF10B02 		add	r2, sp, #11
 194              	.LBE401:
 195              	.LBE400:
 196              	.LBB405:
 197              	.LBB397:
 198              		.loc 7 343 55 view .LVU38
 199 003c 94F83030 		ldrb	r3, [r4, #48]	@ zero_extendqisi2
 200              	.LBE397:
 201              	.LBE405:
 202              	.LBB406:
 203              	.LBB402:
  73:../../libs/libDaisy/src/dev/mpr121.h ****     }
 204              		.loc 7 73 39 view .LVU39
 205 0040 94F82C10 		ldrb	r1, [r4, #44]	@ zero_extendqisi2
 206              	.LBE402:
 207              	.LBE406:
 208              	.LBB407:
 209              	.LBB398:
 210              		.loc 7 343 55 view .LVU40
 211 0044 0028     		cmp	r0, #0
 212 0046 18BF     		it	ne
 213 0048 43F00103 		orrne	r3, r3, #1
 214              	.LBE398:
 215              	.LBE407:
 216              	.LBB408:
 217              	.LBB403:
  73:../../libs/libDaisy/src/dev/mpr121.h ****     }
 218              		.loc 7 73 39 view .LVU41
 219 004c 3046     		mov	r0, r6
 220              	.LVL8:
  73:../../libs/libDaisy/src/dev/mpr121.h ****     }
 221              		.loc 7 73 39 view .LVU42
 222              	.LBE403:
 223              	.LBE408:
 224              	.LBB409:
 225              	.LBB399:
 226              		.loc 7 343 55 view .LVU43
 227 004e 84F83030 		strb	r3, [r4, #48]
 228              	.LVL9:
 229              		.loc 7 343 55 view .LVU44
 230              	.LBE399:
 231              	.LBE409:
ARM GAS  C:\Users\skipi\AppData\Local\Temp\ccYcyPVo.s 			page 18


 232              	.LBB410:
 233              	.LBI400:
  70:../../libs/libDaisy/src/dev/mpr121.h ****     {
 234              		.loc 7 70 10 is_stmt 1 view .LVU45
 235              	.LBB404:
  72:../../libs/libDaisy/src/dev/mpr121.h ****                != i2c_.ReceiveBlocking(config_.dev_addr, data, size, 10);
 236              		.loc 7 72 9 view .LVU46
  73:../../libs/libDaisy/src/dev/mpr121.h ****     }
 237              		.loc 7 73 39 is_stmt 0 view .LVU47
 238 0052 0123     		movs	r3, #1
 239 0054 FFF7FEFF 		bl	_ZN5daisy9I2CHandle15ReceiveBlockingEtPhtm
 240              	.LVL10:
  73:../../libs/libDaisy/src/dev/mpr121.h ****     }
 241              		.loc 7 73 39 view .LVU48
 242              	.LBE404:
 243              	.LBE410:
 244              	.LBB411:
 245              	.LBI411:
 246              		.loc 7 343 10 is_stmt 1 view .LVU49
 247              	.LBB412:
 248              		.loc 7 343 55 is_stmt 0 view .LVU50
 249 0058 94F83030 		ldrb	r3, [r4, #48]	@ zero_extendqisi2
 250 005c 0028     		cmp	r0, #0
 251 005e 18BF     		it	ne
 252 0060 43F00103 		orrne	r3, r3, #1
 253 0064 84F83030 		strb	r3, [r4, #48]
 254              	.LVL11:
 255              		.loc 7 343 55 view .LVU51
 256              	.LBE412:
 257              	.LBE411:
 270:../../libs/libDaisy/src/dev/mpr121.h ****         {
 258              		.loc 7 270 50 view .LVU52
 259 0068 A5F17303 		sub	r3, r5, #115
 270:../../libs/libDaisy/src/dev/mpr121.h ****         {
 260              		.loc 7 270 9 view .LVU53
 261 006c 072B     		cmp	r3, #7
 262 006e 01D9     		bls	.L5
 263 0070 4D45     		cmp	r5, r9
 264 0072 17D1     		bne	.L9
 265              	.L5:
 266              	.LVL12:
 267              	.LBB413:
 268              	.LBB414:
  66:../../libs/libDaisy/src/dev/mpr121.h ****     }
 269              		.loc 7 66 40 view .LVU54
 270 0074 0A23     		movs	r3, #10
 271 0076 03AA     		add	r2, sp, #12
 272 0078 3046     		mov	r0, r6
 273              	.LBE414:
 274              	.LBE413:
 281:../../libs/libDaisy/src/dev/mpr121.h ****         buff[1] = value;
 275              		.loc 7 281 17 view .LVU55
 276 007a 8DF80C50 		strb	r5, [sp, #12]
 277              	.LBB423:
 278              	.LBB415:
  66:../../libs/libDaisy/src/dev/mpr121.h ****     }
 279              		.loc 7 66 40 view .LVU56
ARM GAS  C:\Users\skipi\AppData\Local\Temp\ccYcyPVo.s 			page 19


 280 007e 0093     		str	r3, [sp]
 281 0080 0223     		movs	r3, #2
 282              	.LBE415:
 283              	.LBE423:
 282:../../libs/libDaisy/src/dev/mpr121.h ****         SetTransportErr(transport_.Write(buff, 2));
 284              		.loc 7 282 17 view .LVU57
 285 0082 8DF80D70 		strb	r7, [sp, #13]
 286              	.LVL13:
 287              	.LBB424:
 288              	.LBI413:
  63:../../libs/libDaisy/src/dev/mpr121.h ****     {
 289              		.loc 7 63 10 is_stmt 1 view .LVU58
 290              	.LBB416:
  65:../../libs/libDaisy/src/dev/mpr121.h ****                != i2c_.TransmitBlocking(config_.dev_addr, data, size, 10);
 291              		.loc 7 65 9 view .LVU59
 292              	.L8:
  66:../../libs/libDaisy/src/dev/mpr121.h ****     }
 293              		.loc 7 66 40 is_stmt 0 view .LVU60
 294 0086 94F82C10 		ldrb	r1, [r4, #44]	@ zero_extendqisi2
 295 008a FFF7FEFF 		bl	_ZN5daisy9I2CHandle16TransmitBlockingEtPhtm
 296              	.LVL14:
  66:../../libs/libDaisy/src/dev/mpr121.h ****     }
 297              		.loc 7 66 40 view .LVU61
 298              	.LBE416:
 299              	.LBE424:
 300              	.LBB425:
 301              	.LBI425:
 302              		.loc 7 343 10 is_stmt 1 view .LVU62
 303              	.LBB426:
 304              		.loc 7 343 55 is_stmt 0 view .LVU63
 305 008e 94F83030 		ldrb	r3, [r4, #48]	@ zero_extendqisi2
 306 0092 0028     		cmp	r0, #0
 307 0094 18BF     		it	ne
 308 0096 43F00103 		orrne	r3, r3, #1
 309 009a 84F83030 		strb	r3, [r4, #48]
 310              	.LVL15:
 311              		.loc 7 343 55 view .LVU64
 312              	.LBE426:
 313              	.LBE425:
 292:../../libs/libDaisy/src/dev/mpr121.h **** 
 314              		.loc 7 292 5 view .LVU65
 315 009e 05B0     		add	sp, sp, #20
 316              		.cfi_remember_state
 317              		.cfi_def_cfa_offset 28
 318              		@ sp needed
 319 00a0 BDE8F083 		pop	{r4, r5, r6, r7, r8, r9, pc}
 320              	.LVL16:
 321              	.L9:
 322              		.cfi_restore_state
 323              	.LBB430:
 324              	.LBI430:
  63:../../libs/libDaisy/src/dev/mpr121.h ****     {
 325              		.loc 7 63 10 is_stmt 1 view .LVU66
 326              	.LBB431:
  65:../../libs/libDaisy/src/dev/mpr121.h ****                != i2c_.TransmitBlocking(config_.dev_addr, data, size, 10);
 327              		.loc 7 65 9 view .LVU67
  66:../../libs/libDaisy/src/dev/mpr121.h ****     }
ARM GAS  C:\Users\skipi\AppData\Local\Temp\ccYcyPVo.s 			page 20


 328              		.loc 7 66 40 is_stmt 0 view .LVU68
 329 00a4 0223     		movs	r3, #2
 330 00a6 03AA     		add	r2, sp, #12
 331              	.LVL17:
  66:../../libs/libDaisy/src/dev/mpr121.h ****     }
 332              		.loc 7 66 40 view .LVU69
 333 00a8 CDF80080 		str	r8, [sp]
 334 00ac 3046     		mov	r0, r6
 335 00ae 94F82C10 		ldrb	r1, [r4, #44]	@ zero_extendqisi2
 336 00b2 FFF7FEFF 		bl	_ZN5daisy9I2CHandle16TransmitBlockingEtPhtm
 337              	.LVL18:
  66:../../libs/libDaisy/src/dev/mpr121.h ****     }
 338              		.loc 7 66 40 view .LVU70
 339              	.LBE431:
 340              	.LBE430:
 341              	.LBB432:
 342              	.LBI432:
 343              		.loc 7 343 10 is_stmt 1 view .LVU71
 344              	.LBE432:
 345              	.LBB436:
 346              	.LBB417:
  66:../../libs/libDaisy/src/dev/mpr121.h ****     }
 347              		.loc 7 66 40 is_stmt 0 view .LVU72
 348 00b6 CDF80080 		str	r8, [sp]
 349              	.LBE417:
 350              	.LBE436:
 351              	.LBB437:
 352              	.LBB433:
 353              		.loc 7 343 55 view .LVU73
 354 00ba 94F83030 		ldrb	r3, [r4, #48]	@ zero_extendqisi2
 355              	.LBE433:
 356              	.LBE437:
 357              	.LBB438:
 358              	.LBB418:
  66:../../libs/libDaisy/src/dev/mpr121.h ****     }
 359              		.loc 7 66 40 view .LVU74
 360 00be 03AA     		add	r2, sp, #12
 361 00c0 94F82C10 		ldrb	r1, [r4, #44]	@ zero_extendqisi2
 362              	.LBE418:
 363              	.LBE438:
 364              	.LBB439:
 365              	.LBB434:
 366              		.loc 7 343 55 view .LVU75
 367 00c4 0028     		cmp	r0, #0
 368 00c6 18BF     		it	ne
 369 00c8 43F00103 		orrne	r3, r3, #1
 370              	.LBE434:
 371              	.LBE439:
 372              	.LBB440:
 373              	.LBB419:
  66:../../libs/libDaisy/src/dev/mpr121.h ****     }
 374              		.loc 7 66 40 view .LVU76
 375 00cc 3046     		mov	r0, r6
 376              	.LVL19:
  66:../../libs/libDaisy/src/dev/mpr121.h ****     }
 377              		.loc 7 66 40 view .LVU77
 378              	.LBE419:
ARM GAS  C:\Users\skipi\AppData\Local\Temp\ccYcyPVo.s 			page 21


 379              	.LBE440:
 281:../../libs/libDaisy/src/dev/mpr121.h ****         buff[1] = value;
 380              		.loc 7 281 17 view .LVU78
 381 00ce 8DF80C50 		strb	r5, [sp, #12]
 382              	.LBB441:
 383              	.LBB435:
 384              		.loc 7 343 55 view .LVU79
 385 00d2 84F83030 		strb	r3, [r4, #48]
 386              	.LVL20:
 387              		.loc 7 343 55 view .LVU80
 388              	.LBE435:
 389              	.LBE441:
 390              	.LBB442:
  63:../../libs/libDaisy/src/dev/mpr121.h ****     {
 391              		.loc 7 63 10 is_stmt 1 view .LVU81
 392              	.LBB420:
  65:../../libs/libDaisy/src/dev/mpr121.h ****                != i2c_.TransmitBlocking(config_.dev_addr, data, size, 10);
 393              		.loc 7 65 9 view .LVU82
  66:../../libs/libDaisy/src/dev/mpr121.h ****     }
 394              		.loc 7 66 40 is_stmt 0 view .LVU83
 395 00d6 0223     		movs	r3, #2
 396              	.LBE420:
 397              	.LBE442:
 282:../../libs/libDaisy/src/dev/mpr121.h ****         SetTransportErr(transport_.Write(buff, 2));
 398              		.loc 7 282 17 view .LVU84
 399 00d8 8DF80D70 		strb	r7, [sp, #13]
 400              	.LBB443:
 401              	.LBB421:
  66:../../libs/libDaisy/src/dev/mpr121.h ****     }
 402              		.loc 7 66 40 view .LVU85
 403 00dc FFF7FEFF 		bl	_ZN5daisy9I2CHandle16TransmitBlockingEtPhtm
 404              	.LVL21:
  66:../../libs/libDaisy/src/dev/mpr121.h ****     }
 405              		.loc 7 66 40 view .LVU86
 406              	.LBE421:
 407              	.LBE443:
 408              	.LBB444:
 409              	.LBB445:
 410 00e0 CDF80080 		str	r8, [sp]
 411              	.LBE445:
 412              	.LBE444:
 413              	.LBB450:
 414              	.LBB422:
 415 00e4 0546     		mov	r5, r0
 416              	.LVL22:
  66:../../libs/libDaisy/src/dev/mpr121.h ****     }
 417              		.loc 7 66 40 view .LVU87
 418              	.LBE422:
 419              	.LBE450:
 420              	.LBB451:
 421              		.loc 7 343 10 is_stmt 1 view .LVU88
 422              	.LBB427:
 423              		.loc 7 343 55 is_stmt 0 view .LVU89
 424 00e6 94F83010 		ldrb	r1, [r4, #48]	@ zero_extendqisi2
 425              	.LBE427:
 426              	.LBE451:
 427              	.LBB452:
ARM GAS  C:\Users\skipi\AppData\Local\Temp\ccYcyPVo.s 			page 22


 428              	.LBB446:
  66:../../libs/libDaisy/src/dev/mpr121.h ****     }
 429              		.loc 7 66 40 view .LVU90
 430 00ea 03AA     		add	r2, sp, #12
 431              	.LBE446:
 432              	.LBE452:
 289:../../libs/libDaisy/src/dev/mpr121.h ****             SetTransportErr(transport_.Write(buff, 2));
 433              		.loc 7 289 21 view .LVU91
 434 00ec 9DF80B30 		ldrb	r3, [sp, #11]	@ zero_extendqisi2
 435              	.LBB453:
 436              	.LBB447:
  66:../../libs/libDaisy/src/dev/mpr121.h ****     }
 437              		.loc 7 66 40 view .LVU92
 438 00f0 3046     		mov	r0, r6
 439              	.LVL23:
  66:../../libs/libDaisy/src/dev/mpr121.h ****     }
 440              		.loc 7 66 40 view .LVU93
 441              	.LBE447:
 442              	.LBE453:
 443              	.LBB454:
 444              	.LBB428:
 445              		.loc 7 343 55 view .LVU94
 446 00f2 002D     		cmp	r5, #0
 447 00f4 18BF     		it	ne
 448 00f6 41F00101 		orrne	r1, r1, #1
 449              	.LBE428:
 450              	.LBE454:
 288:../../libs/libDaisy/src/dev/mpr121.h ****             buff[1] = ecr_backup;
 451              		.loc 7 288 21 view .LVU95
 452 00fa 8DF80C90 		strb	r9, [sp, #12]
 289:../../libs/libDaisy/src/dev/mpr121.h ****             SetTransportErr(transport_.Write(buff, 2));
 453              		.loc 7 289 21 view .LVU96
 454 00fe 8DF80D30 		strb	r3, [sp, #13]
 455              	.LBB455:
 456              	.LBB448:
  66:../../libs/libDaisy/src/dev/mpr121.h ****     }
 457              		.loc 7 66 40 view .LVU97
 458 0102 0223     		movs	r3, #2
 459              	.LBE448:
 460              	.LBE455:
 461              	.LBB456:
 462              	.LBB429:
 463              		.loc 7 343 55 view .LVU98
 464 0104 84F83010 		strb	r1, [r4, #48]
 465              	.LVL24:
 466              		.loc 7 343 55 view .LVU99
 467              	.LBE429:
 468              	.LBE456:
 469              	.LBB457:
 470              	.LBI444:
  63:../../libs/libDaisy/src/dev/mpr121.h ****     {
 471              		.loc 7 63 10 is_stmt 1 view .LVU100
 472              	.LBB449:
  65:../../libs/libDaisy/src/dev/mpr121.h ****                != i2c_.TransmitBlocking(config_.dev_addr, data, size, 10);
 473              		.loc 7 65 9 view .LVU101
 474 0108 BDE7     		b	.L8
 475              	.LBE449:
ARM GAS  C:\Users\skipi\AppData\Local\Temp\ccYcyPVo.s 			page 23


 476              	.LBE457:
 477              		.cfi_endproc
 478              	.LFE5278:
 480 010a 00BF     		.section	.rodata.main.str1.4,"aMS",%progbits,1
 481              		.align	2
 482              	.LC0:
 483 0000 4D505231 		.ascii	"MPR121 not found, check wiring?\000"
 483      3231206E 
 483      6F742066 
 483      6F756E64 
 483      2C206368 
 484              		.align	2
 485              	.LC1:
 486 0020 4D505231 		.ascii	"MPR121 found!\000"
 486      32312066 
 486      6F756E64 
 486      2100
 487 002e 0000     		.align	2
 488              	.LC2:
 489 0030 2D2D2D2D 		.ascii	"---------------------------------------------------"
 489      2D2D2D2D 
 489      2D2D2D2D 
 489      2D2D2D2D 
 489      2D2D2D2D 
 490 0063 2D2D2D2D 		.ascii	"-----------------------------\000"
 490      2D2D2D2D 
 490      2D2D2D2D 
 490      2D2D2D2D 
 490      2D2D2D2D 
 491 0081 000000   		.align	2
 492              	.LC3:
 493 0084 43415020 		.ascii	"CAP 0 touched\000"
 493      3020746F 
 493      75636865 
 493      6400
 494 0092 0000     		.align	2
 495              	.LC4:
 496 0094 7C2000   		.ascii	"| \000"
 497 0097 00       		.align	2
 498              	.LC5:
 499 0098 7C204261 		.ascii	"| Baseline Touched Value : %d |\000"
 499      73656C69 
 499      6E652054 
 499      6F756368 
 499      65642056 
 500              		.align	2
 501              	.LC6:
 502 00b8 7C204669 		.ascii	"| Filtered Touched Value : %d |\000"
 502      6C746572 
 502      65642054 
 502      6F756368 
 502      65642056 
 503              		.align	2
 504              	.LC7:
 505 00d8 7C204469 		.ascii	"| Difference Touched Value : %d |\000"
 505      66666572 
 505      656E6365 
ARM GAS  C:\Users\skipi\AppData\Local\Temp\ccYcyPVo.s 			page 24


 505      20546F75 
 505      63686564 
 506 00fa 0000     		.align	2
 507              	.LC8:
 508 00fc 7C204669 		.ascii	"| Filtered Difference Touched Value : %f |\000"
 508      6C746572 
 508      65642044 
 508      69666665 
 508      72656E63 
 509 0127 00       		.align	2
 510              	.LC9:
 511 0128 43415020 		.ascii	"CAP 0 released\000"
 511      30207265 
 511      6C656173 
 511      656400
 512 0137 00       		.align	2
 513              	.LC10:
 514 0138 2000     		.ascii	" \000"
 515 013a 0000     		.align	2
 516              	.LC11:
 517 013c 42617365 		.ascii	"Baseline Untouched Value : %d\000"
 517      6C696E65 
 517      20556E74 
 517      6F756368 
 517      65642056 
 518 015a 0000     		.align	2
 519              	.LC12:
 520 015c 46696C74 		.ascii	"Filtered Untouched Value : %d\000"
 520      65726564 
 520      20556E74 
 520      6F756368 
 520      65642056 
 521 017a 0000     		.align	2
 522              	.LC13:
 523 017c 44696666 		.ascii	"Difference Untouched Value : %d\000"
 523      6572656E 
 523      63652055 
 523      6E746F75 
 523      63686564 
 524              		.align	2
 525              	.LC14:
 526 019c 46696C74 		.ascii	"Filtered Difference Untouched Value : %f\000"
 526      65726564 
 526      20446966 
 526      66657265 
 526      6E636520 
 527              		.section	.text.startup.main,"ax",%progbits
 528              		.align	1
 529              		.p2align 2,,3
 530              		.global	main
 531              		.syntax unified
 532              		.thumb
 533              		.thumb_func
 534              		.fpu fpv5-d16
 536              	main:
 537              	.LFB4840:
 538              		.file 8 "main0.cpp"
ARM GAS  C:\Users\skipi\AppData\Local\Temp\ccYcyPVo.s 			page 25


   1:main0.cpp     **** #include "../../libs/libDaisy/src/daisy_seed.h"
   2:main0.cpp     **** #include "../../libs/DaisySP/Source/daisysp.h"
   3:main0.cpp     **** #include "../../Classes/FIIR/CapFir.h"
   4:main0.cpp     **** 
   5:main0.cpp     **** #ifndef _BV // used to mask registers' bits related to the channel
   6:main0.cpp     **** #define _BV(bit) (1 << (bit))
   7:main0.cpp     **** #endif
   8:main0.cpp     **** 
   9:main0.cpp     **** using namespace daisy;
  10:main0.cpp     **** using namespace daisysp;
  11:main0.cpp     **** //--OLD ARDUINO: Adafruit_MPR121 cap = Adafruit_MPR121();
  12:main0.cpp     **** 
  13:main0.cpp     **** daisy::Mpr121I2C::Config mpr121ObjConf;                       // creates config for mpr121 (constru
  14:main0.cpp     **** 
  15:main0.cpp     **** daisy::Mpr121I2C cap;                                         // creates object for mpr121
  16:main0.cpp     **** 
  17:main0.cpp     **** DaisySeed hw;
  18:main0.cpp     **** 
  19:main0.cpp     **** CapFir filter;                                                   // creates object for the CapFir f
  20:main0.cpp     **** 
  21:main0.cpp     **** uint16_t lasttouched = 0;                                     // used to store the last touched val
  22:main0.cpp     **** uint16_t currtouched = 0;                                     // used to store the current touched 
  23:main0.cpp     **** 
  24:main0.cpp     **** bool touched = false;                                          // used to check if the cap was touc
  25:main0.cpp     **** 
  26:main0.cpp     **** int main()
  27:main0.cpp     **** {
 539              		.loc 8 27 1 view -0
 540              		.cfi_startproc
 541              		@ Volatile: function does not return.
 542              		@ args = 0, pretend = 0, frame = 64
 543              		@ frame_needed = 0, uses_anonymous_args = 0
  28:main0.cpp     **** 
  29:main0.cpp     ****   
  30:main0.cpp     ****   hw.Configure();
 544              		.loc 8 30 3 view .LVU103
  27:main0.cpp     **** 
 545              		.loc 8 27 1 is_stmt 0 view .LVU104
 546 0000 2DE98048 		push	{r7, fp, lr}
 547              		.cfi_def_cfa_offset 12
 548              		.cfi_offset 7, -12
 549              		.cfi_offset 11, -8
 550              		.cfi_offset 14, -4
 551              		.loc 8 30 15 view .LVU105
 552 0004 CA48     		ldr	r0, .L25
  27:main0.cpp     **** 
 553              		.loc 8 27 1 view .LVU106
 554 0006 95B0     		sub	sp, sp, #84
 555              		.cfi_def_cfa_offset 96
 556              		.loc 8 30 15 view .LVU107
 557 0008 FFF7FEFF 		bl	_ZN5daisy9DaisySeed9ConfigureEv
 558              	.LVL25:
  31:main0.cpp     ****   hw.Init();
 559              		.loc 8 31 3 is_stmt 1 view .LVU108
 560 000c C94C     		ldr	r4, .L25+4
 561              		.loc 8 31 10 is_stmt 0 view .LVU109
 562 000e 0021     		movs	r1, #0
ARM GAS  C:\Users\skipi\AppData\Local\Temp\ccYcyPVo.s 			page 26


 563 0010 C748     		ldr	r0, .L25
 564 0012 FFF7FEFF 		bl	_ZN5daisy9DaisySeed4InitEb
 565              	.LVL26:
  32:main0.cpp     ****   
  33:main0.cpp     **** 
  34:main0.cpp     ****   hw.StartLog(true);                                                            // starts the log t
 566              		.loc 8 34 3 is_stmt 1 view .LVU110
 567              	.LBB692:
 568              	.LBI692:
  23:../../libs/libDaisy/src/daisy_seed.h **** 
  24:../../libs/libDaisy/src/daisy_seed.h ****     /** This function used to provide a pre-initialization configuraiton 
  25:../../libs/libDaisy/src/daisy_seed.h ****      *  it has since been deprecated, and does nothing.
  26:../../libs/libDaisy/src/daisy_seed.h ****      */
  27:../../libs/libDaisy/src/daisy_seed.h ****     void Configure();
  28:../../libs/libDaisy/src/daisy_seed.h **** 
  29:../../libs/libDaisy/src/daisy_seed.h ****     /** 
  30:../../libs/libDaisy/src/daisy_seed.h ****     Initializes the Daisy Seed and the following peripherals:
  31:../../libs/libDaisy/src/daisy_seed.h ****     SDRAM, QSPI, 24-bit 48kHz Audio via AK4556, Internal USB,
  32:../../libs/libDaisy/src/daisy_seed.h ****     as well as the built-in LED and Testpoint.
  33:../../libs/libDaisy/src/daisy_seed.h **** 
  34:../../libs/libDaisy/src/daisy_seed.h ****     ADCs, DACs, and other special peripherals (such as I2C, SPI, etc.)
  35:../../libs/libDaisy/src/daisy_seed.h ****     can be initialized using their specific initializers within libdaisy
  36:../../libs/libDaisy/src/daisy_seed.h ****     for a specific application.
  37:../../libs/libDaisy/src/daisy_seed.h ****     */
  38:../../libs/libDaisy/src/daisy_seed.h ****     void Init(bool boost = false);
  39:../../libs/libDaisy/src/daisy_seed.h **** 
  40:../../libs/libDaisy/src/daisy_seed.h ****     /** 
  41:../../libs/libDaisy/src/daisy_seed.h ****     Deinitializes all peripherals automatically handled by `Init`.
  42:../../libs/libDaisy/src/daisy_seed.h ****     */
  43:../../libs/libDaisy/src/daisy_seed.h ****     void DeInit();
  44:../../libs/libDaisy/src/daisy_seed.h **** 
  45:../../libs/libDaisy/src/daisy_seed.h ****     /** 
  46:../../libs/libDaisy/src/daisy_seed.h ****     Wait some ms before going on.
  47:../../libs/libDaisy/src/daisy_seed.h ****     \param del Delay time in ms.
  48:../../libs/libDaisy/src/daisy_seed.h ****     */
  49:../../libs/libDaisy/src/daisy_seed.h ****     void DelayMs(size_t del);
  50:../../libs/libDaisy/src/daisy_seed.h **** 
  51:../../libs/libDaisy/src/daisy_seed.h ****     /** 
  52:../../libs/libDaisy/src/daisy_seed.h ****     Returns the gpio_pin corresponding to the index 0-31.
  53:../../libs/libDaisy/src/daisy_seed.h ****     For the given GPIO on the Daisy Seed (labeled 1-32 in docs).
  54:../../libs/libDaisy/src/daisy_seed.h ****     */
  55:../../libs/libDaisy/src/daisy_seed.h ****     static Pin GetPin(uint8_t pin_idx);
  56:../../libs/libDaisy/src/daisy_seed.h **** 
  57:../../libs/libDaisy/src/daisy_seed.h ****     /** Begins the audio for the seeds builtin audio.
  58:../../libs/libDaisy/src/daisy_seed.h ****     the specified callback will get called whenever
  59:../../libs/libDaisy/src/daisy_seed.h ****     new data is ready to be prepared.
  60:../../libs/libDaisy/src/daisy_seed.h ****     */
  61:../../libs/libDaisy/src/daisy_seed.h ****     void StartAudio(AudioHandle::InterleavingAudioCallback cb);
  62:../../libs/libDaisy/src/daisy_seed.h **** 
  63:../../libs/libDaisy/src/daisy_seed.h ****     /** Begins the audio for the seeds builtin audio.
  64:../../libs/libDaisy/src/daisy_seed.h ****     the specified callback will get called whenever
  65:../../libs/libDaisy/src/daisy_seed.h ****     new data is ready to be prepared.
  66:../../libs/libDaisy/src/daisy_seed.h ****     This will use the newer non-interleaved callback.
  67:../../libs/libDaisy/src/daisy_seed.h ****     */
  68:../../libs/libDaisy/src/daisy_seed.h ****     void StartAudio(AudioHandle::AudioCallback cb);
  69:../../libs/libDaisy/src/daisy_seed.h **** 
  70:../../libs/libDaisy/src/daisy_seed.h ****     /** Changes to a new interleaved callback
ARM GAS  C:\Users\skipi\AppData\Local\Temp\ccYcyPVo.s 			page 27


  71:../../libs/libDaisy/src/daisy_seed.h ****      */
  72:../../libs/libDaisy/src/daisy_seed.h ****     void ChangeAudioCallback(AudioHandle::InterleavingAudioCallback cb);
  73:../../libs/libDaisy/src/daisy_seed.h **** 
  74:../../libs/libDaisy/src/daisy_seed.h ****     /** Changes to a new multichannel callback
  75:../../libs/libDaisy/src/daisy_seed.h ****      */
  76:../../libs/libDaisy/src/daisy_seed.h ****     void ChangeAudioCallback(AudioHandle::AudioCallback cb);
  77:../../libs/libDaisy/src/daisy_seed.h **** 
  78:../../libs/libDaisy/src/daisy_seed.h ****     /** Stops the audio if it is running. */
  79:../../libs/libDaisy/src/daisy_seed.h ****     void StopAudio();
  80:../../libs/libDaisy/src/daisy_seed.h **** 
  81:../../libs/libDaisy/src/daisy_seed.h ****     /** Updates the Audio Sample Rate, and reinitializes.
  82:../../libs/libDaisy/src/daisy_seed.h ****      ** Audio must be stopped for this to work.
  83:../../libs/libDaisy/src/daisy_seed.h ****      */
  84:../../libs/libDaisy/src/daisy_seed.h ****     void SetAudioSampleRate(SaiHandle::Config::SampleRate samplerate);
  85:../../libs/libDaisy/src/daisy_seed.h **** 
  86:../../libs/libDaisy/src/daisy_seed.h ****     /** Returns the audio sample rate in Hz as a floating point number.
  87:../../libs/libDaisy/src/daisy_seed.h ****      */
  88:../../libs/libDaisy/src/daisy_seed.h ****     float AudioSampleRate();
  89:../../libs/libDaisy/src/daisy_seed.h **** 
  90:../../libs/libDaisy/src/daisy_seed.h ****     /** Sets the number of samples processed per channel by the audio callback.
  91:../../libs/libDaisy/src/daisy_seed.h ****      */
  92:../../libs/libDaisy/src/daisy_seed.h ****     void SetAudioBlockSize(size_t blocksize);
  93:../../libs/libDaisy/src/daisy_seed.h **** 
  94:../../libs/libDaisy/src/daisy_seed.h ****     /** Returns the number of samples per channel in a block of audio. */
  95:../../libs/libDaisy/src/daisy_seed.h ****     size_t AudioBlockSize();
  96:../../libs/libDaisy/src/daisy_seed.h **** 
  97:../../libs/libDaisy/src/daisy_seed.h ****     /** Returns the rate in Hz that the Audio callback is called */
  98:../../libs/libDaisy/src/daisy_seed.h ****     float AudioCallbackRate() const;
  99:../../libs/libDaisy/src/daisy_seed.h **** 
 100:../../libs/libDaisy/src/daisy_seed.h ****     /** Returns the SAI Handle for the Daisy Seed 
 101:../../libs/libDaisy/src/daisy_seed.h ****      *  This can be useful when adding a secondary codec,
 102:../../libs/libDaisy/src/daisy_seed.h ****      *  the result of this function can be passed to the audio reinit 
 103:../../libs/libDaisy/src/daisy_seed.h ****      *  with an SAI2 configuration
 104:../../libs/libDaisy/src/daisy_seed.h ****      */
 105:../../libs/libDaisy/src/daisy_seed.h ****     const SaiHandle& AudioSaiHandle() const;
 106:../../libs/libDaisy/src/daisy_seed.h **** 
 107:../../libs/libDaisy/src/daisy_seed.h ****     /** Sets the state of the built in LED
 108:../../libs/libDaisy/src/daisy_seed.h ****      */
 109:../../libs/libDaisy/src/daisy_seed.h ****     void SetLed(bool state);
 110:../../libs/libDaisy/src/daisy_seed.h **** 
 111:../../libs/libDaisy/src/daisy_seed.h ****     /** Sets the state of the test point near pin 10
 112:../../libs/libDaisy/src/daisy_seed.h ****      */
 113:../../libs/libDaisy/src/daisy_seed.h ****     void SetTestPoint(bool state);
 114:../../libs/libDaisy/src/daisy_seed.h **** 
 115:../../libs/libDaisy/src/daisy_seed.h ****     /** Print formatted debug log message
 116:../../libs/libDaisy/src/daisy_seed.h ****      */
 117:../../libs/libDaisy/src/daisy_seed.h ****     template <typename... VA>
 118:../../libs/libDaisy/src/daisy_seed.h ****     static void Print(const char* format, VA... va)
 119:../../libs/libDaisy/src/daisy_seed.h ****     {
 120:../../libs/libDaisy/src/daisy_seed.h ****         Log::Print(format, va...);
 121:../../libs/libDaisy/src/daisy_seed.h ****     }
 122:../../libs/libDaisy/src/daisy_seed.h **** 
 123:../../libs/libDaisy/src/daisy_seed.h ****     /** Print formatted debug log message with automatic line termination
 124:../../libs/libDaisy/src/daisy_seed.h ****     */
 125:../../libs/libDaisy/src/daisy_seed.h ****     template <typename... VA>
 126:../../libs/libDaisy/src/daisy_seed.h ****     static void PrintLine(const char* format, VA... va)
 127:../../libs/libDaisy/src/daisy_seed.h ****     {
ARM GAS  C:\Users\skipi\AppData\Local\Temp\ccYcyPVo.s 			page 28


 128:../../libs/libDaisy/src/daisy_seed.h ****         Log::PrintLine(format, va...);
 129:../../libs/libDaisy/src/daisy_seed.h ****     }
 130:../../libs/libDaisy/src/daisy_seed.h **** 
 131:../../libs/libDaisy/src/daisy_seed.h ****     /** Start the logging session. Optionally wait for terminal connection before proceeding.
 132:../../libs/libDaisy/src/daisy_seed.h ****     */
 133:../../libs/libDaisy/src/daisy_seed.h ****     static void StartLog(bool wait_for_pc = false)
 569              		.loc 1 133 17 view .LVU111
 570              	.LBB693:
 134:../../libs/libDaisy/src/daisy_seed.h ****     {
 135:../../libs/libDaisy/src/daisy_seed.h ****         Log::StartLog(wait_for_pc);
 571              		.loc 1 135 9 view .LVU112
 572              		.loc 1 135 22 is_stmt 0 view .LVU113
 573 0016 0120     		movs	r0, #1
 574 0018 FFF7FEFF 		bl	_ZN5daisy6LoggerILNS_17LoggerDestinationE1EE8StartLogEb
 575              	.LVL27:
 576              		.loc 1 135 22 view .LVU114
 577              	.LBE693:
 578              	.LBE692:
  35:main0.cpp     **** 
  36:main0.cpp     ****   if (cap.Init(mpr121ObjConf) != daisy::Mpr121I2C::Result::OK)                  // initializes the 
 579              		.loc 8 36 3 is_stmt 1 view .LVU115
 580              		.loc 8 36 3 is_stmt 0 view .LVU116
 581 001c 0EAE     		add	r6, sp, #56
 582 001e 0DF11008 		add	r8, sp, #16
 583              	.LBB694:
 584              	.LBB695:
 585              	.LBB696:
 586              	.LBB697:
  52:../../libs/libDaisy/src/dev/mpr121.h ****         i2c_conf.periph = config.periph;
 587              		.loc 7 52 25 view .LVU117
 588 0022 4FF00009 		mov	r9, #0
 589              	.LBE697:
 590              	.LBE696:
 123:../../libs/libDaisy/src/dev/mpr121.h **** 
 591              		.loc 7 123 9 view .LVU118
 592 0026 B646     		mov	lr, r6
 593 0028 3546     		mov	r5, r6
 594              	.LBB711:
 595              	.LBB707:
  49:../../libs/libDaisy/src/dev/mpr121.h **** 
 596              		.loc 7 49 17 view .LVU119
 597 002a C246     		mov	r10, r8
 598 002c 0FCC     		ldmia	r4!, {r0, r1, r2, r3}
 599 002e 0FC6     		stmia	r6!, {r0, r1, r2, r3}
 600 0030 94E80300 		ldm	r4, {r0, r1}
 601              	.LBE707:
 602              	.LBE711:
 123:../../libs/libDaisy/src/dev/mpr121.h **** 
 603              		.loc 7 123 9 view .LVU120
 604 0034 C04C     		ldr	r4, .L25+8
 605 0036 46F8040B 		str	r0, [r6], #4
 606 003a A446     		mov	ip, r4
 607 003c 3180     		strh	r1, [r6]	@ movhi
 608              	.LBE695:
 609              	.LBI694:
 121:../../libs/libDaisy/src/dev/mpr121.h ****     {
 610              		.loc 7 121 12 is_stmt 1 view .LVU121
ARM GAS  C:\Users\skipi\AppData\Local\Temp\ccYcyPVo.s 			page 29


 611 003e A346     		mov	fp, r4
 612              	.LBB878:
 613              	.LBB712:
 614              	.LBB708:
  49:../../libs/libDaisy/src/dev/mpr121.h **** 
 615              		.loc 7 49 17 is_stmt 0 view .LVU122
 616 0040 04F11C07 		add	r7, r4, #28
 617              	.LBE708:
 618              	.LBE712:
 139:../../libs/libDaisy/src/dev/mpr121.h ****         WriteRegister(MPR121_MHDR, 0x01);
 619              		.loc 7 139 22 view .LVU123
 620 0044 4126     		movs	r6, #65
 123:../../libs/libDaisy/src/dev/mpr121.h **** 
 621              		.loc 7 123 9 view .LVU124
 622 0046 BEE80F00 		ldmia	lr!, {r0, r1, r2, r3}
 623 004a ACE80F00 		stmia	ip!, {r0, r1, r2, r3}
 624 004e 9EE80300 		ldm	lr, {r0, r1}
 625 0052 4CF8040B 		str	r0, [ip], #4
 626 0056 ACF80010 		strh	r1, [ip]	@ movhi
 627              	.LVL28:
 123:../../libs/libDaisy/src/dev/mpr121.h **** 
 628              		.loc 7 123 9 view .LVU125
 629 005a 8446     		mov	ip, r0
 630 005c BBE80F00 		ldmia	fp!, {r0, r1, r2, r3}
 631 0060 A8E80F00 		stmia	r8!, {r0, r1, r2, r3}
 632              	.LBB713:
 633              	.LBB709:
 634              	.LBB698:
 635              	.LBB699:
 636              		.file 9 "../../libs/libDaisy/src/per/i2c.h"
   1:../../libs/libDaisy/src/per/i2c.h **** #pragma once
   2:../../libs/libDaisy/src/per/i2c.h **** #include "util/hal_map.h"
   3:../../libs/libDaisy/src/per/i2c.h **** #include "daisy_core.h"
   4:../../libs/libDaisy/src/per/i2c.h **** 
   5:../../libs/libDaisy/src/per/i2c.h **** namespace daisy
   6:../../libs/libDaisy/src/per/i2c.h **** {
   7:../../libs/libDaisy/src/per/i2c.h **** /** A handle for interacting with an I2C peripheral. This is a dumb
   8:../../libs/libDaisy/src/per/i2c.h ****  *  gateway that internally points to one of the four I2C peripherals
   9:../../libs/libDaisy/src/per/i2c.h ****  *  after it was initialised. It can then be copied and passed around.
  10:../../libs/libDaisy/src/per/i2c.h ****  *  Use an I2CHandle like this:
  11:../../libs/libDaisy/src/per/i2c.h ****  *  
  12:../../libs/libDaisy/src/per/i2c.h ****  *      // setup the configuration
  13:../../libs/libDaisy/src/per/i2c.h ****  *      I2CHandle::Config i2c_conf;
  14:../../libs/libDaisy/src/per/i2c.h ****  *      i2c_conf.periph = I2CHandle::Config::Peripheral::I2C_1;
  15:../../libs/libDaisy/src/per/i2c.h ****  *      i2c_conf.speed  = I2CHandle::Config::Speed::I2C_400KHZ;
  16:../../libs/libDaisy/src/per/i2c.h ****  *      i2c_conf.mode   = I2CHandle::Config::Mode::Master;
  17:../../libs/libDaisy/src/per/i2c.h ****  *      i2c_conf.pin_config.scl  = {DSY_GPIOB, 8};
  18:../../libs/libDaisy/src/per/i2c.h ****  *      i2c_conf.pin_config.sda  = {DSY_GPIOB, 9};
  19:../../libs/libDaisy/src/per/i2c.h ****  *      // initialise the peripheral
  20:../../libs/libDaisy/src/per/i2c.h ****  *      I2CHandle i2c;
  21:../../libs/libDaisy/src/per/i2c.h ****  *      i2c.Init(i2c_conf);
  22:../../libs/libDaisy/src/per/i2c.h ****  *      // now i2c points to the corresponding peripheral and can be used.
  23:../../libs/libDaisy/src/per/i2c.h ****  *      i2c.TransmitBlocking( ... );
  24:../../libs/libDaisy/src/per/i2c.h ****  */
  25:../../libs/libDaisy/src/per/i2c.h **** class I2CHandle
  26:../../libs/libDaisy/src/per/i2c.h **** {
  27:../../libs/libDaisy/src/per/i2c.h ****   public:
ARM GAS  C:\Users\skipi\AppData\Local\Temp\ccYcyPVo.s 			page 30


  28:../../libs/libDaisy/src/per/i2c.h ****     /** Contains settings for initialising an I2C interface. */
  29:../../libs/libDaisy/src/per/i2c.h ****     struct Config
 637              		.loc 9 29 12 view .LVU126
 638 0064 4FF01003 		mov	r3, #16
 639 0068 C8F800C0 		str	ip, [r8]
 640              	.LBE699:
 641              	.LBE698:
  49:../../libs/libDaisy/src/dev/mpr121.h **** 
 642              		.loc 7 49 17 view .LVU127
 643 006c 0490     		str	r0, [sp, #16]
 644              	.LBB705:
 645              	.LBB703:
 646              		.loc 9 29 12 view .LVU128
 647 006e 8DF83430 		strb	r3, [sp, #52]
 648              	.LBE703:
 649              	.LBE705:
  56:../../libs/libDaisy/src/dev/mpr121.h ****         i2c_conf.pin_config.sda = config.sda;
 650              		.loc 7 56 33 view .LVU129
 651 0072 BDF81830 		ldrh	r3, [sp, #24]
  53:../../libs/libDaisy/src/dev/mpr121.h ****         i2c_conf.speed  = config.speed;
 652              		.loc 7 53 25 view .LVU130
 653 0076 0990     		str	r0, [sp, #36]
  56:../../libs/libDaisy/src/dev/mpr121.h ****         i2c_conf.pin_config.sda = config.sda;
 654              		.loc 7 56 33 view .LVU131
 655 0078 ADF82830 		strh	r3, [sp, #40]	@ movhi
  57:../../libs/libDaisy/src/dev/mpr121.h **** 
 656              		.loc 7 57 33 view .LVU132
 657 007c BDF81A30 		ldrh	r3, [sp, #26]
  49:../../libs/libDaisy/src/dev/mpr121.h **** 
 658              		.loc 7 49 17 view .LVU133
 659 0080 0591     		str	r1, [sp, #20]
  54:../../libs/libDaisy/src/dev/mpr121.h **** 
 660              		.loc 7 54 25 view .LVU134
 661 0082 0B91     		str	r1, [sp, #44]
  57:../../libs/libDaisy/src/dev/mpr121.h **** 
 662              		.loc 7 57 33 view .LVU135
 663 0084 ADF82A30 		strh	r3, [sp, #42]	@ movhi
  52:../../libs/libDaisy/src/dev/mpr121.h ****         i2c_conf.periph = config.periph;
 664              		.loc 7 52 25 view .LVU136
 665 0088 CDF83090 		str	r9, [sp, #48]
 666              	.LVL29:
  52:../../libs/libDaisy/src/dev/mpr121.h ****         i2c_conf.periph = config.periph;
 667              		.loc 7 52 25 view .LVU137
 668              	.LBE709:
 669              	.LBI696:
  47:../../libs/libDaisy/src/dev/mpr121.h ****     {
 670              		.loc 7 47 17 is_stmt 1 view .LVU138
 671              	.LBB710:
  49:../../libs/libDaisy/src/dev/mpr121.h **** 
 672              		.loc 7 49 9 view .LVU139
  49:../../libs/libDaisy/src/dev/mpr121.h **** 
 673              		.loc 7 49 17 is_stmt 0 view .LVU140
 674 008c BAE80F00 		ldmia	r10!, {r0, r1, r2, r3}
 675              	.LVL30:
  49:../../libs/libDaisy/src/dev/mpr121.h **** 
 676              		.loc 7 49 17 view .LVU141
 677 0090 0FC7     		stmia	r7!, {r0, r1, r2, r3}
ARM GAS  C:\Users\skipi\AppData\Local\Temp\ccYcyPVo.s 			page 31


  59:../../libs/libDaisy/src/dev/mpr121.h ****     }
 678              		.loc 7 59 50 view .LVU142
 679 0092 09A9     		add	r1, sp, #36
  49:../../libs/libDaisy/src/dev/mpr121.h **** 
 680              		.loc 7 49 17 view .LVU143
 681 0094 87F800C0 		strb	ip, [r7]
  51:../../libs/libDaisy/src/dev/mpr121.h ****         i2c_conf.mode   = I2CHandle::Config::Mode::I2C_MASTER;
 682              		.loc 7 51 9 is_stmt 1 view .LVU144
 683              	.LVL31:
 684              	.LBB706:
 685              	.LBI698:
 686              		.loc 9 29 12 view .LVU145
 687              	.LBB704:
 688              	.LBB700:
 689              	.LBI700:
  30:../../libs/libDaisy/src/per/i2c.h ****     {
  31:../../libs/libDaisy/src/per/i2c.h ****         /** Specifies whether the interface will operate in master or slave mode. */
  32:../../libs/libDaisy/src/per/i2c.h ****         enum class Mode
  33:../../libs/libDaisy/src/per/i2c.h ****         {
  34:../../libs/libDaisy/src/per/i2c.h ****             I2C_MASTER,
  35:../../libs/libDaisy/src/per/i2c.h ****             I2C_SLAVE,
  36:../../libs/libDaisy/src/per/i2c.h ****         };
  37:../../libs/libDaisy/src/per/i2c.h **** 
  38:../../libs/libDaisy/src/per/i2c.h ****         /** Specifices the internal peripheral to use (these are mapped to different pins on the ha
  39:../../libs/libDaisy/src/per/i2c.h ****         enum class Peripheral
  40:../../libs/libDaisy/src/per/i2c.h ****         {
  41:../../libs/libDaisy/src/per/i2c.h ****             I2C_1 = 0, /**< & */
  42:../../libs/libDaisy/src/per/i2c.h ****             I2C_2,     /**< & */
  43:../../libs/libDaisy/src/per/i2c.h ****             I2C_3,     /**< & */
  44:../../libs/libDaisy/src/per/i2c.h ****             I2C_4,     /**< & */
  45:../../libs/libDaisy/src/per/i2c.h ****         };
  46:../../libs/libDaisy/src/per/i2c.h **** 
  47:../../libs/libDaisy/src/per/i2c.h ****         /** Rate at which the clock/data will be sent/received. The device being used will have max
  48:../../libs/libDaisy/src/per/i2c.h ****          *  1MHZ Mode is currently 886kHz
  49:../../libs/libDaisy/src/per/i2c.h ****          */
  50:../../libs/libDaisy/src/per/i2c.h ****         enum class Speed
  51:../../libs/libDaisy/src/per/i2c.h ****         {
  52:../../libs/libDaisy/src/per/i2c.h ****             I2C_100KHZ, /**< & */
  53:../../libs/libDaisy/src/per/i2c.h ****             I2C_400KHZ, /**< & */
  54:../../libs/libDaisy/src/per/i2c.h ****             I2C_1MHZ,   /**< & */
  55:../../libs/libDaisy/src/per/i2c.h ****         };
  56:../../libs/libDaisy/src/per/i2c.h **** 
  57:../../libs/libDaisy/src/per/i2c.h ****         Peripheral periph; /**< & */
  58:../../libs/libDaisy/src/per/i2c.h ****         struct
  59:../../libs/libDaisy/src/per/i2c.h ****         {
 690              		.loc 9 59 9 view .LVU146
 691              	.LBB701:
 692              	.LBI701:
 693              		.file 10 "../../libs/libDaisy/src/daisy_core.h"
   1:../../libs/libDaisy/src/daisy_core.h **** #pragma once
   2:../../libs/libDaisy/src/daisy_core.h **** #ifndef DSY_CORE_HW_H
   3:../../libs/libDaisy/src/daisy_core.h **** #define DSY_CORE_HW_H /**< & */
   4:../../libs/libDaisy/src/daisy_core.h **** #include <stdint.h>
   5:../../libs/libDaisy/src/daisy_core.h **** #include <stdlib.h>
   6:../../libs/libDaisy/src/daisy_core.h **** 
   7:../../libs/libDaisy/src/daisy_core.h **** #if defined(_MSC_VER)
   8:../../libs/libDaisy/src/daisy_core.h **** #define FORCE_INLINE __forceinline /**< & */
ARM GAS  C:\Users\skipi\AppData\Local\Temp\ccYcyPVo.s 			page 32


   9:../../libs/libDaisy/src/daisy_core.h **** #elif defined(__clang__)
  10:../../libs/libDaisy/src/daisy_core.h **** #define FORCE_INLINE inline __attribute__((always_inline)) /**< & */
  11:../../libs/libDaisy/src/daisy_core.h **** #pragma clang diagnostic ignored "-Wduplicate-decl-specifier"
  12:../../libs/libDaisy/src/daisy_core.h **** #elif defined(__GNUC__)
  13:../../libs/libDaisy/src/daisy_core.h **** #define FORCE_INLINE inline __attribute__((always_inline)) /**< & */
  14:../../libs/libDaisy/src/daisy_core.h **** #else
  15:../../libs/libDaisy/src/daisy_core.h **** #error unknown compiler
  16:../../libs/libDaisy/src/daisy_core.h **** #endif
  17:../../libs/libDaisy/src/daisy_core.h **** 
  18:../../libs/libDaisy/src/daisy_core.h **** /** @addtogroup utility
  19:../../libs/libDaisy/src/daisy_core.h ****     @{
  20:../../libs/libDaisy/src/daisy_core.h **** */
  21:../../libs/libDaisy/src/daisy_core.h **** 
  22:../../libs/libDaisy/src/daisy_core.h **** /** Macro for area of memory that is configured as cacheless
  23:../../libs/libDaisy/src/daisy_core.h **** This should be used primarily for DMA buffers, and the like.
  24:../../libs/libDaisy/src/daisy_core.h **** */
  25:../../libs/libDaisy/src/daisy_core.h **** #define DMA_BUFFER_MEM_SECTION __attribute__((section(".sram1_bss")))
  26:../../libs/libDaisy/src/daisy_core.h **** /** 
  27:../../libs/libDaisy/src/daisy_core.h **** THE DTCM RAM section is also non-cached. However, is not suitable 
  28:../../libs/libDaisy/src/daisy_core.h **** for DMA transfers. Performance is on par with internal SRAM w/ 
  29:../../libs/libDaisy/src/daisy_core.h **** cache enabled.
  30:../../libs/libDaisy/src/daisy_core.h **** */
  31:../../libs/libDaisy/src/daisy_core.h **** #define DTCM_MEM_SECTION __attribute__((section(".dtcmram_bss")))
  32:../../libs/libDaisy/src/daisy_core.h **** 
  33:../../libs/libDaisy/src/daisy_core.h **** #define FBIPMAX 0.999985f             /**< close to 1.0f-LSB at 16 bit */
  34:../../libs/libDaisy/src/daisy_core.h **** #define FBIPMIN (-FBIPMAX)            /**< - (1 - LSB) */
  35:../../libs/libDaisy/src/daisy_core.h **** #define U82F_SCALE 0.0078740f         /**< 1 / 127 */
  36:../../libs/libDaisy/src/daisy_core.h **** #define F2U8_SCALE 127.0f             /**< 128 - 1 */
  37:../../libs/libDaisy/src/daisy_core.h **** #define S82F_SCALE 0.0078125f         /**< 1 / (2**7) */
  38:../../libs/libDaisy/src/daisy_core.h **** #define F2S8_SCALE 127.0f             /**< (2 ** 7) - 1 */
  39:../../libs/libDaisy/src/daisy_core.h **** #define S162F_SCALE 3.0517578125e-05f /**< 1 / (2** 15) */
  40:../../libs/libDaisy/src/daisy_core.h **** #define F2S16_SCALE 32767.0f          /**< (2 ** 15) - 1 */
  41:../../libs/libDaisy/src/daisy_core.h **** #define F2S24_SCALE 8388608.0f        /**< 2 ** 23 */
  42:../../libs/libDaisy/src/daisy_core.h **** #define S242F_SCALE 1.192092896e-07f  /**< 1 / (2 ** 23) */
  43:../../libs/libDaisy/src/daisy_core.h **** #define S24SIGN 0x800000              /**< 2 ** 23 */
  44:../../libs/libDaisy/src/daisy_core.h **** #define S322F_SCALE 4.6566129e-10f    /**< 1 / (2** 31) */
  45:../../libs/libDaisy/src/daisy_core.h **** #define F2S32_SCALE 2147483647.f      /**< (2 ** 31) - 1 */
  46:../../libs/libDaisy/src/daisy_core.h **** 
  47:../../libs/libDaisy/src/daisy_core.h **** 
  48:../../libs/libDaisy/src/daisy_core.h **** /** shorthand macro for simplifying the reading of the left 
  49:../../libs/libDaisy/src/daisy_core.h ****  *  channel of a non-interleaved output buffer named out */
  50:../../libs/libDaisy/src/daisy_core.h **** #define OUT_L out[0]
  51:../../libs/libDaisy/src/daisy_core.h **** 
  52:../../libs/libDaisy/src/daisy_core.h **** /** shorthand macro for simplifying the reading of the right 
  53:../../libs/libDaisy/src/daisy_core.h ****  *  channel of a non-interleaved output buffer named out */
  54:../../libs/libDaisy/src/daisy_core.h **** #define OUT_R out[1]
  55:../../libs/libDaisy/src/daisy_core.h **** 
  56:../../libs/libDaisy/src/daisy_core.h **** /** shorthand macro for simplifying the reading of the left 
  57:../../libs/libDaisy/src/daisy_core.h ****  *  channel of a non-interleaved input buffer named in */
  58:../../libs/libDaisy/src/daisy_core.h **** #define IN_L in[0]
  59:../../libs/libDaisy/src/daisy_core.h **** 
  60:../../libs/libDaisy/src/daisy_core.h **** /** shorthand macro for simplifying the reading of the right 
  61:../../libs/libDaisy/src/daisy_core.h ****  *  channel of a non-interleaved input buffer named in */
  62:../../libs/libDaisy/src/daisy_core.h **** #define IN_R in[1]
  63:../../libs/libDaisy/src/daisy_core.h **** 
  64:../../libs/libDaisy/src/daisy_core.h **** /** 
  65:../../libs/libDaisy/src/daisy_core.h ****     Computes cube.
ARM GAS  C:\Users\skipi\AppData\Local\Temp\ccYcyPVo.s 			page 33


  66:../../libs/libDaisy/src/daisy_core.h ****     \param x Number to be cubed
  67:../../libs/libDaisy/src/daisy_core.h ****     \return x ^ 3
  68:../../libs/libDaisy/src/daisy_core.h **** */
  69:../../libs/libDaisy/src/daisy_core.h **** FORCE_INLINE float cube(float x)
  70:../../libs/libDaisy/src/daisy_core.h **** {
  71:../../libs/libDaisy/src/daisy_core.h ****     return (x * x) * x;
  72:../../libs/libDaisy/src/daisy_core.h **** }
  73:../../libs/libDaisy/src/daisy_core.h **** 
  74:../../libs/libDaisy/src/daisy_core.h **** /** 
  75:../../libs/libDaisy/src/daisy_core.h ****     Converts unsigned 8-bit to float
  76:../../libs/libDaisy/src/daisy_core.h ****     \param x Number to be scaled.
  77:../../libs/libDaisy/src/daisy_core.h ****     \return Scaled number.
  78:../../libs/libDaisy/src/daisy_core.h **** */
  79:../../libs/libDaisy/src/daisy_core.h **** FORCE_INLINE float u82f(uint8_t x)
  80:../../libs/libDaisy/src/daisy_core.h **** {
  81:../../libs/libDaisy/src/daisy_core.h ****     return ((float)x - 127.f) * U82F_SCALE;
  82:../../libs/libDaisy/src/daisy_core.h **** }
  83:../../libs/libDaisy/src/daisy_core.h **** 
  84:../../libs/libDaisy/src/daisy_core.h **** /**
  85:../../libs/libDaisy/src/daisy_core.h ****     Converts float to unsigned 8-bit
  86:../../libs/libDaisy/src/daisy_core.h **** */
  87:../../libs/libDaisy/src/daisy_core.h **** FORCE_INLINE uint8_t f2u8(float x)
  88:../../libs/libDaisy/src/daisy_core.h **** {
  89:../../libs/libDaisy/src/daisy_core.h ****     x = x <= FBIPMIN ? FBIPMIN : x;
  90:../../libs/libDaisy/src/daisy_core.h ****     x = x >= FBIPMAX ? FBIPMAX : x;
  91:../../libs/libDaisy/src/daisy_core.h ****     return (uint8_t)((x * F2U8_SCALE) + F2U8_SCALE);
  92:../../libs/libDaisy/src/daisy_core.h **** }
  93:../../libs/libDaisy/src/daisy_core.h **** 
  94:../../libs/libDaisy/src/daisy_core.h **** 
  95:../../libs/libDaisy/src/daisy_core.h **** /** 
  96:../../libs/libDaisy/src/daisy_core.h ****     Converts Signed 8-bit to float
  97:../../libs/libDaisy/src/daisy_core.h ****     \param x Number to be scaled.
  98:../../libs/libDaisy/src/daisy_core.h ****     \return Scaled number.
  99:../../libs/libDaisy/src/daisy_core.h **** */
 100:../../libs/libDaisy/src/daisy_core.h **** FORCE_INLINE float s82f(int8_t x)
 101:../../libs/libDaisy/src/daisy_core.h **** {
 102:../../libs/libDaisy/src/daisy_core.h ****     return (float)x * S82F_SCALE;
 103:../../libs/libDaisy/src/daisy_core.h **** }
 104:../../libs/libDaisy/src/daisy_core.h **** 
 105:../../libs/libDaisy/src/daisy_core.h **** /**
 106:../../libs/libDaisy/src/daisy_core.h ****     Converts float to Signed 8-bit
 107:../../libs/libDaisy/src/daisy_core.h **** */
 108:../../libs/libDaisy/src/daisy_core.h **** FORCE_INLINE int8_t f2s8(float x)
 109:../../libs/libDaisy/src/daisy_core.h **** {
 110:../../libs/libDaisy/src/daisy_core.h ****     x = x <= FBIPMIN ? FBIPMIN : x;
 111:../../libs/libDaisy/src/daisy_core.h ****     x = x >= FBIPMAX ? FBIPMAX : x;
 112:../../libs/libDaisy/src/daisy_core.h ****     return (int32_t)(x * F2S8_SCALE);
 113:../../libs/libDaisy/src/daisy_core.h **** }
 114:../../libs/libDaisy/src/daisy_core.h **** 
 115:../../libs/libDaisy/src/daisy_core.h **** /** 
 116:../../libs/libDaisy/src/daisy_core.h ****     Converts Signed 16-bit to float
 117:../../libs/libDaisy/src/daisy_core.h ****     \param x Number to be scaled.
 118:../../libs/libDaisy/src/daisy_core.h ****     \return Scaled number.
 119:../../libs/libDaisy/src/daisy_core.h **** */
 120:../../libs/libDaisy/src/daisy_core.h **** FORCE_INLINE float s162f(int16_t x)
 121:../../libs/libDaisy/src/daisy_core.h **** {
 122:../../libs/libDaisy/src/daisy_core.h ****     return (float)x * S162F_SCALE;
ARM GAS  C:\Users\skipi\AppData\Local\Temp\ccYcyPVo.s 			page 34


 123:../../libs/libDaisy/src/daisy_core.h **** }
 124:../../libs/libDaisy/src/daisy_core.h **** 
 125:../../libs/libDaisy/src/daisy_core.h **** /**
 126:../../libs/libDaisy/src/daisy_core.h ****     Converts float to Signed 16-bit
 127:../../libs/libDaisy/src/daisy_core.h **** */
 128:../../libs/libDaisy/src/daisy_core.h **** FORCE_INLINE int16_t f2s16(float x)
 129:../../libs/libDaisy/src/daisy_core.h **** {
 130:../../libs/libDaisy/src/daisy_core.h ****     x = x <= FBIPMIN ? FBIPMIN : x;
 131:../../libs/libDaisy/src/daisy_core.h ****     x = x >= FBIPMAX ? FBIPMAX : x;
 132:../../libs/libDaisy/src/daisy_core.h ****     return (int32_t)(x * F2S16_SCALE);
 133:../../libs/libDaisy/src/daisy_core.h **** }
 134:../../libs/libDaisy/src/daisy_core.h **** 
 135:../../libs/libDaisy/src/daisy_core.h **** /**
 136:../../libs/libDaisy/src/daisy_core.h ****     Converts Signed 24-bit to float
 137:../../libs/libDaisy/src/daisy_core.h ****  */
 138:../../libs/libDaisy/src/daisy_core.h **** FORCE_INLINE float s242f(int32_t x)
 139:../../libs/libDaisy/src/daisy_core.h **** {
 140:../../libs/libDaisy/src/daisy_core.h ****     x = (x ^ S24SIGN) - S24SIGN; //sign extend aka ((x<<8)>>8)
 141:../../libs/libDaisy/src/daisy_core.h ****     return (float)x * S242F_SCALE;
 142:../../libs/libDaisy/src/daisy_core.h **** }
 143:../../libs/libDaisy/src/daisy_core.h **** /**
 144:../../libs/libDaisy/src/daisy_core.h ****     Converts float to Signed 24-bit
 145:../../libs/libDaisy/src/daisy_core.h ****  */
 146:../../libs/libDaisy/src/daisy_core.h **** FORCE_INLINE int32_t f2s24(float x)
 147:../../libs/libDaisy/src/daisy_core.h **** {
 148:../../libs/libDaisy/src/daisy_core.h ****     x = x <= FBIPMIN ? FBIPMIN : x;
 149:../../libs/libDaisy/src/daisy_core.h ****     x = x >= FBIPMAX ? FBIPMAX : x;
 150:../../libs/libDaisy/src/daisy_core.h ****     return (int32_t)(x * F2S24_SCALE);
 151:../../libs/libDaisy/src/daisy_core.h **** }
 152:../../libs/libDaisy/src/daisy_core.h **** 
 153:../../libs/libDaisy/src/daisy_core.h **** /**
 154:../../libs/libDaisy/src/daisy_core.h ****     Converts Signed 32-bit to float
 155:../../libs/libDaisy/src/daisy_core.h ****  */
 156:../../libs/libDaisy/src/daisy_core.h **** FORCE_INLINE float s322f(int32_t x)
 157:../../libs/libDaisy/src/daisy_core.h **** {
 158:../../libs/libDaisy/src/daisy_core.h ****     return (float)x * S322F_SCALE;
 159:../../libs/libDaisy/src/daisy_core.h **** }
 160:../../libs/libDaisy/src/daisy_core.h **** /**
 161:../../libs/libDaisy/src/daisy_core.h ****     Converts float to Signed 24-bit
 162:../../libs/libDaisy/src/daisy_core.h ****  */
 163:../../libs/libDaisy/src/daisy_core.h **** FORCE_INLINE int32_t f2s32(float x)
 164:../../libs/libDaisy/src/daisy_core.h **** {
 165:../../libs/libDaisy/src/daisy_core.h ****     x = x <= FBIPMIN ? FBIPMIN : x;
 166:../../libs/libDaisy/src/daisy_core.h ****     x = x >= FBIPMAX ? FBIPMAX : x;
 167:../../libs/libDaisy/src/daisy_core.h ****     return (int32_t)(x * F2S32_SCALE);
 168:../../libs/libDaisy/src/daisy_core.h **** }
 169:../../libs/libDaisy/src/daisy_core.h **** 
 170:../../libs/libDaisy/src/daisy_core.h **** #ifdef __cplusplus
 171:../../libs/libDaisy/src/daisy_core.h **** 
 172:../../libs/libDaisy/src/daisy_core.h **** namespace daisy
 173:../../libs/libDaisy/src/daisy_core.h **** {
 174:../../libs/libDaisy/src/daisy_core.h **** /** @brief GPIO Port names */
 175:../../libs/libDaisy/src/daisy_core.h **** enum GPIOPort
 176:../../libs/libDaisy/src/daisy_core.h **** {
 177:../../libs/libDaisy/src/daisy_core.h ****     PORTA, /**< Port A */
 178:../../libs/libDaisy/src/daisy_core.h ****     PORTB, /**< Port B */
 179:../../libs/libDaisy/src/daisy_core.h ****     PORTC, /**< Port C */
ARM GAS  C:\Users\skipi\AppData\Local\Temp\ccYcyPVo.s 			page 35


 180:../../libs/libDaisy/src/daisy_core.h ****     PORTD, /**< Port D */
 181:../../libs/libDaisy/src/daisy_core.h ****     PORTE, /**< Port E */
 182:../../libs/libDaisy/src/daisy_core.h ****     PORTF, /**< Port F */
 183:../../libs/libDaisy/src/daisy_core.h ****     PORTG, /**< Port G */
 184:../../libs/libDaisy/src/daisy_core.h ****     PORTH, /**< Port H */
 185:../../libs/libDaisy/src/daisy_core.h ****     PORTI, /**< Port I */
 186:../../libs/libDaisy/src/daisy_core.h ****     PORTJ, /**< Port J */
 187:../../libs/libDaisy/src/daisy_core.h ****     PORTK, /**< Port K */
 188:../../libs/libDaisy/src/daisy_core.h ****     PORTX, /**< Used as a dummy port to signal an invalid pin. */
 189:../../libs/libDaisy/src/daisy_core.h **** };
 190:../../libs/libDaisy/src/daisy_core.h **** 
 191:../../libs/libDaisy/src/daisy_core.h **** /** @brief representation of hardware port/pin combination */
 192:../../libs/libDaisy/src/daisy_core.h **** struct Pin
 193:../../libs/libDaisy/src/daisy_core.h **** {
 194:../../libs/libDaisy/src/daisy_core.h ****     GPIOPort port;
 195:../../libs/libDaisy/src/daisy_core.h ****     uint8_t  pin;
 196:../../libs/libDaisy/src/daisy_core.h **** 
 197:../../libs/libDaisy/src/daisy_core.h ****     /** @brief Constructor creates a valid pin. 
 198:../../libs/libDaisy/src/daisy_core.h ****      *  @param pt GPIOPort between PA, and PK corresponding to STM32 Port.
 199:../../libs/libDaisy/src/daisy_core.h ****      *  @param pn pin number in range of 0-15
 200:../../libs/libDaisy/src/daisy_core.h ****     */
 201:../../libs/libDaisy/src/daisy_core.h ****     constexpr Pin(const GPIOPort pt, const uint8_t pn) : port(pt), pin(pn) {}
 202:../../libs/libDaisy/src/daisy_core.h **** 
 203:../../libs/libDaisy/src/daisy_core.h ****     /** @brief Basic Constructor creates an invalid Pin object */
 204:../../libs/libDaisy/src/daisy_core.h ****     constexpr Pin() : port(PORTX), pin(255) {}
 694              		.loc 10 204 15 view .LVU147
 695              		.loc 10 204 15 is_stmt 0 view .LVU148
 696              	.LBE701:
 697              	.LBB702:
 698              	.LBI702:
 699              		.loc 10 204 15 is_stmt 1 view .LVU149
 700              		.loc 10 204 15 is_stmt 0 view .LVU150
 701              	.LBE702:
 702              	.LBE700:
 703              	.LBE704:
 704              	.LBE706:
  52:../../libs/libDaisy/src/dev/mpr121.h ****         i2c_conf.periph = config.periph;
 705              		.loc 7 52 9 is_stmt 1 view .LVU151
  53:../../libs/libDaisy/src/dev/mpr121.h ****         i2c_conf.speed  = config.speed;
 706              		.loc 7 53 9 view .LVU152
  54:../../libs/libDaisy/src/dev/mpr121.h **** 
 707              		.loc 7 54 9 view .LVU153
  56:../../libs/libDaisy/src/dev/mpr121.h ****         i2c_conf.pin_config.sda = config.sda;
 708              		.loc 7 56 9 view .LVU154
  57:../../libs/libDaisy/src/dev/mpr121.h **** 
 709              		.loc 7 57 9 view .LVU155
  59:../../libs/libDaisy/src/dev/mpr121.h ****     }
 710              		.loc 7 59 9 view .LVU156
  59:../../libs/libDaisy/src/dev/mpr121.h ****     }
 711              		.loc 7 59 50 is_stmt 0 view .LVU157
 712 0098 04F11800 		add	r0, r4, #24
 713              	.LVL32:
  59:../../libs/libDaisy/src/dev/mpr121.h ****     }
 714              		.loc 7 59 50 view .LVU158
 715 009c FFF7FEFF 		bl	_ZN5daisy9I2CHandle4InitERKNS0_6ConfigE
 716              	.LVL33:
  59:../../libs/libDaisy/src/dev/mpr121.h ****     }
ARM GAS  C:\Users\skipi\AppData\Local\Temp\ccYcyPVo.s 			page 36


 717              		.loc 7 59 50 view .LVU159
 718              	.LBE710:
 719              	.LBE713:
 720              	.LBB714:
 721              	.LBI714:
 722              		.loc 7 343 10 is_stmt 1 view .LVU160
 723              	.LBB715:
 724              		.loc 7 343 55 is_stmt 0 view .LVU161
 725 00a0 94F83030 		ldrb	r3, [r4, #48]	@ zero_extendqisi2
 726              	.LBE715:
 727              	.LBE714:
 128:../../libs/libDaisy/src/dev/mpr121.h ****         System::Delay(1);
 728              		.loc 7 128 22 view .LVU162
 729 00a4 8021     		movs	r1, #128
 730 00a6 6322     		movs	r2, #99
 731              	.LBB718:
 732              	.LBB716:
 733              		.loc 7 343 55 view .LVU163
 734 00a8 4845     		cmp	r0, r9
 735 00aa 18BF     		it	ne
 736 00ac 43F00103 		orrne	r3, r3, #1
 737              	.LBE716:
 738              	.LBE718:
 128:../../libs/libDaisy/src/dev/mpr121.h ****         System::Delay(1);
 739              		.loc 7 128 22 view .LVU164
 740 00b0 2046     		mov	r0, r4
 741              	.LVL34:
 742              	.LBB719:
 743              	.LBB717:
 744              		.loc 7 343 55 view .LVU165
 745 00b2 84F83030 		strb	r3, [r4, #48]
 746              	.LVL35:
 747              		.loc 7 343 55 view .LVU166
 748              	.LBE717:
 749              	.LBE719:
 128:../../libs/libDaisy/src/dev/mpr121.h ****         System::Delay(1);
 750              		.loc 7 128 22 view .LVU167
 751 00b6 FFF7FEFF 		bl	_ZN5daisy6Mpr121INS_18Mpr121I2CTransportEE13WriteRegisterEhh
 752              	.LVL36:
 129:../../libs/libDaisy/src/dev/mpr121.h **** 
 753              		.loc 7 129 22 view .LVU168
 754 00ba 0120     		movs	r0, #1
 755 00bc FFF7FEFF 		bl	_ZN5daisy6System5DelayEm
 756              	.LVL37:
 131:../../libs/libDaisy/src/dev/mpr121.h **** 
 757              		.loc 7 131 22 view .LVU169
 758 00c0 4A46     		mov	r2, r9
 759 00c2 5E21     		movs	r1, #94
 760 00c4 2046     		mov	r0, r4
 761 00c6 FFF7FEFF 		bl	_ZN5daisy6Mpr121INS_18Mpr121I2CTransportEE13WriteRegisterEhh
 762              	.LVL38:
 139:../../libs/libDaisy/src/dev/mpr121.h ****         WriteRegister(MPR121_MHDR, 0x01);
 763              		.loc 7 139 22 view .LVU170
 764 00ca 94F814B0 		ldrb	fp, [r4, #20]	@ zero_extendqisi2
 765 00ce 94F815A0 		ldrb	r10, [r4, #21]	@ zero_extendqisi2
 766              	.LVL39:
 767              	.LBB720:
ARM GAS  C:\Users\skipi\AppData\Local\Temp\ccYcyPVo.s 			page 37


 768              	.LBI720:
 183:../../libs/libDaisy/src/dev/mpr121.h ****     {
 769              		.loc 7 183 10 is_stmt 1 view .LVU171
 770              	.LBB721:
 186:../../libs/libDaisy/src/dev/mpr121.h ****         {
 771              		.loc 7 186 30 view .LVU172
 772              	.L11:
 773              	.LBB722:
 774              	.LBI722:
 257:../../libs/libDaisy/src/dev/mpr121.h ****     {
 775              		.loc 7 257 10 view .LVU173
 776              	.LBB723:
 777              	.LBB724:
 778              	.LBB725:
  66:../../libs/libDaisy/src/dev/mpr121.h ****     }
 779              		.loc 7 66 40 is_stmt 0 view .LVU174
 780 00d2 0A27     		movs	r7, #10
 781              	.LBE725:
 782              	.LBE724:
 264:../../libs/libDaisy/src/dev/mpr121.h **** 
 783              		.loc 7 264 17 view .LVU175
 784 00d4 4FF00009 		mov	r9, #0
 785 00d8 4FF05E08 		mov	r8, #94
 786              	.LBB728:
 787              	.LBB726:
  66:../../libs/libDaisy/src/dev/mpr121.h ****     }
 788              		.loc 7 66 40 view .LVU176
 789 00dc 94F82C10 		ldrb	r1, [r4, #44]	@ zero_extendqisi2
 790 00e0 0123     		movs	r3, #1
 791 00e2 09AA     		add	r2, sp, #36
 792 00e4 0097     		str	r7, [sp]
 793 00e6 9548     		ldr	r0, .L25+12
 794              	.LBE726:
 795              	.LBE728:
 264:../../libs/libDaisy/src/dev/mpr121.h **** 
 796              		.loc 7 264 17 view .LVU177
 797 00e8 8DF82590 		strb	r9, [sp, #37]
 798 00ec 8DF82480 		strb	r8, [sp, #36]
 799              	.LVL40:
 800              	.LBB729:
 801              	.LBI724:
  63:../../libs/libDaisy/src/dev/mpr121.h ****     {
 802              		.loc 7 63 10 is_stmt 1 view .LVU178
 803              	.LBB727:
  65:../../libs/libDaisy/src/dev/mpr121.h ****                != i2c_.TransmitBlocking(config_.dev_addr, data, size, 10);
 804              		.loc 7 65 9 view .LVU179
  66:../../libs/libDaisy/src/dev/mpr121.h ****     }
 805              		.loc 7 66 40 is_stmt 0 view .LVU180
 806 00f0 FFF7FEFF 		bl	_ZN5daisy9I2CHandle16TransmitBlockingEtPhtm
 807              	.LVL41:
  66:../../libs/libDaisy/src/dev/mpr121.h ****     }
 808              		.loc 7 66 40 view .LVU181
 809              	.LBE727:
 810              	.LBE729:
 811              	.LBB730:
 812              	.LBI730:
 813              		.loc 7 343 10 is_stmt 1 view .LVU182
ARM GAS  C:\Users\skipi\AppData\Local\Temp\ccYcyPVo.s 			page 38


 814              	.LBB731:
 815              		.loc 7 343 55 is_stmt 0 view .LVU183
 816 00f4 94F83020 		ldrb	r2, [r4, #48]	@ zero_extendqisi2
 817              	.LBE731:
 818              	.LBE730:
 819              	.LBB734:
 820              	.LBB735:
  73:../../libs/libDaisy/src/dev/mpr121.h ****     }
 821              		.loc 7 73 39 view .LVU184
 822 00f8 0123     		movs	r3, #1
 823 00fa 0097     		str	r7, [sp]
 824              	.LBE735:
 825              	.LBE734:
 826              	.LBB738:
 827              	.LBB732:
 828              		.loc 7 343 55 view .LVU185
 829 00fc 4845     		cmp	r0, r9
 830 00fe 18BF     		it	ne
 831 0100 42F00102 		orrne	r2, r2, #1
 832              	.LBE732:
 833              	.LBE738:
 834              	.LBB739:
 835              	.LBB736:
  73:../../libs/libDaisy/src/dev/mpr121.h ****     }
 836              		.loc 7 73 39 view .LVU186
 837 0104 94F82C10 		ldrb	r1, [r4, #44]	@ zero_extendqisi2
 838 0108 8C48     		ldr	r0, .L25+12
 839              	.LVL42:
  73:../../libs/libDaisy/src/dev/mpr121.h ****     }
 840              		.loc 7 73 39 view .LVU187
 841              	.LBE736:
 842              	.LBE739:
 843              	.LBB740:
 844              	.LBB733:
 845              		.loc 7 343 55 view .LVU188
 846 010a 84F83020 		strb	r2, [r4, #48]
 847              	.LVL43:
 848              		.loc 7 343 55 view .LVU189
 849              	.LBE733:
 850              	.LBE740:
 851              	.LBB741:
 852              	.LBI734:
  70:../../libs/libDaisy/src/dev/mpr121.h ****     {
 853              		.loc 7 70 10 is_stmt 1 view .LVU190
 854              	.LBB737:
  72:../../libs/libDaisy/src/dev/mpr121.h ****                != i2c_.ReceiveBlocking(config_.dev_addr, data, size, 10);
 855              		.loc 7 72 9 view .LVU191
  73:../../libs/libDaisy/src/dev/mpr121.h ****     }
 856              		.loc 7 73 39 is_stmt 0 view .LVU192
 857 010e 04AA     		add	r2, sp, #16
 858              	.LVL44:
  73:../../libs/libDaisy/src/dev/mpr121.h ****     }
 859              		.loc 7 73 39 view .LVU193
 860 0110 FFF7FEFF 		bl	_ZN5daisy9I2CHandle15ReceiveBlockingEtPhtm
 861              	.LVL45:
  73:../../libs/libDaisy/src/dev/mpr121.h ****     }
 862              		.loc 7 73 39 view .LVU194
ARM GAS  C:\Users\skipi\AppData\Local\Temp\ccYcyPVo.s 			page 39


 863              	.LBE737:
 864              	.LBE741:
 865              	.LBB742:
 866              	.LBI742:
 867              		.loc 7 343 10 is_stmt 1 view .LVU195
 868              	.LBB743:
 869              		.loc 7 343 55 is_stmt 0 view .LVU196
 870 0114 94F83020 		ldrb	r2, [r4, #48]	@ zero_extendqisi2
 871              	.LBE743:
 872              	.LBE742:
 873              	.LBB746:
 874              	.LBB747:
  66:../../libs/libDaisy/src/dev/mpr121.h ****     }
 875              		.loc 7 66 40 view .LVU197
 876 0118 0223     		movs	r3, #2
 877 011a 0097     		str	r7, [sp]
 878              	.LBE747:
 879              	.LBE746:
 880              	.LBB750:
 881              	.LBB744:
 882              		.loc 7 343 55 view .LVU198
 883 011c 4845     		cmp	r0, r9
 884 011e 18BF     		it	ne
 885 0120 42F00102 		orrne	r2, r2, #1
 886              	.LBE744:
 887              	.LBE750:
 888              	.LBB751:
 889              	.LBB748:
  66:../../libs/libDaisy/src/dev/mpr121.h ****     }
 890              		.loc 7 66 40 view .LVU199
 891 0124 94F82C10 		ldrb	r1, [r4, #44]	@ zero_extendqisi2
 892 0128 8448     		ldr	r0, .L25+12
 893              	.LVL46:
  66:../../libs/libDaisy/src/dev/mpr121.h ****     }
 894              		.loc 7 66 40 view .LVU200
 895              	.LBE748:
 896              	.LBE751:
 897              	.LBB752:
 898              	.LBB745:
 899              		.loc 7 343 55 view .LVU201
 900 012a 84F83020 		strb	r2, [r4, #48]
 901              	.LVL47:
 902              		.loc 7 343 55 view .LVU202
 903              	.LBE745:
 904              	.LBE752:
 905              	.LBB753:
 906              	.LBI746:
  63:../../libs/libDaisy/src/dev/mpr121.h ****     {
 907              		.loc 7 63 10 is_stmt 1 view .LVU203
 908              	.LBB749:
  65:../../libs/libDaisy/src/dev/mpr121.h ****                != i2c_.TransmitBlocking(config_.dev_addr, data, size, 10);
 909              		.loc 7 65 9 view .LVU204
  66:../../libs/libDaisy/src/dev/mpr121.h ****     }
 910              		.loc 7 66 40 is_stmt 0 view .LVU205
 911 012e 09AA     		add	r2, sp, #36
 912              	.LVL48:
  66:../../libs/libDaisy/src/dev/mpr121.h ****     }
ARM GAS  C:\Users\skipi\AppData\Local\Temp\ccYcyPVo.s 			page 40


 913              		.loc 7 66 40 view .LVU206
 914 0130 FFF7FEFF 		bl	_ZN5daisy9I2CHandle16TransmitBlockingEtPhtm
 915              	.LVL49:
  66:../../libs/libDaisy/src/dev/mpr121.h ****     }
 916              		.loc 7 66 40 view .LVU207
 917              	.LBE749:
 918              	.LBE753:
 919              	.LBB754:
 920              	.LBI754:
 921              		.loc 7 343 10 is_stmt 1 view .LVU208
 922              	.LBB755:
 923              		.loc 7 343 55 is_stmt 0 view .LVU209
 924 0134 94F83020 		ldrb	r2, [r4, #48]	@ zero_extendqisi2
 925              	.LBE755:
 926              	.LBE754:
 927              	.LBB758:
 928              	.LBB759:
  66:../../libs/libDaisy/src/dev/mpr121.h ****     }
 929              		.loc 7 66 40 view .LVU210
 930 0138 0223     		movs	r3, #2
 931 013a 0097     		str	r7, [sp]
 932              	.LBE759:
 933              	.LBE758:
 934              	.LBB763:
 935              	.LBB756:
 936              		.loc 7 343 55 view .LVU211
 937 013c 4845     		cmp	r0, r9
 938 013e 18BF     		it	ne
 939 0140 42F00102 		orrne	r2, r2, #1
 940              	.LBE756:
 941              	.LBE763:
 942              	.LBB764:
 943              	.LBB760:
  66:../../libs/libDaisy/src/dev/mpr121.h ****     }
 944              		.loc 7 66 40 view .LVU212
 945 0144 94F82C10 		ldrb	r1, [r4, #44]	@ zero_extendqisi2
 946 0148 7C48     		ldr	r0, .L25+12
 947              	.LVL50:
  66:../../libs/libDaisy/src/dev/mpr121.h ****     }
 948              		.loc 7 66 40 view .LVU213
 949              	.LBE760:
 950              	.LBE764:
 951              	.LBB765:
 952              	.LBB757:
 953              		.loc 7 343 55 view .LVU214
 954 014a 84F83020 		strb	r2, [r4, #48]
 955              	.LVL51:
 956              		.loc 7 343 55 view .LVU215
 957              	.LBE757:
 958              	.LBE765:
 959              	.LBB766:
 960              	.LBI758:
  63:../../libs/libDaisy/src/dev/mpr121.h ****     {
 961              		.loc 7 63 10 is_stmt 1 view .LVU216
 962              	.LBB761:
  65:../../libs/libDaisy/src/dev/mpr121.h ****                != i2c_.TransmitBlocking(config_.dev_addr, data, size, 10);
 963              		.loc 7 65 9 view .LVU217
ARM GAS  C:\Users\skipi\AppData\Local\Temp\ccYcyPVo.s 			page 41


  66:../../libs/libDaisy/src/dev/mpr121.h ****     }
 964              		.loc 7 66 40 is_stmt 0 view .LVU218
 965 014e 09AA     		add	r2, sp, #36
 966              	.LVL52:
  66:../../libs/libDaisy/src/dev/mpr121.h ****     }
 967              		.loc 7 66 40 view .LVU219
 968              	.LBE761:
 969              	.LBE766:
 281:../../libs/libDaisy/src/dev/mpr121.h ****         buff[1] = value;
 970              		.loc 7 281 17 view .LVU220
 971 0150 8DF82460 		strb	r6, [sp, #36]
 282:../../libs/libDaisy/src/dev/mpr121.h ****         SetTransportErr(transport_.Write(buff, 2));
 972              		.loc 7 282 17 view .LVU221
 973 0154 8DF825B0 		strb	fp, [sp, #37]
 974              	.LBB767:
 975              	.LBB762:
  66:../../libs/libDaisy/src/dev/mpr121.h ****     }
 976              		.loc 7 66 40 view .LVU222
 977 0158 FFF7FEFF 		bl	_ZN5daisy9I2CHandle16TransmitBlockingEtPhtm
 978              	.LVL53:
  66:../../libs/libDaisy/src/dev/mpr121.h ****     }
 979              		.loc 7 66 40 view .LVU223
 980              	.LBE762:
 981              	.LBE767:
 982              	.LBB768:
 983              	.LBI768:
 984              		.loc 7 343 10 is_stmt 1 view .LVU224
 985              	.LBB769:
 986              		.loc 7 343 55 is_stmt 0 view .LVU225
 987 015c 94F83010 		ldrb	r1, [r4, #48]	@ zero_extendqisi2
 988              	.LBE769:
 989              	.LBE768:
 990              	.LBB772:
 991              	.LBB773:
  66:../../libs/libDaisy/src/dev/mpr121.h ****     }
 992              		.loc 7 66 40 view .LVU226
 993 0160 09AA     		add	r2, sp, #36
 994              	.LBE773:
 995              	.LBE772:
 289:../../libs/libDaisy/src/dev/mpr121.h ****             SetTransportErr(transport_.Write(buff, 2));
 996              		.loc 7 289 21 view .LVU227
 997 0162 9DF81030 		ldrb	r3, [sp, #16]	@ zero_extendqisi2
 998              	.LBB778:
 999              	.LBB770:
 1000              		.loc 7 343 55 view .LVU228
 1001 0166 4845     		cmp	r0, r9
 1002 0168 18BF     		it	ne
 1003 016a 41F00101 		orrne	r1, r1, #1
 1004              	.LBE770:
 1005              	.LBE778:
 1006              	.LBB779:
 1007              	.LBB774:
  66:../../libs/libDaisy/src/dev/mpr121.h ****     }
 1008              		.loc 7 66 40 view .LVU229
 1009 016e 0097     		str	r7, [sp]
 1010              	.LBE774:
 1011              	.LBE779:
ARM GAS  C:\Users\skipi\AppData\Local\Temp\ccYcyPVo.s 			page 42


 289:../../libs/libDaisy/src/dev/mpr121.h ****             SetTransportErr(transport_.Write(buff, 2));
 1012              		.loc 7 289 21 view .LVU230
 1013 0170 8DF82530 		strb	r3, [sp, #37]
 1014              	.LBB780:
 1015              	.LBB775:
  66:../../libs/libDaisy/src/dev/mpr121.h ****     }
 1016              		.loc 7 66 40 view .LVU231
 1017 0174 0223     		movs	r3, #2
 1018              	.LBE775:
 1019              	.LBE780:
 1020              	.LBB781:
 1021              	.LBB771:
 1022              		.loc 7 343 55 view .LVU232
 1023 0176 84F83010 		strb	r1, [r4, #48]
 1024              	.LVL54:
 1025              		.loc 7 343 55 view .LVU233
 1026              	.LBE771:
 1027              	.LBE781:
 1028              	.LBB782:
 1029              	.LBI772:
  63:../../libs/libDaisy/src/dev/mpr121.h ****     {
 1030              		.loc 7 63 10 is_stmt 1 view .LVU234
 1031              	.LBB776:
  65:../../libs/libDaisy/src/dev/mpr121.h ****                != i2c_.TransmitBlocking(config_.dev_addr, data, size, 10);
 1032              		.loc 7 65 9 view .LVU235
  66:../../libs/libDaisy/src/dev/mpr121.h ****     }
 1033              		.loc 7 66 40 is_stmt 0 view .LVU236
 1034 017a 7048     		ldr	r0, .L25+12
 1035 017c 94F82C10 		ldrb	r1, [r4, #44]	@ zero_extendqisi2
 1036              	.LBE776:
 1037              	.LBE782:
 288:../../libs/libDaisy/src/dev/mpr121.h ****             buff[1] = ecr_backup;
 1038              		.loc 7 288 21 view .LVU237
 1039 0180 8DF82480 		strb	r8, [sp, #36]
 1040              	.LBB783:
 1041              	.LBB777:
  66:../../libs/libDaisy/src/dev/mpr121.h ****     }
 1042              		.loc 7 66 40 view .LVU238
 1043 0184 FFF7FEFF 		bl	_ZN5daisy9I2CHandle16TransmitBlockingEtPhtm
 1044              	.LVL55:
  66:../../libs/libDaisy/src/dev/mpr121.h ****     }
 1045              		.loc 7 66 40 view .LVU239
 1046              	.LBE777:
 1047              	.LBE783:
 1048              	.LBB784:
 1049              	.LBI784:
 1050              		.loc 7 343 10 is_stmt 1 view .LVU240
 1051              	.LBB785:
 1052              		.loc 7 343 55 is_stmt 0 view .LVU241
 1053 0188 94F83020 		ldrb	r2, [r4, #48]	@ zero_extendqisi2
 1054              	.LBE785:
 1055              	.LBE784:
 1056              	.LBE723:
 1057              	.LBE722:
 1058              	.LBB792:
 1059              	.LBB793:
 1060              	.LBB794:
ARM GAS  C:\Users\skipi\AppData\Local\Temp\ccYcyPVo.s 			page 43


 1061              	.LBB795:
  66:../../libs/libDaisy/src/dev/mpr121.h ****     }
 1062              		.loc 7 66 40 view .LVU242
 1063 018c 0123     		movs	r3, #1
 1064 018e 0097     		str	r7, [sp]
 1065              	.LBE795:
 1066              	.LBE794:
 1067              	.LBE793:
 1068              	.LBE792:
 1069              	.LBB867:
 1070              	.LBB790:
 1071              	.LBB788:
 1072              	.LBB786:
 1073              		.loc 7 343 55 view .LVU243
 1074 0190 4845     		cmp	r0, r9
 1075 0192 18BF     		it	ne
 1076 0194 42F00102 		orrne	r2, r2, #1
 1077              	.LBE786:
 1078              	.LBE788:
 1079              	.LBE790:
 1080              	.LBE867:
 1081              	.LBB868:
 1082              	.LBB862:
 1083              	.LBB799:
 1084              	.LBB796:
  66:../../libs/libDaisy/src/dev/mpr121.h ****     }
 1085              		.loc 7 66 40 view .LVU244
 1086 0198 94F82C10 		ldrb	r1, [r4, #44]	@ zero_extendqisi2
 1087 019c 6748     		ldr	r0, .L25+12
 1088              	.LVL56:
  66:../../libs/libDaisy/src/dev/mpr121.h ****     }
 1089              		.loc 7 66 40 view .LVU245
 1090              	.LBE796:
 1091              	.LBE799:
 1092              	.LBE862:
 1093              	.LBE868:
 1094              	.LBB869:
 1095              	.LBB791:
 1096              	.LBB789:
 1097              	.LBB787:
 1098              		.loc 7 343 55 view .LVU246
 1099 019e 84F83020 		strb	r2, [r4, #48]
 1100              	.LVL57:
 1101              		.loc 7 343 55 view .LVU247
 1102              	.LBE787:
 1103              	.LBE789:
 1104              	.LBE791:
 1105              	.LBE869:
 1106              	.LBB870:
 1107              	.LBI792:
 257:../../libs/libDaisy/src/dev/mpr121.h ****     {
 1108              		.loc 7 257 10 is_stmt 1 view .LVU248
 1109              	.LBB863:
 1110              	.LBB800:
 1111              	.LBI794:
  63:../../libs/libDaisy/src/dev/mpr121.h ****     {
 1112              		.loc 7 63 10 view .LVU249
ARM GAS  C:\Users\skipi\AppData\Local\Temp\ccYcyPVo.s 			page 44


 1113              	.LBB797:
  65:../../libs/libDaisy/src/dev/mpr121.h ****                != i2c_.TransmitBlocking(config_.dev_addr, data, size, 10);
 1114              		.loc 7 65 9 view .LVU250
  66:../../libs/libDaisy/src/dev/mpr121.h ****     }
 1115              		.loc 7 66 40 is_stmt 0 view .LVU251
 1116 01a2 09AA     		add	r2, sp, #36
 1117              	.LVL58:
  66:../../libs/libDaisy/src/dev/mpr121.h ****     }
 1118              		.loc 7 66 40 view .LVU252
 1119              	.LBE797:
 1120              	.LBE800:
 264:../../libs/libDaisy/src/dev/mpr121.h **** 
 1121              		.loc 7 264 17 view .LVU253
 1122 01a4 8DF82590 		strb	r9, [sp, #37]
 1123 01a8 8DF82480 		strb	r8, [sp, #36]
 1124              	.LBB801:
 1125              	.LBB798:
  66:../../libs/libDaisy/src/dev/mpr121.h ****     }
 1126              		.loc 7 66 40 view .LVU254
 1127 01ac FFF7FEFF 		bl	_ZN5daisy9I2CHandle16TransmitBlockingEtPhtm
 1128              	.LVL59:
  66:../../libs/libDaisy/src/dev/mpr121.h ****     }
 1129              		.loc 7 66 40 view .LVU255
 1130              	.LBE798:
 1131              	.LBE801:
 1132              	.LBB802:
 1133              	.LBI802:
 1134              		.loc 7 343 10 is_stmt 1 view .LVU256
 1135              	.LBB803:
 1136              		.loc 7 343 55 is_stmt 0 view .LVU257
 1137 01b0 94F83020 		ldrb	r2, [r4, #48]	@ zero_extendqisi2
 1138              	.LBE803:
 1139              	.LBE802:
 1140              	.LBB806:
 1141              	.LBB807:
  73:../../libs/libDaisy/src/dev/mpr121.h ****     }
 1142              		.loc 7 73 39 view .LVU258
 1143 01b4 0123     		movs	r3, #1
 1144 01b6 0097     		str	r7, [sp]
 1145              	.LBE807:
 1146              	.LBE806:
 1147              	.LBB810:
 1148              	.LBB804:
 1149              		.loc 7 343 55 view .LVU259
 1150 01b8 4845     		cmp	r0, r9
 1151 01ba 18BF     		it	ne
 1152 01bc 42F00102 		orrne	r2, r2, #1
 1153              	.LBE804:
 1154              	.LBE810:
 1155              	.LBB811:
 1156              	.LBB808:
  73:../../libs/libDaisy/src/dev/mpr121.h ****     }
 1157              		.loc 7 73 39 view .LVU260
 1158 01c0 94F82C10 		ldrb	r1, [r4, #44]	@ zero_extendqisi2
 1159 01c4 5D48     		ldr	r0, .L25+12
 1160              	.LVL60:
  73:../../libs/libDaisy/src/dev/mpr121.h ****     }
ARM GAS  C:\Users\skipi\AppData\Local\Temp\ccYcyPVo.s 			page 45


 1161              		.loc 7 73 39 view .LVU261
 1162              	.LBE808:
 1163              	.LBE811:
 1164              	.LBB812:
 1165              	.LBB805:
 1166              		.loc 7 343 55 view .LVU262
 1167 01c6 84F83020 		strb	r2, [r4, #48]
 1168              	.LVL61:
 1169              		.loc 7 343 55 view .LVU263
 1170              	.LBE805:
 1171              	.LBE812:
 1172              	.LBB813:
 1173              	.LBI806:
  70:../../libs/libDaisy/src/dev/mpr121.h ****     {
 1174              		.loc 7 70 10 is_stmt 1 view .LVU264
 1175              	.LBB809:
  72:../../libs/libDaisy/src/dev/mpr121.h ****                != i2c_.ReceiveBlocking(config_.dev_addr, data, size, 10);
 1176              		.loc 7 72 9 view .LVU265
  73:../../libs/libDaisy/src/dev/mpr121.h ****     }
 1177              		.loc 7 73 39 is_stmt 0 view .LVU266
 1178 01ca 04AA     		add	r2, sp, #16
 1179              	.LVL62:
  73:../../libs/libDaisy/src/dev/mpr121.h ****     }
 1180              		.loc 7 73 39 view .LVU267
 1181 01cc FFF7FEFF 		bl	_ZN5daisy9I2CHandle15ReceiveBlockingEtPhtm
 1182              	.LVL63:
  73:../../libs/libDaisy/src/dev/mpr121.h ****     }
 1183              		.loc 7 73 39 view .LVU268
 1184              	.LBE809:
 1185              	.LBE813:
 1186              	.LBB814:
 1187              	.LBI814:
 1188              		.loc 7 343 10 is_stmt 1 view .LVU269
 1189              	.LBB815:
 1190              		.loc 7 343 55 is_stmt 0 view .LVU270
 1191 01d0 94F83020 		ldrb	r2, [r4, #48]	@ zero_extendqisi2
 1192              	.LBE815:
 1193              	.LBE814:
 1194              	.LBB818:
 1195              	.LBB819:
  66:../../libs/libDaisy/src/dev/mpr121.h ****     }
 1196              		.loc 7 66 40 view .LVU271
 1197 01d4 0223     		movs	r3, #2
 1198 01d6 0097     		str	r7, [sp]
 1199              	.LBE819:
 1200              	.LBE818:
 1201              	.LBB822:
 1202              	.LBB816:
 1203              		.loc 7 343 55 view .LVU272
 1204 01d8 4845     		cmp	r0, r9
 1205 01da 18BF     		it	ne
 1206 01dc 42F00102 		orrne	r2, r2, #1
 1207              	.LBE816:
 1208              	.LBE822:
 1209              	.LBB823:
 1210              	.LBB820:
  66:../../libs/libDaisy/src/dev/mpr121.h ****     }
ARM GAS  C:\Users\skipi\AppData\Local\Temp\ccYcyPVo.s 			page 46


 1211              		.loc 7 66 40 view .LVU273
 1212 01e0 94F82C10 		ldrb	r1, [r4, #44]	@ zero_extendqisi2
 1213 01e4 5548     		ldr	r0, .L25+12
 1214              	.LVL64:
  66:../../libs/libDaisy/src/dev/mpr121.h ****     }
 1215              		.loc 7 66 40 view .LVU274
 1216              	.LBE820:
 1217              	.LBE823:
 1218              	.LBB824:
 1219              	.LBB817:
 1220              		.loc 7 343 55 view .LVU275
 1221 01e6 84F83020 		strb	r2, [r4, #48]
 1222              	.LVL65:
 1223              		.loc 7 343 55 view .LVU276
 1224              	.LBE817:
 1225              	.LBE824:
 1226              	.LBB825:
 1227              	.LBI818:
  63:../../libs/libDaisy/src/dev/mpr121.h ****     {
 1228              		.loc 7 63 10 is_stmt 1 view .LVU277
 1229              	.LBB821:
  65:../../libs/libDaisy/src/dev/mpr121.h ****                != i2c_.TransmitBlocking(config_.dev_addr, data, size, 10);
 1230              		.loc 7 65 9 view .LVU278
  66:../../libs/libDaisy/src/dev/mpr121.h ****     }
 1231              		.loc 7 66 40 is_stmt 0 view .LVU279
 1232 01ea 09AA     		add	r2, sp, #36
 1233              	.LVL66:
  66:../../libs/libDaisy/src/dev/mpr121.h ****     }
 1234              		.loc 7 66 40 view .LVU280
 1235 01ec FFF7FEFF 		bl	_ZN5daisy9I2CHandle16TransmitBlockingEtPhtm
 1236              	.LVL67:
  66:../../libs/libDaisy/src/dev/mpr121.h ****     }
 1237              		.loc 7 66 40 view .LVU281
 1238              	.LBE821:
 1239              	.LBE825:
 1240              	.LBB826:
 1241              	.LBI826:
 1242              		.loc 7 343 10 is_stmt 1 view .LVU282
 1243              	.LBB827:
 1244              		.loc 7 343 55 is_stmt 0 view .LVU283
 1245 01f0 94F83010 		ldrb	r1, [r4, #48]	@ zero_extendqisi2
 1246              	.LBE827:
 1247              	.LBE826:
 281:../../libs/libDaisy/src/dev/mpr121.h ****         buff[1] = value;
 1248              		.loc 7 281 17 view .LVU284
 1249 01f4 731C     		adds	r3, r6, #1
 1250              	.LBB830:
 1251              	.LBB831:
  66:../../libs/libDaisy/src/dev/mpr121.h ****     }
 1252              		.loc 7 66 40 view .LVU285
 1253 01f6 0097     		str	r7, [sp]
 1254              	.LBE831:
 1255              	.LBE830:
 1256              	.LBB837:
 1257              	.LBB828:
 1258              		.loc 7 343 55 view .LVU286
 1259 01f8 4845     		cmp	r0, r9
ARM GAS  C:\Users\skipi\AppData\Local\Temp\ccYcyPVo.s 			page 47


 1260 01fa 18BF     		it	ne
 1261 01fc 41F00101 		orrne	r1, r1, #1
 1262              	.LBE828:
 1263              	.LBE837:
 1264              	.LBB838:
 1265              	.LBB832:
  66:../../libs/libDaisy/src/dev/mpr121.h ****     }
 1266              		.loc 7 66 40 view .LVU287
 1267 0200 09AA     		add	r2, sp, #36
 1268              	.LBE832:
 1269              	.LBE838:
 281:../../libs/libDaisy/src/dev/mpr121.h ****         buff[1] = value;
 1270              		.loc 7 281 17 view .LVU288
 1271 0202 8DF82430 		strb	r3, [sp, #36]
 1272              	.LBB839:
 1273              	.LBB833:
  66:../../libs/libDaisy/src/dev/mpr121.h ****     }
 1274              		.loc 7 66 40 view .LVU289
 1275 0206 0223     		movs	r3, #2
 1276              	.LBE833:
 1277              	.LBE839:
 1278              	.LBB840:
 1279              	.LBB829:
 1280              		.loc 7 343 55 view .LVU290
 1281 0208 84F83010 		strb	r1, [r4, #48]
 1282              	.LVL68:
 1283              		.loc 7 343 55 view .LVU291
 1284              	.LBE829:
 1285              	.LBE840:
 1286              	.LBB841:
 1287              	.LBI830:
  63:../../libs/libDaisy/src/dev/mpr121.h ****     {
 1288              		.loc 7 63 10 is_stmt 1 view .LVU292
 1289              	.LBB834:
  65:../../libs/libDaisy/src/dev/mpr121.h ****                != i2c_.TransmitBlocking(config_.dev_addr, data, size, 10);
 1290              		.loc 7 65 9 view .LVU293
 1291              	.LBE834:
 1292              	.LBE841:
 1293              	.LBE863:
 1294              	.LBE870:
 186:../../libs/libDaisy/src/dev/mpr121.h ****         {
 1295              		.loc 7 186 30 is_stmt 0 view .LVU294
 1296 020c 0236     		adds	r6, r6, #2
 1297              	.LVL69:
 1298              	.LBB871:
 1299              	.LBB864:
 1300              	.LBB842:
 1301              	.LBB835:
  66:../../libs/libDaisy/src/dev/mpr121.h ****     }
 1302              		.loc 7 66 40 view .LVU295
 1303 020e 94F82C10 		ldrb	r1, [r4, #44]	@ zero_extendqisi2
 1304 0212 4A48     		ldr	r0, .L25+12
 1305              	.LBE835:
 1306              	.LBE842:
 1307              	.LBE864:
 1308              	.LBE871:
 186:../../libs/libDaisy/src/dev/mpr121.h ****         {
ARM GAS  C:\Users\skipi\AppData\Local\Temp\ccYcyPVo.s 			page 48


 1309              		.loc 7 186 30 view .LVU296
 1310 0214 F6B2     		uxtb	r6, r6
 1311              	.LBB872:
 1312              	.LBB865:
 282:../../libs/libDaisy/src/dev/mpr121.h ****         SetTransportErr(transport_.Write(buff, 2));
 1313              		.loc 7 282 17 view .LVU297
 1314 0216 8DF825A0 		strb	r10, [sp, #37]
 1315              	.LBB843:
 1316              	.LBB836:
  66:../../libs/libDaisy/src/dev/mpr121.h ****     }
 1317              		.loc 7 66 40 view .LVU298
 1318 021a FFF7FEFF 		bl	_ZN5daisy9I2CHandle16TransmitBlockingEtPhtm
 1319              	.LVL70:
  66:../../libs/libDaisy/src/dev/mpr121.h ****     }
 1320              		.loc 7 66 40 view .LVU299
 1321              	.LBE836:
 1322              	.LBE843:
 1323              	.LBB844:
 1324              	.LBI844:
 1325              		.loc 7 343 10 is_stmt 1 view .LVU300
 1326              	.LBB845:
 1327              		.loc 7 343 55 is_stmt 0 view .LVU301
 1328 021e 94F83020 		ldrb	r2, [r4, #48]	@ zero_extendqisi2
 1329              	.LBE845:
 1330              	.LBE844:
 1331              	.LBB848:
 1332              	.LBB849:
  66:../../libs/libDaisy/src/dev/mpr121.h ****     }
 1333              		.loc 7 66 40 view .LVU302
 1334 0222 0223     		movs	r3, #2
 1335 0224 0097     		str	r7, [sp]
 1336              	.LBE849:
 1337              	.LBE848:
 289:../../libs/libDaisy/src/dev/mpr121.h ****             SetTransportErr(transport_.Write(buff, 2));
 1338              		.loc 7 289 21 view .LVU303
 1339 0226 9DF81010 		ldrb	r1, [sp, #16]	@ zero_extendqisi2
 1340              	.LBB853:
 1341              	.LBB846:
 1342              		.loc 7 343 55 view .LVU304
 1343 022a 4845     		cmp	r0, r9
 1344 022c 0CBF     		ite	eq
 1345 022e 1746     		moveq	r7, r2
 1346 0230 42F00107 		orrne	r7, r2, #1
 1347              	.LBE846:
 1348              	.LBE853:
 1349              	.LBB854:
 1350              	.LBB850:
  66:../../libs/libDaisy/src/dev/mpr121.h ****     }
 1351              		.loc 7 66 40 view .LVU305
 1352 0234 09AA     		add	r2, sp, #36
 1353 0236 4148     		ldr	r0, .L25+12
 1354              	.LVL71:
  66:../../libs/libDaisy/src/dev/mpr121.h ****     }
 1355              		.loc 7 66 40 view .LVU306
 1356              	.LBE850:
 1357              	.LBE854:
 289:../../libs/libDaisy/src/dev/mpr121.h ****             SetTransportErr(transport_.Write(buff, 2));
ARM GAS  C:\Users\skipi\AppData\Local\Temp\ccYcyPVo.s 			page 49


 1358              		.loc 7 289 21 view .LVU307
 1359 0238 8DF82510 		strb	r1, [sp, #37]
 1360              	.LBB855:
 1361              	.LBB847:
 1362              		.loc 7 343 55 view .LVU308
 1363 023c 84F83070 		strb	r7, [r4, #48]
 1364              	.LVL72:
 1365              		.loc 7 343 55 view .LVU309
 1366              	.LBE847:
 1367              	.LBE855:
 1368              	.LBB856:
 1369              	.LBI848:
  63:../../libs/libDaisy/src/dev/mpr121.h ****     {
 1370              		.loc 7 63 10 is_stmt 1 view .LVU310
 1371              	.LBB851:
  65:../../libs/libDaisy/src/dev/mpr121.h ****                != i2c_.TransmitBlocking(config_.dev_addr, data, size, 10);
 1372              		.loc 7 65 9 view .LVU311
  66:../../libs/libDaisy/src/dev/mpr121.h ****     }
 1373              		.loc 7 66 40 is_stmt 0 view .LVU312
 1374 0240 94F82C10 		ldrb	r1, [r4, #44]	@ zero_extendqisi2
 1375              	.LBE851:
 1376              	.LBE856:
 288:../../libs/libDaisy/src/dev/mpr121.h ****             buff[1] = ecr_backup;
 1377              		.loc 7 288 21 view .LVU313
 1378 0244 8DF82480 		strb	r8, [sp, #36]
 1379              	.LBB857:
 1380              	.LBB852:
  66:../../libs/libDaisy/src/dev/mpr121.h ****     }
 1381              		.loc 7 66 40 view .LVU314
 1382 0248 FFF7FEFF 		bl	_ZN5daisy9I2CHandle16TransmitBlockingEtPhtm
 1383              	.LVL73:
  66:../../libs/libDaisy/src/dev/mpr121.h ****     }
 1384              		.loc 7 66 40 view .LVU315
 1385              	.LBE852:
 1386              	.LBE857:
 1387              	.LBB858:
 1388              	.LBI858:
 1389              		.loc 7 343 10 is_stmt 1 view .LVU316
 1390              	.LBB859:
 1391              		.loc 7 343 55 is_stmt 0 view .LVU317
 1392 024c 94F83030 		ldrb	r3, [r4, #48]	@ zero_extendqisi2
 1393 0250 4845     		cmp	r0, r9
 1394 0252 18BF     		it	ne
 1395 0254 43F00103 		orrne	r3, r3, #1
 1396              	.LBE859:
 1397              	.LBE858:
 1398              	.LBE865:
 1399              	.LBE872:
 186:../../libs/libDaisy/src/dev/mpr121.h ****         {
 1400              		.loc 7 186 30 view .LVU318
 1401 0258 592E     		cmp	r6, #89
 1402              	.LBB873:
 1403              	.LBB866:
 1404              	.LBB861:
 1405              	.LBB860:
 1406              		.loc 7 343 55 view .LVU319
 1407 025a 84F83030 		strb	r3, [r4, #48]
ARM GAS  C:\Users\skipi\AppData\Local\Temp\ccYcyPVo.s 			page 50


 1408              	.LVL74:
 1409              		.loc 7 343 55 view .LVU320
 1410              	.LBE860:
 1411              	.LBE861:
 1412              	.LBE866:
 1413              	.LBE873:
 186:../../libs/libDaisy/src/dev/mpr121.h ****         {
 1414              		.loc 7 186 9 is_stmt 1 view .LVU321
 186:../../libs/libDaisy/src/dev/mpr121.h ****         {
 1415              		.loc 7 186 30 view .LVU322
 1416 025e 7FF438AF 		bne	.L11
 1417              	.LVL75:
 186:../../libs/libDaisy/src/dev/mpr121.h ****         {
 1418              		.loc 7 186 30 is_stmt 0 view .LVU323
 1419              	.LBE721:
 1420              	.LBE720:
 140:../../libs/libDaisy/src/dev/mpr121.h ****         WriteRegister(MPR121_NHDR, 0x01);
 1421              		.loc 7 140 22 view .LVU324
 1422 0262 0122     		movs	r2, #1
 1423 0264 2B21     		movs	r1, #43
 1424 0266 3448     		ldr	r0, .L25+8
 1425 0268 FFF7FEFF 		bl	_ZN5daisy6Mpr121INS_18Mpr121I2CTransportEE13WriteRegisterEhh
 1426              	.LVL76:
 141:../../libs/libDaisy/src/dev/mpr121.h ****         WriteRegister(MPR121_NCLR, 0x0E);
 1427              		.loc 7 141 22 view .LVU325
 1428 026c 0122     		movs	r2, #1
 1429 026e 2C21     		movs	r1, #44
 1430 0270 3148     		ldr	r0, .L25+8
 1431 0272 FFF7FEFF 		bl	_ZN5daisy6Mpr121INS_18Mpr121I2CTransportEE13WriteRegisterEhh
 1432              	.LVL77:
 142:../../libs/libDaisy/src/dev/mpr121.h ****         WriteRegister(MPR121_FDLR, 0x00);
 1433              		.loc 7 142 22 view .LVU326
 1434 0276 0E22     		movs	r2, #14
 1435 0278 2D21     		movs	r1, #45
 1436 027a 2F48     		ldr	r0, .L25+8
 1437 027c FFF7FEFF 		bl	_ZN5daisy6Mpr121INS_18Mpr121I2CTransportEE13WriteRegisterEhh
 1438              	.LVL78:
 143:../../libs/libDaisy/src/dev/mpr121.h **** 
 1439              		.loc 7 143 22 view .LVU327
 1440 0280 4A46     		mov	r2, r9
 1441 0282 2E21     		movs	r1, #46
 1442 0284 2C48     		ldr	r0, .L25+8
 1443 0286 FFF7FEFF 		bl	_ZN5daisy6Mpr121INS_18Mpr121I2CTransportEE13WriteRegisterEhh
 1444              	.LVL79:
 145:../../libs/libDaisy/src/dev/mpr121.h ****         WriteRegister(MPR121_NHDF, 0x05);
 1445              		.loc 7 145 22 view .LVU328
 1446 028a 0122     		movs	r2, #1
 1447 028c 2F21     		movs	r1, #47
 1448 028e 2A48     		ldr	r0, .L25+8
 1449 0290 FFF7FEFF 		bl	_ZN5daisy6Mpr121INS_18Mpr121I2CTransportEE13WriteRegisterEhh
 1450              	.LVL80:
 146:../../libs/libDaisy/src/dev/mpr121.h ****         WriteRegister(MPR121_NCLF, 0x01);
 1451              		.loc 7 146 22 view .LVU329
 1452 0294 0522     		movs	r2, #5
 1453 0296 3021     		movs	r1, #48
 1454 0298 2748     		ldr	r0, .L25+8
 1455 029a FFF7FEFF 		bl	_ZN5daisy6Mpr121INS_18Mpr121I2CTransportEE13WriteRegisterEhh
ARM GAS  C:\Users\skipi\AppData\Local\Temp\ccYcyPVo.s 			page 51


 1456              	.LVL81:
 147:../../libs/libDaisy/src/dev/mpr121.h ****         WriteRegister(MPR121_FDLF, 0x00);
 1457              		.loc 7 147 22 view .LVU330
 1458 029e 0122     		movs	r2, #1
 1459 02a0 3121     		movs	r1, #49
 1460 02a2 2548     		ldr	r0, .L25+8
 1461 02a4 FFF7FEFF 		bl	_ZN5daisy6Mpr121INS_18Mpr121I2CTransportEE13WriteRegisterEhh
 1462              	.LVL82:
 148:../../libs/libDaisy/src/dev/mpr121.h **** 
 1463              		.loc 7 148 22 view .LVU331
 1464 02a8 4A46     		mov	r2, r9
 1465 02aa 3221     		movs	r1, #50
 1466 02ac 2248     		ldr	r0, .L25+8
 1467 02ae FFF7FEFF 		bl	_ZN5daisy6Mpr121INS_18Mpr121I2CTransportEE13WriteRegisterEhh
 1468              	.LVL83:
 150:../../libs/libDaisy/src/dev/mpr121.h ****         WriteRegister(MPR121_NCLT, 0x00);
 1469              		.loc 7 150 22 view .LVU332
 1470 02b2 4A46     		mov	r2, r9
 1471 02b4 3321     		movs	r1, #51
 1472 02b6 2048     		ldr	r0, .L25+8
 1473 02b8 FFF7FEFF 		bl	_ZN5daisy6Mpr121INS_18Mpr121I2CTransportEE13WriteRegisterEhh
 1474              	.LVL84:
 151:../../libs/libDaisy/src/dev/mpr121.h ****         WriteRegister(MPR121_FDLT, 0x00);
 1475              		.loc 7 151 22 view .LVU333
 1476 02bc 4A46     		mov	r2, r9
 1477 02be 3421     		movs	r1, #52
 1478 02c0 1D48     		ldr	r0, .L25+8
 1479 02c2 FFF7FEFF 		bl	_ZN5daisy6Mpr121INS_18Mpr121I2CTransportEE13WriteRegisterEhh
 1480              	.LVL85:
 152:../../libs/libDaisy/src/dev/mpr121.h **** 
 1481              		.loc 7 152 22 view .LVU334
 1482 02c6 4A46     		mov	r2, r9
 1483 02c8 3521     		movs	r1, #53
 1484 02ca 1B48     		ldr	r0, .L25+8
 1485 02cc FFF7FEFF 		bl	_ZN5daisy6Mpr121INS_18Mpr121I2CTransportEE13WriteRegisterEhh
 1486              	.LVL86:
 154:../../libs/libDaisy/src/dev/mpr121.h ****         WriteRegister(MPR121_CONFIG1, 0x10); // default, 16uA charge current
 1487              		.loc 7 154 22 view .LVU335
 1488 02d0 4A46     		mov	r2, r9
 1489 02d2 5B21     		movs	r1, #91
 1490 02d4 1848     		ldr	r0, .L25+8
 1491 02d6 FFF7FEFF 		bl	_ZN5daisy6Mpr121INS_18Mpr121I2CTransportEE13WriteRegisterEhh
 1492              	.LVL87:
 155:../../libs/libDaisy/src/dev/mpr121.h ****         WriteRegister(MPR121_CONFIG2, 0x20); // 0.5uS encoding, 1ms period
 1493              		.loc 7 155 22 view .LVU336
 1494 02da 1022     		movs	r2, #16
 1495 02dc 5C21     		movs	r1, #92
 1496 02de 1648     		ldr	r0, .L25+8
 1497 02e0 FFF7FEFF 		bl	_ZN5daisy6Mpr121INS_18Mpr121I2CTransportEE13WriteRegisterEhh
 1498              	.LVL88:
 156:../../libs/libDaisy/src/dev/mpr121.h **** 
 1499              		.loc 7 156 22 view .LVU337
 1500 02e4 2022     		movs	r2, #32
 1501 02e6 5D21     		movs	r1, #93
 1502 02e8 1348     		ldr	r0, .L25+8
 1503 02ea FFF7FEFF 		bl	_ZN5daisy6Mpr121INS_18Mpr121I2CTransportEE13WriteRegisterEhh
 1504              	.LVL89:
ARM GAS  C:\Users\skipi\AppData\Local\Temp\ccYcyPVo.s 			page 52


 172:../../libs/libDaisy/src/dev/mpr121.h ****                       ECR_SETTING); // start with above ECR setting
 1505              		.loc 7 172 22 view .LVU338
 1506 02ee 8C22     		movs	r2, #140
 1507 02f0 4146     		mov	r1, r8
 1508 02f2 1148     		ldr	r0, .L25+8
 1509 02f4 FFF7FEFF 		bl	_ZN5daisy6Mpr121INS_18Mpr121I2CTransportEE13WriteRegisterEhh
 1510              	.LVL90:
 1511              	.LBB874:
 1512              	.LBI874:
 344:../../libs/libDaisy/src/dev/mpr121.h **** 
 345:../../libs/libDaisy/src/dev/mpr121.h ****     /** Get the global transport_error_ bool (as a Result), then reset it */
 346:../../libs/libDaisy/src/dev/mpr121.h ****     Result GetTransportErr()
 1513              		.loc 7 346 12 is_stmt 1 view .LVU339
 1514              	.LBB875:
 347:../../libs/libDaisy/src/dev/mpr121.h ****     {
 348:../../libs/libDaisy/src/dev/mpr121.h ****         Result ret       = transport_error_ ? ERR : OK;
 1515              		.loc 7 348 45 is_stmt 0 view .LVU340
 1516 02f8 94F83060 		ldrb	r6, [r4, #48]	@ zero_extendqisi2
 1517 02fc 16B3     		cbz	r6, .L12
 1518              	.LVL91:
 1519              		.loc 7 348 45 view .LVU341
 1520              	.LBE875:
 1521              	.LBE874:
 1522              	.LBE878:
 1523              	.LBE694:
 1524              	.LBB880:
 1525              	.LBB881:
 128:../../libs/libDaisy/src/daisy_seed.h ****     }
 1526              		.loc 1 128 23 view .LVU342
 1527 02fe 1048     		ldr	r0, .L25+16
 1528              	.LBE881:
 1529              	.LBE880:
 1530              	.LBB883:
 1531              	.LBB879:
 1532              	.LBB877:
 1533              	.LBB876:
 349:../../libs/libDaisy/src/dev/mpr121.h ****         transport_error_ = false;
 1534              		.loc 7 349 26 view .LVU343
 1535 0300 84F83090 		strb	r9, [r4, #48]
 1536              	.LVL92:
 1537              		.loc 7 349 26 view .LVU344
 1538              	.LBE876:
 1539              	.LBE877:
 1540              	.LBE879:
 1541              	.LBE883:
  37:main0.cpp     ****   {
  38:main0.cpp     ****     hw.PrintLine("MPR121 not found, check wiring?");
 1542              		.loc 8 38 5 is_stmt 1 view .LVU345
 1543              	.LBB884:
 1544              	.LBI880:
 126:../../libs/libDaisy/src/daisy_seed.h ****     {
 1545              		.loc 1 126 17 view .LVU346
 1546              	.LBB882:
 128:../../libs/libDaisy/src/daisy_seed.h ****     }
 1547              		.loc 1 128 23 is_stmt 0 view .LVU347
 1548 0304 FFF7FEFF 		bl	_ZN5daisy6LoggerILNS_17LoggerDestinationE1EE9PrintLineEPKcz
 1549              	.LVL93:
ARM GAS  C:\Users\skipi\AppData\Local\Temp\ccYcyPVo.s 			page 53


 1550              	.L13:
 128:../../libs/libDaisy/src/daisy_seed.h ****     }
 1551              		.loc 1 128 23 view .LVU348
 1552              	.LBE882:
 1553              	.LBE884:
  39:main0.cpp     ****     while (1)
 1554              		.loc 8 39 5 is_stmt 1 discriminator 1 view .LVU349
  40:main0.cpp     ****     {
  41:main0.cpp     ****       hw.SetLed(true);                                                          // blink if not ok
 1555              		.loc 8 41 7 discriminator 1 view .LVU350
 1556              		.loc 8 41 16 is_stmt 0 discriminator 1 view .LVU351
 1557 0308 0121     		movs	r1, #1
 1558 030a 0948     		ldr	r0, .L25
 1559 030c FFF7FEFF 		bl	_ZN5daisy9DaisySeed6SetLedEb
 1560              	.LVL94:
  42:main0.cpp     ****       hw.DelayMs(500);
 1561              		.loc 8 42 7 is_stmt 1 discriminator 1 view .LVU352
 1562              		.loc 8 42 17 is_stmt 0 discriminator 1 view .LVU353
 1563 0310 4FF4FA71 		mov	r1, #500
 1564 0314 0648     		ldr	r0, .L25
 1565 0316 FFF7FEFF 		bl	_ZN5daisy9DaisySeed7DelayMsEj
 1566              	.LVL95:
  43:main0.cpp     ****       hw.SetLed(false);
 1567              		.loc 8 43 7 is_stmt 1 discriminator 1 view .LVU354
 1568              		.loc 8 43 16 is_stmt 0 discriminator 1 view .LVU355
 1569 031a 0021     		movs	r1, #0
 1570 031c 0448     		ldr	r0, .L25
 1571 031e FFF7FEFF 		bl	_ZN5daisy9DaisySeed6SetLedEb
 1572              	.LVL96:
  44:main0.cpp     ****       hw.DelayMs(500);
 1573              		.loc 8 44 7 is_stmt 1 discriminator 1 view .LVU356
 1574              		.loc 8 44 17 is_stmt 0 discriminator 1 view .LVU357
 1575 0322 4FF4FA71 		mov	r1, #500
 1576 0326 0248     		ldr	r0, .L25
 1577 0328 FFF7FEFF 		bl	_ZN5daisy9DaisySeed7DelayMsEj
 1578              	.LVL97:
  39:main0.cpp     ****     {
 1579              		.loc 8 39 5 is_stmt 1 discriminator 1 view .LVU358
 1580 032c ECE7     		b	.L13
 1581              	.L26:
 1582 032e 00BF     		.align	2
 1583              	.L25:
 1584 0330 00000000 		.word	.LANCHOR0
 1585 0334 00000000 		.word	.LANCHOR1
 1586 0338 00000000 		.word	.LANCHOR2
 1587 033c 18000000 		.word	.LANCHOR2+24
 1588 0340 00000000 		.word	.LC0
 1589              	.LVL98:
 1590              	.L12:
  45:main0.cpp     ****     }
  46:main0.cpp     ****   }
  47:main0.cpp     ****   hw.PrintLine("MPR121 found!");
 1591              		.loc 8 47 3 view .LVU359
 1592              	.LBB885:
 1593              	.LBI885:
 126:../../libs/libDaisy/src/daisy_seed.h ****     {
 1594              		.loc 1 126 17 view .LVU360
ARM GAS  C:\Users\skipi\AppData\Local\Temp\ccYcyPVo.s 			page 54


 1595              	.LBB886:
 128:../../libs/libDaisy/src/daisy_seed.h ****     }
 1596              		.loc 1 128 23 is_stmt 0 view .LVU361
 1597 0344 0648     		ldr	r0, .L27
 1598 0346 FFF7FEFF 		bl	_ZN5daisy6LoggerILNS_17LoggerDestinationE1EE9PrintLineEPKcz
 1599              	.LVL99:
 128:../../libs/libDaisy/src/daisy_seed.h ****     }
 1600              		.loc 1 128 23 view .LVU362
 1601              	.LBE886:
 1602              	.LBE885:
  48:main0.cpp     **** 
  49:main0.cpp     ****   filter.Init(CapFir::ResType::LOW);                     // initializes the filter with the low pas
 1603              		.loc 8 49 3 is_stmt 1 view .LVU363
 1604              		.loc 8 49 14 is_stmt 0 view .LVU364
 1605 034a 3146     		mov	r1, r6
 1606 034c 0548     		ldr	r0, .L27+4
 1607 034e DFF81880 		ldr	r8, .L27+8
 1608 0352 FFF7FEFF 		bl	_ZN6CapFir4InitENS_7ResTypeE
 1609              	.LVL100:
 1610 0356 DFF81490 		ldr	r9, .L27+12
 1611 035a DFF814B0 		ldr	fp, .L27+16
 1612 035e BCE0     		b	.L14
 1613              	.L28:
 1614              		.align	2
 1615              	.L27:
 1616 0360 20000000 		.word	.LC1
 1617 0364 00000000 		.word	.LANCHOR3
 1618 0368 00000000 		.word	.LANCHOR4
 1619 036c 00000000 		.word	.LANCHOR5
 1620 0370 00000000 		.word	.LANCHOR6
 1621              	.L24:
  50:main0.cpp     ****   //cap.SetThresholds(12, 6); // sets the touch and release thresholds for all 12 channels         
  51:main0.cpp     **** 
  52:main0.cpp     ****   while (1)
  53:main0.cpp     ****   {
  54:main0.cpp     **** 
  55:main0.cpp     ****     currtouched = cap.Touched();                                            // reads the touched ch
  56:main0.cpp     **** 
  57:main0.cpp     ****     
  58:main0.cpp     ****     if ((currtouched & _BV(0)) && !(lasttouched & _BV(0)))                 // if the channel 0 is t
  59:main0.cpp     ****     {
  60:main0.cpp     ****       hw.PrintLine("-------------------------------------------------------------------------------
  61:main0.cpp     ****       hw.PrintLine("CAP 0 touched"); 
  62:main0.cpp     ****       touched = true;  
  63:main0.cpp     ****     }
  64:main0.cpp     **** 
  65:main0.cpp     ****     //if it *was* touched and now *isnt*, alert!
  66:main0.cpp     ****     if (!(currtouched & _BV(0)) && (lasttouched & _BV(0)))                // if the channel 0 was t
 1622              		.loc 8 66 33 view .LVU365
 1623 0374 D807     		lsls	r0, r3, #31
 1624 0376 00F1E580 		bmi	.L16
 1625              	.L17:
  67:main0.cpp     ****     {
  68:main0.cpp     ****       hw.PrintLine("CAP 0 released");
  69:main0.cpp     ****       hw.PrintLine("-------------------------------------------------------------------------------
  70:main0.cpp     ****       hw.PrintLine(" ");
  71:main0.cpp     ****       touched = false;
ARM GAS  C:\Users\skipi\AppData\Local\Temp\ccYcyPVo.s 			page 55


  72:main0.cpp     ****        
  73:main0.cpp     ****     }
  74:main0.cpp     **** 
  75:main0.cpp     ****     if (touched)                                                     
 1626              		.loc 8 75 5 is_stmt 1 view .LVU366
 1627 037a 9BF80030 		ldrb	r3, [fp]	@ zero_extendqisi2
 1628 037e 002B     		cmp	r3, #0
 1629 0380 00F0EC80 		beq	.L20
 1630              	.L21:
  76:main0.cpp     ****     {
  77:main0.cpp     ****       hw.PrintLine("| ");
 1631              		.loc 8 77 7 view .LVU367
 1632              	.LVL101:
 1633              	.LBB887:
 1634              	.LBI887:
 126:../../libs/libDaisy/src/daisy_seed.h ****     {
 1635              		.loc 1 126 17 view .LVU368
 1636              	.LBB888:
 128:../../libs/libDaisy/src/daisy_seed.h ****     }
 1637              		.loc 1 128 23 is_stmt 0 view .LVU369
 1638 0384 CA48     		ldr	r0, .L29
 1639              	.LBE888:
 1640              	.LBE887:
 1641              	.LBB890:
 1642              	.LBB891:
 1643              	.LBB892:
 1644              	.LBB893:
 1645              	.LBB894:
 1646              	.LBB895:
 1647              	.LBB896:
 1648              	.LBB897:
  78:../../libs/libDaisy/src/dev/mpr121.h ****                    config_.dev_addr, memAddress, 1, data, memSize, 10);
 1649              		.loc 7 78 32 view .LVU370
 1650 0386 0A26     		movs	r6, #10
 1651              	.LBE897:
 1652              	.LBE896:
 1653              	.LBE895:
 1654              	.LBE894:
 1655              	.LBE893:
 1656              	.LBE892:
 1657              	.LBE891:
 1658              	.LBE890:
 1659              	.LBB931:
 1660              	.LBB889:
 128:../../libs/libDaisy/src/daisy_seed.h ****     }
 1661              		.loc 1 128 23 view .LVU371
 1662 0388 FFF7FEFF 		bl	_ZN5daisy6LoggerILNS_17LoggerDestinationE1EE9PrintLineEPKcz
 1663              	.LVL102:
 128:../../libs/libDaisy/src/daisy_seed.h ****     }
 1664              		.loc 1 128 23 view .LVU372
 1665              	.LBE889:
 1666              	.LBE931:
  78:main0.cpp     ****       hw.PrintLine("| Baseline Touched Value : %d |", cap.BaselineData(0));
 1667              		.loc 8 78 7 is_stmt 1 view .LVU373
 1668              	.LBB932:
 1669              	.LBI890:
 214:../../libs/libDaisy/src/dev/mpr121.h ****     {
ARM GAS  C:\Users\skipi\AppData\Local\Temp\ccYcyPVo.s 			page 56


 1670              		.loc 7 214 14 view .LVU374
 1671              	.LBB927:
 1672              	.LBB923:
 1673              	.LBI892:
 214:../../libs/libDaisy/src/dev/mpr121.h ****     {
 1674              		.loc 7 214 14 view .LVU375
 1675              	.LBB919:
 1676              	.LBB915:
 1677              	.LBI894:
 237:../../libs/libDaisy/src/dev/mpr121.h ****     {
 1678              		.loc 7 237 13 view .LVU376
 1679              	.LBB911:
 1680              	.LBB901:
 1681              	.LBI896:
  75:../../libs/libDaisy/src/dev/mpr121.h ****     {
 1682              		.loc 7 75 10 view .LVU377
 1683              	.LBB898:
  77:../../libs/libDaisy/src/dev/mpr121.h ****                != i2c_.Mem_read(
 1684              		.loc 7 77 9 view .LVU378
  78:../../libs/libDaisy/src/dev/mpr121.h ****                    config_.dev_addr, memAddress, 1, data, memSize, 10);
 1685              		.loc 7 78 32 is_stmt 0 view .LVU379
 1686 038c 0123     		movs	r3, #1
 1687 038e 94F82C10 		ldrb	r1, [r4, #44]	@ zero_extendqisi2
 1688 0392 1E22     		movs	r2, #30
 1689 0394 C748     		ldr	r0, .L29+4
 1690              	.LBE898:
 1691              	.LBE901:
 1692              	.LBE911:
 1693              	.LBE915:
 1694              	.LBE919:
 1695              	.LBE923:
 1696              	.LBE927:
 1697              	.LBE932:
 1698              	.LBB933:
 1699              	.LBB934:
 1700              	.LBB935:
 1701              	.LBB936:
 1702              	.LBB937:
 1703              	.LBB938:
 1704 0396 0227     		movs	r7, #2
 1705              	.LBE938:
 1706              	.LBE937:
 1707              	.LBE936:
 1708              	.LBE935:
 1709              	.LBE934:
 1710              	.LBE933:
 1711              	.LBB954:
 1712              	.LBB928:
 1713              	.LBB924:
 1714              	.LBB920:
 1715              	.LBB916:
 1716              	.LBB912:
 1717              	.LBB902:
 1718              	.LBB899:
 1719 0398 0095     		str	r5, [sp]
 1720 039a CDE90136 		strd	r3, r6, [sp, #4]
 1721 039e FFF7FEFF 		bl	_ZN5daisy9I2CHandle8Mem_readEtttPhtm
ARM GAS  C:\Users\skipi\AppData\Local\Temp\ccYcyPVo.s 			page 57


 1722              	.LVL103:
  78:../../libs/libDaisy/src/dev/mpr121.h ****                    config_.dev_addr, memAddress, 1, data, memSize, 10);
 1723              		.loc 7 78 32 view .LVU380
 1724              	.LBE899:
 1725              	.LBE902:
 1726              	.LBB903:
 1727              	.LBB904:
 343:../../libs/libDaisy/src/dev/mpr121.h **** 
 1728              		.loc 7 343 55 view .LVU381
 1729 03a2 94F83020 		ldrb	r2, [r4, #48]	@ zero_extendqisi2
 1730              	.LBE904:
 1731              	.LBE903:
 1732              	.LBB907:
 1733              	.LBB900:
  78:../../libs/libDaisy/src/dev/mpr121.h ****                    config_.dev_addr, memAddress, 1, data, memSize, 10);
 1734              		.loc 7 78 32 view .LVU382
 1735 03a6 8446     		mov	ip, r0
 1736              	.LVL104:
  78:../../libs/libDaisy/src/dev/mpr121.h ****                    config_.dev_addr, memAddress, 1, data, memSize, 10);
 1737              		.loc 7 78 32 view .LVU383
 1738              	.LBE900:
 1739              	.LBE907:
 1740              	.LBB908:
 1741              	.LBI903:
 343:../../libs/libDaisy/src/dev/mpr121.h **** 
 1742              		.loc 7 343 10 is_stmt 1 view .LVU384
 1743              	.LBE908:
 241:../../libs/libDaisy/src/dev/mpr121.h ****     }
 1744              		.loc 7 241 16 is_stmt 0 view .LVU385
 1745 03a8 9DF83810 		ldrb	r1, [sp, #56]	@ zero_extendqisi2
 1746              	.LBE912:
 1747              	.LBE916:
 1748              	.LBE920:
 1749              	.LBE924:
 1750              	.LBE928:
 1751              	.LBE954:
 1752              	.LBB955:
 1753              	.LBB956:
 128:../../libs/libDaisy/src/daisy_seed.h ****     }
 1754              		.loc 1 128 23 view .LVU386
 1755 03ac C248     		ldr	r0, .L29+8
 1756              	.LVL105:
 128:../../libs/libDaisy/src/daisy_seed.h ****     }
 1757              		.loc 1 128 23 view .LVU387
 1758              	.LBE956:
 1759              	.LBE955:
 1760              	.LBB959:
 1761              	.LBB929:
 1762              	.LBB925:
 1763              	.LBB921:
 1764              	.LBB917:
 1765              	.LBB913:
 1766              	.LBB909:
 1767              	.LBB905:
 343:../../libs/libDaisy/src/dev/mpr121.h **** 
 1768              		.loc 7 343 55 view .LVU388
 1769 03ae BCF1000F 		cmp	ip, #0
ARM GAS  C:\Users\skipi\AppData\Local\Temp\ccYcyPVo.s 			page 58


 1770 03b2 18BF     		it	ne
 1771 03b4 42F00102 		orrne	r2, r2, #1
 1772              	.LBE905:
 1773              	.LBE909:
 1774              	.LBE913:
 1775              	.LBE917:
 1776              	.LBE921:
 1777              	.LBE925:
 1778              	.LBE929:
 1779              	.LBE959:
 1780              	.LBB960:
 1781              	.LBB957:
 128:../../libs/libDaisy/src/daisy_seed.h ****     }
 1782              		.loc 1 128 23 view .LVU389
 1783 03b8 B940     		lsls	r1, r1, r7
 1784              	.LBE957:
 1785              	.LBE960:
 1786              	.LBB961:
 1787              	.LBB930:
 1788              	.LBB926:
 1789              	.LBB922:
 1790              	.LBB918:
 1791              	.LBB914:
 1792              	.LBB910:
 1793              	.LBB906:
 343:../../libs/libDaisy/src/dev/mpr121.h **** 
 1794              		.loc 7 343 55 view .LVU390
 1795 03ba 84F83020 		strb	r2, [r4, #48]
 1796              	.LVL106:
 343:../../libs/libDaisy/src/dev/mpr121.h **** 
 1797              		.loc 7 343 55 view .LVU391
 1798              	.LBE906:
 1799              	.LBE910:
 1800              	.LBE914:
 1801              	.LBE918:
 1802              	.LBE922:
 1803              	.LBE926:
 1804              	.LBE930:
 1805              	.LBE961:
 1806              	.LBB962:
 1807              	.LBI955:
 126:../../libs/libDaisy/src/daisy_seed.h ****     {
 1808              		.loc 1 126 17 is_stmt 1 view .LVU392
 1809              	.LBB958:
 128:../../libs/libDaisy/src/daisy_seed.h ****     }
 1810              		.loc 1 128 23 is_stmt 0 view .LVU393
 1811 03be FFF7FEFF 		bl	_ZN5daisy6LoggerILNS_17LoggerDestinationE1EE9PrintLineEPKcz
 1812              	.LVL107:
 128:../../libs/libDaisy/src/daisy_seed.h ****     }
 1813              		.loc 1 128 23 view .LVU394
 1814              	.LBE958:
 1815              	.LBE962:
  79:main0.cpp     ****       hw.PrintLine("| Filtered Touched Value : %d |", cap.FilteredData(0));
 1816              		.loc 8 79 7 is_stmt 1 view .LVU395
 1817              	.LBB963:
 1818              	.LBI933:
 201:../../libs/libDaisy/src/dev/mpr121.h ****     {
ARM GAS  C:\Users\skipi\AppData\Local\Temp\ccYcyPVo.s 			page 59


 1819              		.loc 7 201 14 view .LVU396
 1820              	.LBB952:
 1821              	.LBI934:
 201:../../libs/libDaisy/src/dev/mpr121.h ****     {
 1822              		.loc 7 201 14 view .LVU397
 1823              	.LBB950:
 1824              	.LBI935:
 244:../../libs/libDaisy/src/dev/mpr121.h ****     {
 1825              		.loc 7 244 14 view .LVU398
 1826              	.LBB948:
 1827              	.LBB941:
 1828              	.LBI937:
  75:../../libs/libDaisy/src/dev/mpr121.h ****     {
 1829              		.loc 7 75 10 view .LVU399
 1830              	.LBB939:
  77:../../libs/libDaisy/src/dev/mpr121.h ****                != i2c_.Mem_read(
 1831              		.loc 7 77 9 view .LVU400
  78:../../libs/libDaisy/src/dev/mpr121.h ****                    config_.dev_addr, memAddress, 1, data, memSize, 10);
 1832              		.loc 7 78 32 is_stmt 0 view .LVU401
 1833 03c2 94F82C10 		ldrb	r1, [r4, #44]	@ zero_extendqisi2
 1834 03c6 0123     		movs	r3, #1
 1835 03c8 0422     		movs	r2, #4
 1836 03ca BA48     		ldr	r0, .L29+4
 1837 03cc 0095     		str	r5, [sp]
 1838 03ce CDE90176 		strd	r7, r6, [sp, #4]
 1839 03d2 FFF7FEFF 		bl	_ZN5daisy9I2CHandle8Mem_readEtttPhtm
 1840              	.LVL108:
  78:../../libs/libDaisy/src/dev/mpr121.h ****                    config_.dev_addr, memAddress, 1, data, memSize, 10);
 1841              		.loc 7 78 32 view .LVU402
 1842              	.LBE939:
 1843              	.LBE941:
 1844              	.LBB942:
 1845              	.LBB943:
 343:../../libs/libDaisy/src/dev/mpr121.h **** 
 1846              		.loc 7 343 55 view .LVU403
 1847 03d6 94F83020 		ldrb	r2, [r4, #48]	@ zero_extendqisi2
 1848              	.LBE943:
 1849              	.LBE942:
 1850              	.LBB945:
 1851              	.LBB940:
  78:../../libs/libDaisy/src/dev/mpr121.h ****                    config_.dev_addr, memAddress, 1, data, memSize, 10);
 1852              		.loc 7 78 32 view .LVU404
 1853 03da 8446     		mov	ip, r0
 1854              	.LVL109:
  78:../../libs/libDaisy/src/dev/mpr121.h ****                    config_.dev_addr, memAddress, 1, data, memSize, 10);
 1855              		.loc 7 78 32 view .LVU405
 1856              	.LBE940:
 1857              	.LBE945:
 1858              	.LBB946:
 1859              	.LBI942:
 343:../../libs/libDaisy/src/dev/mpr121.h **** 
 1860              		.loc 7 343 10 is_stmt 1 view .LVU406
 1861              	.LBE946:
 1862              	.LBE948:
 1863              	.LBE950:
 1864              	.LBE952:
 1865              	.LBE963:
ARM GAS  C:\Users\skipi\AppData\Local\Temp\ccYcyPVo.s 			page 60


 1866              	.LBB964:
 1867              	.LBB965:
 128:../../libs/libDaisy/src/daisy_seed.h ****     }
 1868              		.loc 1 128 23 is_stmt 0 view .LVU407
 1869 03dc BDF83810 		ldrh	r1, [sp, #56]
 1870 03e0 B648     		ldr	r0, .L29+12
 1871              	.LVL110:
 128:../../libs/libDaisy/src/daisy_seed.h ****     }
 1872              		.loc 1 128 23 view .LVU408
 1873              	.LBE965:
 1874              	.LBE964:
 1875              	.LBB967:
 1876              	.LBB953:
 1877              	.LBB951:
 1878              	.LBB949:
 1879              	.LBB947:
 1880              	.LBB944:
 343:../../libs/libDaisy/src/dev/mpr121.h **** 
 1881              		.loc 7 343 55 view .LVU409
 1882 03e2 BCF1000F 		cmp	ip, #0
 1883 03e6 18BF     		it	ne
 1884 03e8 42F00102 		orrne	r2, r2, #1
 1885 03ec 84F83020 		strb	r2, [r4, #48]
 1886              	.LVL111:
 343:../../libs/libDaisy/src/dev/mpr121.h **** 
 1887              		.loc 7 343 55 view .LVU410
 1888              	.LBE944:
 1889              	.LBE947:
 1890              	.LBE949:
 1891              	.LBE951:
 1892              	.LBE953:
 1893              	.LBE967:
 1894              	.LBB968:
 1895              	.LBI964:
 126:../../libs/libDaisy/src/daisy_seed.h ****     {
 1896              		.loc 1 126 17 is_stmt 1 view .LVU411
 1897              	.LBB966:
 128:../../libs/libDaisy/src/daisy_seed.h ****     }
 1898              		.loc 1 128 23 is_stmt 0 view .LVU412
 1899 03f0 FFF7FEFF 		bl	_ZN5daisy6LoggerILNS_17LoggerDestinationE1EE9PrintLineEPKcz
 1900              	.LVL112:
 128:../../libs/libDaisy/src/daisy_seed.h ****     }
 1901              		.loc 1 128 23 view .LVU413
 1902              	.LBE966:
 1903              	.LBE968:
  80:main0.cpp     ****       hw.PrintLine("| Difference Touched Value : %d |", cap.BaselineData(0) - cap.FilteredData(0));
 1904              		.loc 8 80 7 is_stmt 1 view .LVU414
 1905              	.LBB969:
 1906              	.LBI969:
 214:../../libs/libDaisy/src/dev/mpr121.h ****     {
 1907              		.loc 7 214 14 view .LVU415
 1908              	.LBB970:
 1909              	.LBB971:
 1910              	.LBI971:
 214:../../libs/libDaisy/src/dev/mpr121.h ****     {
 1911              		.loc 7 214 14 view .LVU416
 1912              	.LBB972:
ARM GAS  C:\Users\skipi\AppData\Local\Temp\ccYcyPVo.s 			page 61


 1913              	.LBB973:
 1914              	.LBI973:
 237:../../libs/libDaisy/src/dev/mpr121.h ****     {
 1915              		.loc 7 237 13 view .LVU417
 1916              	.LBB974:
 1917              	.LBB975:
 1918              	.LBI975:
  75:../../libs/libDaisy/src/dev/mpr121.h ****     {
 1919              		.loc 7 75 10 view .LVU418
 1920              	.LBB976:
  77:../../libs/libDaisy/src/dev/mpr121.h ****                != i2c_.Mem_read(
 1921              		.loc 7 77 9 view .LVU419
  78:../../libs/libDaisy/src/dev/mpr121.h ****                    config_.dev_addr, memAddress, 1, data, memSize, 10);
 1922              		.loc 7 78 32 is_stmt 0 view .LVU420
 1923 03f4 0123     		movs	r3, #1
 1924 03f6 94F82C10 		ldrb	r1, [r4, #44]	@ zero_extendqisi2
 1925 03fa 1E22     		movs	r2, #30
 1926 03fc AD48     		ldr	r0, .L29+4
 1927 03fe 0095     		str	r5, [sp]
 1928 0400 CDE90136 		strd	r3, r6, [sp, #4]
 1929 0404 FFF7FEFF 		bl	_ZN5daisy9I2CHandle8Mem_readEtttPhtm
 1930              	.LVL113:
  78:../../libs/libDaisy/src/dev/mpr121.h ****                    config_.dev_addr, memAddress, 1, data, memSize, 10);
 1931              		.loc 7 78 32 view .LVU421
 1932              	.LBE976:
 1933              	.LBE975:
 1934              	.LBB977:
 1935              	.LBI977:
 343:../../libs/libDaisy/src/dev/mpr121.h **** 
 1936              		.loc 7 343 10 is_stmt 1 view .LVU422
 1937              	.LBB978:
 343:../../libs/libDaisy/src/dev/mpr121.h **** 
 1938              		.loc 7 343 55 is_stmt 0 view .LVU423
 1939 0408 94F830C0 		ldrb	ip, [r4, #48]	@ zero_extendqisi2
 1940              	.LBE978:
 1941              	.LBE977:
 1942              	.LBE974:
 1943              	.LBE973:
 1944              	.LBE972:
 1945              	.LBE971:
 1946              	.LBE970:
 1947              	.LBE969:
 1948              	.LBB998:
 1949              	.LBB999:
 1950              	.LBB1000:
 1951              	.LBB1001:
 1952              	.LBB1002:
 1953              	.LBB1003:
  78:../../libs/libDaisy/src/dev/mpr121.h ****                    config_.dev_addr, memAddress, 1, data, memSize, 10);
 1954              		.loc 7 78 32 view .LVU424
 1955 040c 94F82C10 		ldrb	r1, [r4, #44]	@ zero_extendqisi2
 1956 0410 0123     		movs	r3, #1
 1957              	.LBE1003:
 1958              	.LBE1002:
 1959              	.LBE1001:
 1960              	.LBE1000:
 1961              	.LBE999:
ARM GAS  C:\Users\skipi\AppData\Local\Temp\ccYcyPVo.s 			page 62


 1962              	.LBE998:
 1963              	.LBB1034:
 1964              	.LBB995:
 1965              	.LBB992:
 1966              	.LBB989:
 1967              	.LBB986:
 1968              	.LBB983:
 1969              	.LBB981:
 1970              	.LBB979:
 343:../../libs/libDaisy/src/dev/mpr121.h **** 
 1971              		.loc 7 343 55 view .LVU425
 1972 0412 0028     		cmp	r0, #0
 1973 0414 18BF     		it	ne
 1974 0416 4CF0010C 		orrne	ip, ip, #1
 1975              	.LBE979:
 1976              	.LBE981:
 1977              	.LBE983:
 1978              	.LBE986:
 1979              	.LBE989:
 1980              	.LBE992:
 1981              	.LBE995:
 1982              	.LBE1034:
 1983              	.LBB1035:
 1984              	.LBB1029:
 1985              	.LBB1024:
 1986              	.LBB1019:
 1987              	.LBB1008:
 1988              	.LBB1004:
  78:../../libs/libDaisy/src/dev/mpr121.h ****                    config_.dev_addr, memAddress, 1, data, memSize, 10);
 1989              		.loc 7 78 32 view .LVU426
 1990 041a 0422     		movs	r2, #4
 1991 041c 0095     		str	r5, [sp]
 1992 041e A548     		ldr	r0, .L29+4
 1993              	.LVL114:
  78:../../libs/libDaisy/src/dev/mpr121.h ****                    config_.dev_addr, memAddress, 1, data, memSize, 10);
 1994              		.loc 7 78 32 view .LVU427
 1995              	.LBE1004:
 1996              	.LBE1008:
 1997              	.LBE1019:
 1998              	.LBE1024:
 1999              	.LBE1029:
 2000              	.LBE1035:
 2001              	.LBB1036:
 2002              	.LBB996:
 2003              	.LBB993:
 2004              	.LBB990:
 2005              	.LBB987:
 2006              	.LBB984:
 241:../../libs/libDaisy/src/dev/mpr121.h ****     }
 2007              		.loc 7 241 16 view .LVU428
 2008 0420 9DF838A0 		ldrb	r10, [sp, #56]	@ zero_extendqisi2
 2009              	.LBE984:
 2010              	.LBE987:
 2011              	.LBE990:
 2012              	.LBE993:
 2013              	.LBE996:
 2014              	.LBE1036:
ARM GAS  C:\Users\skipi\AppData\Local\Temp\ccYcyPVo.s 			page 63


 2015              	.LBB1037:
 2016              	.LBB1030:
 2017              	.LBB1025:
 2018              	.LBB1020:
 2019              	.LBB1009:
 2020              	.LBB1005:
  78:../../libs/libDaisy/src/dev/mpr121.h ****                    config_.dev_addr, memAddress, 1, data, memSize, 10);
 2021              		.loc 7 78 32 view .LVU429
 2022 0424 CDE90176 		strd	r7, r6, [sp, #4]
 2023              	.LBE1005:
 2024              	.LBE1009:
 2025              	.LBE1020:
 2026              	.LBE1025:
 2027              	.LBE1030:
 2028              	.LBE1037:
 2029              	.LBB1038:
 2030              	.LBB997:
 2031              	.LBB994:
 2032              	.LBB991:
 2033              	.LBB988:
 2034              	.LBB985:
 2035              	.LBB982:
 2036              	.LBB980:
 343:../../libs/libDaisy/src/dev/mpr121.h **** 
 2037              		.loc 7 343 55 view .LVU430
 2038 0428 84F830C0 		strb	ip, [r4, #48]
 2039              	.LVL115:
 343:../../libs/libDaisy/src/dev/mpr121.h **** 
 2040              		.loc 7 343 55 view .LVU431
 2041              	.LBE980:
 2042              	.LBE982:
 2043              	.LBE985:
 2044              	.LBE988:
 2045              	.LBE991:
 2046              	.LBE994:
 2047              	.LBE997:
 2048              	.LBE1038:
 2049              	.LBB1039:
 2050              	.LBI998:
 201:../../libs/libDaisy/src/dev/mpr121.h ****     {
 2051              		.loc 7 201 14 is_stmt 1 view .LVU432
 2052              	.LBB1031:
 2053              	.LBI999:
 201:../../libs/libDaisy/src/dev/mpr121.h ****     {
 2054              		.loc 7 201 14 view .LVU433
 2055              	.LBB1026:
 2056              	.LBI1000:
 244:../../libs/libDaisy/src/dev/mpr121.h ****     {
 2057              		.loc 7 244 14 view .LVU434
 2058              	.LBB1021:
 2059              	.LBB1010:
 2060              	.LBI1002:
  75:../../libs/libDaisy/src/dev/mpr121.h ****     {
 2061              		.loc 7 75 10 view .LVU435
 2062              	.LBB1006:
  77:../../libs/libDaisy/src/dev/mpr121.h ****                != i2c_.Mem_read(
 2063              		.loc 7 77 9 view .LVU436
ARM GAS  C:\Users\skipi\AppData\Local\Temp\ccYcyPVo.s 			page 64


  78:../../libs/libDaisy/src/dev/mpr121.h ****                    config_.dev_addr, memAddress, 1, data, memSize, 10);
 2064              		.loc 7 78 32 is_stmt 0 view .LVU437
 2065 042c FFF7FEFF 		bl	_ZN5daisy9I2CHandle8Mem_readEtttPhtm
 2066              	.LVL116:
  78:../../libs/libDaisy/src/dev/mpr121.h ****                    config_.dev_addr, memAddress, 1, data, memSize, 10);
 2067              		.loc 7 78 32 view .LVU438
 2068              	.LBE1006:
 2069              	.LBE1010:
 2070              	.LBB1011:
 2071              	.LBB1012:
 343:../../libs/libDaisy/src/dev/mpr121.h **** 
 2072              		.loc 7 343 55 view .LVU439
 2073 0430 94F83020 		ldrb	r2, [r4, #48]	@ zero_extendqisi2
 2074              	.LBE1012:
 2075              	.LBE1011:
 2076              	.LBB1015:
 2077              	.LBB1007:
  78:../../libs/libDaisy/src/dev/mpr121.h ****                    config_.dev_addr, memAddress, 1, data, memSize, 10);
 2078              		.loc 7 78 32 view .LVU440
 2079 0434 8446     		mov	ip, r0
 2080              	.LVL117:
  78:../../libs/libDaisy/src/dev/mpr121.h ****                    config_.dev_addr, memAddress, 1, data, memSize, 10);
 2081              		.loc 7 78 32 view .LVU441
 2082              	.LBE1007:
 2083              	.LBE1015:
 2084              	.LBB1016:
 2085              	.LBI1011:
 343:../../libs/libDaisy/src/dev/mpr121.h **** 
 2086              		.loc 7 343 10 is_stmt 1 view .LVU442
 2087              	.LBE1016:
 250:../../libs/libDaisy/src/dev/mpr121.h ****     }
 2088              		.loc 7 250 16 is_stmt 0 view .LVU443
 2089 0436 BDF83810 		ldrh	r1, [sp, #56]
 2090              	.LBE1021:
 2091              	.LBE1026:
 2092              	.LBE1031:
 2093              	.LBE1039:
 2094              	.LBB1040:
 2095              	.LBB1041:
 128:../../libs/libDaisy/src/daisy_seed.h ****     }
 2096              		.loc 1 128 23 view .LVU444
 2097 043a A148     		ldr	r0, .L29+16
 2098              	.LVL118:
 128:../../libs/libDaisy/src/daisy_seed.h ****     }
 2099              		.loc 1 128 23 view .LVU445
 2100              	.LBE1041:
 2101              	.LBE1040:
 2102              	.LBB1044:
 2103              	.LBB1032:
 2104              	.LBB1027:
 2105              	.LBB1022:
 2106              	.LBB1017:
 2107              	.LBB1013:
 343:../../libs/libDaisy/src/dev/mpr121.h **** 
 2108              		.loc 7 343 55 view .LVU446
 2109 043c BCF1000F 		cmp	ip, #0
 2110 0440 18BF     		it	ne
ARM GAS  C:\Users\skipi\AppData\Local\Temp\ccYcyPVo.s 			page 65


 2111 0442 42F00102 		orrne	r2, r2, #1
 2112              	.LBE1013:
 2113              	.LBE1017:
 2114              	.LBE1022:
 2115              	.LBE1027:
 2116              	.LBE1032:
 2117              	.LBE1044:
 2118              	.LBB1045:
 2119              	.LBB1042:
 128:../../libs/libDaisy/src/daisy_seed.h ****     }
 2120              		.loc 1 128 23 view .LVU447
 2121 0446 C1EB8A01 		rsb	r1, r1, r10, lsl #2
 2122              	.LBE1042:
 2123              	.LBE1045:
 2124              	.LBB1046:
 2125              	.LBB1033:
 2126              	.LBB1028:
 2127              	.LBB1023:
 2128              	.LBB1018:
 2129              	.LBB1014:
 343:../../libs/libDaisy/src/dev/mpr121.h **** 
 2130              		.loc 7 343 55 view .LVU448
 2131 044a 84F83020 		strb	r2, [r4, #48]
 2132              	.LVL119:
 343:../../libs/libDaisy/src/dev/mpr121.h **** 
 2133              		.loc 7 343 55 view .LVU449
 2134              	.LBE1014:
 2135              	.LBE1018:
 2136              	.LBE1023:
 2137              	.LBE1028:
 2138              	.LBE1033:
 2139              	.LBE1046:
 2140              	.LBB1047:
 2141              	.LBI1040:
 126:../../libs/libDaisy/src/daisy_seed.h ****     {
 2142              		.loc 1 126 17 is_stmt 1 view .LVU450
 2143              	.LBB1043:
 128:../../libs/libDaisy/src/daisy_seed.h ****     }
 2144              		.loc 1 128 23 is_stmt 0 view .LVU451
 2145 044e FFF7FEFF 		bl	_ZN5daisy6LoggerILNS_17LoggerDestinationE1EE9PrintLineEPKcz
 2146              	.LVL120:
 128:../../libs/libDaisy/src/daisy_seed.h ****     }
 2147              		.loc 1 128 23 view .LVU452
 2148              	.LBE1043:
 2149              	.LBE1047:
  81:main0.cpp     ****       hw.PrintLine("| Filtered Difference Touched Value : %f |", filter.Process(cap.BaselineData(0)
 2150              		.loc 8 81 7 is_stmt 1 view .LVU453
 2151              	.LBB1048:
 2152              	.LBI1048:
 214:../../libs/libDaisy/src/dev/mpr121.h ****     {
 2153              		.loc 7 214 14 view .LVU454
 2154              	.LBB1049:
 2155              	.LBB1050:
 2156              	.LBI1050:
 214:../../libs/libDaisy/src/dev/mpr121.h ****     {
 2157              		.loc 7 214 14 view .LVU455
 2158              	.LBB1051:
ARM GAS  C:\Users\skipi\AppData\Local\Temp\ccYcyPVo.s 			page 66


 2159              	.LBB1052:
 2160              	.LBI1052:
 237:../../libs/libDaisy/src/dev/mpr121.h ****     {
 2161              		.loc 7 237 13 view .LVU456
 2162              	.LBB1053:
 2163              	.LBB1054:
 2164              	.LBI1054:
  75:../../libs/libDaisy/src/dev/mpr121.h ****     {
 2165              		.loc 7 75 10 view .LVU457
 2166              	.LBB1055:
  77:../../libs/libDaisy/src/dev/mpr121.h ****                != i2c_.Mem_read(
 2167              		.loc 7 77 9 view .LVU458
  78:../../libs/libDaisy/src/dev/mpr121.h ****                    config_.dev_addr, memAddress, 1, data, memSize, 10);
 2168              		.loc 7 78 32 is_stmt 0 view .LVU459
 2169 0452 0123     		movs	r3, #1
 2170 0454 94F82C10 		ldrb	r1, [r4, #44]	@ zero_extendqisi2
 2171 0458 1E22     		movs	r2, #30
 2172 045a 9648     		ldr	r0, .L29+4
 2173 045c 0095     		str	r5, [sp]
 2174 045e CDE90136 		strd	r3, r6, [sp, #4]
 2175 0462 FFF7FEFF 		bl	_ZN5daisy9I2CHandle8Mem_readEtttPhtm
 2176              	.LVL121:
  78:../../libs/libDaisy/src/dev/mpr121.h ****                    config_.dev_addr, memAddress, 1, data, memSize, 10);
 2177              		.loc 7 78 32 view .LVU460
 2178              	.LBE1055:
 2179              	.LBE1054:
 2180              	.LBB1056:
 2181              	.LBI1056:
 343:../../libs/libDaisy/src/dev/mpr121.h **** 
 2182              		.loc 7 343 10 is_stmt 1 view .LVU461
 2183              	.LBB1057:
 343:../../libs/libDaisy/src/dev/mpr121.h **** 
 2184              		.loc 7 343 55 is_stmt 0 view .LVU462
 2185 0466 94F830C0 		ldrb	ip, [r4, #48]	@ zero_extendqisi2
 2186              	.LBE1057:
 2187              	.LBE1056:
 2188              	.LBE1053:
 2189              	.LBE1052:
 2190              	.LBE1051:
 2191              	.LBE1050:
 2192              	.LBE1049:
 2193              	.LBE1048:
 2194              	.LBB1077:
 2195              	.LBB1078:
 2196              	.LBB1079:
 2197              	.LBB1080:
 2198              	.LBB1081:
 2199              	.LBB1082:
  78:../../libs/libDaisy/src/dev/mpr121.h ****                    config_.dev_addr, memAddress, 1, data, memSize, 10);
 2200              		.loc 7 78 32 view .LVU463
 2201 046a 94F82C10 		ldrb	r1, [r4, #44]	@ zero_extendqisi2
 2202 046e 0123     		movs	r3, #1
 2203              	.LBE1082:
 2204              	.LBE1081:
 2205              	.LBE1080:
 2206              	.LBE1079:
 2207              	.LBE1078:
ARM GAS  C:\Users\skipi\AppData\Local\Temp\ccYcyPVo.s 			page 67


 2208              	.LBE1077:
 2209              	.LBB1112:
 2210              	.LBB1074:
 2211              	.LBB1071:
 2212              	.LBB1068:
 2213              	.LBB1065:
 2214              	.LBB1062:
 2215              	.LBB1060:
 2216              	.LBB1058:
 343:../../libs/libDaisy/src/dev/mpr121.h **** 
 2217              		.loc 7 343 55 view .LVU464
 2218 0470 0028     		cmp	r0, #0
 2219 0472 18BF     		it	ne
 2220 0474 4CF0010C 		orrne	ip, ip, #1
 2221              	.LBE1058:
 2222              	.LBE1060:
 2223              	.LBE1062:
 2224              	.LBE1065:
 2225              	.LBE1068:
 2226              	.LBE1071:
 2227              	.LBE1074:
 2228              	.LBE1112:
 2229              	.LBB1113:
 2230              	.LBB1107:
 2231              	.LBB1102:
 2232              	.LBB1097:
 2233              	.LBB1087:
 2234              	.LBB1083:
  78:../../libs/libDaisy/src/dev/mpr121.h ****                    config_.dev_addr, memAddress, 1, data, memSize, 10);
 2235              		.loc 7 78 32 view .LVU465
 2236 0478 0422     		movs	r2, #4
 2237 047a 0095     		str	r5, [sp]
 2238 047c 8D48     		ldr	r0, .L29+4
 2239              	.LVL122:
  78:../../libs/libDaisy/src/dev/mpr121.h ****                    config_.dev_addr, memAddress, 1, data, memSize, 10);
 2240              		.loc 7 78 32 view .LVU466
 2241 047e CDE90176 		strd	r7, r6, [sp, #4]
 2242              	.LBE1083:
 2243              	.LBE1087:
 2244              	.LBE1097:
 2245              	.LBE1102:
 2246              	.LBE1107:
 2247              	.LBE1113:
 2248              	.LBB1114:
 2249              	.LBB1075:
 2250              	.LBB1072:
 2251              	.LBB1069:
 2252              	.LBB1066:
 2253              	.LBB1063:
 2254              	.LBB1061:
 2255              	.LBB1059:
 343:../../libs/libDaisy/src/dev/mpr121.h **** 
 2256              		.loc 7 343 55 view .LVU467
 2257 0482 84F830C0 		strb	ip, [r4, #48]
 2258              	.LVL123:
 343:../../libs/libDaisy/src/dev/mpr121.h **** 
 2259              		.loc 7 343 55 view .LVU468
ARM GAS  C:\Users\skipi\AppData\Local\Temp\ccYcyPVo.s 			page 68


 2260              	.LBE1059:
 2261              	.LBE1061:
 2262              	.LBE1063:
 2263              	.LBE1066:
 2264              	.LBE1069:
 2265              	.LBE1072:
 2266              	.LBE1075:
 2267              	.LBE1114:
 2268              	.LBB1115:
 2269              	.LBI1077:
 201:../../libs/libDaisy/src/dev/mpr121.h ****     {
 2270              		.loc 7 201 14 is_stmt 1 view .LVU469
 2271              	.LBB1108:
 2272              	.LBI1078:
 201:../../libs/libDaisy/src/dev/mpr121.h ****     {
 2273              		.loc 7 201 14 view .LVU470
 2274              	.LBB1103:
 2275              	.LBI1079:
 244:../../libs/libDaisy/src/dev/mpr121.h ****     {
 2276              		.loc 7 244 14 view .LVU471
 2277              	.LBB1098:
 2278              	.LBB1088:
 2279              	.LBI1081:
  75:../../libs/libDaisy/src/dev/mpr121.h ****     {
 2280              		.loc 7 75 10 view .LVU472
 2281              	.LBB1084:
  77:../../libs/libDaisy/src/dev/mpr121.h ****                != i2c_.Mem_read(
 2282              		.loc 7 77 9 view .LVU473
 2283              	.LBE1084:
 2284              	.LBE1088:
 2285              	.LBE1098:
 2286              	.LBE1103:
 2287              	.LBE1108:
 2288              	.LBE1115:
 2289              	.LBB1116:
 2290              	.LBB1076:
 2291              	.LBB1073:
 2292              	.LBB1070:
 2293              	.LBB1067:
 2294              	.LBB1064:
 241:../../libs/libDaisy/src/dev/mpr121.h ****     }
 2295              		.loc 7 241 16 is_stmt 0 view .LVU474
 2296 0486 9DF83860 		ldrb	r6, [sp, #56]	@ zero_extendqisi2
 2297              	.LBE1064:
 2298              	.LBE1067:
 2299              	.LBE1070:
 2300              	.LBE1073:
 2301              	.LBE1076:
 2302              	.LBE1116:
 2303              	.LBB1117:
 2304              	.LBB1109:
 2305              	.LBB1104:
 2306              	.LBB1099:
 2307              	.LBB1089:
 2308              	.LBB1085:
  78:../../libs/libDaisy/src/dev/mpr121.h ****                    config_.dev_addr, memAddress, 1, data, memSize, 10);
 2309              		.loc 7 78 32 view .LVU475
ARM GAS  C:\Users\skipi\AppData\Local\Temp\ccYcyPVo.s 			page 69


 2310 048a FFF7FEFF 		bl	_ZN5daisy9I2CHandle8Mem_readEtttPhtm
 2311              	.LVL124:
  78:../../libs/libDaisy/src/dev/mpr121.h ****                    config_.dev_addr, memAddress, 1, data, memSize, 10);
 2312              		.loc 7 78 32 view .LVU476
 2313              	.LBE1085:
 2314              	.LBE1089:
 250:../../libs/libDaisy/src/dev/mpr121.h ****     }
 2315              		.loc 7 250 16 view .LVU477
 2316 048e BDF83820 		ldrh	r2, [sp, #56]
 2317              	.LBB1090:
 2318              	.LBB1086:
  78:../../libs/libDaisy/src/dev/mpr121.h ****                    config_.dev_addr, memAddress, 1, data, memSize, 10);
 2319              		.loc 7 78 32 view .LVU478
 2320 0492 0146     		mov	r1, r0
 2321              	.LVL125:
  78:../../libs/libDaisy/src/dev/mpr121.h ****                    config_.dev_addr, memAddress, 1, data, memSize, 10);
 2322              		.loc 7 78 32 view .LVU479
 2323              	.LBE1086:
 2324              	.LBE1090:
 2325              	.LBB1091:
 2326              	.LBI1091:
 343:../../libs/libDaisy/src/dev/mpr121.h **** 
 2327              		.loc 7 343 10 is_stmt 1 view .LVU480
 2328              	.LBB1092:
 343:../../libs/libDaisy/src/dev/mpr121.h **** 
 2329              		.loc 7 343 55 is_stmt 0 view .LVU481
 2330 0494 94F83030 		ldrb	r3, [r4, #48]	@ zero_extendqisi2
 2331              	.LBE1092:
 2332              	.LBE1091:
 2333              	.LBE1099:
 2334              	.LBE1104:
 2335              	.LBE1109:
 2336              	.LBE1117:
 2337              		.loc 8 81 101 view .LVU482
 2338 0498 C2EB8602 		rsb	r2, r2, r6, lsl #2
 2339              		.loc 8 81 19 view .LVU483
 2340 049c 8948     		ldr	r0, .L29+20
 2341              	.LVL126:
 2342              	.LBB1118:
 2343              	.LBB1110:
 2344              	.LBB1105:
 2345              	.LBB1100:
 2346              	.LBB1095:
 2347              	.LBB1093:
 343:../../libs/libDaisy/src/dev/mpr121.h **** 
 2348              		.loc 7 343 55 view .LVU484
 2349 049e 0029     		cmp	r1, #0
 2350 04a0 18BF     		it	ne
 2351 04a2 43F00103 		orrne	r3, r3, #1
 2352              	.LBE1093:
 2353              	.LBE1095:
 2354              	.LBE1100:
 2355              	.LBE1105:
 2356              	.LBE1110:
 2357              	.LBE1118:
 2358              		.loc 8 81 101 view .LVU485
 2359 04a6 00EE102A 		vmov	s0, r2	@ int
ARM GAS  C:\Users\skipi\AppData\Local\Temp\ccYcyPVo.s 			page 70


 2360              	.LBB1119:
 2361              	.LBB1111:
 2362              	.LBB1106:
 2363              	.LBB1101:
 2364              	.LBB1096:
 2365              	.LBB1094:
 343:../../libs/libDaisy/src/dev/mpr121.h **** 
 2366              		.loc 7 343 55 view .LVU486
 2367 04aa 84F83030 		strb	r3, [r4, #48]
 2368              	.LVL127:
 343:../../libs/libDaisy/src/dev/mpr121.h **** 
 2369              		.loc 7 343 55 view .LVU487
 2370              	.LBE1094:
 2371              	.LBE1096:
 2372              	.LBE1101:
 2373              	.LBE1106:
 2374              	.LBE1111:
 2375              	.LBE1119:
 2376              		.loc 8 81 19 view .LVU488
 2377 04ae B8EEC00A 		vcvt.f32.s32	s0, s0
 2378 04b2 FFF7FEFF 		bl	_ZN6CapFir7ProcessEf
 2379              	.LVL128:
 2380              	.LBB1120:
 2381              	.LBI1120:
 126:../../libs/libDaisy/src/daisy_seed.h ****     {
 2382              		.loc 1 126 17 is_stmt 1 view .LVU489
 2383              	.LBB1121:
 128:../../libs/libDaisy/src/daisy_seed.h ****     }
 2384              		.loc 1 128 23 is_stmt 0 view .LVU490
 2385 04b6 B7EEC07A 		vcvt.f64.f32	d7, s0
 2386 04ba 8348     		ldr	r0, .L29+24
 2387 04bc 53EC172B 		vmov	r2, r3, d7
 2388 04c0 FFF7FEFF 		bl	_ZN5daisy6LoggerILNS_17LoggerDestinationE1EE9PrintLineEPKcz
 2389              	.LVL129:
 128:../../libs/libDaisy/src/daisy_seed.h ****     }
 2390              		.loc 1 128 23 view .LVU491
 2391              	.LBE1121:
 2392              	.LBE1120:
  82:main0.cpp     ****       hw.PrintLine("| ");
 2393              		.loc 8 82 7 is_stmt 1 view .LVU492
 2394              	.LBB1122:
 2395              	.LBI1122:
 126:../../libs/libDaisy/src/daisy_seed.h ****     {
 2396              		.loc 1 126 17 view .LVU493
 2397              	.LBB1123:
 128:../../libs/libDaisy/src/daisy_seed.h ****     }
 2398              		.loc 1 128 23 is_stmt 0 view .LVU494
 2399 04c4 7A48     		ldr	r0, .L29
 2400 04c6 FFF7FEFF 		bl	_ZN5daisy6LoggerILNS_17LoggerDestinationE1EE9PrintLineEPKcz
 2401              	.LVL130:
 2402              	.L19:
 128:../../libs/libDaisy/src/daisy_seed.h ****     }
 2403              		.loc 1 128 23 view .LVU495
 2404              	.LBE1123:
 2405              	.LBE1122:
  83:main0.cpp     ****     } else {
  84:main0.cpp     ****       hw.PrintLine(" ");
ARM GAS  C:\Users\skipi\AppData\Local\Temp\ccYcyPVo.s 			page 71


  85:main0.cpp     ****       hw.PrintLine(" ");
  86:main0.cpp     ****       hw.PrintLine("Baseline Untouched Value : %d", cap.BaselineData(0));
  87:main0.cpp     ****       hw.PrintLine("Filtered Untouched Value : %d", cap.FilteredData(0));
  88:main0.cpp     ****       hw.PrintLine("Difference Untouched Value : %d", cap.BaselineData(0)-cap.FilteredData(0));
  89:main0.cpp     ****       hw.PrintLine("Filtered Difference Untouched Value : %f", filter.Process(cap.BaselineData(0) -
  90:main0.cpp     ****       hw.PrintLine(" ");
  91:main0.cpp     ****       hw.PrintLine(" ");
  92:main0.cpp     ****     }
  93:main0.cpp     ****     
  94:main0.cpp     ****     
  95:main0.cpp     ****     lasttouched = currtouched;
 2406              		.loc 8 95 5 is_stmt 1 view .LVU496
 2407              		.loc 8 95 17 is_stmt 0 view .LVU497
 2408 04ca B8F80030 		ldrh	r3, [r8]
  96:main0.cpp     **** 
  97:main0.cpp     ****    
  98:main0.cpp     ****     hw.DelayMs(200);
 2409              		.loc 8 98 15 view .LVU498
 2410 04ce C821     		movs	r1, #200
 2411 04d0 7E48     		ldr	r0, .L29+28
  95:main0.cpp     **** 
 2412              		.loc 8 95 17 view .LVU499
 2413 04d2 A9F80030 		strh	r3, [r9]	@ movhi
 2414              		.loc 8 98 5 is_stmt 1 view .LVU500
 2415              		.loc 8 98 15 is_stmt 0 view .LVU501
 2416 04d6 FFF7FEFF 		bl	_ZN5daisy9DaisySeed7DelayMsEj
 2417              	.LVL131:
  52:main0.cpp     ****   {
 2418              		.loc 8 52 3 is_stmt 1 view .LVU502
 2419              	.L14:
  52:main0.cpp     ****   {
 2420              		.loc 8 52 3 view .LVU503
  55:main0.cpp     **** 
 2421              		.loc 8 55 5 view .LVU504
 2422              	.LBB1124:
 2423              	.LBI1124:
 227:../../libs/libDaisy/src/dev/mpr121.h ****     {
 2424              		.loc 7 227 14 view .LVU505
 2425              	.LBB1125:
 2426              	.LBB1126:
 2427              	.LBI1126:
 244:../../libs/libDaisy/src/dev/mpr121.h ****     {
 2428              		.loc 7 244 14 view .LVU506
 2429              	.LBB1127:
 2430              	.LBB1128:
 2431              	.LBI1128:
  75:../../libs/libDaisy/src/dev/mpr121.h ****     {
 2432              		.loc 7 75 10 view .LVU507
 2433              	.LBB1129:
  77:../../libs/libDaisy/src/dev/mpr121.h ****                != i2c_.Mem_read(
 2434              		.loc 7 77 9 view .LVU508
  78:../../libs/libDaisy/src/dev/mpr121.h ****                    config_.dev_addr, memAddress, 1, data, memSize, 10);
 2435              		.loc 7 78 32 is_stmt 0 view .LVU509
 2436 04da 0226     		movs	r6, #2
 2437 04dc 0A27     		movs	r7, #10
 2438 04de 94F82C10 		ldrb	r1, [r4, #44]	@ zero_extendqisi2
 2439 04e2 0123     		movs	r3, #1
ARM GAS  C:\Users\skipi\AppData\Local\Temp\ccYcyPVo.s 			page 72


 2440 04e4 0022     		movs	r2, #0
 2441 04e6 7348     		ldr	r0, .L29+4
 2442 04e8 0095     		str	r5, [sp]
 2443 04ea CDE90167 		strd	r6, r7, [sp, #4]
 2444 04ee FFF7FEFF 		bl	_ZN5daisy9I2CHandle8Mem_readEtttPhtm
 2445              	.LVL132:
  78:../../libs/libDaisy/src/dev/mpr121.h ****                    config_.dev_addr, memAddress, 1, data, memSize, 10);
 2446              		.loc 7 78 32 view .LVU510
 2447              	.LBE1129:
 2448              	.LBE1128:
 2449              	.LBB1130:
 2450              	.LBI1130:
 343:../../libs/libDaisy/src/dev/mpr121.h **** 
 2451              		.loc 7 343 10 is_stmt 1 view .LVU511
 2452              	.LBB1131:
 343:../../libs/libDaisy/src/dev/mpr121.h **** 
 2453              		.loc 7 343 55 is_stmt 0 view .LVU512
 2454 04f2 94F83030 		ldrb	r3, [r4, #48]	@ zero_extendqisi2
 2455              	.LBE1131:
 2456              	.LBE1130:
 250:../../libs/libDaisy/src/dev/mpr121.h ****     }
 2457              		.loc 7 250 16 view .LVU513
 2458 04f6 BDF83820 		ldrh	r2, [sp, #56]
 2459              	.LBB1134:
 2460              	.LBB1132:
 343:../../libs/libDaisy/src/dev/mpr121.h **** 
 2461              		.loc 7 343 55 view .LVU514
 2462 04fa 0028     		cmp	r0, #0
 2463 04fc 18BF     		it	ne
 2464 04fe 43F00103 		orrne	r3, r3, #1
 2465              	.LBE1132:
 2466              	.LBE1134:
 2467              	.LBE1127:
 2468              	.LBE1126:
 230:../../libs/libDaisy/src/dev/mpr121.h ****     }
 2469              		.loc 7 230 20 view .LVU515
 2470 0502 C2F30B01 		ubfx	r1, r2, #0, #12
 2471              	.LBE1125:
 2472              	.LBE1124:
  58:main0.cpp     ****     {
 2473              		.loc 8 58 5 view .LVU516
 2474 0506 D607     		lsls	r6, r2, #31
 2475              	.LBB1139:
 2476              	.LBB1138:
 2477              	.LBB1137:
 2478              	.LBB1136:
 2479              	.LBB1135:
 2480              	.LBB1133:
 343:../../libs/libDaisy/src/dev/mpr121.h **** 
 2481              		.loc 7 343 55 view .LVU517
 2482 0508 84F83030 		strb	r3, [r4, #48]
 2483              	.LVL133:
 343:../../libs/libDaisy/src/dev/mpr121.h **** 
 2484              		.loc 7 343 55 view .LVU518
 2485              	.LBE1133:
 2486              	.LBE1135:
 2487              	.LBE1136:
ARM GAS  C:\Users\skipi\AppData\Local\Temp\ccYcyPVo.s 			page 73


 2488              	.LBE1137:
 2489              	.LBE1138:
 2490              	.LBE1139:
  55:main0.cpp     **** 
 2491              		.loc 8 55 17 view .LVU519
 2492 050c A8F80010 		strh	r1, [r8]	@ movhi
  58:main0.cpp     ****     {
 2493              		.loc 8 58 5 is_stmt 1 view .LVU520
  58:main0.cpp     ****     {
 2494              		.loc 8 58 32 is_stmt 0 view .LVU521
 2495 0510 B9F80030 		ldrh	r3, [r9]
  58:main0.cpp     ****     {
 2496              		.loc 8 58 5 view .LVU522
 2497 0514 7FF52EAF 		bpl	.L24
  58:main0.cpp     ****     {
 2498              		.loc 8 58 32 discriminator 1 view .LVU523
 2499 0518 D907     		lsls	r1, r3, #31
 2500 051a 3FF52EAF 		bmi	.L17
  60:main0.cpp     ****       hw.PrintLine("CAP 0 touched"); 
 2501              		.loc 8 60 7 is_stmt 1 view .LVU524
 2502              	.LVL134:
 2503              	.LBB1140:
 2504              	.LBI1140:
 126:../../libs/libDaisy/src/daisy_seed.h ****     {
 2505              		.loc 1 126 17 view .LVU525
 2506              	.LBB1141:
 128:../../libs/libDaisy/src/daisy_seed.h ****     }
 2507              		.loc 1 128 23 is_stmt 0 view .LVU526
 2508 051e 6C48     		ldr	r0, .L29+32
 2509 0520 FFF7FEFF 		bl	_ZN5daisy6LoggerILNS_17LoggerDestinationE1EE9PrintLineEPKcz
 2510              	.LVL135:
 128:../../libs/libDaisy/src/daisy_seed.h ****     }
 2511              		.loc 1 128 23 view .LVU527
 2512              	.LBE1141:
 2513              	.LBE1140:
  61:main0.cpp     ****       touched = true;  
 2514              		.loc 8 61 7 is_stmt 1 view .LVU528
 2515              	.LBB1142:
 2516              	.LBI1142:
 126:../../libs/libDaisy/src/daisy_seed.h ****     {
 2517              		.loc 1 126 17 view .LVU529
 2518              	.LBB1143:
 128:../../libs/libDaisy/src/daisy_seed.h ****     }
 2519              		.loc 1 128 23 is_stmt 0 view .LVU530
 2520 0524 6B48     		ldr	r0, .L29+36
 2521 0526 FFF7FEFF 		bl	_ZN5daisy6LoggerILNS_17LoggerDestinationE1EE9PrintLineEPKcz
 2522              	.LVL136:
 128:../../libs/libDaisy/src/daisy_seed.h ****     }
 2523              		.loc 1 128 23 view .LVU531
 2524              	.LBE1143:
 2525              	.LBE1142:
  62:main0.cpp     ****     }
 2526              		.loc 8 62 7 is_stmt 1 view .LVU532
  62:main0.cpp     ****     }
 2527              		.loc 8 62 15 is_stmt 0 view .LVU533
 2528 052a 0122     		movs	r2, #1
  66:main0.cpp     ****     {
ARM GAS  C:\Users\skipi\AppData\Local\Temp\ccYcyPVo.s 			page 74


 2529              		.loc 8 66 5 view .LVU534
 2530 052c B8F80030 		ldrh	r3, [r8]
  62:main0.cpp     ****     }
 2531              		.loc 8 62 15 view .LVU535
 2532 0530 8BF80020 		strb	r2, [fp]
  66:main0.cpp     ****     {
 2533              		.loc 8 66 5 is_stmt 1 view .LVU536
 2534 0534 DA07     		lsls	r2, r3, #31
 2535 0536 3FF525AF 		bmi	.L21
  66:main0.cpp     ****     {
 2536              		.loc 8 66 33 is_stmt 0 view .LVU537
 2537 053a B9F80030 		ldrh	r3, [r9]
 2538 053e DB07     		lsls	r3, r3, #31
 2539 0540 7FF520AF 		bpl	.L21
 2540              	.L16:
  68:main0.cpp     ****       hw.PrintLine("-------------------------------------------------------------------------------
 2541              		.loc 8 68 7 is_stmt 1 view .LVU538
 2542              	.LVL137:
 2543              	.LBB1144:
 2544              	.LBI1144:
 126:../../libs/libDaisy/src/daisy_seed.h ****     {
 2545              		.loc 1 126 17 view .LVU539
 2546              	.LBB1145:
 128:../../libs/libDaisy/src/daisy_seed.h ****     }
 2547              		.loc 1 128 23 is_stmt 0 view .LVU540
 2548 0544 6448     		ldr	r0, .L29+40
 2549 0546 FFF7FEFF 		bl	_ZN5daisy6LoggerILNS_17LoggerDestinationE1EE9PrintLineEPKcz
 2550              	.LVL138:
 128:../../libs/libDaisy/src/daisy_seed.h ****     }
 2551              		.loc 1 128 23 view .LVU541
 2552              	.LBE1145:
 2553              	.LBE1144:
  69:main0.cpp     ****       hw.PrintLine(" ");
 2554              		.loc 8 69 7 is_stmt 1 view .LVU542
 2555              	.LBB1146:
 2556              	.LBI1146:
 126:../../libs/libDaisy/src/daisy_seed.h ****     {
 2557              		.loc 1 126 17 view .LVU543
 2558              	.LBB1147:
 128:../../libs/libDaisy/src/daisy_seed.h ****     }
 2559              		.loc 1 128 23 is_stmt 0 view .LVU544
 2560 054a 6148     		ldr	r0, .L29+32
 2561 054c FFF7FEFF 		bl	_ZN5daisy6LoggerILNS_17LoggerDestinationE1EE9PrintLineEPKcz
 2562              	.LVL139:
 128:../../libs/libDaisy/src/daisy_seed.h ****     }
 2563              		.loc 1 128 23 view .LVU545
 2564              	.LBE1147:
 2565              	.LBE1146:
  70:main0.cpp     ****       touched = false;
 2566              		.loc 8 70 7 is_stmt 1 view .LVU546
 2567              	.LBB1148:
 2568              	.LBI1148:
 126:../../libs/libDaisy/src/daisy_seed.h ****     {
 2569              		.loc 1 126 17 view .LVU547
 2570              	.LBB1149:
 128:../../libs/libDaisy/src/daisy_seed.h ****     }
 2571              		.loc 1 128 23 is_stmt 0 view .LVU548
ARM GAS  C:\Users\skipi\AppData\Local\Temp\ccYcyPVo.s 			page 75


 2572 0550 6248     		ldr	r0, .L29+44
 2573 0552 FFF7FEFF 		bl	_ZN5daisy6LoggerILNS_17LoggerDestinationE1EE9PrintLineEPKcz
 2574              	.LVL140:
 128:../../libs/libDaisy/src/daisy_seed.h ****     }
 2575              		.loc 1 128 23 view .LVU549
 2576              	.LBE1149:
 2577              	.LBE1148:
  71:main0.cpp     ****        
 2578              		.loc 8 71 7 is_stmt 1 view .LVU550
  71:main0.cpp     ****        
 2579              		.loc 8 71 15 is_stmt 0 view .LVU551
 2580 0556 0023     		movs	r3, #0
 2581 0558 8BF80030 		strb	r3, [fp]
  75:main0.cpp     ****     {
 2582              		.loc 8 75 5 is_stmt 1 view .LVU552
 2583              	.L20:
  84:main0.cpp     ****       hw.PrintLine(" ");
 2584              		.loc 8 84 7 view .LVU553
 2585              	.LVL141:
 2586              	.LBB1150:
 2587              	.LBI1150:
 126:../../libs/libDaisy/src/daisy_seed.h ****     {
 2588              		.loc 1 126 17 view .LVU554
 2589              	.LBB1151:
 128:../../libs/libDaisy/src/daisy_seed.h ****     }
 2590              		.loc 1 128 23 is_stmt 0 view .LVU555
 2591 055c 5F48     		ldr	r0, .L29+44
 2592              	.LBE1151:
 2593              	.LBE1150:
 2594              	.LBB1153:
 2595              	.LBB1154:
 2596              	.LBB1155:
 2597              	.LBB1156:
 2598              	.LBB1157:
 2599              	.LBB1158:
 2600              	.LBB1159:
 2601              	.LBB1160:
  78:../../libs/libDaisy/src/dev/mpr121.h ****                    config_.dev_addr, memAddress, 1, data, memSize, 10);
 2602              		.loc 7 78 32 view .LVU556
 2603 055e 0A26     		movs	r6, #10
 2604              	.LBE1160:
 2605              	.LBE1159:
 2606              	.LBE1158:
 2607              	.LBE1157:
 2608              	.LBE1156:
 2609              	.LBE1155:
 2610              	.LBE1154:
 2611              	.LBE1153:
 2612              	.LBB1194:
 2613              	.LBB1152:
 128:../../libs/libDaisy/src/daisy_seed.h ****     }
 2614              		.loc 1 128 23 view .LVU557
 2615 0560 FFF7FEFF 		bl	_ZN5daisy6LoggerILNS_17LoggerDestinationE1EE9PrintLineEPKcz
 2616              	.LVL142:
 128:../../libs/libDaisy/src/daisy_seed.h ****     }
 2617              		.loc 1 128 23 view .LVU558
 2618              	.LBE1152:
ARM GAS  C:\Users\skipi\AppData\Local\Temp\ccYcyPVo.s 			page 76


 2619              	.LBE1194:
  85:main0.cpp     ****       hw.PrintLine("Baseline Untouched Value : %d", cap.BaselineData(0));
 2620              		.loc 8 85 7 is_stmt 1 view .LVU559
 2621              	.LBB1195:
 2622              	.LBI1195:
 126:../../libs/libDaisy/src/daisy_seed.h ****     {
 2623              		.loc 1 126 17 view .LVU560
 2624              	.LBB1196:
 128:../../libs/libDaisy/src/daisy_seed.h ****     }
 2625              		.loc 1 128 23 is_stmt 0 view .LVU561
 2626 0564 5D48     		ldr	r0, .L29+44
 2627 0566 FFF7FEFF 		bl	_ZN5daisy6LoggerILNS_17LoggerDestinationE1EE9PrintLineEPKcz
 2628              	.LVL143:
 128:../../libs/libDaisy/src/daisy_seed.h ****     }
 2629              		.loc 1 128 23 view .LVU562
 2630              	.LBE1196:
 2631              	.LBE1195:
  86:main0.cpp     ****       hw.PrintLine("Filtered Untouched Value : %d", cap.FilteredData(0));
 2632              		.loc 8 86 7 is_stmt 1 view .LVU563
 2633              	.LBB1197:
 2634              	.LBI1153:
 214:../../libs/libDaisy/src/dev/mpr121.h ****     {
 2635              		.loc 7 214 14 view .LVU564
 2636              	.LBB1190:
 2637              	.LBB1186:
 2638              	.LBI1155:
 214:../../libs/libDaisy/src/dev/mpr121.h ****     {
 2639              		.loc 7 214 14 view .LVU565
 2640              	.LBB1182:
 2641              	.LBB1178:
 2642              	.LBI1157:
 237:../../libs/libDaisy/src/dev/mpr121.h ****     {
 2643              		.loc 7 237 13 view .LVU566
 2644              	.LBB1174:
 2645              	.LBB1164:
 2646              	.LBI1159:
  75:../../libs/libDaisy/src/dev/mpr121.h ****     {
 2647              		.loc 7 75 10 view .LVU567
 2648              	.LBB1161:
  77:../../libs/libDaisy/src/dev/mpr121.h ****                != i2c_.Mem_read(
 2649              		.loc 7 77 9 view .LVU568
  78:../../libs/libDaisy/src/dev/mpr121.h ****                    config_.dev_addr, memAddress, 1, data, memSize, 10);
 2650              		.loc 7 78 32 is_stmt 0 view .LVU569
 2651 056a 0123     		movs	r3, #1
 2652 056c 94F82C10 		ldrb	r1, [r4, #44]	@ zero_extendqisi2
 2653 0570 1E22     		movs	r2, #30
 2654 0572 0095     		str	r5, [sp]
 2655              	.LBE1161:
 2656              	.LBE1164:
 2657              	.LBE1174:
 2658              	.LBE1178:
 2659              	.LBE1182:
 2660              	.LBE1186:
 2661              	.LBE1190:
 2662              	.LBE1197:
 2663              	.LBB1198:
 2664              	.LBB1199:
ARM GAS  C:\Users\skipi\AppData\Local\Temp\ccYcyPVo.s 			page 77


 2665              	.LBB1200:
 2666              	.LBB1201:
 2667              	.LBB1202:
 2668              	.LBB1203:
 2669 0574 0227     		movs	r7, #2
 2670              	.LBE1203:
 2671              	.LBE1202:
 2672              	.LBE1201:
 2673              	.LBE1200:
 2674              	.LBE1199:
 2675              	.LBE1198:
 2676              	.LBB1219:
 2677              	.LBB1191:
 2678              	.LBB1187:
 2679              	.LBB1183:
 2680              	.LBB1179:
 2681              	.LBB1175:
 2682              	.LBB1165:
 2683              	.LBB1162:
 2684 0576 4F48     		ldr	r0, .L29+4
 2685 0578 CDE90136 		strd	r3, r6, [sp, #4]
 2686 057c FFF7FEFF 		bl	_ZN5daisy9I2CHandle8Mem_readEtttPhtm
 2687              	.LVL144:
  78:../../libs/libDaisy/src/dev/mpr121.h ****                    config_.dev_addr, memAddress, 1, data, memSize, 10);
 2688              		.loc 7 78 32 view .LVU570
 2689              	.LBE1162:
 2690              	.LBE1165:
 2691              	.LBB1166:
 2692              	.LBB1167:
 343:../../libs/libDaisy/src/dev/mpr121.h **** 
 2693              		.loc 7 343 55 view .LVU571
 2694 0580 94F83020 		ldrb	r2, [r4, #48]	@ zero_extendqisi2
 2695              	.LBE1167:
 2696              	.LBE1166:
 2697              	.LBB1170:
 2698              	.LBB1163:
  78:../../libs/libDaisy/src/dev/mpr121.h ****                    config_.dev_addr, memAddress, 1, data, memSize, 10);
 2699              		.loc 7 78 32 view .LVU572
 2700 0584 8446     		mov	ip, r0
 2701              	.LVL145:
  78:../../libs/libDaisy/src/dev/mpr121.h ****                    config_.dev_addr, memAddress, 1, data, memSize, 10);
 2702              		.loc 7 78 32 view .LVU573
 2703              	.LBE1163:
 2704              	.LBE1170:
 2705              	.LBB1171:
 2706              	.LBI1166:
 343:../../libs/libDaisy/src/dev/mpr121.h **** 
 2707              		.loc 7 343 10 is_stmt 1 view .LVU574
 2708              	.LBE1171:
 241:../../libs/libDaisy/src/dev/mpr121.h ****     }
 2709              		.loc 7 241 16 is_stmt 0 view .LVU575
 2710 0586 9DF83810 		ldrb	r1, [sp, #56]	@ zero_extendqisi2
 2711              	.LBE1175:
 2712              	.LBE1179:
 2713              	.LBE1183:
 2714              	.LBE1187:
 2715              	.LBE1191:
ARM GAS  C:\Users\skipi\AppData\Local\Temp\ccYcyPVo.s 			page 78


 2716              	.LBE1219:
 2717              	.LBB1220:
 2718              	.LBB1221:
 128:../../libs/libDaisy/src/daisy_seed.h ****     }
 2719              		.loc 1 128 23 view .LVU576
 2720 058a 5548     		ldr	r0, .L29+48
 2721              	.LVL146:
 128:../../libs/libDaisy/src/daisy_seed.h ****     }
 2722              		.loc 1 128 23 view .LVU577
 2723              	.LBE1221:
 2724              	.LBE1220:
 2725              	.LBB1224:
 2726              	.LBB1192:
 2727              	.LBB1188:
 2728              	.LBB1184:
 2729              	.LBB1180:
 2730              	.LBB1176:
 2731              	.LBB1172:
 2732              	.LBB1168:
 343:../../libs/libDaisy/src/dev/mpr121.h **** 
 2733              		.loc 7 343 55 view .LVU578
 2734 058c BCF1000F 		cmp	ip, #0
 2735 0590 18BF     		it	ne
 2736 0592 42F00102 		orrne	r2, r2, #1
 2737              	.LBE1168:
 2738              	.LBE1172:
 2739              	.LBE1176:
 2740              	.LBE1180:
 2741              	.LBE1184:
 2742              	.LBE1188:
 2743              	.LBE1192:
 2744              	.LBE1224:
 2745              	.LBB1225:
 2746              	.LBB1222:
 128:../../libs/libDaisy/src/daisy_seed.h ****     }
 2747              		.loc 1 128 23 view .LVU579
 2748 0596 B940     		lsls	r1, r1, r7
 2749              	.LBE1222:
 2750              	.LBE1225:
 2751              	.LBB1226:
 2752              	.LBB1193:
 2753              	.LBB1189:
 2754              	.LBB1185:
 2755              	.LBB1181:
 2756              	.LBB1177:
 2757              	.LBB1173:
 2758              	.LBB1169:
 343:../../libs/libDaisy/src/dev/mpr121.h **** 
 2759              		.loc 7 343 55 view .LVU580
 2760 0598 84F83020 		strb	r2, [r4, #48]
 2761              	.LVL147:
 343:../../libs/libDaisy/src/dev/mpr121.h **** 
 2762              		.loc 7 343 55 view .LVU581
 2763              	.LBE1169:
 2764              	.LBE1173:
 2765              	.LBE1177:
 2766              	.LBE1181:
ARM GAS  C:\Users\skipi\AppData\Local\Temp\ccYcyPVo.s 			page 79


 2767              	.LBE1185:
 2768              	.LBE1189:
 2769              	.LBE1193:
 2770              	.LBE1226:
 2771              	.LBB1227:
 2772              	.LBI1220:
 126:../../libs/libDaisy/src/daisy_seed.h ****     {
 2773              		.loc 1 126 17 is_stmt 1 view .LVU582
 2774              	.LBB1223:
 128:../../libs/libDaisy/src/daisy_seed.h ****     }
 2775              		.loc 1 128 23 is_stmt 0 view .LVU583
 2776 059c FFF7FEFF 		bl	_ZN5daisy6LoggerILNS_17LoggerDestinationE1EE9PrintLineEPKcz
 2777              	.LVL148:
 128:../../libs/libDaisy/src/daisy_seed.h ****     }
 2778              		.loc 1 128 23 view .LVU584
 2779              	.LBE1223:
 2780              	.LBE1227:
  87:main0.cpp     ****       hw.PrintLine("Difference Untouched Value : %d", cap.BaselineData(0)-cap.FilteredData(0));
 2781              		.loc 8 87 7 is_stmt 1 view .LVU585
 2782              	.LBB1228:
 2783              	.LBI1198:
 201:../../libs/libDaisy/src/dev/mpr121.h ****     {
 2784              		.loc 7 201 14 view .LVU586
 2785              	.LBB1217:
 2786              	.LBI1199:
 201:../../libs/libDaisy/src/dev/mpr121.h ****     {
 2787              		.loc 7 201 14 view .LVU587
 2788              	.LBB1215:
 2789              	.LBI1200:
 244:../../libs/libDaisy/src/dev/mpr121.h ****     {
 2790              		.loc 7 244 14 view .LVU588
 2791              	.LBB1213:
 2792              	.LBB1206:
 2793              	.LBI1202:
  75:../../libs/libDaisy/src/dev/mpr121.h ****     {
 2794              		.loc 7 75 10 view .LVU589
 2795              	.LBB1204:
  77:../../libs/libDaisy/src/dev/mpr121.h ****                != i2c_.Mem_read(
 2796              		.loc 7 77 9 view .LVU590
  78:../../libs/libDaisy/src/dev/mpr121.h ****                    config_.dev_addr, memAddress, 1, data, memSize, 10);
 2797              		.loc 7 78 32 is_stmt 0 view .LVU591
 2798 05a0 94F82C10 		ldrb	r1, [r4, #44]	@ zero_extendqisi2
 2799 05a4 0123     		movs	r3, #1
 2800 05a6 0422     		movs	r2, #4
 2801 05a8 0095     		str	r5, [sp]
 2802 05aa 4248     		ldr	r0, .L29+4
 2803 05ac CDE90176 		strd	r7, r6, [sp, #4]
 2804 05b0 FFF7FEFF 		bl	_ZN5daisy9I2CHandle8Mem_readEtttPhtm
 2805              	.LVL149:
  78:../../libs/libDaisy/src/dev/mpr121.h ****                    config_.dev_addr, memAddress, 1, data, memSize, 10);
 2806              		.loc 7 78 32 view .LVU592
 2807              	.LBE1204:
 2808              	.LBE1206:
 2809              	.LBB1207:
 2810              	.LBB1208:
 343:../../libs/libDaisy/src/dev/mpr121.h **** 
 2811              		.loc 7 343 55 view .LVU593
ARM GAS  C:\Users\skipi\AppData\Local\Temp\ccYcyPVo.s 			page 80


 2812 05b4 94F83020 		ldrb	r2, [r4, #48]	@ zero_extendqisi2
 2813              	.LBE1208:
 2814              	.LBE1207:
 2815              	.LBB1210:
 2816              	.LBB1205:
  78:../../libs/libDaisy/src/dev/mpr121.h ****                    config_.dev_addr, memAddress, 1, data, memSize, 10);
 2817              		.loc 7 78 32 view .LVU594
 2818 05b8 8446     		mov	ip, r0
 2819              	.LVL150:
  78:../../libs/libDaisy/src/dev/mpr121.h ****                    config_.dev_addr, memAddress, 1, data, memSize, 10);
 2820              		.loc 7 78 32 view .LVU595
 2821              	.LBE1205:
 2822              	.LBE1210:
 2823              	.LBB1211:
 2824              	.LBI1207:
 343:../../libs/libDaisy/src/dev/mpr121.h **** 
 2825              		.loc 7 343 10 is_stmt 1 view .LVU596
 2826              	.LBE1211:
 2827              	.LBE1213:
 2828              	.LBE1215:
 2829              	.LBE1217:
 2830              	.LBE1228:
 2831              	.LBB1229:
 2832              	.LBB1230:
 128:../../libs/libDaisy/src/daisy_seed.h ****     }
 2833              		.loc 1 128 23 is_stmt 0 view .LVU597
 2834 05ba BDF83810 		ldrh	r1, [sp, #56]
 2835 05be 4948     		ldr	r0, .L29+52
 2836              	.LVL151:
 128:../../libs/libDaisy/src/daisy_seed.h ****     }
 2837              		.loc 1 128 23 view .LVU598
 2838              	.LBE1230:
 2839              	.LBE1229:
 2840              	.LBB1232:
 2841              	.LBB1218:
 2842              	.LBB1216:
 2843              	.LBB1214:
 2844              	.LBB1212:
 2845              	.LBB1209:
 343:../../libs/libDaisy/src/dev/mpr121.h **** 
 2846              		.loc 7 343 55 view .LVU599
 2847 05c0 BCF1000F 		cmp	ip, #0
 2848 05c4 18BF     		it	ne
 2849 05c6 42F00102 		orrne	r2, r2, #1
 2850 05ca 84F83020 		strb	r2, [r4, #48]
 2851              	.LVL152:
 343:../../libs/libDaisy/src/dev/mpr121.h **** 
 2852              		.loc 7 343 55 view .LVU600
 2853              	.LBE1209:
 2854              	.LBE1212:
 2855              	.LBE1214:
 2856              	.LBE1216:
 2857              	.LBE1218:
 2858              	.LBE1232:
 2859              	.LBB1233:
 2860              	.LBI1229:
 126:../../libs/libDaisy/src/daisy_seed.h ****     {
ARM GAS  C:\Users\skipi\AppData\Local\Temp\ccYcyPVo.s 			page 81


 2861              		.loc 1 126 17 is_stmt 1 view .LVU601
 2862              	.LBB1231:
 128:../../libs/libDaisy/src/daisy_seed.h ****     }
 2863              		.loc 1 128 23 is_stmt 0 view .LVU602
 2864 05ce FFF7FEFF 		bl	_ZN5daisy6LoggerILNS_17LoggerDestinationE1EE9PrintLineEPKcz
 2865              	.LVL153:
 128:../../libs/libDaisy/src/daisy_seed.h ****     }
 2866              		.loc 1 128 23 view .LVU603
 2867              	.LBE1231:
 2868              	.LBE1233:
  88:main0.cpp     ****       hw.PrintLine("Filtered Difference Untouched Value : %f", filter.Process(cap.BaselineData(0) -
 2869              		.loc 8 88 7 is_stmt 1 view .LVU604
 2870              	.LBB1234:
 2871              	.LBI1234:
 214:../../libs/libDaisy/src/dev/mpr121.h ****     {
 2872              		.loc 7 214 14 view .LVU605
 2873              	.LBB1235:
 2874              	.LBB1236:
 2875              	.LBI1236:
 214:../../libs/libDaisy/src/dev/mpr121.h ****     {
 2876              		.loc 7 214 14 view .LVU606
 2877              	.LBB1237:
 2878              	.LBB1238:
 2879              	.LBI1238:
 237:../../libs/libDaisy/src/dev/mpr121.h ****     {
 2880              		.loc 7 237 13 view .LVU607
 2881              	.LBB1239:
 2882              	.LBB1240:
 2883              	.LBI1240:
  75:../../libs/libDaisy/src/dev/mpr121.h ****     {
 2884              		.loc 7 75 10 view .LVU608
 2885              	.LBB1241:
  77:../../libs/libDaisy/src/dev/mpr121.h ****                != i2c_.Mem_read(
 2886              		.loc 7 77 9 view .LVU609
  78:../../libs/libDaisy/src/dev/mpr121.h ****                    config_.dev_addr, memAddress, 1, data, memSize, 10);
 2887              		.loc 7 78 32 is_stmt 0 view .LVU610
 2888 05d2 0123     		movs	r3, #1
 2889 05d4 94F82C10 		ldrb	r1, [r4, #44]	@ zero_extendqisi2
 2890 05d8 1E22     		movs	r2, #30
 2891 05da 0095     		str	r5, [sp]
 2892 05dc 3548     		ldr	r0, .L29+4
 2893 05de CDE90136 		strd	r3, r6, [sp, #4]
 2894 05e2 FFF7FEFF 		bl	_ZN5daisy9I2CHandle8Mem_readEtttPhtm
 2895              	.LVL154:
  78:../../libs/libDaisy/src/dev/mpr121.h ****                    config_.dev_addr, memAddress, 1, data, memSize, 10);
 2896              		.loc 7 78 32 view .LVU611
 2897              	.LBE1241:
 2898              	.LBE1240:
 2899              	.LBB1242:
 2900              	.LBI1242:
 343:../../libs/libDaisy/src/dev/mpr121.h **** 
 2901              		.loc 7 343 10 is_stmt 1 view .LVU612
 2902              	.LBB1243:
 343:../../libs/libDaisy/src/dev/mpr121.h **** 
 2903              		.loc 7 343 55 is_stmt 0 view .LVU613
 2904 05e6 94F830C0 		ldrb	ip, [r4, #48]	@ zero_extendqisi2
 2905              	.LBE1243:
ARM GAS  C:\Users\skipi\AppData\Local\Temp\ccYcyPVo.s 			page 82


 2906              	.LBE1242:
 2907              	.LBE1239:
 2908              	.LBE1238:
 2909              	.LBE1237:
 2910              	.LBE1236:
 2911              	.LBE1235:
 2912              	.LBE1234:
 2913              	.LBB1263:
 2914              	.LBB1264:
 2915              	.LBB1265:
 2916              	.LBB1266:
 2917              	.LBB1267:
 2918              	.LBB1268:
  78:../../libs/libDaisy/src/dev/mpr121.h ****                    config_.dev_addr, memAddress, 1, data, memSize, 10);
 2919              		.loc 7 78 32 view .LVU614
 2920 05ea 94F82C10 		ldrb	r1, [r4, #44]	@ zero_extendqisi2
 2921 05ee 0123     		movs	r3, #1
 2922              	.LBE1268:
 2923              	.LBE1267:
 2924              	.LBE1266:
 2925              	.LBE1265:
 2926              	.LBE1264:
 2927              	.LBE1263:
 2928              	.LBB1299:
 2929              	.LBB1260:
 2930              	.LBB1257:
 2931              	.LBB1254:
 2932              	.LBB1251:
 2933              	.LBB1248:
 2934              	.LBB1246:
 2935              	.LBB1244:
 343:../../libs/libDaisy/src/dev/mpr121.h **** 
 2936              		.loc 7 343 55 view .LVU615
 2937 05f0 0028     		cmp	r0, #0
 2938 05f2 18BF     		it	ne
 2939 05f4 4CF0010C 		orrne	ip, ip, #1
 2940              	.LBE1244:
 2941              	.LBE1246:
 2942              	.LBE1248:
 2943              	.LBE1251:
 2944              	.LBE1254:
 2945              	.LBE1257:
 2946              	.LBE1260:
 2947              	.LBE1299:
 2948              	.LBB1300:
 2949              	.LBB1294:
 2950              	.LBB1289:
 2951              	.LBB1284:
 2952              	.LBB1273:
 2953              	.LBB1269:
  78:../../libs/libDaisy/src/dev/mpr121.h ****                    config_.dev_addr, memAddress, 1, data, memSize, 10);
 2954              		.loc 7 78 32 view .LVU616
 2955 05f8 0095     		str	r5, [sp]
 2956 05fa 0422     		movs	r2, #4
 2957 05fc 2D48     		ldr	r0, .L29+4
 2958              	.LVL155:
  78:../../libs/libDaisy/src/dev/mpr121.h ****                    config_.dev_addr, memAddress, 1, data, memSize, 10);
ARM GAS  C:\Users\skipi\AppData\Local\Temp\ccYcyPVo.s 			page 83


 2959              		.loc 7 78 32 view .LVU617
 2960              	.LBE1269:
 2961              	.LBE1273:
 2962              	.LBE1284:
 2963              	.LBE1289:
 2964              	.LBE1294:
 2965              	.LBE1300:
 2966              	.LBB1301:
 2967              	.LBB1261:
 2968              	.LBB1258:
 2969              	.LBB1255:
 2970              	.LBB1252:
 2971              	.LBB1249:
 241:../../libs/libDaisy/src/dev/mpr121.h ****     }
 2972              		.loc 7 241 16 view .LVU618
 2973 05fe 9DF838A0 		ldrb	r10, [sp, #56]	@ zero_extendqisi2
 2974              	.LBE1249:
 2975              	.LBE1252:
 2976              	.LBE1255:
 2977              	.LBE1258:
 2978              	.LBE1261:
 2979              	.LBE1301:
 2980              	.LBB1302:
 2981              	.LBB1295:
 2982              	.LBB1290:
 2983              	.LBB1285:
 2984              	.LBB1274:
 2985              	.LBB1270:
  78:../../libs/libDaisy/src/dev/mpr121.h ****                    config_.dev_addr, memAddress, 1, data, memSize, 10);
 2986              		.loc 7 78 32 view .LVU619
 2987 0602 CDE90176 		strd	r7, r6, [sp, #4]
 2988              	.LBE1270:
 2989              	.LBE1274:
 2990              	.LBE1285:
 2991              	.LBE1290:
 2992              	.LBE1295:
 2993              	.LBE1302:
 2994              	.LBB1303:
 2995              	.LBB1262:
 2996              	.LBB1259:
 2997              	.LBB1256:
 2998              	.LBB1253:
 2999              	.LBB1250:
 3000              	.LBB1247:
 3001              	.LBB1245:
 343:../../libs/libDaisy/src/dev/mpr121.h **** 
 3002              		.loc 7 343 55 view .LVU620
 3003 0606 84F830C0 		strb	ip, [r4, #48]
 3004              	.LVL156:
 343:../../libs/libDaisy/src/dev/mpr121.h **** 
 3005              		.loc 7 343 55 view .LVU621
 3006              	.LBE1245:
 3007              	.LBE1247:
 3008              	.LBE1250:
 3009              	.LBE1253:
 3010              	.LBE1256:
 3011              	.LBE1259:
ARM GAS  C:\Users\skipi\AppData\Local\Temp\ccYcyPVo.s 			page 84


 3012              	.LBE1262:
 3013              	.LBE1303:
 3014              	.LBB1304:
 3015              	.LBI1263:
 201:../../libs/libDaisy/src/dev/mpr121.h ****     {
 3016              		.loc 7 201 14 is_stmt 1 view .LVU622
 3017              	.LBB1296:
 3018              	.LBI1264:
 201:../../libs/libDaisy/src/dev/mpr121.h ****     {
 3019              		.loc 7 201 14 view .LVU623
 3020              	.LBB1291:
 3021              	.LBI1265:
 244:../../libs/libDaisy/src/dev/mpr121.h ****     {
 3022              		.loc 7 244 14 view .LVU624
 3023              	.LBB1286:
 3024              	.LBB1275:
 3025              	.LBI1267:
  75:../../libs/libDaisy/src/dev/mpr121.h ****     {
 3026              		.loc 7 75 10 view .LVU625
 3027              	.LBB1271:
  77:../../libs/libDaisy/src/dev/mpr121.h ****                != i2c_.Mem_read(
 3028              		.loc 7 77 9 view .LVU626
  78:../../libs/libDaisy/src/dev/mpr121.h ****                    config_.dev_addr, memAddress, 1, data, memSize, 10);
 3029              		.loc 7 78 32 is_stmt 0 view .LVU627
 3030 060a FFF7FEFF 		bl	_ZN5daisy9I2CHandle8Mem_readEtttPhtm
 3031              	.LVL157:
  78:../../libs/libDaisy/src/dev/mpr121.h ****                    config_.dev_addr, memAddress, 1, data, memSize, 10);
 3032              		.loc 7 78 32 view .LVU628
 3033              	.LBE1271:
 3034              	.LBE1275:
 3035              	.LBB1276:
 3036              	.LBB1277:
 343:../../libs/libDaisy/src/dev/mpr121.h **** 
 3037              		.loc 7 343 55 view .LVU629
 3038 060e 94F83020 		ldrb	r2, [r4, #48]	@ zero_extendqisi2
 3039              	.LBE1277:
 3040              	.LBE1276:
 3041              	.LBB1280:
 3042              	.LBB1272:
  78:../../libs/libDaisy/src/dev/mpr121.h ****                    config_.dev_addr, memAddress, 1, data, memSize, 10);
 3043              		.loc 7 78 32 view .LVU630
 3044 0612 8446     		mov	ip, r0
 3045              	.LVL158:
  78:../../libs/libDaisy/src/dev/mpr121.h ****                    config_.dev_addr, memAddress, 1, data, memSize, 10);
 3046              		.loc 7 78 32 view .LVU631
 3047              	.LBE1272:
 3048              	.LBE1280:
 3049              	.LBB1281:
 3050              	.LBI1276:
 343:../../libs/libDaisy/src/dev/mpr121.h **** 
 3051              		.loc 7 343 10 is_stmt 1 view .LVU632
 3052              	.LBE1281:
 250:../../libs/libDaisy/src/dev/mpr121.h ****     }
 3053              		.loc 7 250 16 is_stmt 0 view .LVU633
 3054 0614 BDF83810 		ldrh	r1, [sp, #56]
 3055              	.LBE1286:
 3056              	.LBE1291:
ARM GAS  C:\Users\skipi\AppData\Local\Temp\ccYcyPVo.s 			page 85


 3057              	.LBE1296:
 3058              	.LBE1304:
 3059              	.LBB1305:
 3060              	.LBB1306:
 128:../../libs/libDaisy/src/daisy_seed.h ****     }
 3061              		.loc 1 128 23 view .LVU634
 3062 0618 3348     		ldr	r0, .L29+56
 3063              	.LVL159:
 128:../../libs/libDaisy/src/daisy_seed.h ****     }
 3064              		.loc 1 128 23 view .LVU635
 3065              	.LBE1306:
 3066              	.LBE1305:
 3067              	.LBB1309:
 3068              	.LBB1297:
 3069              	.LBB1292:
 3070              	.LBB1287:
 3071              	.LBB1282:
 3072              	.LBB1278:
 343:../../libs/libDaisy/src/dev/mpr121.h **** 
 3073              		.loc 7 343 55 view .LVU636
 3074 061a BCF1000F 		cmp	ip, #0
 3075 061e 18BF     		it	ne
 3076 0620 42F00102 		orrne	r2, r2, #1
 3077              	.LBE1278:
 3078              	.LBE1282:
 3079              	.LBE1287:
 3080              	.LBE1292:
 3081              	.LBE1297:
 3082              	.LBE1309:
 3083              	.LBB1310:
 3084              	.LBB1307:
 128:../../libs/libDaisy/src/daisy_seed.h ****     }
 3085              		.loc 1 128 23 view .LVU637
 3086 0624 C1EB8A01 		rsb	r1, r1, r10, lsl #2
 3087              	.LBE1307:
 3088              	.LBE1310:
 3089              	.LBB1311:
 3090              	.LBB1298:
 3091              	.LBB1293:
 3092              	.LBB1288:
 3093              	.LBB1283:
 3094              	.LBB1279:
 343:../../libs/libDaisy/src/dev/mpr121.h **** 
 3095              		.loc 7 343 55 view .LVU638
 3096 0628 84F83020 		strb	r2, [r4, #48]
 3097              	.LVL160:
 343:../../libs/libDaisy/src/dev/mpr121.h **** 
 3098              		.loc 7 343 55 view .LVU639
 3099              	.LBE1279:
 3100              	.LBE1283:
 3101              	.LBE1288:
 3102              	.LBE1293:
 3103              	.LBE1298:
 3104              	.LBE1311:
 3105              	.LBB1312:
 3106              	.LBI1305:
 126:../../libs/libDaisy/src/daisy_seed.h ****     {
ARM GAS  C:\Users\skipi\AppData\Local\Temp\ccYcyPVo.s 			page 86


 3107              		.loc 1 126 17 is_stmt 1 view .LVU640
 3108              	.LBB1308:
 128:../../libs/libDaisy/src/daisy_seed.h ****     }
 3109              		.loc 1 128 23 is_stmt 0 view .LVU641
 3110 062c FFF7FEFF 		bl	_ZN5daisy6LoggerILNS_17LoggerDestinationE1EE9PrintLineEPKcz
 3111              	.LVL161:
 128:../../libs/libDaisy/src/daisy_seed.h ****     }
 3112              		.loc 1 128 23 view .LVU642
 3113              	.LBE1308:
 3114              	.LBE1312:
  89:main0.cpp     ****       hw.PrintLine(" ");
 3115              		.loc 8 89 7 is_stmt 1 view .LVU643
 3116              	.LBB1313:
 3117              	.LBI1313:
 214:../../libs/libDaisy/src/dev/mpr121.h ****     {
 3118              		.loc 7 214 14 view .LVU644
 3119              	.LBB1314:
 3120              	.LBB1315:
 3121              	.LBI1315:
 214:../../libs/libDaisy/src/dev/mpr121.h ****     {
 3122              		.loc 7 214 14 view .LVU645
 3123              	.LBB1316:
 3124              	.LBB1317:
 3125              	.LBI1317:
 237:../../libs/libDaisy/src/dev/mpr121.h ****     {
 3126              		.loc 7 237 13 view .LVU646
 3127              	.LBB1318:
 3128              	.LBB1319:
 3129              	.LBI1319:
  75:../../libs/libDaisy/src/dev/mpr121.h ****     {
 3130              		.loc 7 75 10 view .LVU647
 3131              	.LBB1320:
  77:../../libs/libDaisy/src/dev/mpr121.h ****                != i2c_.Mem_read(
 3132              		.loc 7 77 9 view .LVU648
  78:../../libs/libDaisy/src/dev/mpr121.h ****                    config_.dev_addr, memAddress, 1, data, memSize, 10);
 3133              		.loc 7 78 32 is_stmt 0 view .LVU649
 3134 0630 0123     		movs	r3, #1
 3135 0632 94F82C10 		ldrb	r1, [r4, #44]	@ zero_extendqisi2
 3136 0636 1E22     		movs	r2, #30
 3137 0638 0095     		str	r5, [sp]
 3138 063a 1E48     		ldr	r0, .L29+4
 3139 063c CDE90136 		strd	r3, r6, [sp, #4]
 3140 0640 FFF7FEFF 		bl	_ZN5daisy9I2CHandle8Mem_readEtttPhtm
 3141              	.LVL162:
  78:../../libs/libDaisy/src/dev/mpr121.h ****                    config_.dev_addr, memAddress, 1, data, memSize, 10);
 3142              		.loc 7 78 32 view .LVU650
 3143              	.LBE1320:
 3144              	.LBE1319:
 3145              	.LBB1321:
 3146              	.LBI1321:
 343:../../libs/libDaisy/src/dev/mpr121.h **** 
 3147              		.loc 7 343 10 is_stmt 1 view .LVU651
 3148              	.LBB1322:
 343:../../libs/libDaisy/src/dev/mpr121.h **** 
 3149              		.loc 7 343 55 is_stmt 0 view .LVU652
 3150 0644 94F830C0 		ldrb	ip, [r4, #48]	@ zero_extendqisi2
 3151              	.LBE1322:
ARM GAS  C:\Users\skipi\AppData\Local\Temp\ccYcyPVo.s 			page 87


 3152              	.LBE1321:
 3153              	.LBE1318:
 3154              	.LBE1317:
 3155              	.LBE1316:
 3156              	.LBE1315:
 3157              	.LBE1314:
 3158              	.LBE1313:
 3159              	.LBB1342:
 3160              	.LBB1343:
 3161              	.LBB1344:
 3162              	.LBB1345:
 3163              	.LBB1346:
 3164              	.LBB1347:
  78:../../libs/libDaisy/src/dev/mpr121.h ****                    config_.dev_addr, memAddress, 1, data, memSize, 10);
 3165              		.loc 7 78 32 view .LVU653
 3166 0648 94F82C10 		ldrb	r1, [r4, #44]	@ zero_extendqisi2
 3167 064c 0123     		movs	r3, #1
 3168              	.LBE1347:
 3169              	.LBE1346:
 3170              	.LBE1345:
 3171              	.LBE1344:
 3172              	.LBE1343:
 3173              	.LBE1342:
 3174              	.LBB1377:
 3175              	.LBB1339:
 3176              	.LBB1336:
 3177              	.LBB1333:
 3178              	.LBB1330:
 3179              	.LBB1327:
 3180              	.LBB1325:
 3181              	.LBB1323:
 343:../../libs/libDaisy/src/dev/mpr121.h **** 
 3182              		.loc 7 343 55 view .LVU654
 3183 064e 0028     		cmp	r0, #0
 3184 0650 18BF     		it	ne
 3185 0652 4CF0010C 		orrne	ip, ip, #1
 3186              	.LBE1323:
 3187              	.LBE1325:
 3188              	.LBE1327:
 3189              	.LBE1330:
 3190              	.LBE1333:
 3191              	.LBE1336:
 3192              	.LBE1339:
 3193              	.LBE1377:
 3194              	.LBB1378:
 3195              	.LBB1372:
 3196              	.LBB1367:
 3197              	.LBB1362:
 3198              	.LBB1352:
 3199              	.LBB1348:
  78:../../libs/libDaisy/src/dev/mpr121.h ****                    config_.dev_addr, memAddress, 1, data, memSize, 10);
 3200              		.loc 7 78 32 view .LVU655
 3201 0656 0095     		str	r5, [sp]
 3202 0658 0422     		movs	r2, #4
 3203 065a 1648     		ldr	r0, .L29+4
 3204              	.LVL163:
  78:../../libs/libDaisy/src/dev/mpr121.h ****                    config_.dev_addr, memAddress, 1, data, memSize, 10);
ARM GAS  C:\Users\skipi\AppData\Local\Temp\ccYcyPVo.s 			page 88


 3205              		.loc 7 78 32 view .LVU656
 3206 065c CDE90176 		strd	r7, r6, [sp, #4]
 3207              	.LBE1348:
 3208              	.LBE1352:
 3209              	.LBE1362:
 3210              	.LBE1367:
 3211              	.LBE1372:
 3212              	.LBE1378:
 3213              	.LBB1379:
 3214              	.LBB1340:
 3215              	.LBB1337:
 3216              	.LBB1334:
 3217              	.LBB1331:
 3218              	.LBB1328:
 3219              	.LBB1326:
 3220              	.LBB1324:
 343:../../libs/libDaisy/src/dev/mpr121.h **** 
 3221              		.loc 7 343 55 view .LVU657
 3222 0660 84F830C0 		strb	ip, [r4, #48]
 3223              	.LVL164:
 343:../../libs/libDaisy/src/dev/mpr121.h **** 
 3224              		.loc 7 343 55 view .LVU658
 3225              	.LBE1324:
 3226              	.LBE1326:
 3227              	.LBE1328:
 3228              	.LBE1331:
 3229              	.LBE1334:
 3230              	.LBE1337:
 3231              	.LBE1340:
 3232              	.LBE1379:
 3233              	.LBB1380:
 3234              	.LBI1342:
 201:../../libs/libDaisy/src/dev/mpr121.h ****     {
 3235              		.loc 7 201 14 is_stmt 1 view .LVU659
 3236              	.LBB1373:
 3237              	.LBI1343:
 201:../../libs/libDaisy/src/dev/mpr121.h ****     {
 3238              		.loc 7 201 14 view .LVU660
 3239              	.LBB1368:
 3240              	.LBI1344:
 244:../../libs/libDaisy/src/dev/mpr121.h ****     {
 3241              		.loc 7 244 14 view .LVU661
 3242              	.LBB1363:
 3243              	.LBB1353:
 3244              	.LBI1346:
  75:../../libs/libDaisy/src/dev/mpr121.h ****     {
 3245              		.loc 7 75 10 view .LVU662
 3246              	.LBB1349:
  77:../../libs/libDaisy/src/dev/mpr121.h ****                != i2c_.Mem_read(
 3247              		.loc 7 77 9 view .LVU663
 3248              	.LBE1349:
 3249              	.LBE1353:
 3250              	.LBE1363:
 3251              	.LBE1368:
 3252              	.LBE1373:
 3253              	.LBE1380:
 3254              	.LBB1381:
ARM GAS  C:\Users\skipi\AppData\Local\Temp\ccYcyPVo.s 			page 89


 3255              	.LBB1341:
 3256              	.LBB1338:
 3257              	.LBB1335:
 3258              	.LBB1332:
 3259              	.LBB1329:
 241:../../libs/libDaisy/src/dev/mpr121.h ****     }
 3260              		.loc 7 241 16 is_stmt 0 view .LVU664
 3261 0664 9DF83860 		ldrb	r6, [sp, #56]	@ zero_extendqisi2
 3262              	.LBE1329:
 3263              	.LBE1332:
 3264              	.LBE1335:
 3265              	.LBE1338:
 3266              	.LBE1341:
 3267              	.LBE1381:
 3268              	.LBB1382:
 3269              	.LBB1374:
 3270              	.LBB1369:
 3271              	.LBB1364:
 3272              	.LBB1354:
 3273              	.LBB1350:
  78:../../libs/libDaisy/src/dev/mpr121.h ****                    config_.dev_addr, memAddress, 1, data, memSize, 10);
 3274              		.loc 7 78 32 view .LVU665
 3275 0668 FFF7FEFF 		bl	_ZN5daisy9I2CHandle8Mem_readEtttPhtm
 3276              	.LVL165:
  78:../../libs/libDaisy/src/dev/mpr121.h ****                    config_.dev_addr, memAddress, 1, data, memSize, 10);
 3277              		.loc 7 78 32 view .LVU666
 3278              	.LBE1350:
 3279              	.LBE1354:
 250:../../libs/libDaisy/src/dev/mpr121.h ****     }
 3280              		.loc 7 250 16 view .LVU667
 3281 066c BDF83820 		ldrh	r2, [sp, #56]
 3282              	.LBB1355:
 3283              	.LBB1351:
  78:../../libs/libDaisy/src/dev/mpr121.h ****                    config_.dev_addr, memAddress, 1, data, memSize, 10);
 3284              		.loc 7 78 32 view .LVU668
 3285 0670 0146     		mov	r1, r0
 3286              	.LVL166:
  78:../../libs/libDaisy/src/dev/mpr121.h ****                    config_.dev_addr, memAddress, 1, data, memSize, 10);
 3287              		.loc 7 78 32 view .LVU669
 3288              	.LBE1351:
 3289              	.LBE1355:
 3290              	.LBB1356:
 3291              	.LBI1356:
 343:../../libs/libDaisy/src/dev/mpr121.h **** 
 3292              		.loc 7 343 10 is_stmt 1 view .LVU670
 3293              	.LBB1357:
 343:../../libs/libDaisy/src/dev/mpr121.h **** 
 3294              		.loc 7 343 55 is_stmt 0 view .LVU671
 3295 0672 94F83030 		ldrb	r3, [r4, #48]	@ zero_extendqisi2
 3296              	.LBE1357:
 3297              	.LBE1356:
 3298              	.LBE1364:
 3299              	.LBE1369:
 3300              	.LBE1374:
 3301              	.LBE1382:
  89:main0.cpp     ****       hw.PrintLine(" ");
 3302              		.loc 8 89 99 view .LVU672
ARM GAS  C:\Users\skipi\AppData\Local\Temp\ccYcyPVo.s 			page 90


 3303 0676 C2EB8602 		rsb	r2, r2, r6, lsl #2
  89:main0.cpp     ****       hw.PrintLine(" ");
 3304              		.loc 8 89 19 view .LVU673
 3305 067a 1248     		ldr	r0, .L29+20
 3306              	.LVL167:
 3307              	.LBB1383:
 3308              	.LBB1375:
 3309              	.LBB1370:
 3310              	.LBB1365:
 3311              	.LBB1360:
 3312              	.LBB1358:
 343:../../libs/libDaisy/src/dev/mpr121.h **** 
 3313              		.loc 7 343 55 view .LVU674
 3314 067c 0029     		cmp	r1, #0
 3315 067e 18BF     		it	ne
 3316 0680 43F00103 		orrne	r3, r3, #1
 3317              	.LBE1358:
 3318              	.LBE1360:
 3319              	.LBE1365:
 3320              	.LBE1370:
 3321              	.LBE1375:
 3322              	.LBE1383:
  89:main0.cpp     ****       hw.PrintLine(" ");
 3323              		.loc 8 89 99 view .LVU675
 3324 0684 00EE102A 		vmov	s0, r2	@ int
 3325              	.LBB1384:
 3326              	.LBB1376:
 3327              	.LBB1371:
 3328              	.LBB1366:
 3329              	.LBB1361:
 3330              	.LBB1359:
 343:../../libs/libDaisy/src/dev/mpr121.h **** 
 3331              		.loc 7 343 55 view .LVU676
 3332 0688 84F83030 		strb	r3, [r4, #48]
 3333              	.LVL168:
 343:../../libs/libDaisy/src/dev/mpr121.h **** 
 3334              		.loc 7 343 55 view .LVU677
 3335              	.LBE1359:
 3336              	.LBE1361:
 3337              	.LBE1366:
 3338              	.LBE1371:
 3339              	.LBE1376:
 3340              	.LBE1384:
  89:main0.cpp     ****       hw.PrintLine(" ");
 3341              		.loc 8 89 19 view .LVU678
 3342 068c B8EEC00A 		vcvt.f32.s32	s0, s0
 3343 0690 FFF7FEFF 		bl	_ZN6CapFir7ProcessEf
 3344              	.LVL169:
 3345              	.LBB1385:
 3346              	.LBI1385:
 126:../../libs/libDaisy/src/daisy_seed.h ****     {
 3347              		.loc 1 126 17 is_stmt 1 view .LVU679
 3348              	.LBB1386:
 128:../../libs/libDaisy/src/daisy_seed.h ****     }
 3349              		.loc 1 128 23 is_stmt 0 view .LVU680
 3350 0694 B7EEC07A 		vcvt.f64.f32	d7, s0
 3351 0698 1448     		ldr	r0, .L29+60
ARM GAS  C:\Users\skipi\AppData\Local\Temp\ccYcyPVo.s 			page 91


 3352 069a 53EC172B 		vmov	r2, r3, d7
 3353 069e FFF7FEFF 		bl	_ZN5daisy6LoggerILNS_17LoggerDestinationE1EE9PrintLineEPKcz
 3354              	.LVL170:
 128:../../libs/libDaisy/src/daisy_seed.h ****     }
 3355              		.loc 1 128 23 view .LVU681
 3356              	.LBE1386:
 3357              	.LBE1385:
  90:main0.cpp     ****       hw.PrintLine(" ");
 3358              		.loc 8 90 7 is_stmt 1 view .LVU682
 3359              	.LBB1387:
 3360              	.LBI1387:
 126:../../libs/libDaisy/src/daisy_seed.h ****     {
 3361              		.loc 1 126 17 view .LVU683
 3362              	.LBB1388:
 128:../../libs/libDaisy/src/daisy_seed.h ****     }
 3363              		.loc 1 128 23 is_stmt 0 view .LVU684
 3364 06a2 0E48     		ldr	r0, .L29+44
 3365 06a4 FFF7FEFF 		bl	_ZN5daisy6LoggerILNS_17LoggerDestinationE1EE9PrintLineEPKcz
 3366              	.LVL171:
 128:../../libs/libDaisy/src/daisy_seed.h ****     }
 3367              		.loc 1 128 23 view .LVU685
 3368              	.LBE1388:
 3369              	.LBE1387:
  91:main0.cpp     ****     }
 3370              		.loc 8 91 7 is_stmt 1 view .LVU686
 3371              	.LBB1389:
 3372              	.LBI1389:
 126:../../libs/libDaisy/src/daisy_seed.h ****     {
 3373              		.loc 1 126 17 view .LVU687
 3374              	.LBB1390:
 128:../../libs/libDaisy/src/daisy_seed.h ****     }
 3375              		.loc 1 128 23 is_stmt 0 view .LVU688
 3376 06a8 0C48     		ldr	r0, .L29+44
 3377 06aa FFF7FEFF 		bl	_ZN5daisy6LoggerILNS_17LoggerDestinationE1EE9PrintLineEPKcz
 3378              	.LVL172:
 129:../../libs/libDaisy/src/daisy_seed.h **** 
 3379              		.loc 1 129 5 view .LVU689
 3380 06ae 0CE7     		b	.L19
 3381              	.L30:
 3382              		.align	2
 3383              	.L29:
 3384 06b0 94000000 		.word	.LC4
 3385 06b4 18000000 		.word	.LANCHOR2+24
 3386 06b8 98000000 		.word	.LC5
 3387 06bc B8000000 		.word	.LC6
 3388 06c0 D8000000 		.word	.LC7
 3389 06c4 00000000 		.word	.LANCHOR3
 3390 06c8 FC000000 		.word	.LC8
 3391 06cc 00000000 		.word	.LANCHOR0
 3392 06d0 30000000 		.word	.LC2
 3393 06d4 84000000 		.word	.LC3
 3394 06d8 28010000 		.word	.LC9
 3395 06dc 38010000 		.word	.LC10
 3396 06e0 3C010000 		.word	.LC11
 3397 06e4 5C010000 		.word	.LC12
 3398 06e8 7C010000 		.word	.LC13
 3399 06ec 9C010000 		.word	.LC14
ARM GAS  C:\Users\skipi\AppData\Local\Temp\ccYcyPVo.s 			page 92


 3400              	.LBE1390:
 3401              	.LBE1389:
 3402              		.cfi_endproc
 3403              	.LFE4840:
 3405              		.section	.text.startup._GLOBAL__sub_I_mpr121ObjConf,"ax",%progbits
 3406              		.align	1
 3407              		.p2align 2,,3
 3408              		.syntax unified
 3409              		.thumb
 3410              		.thumb_func
 3411              		.fpu fpv5-d16
 3413              	_GLOBAL__sub_I_mpr121ObjConf:
 3414              	.LFB5426:
  99:main0.cpp     ****   }
 100:main0.cpp     **** }
 3415              		.loc 8 100 1 is_stmt 1 view -0
 3416              		.cfi_startproc
 3417              		@ args = 0, pretend = 0, frame = 0
 3418              		@ frame_needed = 0, uses_anonymous_args = 0
 3419              	.LBB1497:
 3420              	.LBI1497:
 3421              		.loc 8 100 1 view .LVU691
 3422              	.LVL173:
 3423              	.LBB1498:
 3424              	.LBB1499:
 3425              	.LBI1499:
 105:../../libs/libDaisy/src/dev/mpr121.h ****         {
 3426              		.loc 7 105 9 view .LVU692
 3427              	.LBB1500:
 3428              	.LBB1501:
 3429              	.LBI1501:
  34:../../libs/libDaisy/src/dev/mpr121.h ****         {
 3430              		.loc 7 34 9 view .LVU693
 3431              	.LBB1502:
 3432              	.LBB1503:
 3433              	.LBB1504:
 3434              	.LBI1504:
 3435              		.loc 10 204 15 view .LVU694
 3436              		.loc 10 204 15 is_stmt 0 view .LVU695
 3437              	.LBE1504:
 3438              	.LBB1505:
 3439              	.LBI1505:
 3440              		.loc 10 204 15 is_stmt 1 view .LVU696
 3441              		.loc 10 204 15 is_stmt 0 view .LVU697
 3442              	.LBE1505:
  36:../../libs/libDaisy/src/dev/mpr121.h ****             speed  = I2CHandle::Config::Speed::I2C_400KHZ;
 3443              		.loc 7 36 13 is_stmt 1 view .LVU698
  37:../../libs/libDaisy/src/dev/mpr121.h **** 
 3444              		.loc 7 37 13 view .LVU699
  39:../../libs/libDaisy/src/dev/mpr121.h ****             sda = Pin(PORTB, 9);
 3445              		.loc 7 39 13 view .LVU700
 3446              	.LBB1506:
 3447              	.LBI1506:
 201:../../libs/libDaisy/src/daisy_core.h **** 
 3448              		.loc 10 201 15 view .LVU701
 201:../../libs/libDaisy/src/daisy_core.h **** 
 3449              		.loc 10 201 15 is_stmt 0 view .LVU702
ARM GAS  C:\Users\skipi\AppData\Local\Temp\ccYcyPVo.s 			page 93


 3450              	.LBE1506:
  40:../../libs/libDaisy/src/dev/mpr121.h **** 
 3451              		.loc 7 40 13 is_stmt 1 view .LVU703
 3452              	.LBB1507:
 3453              	.LBI1507:
 201:../../libs/libDaisy/src/daisy_core.h **** 
 3454              		.loc 10 201 15 view .LVU704
 201:../../libs/libDaisy/src/daisy_core.h **** 
 3455              		.loc 10 201 15 is_stmt 0 view .LVU705
 3456              	.LBE1507:
  42:../../libs/libDaisy/src/dev/mpr121.h ****         }
 3457              		.loc 7 42 13 is_stmt 1 view .LVU706
  42:../../libs/libDaisy/src/dev/mpr121.h ****         }
 3458              		.loc 7 42 13 is_stmt 0 view .LVU707
 3459              	.LBE1503:
 3460              	.LBE1502:
 3461              	.LBE1501:
 3462              	.LBE1500:
 3463              	.LBE1499:
 3464              	.LBE1498:
 3465              	.LBE1497:
 3466              		.loc 8 100 1 view .LVU708
 3467 0000 10B5     		push	{r4, lr}
 3468              		.cfi_def_cfa_offset 8
 3469              		.cfi_offset 4, -8
 3470              		.cfi_offset 14, -4
 3471              	.LBB1668:
 3472              	.LBB1666:
 3473              	.LBB1522:
 3474              	.LBB1523:
 3475              	.LBB1524:
 3476              	.LBB1525:
 3477              	.LBB1526:
 3478              	.LBB1527:
 3479              	.LBB1528:
  36:../../libs/libDaisy/src/dev/mpr121.h ****             speed  = I2CHandle::Config::Speed::I2C_400KHZ;
 3480              		.loc 7 36 20 view .LVU709
 3481 0002 2148     		ldr	r0, .L33
 3482              	.LBE1528:
 3483              	.LBE1527:
 3484              	.LBE1526:
 3485              	.LBE1525:
 3486              	.LBE1524:
 3487              	.LBE1523:
 3488              	.LBE1522:
 3489              	.LBB1570:
 3490              	.LBB1517:
 3491              	.LBB1514:
 3492              	.LBB1511:
 3493              	.LBB1508:
 3494 0004 0024     		movs	r4, #0
 3495 0006 214B     		ldr	r3, .L33+4
  37:../../libs/libDaisy/src/dev/mpr121.h **** 
 3496              		.loc 7 37 20 view .LVU710
 3497 0008 0121     		movs	r1, #1
 3498              	.LBE1508:
 3499              	.LBE1511:
ARM GAS  C:\Users\skipi\AppData\Local\Temp\ccYcyPVo.s 			page 94


 3500              	.LBE1514:
 3501              	.LBE1517:
 3502              	.LBE1570:
  15:main0.cpp     **** 
 3503              		.loc 8 15 18 view .LVU711
 3504 000a 214A     		ldr	r2, .L33+8
 3505              	.LBB1571:
 3506              	.LBB1518:
 3507              	.LBB1515:
 3508              	.LBB1512:
 3509              	.LBB1509:
  37:../../libs/libDaisy/src/dev/mpr121.h **** 
 3510              		.loc 7 37 20 view .LVU712
 3511 000c 5960     		str	r1, [r3, #4]
 3512              	.LBE1509:
 3513              	.LBE1512:
 3514              	.LBE1515:
 105:../../libs/libDaisy/src/dev/mpr121.h ****         {
 3515              		.loc 7 105 9 view .LVU713
 3516 000e 9982     		strh	r1, [r3, #20]	@ movhi
 3517              	.LVL174:
 105:../../libs/libDaisy/src/dev/mpr121.h ****         {
 3518              		.loc 7 105 9 view .LVU714
 3519              	.LBE1518:
 3520              	.LBE1571:
 3521              	.LBB1572:
 3522              	.LBI1522:
  96:../../libs/libDaisy/src/dev/mpr121.h ****     ~Mpr121() {}
 3523              		.loc 7 96 5 is_stmt 1 view .LVU715
 3524              	.LBB1566:
 3525              	.LBB1545:
 3526              	.LBI1524:
 105:../../libs/libDaisy/src/dev/mpr121.h ****         {
 3527              		.loc 7 105 9 view .LVU716
 3528              	.LBB1542:
 3529              	.LBB1539:
 3530              	.LBI1526:
  34:../../libs/libDaisy/src/dev/mpr121.h ****         {
 3531              		.loc 7 34 9 view .LVU717
 3532              	.LBB1536:
 3533              	.LBB1533:
 3534              	.LBB1529:
 3535              	.LBI1529:
 3536              		.loc 10 204 15 view .LVU718
 3537              		.loc 10 204 15 is_stmt 0 view .LVU719
 3538              	.LBE1529:
 3539              	.LBB1530:
 3540              	.LBI1530:
 3541              		.loc 10 204 15 is_stmt 1 view .LVU720
 3542              		.loc 10 204 15 is_stmt 0 view .LVU721
 3543              	.LBE1530:
  36:../../libs/libDaisy/src/dev/mpr121.h ****             speed  = I2CHandle::Config::Speed::I2C_400KHZ;
 3544              		.loc 7 36 13 is_stmt 1 view .LVU722
  37:../../libs/libDaisy/src/dev/mpr121.h **** 
 3545              		.loc 7 37 13 view .LVU723
  39:../../libs/libDaisy/src/dev/mpr121.h ****             sda = Pin(PORTB, 9);
 3546              		.loc 7 39 13 view .LVU724
ARM GAS  C:\Users\skipi\AppData\Local\Temp\ccYcyPVo.s 			page 95


 3547              	.LBB1531:
 3548              	.LBI1531:
 201:../../libs/libDaisy/src/daisy_core.h **** 
 3549              		.loc 10 201 15 view .LVU725
 201:../../libs/libDaisy/src/daisy_core.h **** 
 3550              		.loc 10 201 15 is_stmt 0 view .LVU726
 3551              	.LBE1531:
  40:../../libs/libDaisy/src/dev/mpr121.h **** 
 3552              		.loc 7 40 13 is_stmt 1 view .LVU727
 3553              	.LBB1532:
 3554              	.LBI1532:
 201:../../libs/libDaisy/src/daisy_core.h **** 
 3555              		.loc 10 201 15 view .LVU728
 201:../../libs/libDaisy/src/daisy_core.h **** 
 3556              		.loc 10 201 15 is_stmt 0 view .LVU729
 3557              	.LBE1532:
  42:../../libs/libDaisy/src/dev/mpr121.h ****         }
 3558              		.loc 7 42 13 is_stmt 1 view .LVU730
  42:../../libs/libDaisy/src/dev/mpr121.h ****         }
 3559              		.loc 7 42 13 is_stmt 0 view .LVU731
 3560              	.LBE1533:
 3561              	.LBE1536:
 3562              	.LBE1539:
 3563              	.LBE1542:
 3564              	.LBE1545:
 3565              	.LBB1546:
 3566              	.LBI1546:
  20:../../libs/libDaisy/src/dev/mpr121.h ****     ~Mpr121I2CTransport() {}
 3567              		.loc 7 20 5 is_stmt 1 view .LVU732
 3568              	.LBB1547:
 3569              	.LBB1548:
 3570              	.LBI1548:
  60:../../libs/libDaisy/src/per/i2c.h ****             Pin scl;  /**< & */
  61:../../libs/libDaisy/src/per/i2c.h ****             Pin sda;  /**< & */
  62:../../libs/libDaisy/src/per/i2c.h ****         } pin_config; /**< & */
  63:../../libs/libDaisy/src/per/i2c.h **** 
  64:../../libs/libDaisy/src/per/i2c.h ****         Speed speed; /**< & */
  65:../../libs/libDaisy/src/per/i2c.h ****         Mode  mode;  /**< & */
  66:../../libs/libDaisy/src/per/i2c.h ****         // 0x10 is chosen as a default to avoid conflicts with reserved addresses
  67:../../libs/libDaisy/src/per/i2c.h ****         uint8_t address = 0x10; /**< & */
  68:../../libs/libDaisy/src/per/i2c.h ****     };
  69:../../libs/libDaisy/src/per/i2c.h **** 
  70:../../libs/libDaisy/src/per/i2c.h ****     /** Return values for I2C functions. */
  71:../../libs/libDaisy/src/per/i2c.h ****     enum class Result
  72:../../libs/libDaisy/src/per/i2c.h ****     {
  73:../../libs/libDaisy/src/per/i2c.h ****         OK, /**< & */
  74:../../libs/libDaisy/src/per/i2c.h ****         ERR /**< & */
  75:../../libs/libDaisy/src/per/i2c.h ****     };
  76:../../libs/libDaisy/src/per/i2c.h **** 
  77:../../libs/libDaisy/src/per/i2c.h ****     enum class Direction
  78:../../libs/libDaisy/src/per/i2c.h ****     {
  79:../../libs/libDaisy/src/per/i2c.h ****         TRANSMIT, /**< & */
  80:../../libs/libDaisy/src/per/i2c.h ****         RECEIVE,  /**< & */
  81:../../libs/libDaisy/src/per/i2c.h ****     };
  82:../../libs/libDaisy/src/per/i2c.h **** 
  83:../../libs/libDaisy/src/per/i2c.h ****     I2CHandle() : pimpl_(nullptr) {}
 3571              		.loc 9 83 5 view .LVU733
ARM GAS  C:\Users\skipi\AppData\Local\Temp\ccYcyPVo.s 			page 96


 3572              		.loc 9 83 5 is_stmt 0 view .LVU734
 3573              	.LBE1548:
 3574              	.LBB1551:
 3575              	.LBI1551:
  34:../../libs/libDaisy/src/dev/mpr121.h ****         {
 3576              		.loc 7 34 9 is_stmt 1 view .LVU735
 3577              	.LBB1552:
 3578              	.LBB1553:
 3579              	.LBB1554:
 3580              	.LBI1554:
 3581              		.loc 10 204 15 view .LVU736
 3582              		.loc 10 204 15 is_stmt 0 view .LVU737
 3583              	.LBE1554:
 3584              	.LBB1555:
 3585              	.LBI1555:
 3586              		.loc 10 204 15 is_stmt 1 view .LVU738
 3587              		.loc 10 204 15 is_stmt 0 view .LVU739
 3588              	.LBE1555:
  36:../../libs/libDaisy/src/dev/mpr121.h ****             speed  = I2CHandle::Config::Speed::I2C_400KHZ;
 3589              		.loc 7 36 13 is_stmt 1 view .LVU740
  37:../../libs/libDaisy/src/dev/mpr121.h **** 
 3590              		.loc 7 37 13 view .LVU741
  39:../../libs/libDaisy/src/dev/mpr121.h ****             sda = Pin(PORTB, 9);
 3591              		.loc 7 39 13 view .LVU742
 3592              	.LBB1556:
 3593              	.LBI1556:
 201:../../libs/libDaisy/src/daisy_core.h **** 
 3594              		.loc 10 201 15 view .LVU743
 201:../../libs/libDaisy/src/daisy_core.h **** 
 3595              		.loc 10 201 15 is_stmt 0 view .LVU744
 3596              	.LBE1556:
  40:../../libs/libDaisy/src/dev/mpr121.h **** 
 3597              		.loc 7 40 13 is_stmt 1 view .LVU745
 3598              	.LBB1557:
 3599              	.LBI1557:
 201:../../libs/libDaisy/src/daisy_core.h **** 
 3600              		.loc 10 201 15 view .LVU746
 201:../../libs/libDaisy/src/daisy_core.h **** 
 3601              		.loc 10 201 15 is_stmt 0 view .LVU747
 3602              	.LBE1557:
  42:../../libs/libDaisy/src/dev/mpr121.h ****         }
 3603              		.loc 7 42 13 is_stmt 1 view .LVU748
 3604              	.LBE1553:
 3605              	.LBE1552:
 3606              	.LBE1551:
 3607              	.LBE1547:
 3608              	.LBE1546:
 3609              	.LBB1563:
 3610              	.LBB1543:
 3611              	.LBB1540:
 3612              	.LBB1537:
 3613              	.LBB1534:
  37:../../libs/libDaisy/src/dev/mpr121.h **** 
 3614              		.loc 7 37 20 is_stmt 0 view .LVU749
 3615 0010 4160     		str	r1, [r0, #4]
 3616              	.LBE1534:
 3617              	.LBE1537:
ARM GAS  C:\Users\skipi\AppData\Local\Temp\ccYcyPVo.s 			page 97


 3618              	.LBE1540:
 3619              	.LBE1543:
 3620              	.LBE1563:
  96:../../libs/libDaisy/src/dev/mpr121.h ****     ~Mpr121() {}
 3621              		.loc 7 96 5 view .LVU750
 3622 0012 4161     		str	r1, [r0, #20]
 3623              	.LBE1566:
 3624              	.LBE1572:
 3625              	.LBB1573:
 3626              	.LBB1519:
 3627              	.LBB1516:
 3628              	.LBB1513:
 3629              	.LBB1510:
  36:../../libs/libDaisy/src/dev/mpr121.h ****             speed  = I2CHandle::Config::Speed::I2C_400KHZ;
 3630              		.loc 7 36 20 view .LVU751
 3631 0014 1C60     		str	r4, [r3]
 3632              	.LBE1510:
 3633              	.LBE1513:
 3634              	.LBE1516:
 3635              	.LBE1519:
 3636              	.LBE1573:
 3637              	.LBB1574:
 3638              	.LBB1567:
 3639              	.LBB1564:
 3640              	.LBB1544:
 3641              	.LBB1541:
 3642              	.LBB1538:
 3643              	.LBB1535:
 3644 0016 0460     		str	r4, [r0]
 3645              	.LBE1535:
 3646              	.LBE1538:
 3647              	.LBE1541:
 3648              	.LBE1544:
 3649              	.LBE1564:
 3650              	.LBB1565:
 3651              	.LBB1562:
 3652              	.LBB1560:
 3653              	.LBB1549:
 3654              	.LBB1550:
 3655              		.loc 9 83 33 view .LVU752
 3656 0018 8461     		str	r4, [r0, #24]
 3657              	.LBE1550:
 3658              	.LBE1549:
 3659              	.LBE1560:
 3660              	.LBB1561:
 3661              	.LBB1559:
 3662              	.LBB1558:
  36:../../libs/libDaisy/src/dev/mpr121.h ****             speed  = I2CHandle::Config::Speed::I2C_400KHZ;
 3663              		.loc 7 36 20 view .LVU753
 3664 001a C0E90741 		strd	r4, r1, [r0, #28]
 3665              	.LBE1558:
 3666              	.LBE1559:
 3667              	.LBE1561:
 3668              	.LBE1562:
 3669              	.LBE1565:
 3670              	.LBE1567:
 3671              	.LBE1574:
ARM GAS  C:\Users\skipi\AppData\Local\Temp\ccYcyPVo.s 			page 98


 3672              	.LBB1575:
 3673              	.LBB1520:
 105:../../libs/libDaisy/src/dev/mpr121.h ****         {
 3674              		.loc 7 105 9 view .LVU754
 3675 001e 01F11061 		add	r1, r1, #150994944
 3676 0022 01F58431 		add	r1, r1, #67584
 3677 0026 9960     		str	r1, [r3, #8]
 3678              	.LBE1520:
 3679              	.LBE1575:
 3680              	.LBB1576:
 3681              	.LBB1568:
  96:../../libs/libDaisy/src/dev/mpr121.h ****     ~Mpr121() {}
 3682              		.loc 7 96 5 view .LVU755
 3683 0028 8160     		str	r1, [r0, #8]
 3684 002a 4162     		str	r1, [r0, #36]
 3685              	.LBE1568:
 3686              	.LBE1576:
 3687              	.LBB1577:
 3688              	.LBB1521:
 105:../../libs/libDaisy/src/dev/mpr121.h ****         {
 3689              		.loc 7 105 9 view .LVU756
 3690 002c 5A21     		movs	r1, #90
 3691 002e 1961     		str	r1, [r3, #16]
 3692              	.LBE1521:
 3693              	.LBE1577:
 3694              	.LBB1578:
 3695              	.LBB1569:
  96:../../libs/libDaisy/src/dev/mpr121.h ****     ~Mpr121() {}
 3696              		.loc 7 96 5 view .LVU757
 3697 0030 0161     		str	r1, [r0, #16]
 3698 0032 C162     		str	r1, [r0, #44]
 3699              	.LVL175:
  96:../../libs/libDaisy/src/dev/mpr121.h ****     ~Mpr121() {}
 3700              		.loc 7 96 5 view .LVU758
 3701              	.LBE1569:
 3702              	.LBE1578:
  15:main0.cpp     **** 
 3703              		.loc 8 15 18 view .LVU759
 3704 0034 1749     		ldr	r1, .L33+12
 3705 0036 FFF7FEFF 		bl	__aeabi_atexit
 3706              	.LVL176:
 3707              	.LBB1579:
 3708              	.LBI1579:
  21:../../libs/libDaisy/src/daisy_seed.h ****     ~DaisySeed() {}
 3709              		.loc 1 21 5 is_stmt 1 view .LVU760
 3710              	.LBB1580:
 3711              	.LBB1581:
 3712              	.LBI1581:
 3713              		.file 11 "../../libs/libDaisy/src/per/qspi.h"
   1:../../libs/libDaisy/src/per/qspi.h **** #ifndef DSY_QSPI
   2:../../libs/libDaisy/src/per/qspi.h **** #define DSY_QSPI /**< Macro */
   3:../../libs/libDaisy/src/per/qspi.h **** 
   4:../../libs/libDaisy/src/per/qspi.h **** #ifndef UNIT_TEST // for unit tests, a dummy implementation
   5:../../libs/libDaisy/src/per/qspi.h **** 
   6:../../libs/libDaisy/src/per/qspi.h **** #include <cstdint>
   7:../../libs/libDaisy/src/per/qspi.h **** #include "daisy_core.h"
   8:../../libs/libDaisy/src/per/qspi.h **** #include "util/hal_map.h"
ARM GAS  C:\Users\skipi\AppData\Local\Temp\ccYcyPVo.s 			page 99


   9:../../libs/libDaisy/src/per/qspi.h **** 
  10:../../libs/libDaisy/src/per/qspi.h **** #define DSY_QSPI_TEXT       \
  11:../../libs/libDaisy/src/per/qspi.h ****     __attribute__((section( \
  12:../../libs/libDaisy/src/per/qspi.h ****         ".qspiflash_text"))) /**< used for reading memory in memory_mapped mode. */
  13:../../libs/libDaisy/src/per/qspi.h **** #define DSY_QSPI_DATA       \
  14:../../libs/libDaisy/src/per/qspi.h ****     __attribute__((section( \
  15:../../libs/libDaisy/src/per/qspi.h ****         ".qspiflash_data"))) /**< used for reading memory in memory_mapped mode. */
  16:../../libs/libDaisy/src/per/qspi.h **** #define DSY_QSPI_BSS        \
  17:../../libs/libDaisy/src/per/qspi.h ****     __attribute__((section( \
  18:../../libs/libDaisy/src/per/qspi.h ****         ".qspiflash_bss"))) /**< used for reading memory in memory_mapped mode. */
  19:../../libs/libDaisy/src/per/qspi.h **** 
  20:../../libs/libDaisy/src/per/qspi.h **** namespace daisy
  21:../../libs/libDaisy/src/per/qspi.h **** {
  22:../../libs/libDaisy/src/per/qspi.h **** /** @addtogroup serial
  23:../../libs/libDaisy/src/per/qspi.h **** @{
  24:../../libs/libDaisy/src/per/qspi.h **** */
  25:../../libs/libDaisy/src/per/qspi.h **** 
  26:../../libs/libDaisy/src/per/qspi.h **** /**
  27:../../libs/libDaisy/src/per/qspi.h ****  Driver for QSPI peripheral to interface with external flash memory. \n
  28:../../libs/libDaisy/src/per/qspi.h ****     Currently supported QSPI Devices: \n
  29:../../libs/libDaisy/src/per/qspi.h ****     * IS25LP080D
  30:../../libs/libDaisy/src/per/qspi.h **** */
  31:../../libs/libDaisy/src/per/qspi.h **** class QSPIHandle
  32:../../libs/libDaisy/src/per/qspi.h **** {
  33:../../libs/libDaisy/src/per/qspi.h ****   public:
  34:../../libs/libDaisy/src/per/qspi.h ****     enum Result
  35:../../libs/libDaisy/src/per/qspi.h ****     {
  36:../../libs/libDaisy/src/per/qspi.h ****         OK = 0,
  37:../../libs/libDaisy/src/per/qspi.h ****         ERR
  38:../../libs/libDaisy/src/per/qspi.h ****     };
  39:../../libs/libDaisy/src/per/qspi.h **** 
  40:../../libs/libDaisy/src/per/qspi.h ****     /** Indicates the current status of the module.
  41:../../libs/libDaisy/src/per/qspi.h ****          *  Warnings are indicated by a leading W.
  42:../../libs/libDaisy/src/per/qspi.h ****          *  Errors are indicated by a leading E and cause an immediate exit.
  43:../../libs/libDaisy/src/per/qspi.h ****          *
  44:../../libs/libDaisy/src/per/qspi.h ****          *  \param GOOD - No errors have been reported.
  45:../../libs/libDaisy/src/per/qspi.h ****          *  \param E_HAL_ERROR - HAL code did not return HAL_OK.
  46:../../libs/libDaisy/src/per/qspi.h ****          *  \param E_SWITCHING_MODES - An error was encountered while switching QSPI peripheral mod
  47:../../libs/libDaisy/src/per/qspi.h ****          *  \param E_INVALID_MODE - QSPI should not be written to while the program is executing fr
  48:../../libs/libDaisy/src/per/qspi.h ****          */
  49:../../libs/libDaisy/src/per/qspi.h ****     enum Status
  50:../../libs/libDaisy/src/per/qspi.h ****     {
  51:../../libs/libDaisy/src/per/qspi.h ****         GOOD = 0,
  52:../../libs/libDaisy/src/per/qspi.h ****         E_HAL_ERROR,
  53:../../libs/libDaisy/src/per/qspi.h ****         E_SWITCHING_MODES,
  54:../../libs/libDaisy/src/per/qspi.h ****         E_INVALID_MODE,
  55:../../libs/libDaisy/src/per/qspi.h ****     };
  56:../../libs/libDaisy/src/per/qspi.h **** 
  57:../../libs/libDaisy/src/per/qspi.h ****     /** Configuration structure for interfacing with QSPI Driver */
  58:../../libs/libDaisy/src/per/qspi.h ****     struct Config
  59:../../libs/libDaisy/src/per/qspi.h ****     {
  60:../../libs/libDaisy/src/per/qspi.h ****         /** Flash Devices supported. (Both of these are more-or-less the same, just different sizes
  61:../../libs/libDaisy/src/per/qspi.h ****         enum Device
  62:../../libs/libDaisy/src/per/qspi.h ****         {
  63:../../libs/libDaisy/src/per/qspi.h ****             IS25LP080D,  /**< & */
  64:../../libs/libDaisy/src/per/qspi.h ****             IS25LP064A,  /**< & */
  65:../../libs/libDaisy/src/per/qspi.h ****             DEVICE_LAST, /**< & */
ARM GAS  C:\Users\skipi\AppData\Local\Temp\ccYcyPVo.s 			page 100


  66:../../libs/libDaisy/src/per/qspi.h ****         };
  67:../../libs/libDaisy/src/per/qspi.h **** 
  68:../../libs/libDaisy/src/per/qspi.h ****         /**
  69:../../libs/libDaisy/src/per/qspi.h ****         Modes of operation.
  70:../../libs/libDaisy/src/per/qspi.h ****         Memory Mapped mode: QSPI configured so that the QSPI can be
  71:../../libs/libDaisy/src/per/qspi.h ****         read from starting address 0x90000000. Writing is not
  72:../../libs/libDaisy/src/per/qspi.h ****         possible in this mode. \n
  73:../../libs/libDaisy/src/per/qspi.h ****         Indirect Polling mode: Device driver enabled.
  74:../../libs/libDaisy/src/per/qspi.h ****         */
  75:../../libs/libDaisy/src/per/qspi.h ****         enum Mode
  76:../../libs/libDaisy/src/per/qspi.h ****         {
  77:../../libs/libDaisy/src/per/qspi.h ****             MEMORY_MAPPED,    /**< & */
  78:../../libs/libDaisy/src/per/qspi.h ****             INDIRECT_POLLING, /**< & */
  79:../../libs/libDaisy/src/per/qspi.h ****             MODE_LAST,
  80:../../libs/libDaisy/src/per/qspi.h ****         };
  81:../../libs/libDaisy/src/per/qspi.h **** 
  82:../../libs/libDaisy/src/per/qspi.h ****         //SCK,  CE# (active low)
  83:../../libs/libDaisy/src/per/qspi.h ****         struct
  84:../../libs/libDaisy/src/per/qspi.h ****         {
  85:../../libs/libDaisy/src/per/qspi.h ****             Pin io0; /**< & */
  86:../../libs/libDaisy/src/per/qspi.h ****             Pin io1; /**< & */
  87:../../libs/libDaisy/src/per/qspi.h ****             Pin io2; /**< & */
  88:../../libs/libDaisy/src/per/qspi.h ****             Pin io3; /**< & */
  89:../../libs/libDaisy/src/per/qspi.h ****             Pin clk; /**< & */
  90:../../libs/libDaisy/src/per/qspi.h ****             Pin ncs; /**< & */
  91:../../libs/libDaisy/src/per/qspi.h ****         } pin_config;
  92:../../libs/libDaisy/src/per/qspi.h **** 
  93:../../libs/libDaisy/src/per/qspi.h ****         Device device;
  94:../../libs/libDaisy/src/per/qspi.h ****         Mode   mode;
  95:../../libs/libDaisy/src/per/qspi.h ****     };
  96:../../libs/libDaisy/src/per/qspi.h **** 
  97:../../libs/libDaisy/src/per/qspi.h ****     /**
  98:../../libs/libDaisy/src/per/qspi.h ****         Initializes QSPI peripheral, and Resets, and prepares memory for access.
  99:../../libs/libDaisy/src/per/qspi.h ****         \param config should be populated with the mode, device and pin_config before calling this 
 100:../../libs/libDaisy/src/per/qspi.h ****         \return Result::OK or Result::ERR
 101:../../libs/libDaisy/src/per/qspi.h ****         */
 102:../../libs/libDaisy/src/per/qspi.h ****     Result Init(const Config& config);
 103:../../libs/libDaisy/src/per/qspi.h **** 
 104:../../libs/libDaisy/src/per/qspi.h ****     /** Returns the current config. */
 105:../../libs/libDaisy/src/per/qspi.h ****     const Config& GetConfig() const;
 106:../../libs/libDaisy/src/per/qspi.h **** 
 107:../../libs/libDaisy/src/per/qspi.h ****     // Couldn't this just be called before anything else in init? That
 108:../../libs/libDaisy/src/per/qspi.h ****     // would make manually calling it unnecessary.
 109:../../libs/libDaisy/src/per/qspi.h ****     /**
 110:../../libs/libDaisy/src/per/qspi.h ****         Deinitializes the peripheral
 111:../../libs/libDaisy/src/per/qspi.h ****         This should be called before reinitializing QSPI in a different mode.
 112:../../libs/libDaisy/src/per/qspi.h ****         \return Result::OK or Result::ERR
 113:../../libs/libDaisy/src/per/qspi.h ****         */
 114:../../libs/libDaisy/src/per/qspi.h ****     Result DeInit();
 115:../../libs/libDaisy/src/per/qspi.h **** 
 116:../../libs/libDaisy/src/per/qspi.h ****     /**
 117:../../libs/libDaisy/src/per/qspi.h ****         Writes a single page to to the specified address on the QSPI chip.
 118:../../libs/libDaisy/src/per/qspi.h ****         For IS25LP*, page size is 256 bytes.
 119:../../libs/libDaisy/src/per/qspi.h ****         \param address Address to write to
 120:../../libs/libDaisy/src/per/qspi.h ****         \param size Buffer size
 121:../../libs/libDaisy/src/per/qspi.h ****         \param buffer Buffer to write
 122:../../libs/libDaisy/src/per/qspi.h ****         \return Result::OK or Result::ERR
ARM GAS  C:\Users\skipi\AppData\Local\Temp\ccYcyPVo.s 			page 101


 123:../../libs/libDaisy/src/per/qspi.h ****         */
 124:../../libs/libDaisy/src/per/qspi.h ****     Result WritePage(uint32_t address, uint32_t size, uint8_t* buffer);
 125:../../libs/libDaisy/src/per/qspi.h **** 
 126:../../libs/libDaisy/src/per/qspi.h ****     /**
 127:../../libs/libDaisy/src/per/qspi.h ****         Writes data in buffer to to the QSPI. Starting at address to address+size
 128:../../libs/libDaisy/src/per/qspi.h ****         \param address Address to write to
 129:../../libs/libDaisy/src/per/qspi.h ****         \param size Buffer size
 130:../../libs/libDaisy/src/per/qspi.h ****         \param buffer Buffer to write
 131:../../libs/libDaisy/src/per/qspi.h ****         \return Result::OK or Result::ERR
 132:../../libs/libDaisy/src/per/qspi.h ****         */
 133:../../libs/libDaisy/src/per/qspi.h ****     Result Write(uint32_t address, uint32_t size, uint8_t* buffer);
 134:../../libs/libDaisy/src/per/qspi.h **** 
 135:../../libs/libDaisy/src/per/qspi.h ****     /**
 136:../../libs/libDaisy/src/per/qspi.h ****         Erases the area specified on the chip.
 137:../../libs/libDaisy/src/per/qspi.h ****         Erasures will happen by 4K, 32K or 64K increments.
 138:../../libs/libDaisy/src/per/qspi.h ****         Smallest erase possible is 4kB at a time. (on IS25LP*)
 139:../../libs/libDaisy/src/per/qspi.h ****         \param start_addr Address to begin erasing from
 140:../../libs/libDaisy/src/per/qspi.h ****         \param end_addr  Address to stop erasing at
 141:../../libs/libDaisy/src/per/qspi.h ****         \return Result::OK or Result::ERR
 142:../../libs/libDaisy/src/per/qspi.h ****         */
 143:../../libs/libDaisy/src/per/qspi.h ****     Result Erase(uint32_t start_addr, uint32_t end_addr);
 144:../../libs/libDaisy/src/per/qspi.h **** 
 145:../../libs/libDaisy/src/per/qspi.h ****     /**
 146:../../libs/libDaisy/src/per/qspi.h ****          Erases a single sector of the chip.
 147:../../libs/libDaisy/src/per/qspi.h ****         TODO: Document the size of this function.
 148:../../libs/libDaisy/src/per/qspi.h ****         \param address Address of sector to erase
 149:../../libs/libDaisy/src/per/qspi.h ****         \return Result::OK or Result::ERR
 150:../../libs/libDaisy/src/per/qspi.h ****         */
 151:../../libs/libDaisy/src/per/qspi.h ****     Result EraseSector(uint32_t address);
 152:../../libs/libDaisy/src/per/qspi.h **** 
 153:../../libs/libDaisy/src/per/qspi.h ****     /** Returns the current class status. Useful for debugging.
 154:../../libs/libDaisy/src/per/qspi.h ****      *  \returns Status
 155:../../libs/libDaisy/src/per/qspi.h ****      */
 156:../../libs/libDaisy/src/per/qspi.h ****     Status GetStatus();
 157:../../libs/libDaisy/src/per/qspi.h **** 
 158:../../libs/libDaisy/src/per/qspi.h ****     /** Returns a pointer to the actual memory used
 159:../../libs/libDaisy/src/per/qspi.h ****      *  The memory at this address is read-only
 160:../../libs/libDaisy/src/per/qspi.h ****      *  to write to it use the Write function.
 161:../../libs/libDaisy/src/per/qspi.h ****      *
 162:../../libs/libDaisy/src/per/qspi.h ****      *  \param offset returns the pointer starting this
 163:../../libs/libDaisy/src/per/qspi.h ****      *                many bytes into the memory
 164:../../libs/libDaisy/src/per/qspi.h ****     */
 165:../../libs/libDaisy/src/per/qspi.h ****     void* GetData(uint32_t offset = 0);
 166:../../libs/libDaisy/src/per/qspi.h **** 
 167:../../libs/libDaisy/src/per/qspi.h ****     QSPIHandle() : pimpl_(nullptr) {}
 3714              		.loc 11 167 5 view .LVU761
 3715              		.loc 11 167 5 is_stmt 0 view .LVU762
 3716              	.LBE1581:
 3717              	.LBB1586:
 3718              	.LBI1586:
  58:../../libs/libDaisy/src/per/qspi.h ****     {
 3719              		.loc 11 58 12 is_stmt 1 view .LVU763
 3720              	.LBB1587:
 3721              	.LBI1587:
  84:../../libs/libDaisy/src/per/qspi.h ****             Pin io0; /**< & */
 3722              		.loc 11 84 9 view .LVU764
 3723              	.LBB1588:
ARM GAS  C:\Users\skipi\AppData\Local\Temp\ccYcyPVo.s 			page 102


 3724              	.LBI1588:
 3725              		.loc 10 204 15 view .LVU765
 3726              		.loc 10 204 15 is_stmt 0 view .LVU766
 3727              	.LBE1588:
 3728              	.LBB1589:
 3729              	.LBI1589:
 3730              		.loc 10 204 15 is_stmt 1 view .LVU767
 3731              		.loc 10 204 15 is_stmt 0 view .LVU768
 3732              	.LBE1589:
 3733              	.LBB1590:
 3734              	.LBI1590:
 3735              		.loc 10 204 15 is_stmt 1 view .LVU769
 3736              		.loc 10 204 15 is_stmt 0 view .LVU770
 3737              	.LBE1590:
 3738              	.LBB1591:
 3739              	.LBI1591:
 3740              		.loc 10 204 15 is_stmt 1 view .LVU771
 3741              		.loc 10 204 15 is_stmt 0 view .LVU772
 3742              	.LBE1591:
 3743              	.LBB1592:
 3744              	.LBI1592:
 3745              		.loc 10 204 15 is_stmt 1 view .LVU773
 3746              		.loc 10 204 15 is_stmt 0 view .LVU774
 3747              	.LBE1592:
 3748              	.LBB1593:
 3749              	.LBI1593:
 3750              		.loc 10 204 15 is_stmt 1 view .LVU775
 3751              		.loc 10 204 15 is_stmt 0 view .LVU776
 3752              	.LBE1593:
 3753              	.LBE1587:
 3754              	.LBE1586:
 3755              	.LBB1594:
 3756              	.LBI1594:
  87:../../libs/libDaisy/src/hid/audio.h ****     ~AudioHandle() {}
 3757              		.loc 6 87 5 is_stmt 1 view .LVU777
  87:../../libs/libDaisy/src/hid/audio.h ****     ~AudioHandle() {}
 3758              		.loc 6 87 5 is_stmt 0 view .LVU778
 3759              	.LBE1594:
 3760              	.LBB1597:
 3761              	.LBI1597:
 109:../../libs/libDaisy/src/per/adc.h ****     ~AdcHandle() {}
 3762              		.loc 5 109 5 is_stmt 1 view .LVU779
 109:../../libs/libDaisy/src/per/adc.h ****     ~AdcHandle() {}
 3763              		.loc 5 109 5 is_stmt 0 view .LVU780
 3764              	.LBE1597:
 3765              	.LBB1598:
 3766              	.LBI1598:
 3767              		.file 12 "../../libs/libDaisy/src/per/dac.h"
   1:../../libs/libDaisy/src/per/dac.h **** #pragma once
   2:../../libs/libDaisy/src/per/dac.h **** #ifndef DSY_DAC_H
   3:../../libs/libDaisy/src/per/dac.h **** #define DSY_DAC_H
   4:../../libs/libDaisy/src/per/dac.h **** #include "stm32h7xx_hal.h"
   5:../../libs/libDaisy/src/per/dac.h **** #include "daisy_core.h"
   6:../../libs/libDaisy/src/per/dac.h **** 
   7:../../libs/libDaisy/src/per/dac.h **** namespace daisy
   8:../../libs/libDaisy/src/per/dac.h **** {
   9:../../libs/libDaisy/src/per/dac.h **** /** @brief DAC handle for Built-in DAC Peripheral 
ARM GAS  C:\Users\skipi\AppData\Local\Temp\ccYcyPVo.s 			page 103


  10:../../libs/libDaisy/src/per/dac.h ****  *  @ingroup per_analog
  11:../../libs/libDaisy/src/per/dac.h ****  ** 
  12:../../libs/libDaisy/src/per/dac.h ****  ** For now only Normal Mode is supported,
  13:../../libs/libDaisy/src/per/dac.h ****  ** Sample and hold mode provides reduced power consumption, but requires a bit more setup.
  14:../../libs/libDaisy/src/per/dac.h ****  **
  15:../../libs/libDaisy/src/per/dac.h ****  ** For now connecting the DAC through other internal peripherals is also not supported.
  16:../../libs/libDaisy/src/per/dac.h ****  **
  17:../../libs/libDaisy/src/per/dac.h ****  ** Since the DAC channels have dedicated pins we don't need to pass in a pin config like with
  18:../../libs/libDaisy/src/per/dac.h ****  ** other modules. However, it is still important to not try to use the DAC pins for anything else.
  19:../../libs/libDaisy/src/per/dac.h ****  ** DAC Channel 1 is on PA4, and DAC Channel 2 is on PA5
  20:../../libs/libDaisy/src/per/dac.h ****  ***/
  21:../../libs/libDaisy/src/per/dac.h **** class DacHandle
  22:../../libs/libDaisy/src/per/dac.h **** {
  23:../../libs/libDaisy/src/per/dac.h ****   public:
  24:../../libs/libDaisy/src/per/dac.h ****     /** Return Values for the DacHandle class */
  25:../../libs/libDaisy/src/per/dac.h ****     enum class Result
  26:../../libs/libDaisy/src/per/dac.h ****     {
  27:../../libs/libDaisy/src/per/dac.h ****         OK,
  28:../../libs/libDaisy/src/per/dac.h ****         ERR,
  29:../../libs/libDaisy/src/per/dac.h ****     };
  30:../../libs/libDaisy/src/per/dac.h **** 
  31:../../libs/libDaisy/src/per/dac.h ****     /** Selects which channel(s) will be configured for use. */
  32:../../libs/libDaisy/src/per/dac.h ****     enum class Channel
  33:../../libs/libDaisy/src/per/dac.h ****     {
  34:../../libs/libDaisy/src/per/dac.h ****         ONE,
  35:../../libs/libDaisy/src/per/dac.h ****         TWO,
  36:../../libs/libDaisy/src/per/dac.h ****         BOTH,
  37:../../libs/libDaisy/src/per/dac.h ****     };
  38:../../libs/libDaisy/src/per/dac.h **** 
  39:../../libs/libDaisy/src/per/dac.h ****     /** Sets the Mode for the DAC channels.
  40:../../libs/libDaisy/src/per/dac.h ****      **
  41:../../libs/libDaisy/src/per/dac.h ****      ** Polling mode uses the blocking mode to transmit a single value at a time.
  42:../../libs/libDaisy/src/per/dac.h ****      **
  43:../../libs/libDaisy/src/per/dac.h ****      ** DMA mode uses a buffer, and periodically transmits it triggering a 
  44:../../libs/libDaisy/src/per/dac.h ****      ** callback to fill the buffer when it is ready for more samples.
  45:../../libs/libDaisy/src/per/dac.h ****      ***/
  46:../../libs/libDaisy/src/per/dac.h ****     enum class Mode
  47:../../libs/libDaisy/src/per/dac.h ****     {
  48:../../libs/libDaisy/src/per/dac.h ****         POLLING,
  49:../../libs/libDaisy/src/per/dac.h ****         DMA,
  50:../../libs/libDaisy/src/per/dac.h ****     };
  51:../../libs/libDaisy/src/per/dac.h **** 
  52:../../libs/libDaisy/src/per/dac.h ****     /** Sets the number of bits per sample transmitted out of the DAC.
  53:../../libs/libDaisy/src/per/dac.h ****      ** The output range will be: 0V - VDDA
  54:../../libs/libDaisy/src/per/dac.h ****      ** The resolution will be roughly: bitdepth / (VDDA - 0V) 
  55:../../libs/libDaisy/src/per/dac.h ****      ***/
  56:../../libs/libDaisy/src/per/dac.h ****     enum class BitDepth
  57:../../libs/libDaisy/src/per/dac.h ****     {
  58:../../libs/libDaisy/src/per/dac.h ****         BITS_8,
  59:../../libs/libDaisy/src/per/dac.h ****         BITS_12
  60:../../libs/libDaisy/src/per/dac.h ****     };
  61:../../libs/libDaisy/src/per/dac.h **** 
  62:../../libs/libDaisy/src/per/dac.h ****     /** Sets whether the DAC output is buffered for higher drive ability. */
  63:../../libs/libDaisy/src/per/dac.h ****     enum class BufferState
  64:../../libs/libDaisy/src/per/dac.h ****     {
  65:../../libs/libDaisy/src/per/dac.h ****         ENABLED,
  66:../../libs/libDaisy/src/per/dac.h ****         DISABLED,
ARM GAS  C:\Users\skipi\AppData\Local\Temp\ccYcyPVo.s 			page 104


  67:../../libs/libDaisy/src/per/dac.h ****     };
  68:../../libs/libDaisy/src/per/dac.h **** 
  69:../../libs/libDaisy/src/per/dac.h ****     /** Configuration structure for initializing the DAC structure. */
  70:../../libs/libDaisy/src/per/dac.h ****     struct Config
  71:../../libs/libDaisy/src/per/dac.h ****     {
  72:../../libs/libDaisy/src/per/dac.h ****         /** Target Samplerate in Hz used to configure the internal 
  73:../../libs/libDaisy/src/per/dac.h ****          ** timebase for DMA mode. Does nothing in POLLING mode.
  74:../../libs/libDaisy/src/per/dac.h ****          ** If the value is 0 at Init time this will default to 48000Hz 
  75:../../libs/libDaisy/src/per/dac.h ****          ** otherwise the driver will attempt meet the target.*/
  76:../../libs/libDaisy/src/per/dac.h ****         uint32_t target_samplerate;
  77:../../libs/libDaisy/src/per/dac.h **** 
  78:../../libs/libDaisy/src/per/dac.h ****         Channel     chn;
  79:../../libs/libDaisy/src/per/dac.h ****         Mode        mode;
  80:../../libs/libDaisy/src/per/dac.h ****         BitDepth    bitdepth;
  81:../../libs/libDaisy/src/per/dac.h ****         BufferState buff_state;
  82:../../libs/libDaisy/src/per/dac.h ****     };
  83:../../libs/libDaisy/src/per/dac.h **** 
  84:../../libs/libDaisy/src/per/dac.h ****     DacHandle() : pimpl_(nullptr) {}
 3768              		.loc 12 84 5 is_stmt 1 view .LVU781
 3769              		.loc 12 84 5 is_stmt 0 view .LVU782
 3770              	.LBE1598:
 3771              	.LBB1601:
 3772              	.LBI1601:
  40:../../libs/libDaisy/src/hid/usb.h **** 
 3773              		.loc 4 40 5 is_stmt 1 view .LVU783
  40:../../libs/libDaisy/src/hid/usb.h **** 
 3774              		.loc 4 40 5 is_stmt 0 view .LVU784
 3775              	.LBE1601:
 3776              	.LBB1602:
 3777              	.LBI1602:
 3778              		.file 13 "../../libs/libDaisy/src/per/gpio.h"
   1:../../libs/libDaisy/src/per/gpio.h **** #pragma once
   2:../../libs/libDaisy/src/per/gpio.h **** #ifndef DSY_GPIO_H
   3:../../libs/libDaisy/src/per/gpio.h **** #define DSY_GPIO_H
   4:../../libs/libDaisy/src/per/gpio.h **** #include "daisy_core.h"
   5:../../libs/libDaisy/src/per/gpio.h **** 
   6:../../libs/libDaisy/src/per/gpio.h **** #ifdef __cplusplus
   7:../../libs/libDaisy/src/per/gpio.h **** 
   8:../../libs/libDaisy/src/per/gpio.h **** namespace daisy
   9:../../libs/libDaisy/src/per/gpio.h **** {
  10:../../libs/libDaisy/src/per/gpio.h **** /** @brief General Purpose I/O control 
  11:../../libs/libDaisy/src/per/gpio.h ****  *  @details peripheral control over a single GPIO
  12:../../libs/libDaisy/src/per/gpio.h ****  *  @ingroup peripheral
  13:../../libs/libDaisy/src/per/gpio.h ****  *   
  14:../../libs/libDaisy/src/per/gpio.h ****  *  Button Input (with internal Pullup resistor)
  15:../../libs/libDaisy/src/per/gpio.h ****  *  @include GPIO_Input.cpp 
  16:../../libs/libDaisy/src/per/gpio.h ****  * 
  17:../../libs/libDaisy/src/per/gpio.h ****  *  Output Example (perfect for blinking an LED)
  18:../../libs/libDaisy/src/per/gpio.h ****  *  @include GPIO_Output.cpp
  19:../../libs/libDaisy/src/per/gpio.h ****  * 
  20:../../libs/libDaisy/src/per/gpio.h **** */
  21:../../libs/libDaisy/src/per/gpio.h **** class GPIO
  22:../../libs/libDaisy/src/per/gpio.h **** {
  23:../../libs/libDaisy/src/per/gpio.h ****   public:
  24:../../libs/libDaisy/src/per/gpio.h ****     /** @brief Mode of operation for the specified GPIO */
  25:../../libs/libDaisy/src/per/gpio.h ****     enum class Mode
  26:../../libs/libDaisy/src/per/gpio.h ****     {
ARM GAS  C:\Users\skipi\AppData\Local\Temp\ccYcyPVo.s 			page 105


  27:../../libs/libDaisy/src/per/gpio.h ****         INPUT,      /**< Input for reading state of pin */
  28:../../libs/libDaisy/src/per/gpio.h ****         OUTPUT,     /**< Output w/ push-pull configuration */
  29:../../libs/libDaisy/src/per/gpio.h ****         OPEN_DRAIN, /**< Output w/ open-drain configuration */
  30:../../libs/libDaisy/src/per/gpio.h ****         ANALOG,     /**< Analog for connection to ADC or DAC peripheral */
  31:../../libs/libDaisy/src/per/gpio.h ****     };
  32:../../libs/libDaisy/src/per/gpio.h **** 
  33:../../libs/libDaisy/src/per/gpio.h ****     /** @brief Configures whether an internal Pull up or Pull down resistor is used. 
  34:../../libs/libDaisy/src/per/gpio.h ****      *  
  35:../../libs/libDaisy/src/per/gpio.h ****      * Internal Pull up/down resistors are typically 40k ohms, and will be between
  36:../../libs/libDaisy/src/per/gpio.h ****      * 30k and 50k
  37:../../libs/libDaisy/src/per/gpio.h ****      * 
  38:../../libs/libDaisy/src/per/gpio.h ****      * When the Pin is configured in Analog mode, the pull up/down resistors are
  39:../../libs/libDaisy/src/per/gpio.h ****      * disabled by hardware. 
  40:../../libs/libDaisy/src/per/gpio.h ****      */
  41:../../libs/libDaisy/src/per/gpio.h ****     enum class Pull
  42:../../libs/libDaisy/src/per/gpio.h ****     {
  43:../../libs/libDaisy/src/per/gpio.h ****         NOPULL,   /**< No pull up resistor */
  44:../../libs/libDaisy/src/per/gpio.h ****         PULLUP,   /**< Internal pull up enabled */
  45:../../libs/libDaisy/src/per/gpio.h ****         PULLDOWN, /**< Internal pull down enabled*/
  46:../../libs/libDaisy/src/per/gpio.h ****     };
  47:../../libs/libDaisy/src/per/gpio.h **** 
  48:../../libs/libDaisy/src/per/gpio.h ****     /** @brief Output speed controls the drive strength, and slew rate of the pin */
  49:../../libs/libDaisy/src/per/gpio.h ****     enum class Speed
  50:../../libs/libDaisy/src/per/gpio.h ****     {
  51:../../libs/libDaisy/src/per/gpio.h ****         LOW,
  52:../../libs/libDaisy/src/per/gpio.h ****         MEDIUM,
  53:../../libs/libDaisy/src/per/gpio.h ****         HIGH,
  54:../../libs/libDaisy/src/per/gpio.h ****         VERY_HIGH,
  55:../../libs/libDaisy/src/per/gpio.h ****     };
  56:../../libs/libDaisy/src/per/gpio.h **** 
  57:../../libs/libDaisy/src/per/gpio.h ****     /** @brief Configuration for a given GPIO */
  58:../../libs/libDaisy/src/per/gpio.h ****     struct Config
  59:../../libs/libDaisy/src/per/gpio.h ****     {
  60:../../libs/libDaisy/src/per/gpio.h ****         Pin   pin;
  61:../../libs/libDaisy/src/per/gpio.h ****         Mode  mode;
  62:../../libs/libDaisy/src/per/gpio.h ****         Pull  pull;
  63:../../libs/libDaisy/src/per/gpio.h ****         Speed speed;
  64:../../libs/libDaisy/src/per/gpio.h **** 
  65:../../libs/libDaisy/src/per/gpio.h ****         /** Constructor with no arguments will prepare an invalid GPIO set as
  66:../../libs/libDaisy/src/per/gpio.h ****          *  an input, with no pullup. 
  67:../../libs/libDaisy/src/per/gpio.h ****          */
  68:../../libs/libDaisy/src/per/gpio.h ****         Config()
  69:../../libs/libDaisy/src/per/gpio.h ****         : pin(), mode(Mode::INPUT), pull(Pull::NOPULL), speed(Speed::LOW)
  70:../../libs/libDaisy/src/per/gpio.h ****         {
  71:../../libs/libDaisy/src/per/gpio.h ****         }
  72:../../libs/libDaisy/src/per/gpio.h ****     };
  73:../../libs/libDaisy/src/per/gpio.h **** 
  74:../../libs/libDaisy/src/per/gpio.h ****     GPIO() {}
 3779              		.loc 13 74 5 is_stmt 1 view .LVU785
 3780              	.LBB1603:
 3781              	.LBB1604:
 3782              	.LBI1604:
  68:../../libs/libDaisy/src/per/gpio.h ****         : pin(), mode(Mode::INPUT), pull(Pull::NOPULL), speed(Speed::LOW)
 3783              		.loc 13 68 9 view .LVU786
 3784              	.LBB1605:
 3785              	.LBB1606:
 3786              	.LBB1607:
ARM GAS  C:\Users\skipi\AppData\Local\Temp\ccYcyPVo.s 			page 106


 3787              	.LBI1607:
 3788              		.loc 10 204 15 view .LVU787
 3789              		.loc 10 204 15 is_stmt 0 view .LVU788
 3790              	.LBE1607:
 3791              	.LBE1606:
 3792              	.LBE1605:
 3793              	.LBE1604:
 3794              	.LBE1603:
 3795              	.LBE1602:
 3796              	.LBB1616:
 3797              	.LBI1616:
 3798              		.loc 13 74 5 is_stmt 1 view .LVU789
 3799              	.LBB1617:
 3800              	.LBB1618:
 3801              	.LBI1618:
  68:../../libs/libDaisy/src/per/gpio.h ****         : pin(), mode(Mode::INPUT), pull(Pull::NOPULL), speed(Speed::LOW)
 3802              		.loc 13 68 9 view .LVU790
 3803              	.LBB1619:
 3804              	.LBB1620:
 3805              	.LBB1621:
 3806              	.LBI1621:
 3807              		.loc 10 204 15 view .LVU791
 3808              		.loc 10 204 15 is_stmt 0 view .LVU792
 3809              	.LBE1621:
 3810              	.LBE1620:
 3811              	.LBE1619:
 3812              	.LBE1618:
 3813              	.LBE1617:
 3814              	.LBE1616:
 3815              	.LBB1630:
 3816              	.LBI1630:
  96:../../libs/libDaisy/src/sys/system.h ****     ~System() {}
 3817              		.loc 3 96 5 is_stmt 1 view .LVU793
  96:../../libs/libDaisy/src/sys/system.h ****     ~System() {}
 3818              		.loc 3 96 5 is_stmt 0 view .LVU794
 3819              	.LBE1630:
 3820              	.LBB1631:
 3821              	.LBI1631:
  20:../../libs/libDaisy/src/dev/codec_ak4556.h ****     ~Ak4556() {}
 3822              		.loc 2 20 5 is_stmt 1 view .LVU795
 3823              	.LBB1632:
 3824              	.LBI1632:
 3825              		.loc 13 74 5 view .LVU796
 3826              	.LBB1633:
 3827              	.LBB1634:
 3828              	.LBI1634:
  68:../../libs/libDaisy/src/per/gpio.h ****         : pin(), mode(Mode::INPUT), pull(Pull::NOPULL), speed(Speed::LOW)
 3829              		.loc 13 68 9 view .LVU797
 3830              	.LBB1635:
 3831              	.LBB1636:
 3832              	.LBB1637:
 3833              	.LBI1637:
 3834              		.loc 10 204 15 view .LVU798
 3835              		.loc 10 204 15 is_stmt 0 view .LVU799
 3836              	.LBE1637:
 3837              	.LBE1636:
 3838              	.LBE1635:
ARM GAS  C:\Users\skipi\AppData\Local\Temp\ccYcyPVo.s 			page 107


 3839              	.LBE1634:
 3840              	.LBE1633:
 3841              	.LBE1632:
 3842              	.LBE1631:
 3843              	.LBB1648:
 3844              	.LBI1648:
 3845              		.file 14 "../../libs/libDaisy/src/per/sai.h"
   1:../../libs/libDaisy/src/per/sai.h **** #pragma once
   2:../../libs/libDaisy/src/per/sai.h **** #ifndef DSY_SAI_H
   3:../../libs/libDaisy/src/per/sai.h **** #define DSY_SAI_H
   4:../../libs/libDaisy/src/per/sai.h **** 
   5:../../libs/libDaisy/src/per/sai.h **** #include "util/hal_map.h"
   6:../../libs/libDaisy/src/per/sai.h **** #include "daisy_core.h"
   7:../../libs/libDaisy/src/per/sai.h **** 
   8:../../libs/libDaisy/src/per/sai.h **** namespace daisy
   9:../../libs/libDaisy/src/per/sai.h **** {
  10:../../libs/libDaisy/src/per/sai.h **** /** 
  11:../../libs/libDaisy/src/per/sai.h ****  * Support for I2S Audio Protocol with different bit-depth, samplerate options
  12:../../libs/libDaisy/src/per/sai.h ****  * Allows for master or slave, as well as freedom of selecting direction, 
  13:../../libs/libDaisy/src/per/sai.h ****  * and other behavior for each peripheral, and block.
  14:../../libs/libDaisy/src/per/sai.h ****  * 
  15:../../libs/libDaisy/src/per/sai.h ****  * DMA Transfer commands must use buffers located within non-cached memory or use cache maintenance
  16:../../libs/libDaisy/src/per/sai.h ****  * To declare an unitialized global element in the DMA memory section:
  17:../../libs/libDaisy/src/per/sai.h ****  *    int32_t DSY_DMA_BUFFER_SECTOR my_buffer[96];
  18:../../libs/libDaisy/src/per/sai.h ****  *
  19:../../libs/libDaisy/src/per/sai.h ****  * Callback functions will be called once per half of the buffer. In the above example, 
  20:../../libs/libDaisy/src/per/sai.h ****  * the callback function would be called once for every 48 samples.
  21:../../libs/libDaisy/src/per/sai.h ****  * 
  22:../../libs/libDaisy/src/per/sai.h ****  * Use SAI Handle like this:
  23:../../libs/libDaisy/src/per/sai.h ****  * 
  24:../../libs/libDaisy/src/per/sai.h ****  *  SaiHandle::Config sai_config;
  25:../../libs/libDaisy/src/per/sai.h ****  *  sai_config.periph          = SaiHandle::Config::Peripheral::SAI_1;
  26:../../libs/libDaisy/src/per/sai.h ****  *  sai_config.sr              = SaiHandle::Config::SampleRate::SAI_48KHZ;
  27:../../libs/libDaisy/src/per/sai.h ****  *  sai_config.bit_depth       = SaiHandle::Config::BitDepth::SAI_24BIT;
  28:../../libs/libDaisy/src/per/sai.h ****  *  sai_config.a_sync          = SaiHandle::Config::Sync::MASTER;
  29:../../libs/libDaisy/src/per/sai.h ****  *  sai_config.b_sync          = SaiHandle::Config::Sync::SLAVE;
  30:../../libs/libDaisy/src/per/sai.h ****  *  sai_config.a_dir           = SaiHandle::Config::Direction::RECEIVE;
  31:../../libs/libDaisy/src/per/sai.h ****  *  sai_config.b_dir           = SaiHandle::Config::Direction::TRANSMIT;
  32:../../libs/libDaisy/src/per/sai.h ****  *  sai_config.pin_config.fs   = {DSY_GPIOE, 4};
  33:../../libs/libDaisy/src/per/sai.h ****  *  sai_config.pin_config.mclk = {DSY_GPIOE, 2};
  34:../../libs/libDaisy/src/per/sai.h ****  *  sai_config.pin_config.sck  = {DSY_GPIOE, 5};
  35:../../libs/libDaisy/src/per/sai.h ****  *  sai_config.pin_config.sa   = {DSY_GPIOE, 6};
  36:../../libs/libDaisy/src/per/sai.h ****  *  sai_config.pin_config.sb   = {DSY_GPIOE, 3};
  37:../../libs/libDaisy/src/per/sai.h ****  *  // Then Initialize
  38:../../libs/libDaisy/src/per/sai.h ****  *  SaiHandle sai;
  39:../../libs/libDaisy/src/per/sai.h ****  *  sai.Init(sai_config);
  40:../../libs/libDaisy/src/per/sai.h ****  *  // Now you can use it:
  41:../../libs/libDaisy/src/per/sai.h ****  *  sai.StartDma(. . .);
  42:../../libs/libDaisy/src/per/sai.h ****  */
  43:../../libs/libDaisy/src/per/sai.h **** class SaiHandle
  44:../../libs/libDaisy/src/per/sai.h **** {
  45:../../libs/libDaisy/src/per/sai.h ****   public:
  46:../../libs/libDaisy/src/per/sai.h ****     /** Contains settings for initialising an SAI Interface */
  47:../../libs/libDaisy/src/per/sai.h ****     struct Config
  48:../../libs/libDaisy/src/per/sai.h ****     {
  49:../../libs/libDaisy/src/per/sai.h ****         /** Specifies the internal peripheral to use (mapped to different hardware pins) */
  50:../../libs/libDaisy/src/per/sai.h ****         enum class Peripheral
ARM GAS  C:\Users\skipi\AppData\Local\Temp\ccYcyPVo.s 			page 108


  51:../../libs/libDaisy/src/per/sai.h ****         {
  52:../../libs/libDaisy/src/per/sai.h ****             SAI_1,
  53:../../libs/libDaisy/src/per/sai.h ****             SAI_2,
  54:../../libs/libDaisy/src/per/sai.h ****         };
  55:../../libs/libDaisy/src/per/sai.h **** 
  56:../../libs/libDaisy/src/per/sai.h ****         /** Rate at which samples will be streaming to/from the device. */
  57:../../libs/libDaisy/src/per/sai.h ****         enum class SampleRate
  58:../../libs/libDaisy/src/per/sai.h ****         {
  59:../../libs/libDaisy/src/per/sai.h ****             SAI_8KHZ,
  60:../../libs/libDaisy/src/per/sai.h ****             SAI_16KHZ,
  61:../../libs/libDaisy/src/per/sai.h ****             SAI_32KHZ,
  62:../../libs/libDaisy/src/per/sai.h ****             SAI_48KHZ,
  63:../../libs/libDaisy/src/per/sai.h ****             SAI_96KHZ,
  64:../../libs/libDaisy/src/per/sai.h ****         };
  65:../../libs/libDaisy/src/per/sai.h **** 
  66:../../libs/libDaisy/src/per/sai.h ****         /** Bit Depth that the hardware expects to be transferred to/from the device. */
  67:../../libs/libDaisy/src/per/sai.h ****         enum class BitDepth
  68:../../libs/libDaisy/src/per/sai.h ****         {
  69:../../libs/libDaisy/src/per/sai.h ****             SAI_16BIT,
  70:../../libs/libDaisy/src/per/sai.h ****             SAI_24BIT,
  71:../../libs/libDaisy/src/per/sai.h ****             SAI_32BIT,
  72:../../libs/libDaisy/src/per/sai.h ****         };
  73:../../libs/libDaisy/src/per/sai.h **** 
  74:../../libs/libDaisy/src/per/sai.h ****         /** Specifies whether a particular block is the master or the slave 
  75:../../libs/libDaisy/src/per/sai.h ****          ** If both are set to slave, no MCLK signal will be used, and it is
  76:../../libs/libDaisy/src/per/sai.h ****          ** expected that the codec will have its own xtal.
  77:../../libs/libDaisy/src/per/sai.h ****          */
  78:../../libs/libDaisy/src/per/sai.h ****         enum class Sync
  79:../../libs/libDaisy/src/per/sai.h ****         {
  80:../../libs/libDaisy/src/per/sai.h ****             MASTER,
  81:../../libs/libDaisy/src/per/sai.h ****             SLAVE,
  82:../../libs/libDaisy/src/per/sai.h ****         };
  83:../../libs/libDaisy/src/per/sai.h **** 
  84:../../libs/libDaisy/src/per/sai.h ****         /** Specifies the direction for each peripheral block. */
  85:../../libs/libDaisy/src/per/sai.h ****         enum class Direction
  86:../../libs/libDaisy/src/per/sai.h ****         {
  87:../../libs/libDaisy/src/per/sai.h ****             TRANSMIT,
  88:../../libs/libDaisy/src/per/sai.h ****             RECEIVE,
  89:../../libs/libDaisy/src/per/sai.h ****         };
  90:../../libs/libDaisy/src/per/sai.h **** 
  91:../../libs/libDaisy/src/per/sai.h ****         Peripheral periph;
  92:../../libs/libDaisy/src/per/sai.h ****         struct
  93:../../libs/libDaisy/src/per/sai.h ****         {
  94:../../libs/libDaisy/src/per/sai.h ****             Pin mclk, fs, sck, sa, sb;
  95:../../libs/libDaisy/src/per/sai.h ****         } pin_config;
  96:../../libs/libDaisy/src/per/sai.h ****         SampleRate sr;
  97:../../libs/libDaisy/src/per/sai.h ****         BitDepth   bit_depth;
  98:../../libs/libDaisy/src/per/sai.h ****         Sync       a_sync, b_sync;
  99:../../libs/libDaisy/src/per/sai.h ****         Direction  a_dir, b_dir;
 100:../../libs/libDaisy/src/per/sai.h ****     };
 101:../../libs/libDaisy/src/per/sai.h **** 
 102:../../libs/libDaisy/src/per/sai.h ****     /** Return values for SAI functions */
 103:../../libs/libDaisy/src/per/sai.h ****     enum class Result
 104:../../libs/libDaisy/src/per/sai.h ****     {
 105:../../libs/libDaisy/src/per/sai.h ****         OK,
 106:../../libs/libDaisy/src/per/sai.h ****         ERR,
 107:../../libs/libDaisy/src/per/sai.h ****     };
ARM GAS  C:\Users\skipi\AppData\Local\Temp\ccYcyPVo.s 			page 109


 108:../../libs/libDaisy/src/per/sai.h **** 
 109:../../libs/libDaisy/src/per/sai.h ****     SaiHandle() : pimpl_(nullptr) {}
 3846              		.loc 14 109 5 is_stmt 1 view .LVU800
 3847              	.LBE1648:
 3848              	.LBB1651:
 3849              	.LBB1582:
 3850              	.LBB1583:
 3851              		.loc 11 167 34 is_stmt 0 view .LVU801
 3852 003a 1748     		ldr	r0, .L33+16
 3853              	.LBE1583:
 3854              	.LBE1582:
 3855              	.LBE1651:
  21:../../libs/libDaisy/src/daisy_seed.h ****     ~DaisySeed() {}
 3856              		.loc 1 21 17 view .LVU802
 3857 003c 4FF60B73 		movw	r3, #65291
 3858 0040 6FF0F411 		mvn	r1, #15991028
 3859              	.LBB1652:
 3860              	.LBB1585:
 3861              	.LBB1584:
 3862              		.loc 11 167 34 view .LVU803
 3863 0044 0460     		str	r4, [r0]
 3864              	.LBE1584:
 3865              	.LBE1585:
 3866              	.LBE1652:
 3867              	.LBB1653:
 3868              	.LBB1595:
 3869              	.LBB1596:
  87:../../libs/libDaisy/src/hid/audio.h ****     ~AudioHandle() {}
 3870              		.loc 6 87 35 view .LVU804
 3871 0046 4461     		str	r4, [r0, #20]
 3872              	.LBE1596:
 3873              	.LBE1595:
 3874              	.LBE1653:
 3875              	.LBB1654:
 3876              	.LBB1599:
 3877              	.LBB1600:
 3878              		.loc 12 84 33 view .LVU805
 3879 0048 0462     		str	r4, [r0, #32]
 3880              	.LBE1600:
 3881              	.LBE1599:
 3882              	.LBE1654:
 3883              	.LBB1655:
 3884              	.LBB1646:
 3885              	.LBB1644:
 3886              	.LBB1642:
 3887              	.LBB1640:
 3888              	.LBB1638:
  69:../../libs/libDaisy/src/per/gpio.h ****         {
 3889              		.loc 13 69 73 view .LVU806
 3890 004a 4466     		str	r4, [r0, #100]
 3891              	.LBE1638:
 3892              	.LBE1640:
 3893              	.LBE1642:
 3894              	.LBE1644:
 3895              	.LBE1646:
 3896              	.LBE1655:
 3897              	.LBB1656:
ARM GAS  C:\Users\skipi\AppData\Local\Temp\ccYcyPVo.s 			page 110


 3898              	.LBB1649:
 3899              	.LBB1650:
 3900              		.loc 14 109 33 view .LVU807
 3901 004c 0467     		str	r4, [r0, #112]
 3902              	.LVL177:
 3903              		.loc 14 109 33 view .LVU808
 3904              	.LBE1650:
 3905              	.LBE1649:
 3906              	.LBE1656:
 3907              	.LBE1580:
 3908              	.LBE1579:
  17:main0.cpp     **** 
 3909              		.loc 8 17 11 view .LVU809
 3910 004e 104A     		ldr	r2, .L33+8
 3911              	.LBB1664:
 3912              	.LBB1662:
  21:../../libs/libDaisy/src/daisy_seed.h ****     ~DaisySeed() {}
 3913              		.loc 1 21 17 view .LVU810
 3914 0050 C160     		str	r1, [r0, #12]
 3915 0052 8365     		str	r3, [r0, #88]
 3916              	.LBB1657:
 3917              	.LBB1614:
 3918              	.LBB1612:
 3919              	.LBB1610:
 3920              	.LBB1608:
  69:../../libs/libDaisy/src/per/gpio.h ****         {
 3921              		.loc 13 69 73 view .LVU811
 3922 0054 C0E90A34 		strd	r3, r4, [r0, #40]
 3923              	.LBE1608:
 3924              	.LBE1610:
 3925              	.LBE1612:
 3926              	.LBE1614:
 3927              	.LBE1657:
 3928              	.LBB1658:
 3929              	.LBB1628:
 3930              	.LBB1626:
 3931              	.LBB1624:
 3932              	.LBB1622:
 3933 0058 C0E90F34 		strd	r3, r4, [r0, #60]
 3934              	.LBE1622:
 3935              	.LBE1624:
 3936              	.LBE1626:
 3937              	.LBE1628:
 3938              	.LBE1658:
 3939              	.LBB1659:
 3940              	.LBB1615:
 3941              	.LBB1613:
 3942              	.LBB1611:
 3943              	.LBB1609:
 3944 005c C0E90C44 		strd	r4, r4, [r0, #48]
 3945              	.LBE1609:
 3946              	.LBE1611:
 3947              	.LBE1613:
 3948              	.LBE1615:
 3949              	.LBE1659:
 3950              	.LBB1660:
 3951              	.LBB1629:
ARM GAS  C:\Users\skipi\AppData\Local\Temp\ccYcyPVo.s 			page 111


 3952              	.LBB1627:
 3953              	.LBB1625:
 3954              	.LBB1623:
 3955 0060 C0E91144 		strd	r4, r4, [r0, #68]
 3956              	.LBE1623:
 3957              	.LBE1625:
 3958              	.LBE1627:
 3959              	.LBE1629:
 3960              	.LBE1660:
 3961              	.LBB1661:
 3962              	.LBB1647:
 3963              	.LBB1645:
 3964              	.LBB1643:
 3965              	.LBB1641:
 3966              	.LBB1639:
 3967 0064 C0E91744 		strd	r4, r4, [r0, #92]
 3968              	.LBE1639:
 3969              	.LBE1641:
 3970              	.LBE1643:
 3971              	.LBE1645:
 3972              	.LBE1647:
 3973              	.LBE1661:
 3974              	.LBE1662:
 3975              	.LBE1664:
  19:main0.cpp     **** 
 3976              		.loc 8 19 8 view .LVU812
 3977 0068 0C4C     		ldr	r4, .L33+20
 3978              	.LBB1665:
 3979              	.LBB1663:
  21:../../libs/libDaisy/src/daisy_seed.h ****     ~DaisySeed() {}
 3980              		.loc 1 21 17 view .LVU813
 3981 006a C0E90111 		strd	r1, r1, [r0, #4]
 3982              	.LBE1663:
 3983              	.LBE1665:
  17:main0.cpp     **** 
 3984              		.loc 8 17 11 view .LVU814
 3985 006e 0C49     		ldr	r1, .L33+24
 3986 0070 FFF7FEFF 		bl	__aeabi_atexit
 3987              	.LVL178:
  19:main0.cpp     **** 
 3988              		.loc 8 19 8 view .LVU815
 3989 0074 2046     		mov	r0, r4
 3990 0076 FFF7FEFF 		bl	_ZN6CapFirC1Ev
 3991              	.LVL179:
 3992 007a 2046     		mov	r0, r4
 3993 007c 044A     		ldr	r2, .L33+8
 3994 007e 0949     		ldr	r1, .L33+28
 3995              	.LBE1666:
 3996              	.LBE1668:
 3997              		.loc 8 100 1 view .LVU816
 3998 0080 BDE81040 		pop	{r4, lr}
 3999              		.cfi_restore 14
 4000              		.cfi_restore 4
 4001              		.cfi_def_cfa_offset 0
 4002              	.LBB1669:
 4003              	.LBB1667:
  19:main0.cpp     **** 
ARM GAS  C:\Users\skipi\AppData\Local\Temp\ccYcyPVo.s 			page 112


 4004              		.loc 8 19 8 view .LVU817
 4005 0084 FFF7FEBF 		b	__aeabi_atexit
 4006              	.LVL180:
 4007              	.L34:
 4008              		.align	2
 4009              	.L33:
 4010 0088 00000000 		.word	.LANCHOR2
 4011 008c 00000000 		.word	.LANCHOR1
 4012 0090 00000000 		.word	__dso_handle
 4013 0094 00000000 		.word	_ZN5daisy6Mpr121INS_18Mpr121I2CTransportEED1Ev
 4014 0098 00000000 		.word	.LANCHOR0
 4015 009c 00000000 		.word	.LANCHOR3
 4016 00a0 00000000 		.word	_ZN5daisy9DaisySeedD1Ev
 4017 00a4 00000000 		.word	_ZN6CapFirD1Ev
 4018              	.LBE1667:
 4019              	.LBE1669:
 4020              		.cfi_endproc
 4021              	.LFE5426:
 4023              		.section	.init_array,"aw",%init_array
 4024              		.align	2
 4025 0000 00000000 		.word	_GLOBAL__sub_I_mpr121ObjConf(target1)
 4026              		.global	touched
 4027              		.global	currtouched
 4028              		.global	lasttouched
 4029              		.global	filter
 4030              		.global	hw
 4031              		.global	cap
 4032              		.global	mpr121ObjConf
 4033              		.section	.bss.cap,"aw",%nobits
 4034              		.align	2
 4035              		.set	.LANCHOR2,. + 0
 4038              	cap:
 4039 0000 00000000 		.space	52
 4039      00000000 
 4039      00000000 
 4039      00000000 
 4039      00000000 
 4040              		.section	.bss.currtouched,"aw",%nobits
 4041              		.align	1
 4042              		.set	.LANCHOR4,. + 0
 4045              	currtouched:
 4046 0000 0000     		.space	2
 4047              		.section	.bss.filter,"aw",%nobits
 4048              		.align	2
 4049              		.set	.LANCHOR3,. + 0
 4052              	filter:
 4053 0000 00000000 		.space	900
 4053      00000000 
 4053      00000000 
 4053      00000000 
 4053      00000000 
 4054              		.section	.bss.hw,"aw",%nobits
 4055              		.align	2
 4056              		.set	.LANCHOR0,. + 0
 4059              	hw:
 4060 0000 00000000 		.space	116
 4060      00000000 
ARM GAS  C:\Users\skipi\AppData\Local\Temp\ccYcyPVo.s 			page 113


 4060      00000000 
 4060      00000000 
 4060      00000000 
 4061              		.section	.bss.lasttouched,"aw",%nobits
 4062              		.align	1
 4063              		.set	.LANCHOR5,. + 0
 4066              	lasttouched:
 4067 0000 0000     		.space	2
 4068              		.section	.bss.mpr121ObjConf,"aw",%nobits
 4069              		.align	2
 4070              		.set	.LANCHOR1,. + 0
 4073              	mpr121ObjConf:
 4074 0000 00000000 		.space	24
 4074      00000000 
 4074      00000000 
 4074      00000000 
 4074      00000000 
 4075              		.section	.bss.touched,"aw",%nobits
 4076              		.set	.LANCHOR6,. + 0
 4079              	touched:
 4080 0000 00       		.space	1
 4081              		.text
 4082              	.Letext0:
 4083              		.file 15 "c:\\program files\\daisytoolchain\\arm-none-eabi\\include\\machine\\_default_types.h"
 4084              		.file 16 "c:\\program files\\daisytoolchain\\arm-none-eabi\\include\\sys\\_stdint.h"
 4085              		.file 17 "c:\\program files\\daisytoolchain\\arm-none-eabi\\include\\stdint.h"
 4086              		.file 18 "c:\\program files\\daisytoolchain\\lib\\gcc\\arm-none-eabi\\10.2.1\\include\\stddef.h"
 4087              		.file 19 "c:\\program files\\daisytoolchain\\arm-none-eabi\\include\\c++\\10.2.1\\cmath"
 4088              		.file 20 "c:\\program files\\daisytoolchain\\arm-none-eabi\\include\\c++\\10.2.1\\bits\\std_abs.h"
 4089              		.file 21 "c:\\program files\\daisytoolchain\\arm-none-eabi\\include\\c++\\10.2.1\\cstdlib"
 4090              		.file 22 "c:\\program files\\daisytoolchain\\arm-none-eabi\\include\\c++\\10.2.1\\cstdint"
 4091              		.file 23 "c:\\program files\\daisytoolchain\\arm-none-eabi\\include\\c++\\10.2.1\\type_traits"
 4092              		.file 24 "c:\\program files\\daisytoolchain\\arm-none-eabi\\include\\c++\\10.2.1\\debug\\debug.h"
 4093              		.file 25 "c:\\program files\\daisytoolchain\\arm-none-eabi\\include\\c++\\10.2.1\\arm-none-eabi\\t
 4094              		.file 26 "c:\\program files\\daisytoolchain\\arm-none-eabi\\include\\c++\\10.2.1\\bits\\algorithmf
 4095              		.file 27 "c:\\program files\\daisytoolchain\\arm-none-eabi\\include\\c++\\10.2.1\\bits\\stl_pair.h
 4096              		.file 28 "c:\\program files\\daisytoolchain\\arm-none-eabi\\include\\c++\\10.2.1\\bits\\exception_
 4097              		.file 29 "c:\\program files\\daisytoolchain\\arm-none-eabi\\include\\c++\\10.2.1\\cstdarg"
 4098              		.file 30 "c:\\program files\\daisytoolchain\\arm-none-eabi\\include\\c++\\10.2.1\\cstdio"
 4099              		.file 31 "c:\\program files\\daisytoolchain\\arm-none-eabi\\include\\c++\\10.2.1\\cstring"
 4100              		.file 32 "c:\\program files\\daisytoolchain\\arm-none-eabi\\include\\c++\\10.2.1\\cwchar"
 4101              		.file 33 "c:\\program files\\daisytoolchain\\arm-none-eabi\\include\\c++\\10.2.1\\clocale"
 4102              		.file 34 "c:\\program files\\daisytoolchain\\arm-none-eabi\\include\\c++\\10.2.1\\bits\\basic_stri
 4103              		.file 35 "c:\\program files\\daisytoolchain\\arm-none-eabi\\include\\c++\\10.2.1\\bits\\stl_tempbu
 4104              		.file 36 "c:\\program files\\daisytoolchain\\arm-none-eabi\\include\\c++\\10.2.1\\bits\\predefined
 4105              		.file 37 "c:\\program files\\daisytoolchain\\arm-none-eabi\\include\\sys\\_types.h"
 4106              		.file 38 "c:\\program files\\daisytoolchain\\arm-none-eabi\\include\\sys\\reent.h"
 4107              		.file 39 "c:\\program files\\daisytoolchain\\arm-none-eabi\\include\\sys\\lock.h"
 4108              		.file 40 "c:\\program files\\daisytoolchain\\arm-none-eabi\\include\\math.h"
 4109              		.file 41 "c:\\program files\\daisytoolchain\\arm-none-eabi\\include\\stdlib.h"
 4110              		.file 42 "c:\\program files\\daisytoolchain\\arm-none-eabi\\include\\c++\\10.2.1\\math.h"
 4111              		.file 43 "c:\\program files\\daisytoolchain\\arm-none-eabi\\include\\c++\\10.2.1\\stdlib.h"
 4112              		.file 44 "../../libs/libDaisy/src/per/tim.h"
 4113              		.file 45 "../../libs/libDaisy/src/hid/logger_impl.h"
 4114              		.file 46 "../../libs/libDaisy/src/util/wav_format.h"
 4115              		.file 47 "../../libs/libDaisy/src/dev/sr_595.h"
 4116              		.file 48 "../../libs/libDaisy/src/dev/max11300.h"
ARM GAS  C:\Users\skipi\AppData\Local\Temp\ccYcyPVo.s 			page 114


 4117              		.file 49 "../../libs/libDaisy/src/hid/logger.h"
 4118              		.file 50 "../../libs/libDaisy/src/dev/sdram.h"
 4119              		.file 51 "c:\\program files\\daisytoolchain\\lib\\gcc\\arm-none-eabi\\10.2.1\\include\\stdarg.h"
 4120              		.file 52 "c:\\program files\\daisytoolchain\\arm-none-eabi\\include\\stdio.h"
 4121              		.file 53 "c:\\program files\\daisytoolchain\\arm-none-eabi\\include\\string.h"
 4122              		.file 54 "../../libs/DaisySP/Source/Control/adenv.h"
 4123              		.file 55 "../../libs/DaisySP/Source/Utility/dsp.h"
 4124              		.file 56 "c:\\program files\\daisytoolchain\\arm-none-eabi\\include\\wchar.h"
 4125              		.file 57 "c:\\program files\\daisytoolchain\\arm-none-eabi\\include\\locale.h"
 4126              		.file 58 "../../Classes/FIIR/CapFir.h"
 4127              		.file 59 "<built-in>"
ARM GAS  C:\Users\skipi\AppData\Local\Temp\ccYcyPVo.s 			page 115


DEFINED SYMBOLS
                            *ABS*:00000000 main0.cpp
C:\Users\skipi\AppData\Local\Temp\ccYcyPVo.s:17     .text._ZN5daisy9DaisySeedD2Ev:00000000 $t
C:\Users\skipi\AppData\Local\Temp\ccYcyPVo.s:26     .text._ZN5daisy9DaisySeedD2Ev:00000000 _ZN5daisy9DaisySeedD2Ev
C:\Users\skipi\AppData\Local\Temp\ccYcyPVo.s:26     .text._ZN5daisy9DaisySeedD2Ev:00000000 _ZN5daisy9DaisySeedD1Ev
C:\Users\skipi\AppData\Local\Temp\ccYcyPVo.s:73     .text._ZN5daisy6Mpr121INS_18Mpr121I2CTransportEED2Ev:00000000 $t
C:\Users\skipi\AppData\Local\Temp\ccYcyPVo.s:81     .text._ZN5daisy6Mpr121INS_18Mpr121I2CTransportEED2Ev:00000000 _ZN5daisy6Mpr121INS_18Mpr121I2CTransportEED2Ev
C:\Users\skipi\AppData\Local\Temp\ccYcyPVo.s:81     .text._ZN5daisy6Mpr121INS_18Mpr121I2CTransportEED2Ev:00000000 _ZN5daisy6Mpr121INS_18Mpr121I2CTransportEED1Ev
C:\Users\skipi\AppData\Local\Temp\ccYcyPVo.s:103    .text._ZN5daisy6Mpr121INS_18Mpr121I2CTransportEE13WriteRegisterEhh:00000000 $t
C:\Users\skipi\AppData\Local\Temp\ccYcyPVo.s:111    .text._ZN5daisy6Mpr121INS_18Mpr121I2CTransportEE13WriteRegisterEhh:00000000 _ZN5daisy6Mpr121INS_18Mpr121I2CTransportEE13WriteRegisterEhh
C:\Users\skipi\AppData\Local\Temp\ccYcyPVo.s:481    .rodata.main.str1.4:00000000 $d
C:\Users\skipi\AppData\Local\Temp\ccYcyPVo.s:528    .text.startup.main:00000000 $t
C:\Users\skipi\AppData\Local\Temp\ccYcyPVo.s:536    .text.startup.main:00000000 main
C:\Users\skipi\AppData\Local\Temp\ccYcyPVo.s:1584   .text.startup.main:00000330 $d
C:\Users\skipi\AppData\Local\Temp\ccYcyPVo.s:1597   .text.startup.main:00000344 $t
C:\Users\skipi\AppData\Local\Temp\ccYcyPVo.s:1616   .text.startup.main:00000360 $d
C:\Users\skipi\AppData\Local\Temp\ccYcyPVo.s:1623   .text.startup.main:00000374 $t
C:\Users\skipi\AppData\Local\Temp\ccYcyPVo.s:3384   .text.startup.main:000006b0 $d
C:\Users\skipi\AppData\Local\Temp\ccYcyPVo.s:3406   .text.startup._GLOBAL__sub_I_mpr121ObjConf:00000000 $t
C:\Users\skipi\AppData\Local\Temp\ccYcyPVo.s:3413   .text.startup._GLOBAL__sub_I_mpr121ObjConf:00000000 _GLOBAL__sub_I_mpr121ObjConf
C:\Users\skipi\AppData\Local\Temp\ccYcyPVo.s:4010   .text.startup._GLOBAL__sub_I_mpr121ObjConf:00000088 $d
C:\Users\skipi\AppData\Local\Temp\ccYcyPVo.s:4024   .init_array:00000000 $d
C:\Users\skipi\AppData\Local\Temp\ccYcyPVo.s:4079   .bss.touched:00000000 touched
C:\Users\skipi\AppData\Local\Temp\ccYcyPVo.s:4045   .bss.currtouched:00000000 currtouched
C:\Users\skipi\AppData\Local\Temp\ccYcyPVo.s:4066   .bss.lasttouched:00000000 lasttouched
C:\Users\skipi\AppData\Local\Temp\ccYcyPVo.s:4052   .bss.filter:00000000 filter
C:\Users\skipi\AppData\Local\Temp\ccYcyPVo.s:4059   .bss.hw:00000000 hw
C:\Users\skipi\AppData\Local\Temp\ccYcyPVo.s:4038   .bss.cap:00000000 cap
C:\Users\skipi\AppData\Local\Temp\ccYcyPVo.s:4073   .bss.mpr121ObjConf:00000000 mpr121ObjConf
C:\Users\skipi\AppData\Local\Temp\ccYcyPVo.s:4034   .bss.cap:00000000 $d
C:\Users\skipi\AppData\Local\Temp\ccYcyPVo.s:4041   .bss.currtouched:00000000 $d
C:\Users\skipi\AppData\Local\Temp\ccYcyPVo.s:4048   .bss.filter:00000000 $d
C:\Users\skipi\AppData\Local\Temp\ccYcyPVo.s:4055   .bss.hw:00000000 $d
C:\Users\skipi\AppData\Local\Temp\ccYcyPVo.s:4062   .bss.lasttouched:00000000 $d
C:\Users\skipi\AppData\Local\Temp\ccYcyPVo.s:4069   .bss.mpr121ObjConf:00000000 $d
C:\Users\skipi\AppData\Local\Temp\ccYcyPVo.s:4080   .bss.touched:00000000 $d
                           .group:00000000 _ZN5daisy9DaisySeedD5Ev
                           .group:00000000 _ZN5daisy6Mpr121INS_18Mpr121I2CTransportEED5Ev

UNDEFINED SYMBOLS
_ZN5daisy9I2CHandle16TransmitBlockingEtPhtm
_ZN5daisy9I2CHandle15ReceiveBlockingEtPhtm
_ZN5daisy9DaisySeed9ConfigureEv
_ZN5daisy9DaisySeed4InitEb
_ZN5daisy6LoggerILNS_17LoggerDestinationE1EE8StartLogEb
_ZN5daisy9I2CHandle4InitERKNS0_6ConfigE
_ZN5daisy6System5DelayEm
_ZN5daisy6LoggerILNS_17LoggerDestinationE1EE9PrintLineEPKcz
_ZN5daisy9DaisySeed6SetLedEb
_ZN5daisy9DaisySeed7DelayMsEj
_ZN6CapFir4InitENS_7ResTypeE
_ZN5daisy9I2CHandle8Mem_readEtttPhtm
_ZN6CapFir7ProcessEf
__aeabi_atexit
_ZN6CapFirC1Ev
__dso_handle
_ZN6CapFirD1Ev
ARM GAS  C:\Users\skipi\AppData\Local\Temp\ccYcyPVo.s 			page 116


