ARM GAS  C:\Users\skipi\AppData\Local\Temp\ccrSunJV.s 			page 1


   1              		.cpu cortex-m7
   2              		.eabi_attribute 28, 1
   3              		.eabi_attribute 20, 1
   4              		.eabi_attribute 21, 1
   5              		.eabi_attribute 23, 3
   6              		.eabi_attribute 24, 1
   7              		.eabi_attribute 25, 1
   8              		.eabi_attribute 26, 1
   9              		.eabi_attribute 30, 2
  10              		.eabi_attribute 34, 1
  11              		.eabi_attribute 18, 4
  12              		.file	"main0.cpp"
  13              		.text
  14              	.Ltext0:
  15              		.cfi_sections	.debug_frame
  16              		.section	.text._ZN5daisy9DaisySeedD2Ev,"axG",%progbits,_ZN5daisy9DaisySeedD5Ev,comdat
  17              		.align	1
  18              		.p2align 2,,3
  19              		.weak	_ZN5daisy9DaisySeedD2Ev
  20              		.arch armv7e-m
  21              		.syntax unified
  22              		.thumb
  23              		.thumb_func
  24              		.fpu fpv5-d16
  26              	_ZN5daisy9DaisySeedD2Ev:
  27              	.LVL0:
  28              	.LFB2671:
  29              		.file 1 "../../libs/libDaisy/src/daisy_seed.h"
   1:../../libs/libDaisy/src/daisy_seed.h **** #pragma once
   2:../../libs/libDaisy/src/daisy_seed.h **** #ifndef DSY_SEED_H
   3:../../libs/libDaisy/src/daisy_seed.h **** #define DSY_SEED_H
   4:../../libs/libDaisy/src/daisy_seed.h **** 
   5:../../libs/libDaisy/src/daisy_seed.h **** #include "daisy.h"
   6:../../libs/libDaisy/src/daisy_seed.h **** 
   7:../../libs/libDaisy/src/daisy_seed.h **** //Uncomment this out if you're still using the rev2 hardware
   8:../../libs/libDaisy/src/daisy_seed.h **** //#define SEED_REV2
   9:../../libs/libDaisy/src/daisy_seed.h **** 
  10:../../libs/libDaisy/src/daisy_seed.h **** namespace daisy
  11:../../libs/libDaisy/src/daisy_seed.h **** {
  12:../../libs/libDaisy/src/daisy_seed.h **** /**
  13:../../libs/libDaisy/src/daisy_seed.h ****    @brief This is the higher-level interface for the Daisy board. \n 
  14:../../libs/libDaisy/src/daisy_seed.h ****     All basic peripheral configuration/initialization is setup here. \n
  15:../../libs/libDaisy/src/daisy_seed.h **** 
  16:../../libs/libDaisy/src/daisy_seed.h ****    @ingroup boards
  17:../../libs/libDaisy/src/daisy_seed.h **** */
  18:../../libs/libDaisy/src/daisy_seed.h **** class DaisySeed
  19:../../libs/libDaisy/src/daisy_seed.h **** {
  20:../../libs/libDaisy/src/daisy_seed.h ****   public:
  21:../../libs/libDaisy/src/daisy_seed.h ****     DaisySeed() {}
  22:../../libs/libDaisy/src/daisy_seed.h ****     ~DaisySeed() {}
  30              		.loc 1 22 5 view -0
  31              		.cfi_startproc
  32              		@ args = 0, pretend = 0, frame = 0
  33              		@ frame_needed = 0, uses_anonymous_args = 0
  34              		@ link register save eliminated.
  35              	.LBB340:
  36              	.LBI340:
ARM GAS  C:\Users\skipi\AppData\Local\Temp\ccrSunJV.s 			page 2


  37              		.file 2 "../../libs/libDaisy/src/dev/codec_ak4556.h"
   1:../../libs/libDaisy/src/dev/codec_ak4556.h **** #pragma once
   2:../../libs/libDaisy/src/dev/codec_ak4556.h **** #ifndef DSY_CODEC_AK4556_H
   3:../../libs/libDaisy/src/dev/codec_ak4556.h **** #define DSY_CODEC_AK4556_H
   4:../../libs/libDaisy/src/dev/codec_ak4556.h **** 
   5:../../libs/libDaisy/src/dev/codec_ak4556.h **** #include "daisy_core.h"
   6:../../libs/libDaisy/src/dev/codec_ak4556.h **** #include "per/gpio.h"
   7:../../libs/libDaisy/src/dev/codec_ak4556.h **** 
   8:../../libs/libDaisy/src/dev/codec_ak4556.h **** namespace daisy
   9:../../libs/libDaisy/src/dev/codec_ak4556.h **** {
  10:../../libs/libDaisy/src/dev/codec_ak4556.h **** /** @brief Ak4556 Codec support 
  11:../../libs/libDaisy/src/dev/codec_ak4556.h ****  ** @author shensley
  12:../../libs/libDaisy/src/dev/codec_ak4556.h ****  ** @addtogroup codec
  13:../../libs/libDaisy/src/dev/codec_ak4556.h ****  ** 
  14:../../libs/libDaisy/src/dev/codec_ak4556.h ****  ** I don't see any real reason to have this be more than a function, but in case we want
  15:../../libs/libDaisy/src/dev/codec_ak4556.h ****  ** to add other functions down the road I wrapped the function in a class.
  16:../../libs/libDaisy/src/dev/codec_ak4556.h ****  ***/
  17:../../libs/libDaisy/src/dev/codec_ak4556.h **** class Ak4556
  18:../../libs/libDaisy/src/dev/codec_ak4556.h **** {
  19:../../libs/libDaisy/src/dev/codec_ak4556.h ****   public:
  20:../../libs/libDaisy/src/dev/codec_ak4556.h ****     Ak4556() {}
  21:../../libs/libDaisy/src/dev/codec_ak4556.h ****     ~Ak4556() {}
  38              		.loc 2 21 5 view .LVU1
  39              		.loc 2 21 5 is_stmt 0 view .LVU2
  40              	.LBE340:
  41              	.LBB341:
  42              	.LBI341:
  43              		.file 3 "../../libs/libDaisy/src/sys/system.h"
   1:../../libs/libDaisy/src/sys/system.h **** #ifndef DSY_SYSTEM_H
   2:../../libs/libDaisy/src/sys/system.h **** #define DSY_SYSTEM_H
   3:../../libs/libDaisy/src/sys/system.h **** 
   4:../../libs/libDaisy/src/sys/system.h **** #ifndef UNIT_TEST // for unit tests, a dummy implementation is provided below
   5:../../libs/libDaisy/src/sys/system.h **** 
   6:../../libs/libDaisy/src/sys/system.h **** #include <cstdint>
   7:../../libs/libDaisy/src/sys/system.h **** #include "per/tim.h"
   8:../../libs/libDaisy/src/sys/system.h **** 
   9:../../libs/libDaisy/src/sys/system.h **** namespace daisy
  10:../../libs/libDaisy/src/sys/system.h **** {
  11:../../libs/libDaisy/src/sys/system.h **** /** A handle for interacting with the Core System.
  12:../../libs/libDaisy/src/sys/system.h ****  ** This includes the Clock tree, MPU, global DMA initialization,
  13:../../libs/libDaisy/src/sys/system.h ****  ** cache handling, and any other necessary global initiailzation
  14:../../libs/libDaisy/src/sys/system.h ****  **
  15:../../libs/libDaisy/src/sys/system.h ****  ** @author shensley
  16:../../libs/libDaisy/src/sys/system.h ****  ** @ingroup system
  17:../../libs/libDaisy/src/sys/system.h ****  */
  18:../../libs/libDaisy/src/sys/system.h **** class System
  19:../../libs/libDaisy/src/sys/system.h **** {
  20:../../libs/libDaisy/src/sys/system.h ****   public:
  21:../../libs/libDaisy/src/sys/system.h ****     /** Contains settings for initializing the System */
  22:../../libs/libDaisy/src/sys/system.h ****     struct Config
  23:../../libs/libDaisy/src/sys/system.h ****     {
  24:../../libs/libDaisy/src/sys/system.h ****         /** Specifies the system clock frequency that feeds APB/AHB clocks, etc. */
  25:../../libs/libDaisy/src/sys/system.h ****         enum class SysClkFreq
  26:../../libs/libDaisy/src/sys/system.h ****         {
  27:../../libs/libDaisy/src/sys/system.h ****             FREQ_400MHZ,
  28:../../libs/libDaisy/src/sys/system.h ****             FREQ_480MHZ,
  29:../../libs/libDaisy/src/sys/system.h ****         };
ARM GAS  C:\Users\skipi\AppData\Local\Temp\ccrSunJV.s 			page 3


  30:../../libs/libDaisy/src/sys/system.h **** 
  31:../../libs/libDaisy/src/sys/system.h ****         /** Method to call on the struct to set to defaults
  32:../../libs/libDaisy/src/sys/system.h ****          ** CPU Freq set to 400MHz
  33:../../libs/libDaisy/src/sys/system.h ****          ** Cache Enabled
  34:../../libs/libDaisy/src/sys/system.h ****          ** */
  35:../../libs/libDaisy/src/sys/system.h ****         void Defaults()
  36:../../libs/libDaisy/src/sys/system.h ****         {
  37:../../libs/libDaisy/src/sys/system.h ****             cpu_freq    = SysClkFreq::FREQ_400MHZ;
  38:../../libs/libDaisy/src/sys/system.h ****             use_dcache  = true;
  39:../../libs/libDaisy/src/sys/system.h ****             use_icache  = true;
  40:../../libs/libDaisy/src/sys/system.h ****             skip_clocks = false;
  41:../../libs/libDaisy/src/sys/system.h ****         }
  42:../../libs/libDaisy/src/sys/system.h **** 
  43:../../libs/libDaisy/src/sys/system.h ****         /** Method to call on the struct to set to boost mode:
  44:../../libs/libDaisy/src/sys/system.h ****          ** CPU Freq set to 480MHz
  45:../../libs/libDaisy/src/sys/system.h ****          ** Cache Enabled
  46:../../libs/libDaisy/src/sys/system.h ****          ** */
  47:../../libs/libDaisy/src/sys/system.h ****         void Boost()
  48:../../libs/libDaisy/src/sys/system.h ****         {
  49:../../libs/libDaisy/src/sys/system.h ****             cpu_freq    = SysClkFreq::FREQ_480MHZ;
  50:../../libs/libDaisy/src/sys/system.h ****             use_dcache  = true;
  51:../../libs/libDaisy/src/sys/system.h ****             use_icache  = true;
  52:../../libs/libDaisy/src/sys/system.h ****             skip_clocks = false;
  53:../../libs/libDaisy/src/sys/system.h ****         }
  54:../../libs/libDaisy/src/sys/system.h **** 
  55:../../libs/libDaisy/src/sys/system.h ****         SysClkFreq cpu_freq;
  56:../../libs/libDaisy/src/sys/system.h ****         bool       use_dcache;
  57:../../libs/libDaisy/src/sys/system.h ****         bool       use_icache;
  58:../../libs/libDaisy/src/sys/system.h ****         bool       skip_clocks;
  59:../../libs/libDaisy/src/sys/system.h ****     };
  60:../../libs/libDaisy/src/sys/system.h **** 
  61:../../libs/libDaisy/src/sys/system.h ****     /** Describes the different regions of memory available to the Daisy */
  62:../../libs/libDaisy/src/sys/system.h ****     enum MemoryRegion
  63:../../libs/libDaisy/src/sys/system.h ****     {
  64:../../libs/libDaisy/src/sys/system.h ****         INTERNAL_FLASH = 0,
  65:../../libs/libDaisy/src/sys/system.h ****         ITCMRAM,
  66:../../libs/libDaisy/src/sys/system.h ****         DTCMRAM,
  67:../../libs/libDaisy/src/sys/system.h ****         SRAM_D1,
  68:../../libs/libDaisy/src/sys/system.h ****         SRAM_D2,
  69:../../libs/libDaisy/src/sys/system.h ****         SRAM_D3,
  70:../../libs/libDaisy/src/sys/system.h ****         SDRAM,
  71:../../libs/libDaisy/src/sys/system.h ****         QSPI,
  72:../../libs/libDaisy/src/sys/system.h ****         INVALID_ADDRESS,
  73:../../libs/libDaisy/src/sys/system.h ****     };
  74:../../libs/libDaisy/src/sys/system.h **** 
  75:../../libs/libDaisy/src/sys/system.h ****     /** Bootloader struct for controlling bootloading parameters */
  76:../../libs/libDaisy/src/sys/system.h ****     struct BootInfo
  77:../../libs/libDaisy/src/sys/system.h ****     {
  78:../../libs/libDaisy/src/sys/system.h ****         enum class Type : uint32_t
  79:../../libs/libDaisy/src/sys/system.h ****         {
  80:../../libs/libDaisy/src/sys/system.h ****             INVALID      = 0x00000000,
  81:../../libs/libDaisy/src/sys/system.h ****             JUMP         = 0xDEADBEEF,
  82:../../libs/libDaisy/src/sys/system.h ****             SKIP_TIMEOUT = 0x5AFEB007,
  83:../../libs/libDaisy/src/sys/system.h ****             INF_TIMEOUT  = 0xB0074EFA,
  84:../../libs/libDaisy/src/sys/system.h ****         } status;
  85:../../libs/libDaisy/src/sys/system.h ****         uint32_t data;
  86:../../libs/libDaisy/src/sys/system.h ****         enum class Version : uint32_t
ARM GAS  C:\Users\skipi\AppData\Local\Temp\ccrSunJV.s 			page 4


  87:../../libs/libDaisy/src/sys/system.h ****         {
  88:../../libs/libDaisy/src/sys/system.h ****             LT_v6_0 = 0, // Less than v6.0
  89:../../libs/libDaisy/src/sys/system.h ****             NONE,        // No bootloader present
  90:../../libs/libDaisy/src/sys/system.h ****             v6_0,        // v6.0
  91:../../libs/libDaisy/src/sys/system.h ****             v6_1,        // v6.1 or greater
  92:../../libs/libDaisy/src/sys/system.h ****             LAST
  93:../../libs/libDaisy/src/sys/system.h ****         } version;
  94:../../libs/libDaisy/src/sys/system.h ****     };
  95:../../libs/libDaisy/src/sys/system.h **** 
  96:../../libs/libDaisy/src/sys/system.h ****     System() {}
  97:../../libs/libDaisy/src/sys/system.h ****     ~System() {}
  44              		.loc 3 97 5 is_stmt 1 view .LVU3
  45              		.loc 3 97 5 is_stmt 0 view .LVU4
  46              	.LBE341:
  47              	.LBB342:
  48              	.LBI342:
  49              		.file 4 "../../libs/libDaisy/src/hid/usb.h"
   1:../../libs/libDaisy/src/hid/usb.h **** #pragma once
   2:../../libs/libDaisy/src/hid/usb.h **** #ifndef DSY_HID_USB_H
   3:../../libs/libDaisy/src/hid/usb.h **** #define DSY_HID_USB_H
   4:../../libs/libDaisy/src/hid/usb.h **** #include <stdint.h>
   5:../../libs/libDaisy/src/hid/usb.h **** #include <stdlib.h>
   6:../../libs/libDaisy/src/hid/usb.h **** 
   7:../../libs/libDaisy/src/hid/usb.h **** namespace daisy
   8:../../libs/libDaisy/src/hid/usb.h **** /** @addtogroup human_interface
   9:../../libs/libDaisy/src/hid/usb.h ****     @{
  10:../../libs/libDaisy/src/hid/usb.h **** */
  11:../../libs/libDaisy/src/hid/usb.h **** 
  12:../../libs/libDaisy/src/hid/usb.h **** {
  13:../../libs/libDaisy/src/hid/usb.h **** /** 
  14:../../libs/libDaisy/src/hid/usb.h ****     @brief Interface for initializing and using the USB Peripherals on the daisy
  15:../../libs/libDaisy/src/hid/usb.h ****     @author Stephen Hensley
  16:../../libs/libDaisy/src/hid/usb.h ****     @date December 2019
  17:../../libs/libDaisy/src/hid/usb.h **** */
  18:../../libs/libDaisy/src/hid/usb.h **** class UsbHandle
  19:../../libs/libDaisy/src/hid/usb.h **** {
  20:../../libs/libDaisy/src/hid/usb.h ****   public:
  21:../../libs/libDaisy/src/hid/usb.h ****     /** Return values for USBHandle Functions */
  22:../../libs/libDaisy/src/hid/usb.h ****     enum class Result
  23:../../libs/libDaisy/src/hid/usb.h ****     {
  24:../../libs/libDaisy/src/hid/usb.h ****         OK,
  25:../../libs/libDaisy/src/hid/usb.h ****         ERR,
  26:../../libs/libDaisy/src/hid/usb.h ****     };
  27:../../libs/libDaisy/src/hid/usb.h **** 
  28:../../libs/libDaisy/src/hid/usb.h ****     /** Specified which of the two USB Peripherals to initialize. */
  29:../../libs/libDaisy/src/hid/usb.h ****     enum UsbPeriph
  30:../../libs/libDaisy/src/hid/usb.h ****     {
  31:../../libs/libDaisy/src/hid/usb.h ****         FS_INTERNAL, /**< Internal pin */
  32:../../libs/libDaisy/src/hid/usb.h ****         FS_EXTERNAL, /**< FS External D+ pin is Pin 38 (GPIO32). FS External D- pin is Pin 37 (GPIO
  33:../../libs/libDaisy/src/hid/usb.h ****         FS_BOTH,     /**< Both */
  34:../../libs/libDaisy/src/hid/usb.h ****     };
  35:../../libs/libDaisy/src/hid/usb.h **** 
  36:../../libs/libDaisy/src/hid/usb.h **** 
  37:../../libs/libDaisy/src/hid/usb.h ****     /** Function called upon reception of a buffer */
  38:../../libs/libDaisy/src/hid/usb.h ****     typedef void (*ReceiveCallback)(uint8_t* buff, uint32_t* len);
  39:../../libs/libDaisy/src/hid/usb.h **** 
  40:../../libs/libDaisy/src/hid/usb.h ****     UsbHandle() {}
ARM GAS  C:\Users\skipi\AppData\Local\Temp\ccrSunJV.s 			page 5


  41:../../libs/libDaisy/src/hid/usb.h **** 
  42:../../libs/libDaisy/src/hid/usb.h ****     ~UsbHandle() {}
  50              		.loc 4 42 5 is_stmt 1 view .LVU5
  51              		.loc 4 42 5 is_stmt 0 view .LVU6
  52              	.LBE342:
  53              	.LBB343:
  54              	.LBI343:
  55              		.file 5 "../../libs/libDaisy/src/per/adc.h"
   1:../../libs/libDaisy/src/per/adc.h **** #pragma once
   2:../../libs/libDaisy/src/per/adc.h **** #ifndef DSY_ADC_H
   3:../../libs/libDaisy/src/per/adc.h **** #define DSY_ADC_H /**< Macro */
   4:../../libs/libDaisy/src/per/adc.h **** #include <stdint.h>
   5:../../libs/libDaisy/src/per/adc.h **** #include <stdlib.h>
   6:../../libs/libDaisy/src/per/adc.h **** #include "daisy_core.h"
   7:../../libs/libDaisy/src/per/adc.h **** #include "per/gpio.h"
   8:../../libs/libDaisy/src/per/adc.h **** 
   9:../../libs/libDaisy/src/per/adc.h **** #define DSY_ADC_MAX_CHANNELS 16 /**< Maximum number of ADC channels */
  10:../../libs/libDaisy/src/per/adc.h **** 
  11:../../libs/libDaisy/src/per/adc.h **** namespace daisy
  12:../../libs/libDaisy/src/per/adc.h **** {
  13:../../libs/libDaisy/src/per/adc.h **** /** @addtogroup per_analog
  14:../../libs/libDaisy/src/per/adc.h ****     @{
  15:../../libs/libDaisy/src/per/adc.h **** */
  16:../../libs/libDaisy/src/per/adc.h **** 
  17:../../libs/libDaisy/src/per/adc.h **** /* While there may not be many configuration options here,
  18:../../libs/libDaisy/src/per/adc.h **** using a struct like this allows us to add more configuration
  19:../../libs/libDaisy/src/per/adc.h **** later without breaking existing functionality.
  20:../../libs/libDaisy/src/per/adc.h **** */
  21:../../libs/libDaisy/src/per/adc.h **** 
  22:../../libs/libDaisy/src/per/adc.h **** /** @brief   Configuration Structure for an ADC Channel 
  23:../../libs/libDaisy/src/per/adc.h ****  *  @details This can be used to configure a a single input, 
  24:../../libs/libDaisy/src/per/adc.h ****  *           or a multiplexed input, allowing up to 8 inputs on 
  25:../../libs/libDaisy/src/per/adc.h ****  *           one channel.
  26:../../libs/libDaisy/src/per/adc.h ****  *  @note    Sharing data lines to multiple muxes _is_ possible, but
  27:../../libs/libDaisy/src/per/adc.h ****  *           each channel sharing data lines must be set to the maximum
  28:../../libs/libDaisy/src/per/adc.h ****  *           number of channels, even if some multiplexers have fewer
  29:../../libs/libDaisy/src/per/adc.h ****  *           inputs connected.
  30:../../libs/libDaisy/src/per/adc.h **** */
  31:../../libs/libDaisy/src/per/adc.h **** struct AdcChannelConfig
  32:../../libs/libDaisy/src/per/adc.h **** {
  33:../../libs/libDaisy/src/per/adc.h ****     /** Which pin to use for multiplexing */
  34:../../libs/libDaisy/src/per/adc.h ****     enum MuxPin
  35:../../libs/libDaisy/src/per/adc.h ****     {
  36:../../libs/libDaisy/src/per/adc.h ****         MUX_SEL_0,    /**< & */
  37:../../libs/libDaisy/src/per/adc.h ****         MUX_SEL_1,    /**< & */
  38:../../libs/libDaisy/src/per/adc.h ****         MUX_SEL_2,    /**< & */
  39:../../libs/libDaisy/src/per/adc.h ****         MUX_SEL_LAST, /**< & */
  40:../../libs/libDaisy/src/per/adc.h ****     };
  41:../../libs/libDaisy/src/per/adc.h **** 
  42:../../libs/libDaisy/src/per/adc.h ****     /** \brief per channel conversion speed added to fixed time based on bitdepth, etc. */
  43:../../libs/libDaisy/src/per/adc.h ****     enum ConversionSpeed
  44:../../libs/libDaisy/src/per/adc.h ****     {
  45:../../libs/libDaisy/src/per/adc.h ****         SPEED_1CYCLES_5,
  46:../../libs/libDaisy/src/per/adc.h ****         SPEED_2CYCLES_5,
  47:../../libs/libDaisy/src/per/adc.h ****         SPEED_8CYCLES_5,
  48:../../libs/libDaisy/src/per/adc.h ****         SPEED_16CYCLES_5,
  49:../../libs/libDaisy/src/per/adc.h ****         SPEED_32CYCLES_5,
ARM GAS  C:\Users\skipi\AppData\Local\Temp\ccrSunJV.s 			page 6


  50:../../libs/libDaisy/src/per/adc.h ****         SPEED_64CYCLES_5,
  51:../../libs/libDaisy/src/per/adc.h ****         SPEED_387CYCLES_5,
  52:../../libs/libDaisy/src/per/adc.h ****         SPEED_810CYCLES_5,
  53:../../libs/libDaisy/src/per/adc.h ****     };
  54:../../libs/libDaisy/src/per/adc.h **** 
  55:../../libs/libDaisy/src/per/adc.h ****     /** Initializes a single ADC pin as an ADC. 
  56:../../libs/libDaisy/src/per/adc.h ****     \param pin Pin to init.
  57:../../libs/libDaisy/src/per/adc.h ****     \param speed conversion speed for this pin defaults to 8.5 cycles
  58:../../libs/libDaisy/src/per/adc.h ****      */
  59:../../libs/libDaisy/src/per/adc.h ****     void InitSingle(Pin pin, ConversionSpeed speed = SPEED_8CYCLES_5);
  60:../../libs/libDaisy/src/per/adc.h **** 
  61:../../libs/libDaisy/src/per/adc.h ****     /** 
  62:../../libs/libDaisy/src/per/adc.h ****     Initializes a single ADC pin as a Multiplexed ADC.
  63:../../libs/libDaisy/src/per/adc.h ****     Requires a CD405X Multiplexer connected to the pin.
  64:../../libs/libDaisy/src/per/adc.h ****     You only need to supply the mux pins that are required,
  65:../../libs/libDaisy/src/per/adc.h ****     e.g. a 4052 mux would only require mux_0 and mux_1.
  66:../../libs/libDaisy/src/per/adc.h ****     Internal Callbacks handle the pin addressing.
  67:../../libs/libDaisy/src/per/adc.h ****     \param adc_pin &
  68:../../libs/libDaisy/src/per/adc.h ****     \param mux_channels must be 1-8
  69:../../libs/libDaisy/src/per/adc.h ****     \param mux_0 First mux pin
  70:../../libs/libDaisy/src/per/adc.h ****     \param mux_1 Second mux pin
  71:../../libs/libDaisy/src/per/adc.h ****     \param mux_2 Third mux pin
  72:../../libs/libDaisy/src/per/adc.h ****     \param speed conversion speed for this pin defaults to 8.5 cycles
  73:../../libs/libDaisy/src/per/adc.h ****     */
  74:../../libs/libDaisy/src/per/adc.h ****     void InitMux(Pin             adc_pin,
  75:../../libs/libDaisy/src/per/adc.h ****                  size_t          mux_channels,
  76:../../libs/libDaisy/src/per/adc.h ****                  Pin             mux_0,
  77:../../libs/libDaisy/src/per/adc.h ****                  Pin             mux_1 = Pin(PORTX, 0),
  78:../../libs/libDaisy/src/per/adc.h ****                  Pin             mux_2 = Pin(PORTX, 0),
  79:../../libs/libDaisy/src/per/adc.h ****                  ConversionSpeed speed = SPEED_8CYCLES_5);
  80:../../libs/libDaisy/src/per/adc.h **** 
  81:../../libs/libDaisy/src/per/adc.h ****     GPIO            pin_;                   /**< & */
  82:../../libs/libDaisy/src/per/adc.h ****     GPIO            mux_pin_[MUX_SEL_LAST]; /**< & */
  83:../../libs/libDaisy/src/per/adc.h ****     uint8_t         mux_channels_;          /**< & */
  84:../../libs/libDaisy/src/per/adc.h ****     ConversionSpeed speed_;
  85:../../libs/libDaisy/src/per/adc.h **** };
  86:../../libs/libDaisy/src/per/adc.h **** 
  87:../../libs/libDaisy/src/per/adc.h **** /**
  88:../../libs/libDaisy/src/per/adc.h ****    @brief Handler for analog to digital conversion
  89:../../libs/libDaisy/src/per/adc.h **** */
  90:../../libs/libDaisy/src/per/adc.h **** class AdcHandle
  91:../../libs/libDaisy/src/per/adc.h **** {
  92:../../libs/libDaisy/src/per/adc.h ****   public:
  93:../../libs/libDaisy/src/per/adc.h ****     /** Supported oversampling amounts */
  94:../../libs/libDaisy/src/per/adc.h ****     enum OverSampling
  95:../../libs/libDaisy/src/per/adc.h ****     {
  96:../../libs/libDaisy/src/per/adc.h ****         OVS_NONE, /**< & */
  97:../../libs/libDaisy/src/per/adc.h ****         OVS_4,    /**< & */
  98:../../libs/libDaisy/src/per/adc.h ****         OVS_8,    /**< & */
  99:../../libs/libDaisy/src/per/adc.h ****         OVS_16,   /**< & */
 100:../../libs/libDaisy/src/per/adc.h ****         OVS_32,   /**< & */
 101:../../libs/libDaisy/src/per/adc.h ****         OVS_64,   /**< & */
 102:../../libs/libDaisy/src/per/adc.h ****         OVS_128,  /**< & */
 103:../../libs/libDaisy/src/per/adc.h ****         OVS_256,  /**< & */
 104:../../libs/libDaisy/src/per/adc.h ****         OVS_512,  /**< & */
 105:../../libs/libDaisy/src/per/adc.h ****         OVS_1024, /**< & */
 106:../../libs/libDaisy/src/per/adc.h ****         OVS_LAST, /**< & */
ARM GAS  C:\Users\skipi\AppData\Local\Temp\ccrSunJV.s 			page 7


 107:../../libs/libDaisy/src/per/adc.h ****     };
 108:../../libs/libDaisy/src/per/adc.h **** 
 109:../../libs/libDaisy/src/per/adc.h ****     AdcHandle() {}
 110:../../libs/libDaisy/src/per/adc.h ****     ~AdcHandle() {}
  56              		.loc 5 110 5 is_stmt 1 view .LVU7
  57              		.loc 5 110 5 is_stmt 0 view .LVU8
  58              	.LBE343:
  59              	.LBB344:
  60              	.LBI344:
  61              		.file 6 "../../libs/libDaisy/src/hid/audio.h"
   1:../../libs/libDaisy/src/hid/audio.h **** #ifndef DSY_AUDIO_H
   2:../../libs/libDaisy/src/hid/audio.h **** #define DSY_AUDIO_H /**< & */
   3:../../libs/libDaisy/src/hid/audio.h **** 
   4:../../libs/libDaisy/src/hid/audio.h **** #include "per/sai.h"
   5:../../libs/libDaisy/src/hid/audio.h **** 
   6:../../libs/libDaisy/src/hid/audio.h **** namespace daisy
   7:../../libs/libDaisy/src/hid/audio.h **** {
   8:../../libs/libDaisy/src/hid/audio.h **** /** @brief Audio Engine Handle
   9:../../libs/libDaisy/src/hid/audio.h ****  *  @ingroup audio 
  10:../../libs/libDaisy/src/hid/audio.h ****  *  @details This class allows for higher level access to an audio engine.
  11:../../libs/libDaisy/src/hid/audio.h ****  *           If you're using a SOM like the DaisySeed or DaisyPatchSM (or any 
  12:../../libs/libDaisy/src/hid/audio.h ****  *            board that includes one of those objects) then the intialization
  13:../../libs/libDaisy/src/hid/audio.h ****  *            is already taken  care of.
  14:../../libs/libDaisy/src/hid/audio.h ****  *           If you're setting up your own custom hardware, or need to make changes
  15:../../libs/libDaisy/src/hid/audio.h ****  *           you will have to take the following steps:
  16:../../libs/libDaisy/src/hid/audio.h ****  *             1. Create and Initialize an SaiHandle or two depending on your requirements
  17:../../libs/libDaisy/src/hid/audio.h ****  *             2. Initialize the Audio Handle with the desired settings and the Initialized SaiHand
  18:../../libs/libDaisy/src/hid/audio.h ****  *             3. If the connected codec requires special configuration or initialization, do so
  19:../../libs/libDaisy/src/hid/audio.h ****  *             4. Write a callback method using either the AudioCallback or the InterleavingAudioCa
  20:../../libs/libDaisy/src/hid/audio.h ****  *             5. Start the Audio using one of the StartAudio function
  21:../../libs/libDaisy/src/hid/audio.h ****  */
  22:../../libs/libDaisy/src/hid/audio.h **** class AudioHandle
  23:../../libs/libDaisy/src/hid/audio.h **** {
  24:../../libs/libDaisy/src/hid/audio.h ****   public:
  25:../../libs/libDaisy/src/hid/audio.h ****     /** Manually configurable details about the Audio Engine */
  26:../../libs/libDaisy/src/hid/audio.h ****     /** TODO: Figure out how to get samplerate in here. */
  27:../../libs/libDaisy/src/hid/audio.h ****     struct Config
  28:../../libs/libDaisy/src/hid/audio.h ****     {
  29:../../libs/libDaisy/src/hid/audio.h ****         /** number of samples to process per callback */
  30:../../libs/libDaisy/src/hid/audio.h ****         size_t blocksize = 48;
  31:../../libs/libDaisy/src/hid/audio.h **** 
  32:../../libs/libDaisy/src/hid/audio.h ****         /**< Sample rate of audio */
  33:../../libs/libDaisy/src/hid/audio.h ****         SaiHandle::Config::SampleRate samplerate
  34:../../libs/libDaisy/src/hid/audio.h ****             = SaiHandle::Config::SampleRate::SAI_48KHZ;
  35:../../libs/libDaisy/src/hid/audio.h **** 
  36:../../libs/libDaisy/src/hid/audio.h ****         /** factor for adjustment before and after callback for hardware that may have extra headro
  37:../../libs/libDaisy/src/hid/audio.h ****         float postgain = 1.f;
  38:../../libs/libDaisy/src/hid/audio.h **** 
  39:../../libs/libDaisy/src/hid/audio.h ****         /** factor for additional one-sided compensation to audio path for hardware that may
  40:../../libs/libDaisy/src/hid/audio.h ****          *  have unequal input/output ranges
  41:../../libs/libDaisy/src/hid/audio.h ****          */
  42:../../libs/libDaisy/src/hid/audio.h ****         float output_compensation = 1.f;
  43:../../libs/libDaisy/src/hid/audio.h ****     };
  44:../../libs/libDaisy/src/hid/audio.h **** 
  45:../../libs/libDaisy/src/hid/audio.h ****     enum class Result
  46:../../libs/libDaisy/src/hid/audio.h ****     {
  47:../../libs/libDaisy/src/hid/audio.h ****         OK,
ARM GAS  C:\Users\skipi\AppData\Local\Temp\ccrSunJV.s 			page 8


  48:../../libs/libDaisy/src/hid/audio.h ****         ERR,
  49:../../libs/libDaisy/src/hid/audio.h ****     };
  50:../../libs/libDaisy/src/hid/audio.h **** 
  51:../../libs/libDaisy/src/hid/audio.h ****     /** Non-Interleaving input buffer
  52:../../libs/libDaisy/src/hid/audio.h ****      * Buffer arranged by float[chn][sample] 
  53:../../libs/libDaisy/src/hid/audio.h ****      * const so that the user can't modify the input
  54:../../libs/libDaisy/src/hid/audio.h ****      */
  55:../../libs/libDaisy/src/hid/audio.h ****     typedef const float* const* InputBuffer;
  56:../../libs/libDaisy/src/hid/audio.h **** 
  57:../../libs/libDaisy/src/hid/audio.h ****     /** Non-Interleaving output buffer
  58:../../libs/libDaisy/src/hid/audio.h ****      * Arranged by float[chn][sample] 
  59:../../libs/libDaisy/src/hid/audio.h ****      */
  60:../../libs/libDaisy/src/hid/audio.h ****     typedef float** OutputBuffer;
  61:../../libs/libDaisy/src/hid/audio.h **** 
  62:../../libs/libDaisy/src/hid/audio.h ****     /** Type for a Non-Interleaving audio callback 
  63:../../libs/libDaisy/src/hid/audio.h ****      * Non-Interleaving audio callbacks in daisy will be of this type
  64:../../libs/libDaisy/src/hid/audio.h ****      */
  65:../../libs/libDaisy/src/hid/audio.h ****     typedef void (*AudioCallback)(InputBuffer  in,
  66:../../libs/libDaisy/src/hid/audio.h ****                                   OutputBuffer out,
  67:../../libs/libDaisy/src/hid/audio.h ****                                   size_t       size);
  68:../../libs/libDaisy/src/hid/audio.h **** 
  69:../../libs/libDaisy/src/hid/audio.h ****     /** Interleaving Input buffer
  70:../../libs/libDaisy/src/hid/audio.h ****      ** audio is prepared as { L0, R0, L1, R1, . . . LN, RN }]
  71:../../libs/libDaisy/src/hid/audio.h ****      ** this is const, as the user shouldn't modify it
  72:../../libs/libDaisy/src/hid/audio.h ****     */
  73:../../libs/libDaisy/src/hid/audio.h ****     typedef const float* InterleavingInputBuffer;
  74:../../libs/libDaisy/src/hid/audio.h **** 
  75:../../libs/libDaisy/src/hid/audio.h ****     /** Interleaving Output buffer 
  76:../../libs/libDaisy/src/hid/audio.h ****      ** audio is prepared as { L0, R0, L1, R1, . . . LN, RN }
  77:../../libs/libDaisy/src/hid/audio.h ****     */
  78:../../libs/libDaisy/src/hid/audio.h ****     typedef float* InterleavingOutputBuffer;
  79:../../libs/libDaisy/src/hid/audio.h **** 
  80:../../libs/libDaisy/src/hid/audio.h ****     /** Interleaving Audio Callback 
  81:../../libs/libDaisy/src/hid/audio.h ****      * Interleaving audio callbacks in daisy must be of this type
  82:../../libs/libDaisy/src/hid/audio.h ****      */
  83:../../libs/libDaisy/src/hid/audio.h ****     typedef void (*InterleavingAudioCallback)(InterleavingInputBuffer  in,
  84:../../libs/libDaisy/src/hid/audio.h ****                                               InterleavingOutputBuffer out,
  85:../../libs/libDaisy/src/hid/audio.h ****                                               size_t                   size);
  86:../../libs/libDaisy/src/hid/audio.h **** 
  87:../../libs/libDaisy/src/hid/audio.h ****     AudioHandle() : pimpl_(nullptr) {}
  88:../../libs/libDaisy/src/hid/audio.h ****     ~AudioHandle() {}
  62              		.loc 6 88 5 is_stmt 1 view .LVU9
  63              		.loc 6 88 5 is_stmt 0 view .LVU10
  64              	.LBE344:
  65              		.loc 1 22 19 view .LVU11
  66 0000 7047     		bx	lr
  67              		.cfi_endproc
  68              	.LFE2671:
  70              		.weak	_ZN5daisy9DaisySeedD1Ev
  71              		.thumb_set _ZN5daisy9DaisySeedD1Ev,_ZN5daisy9DaisySeedD2Ev
  72 0002 00BF     		.section	.text._ZN5daisy6Mpr121INS_18Mpr121I2CTransportEED2Ev,"axG",%progbits,_ZN5daisy6Mpr121INS_
  73              		.align	1
  74              		.p2align 2,,3
  75              		.weak	_ZN5daisy6Mpr121INS_18Mpr121I2CTransportEED2Ev
  76              		.syntax unified
  77              		.thumb
  78              		.thumb_func
ARM GAS  C:\Users\skipi\AppData\Local\Temp\ccrSunJV.s 			page 9


  79              		.fpu fpv5-d16
  81              	_ZN5daisy6Mpr121INS_18Mpr121I2CTransportEED2Ev:
  82              	.LVL1:
  83              	.LFB5423:
  84              		.file 7 "../../libs/libDaisy/src/dev/mpr121.h"
   1:../../libs/libDaisy/src/dev/mpr121.h **** #pragma once
   2:../../libs/libDaisy/src/dev/mpr121.h **** #ifndef DSY_MPR121_H
   3:../../libs/libDaisy/src/dev/mpr121.h **** #define DSY_MPR121_H
   4:../../libs/libDaisy/src/dev/mpr121.h **** 
   5:../../libs/libDaisy/src/dev/mpr121.h **** // The default I2C address
   6:../../libs/libDaisy/src/dev/mpr121.h **** #define MPR121_I2CADDR_DEFAULT 0x5A        ///< default I2C address
   7:../../libs/libDaisy/src/dev/mpr121.h **** #define MPR121_TOUCH_THRESHOLD_DEFAULT 1  ///< default touch threshold value
   8:../../libs/libDaisy/src/dev/mpr121.h **** #define MPR121_RELEASE_THRESHOLD_DEFAULT 0 ///< default relese threshold value
   9:../../libs/libDaisy/src/dev/mpr121.h **** 
  10:../../libs/libDaisy/src/dev/mpr121.h **** namespace daisy
  11:../../libs/libDaisy/src/dev/mpr121.h **** {
  12:../../libs/libDaisy/src/dev/mpr121.h **** /** @addtogroup external 
  13:../../libs/libDaisy/src/dev/mpr121.h ****     @{ 
  14:../../libs/libDaisy/src/dev/mpr121.h **** */
  15:../../libs/libDaisy/src/dev/mpr121.h **** 
  16:../../libs/libDaisy/src/dev/mpr121.h **** /** I2C Transport for MPR121 */
  17:../../libs/libDaisy/src/dev/mpr121.h **** class Mpr121I2CTransport
  18:../../libs/libDaisy/src/dev/mpr121.h **** {
  19:../../libs/libDaisy/src/dev/mpr121.h ****   public:
  20:../../libs/libDaisy/src/dev/mpr121.h ****     Mpr121I2CTransport() {}
  21:../../libs/libDaisy/src/dev/mpr121.h ****     ~Mpr121I2CTransport() {}
  22:../../libs/libDaisy/src/dev/mpr121.h **** 
  23:../../libs/libDaisy/src/dev/mpr121.h ****     struct Config
  24:../../libs/libDaisy/src/dev/mpr121.h ****     {
  25:../../libs/libDaisy/src/dev/mpr121.h ****         I2CHandle::Config::Peripheral periph;
  26:../../libs/libDaisy/src/dev/mpr121.h ****         I2CHandle::Config::Speed      speed;
  27:../../libs/libDaisy/src/dev/mpr121.h ****         Pin                           scl;
  28:../../libs/libDaisy/src/dev/mpr121.h ****         Pin                           sda;
  29:../../libs/libDaisy/src/dev/mpr121.h **** 
  30:../../libs/libDaisy/src/dev/mpr121.h ****         I2CHandle::Config::Mode mode;
  31:../../libs/libDaisy/src/dev/mpr121.h **** 
  32:../../libs/libDaisy/src/dev/mpr121.h ****         uint8_t dev_addr;
  33:../../libs/libDaisy/src/dev/mpr121.h **** 
  34:../../libs/libDaisy/src/dev/mpr121.h ****         Config()
  35:../../libs/libDaisy/src/dev/mpr121.h ****         {
  36:../../libs/libDaisy/src/dev/mpr121.h ****             periph = I2CHandle::Config::Peripheral::I2C_1;
  37:../../libs/libDaisy/src/dev/mpr121.h ****             speed  = I2CHandle::Config::Speed::I2C_400KHZ;
  38:../../libs/libDaisy/src/dev/mpr121.h **** 
  39:../../libs/libDaisy/src/dev/mpr121.h ****             scl = Pin(PORTB, 8);
  40:../../libs/libDaisy/src/dev/mpr121.h ****             sda = Pin(PORTB, 9);
  41:../../libs/libDaisy/src/dev/mpr121.h **** 
  42:../../libs/libDaisy/src/dev/mpr121.h ****             dev_addr = MPR121_I2CADDR_DEFAULT;
  43:../../libs/libDaisy/src/dev/mpr121.h ****         }
  44:../../libs/libDaisy/src/dev/mpr121.h ****     };
  45:../../libs/libDaisy/src/dev/mpr121.h **** 
  46:../../libs/libDaisy/src/dev/mpr121.h ****     /** \return Did the transaction error? i.e. Return true if error, false if ok */
  47:../../libs/libDaisy/src/dev/mpr121.h ****     inline bool Init(Config config)
  48:../../libs/libDaisy/src/dev/mpr121.h ****     {
  49:../../libs/libDaisy/src/dev/mpr121.h ****         config_ = config;
  50:../../libs/libDaisy/src/dev/mpr121.h **** 
  51:../../libs/libDaisy/src/dev/mpr121.h ****         I2CHandle::Config i2c_conf;
  52:../../libs/libDaisy/src/dev/mpr121.h ****         i2c_conf.mode   = I2CHandle::Config::Mode::I2C_MASTER;
ARM GAS  C:\Users\skipi\AppData\Local\Temp\ccrSunJV.s 			page 10


  53:../../libs/libDaisy/src/dev/mpr121.h ****         i2c_conf.periph = config.periph;
  54:../../libs/libDaisy/src/dev/mpr121.h ****         i2c_conf.speed  = config.speed;
  55:../../libs/libDaisy/src/dev/mpr121.h **** 
  56:../../libs/libDaisy/src/dev/mpr121.h ****         i2c_conf.pin_config.scl = config.scl;
  57:../../libs/libDaisy/src/dev/mpr121.h ****         i2c_conf.pin_config.sda = config.sda;
  58:../../libs/libDaisy/src/dev/mpr121.h **** 
  59:../../libs/libDaisy/src/dev/mpr121.h ****         return I2CHandle::Result::OK != i2c_.Init(i2c_conf);
  60:../../libs/libDaisy/src/dev/mpr121.h ****     }
  61:../../libs/libDaisy/src/dev/mpr121.h **** 
  62:../../libs/libDaisy/src/dev/mpr121.h ****     /** \return Did the transaction error? i.e. Return true if error, false if ok */
  63:../../libs/libDaisy/src/dev/mpr121.h ****     bool Write(uint8_t *data, uint16_t size)
  64:../../libs/libDaisy/src/dev/mpr121.h ****     {
  65:../../libs/libDaisy/src/dev/mpr121.h ****         return I2CHandle::Result::OK
  66:../../libs/libDaisy/src/dev/mpr121.h ****                != i2c_.TransmitBlocking(config_.dev_addr, data, size, 10);
  67:../../libs/libDaisy/src/dev/mpr121.h ****     }
  68:../../libs/libDaisy/src/dev/mpr121.h **** 
  69:../../libs/libDaisy/src/dev/mpr121.h ****     /** \return Did the transaction error? i.e. Return true if error, false if ok */
  70:../../libs/libDaisy/src/dev/mpr121.h ****     bool Read(uint8_t *data, uint16_t size)
  71:../../libs/libDaisy/src/dev/mpr121.h ****     {
  72:../../libs/libDaisy/src/dev/mpr121.h ****         return I2CHandle::Result::OK
  73:../../libs/libDaisy/src/dev/mpr121.h ****                != i2c_.ReceiveBlocking(config_.dev_addr, data, size, 10);
  74:../../libs/libDaisy/src/dev/mpr121.h ****     }
  75:../../libs/libDaisy/src/dev/mpr121.h ****     bool ReadMem(uint8_t *data, uint8_t memAddress, uint16_t memSize)
  76:../../libs/libDaisy/src/dev/mpr121.h ****     {
  77:../../libs/libDaisy/src/dev/mpr121.h ****         return I2CHandle::Result::OK
  78:../../libs/libDaisy/src/dev/mpr121.h ****                != i2c_.Mem_read(
  79:../../libs/libDaisy/src/dev/mpr121.h ****                    config_.dev_addr, memAddress, 1, data, memSize, 10);
  80:../../libs/libDaisy/src/dev/mpr121.h ****     }
  81:../../libs/libDaisy/src/dev/mpr121.h **** 
  82:../../libs/libDaisy/src/dev/mpr121.h ****   private:
  83:../../libs/libDaisy/src/dev/mpr121.h ****     I2CHandle i2c_;
  84:../../libs/libDaisy/src/dev/mpr121.h ****     Config    config_;
  85:../../libs/libDaisy/src/dev/mpr121.h **** };
  86:../../libs/libDaisy/src/dev/mpr121.h **** 
  87:../../libs/libDaisy/src/dev/mpr121.h **** 
  88:../../libs/libDaisy/src/dev/mpr121.h **** /** @brief Device support for MPR121 12x Capacitive Touch Sensor
  89:../../libs/libDaisy/src/dev/mpr121.h ****     @author beserge
  90:../../libs/libDaisy/src/dev/mpr121.h ****     @date December 2021
  91:../../libs/libDaisy/src/dev/mpr121.h **** */
  92:../../libs/libDaisy/src/dev/mpr121.h **** template <typename Transport>
  93:../../libs/libDaisy/src/dev/mpr121.h **** class Mpr121
  94:../../libs/libDaisy/src/dev/mpr121.h **** {
  95:../../libs/libDaisy/src/dev/mpr121.h ****   public:
  96:../../libs/libDaisy/src/dev/mpr121.h ****     Mpr121() {}
  97:../../libs/libDaisy/src/dev/mpr121.h ****     ~Mpr121() {}
  85              		.loc 7 97 5 is_stmt 1 view -0
  86              		.cfi_startproc
  87              		@ args = 0, pretend = 0, frame = 0
  88              		@ frame_needed = 0, uses_anonymous_args = 0
  89              		@ link register save eliminated.
  90              	.LBB345:
  91              	.LBI345:
  21:../../libs/libDaisy/src/dev/mpr121.h **** 
  92              		.loc 7 21 5 view .LVU13
  21:../../libs/libDaisy/src/dev/mpr121.h **** 
  93              		.loc 7 21 5 is_stmt 0 view .LVU14
  94              	.LBE345:
ARM GAS  C:\Users\skipi\AppData\Local\Temp\ccrSunJV.s 			page 11


  95              		.loc 7 97 16 view .LVU15
  96 0000 7047     		bx	lr
  97              		.cfi_endproc
  98              	.LFE5423:
 100              		.weak	_ZN5daisy6Mpr121INS_18Mpr121I2CTransportEED1Ev
 101              		.thumb_set _ZN5daisy6Mpr121INS_18Mpr121I2CTransportEED1Ev,_ZN5daisy6Mpr121INS_18Mpr121I2CTransport
 102 0002 00BF     		.section	.text._ZN5daisy6Mpr121INS_18Mpr121I2CTransportEE13WriteRegisterEhh,"axG",%progbits,_ZN5da
 103              		.align	1
 104              		.p2align 2,,3
 105              		.weak	_ZN5daisy6Mpr121INS_18Mpr121I2CTransportEE13WriteRegisterEhh
 106              		.syntax unified
 107              		.thumb
 108              		.thumb_func
 109              		.fpu fpv5-d16
 111              	_ZN5daisy6Mpr121INS_18Mpr121I2CTransportEE13WriteRegisterEhh:
 112              	.LVL2:
 113              	.LFB5277:
  98:../../libs/libDaisy/src/dev/mpr121.h **** 
  99:../../libs/libDaisy/src/dev/mpr121.h ****     struct Config
 100:../../libs/libDaisy/src/dev/mpr121.h ****     {
 101:../../libs/libDaisy/src/dev/mpr121.h ****         typename Transport::Config transport_config;
 102:../../libs/libDaisy/src/dev/mpr121.h ****         uint8_t                    touch_threshold;
 103:../../libs/libDaisy/src/dev/mpr121.h ****         uint8_t                    release_threshold;
 104:../../libs/libDaisy/src/dev/mpr121.h **** 
 105:../../libs/libDaisy/src/dev/mpr121.h ****         Config()
 106:../../libs/libDaisy/src/dev/mpr121.h ****         {
 107:../../libs/libDaisy/src/dev/mpr121.h ****             touch_threshold   = MPR121_TOUCH_THRESHOLD_DEFAULT;
 108:../../libs/libDaisy/src/dev/mpr121.h ****             release_threshold = MPR121_RELEASE_THRESHOLD_DEFAULT;
 109:../../libs/libDaisy/src/dev/mpr121.h ****         }
 110:../../libs/libDaisy/src/dev/mpr121.h ****     };
 111:../../libs/libDaisy/src/dev/mpr121.h **** 
 112:../../libs/libDaisy/src/dev/mpr121.h ****     enum Result
 113:../../libs/libDaisy/src/dev/mpr121.h ****     {
 114:../../libs/libDaisy/src/dev/mpr121.h ****         OK = 0,
 115:../../libs/libDaisy/src/dev/mpr121.h ****         ERR
 116:../../libs/libDaisy/src/dev/mpr121.h ****     };
 117:../../libs/libDaisy/src/dev/mpr121.h **** 
 118:../../libs/libDaisy/src/dev/mpr121.h ****     /** Initialize the MPR121 device
 119:../../libs/libDaisy/src/dev/mpr121.h ****         \param config Configuration settings
 120:../../libs/libDaisy/src/dev/mpr121.h ****     */
 121:../../libs/libDaisy/src/dev/mpr121.h ****     Result Init(Config config)
 122:../../libs/libDaisy/src/dev/mpr121.h ****     {
 123:../../libs/libDaisy/src/dev/mpr121.h ****         config_ = config;
 124:../../libs/libDaisy/src/dev/mpr121.h **** 
 125:../../libs/libDaisy/src/dev/mpr121.h ****         SetTransportErr(transport_.Init(config_.transport_config));
 126:../../libs/libDaisy/src/dev/mpr121.h **** 
 127:../../libs/libDaisy/src/dev/mpr121.h ****         // soft reset
 128:../../libs/libDaisy/src/dev/mpr121.h ****         WriteRegister(MPR121_SOFTRESET, 0x63);
 129:../../libs/libDaisy/src/dev/mpr121.h ****         System::Delay(1);
 130:../../libs/libDaisy/src/dev/mpr121.h **** 
 131:../../libs/libDaisy/src/dev/mpr121.h ****         WriteRegister(MPR121_ECR, 0x0);
 132:../../libs/libDaisy/src/dev/mpr121.h **** 
 133:../../libs/libDaisy/src/dev/mpr121.h ****         // this doesn't work for some reason...
 134:../../libs/libDaisy/src/dev/mpr121.h ****         // uint8_t c = ReadRegister8(MPR121_CONFIG2);
 135:../../libs/libDaisy/src/dev/mpr121.h **** 
 136:../../libs/libDaisy/src/dev/mpr121.h ****         // if(c != 0x24)
 137:../../libs/libDaisy/src/dev/mpr121.h ****         //     return ERR;
ARM GAS  C:\Users\skipi\AppData\Local\Temp\ccrSunJV.s 			page 12


 138:../../libs/libDaisy/src/dev/mpr121.h **** 
 139:../../libs/libDaisy/src/dev/mpr121.h ****         SetThresholds(config_.touch_threshold, config_.release_threshold);
 140:../../libs/libDaisy/src/dev/mpr121.h ****         WriteRegister(MPR121_MHDR, 0x01);
 141:../../libs/libDaisy/src/dev/mpr121.h ****         WriteRegister(MPR121_NHDR, 0x01);
 142:../../libs/libDaisy/src/dev/mpr121.h ****         WriteRegister(MPR121_NCLR, 0x0E);
 143:../../libs/libDaisy/src/dev/mpr121.h ****         WriteRegister(MPR121_FDLR, 0x00);
 144:../../libs/libDaisy/src/dev/mpr121.h **** 
 145:../../libs/libDaisy/src/dev/mpr121.h ****         WriteRegister(MPR121_MHDF, 0x01);
 146:../../libs/libDaisy/src/dev/mpr121.h ****         WriteRegister(MPR121_NHDF, 0x05);
 147:../../libs/libDaisy/src/dev/mpr121.h ****         WriteRegister(MPR121_NCLF, 0x01);
 148:../../libs/libDaisy/src/dev/mpr121.h ****         WriteRegister(MPR121_FDLF, 0x00);
 149:../../libs/libDaisy/src/dev/mpr121.h **** 
 150:../../libs/libDaisy/src/dev/mpr121.h ****         WriteRegister(MPR121_NHDT, 0x00);
 151:../../libs/libDaisy/src/dev/mpr121.h ****         WriteRegister(MPR121_NCLT, 0x00);
 152:../../libs/libDaisy/src/dev/mpr121.h ****         WriteRegister(MPR121_FDLT, 0x00);
 153:../../libs/libDaisy/src/dev/mpr121.h **** 
 154:../../libs/libDaisy/src/dev/mpr121.h ****         WriteRegister(MPR121_DEBOUNCE, 0);
 155:../../libs/libDaisy/src/dev/mpr121.h ****         WriteRegister(MPR121_CONFIG1, 0x10); // default, 16uA charge current
 156:../../libs/libDaisy/src/dev/mpr121.h ****         WriteRegister(MPR121_CONFIG2, 0x20); // 0.5uS encoding, 1ms period
 157:../../libs/libDaisy/src/dev/mpr121.h **** 
 158:../../libs/libDaisy/src/dev/mpr121.h ****         // autoconfig
 159:../../libs/libDaisy/src/dev/mpr121.h ****         // WriteRegister(MPR121_AUTOCONFIG0, 0x0B);
 160:../../libs/libDaisy/src/dev/mpr121.h **** 
 161:../../libs/libDaisy/src/dev/mpr121.h ****         // correct values for Vdd = 3.3V
 162:../../libs/libDaisy/src/dev/mpr121.h ****         // WriteRegister(MPR121_UPLIMIT, 200);     // ((Vdd - 0.7)/Vdd) * 256
 163:../../libs/libDaisy/src/dev/mpr121.h ****         // WriteRegister(MPR121_TARGETLIMIT, 180); // UPLIMIT * 0.9
 164:../../libs/libDaisy/src/dev/mpr121.h ****         // WriteRegister(MPR121_LOWLIMIT, 130);    // UPLIMIT * 0.65
 165:../../libs/libDaisy/src/dev/mpr121.h ****         // autoconfig
 166:../../libs/libDaisy/src/dev/mpr121.h **** 
 167:../../libs/libDaisy/src/dev/mpr121.h ****         // enable X electrodes and start MPR121
 168:../../libs/libDaisy/src/dev/mpr121.h ****         uint8_t ECR_SETTING
 169:../../libs/libDaisy/src/dev/mpr121.h ****             = 0x80
 170:../../libs/libDaisy/src/dev/mpr121.h ****               + 12; // 5 bits for baseline tracking & proximity disabled + X
 171:../../libs/libDaisy/src/dev/mpr121.h ****                     // amount of electrodes running (12)
 172:../../libs/libDaisy/src/dev/mpr121.h ****         WriteRegister(MPR121_ECR,
 173:../../libs/libDaisy/src/dev/mpr121.h ****                       ECR_SETTING); // start with above ECR setting
 174:../../libs/libDaisy/src/dev/mpr121.h **** 
 175:../../libs/libDaisy/src/dev/mpr121.h ****         return GetTransportErr();
 176:../../libs/libDaisy/src/dev/mpr121.h ****     }
 177:../../libs/libDaisy/src/dev/mpr121.h **** 
 178:../../libs/libDaisy/src/dev/mpr121.h ****     /** Set the touch and release thresholds for all 13 channels on the
 179:../../libs/libDaisy/src/dev/mpr121.h ****         device to the passed values.
 180:../../libs/libDaisy/src/dev/mpr121.h ****         \param      touch The touch threshold value from 0 to 255.
 181:../../libs/libDaisy/src/dev/mpr121.h ****         \param      release The release threshold from 0 to 255.
 182:../../libs/libDaisy/src/dev/mpr121.h ****     */
 183:../../libs/libDaisy/src/dev/mpr121.h ****     void SetThresholds(uint8_t touch, uint8_t release)
 184:../../libs/libDaisy/src/dev/mpr121.h ****     {
 185:../../libs/libDaisy/src/dev/mpr121.h ****         // set all thresholds (the same)
 186:../../libs/libDaisy/src/dev/mpr121.h ****         for(uint8_t i = 0; i < 12; i++)
 187:../../libs/libDaisy/src/dev/mpr121.h ****         {
 188:../../libs/libDaisy/src/dev/mpr121.h ****             WriteRegister(MPR121_TOUCHTH_0 + 2 * i, touch);
 189:../../libs/libDaisy/src/dev/mpr121.h ****             WriteRegister(MPR121_RELEASETH_0 + 2 * i, release);
 190:../../libs/libDaisy/src/dev/mpr121.h ****         }
 191:../../libs/libDaisy/src/dev/mpr121.h ****     }
 192:../../libs/libDaisy/src/dev/mpr121.h **** 
 193:../../libs/libDaisy/src/dev/mpr121.h **** 
 194:../../libs/libDaisy/src/dev/mpr121.h ****     /** Read the filtered data from channel t. The ADC raw data outputs
ARM GAS  C:\Users\skipi\AppData\Local\Temp\ccrSunJV.s 			page 13


 195:../../libs/libDaisy/src/dev/mpr121.h ****         run through 3 levels of digital filtering to filter out the high
 196:../../libs/libDaisy/src/dev/mpr121.h ****         frequency and low frequency noise encountered. For detailed information on
 197:../../libs/libDaisy/src/dev/mpr121.h ****         this filtering see page 6 of the device datasheet.
 198:../../libs/libDaisy/src/dev/mpr121.h ****         \param      t the channel to read
 199:../../libs/libDaisy/src/dev/mpr121.h ****         \returns    the filtered reading as a 10 bit unsigned value
 200:../../libs/libDaisy/src/dev/mpr121.h ****     */
 201:../../libs/libDaisy/src/dev/mpr121.h ****     uint16_t FilteredData(uint8_t t)
 202:../../libs/libDaisy/src/dev/mpr121.h ****     {
 203:../../libs/libDaisy/src/dev/mpr121.h ****         if(t > 12)
 204:../../libs/libDaisy/src/dev/mpr121.h ****             return 0;
 205:../../libs/libDaisy/src/dev/mpr121.h ****         return ReadRegister16(MPR121_FILTDATA_0L + t * 2);
 206:../../libs/libDaisy/src/dev/mpr121.h ****     }
 207:../../libs/libDaisy/src/dev/mpr121.h **** 
 208:../../libs/libDaisy/src/dev/mpr121.h ****     /** Read the baseline value for the channel. The 3rd level filtered
 209:../../libs/libDaisy/src/dev/mpr121.h ****         result is internally 10bit but only high 8 bits are readable
 210:../../libs/libDaisy/src/dev/mpr121.h ****         from registers 0x1E~0x2A as the baseline value output for each channel.
 211:../../libs/libDaisy/src/dev/mpr121.h ****         \param      t the channel to read.
 212:../../libs/libDaisy/src/dev/mpr121.h ****         \returns    the baseline data that was read
 213:../../libs/libDaisy/src/dev/mpr121.h ****     */
 214:../../libs/libDaisy/src/dev/mpr121.h ****     uint16_t BaselineData(uint8_t t)
 215:../../libs/libDaisy/src/dev/mpr121.h ****     {
 216:../../libs/libDaisy/src/dev/mpr121.h ****         if(t > 12)
 217:../../libs/libDaisy/src/dev/mpr121.h ****             return 0;
 218:../../libs/libDaisy/src/dev/mpr121.h ****         uint16_t bl = ReadRegister8(MPR121_BASELINE_0 + t);
 219:../../libs/libDaisy/src/dev/mpr121.h ****         return (bl << 2);
 220:../../libs/libDaisy/src/dev/mpr121.h ****     }
 221:../../libs/libDaisy/src/dev/mpr121.h **** 
 222:../../libs/libDaisy/src/dev/mpr121.h ****     /** Read the touch status of all 13 channels as bit values in a 12 bit integer.
 223:../../libs/libDaisy/src/dev/mpr121.h ****         \returns    a 12 bit integer with each bit corresponding to the touch status
 224:../../libs/libDaisy/src/dev/mpr121.h ****         of a sensor. For example, if bit 0 is set then channel 0 of the
 225:../../libs/libDaisy/src/dev/mpr121.h ****         device is currently deemed to be touched.
 226:../../libs/libDaisy/src/dev/mpr121.h ****     */
 227:../../libs/libDaisy/src/dev/mpr121.h ****     uint16_t Touched()
 228:../../libs/libDaisy/src/dev/mpr121.h ****     {
 229:../../libs/libDaisy/src/dev/mpr121.h ****         uint16_t t = ReadRegister16(MPR121_TOUCHSTATUS_L);
 230:../../libs/libDaisy/src/dev/mpr121.h ****         return t & 0x0FFF;
 231:../../libs/libDaisy/src/dev/mpr121.h ****     }
 232:../../libs/libDaisy/src/dev/mpr121.h **** 
 233:../../libs/libDaisy/src/dev/mpr121.h ****     /** Read the contents of an 8 bit device register.
 234:../../libs/libDaisy/src/dev/mpr121.h ****         \param      reg the register address to read from
 235:../../libs/libDaisy/src/dev/mpr121.h ****         \returns    the 8 bit value that was read.
 236:../../libs/libDaisy/src/dev/mpr121.h ****     */
 237:../../libs/libDaisy/src/dev/mpr121.h ****     uint8_t ReadRegister8(uint8_t reg)
 238:../../libs/libDaisy/src/dev/mpr121.h ****     {
 239:../../libs/libDaisy/src/dev/mpr121.h ****         uint8_t buff;
 240:../../libs/libDaisy/src/dev/mpr121.h ****         SetTransportErr(transport_.ReadMem(&buff, reg, 1));
 241:../../libs/libDaisy/src/dev/mpr121.h ****         return buff;
 242:../../libs/libDaisy/src/dev/mpr121.h ****     }
 243:../../libs/libDaisy/src/dev/mpr121.h **** 
 244:../../libs/libDaisy/src/dev/mpr121.h ****     uint16_t ReadRegister16(uint8_t reg)
 245:../../libs/libDaisy/src/dev/mpr121.h ****     {
 246:../../libs/libDaisy/src/dev/mpr121.h ****         uint16_t buff;
 247:../../libs/libDaisy/src/dev/mpr121.h ****         SetTransportErr(transport_.ReadMem((uint8_t *)&buff, reg, 2));
 248:../../libs/libDaisy/src/dev/mpr121.h **** 
 249:../../libs/libDaisy/src/dev/mpr121.h **** 
 250:../../libs/libDaisy/src/dev/mpr121.h ****         return buff;
 251:../../libs/libDaisy/src/dev/mpr121.h ****     }
ARM GAS  C:\Users\skipi\AppData\Local\Temp\ccrSunJV.s 			page 14


 252:../../libs/libDaisy/src/dev/mpr121.h **** 
 253:../../libs/libDaisy/src/dev/mpr121.h ****     /** Writes 8-bits to the specified destination register
 254:../../libs/libDaisy/src/dev/mpr121.h ****         \param  reg the register address to write to
 255:../../libs/libDaisy/src/dev/mpr121.h ****         \param  value the value to write
 256:../../libs/libDaisy/src/dev/mpr121.h ****     */
 257:../../libs/libDaisy/src/dev/mpr121.h ****     void WriteRegister(uint8_t reg, uint8_t value)
 114              		.loc 7 257 10 is_stmt 1 view -0
 115              		.cfi_startproc
 116              		@ args = 0, pretend = 0, frame = 8
 117              		@ frame_needed = 0, uses_anonymous_args = 0
 118              		.loc 7 257 10 is_stmt 0 view .LVU17
 119 0000 2DE9F043 		push	{r4, r5, r6, r7, r8, r9, lr}
 120              		.cfi_def_cfa_offset 28
 121              		.cfi_offset 4, -28
 122              		.cfi_offset 5, -24
 123              		.cfi_offset 6, -20
 124              		.cfi_offset 7, -16
 125              		.cfi_offset 8, -12
 126              		.cfi_offset 9, -8
 127              		.cfi_offset 14, -4
 258:../../libs/libDaisy/src/dev/mpr121.h ****     {
 259:../../libs/libDaisy/src/dev/mpr121.h ****         // MPR121 must be put in Stop Mode to write to most registers
 260:../../libs/libDaisy/src/dev/mpr121.h ****         bool stop_required = true;
 261:../../libs/libDaisy/src/dev/mpr121.h **** 
 262:../../libs/libDaisy/src/dev/mpr121.h ****         // first get the current set value of the MPR121_ECR register
 263:../../libs/libDaisy/src/dev/mpr121.h ****         uint8_t ecr_reg = MPR121_ECR;
 264:../../libs/libDaisy/src/dev/mpr121.h ****         uint8_t buff[2] = {ecr_reg, 0x00};
 128              		.loc 7 264 17 view .LVU18
 129 0004 0023     		movs	r3, #0
 257:../../libs/libDaisy/src/dev/mpr121.h ****     {
 130              		.loc 7 257 10 view .LVU19
 131 0006 85B0     		sub	sp, sp, #20
 132              		.cfi_def_cfa_offset 48
 133              	.LBB376:
 134              	.LBB377:
  66:../../libs/libDaisy/src/dev/mpr121.h ****     }
 135              		.loc 7 66 40 view .LVU20
 136 0008 00F11806 		add	r6, r0, #24
 137 000c 4FF00A08 		mov	r8, #10
 138              	.LBE377:
 139              	.LBE376:
 257:../../libs/libDaisy/src/dev/mpr121.h ****     {
 140              		.loc 7 257 10 view .LVU21
 141 0010 0446     		mov	r4, r0
 142              		.loc 7 264 17 view .LVU22
 143 0012 4FF05E09 		mov	r9, #94
 257:../../libs/libDaisy/src/dev/mpr121.h ****     {
 144              		.loc 7 257 10 view .LVU23
 145 0016 0D46     		mov	r5, r1
 146              		.loc 7 264 17 view .LVU24
 147 0018 8DF80D30 		strb	r3, [sp, #13]
 148              	.LBB381:
 149              	.LBB378:
  66:../../libs/libDaisy/src/dev/mpr121.h ****     }
 150              		.loc 7 66 40 view .LVU25
 151 001c CDF80080 		str	r8, [sp]
 152 0020 0123     		movs	r3, #1
ARM GAS  C:\Users\skipi\AppData\Local\Temp\ccrSunJV.s 			page 15


 153 0022 90F82C10 		ldrb	r1, [r0, #44]	@ zero_extendqisi2
 154              	.LVL3:
  66:../../libs/libDaisy/src/dev/mpr121.h ****     }
 155              		.loc 7 66 40 view .LVU26
 156              	.LBE378:
 157              	.LBE381:
 257:../../libs/libDaisy/src/dev/mpr121.h ****     {
 158              		.loc 7 257 10 view .LVU27
 159 0026 1746     		mov	r7, r2
 160              	.LBB382:
 161              	.LBB379:
  66:../../libs/libDaisy/src/dev/mpr121.h ****     }
 162              		.loc 7 66 40 view .LVU28
 163 0028 3046     		mov	r0, r6
 164              	.LVL4:
  66:../../libs/libDaisy/src/dev/mpr121.h ****     }
 165              		.loc 7 66 40 view .LVU29
 166 002a 03AA     		add	r2, sp, #12
 167              	.LVL5:
  66:../../libs/libDaisy/src/dev/mpr121.h ****     }
 168              		.loc 7 66 40 view .LVU30
 169              	.LBE379:
 170              	.LBE382:
 171              		.loc 7 264 17 view .LVU31
 172 002c 8DF80C90 		strb	r9, [sp, #12]
 173              	.LVL6:
 174              	.LBB383:
 175              	.LBI376:
  63:../../libs/libDaisy/src/dev/mpr121.h ****     {
 176              		.loc 7 63 10 is_stmt 1 view .LVU32
 177              	.LBB380:
  65:../../libs/libDaisy/src/dev/mpr121.h ****                != i2c_.TransmitBlocking(config_.dev_addr, data, size, 10);
 178              		.loc 7 65 9 view .LVU33
  66:../../libs/libDaisy/src/dev/mpr121.h ****     }
 179              		.loc 7 66 40 is_stmt 0 view .LVU34
 180 0030 FFF7FEFF 		bl	_ZN5daisy9I2CHandle16TransmitBlockingEtPhtm
 181              	.LVL7:
  66:../../libs/libDaisy/src/dev/mpr121.h ****     }
 182              		.loc 7 66 40 view .LVU35
 183              	.LBE380:
 184              	.LBE383:
 185              	.LBB384:
 186              	.LBI384:
 265:../../libs/libDaisy/src/dev/mpr121.h **** 
 266:../../libs/libDaisy/src/dev/mpr121.h ****         SetTransportErr(transport_.Write(buff, 1));
 267:../../libs/libDaisy/src/dev/mpr121.h **** 
 268:../../libs/libDaisy/src/dev/mpr121.h ****         uint8_t ecr_backup;
 269:../../libs/libDaisy/src/dev/mpr121.h ****         SetTransportErr(transport_.Read(&ecr_backup, 1));
 270:../../libs/libDaisy/src/dev/mpr121.h ****         if((reg == MPR121_ECR) || ((0x73 <= reg) && (reg <= 0x7A)))
 271:../../libs/libDaisy/src/dev/mpr121.h ****         {
 272:../../libs/libDaisy/src/dev/mpr121.h ****             stop_required = false;
 273:../../libs/libDaisy/src/dev/mpr121.h ****         }
 274:../../libs/libDaisy/src/dev/mpr121.h **** 
 275:../../libs/libDaisy/src/dev/mpr121.h ****         if(stop_required)
 276:../../libs/libDaisy/src/dev/mpr121.h ****         {
 277:../../libs/libDaisy/src/dev/mpr121.h ****             // clear this register to set stop mode
 278:../../libs/libDaisy/src/dev/mpr121.h ****             SetTransportErr(transport_.Write(buff, 2));
ARM GAS  C:\Users\skipi\AppData\Local\Temp\ccrSunJV.s 			page 16


 279:../../libs/libDaisy/src/dev/mpr121.h ****         }
 280:../../libs/libDaisy/src/dev/mpr121.h **** 
 281:../../libs/libDaisy/src/dev/mpr121.h ****         buff[0] = reg;
 282:../../libs/libDaisy/src/dev/mpr121.h ****         buff[1] = value;
 283:../../libs/libDaisy/src/dev/mpr121.h ****         SetTransportErr(transport_.Write(buff, 2));
 284:../../libs/libDaisy/src/dev/mpr121.h **** 
 285:../../libs/libDaisy/src/dev/mpr121.h ****         if(stop_required)
 286:../../libs/libDaisy/src/dev/mpr121.h ****         {
 287:../../libs/libDaisy/src/dev/mpr121.h ****             // write back the previous set ECR settings
 288:../../libs/libDaisy/src/dev/mpr121.h ****             buff[0] = ecr_reg;
 289:../../libs/libDaisy/src/dev/mpr121.h ****             buff[1] = ecr_backup;
 290:../../libs/libDaisy/src/dev/mpr121.h ****             SetTransportErr(transport_.Write(buff, 2));
 291:../../libs/libDaisy/src/dev/mpr121.h ****         }
 292:../../libs/libDaisy/src/dev/mpr121.h ****     }
 293:../../libs/libDaisy/src/dev/mpr121.h **** 
 294:../../libs/libDaisy/src/dev/mpr121.h ****     /** Device register map */
 295:../../libs/libDaisy/src/dev/mpr121.h ****     enum RegMap
 296:../../libs/libDaisy/src/dev/mpr121.h ****     {
 297:../../libs/libDaisy/src/dev/mpr121.h ****         MPR121_TOUCHSTATUS_L = 0x00,
 298:../../libs/libDaisy/src/dev/mpr121.h ****         MPR121_TOUCHSTATUS_H = 0x01,
 299:../../libs/libDaisy/src/dev/mpr121.h ****         MPR121_FILTDATA_0L   = 0x04,
 300:../../libs/libDaisy/src/dev/mpr121.h ****         MPR121_FILTDATA_0H   = 0x05,
 301:../../libs/libDaisy/src/dev/mpr121.h ****         MPR121_BASELINE_0    = 0x1E,
 302:../../libs/libDaisy/src/dev/mpr121.h ****         MPR121_MHDR          = 0x2B,
 303:../../libs/libDaisy/src/dev/mpr121.h ****         MPR121_NHDR          = 0x2C,
 304:../../libs/libDaisy/src/dev/mpr121.h ****         MPR121_NCLR          = 0x2D,
 305:../../libs/libDaisy/src/dev/mpr121.h ****         MPR121_FDLR          = 0x2E,
 306:../../libs/libDaisy/src/dev/mpr121.h ****         MPR121_MHDF          = 0x2F,
 307:../../libs/libDaisy/src/dev/mpr121.h ****         MPR121_NHDF          = 0x30,
 308:../../libs/libDaisy/src/dev/mpr121.h ****         MPR121_NCLF          = 0x31,
 309:../../libs/libDaisy/src/dev/mpr121.h ****         MPR121_FDLF          = 0x32,
 310:../../libs/libDaisy/src/dev/mpr121.h ****         MPR121_NHDT          = 0x33,
 311:../../libs/libDaisy/src/dev/mpr121.h ****         MPR121_NCLT          = 0x34,
 312:../../libs/libDaisy/src/dev/mpr121.h ****         MPR121_FDLT          = 0x35,
 313:../../libs/libDaisy/src/dev/mpr121.h **** 
 314:../../libs/libDaisy/src/dev/mpr121.h ****         MPR121_TOUCHTH_0    = 0x41,
 315:../../libs/libDaisy/src/dev/mpr121.h ****         MPR121_RELEASETH_0  = 0x42,
 316:../../libs/libDaisy/src/dev/mpr121.h ****         MPR121_DEBOUNCE     = 0x5B,
 317:../../libs/libDaisy/src/dev/mpr121.h ****         MPR121_CONFIG1      = 0x5C,
 318:../../libs/libDaisy/src/dev/mpr121.h ****         MPR121_CONFIG2      = 0x5D,
 319:../../libs/libDaisy/src/dev/mpr121.h ****         MPR121_CHARGECURR_0 = 0x5F,
 320:../../libs/libDaisy/src/dev/mpr121.h ****         MPR121_CHARGETIME_1 = 0x6C,
 321:../../libs/libDaisy/src/dev/mpr121.h ****         MPR121_ECR          = 0x5E,
 322:../../libs/libDaisy/src/dev/mpr121.h ****         MPR121_AUTOCONFIG0  = 0x7B,
 323:../../libs/libDaisy/src/dev/mpr121.h ****         MPR121_AUTOCONFIG1  = 0x7C,
 324:../../libs/libDaisy/src/dev/mpr121.h ****         MPR121_UPLIMIT      = 0x7D,
 325:../../libs/libDaisy/src/dev/mpr121.h ****         MPR121_LOWLIMIT     = 0x7E,
 326:../../libs/libDaisy/src/dev/mpr121.h ****         MPR121_TARGETLIMIT  = 0x7F,
 327:../../libs/libDaisy/src/dev/mpr121.h **** 
 328:../../libs/libDaisy/src/dev/mpr121.h ****         MPR121_GPIODIR    = 0x76,
 329:../../libs/libDaisy/src/dev/mpr121.h ****         MPR121_GPIOEN     = 0x77,
 330:../../libs/libDaisy/src/dev/mpr121.h ****         MPR121_GPIOSET    = 0x78,
 331:../../libs/libDaisy/src/dev/mpr121.h ****         MPR121_GPIOCLR    = 0x79,
 332:../../libs/libDaisy/src/dev/mpr121.h ****         MPR121_GPIOTOGGLE = 0x7A,
 333:../../libs/libDaisy/src/dev/mpr121.h **** 
 334:../../libs/libDaisy/src/dev/mpr121.h ****         MPR121_SOFTRESET = 0x80,
 335:../../libs/libDaisy/src/dev/mpr121.h ****     };
ARM GAS  C:\Users\skipi\AppData\Local\Temp\ccrSunJV.s 			page 17


 336:../../libs/libDaisy/src/dev/mpr121.h **** 
 337:../../libs/libDaisy/src/dev/mpr121.h ****   private:
 338:../../libs/libDaisy/src/dev/mpr121.h ****     Config    config_;
 339:../../libs/libDaisy/src/dev/mpr121.h ****     Transport transport_;
 340:../../libs/libDaisy/src/dev/mpr121.h ****     bool      transport_error_;
 341:../../libs/libDaisy/src/dev/mpr121.h **** 
 342:../../libs/libDaisy/src/dev/mpr121.h ****     /** Set the global transport_error_ bool */
 343:../../libs/libDaisy/src/dev/mpr121.h ****     void SetTransportErr(bool err) { transport_error_ |= err; }
 187              		.loc 7 343 10 is_stmt 1 view .LVU36
 188              	.LBE384:
 189              	.LBB388:
 190              	.LBB389:
  73:../../libs/libDaisy/src/dev/mpr121.h ****     }
 191              		.loc 7 73 39 is_stmt 0 view .LVU37
 192 0034 CDF80080 		str	r8, [sp]
 193 0038 0DF10B02 		add	r2, sp, #11
 194              	.LBE389:
 195              	.LBE388:
 196              	.LBB393:
 197              	.LBB385:
 198              		.loc 7 343 55 view .LVU38
 199 003c 94F83030 		ldrb	r3, [r4, #48]	@ zero_extendqisi2
 200              	.LBE385:
 201              	.LBE393:
 202              	.LBB394:
 203              	.LBB390:
  73:../../libs/libDaisy/src/dev/mpr121.h ****     }
 204              		.loc 7 73 39 view .LVU39
 205 0040 94F82C10 		ldrb	r1, [r4, #44]	@ zero_extendqisi2
 206              	.LBE390:
 207              	.LBE394:
 208              	.LBB395:
 209              	.LBB386:
 210              		.loc 7 343 55 view .LVU40
 211 0044 0028     		cmp	r0, #0
 212 0046 18BF     		it	ne
 213 0048 43F00103 		orrne	r3, r3, #1
 214              	.LBE386:
 215              	.LBE395:
 216              	.LBB396:
 217              	.LBB391:
  73:../../libs/libDaisy/src/dev/mpr121.h ****     }
 218              		.loc 7 73 39 view .LVU41
 219 004c 3046     		mov	r0, r6
 220              	.LVL8:
  73:../../libs/libDaisy/src/dev/mpr121.h ****     }
 221              		.loc 7 73 39 view .LVU42
 222              	.LBE391:
 223              	.LBE396:
 224              	.LBB397:
 225              	.LBB387:
 226              		.loc 7 343 55 view .LVU43
 227 004e 84F83030 		strb	r3, [r4, #48]
 228              	.LVL9:
 229              		.loc 7 343 55 view .LVU44
 230              	.LBE387:
 231              	.LBE397:
ARM GAS  C:\Users\skipi\AppData\Local\Temp\ccrSunJV.s 			page 18


 232              	.LBB398:
 233              	.LBI388:
  70:../../libs/libDaisy/src/dev/mpr121.h ****     {
 234              		.loc 7 70 10 is_stmt 1 view .LVU45
 235              	.LBB392:
  72:../../libs/libDaisy/src/dev/mpr121.h ****                != i2c_.ReceiveBlocking(config_.dev_addr, data, size, 10);
 236              		.loc 7 72 9 view .LVU46
  73:../../libs/libDaisy/src/dev/mpr121.h ****     }
 237              		.loc 7 73 39 is_stmt 0 view .LVU47
 238 0052 0123     		movs	r3, #1
 239 0054 FFF7FEFF 		bl	_ZN5daisy9I2CHandle15ReceiveBlockingEtPhtm
 240              	.LVL10:
  73:../../libs/libDaisy/src/dev/mpr121.h ****     }
 241              		.loc 7 73 39 view .LVU48
 242              	.LBE392:
 243              	.LBE398:
 244              	.LBB399:
 245              	.LBI399:
 246              		.loc 7 343 10 is_stmt 1 view .LVU49
 247              	.LBB400:
 248              		.loc 7 343 55 is_stmt 0 view .LVU50
 249 0058 94F83030 		ldrb	r3, [r4, #48]	@ zero_extendqisi2
 250 005c 0028     		cmp	r0, #0
 251 005e 18BF     		it	ne
 252 0060 43F00103 		orrne	r3, r3, #1
 253 0064 84F83030 		strb	r3, [r4, #48]
 254              	.LVL11:
 255              		.loc 7 343 55 view .LVU51
 256              	.LBE400:
 257              	.LBE399:
 270:../../libs/libDaisy/src/dev/mpr121.h ****         {
 258              		.loc 7 270 50 view .LVU52
 259 0068 A5F17303 		sub	r3, r5, #115
 270:../../libs/libDaisy/src/dev/mpr121.h ****         {
 260              		.loc 7 270 9 view .LVU53
 261 006c 072B     		cmp	r3, #7
 262 006e 01D9     		bls	.L5
 263 0070 4D45     		cmp	r5, r9
 264 0072 17D1     		bne	.L9
 265              	.L5:
 266              	.LVL12:
 267              	.LBB401:
 268              	.LBB402:
  66:../../libs/libDaisy/src/dev/mpr121.h ****     }
 269              		.loc 7 66 40 view .LVU54
 270 0074 0A23     		movs	r3, #10
 271 0076 03AA     		add	r2, sp, #12
 272 0078 3046     		mov	r0, r6
 273              	.LBE402:
 274              	.LBE401:
 281:../../libs/libDaisy/src/dev/mpr121.h ****         buff[1] = value;
 275              		.loc 7 281 17 view .LVU55
 276 007a 8DF80C50 		strb	r5, [sp, #12]
 277              	.LBB411:
 278              	.LBB403:
  66:../../libs/libDaisy/src/dev/mpr121.h ****     }
 279              		.loc 7 66 40 view .LVU56
ARM GAS  C:\Users\skipi\AppData\Local\Temp\ccrSunJV.s 			page 19


 280 007e 0093     		str	r3, [sp]
 281 0080 0223     		movs	r3, #2
 282              	.LBE403:
 283              	.LBE411:
 282:../../libs/libDaisy/src/dev/mpr121.h ****         SetTransportErr(transport_.Write(buff, 2));
 284              		.loc 7 282 17 view .LVU57
 285 0082 8DF80D70 		strb	r7, [sp, #13]
 286              	.LVL13:
 287              	.LBB412:
 288              	.LBI401:
  63:../../libs/libDaisy/src/dev/mpr121.h ****     {
 289              		.loc 7 63 10 is_stmt 1 view .LVU58
 290              	.LBB404:
  65:../../libs/libDaisy/src/dev/mpr121.h ****                != i2c_.TransmitBlocking(config_.dev_addr, data, size, 10);
 291              		.loc 7 65 9 view .LVU59
 292              	.L8:
  66:../../libs/libDaisy/src/dev/mpr121.h ****     }
 293              		.loc 7 66 40 is_stmt 0 view .LVU60
 294 0086 94F82C10 		ldrb	r1, [r4, #44]	@ zero_extendqisi2
 295 008a FFF7FEFF 		bl	_ZN5daisy9I2CHandle16TransmitBlockingEtPhtm
 296              	.LVL14:
  66:../../libs/libDaisy/src/dev/mpr121.h ****     }
 297              		.loc 7 66 40 view .LVU61
 298              	.LBE404:
 299              	.LBE412:
 300              	.LBB413:
 301              	.LBI413:
 302              		.loc 7 343 10 is_stmt 1 view .LVU62
 303              	.LBB414:
 304              		.loc 7 343 55 is_stmt 0 view .LVU63
 305 008e 94F83030 		ldrb	r3, [r4, #48]	@ zero_extendqisi2
 306 0092 0028     		cmp	r0, #0
 307 0094 18BF     		it	ne
 308 0096 43F00103 		orrne	r3, r3, #1
 309 009a 84F83030 		strb	r3, [r4, #48]
 310              	.LVL15:
 311              		.loc 7 343 55 view .LVU64
 312              	.LBE414:
 313              	.LBE413:
 292:../../libs/libDaisy/src/dev/mpr121.h **** 
 314              		.loc 7 292 5 view .LVU65
 315 009e 05B0     		add	sp, sp, #20
 316              		.cfi_remember_state
 317              		.cfi_def_cfa_offset 28
 318              		@ sp needed
 319 00a0 BDE8F083 		pop	{r4, r5, r6, r7, r8, r9, pc}
 320              	.LVL16:
 321              	.L9:
 322              		.cfi_restore_state
 323              	.LBB418:
 324              	.LBI418:
  63:../../libs/libDaisy/src/dev/mpr121.h ****     {
 325              		.loc 7 63 10 is_stmt 1 view .LVU66
 326              	.LBB419:
  65:../../libs/libDaisy/src/dev/mpr121.h ****                != i2c_.TransmitBlocking(config_.dev_addr, data, size, 10);
 327              		.loc 7 65 9 view .LVU67
  66:../../libs/libDaisy/src/dev/mpr121.h ****     }
ARM GAS  C:\Users\skipi\AppData\Local\Temp\ccrSunJV.s 			page 20


 328              		.loc 7 66 40 is_stmt 0 view .LVU68
 329 00a4 0223     		movs	r3, #2
 330 00a6 03AA     		add	r2, sp, #12
 331              	.LVL17:
  66:../../libs/libDaisy/src/dev/mpr121.h ****     }
 332              		.loc 7 66 40 view .LVU69
 333 00a8 CDF80080 		str	r8, [sp]
 334 00ac 3046     		mov	r0, r6
 335 00ae 94F82C10 		ldrb	r1, [r4, #44]	@ zero_extendqisi2
 336 00b2 FFF7FEFF 		bl	_ZN5daisy9I2CHandle16TransmitBlockingEtPhtm
 337              	.LVL18:
  66:../../libs/libDaisy/src/dev/mpr121.h ****     }
 338              		.loc 7 66 40 view .LVU70
 339              	.LBE419:
 340              	.LBE418:
 341              	.LBB420:
 342              	.LBI420:
 343              		.loc 7 343 10 is_stmt 1 view .LVU71
 344              	.LBE420:
 345              	.LBB424:
 346              	.LBB405:
  66:../../libs/libDaisy/src/dev/mpr121.h ****     }
 347              		.loc 7 66 40 is_stmt 0 view .LVU72
 348 00b6 CDF80080 		str	r8, [sp]
 349              	.LBE405:
 350              	.LBE424:
 351              	.LBB425:
 352              	.LBB421:
 353              		.loc 7 343 55 view .LVU73
 354 00ba 94F83030 		ldrb	r3, [r4, #48]	@ zero_extendqisi2
 355              	.LBE421:
 356              	.LBE425:
 357              	.LBB426:
 358              	.LBB406:
  66:../../libs/libDaisy/src/dev/mpr121.h ****     }
 359              		.loc 7 66 40 view .LVU74
 360 00be 03AA     		add	r2, sp, #12
 361 00c0 94F82C10 		ldrb	r1, [r4, #44]	@ zero_extendqisi2
 362              	.LBE406:
 363              	.LBE426:
 364              	.LBB427:
 365              	.LBB422:
 366              		.loc 7 343 55 view .LVU75
 367 00c4 0028     		cmp	r0, #0
 368 00c6 18BF     		it	ne
 369 00c8 43F00103 		orrne	r3, r3, #1
 370              	.LBE422:
 371              	.LBE427:
 372              	.LBB428:
 373              	.LBB407:
  66:../../libs/libDaisy/src/dev/mpr121.h ****     }
 374              		.loc 7 66 40 view .LVU76
 375 00cc 3046     		mov	r0, r6
 376              	.LVL19:
  66:../../libs/libDaisy/src/dev/mpr121.h ****     }
 377              		.loc 7 66 40 view .LVU77
 378              	.LBE407:
ARM GAS  C:\Users\skipi\AppData\Local\Temp\ccrSunJV.s 			page 21


 379              	.LBE428:
 281:../../libs/libDaisy/src/dev/mpr121.h ****         buff[1] = value;
 380              		.loc 7 281 17 view .LVU78
 381 00ce 8DF80C50 		strb	r5, [sp, #12]
 382              	.LBB429:
 383              	.LBB423:
 384              		.loc 7 343 55 view .LVU79
 385 00d2 84F83030 		strb	r3, [r4, #48]
 386              	.LVL20:
 387              		.loc 7 343 55 view .LVU80
 388              	.LBE423:
 389              	.LBE429:
 390              	.LBB430:
  63:../../libs/libDaisy/src/dev/mpr121.h ****     {
 391              		.loc 7 63 10 is_stmt 1 view .LVU81
 392              	.LBB408:
  65:../../libs/libDaisy/src/dev/mpr121.h ****                != i2c_.TransmitBlocking(config_.dev_addr, data, size, 10);
 393              		.loc 7 65 9 view .LVU82
  66:../../libs/libDaisy/src/dev/mpr121.h ****     }
 394              		.loc 7 66 40 is_stmt 0 view .LVU83
 395 00d6 0223     		movs	r3, #2
 396              	.LBE408:
 397              	.LBE430:
 282:../../libs/libDaisy/src/dev/mpr121.h ****         SetTransportErr(transport_.Write(buff, 2));
 398              		.loc 7 282 17 view .LVU84
 399 00d8 8DF80D70 		strb	r7, [sp, #13]
 400              	.LBB431:
 401              	.LBB409:
  66:../../libs/libDaisy/src/dev/mpr121.h ****     }
 402              		.loc 7 66 40 view .LVU85
 403 00dc FFF7FEFF 		bl	_ZN5daisy9I2CHandle16TransmitBlockingEtPhtm
 404              	.LVL21:
  66:../../libs/libDaisy/src/dev/mpr121.h ****     }
 405              		.loc 7 66 40 view .LVU86
 406              	.LBE409:
 407              	.LBE431:
 408              	.LBB432:
 409              	.LBB433:
 410 00e0 CDF80080 		str	r8, [sp]
 411              	.LBE433:
 412              	.LBE432:
 413              	.LBB438:
 414              	.LBB410:
 415 00e4 0546     		mov	r5, r0
 416              	.LVL22:
  66:../../libs/libDaisy/src/dev/mpr121.h ****     }
 417              		.loc 7 66 40 view .LVU87
 418              	.LBE410:
 419              	.LBE438:
 420              	.LBB439:
 421              		.loc 7 343 10 is_stmt 1 view .LVU88
 422              	.LBB415:
 423              		.loc 7 343 55 is_stmt 0 view .LVU89
 424 00e6 94F83010 		ldrb	r1, [r4, #48]	@ zero_extendqisi2
 425              	.LBE415:
 426              	.LBE439:
 427              	.LBB440:
ARM GAS  C:\Users\skipi\AppData\Local\Temp\ccrSunJV.s 			page 22


 428              	.LBB434:
  66:../../libs/libDaisy/src/dev/mpr121.h ****     }
 429              		.loc 7 66 40 view .LVU90
 430 00ea 03AA     		add	r2, sp, #12
 431              	.LBE434:
 432              	.LBE440:
 289:../../libs/libDaisy/src/dev/mpr121.h ****             SetTransportErr(transport_.Write(buff, 2));
 433              		.loc 7 289 21 view .LVU91
 434 00ec 9DF80B30 		ldrb	r3, [sp, #11]	@ zero_extendqisi2
 435              	.LBB441:
 436              	.LBB435:
  66:../../libs/libDaisy/src/dev/mpr121.h ****     }
 437              		.loc 7 66 40 view .LVU92
 438 00f0 3046     		mov	r0, r6
 439              	.LVL23:
  66:../../libs/libDaisy/src/dev/mpr121.h ****     }
 440              		.loc 7 66 40 view .LVU93
 441              	.LBE435:
 442              	.LBE441:
 443              	.LBB442:
 444              	.LBB416:
 445              		.loc 7 343 55 view .LVU94
 446 00f2 002D     		cmp	r5, #0
 447 00f4 18BF     		it	ne
 448 00f6 41F00101 		orrne	r1, r1, #1
 449              	.LBE416:
 450              	.LBE442:
 288:../../libs/libDaisy/src/dev/mpr121.h ****             buff[1] = ecr_backup;
 451              		.loc 7 288 21 view .LVU95
 452 00fa 8DF80C90 		strb	r9, [sp, #12]
 289:../../libs/libDaisy/src/dev/mpr121.h ****             SetTransportErr(transport_.Write(buff, 2));
 453              		.loc 7 289 21 view .LVU96
 454 00fe 8DF80D30 		strb	r3, [sp, #13]
 455              	.LBB443:
 456              	.LBB436:
  66:../../libs/libDaisy/src/dev/mpr121.h ****     }
 457              		.loc 7 66 40 view .LVU97
 458 0102 0223     		movs	r3, #2
 459              	.LBE436:
 460              	.LBE443:
 461              	.LBB444:
 462              	.LBB417:
 463              		.loc 7 343 55 view .LVU98
 464 0104 84F83010 		strb	r1, [r4, #48]
 465              	.LVL24:
 466              		.loc 7 343 55 view .LVU99
 467              	.LBE417:
 468              	.LBE444:
 469              	.LBB445:
 470              	.LBI432:
  63:../../libs/libDaisy/src/dev/mpr121.h ****     {
 471              		.loc 7 63 10 is_stmt 1 view .LVU100
 472              	.LBB437:
  65:../../libs/libDaisy/src/dev/mpr121.h ****                != i2c_.TransmitBlocking(config_.dev_addr, data, size, 10);
 473              		.loc 7 65 9 view .LVU101
 474 0108 BDE7     		b	.L8
 475              	.LBE437:
ARM GAS  C:\Users\skipi\AppData\Local\Temp\ccrSunJV.s 			page 23


 476              	.LBE445:
 477              		.cfi_endproc
 478              	.LFE5277:
 480 010a 00BF     		.section	.rodata.main.str1.4,"aMS",%progbits,1
 481              		.align	2
 482              	.LC0:
 483 0000 4D505231 		.ascii	"MPR121 not found, check wiring?\000"
 483      3231206E 
 483      6F742066 
 483      6F756E64 
 483      2C206368 
 484              		.align	2
 485              	.LC1:
 486 0020 4D505231 		.ascii	"MPR121 found!\000"
 486      32312066 
 486      6F756E64 
 486      2100
 487 002e 0000     		.align	2
 488              	.LC2:
 489 0030 2D2D2D2D 		.ascii	"---------------------------------------------------"
 489      2D2D2D2D 
 489      2D2D2D2D 
 489      2D2D2D2D 
 489      2D2D2D2D 
 490 0063 2D2D2D2D 		.ascii	"-----------------------------\000"
 490      2D2D2D2D 
 490      2D2D2D2D 
 490      2D2D2D2D 
 490      2D2D2D2D 
 491 0081 000000   		.align	2
 492              	.LC3:
 493 0084 43415020 		.ascii	"CAP 0 touched\000"
 493      3020746F 
 493      75636865 
 493      6400
 494 0092 0000     		.align	2
 495              	.LC4:
 496 0094 7C2000   		.ascii	"| \000"
 497 0097 00       		.align	2
 498              	.LC5:
 499 0098 7C204261 		.ascii	"| Baseline Touched Value : %d |\000"
 499      73656C69 
 499      6E652054 
 499      6F756368 
 499      65642056 
 500              		.align	2
 501              	.LC6:
 502 00b8 7C204669 		.ascii	"| Filtered Touched Value : %d |\000"
 502      6C746572 
 502      65642054 
 502      6F756368 
 502      65642056 
 503              		.align	2
 504              	.LC7:
 505 00d8 7C204469 		.ascii	"| Difference Touched Value : %d |\000"
 505      66666572 
 505      656E6365 
ARM GAS  C:\Users\skipi\AppData\Local\Temp\ccrSunJV.s 			page 24


 505      20546F75 
 505      63686564 
 506 00fa 0000     		.align	2
 507              	.LC8:
 508 00fc 43415020 		.ascii	"CAP 0 released\000"
 508      30207265 
 508      6C656173 
 508      656400
 509 010b 00       		.align	2
 510              	.LC9:
 511 010c 2000     		.ascii	" \000"
 512 010e 0000     		.align	2
 513              	.LC10:
 514 0110 42617365 		.ascii	"Baseline Untouched Value : %d\000"
 514      6C696E65 
 514      20556E74 
 514      6F756368 
 514      65642056 
 515 012e 0000     		.align	2
 516              	.LC11:
 517 0130 46696C74 		.ascii	"Filtered Untouched Value : %d\000"
 517      65726564 
 517      20556E74 
 517      6F756368 
 517      65642056 
 518 014e 0000     		.align	2
 519              	.LC12:
 520 0150 44696666 		.ascii	"Difference Untouched Value : %d\000"
 520      6572656E 
 520      63652055 
 520      6E746F75 
 520      63686564 
 521              		.section	.text.startup.main,"ax",%progbits
 522              		.align	1
 523              		.p2align 2,,3
 524              		.global	main
 525              		.syntax unified
 526              		.thumb
 527              		.thumb_func
 528              		.fpu fpv5-d16
 530              	main:
 531              	.LFB4840:
 532              		.file 8 "main0.cpp"
   1:main0.cpp     **** #include "../../libs/libDaisy/src/daisy_seed.h"
   2:main0.cpp     **** #include "../../libs/DaisySP/Source/daisysp.h"
   3:main0.cpp     **** 
   4:main0.cpp     **** #ifndef _BV // used to mask registers' bits related to the channel
   5:main0.cpp     **** #define _BV(bit) (1 << (bit))
   6:main0.cpp     **** #endif
   7:main0.cpp     **** 
   8:main0.cpp     **** using namespace daisy;
   9:main0.cpp     **** using namespace daisysp;
  10:main0.cpp     **** //--OLD ARDUINO: Adafruit_MPR121 cap = Adafruit_MPR121();
  11:main0.cpp     **** 
  12:main0.cpp     **** daisy::Mpr121I2C::Config mpr121ObjConf; // creates config for mpr121 (constructor sets all to deafu
  13:main0.cpp     **** 
  14:main0.cpp     **** daisy::Mpr121I2C cap; // creates object for mpr121
ARM GAS  C:\Users\skipi\AppData\Local\Temp\ccrSunJV.s 			page 25


  15:main0.cpp     **** 
  16:main0.cpp     **** DaisySeed hw;
  17:main0.cpp     **** 
  18:main0.cpp     **** uint16_t lasttouched = 0;
  19:main0.cpp     **** uint16_t currtouched = 0;
  20:main0.cpp     **** 
  21:main0.cpp     **** bool touched = false; // used to check if the cap was touched or not
  22:main0.cpp     **** 
  23:main0.cpp     **** int main()
  24:main0.cpp     **** {
 533              		.loc 8 24 1 view -0
 534              		.cfi_startproc
 535              		@ args = 0, pretend = 0, frame = 64
 536              		@ frame_needed = 0, uses_anonymous_args = 0
  25:main0.cpp     **** 
  26:main0.cpp     ****   float sample_rate;
 537              		.loc 8 26 3 view .LVU103
  27:main0.cpp     ****   hw.Configure();
 538              		.loc 8 27 3 view .LVU104
  24:main0.cpp     **** 
 539              		.loc 8 24 1 is_stmt 0 view .LVU105
 540 0000 2DE9F04F 		push	{r4, r5, r6, r7, r8, r9, r10, fp, lr}
 541              		.cfi_def_cfa_offset 36
 542              		.cfi_offset 4, -36
 543              		.cfi_offset 5, -32
 544              		.cfi_offset 6, -28
 545              		.cfi_offset 7, -24
 546              		.cfi_offset 8, -20
 547              		.cfi_offset 9, -16
 548              		.cfi_offset 10, -12
 549              		.cfi_offset 11, -8
 550              		.cfi_offset 14, -4
 551              		.loc 8 27 15 view .LVU106
 552 0004 C948     		ldr	r0, .L25
  24:main0.cpp     **** 
 553              		.loc 8 24 1 view .LVU107
 554 0006 95B0     		sub	sp, sp, #84
 555              		.cfi_def_cfa_offset 120
 556              		.loc 8 27 15 view .LVU108
 557 0008 FFF7FEFF 		bl	_ZN5daisy9DaisySeed9ConfigureEv
 558              	.LVL25:
  28:main0.cpp     ****   hw.Init();
 559              		.loc 8 28 3 is_stmt 1 view .LVU109
 560              		.loc 8 28 10 is_stmt 0 view .LVU110
 561 000c 0021     		movs	r1, #0
 562 000e C748     		ldr	r0, .L25
 563 0010 0EAE     		add	r6, sp, #56
 564 0012 FFF7FEFF 		bl	_ZN5daisy9DaisySeed4InitEb
 565              	.LVL26:
  29:main0.cpp     ****   hw.SetAudioBlockSize(4);
 566              		.loc 8 29 3 is_stmt 1 view .LVU111
 567              		.loc 8 29 23 is_stmt 0 view .LVU112
 568 0016 0421     		movs	r1, #4
 569 0018 C448     		ldr	r0, .L25
 570              	.LBB636:
 571              	.LBB637:
 123:../../libs/libDaisy/src/dev/mpr121.h **** 
ARM GAS  C:\Users\skipi\AppData\Local\Temp\ccrSunJV.s 			page 26


 572              		.loc 7 123 9 view .LVU113
 573 001a 3546     		mov	r5, r6
 574              	.LBE637:
 575              	.LBE636:
 576              		.loc 8 29 23 view .LVU114
 577 001c FFF7FEFF 		bl	_ZN5daisy9DaisySeed17SetAudioBlockSizeEj
 578              	.LVL27:
  30:main0.cpp     ****   sample_rate = hw.AudioSampleRate();
 579              		.loc 8 30 3 is_stmt 1 view .LVU115
 580 0020 C34C     		ldr	r4, .L25+4
 581              		.loc 8 30 35 is_stmt 0 view .LVU116
 582 0022 C248     		ldr	r0, .L25
 583 0024 0DF11008 		add	r8, sp, #16
 584 0028 FFF7FEFF 		bl	_ZN5daisy9DaisySeed15AudioSampleRateEv
 585              	.LVL28:
  31:main0.cpp     **** 
  32:main0.cpp     ****   hw.StartLog(true);
 586              		.loc 8 32 3 is_stmt 1 view .LVU117
 587              	.LBB821:
 588              	.LBI821:
  23:../../libs/libDaisy/src/daisy_seed.h **** 
  24:../../libs/libDaisy/src/daisy_seed.h ****     /** This function used to provide a pre-initialization configuraiton 
  25:../../libs/libDaisy/src/daisy_seed.h ****      *  it has since been deprecated, and does nothing.
  26:../../libs/libDaisy/src/daisy_seed.h ****      */
  27:../../libs/libDaisy/src/daisy_seed.h ****     void Configure();
  28:../../libs/libDaisy/src/daisy_seed.h **** 
  29:../../libs/libDaisy/src/daisy_seed.h ****     /** 
  30:../../libs/libDaisy/src/daisy_seed.h ****     Initializes the Daisy Seed and the following peripherals:
  31:../../libs/libDaisy/src/daisy_seed.h ****     SDRAM, QSPI, 24-bit 48kHz Audio via AK4556, Internal USB,
  32:../../libs/libDaisy/src/daisy_seed.h ****     as well as the built-in LED and Testpoint.
  33:../../libs/libDaisy/src/daisy_seed.h **** 
  34:../../libs/libDaisy/src/daisy_seed.h ****     ADCs, DACs, and other special peripherals (such as I2C, SPI, etc.)
  35:../../libs/libDaisy/src/daisy_seed.h ****     can be initialized using their specific initializers within libdaisy
  36:../../libs/libDaisy/src/daisy_seed.h ****     for a specific application.
  37:../../libs/libDaisy/src/daisy_seed.h ****     */
  38:../../libs/libDaisy/src/daisy_seed.h ****     void Init(bool boost = false);
  39:../../libs/libDaisy/src/daisy_seed.h **** 
  40:../../libs/libDaisy/src/daisy_seed.h ****     /** 
  41:../../libs/libDaisy/src/daisy_seed.h ****     Deinitializes all peripherals automatically handled by `Init`.
  42:../../libs/libDaisy/src/daisy_seed.h ****     */
  43:../../libs/libDaisy/src/daisy_seed.h ****     void DeInit();
  44:../../libs/libDaisy/src/daisy_seed.h **** 
  45:../../libs/libDaisy/src/daisy_seed.h ****     /** 
  46:../../libs/libDaisy/src/daisy_seed.h ****     Wait some ms before going on.
  47:../../libs/libDaisy/src/daisy_seed.h ****     \param del Delay time in ms.
  48:../../libs/libDaisy/src/daisy_seed.h ****     */
  49:../../libs/libDaisy/src/daisy_seed.h ****     void DelayMs(size_t del);
  50:../../libs/libDaisy/src/daisy_seed.h **** 
  51:../../libs/libDaisy/src/daisy_seed.h ****     /** 
  52:../../libs/libDaisy/src/daisy_seed.h ****     Returns the gpio_pin corresponding to the index 0-31.
  53:../../libs/libDaisy/src/daisy_seed.h ****     For the given GPIO on the Daisy Seed (labeled 1-32 in docs).
  54:../../libs/libDaisy/src/daisy_seed.h ****     */
  55:../../libs/libDaisy/src/daisy_seed.h ****     static Pin GetPin(uint8_t pin_idx);
  56:../../libs/libDaisy/src/daisy_seed.h **** 
  57:../../libs/libDaisy/src/daisy_seed.h ****     /** Begins the audio for the seeds builtin audio.
  58:../../libs/libDaisy/src/daisy_seed.h ****     the specified callback will get called whenever
  59:../../libs/libDaisy/src/daisy_seed.h ****     new data is ready to be prepared.
ARM GAS  C:\Users\skipi\AppData\Local\Temp\ccrSunJV.s 			page 27


  60:../../libs/libDaisy/src/daisy_seed.h ****     */
  61:../../libs/libDaisy/src/daisy_seed.h ****     void StartAudio(AudioHandle::InterleavingAudioCallback cb);
  62:../../libs/libDaisy/src/daisy_seed.h **** 
  63:../../libs/libDaisy/src/daisy_seed.h ****     /** Begins the audio for the seeds builtin audio.
  64:../../libs/libDaisy/src/daisy_seed.h ****     the specified callback will get called whenever
  65:../../libs/libDaisy/src/daisy_seed.h ****     new data is ready to be prepared.
  66:../../libs/libDaisy/src/daisy_seed.h ****     This will use the newer non-interleaved callback.
  67:../../libs/libDaisy/src/daisy_seed.h ****     */
  68:../../libs/libDaisy/src/daisy_seed.h ****     void StartAudio(AudioHandle::AudioCallback cb);
  69:../../libs/libDaisy/src/daisy_seed.h **** 
  70:../../libs/libDaisy/src/daisy_seed.h ****     /** Changes to a new interleaved callback
  71:../../libs/libDaisy/src/daisy_seed.h ****      */
  72:../../libs/libDaisy/src/daisy_seed.h ****     void ChangeAudioCallback(AudioHandle::InterleavingAudioCallback cb);
  73:../../libs/libDaisy/src/daisy_seed.h **** 
  74:../../libs/libDaisy/src/daisy_seed.h ****     /** Changes to a new multichannel callback
  75:../../libs/libDaisy/src/daisy_seed.h ****      */
  76:../../libs/libDaisy/src/daisy_seed.h ****     void ChangeAudioCallback(AudioHandle::AudioCallback cb);
  77:../../libs/libDaisy/src/daisy_seed.h **** 
  78:../../libs/libDaisy/src/daisy_seed.h ****     /** Stops the audio if it is running. */
  79:../../libs/libDaisy/src/daisy_seed.h ****     void StopAudio();
  80:../../libs/libDaisy/src/daisy_seed.h **** 
  81:../../libs/libDaisy/src/daisy_seed.h ****     /** Updates the Audio Sample Rate, and reinitializes.
  82:../../libs/libDaisy/src/daisy_seed.h ****      ** Audio must be stopped for this to work.
  83:../../libs/libDaisy/src/daisy_seed.h ****      */
  84:../../libs/libDaisy/src/daisy_seed.h ****     void SetAudioSampleRate(SaiHandle::Config::SampleRate samplerate);
  85:../../libs/libDaisy/src/daisy_seed.h **** 
  86:../../libs/libDaisy/src/daisy_seed.h ****     /** Returns the audio sample rate in Hz as a floating point number.
  87:../../libs/libDaisy/src/daisy_seed.h ****      */
  88:../../libs/libDaisy/src/daisy_seed.h ****     float AudioSampleRate();
  89:../../libs/libDaisy/src/daisy_seed.h **** 
  90:../../libs/libDaisy/src/daisy_seed.h ****     /** Sets the number of samples processed per channel by the audio callback.
  91:../../libs/libDaisy/src/daisy_seed.h ****      */
  92:../../libs/libDaisy/src/daisy_seed.h ****     void SetAudioBlockSize(size_t blocksize);
  93:../../libs/libDaisy/src/daisy_seed.h **** 
  94:../../libs/libDaisy/src/daisy_seed.h ****     /** Returns the number of samples per channel in a block of audio. */
  95:../../libs/libDaisy/src/daisy_seed.h ****     size_t AudioBlockSize();
  96:../../libs/libDaisy/src/daisy_seed.h **** 
  97:../../libs/libDaisy/src/daisy_seed.h ****     /** Returns the rate in Hz that the Audio callback is called */
  98:../../libs/libDaisy/src/daisy_seed.h ****     float AudioCallbackRate() const;
  99:../../libs/libDaisy/src/daisy_seed.h **** 
 100:../../libs/libDaisy/src/daisy_seed.h ****     /** Returns the SAI Handle for the Daisy Seed 
 101:../../libs/libDaisy/src/daisy_seed.h ****      *  This can be useful when adding a secondary codec,
 102:../../libs/libDaisy/src/daisy_seed.h ****      *  the result of this function can be passed to the audio reinit 
 103:../../libs/libDaisy/src/daisy_seed.h ****      *  with an SAI2 configuration
 104:../../libs/libDaisy/src/daisy_seed.h ****      */
 105:../../libs/libDaisy/src/daisy_seed.h ****     const SaiHandle& AudioSaiHandle() const;
 106:../../libs/libDaisy/src/daisy_seed.h **** 
 107:../../libs/libDaisy/src/daisy_seed.h ****     /** Sets the state of the built in LED
 108:../../libs/libDaisy/src/daisy_seed.h ****      */
 109:../../libs/libDaisy/src/daisy_seed.h ****     void SetLed(bool state);
 110:../../libs/libDaisy/src/daisy_seed.h **** 
 111:../../libs/libDaisy/src/daisy_seed.h ****     /** Sets the state of the test point near pin 10
 112:../../libs/libDaisy/src/daisy_seed.h ****      */
 113:../../libs/libDaisy/src/daisy_seed.h ****     void SetTestPoint(bool state);
 114:../../libs/libDaisy/src/daisy_seed.h **** 
 115:../../libs/libDaisy/src/daisy_seed.h ****     /** Print formatted debug log message
 116:../../libs/libDaisy/src/daisy_seed.h ****      */
ARM GAS  C:\Users\skipi\AppData\Local\Temp\ccrSunJV.s 			page 28


 117:../../libs/libDaisy/src/daisy_seed.h ****     template <typename... VA>
 118:../../libs/libDaisy/src/daisy_seed.h ****     static void Print(const char* format, VA... va)
 119:../../libs/libDaisy/src/daisy_seed.h ****     {
 120:../../libs/libDaisy/src/daisy_seed.h ****         Log::Print(format, va...);
 121:../../libs/libDaisy/src/daisy_seed.h ****     }
 122:../../libs/libDaisy/src/daisy_seed.h **** 
 123:../../libs/libDaisy/src/daisy_seed.h ****     /** Print formatted debug log message with automatic line termination
 124:../../libs/libDaisy/src/daisy_seed.h ****     */
 125:../../libs/libDaisy/src/daisy_seed.h ****     template <typename... VA>
 126:../../libs/libDaisy/src/daisy_seed.h ****     static void PrintLine(const char* format, VA... va)
 127:../../libs/libDaisy/src/daisy_seed.h ****     {
 128:../../libs/libDaisy/src/daisy_seed.h ****         Log::PrintLine(format, va...);
 129:../../libs/libDaisy/src/daisy_seed.h ****     }
 130:../../libs/libDaisy/src/daisy_seed.h **** 
 131:../../libs/libDaisy/src/daisy_seed.h ****     /** Start the logging session. Optionally wait for terminal connection before proceeding.
 132:../../libs/libDaisy/src/daisy_seed.h ****     */
 133:../../libs/libDaisy/src/daisy_seed.h ****     static void StartLog(bool wait_for_pc = false)
 589              		.loc 1 133 17 view .LVU118
 590              	.LBB822:
 134:../../libs/libDaisy/src/daisy_seed.h ****     {
 135:../../libs/libDaisy/src/daisy_seed.h ****         Log::StartLog(wait_for_pc);
 591              		.loc 1 135 9 view .LVU119
 592              		.loc 1 135 22 is_stmt 0 view .LVU120
 593 002c 0120     		movs	r0, #1
 594 002e FFF7FEFF 		bl	_ZN5daisy6LoggerILNS_17LoggerDestinationE1EE8StartLogEb
 595              	.LVL29:
 596              		.loc 1 135 22 view .LVU121
 597              	.LBE822:
 598              	.LBE821:
  33:main0.cpp     **** 
  34:main0.cpp     ****   if (cap.Init(mpr121ObjConf) != daisy::Mpr121I2C::Result::OK)
 599              		.loc 8 34 3 is_stmt 1 view .LVU122
 600              	.LBB823:
 601              	.LBB818:
 123:../../libs/libDaisy/src/dev/mpr121.h **** 
 602              		.loc 7 123 9 is_stmt 0 view .LVU123
 603 0032 B646     		mov	lr, r6
 604              	.LBB638:
 605              	.LBB639:
  49:../../libs/libDaisy/src/dev/mpr121.h **** 
 606              		.loc 7 49 17 view .LVU124
 607 0034 C246     		mov	r10, r8
  52:../../libs/libDaisy/src/dev/mpr121.h ****         i2c_conf.periph = config.periph;
 608              		.loc 7 52 25 view .LVU125
 609 0036 4FF00009 		mov	r9, #0
 610 003a 0FCC     		ldmia	r4!, {r0, r1, r2, r3}
 611 003c 0FC6     		stmia	r6!, {r0, r1, r2, r3}
 612 003e 94E80300 		ldm	r4, {r0, r1}
 613              	.LBE639:
 614              	.LBE638:
 123:../../libs/libDaisy/src/dev/mpr121.h **** 
 615              		.loc 7 123 9 view .LVU126
 616 0042 BC4C     		ldr	r4, .L25+8
 617 0044 46F8040B 		str	r0, [r6], #4
 618 0048 A446     		mov	ip, r4
 619 004a 3180     		strh	r1, [r6]	@ movhi
 620              	.LBE818:
ARM GAS  C:\Users\skipi\AppData\Local\Temp\ccrSunJV.s 			page 29


 621              	.LBI636:
 121:../../libs/libDaisy/src/dev/mpr121.h ****     {
 622              		.loc 7 121 12 is_stmt 1 view .LVU127
 623 004c A346     		mov	fp, r4
 624              	.LBB819:
 625              	.LBB652:
 626              	.LBB649:
  49:../../libs/libDaisy/src/dev/mpr121.h **** 
 627              		.loc 7 49 17 is_stmt 0 view .LVU128
 628 004e 04F11C07 		add	r7, r4, #28
 629              	.LBE649:
 630              	.LBE652:
 139:../../libs/libDaisy/src/dev/mpr121.h ****         WriteRegister(MPR121_MHDR, 0x01);
 631              		.loc 7 139 22 view .LVU129
 632 0052 4126     		movs	r6, #65
 123:../../libs/libDaisy/src/dev/mpr121.h **** 
 633              		.loc 7 123 9 view .LVU130
 634 0054 BEE80F00 		ldmia	lr!, {r0, r1, r2, r3}
 635 0058 ACE80F00 		stmia	ip!, {r0, r1, r2, r3}
 636 005c 9EE80300 		ldm	lr, {r0, r1}
 637 0060 4CF8040B 		str	r0, [ip], #4
 638 0064 ACF80010 		strh	r1, [ip]	@ movhi
 639              	.LVL30:
 123:../../libs/libDaisy/src/dev/mpr121.h **** 
 640              		.loc 7 123 9 view .LVU131
 641 0068 8446     		mov	ip, r0
 642 006a BBE80F00 		ldmia	fp!, {r0, r1, r2, r3}
 643 006e A8E80F00 		stmia	r8!, {r0, r1, r2, r3}
 644              	.LBB653:
 645              	.LBB650:
 646              	.LBB640:
 647              	.LBB641:
 648              		.file 9 "../../libs/libDaisy/src/per/i2c.h"
   1:../../libs/libDaisy/src/per/i2c.h **** #pragma once
   2:../../libs/libDaisy/src/per/i2c.h **** #include "util/hal_map.h"
   3:../../libs/libDaisy/src/per/i2c.h **** #include "daisy_core.h"
   4:../../libs/libDaisy/src/per/i2c.h **** 
   5:../../libs/libDaisy/src/per/i2c.h **** namespace daisy
   6:../../libs/libDaisy/src/per/i2c.h **** {
   7:../../libs/libDaisy/src/per/i2c.h **** /** A handle for interacting with an I2C peripheral. This is a dumb
   8:../../libs/libDaisy/src/per/i2c.h ****  *  gateway that internally points to one of the four I2C peripherals
   9:../../libs/libDaisy/src/per/i2c.h ****  *  after it was initialised. It can then be copied and passed around.
  10:../../libs/libDaisy/src/per/i2c.h ****  *  Use an I2CHandle like this:
  11:../../libs/libDaisy/src/per/i2c.h ****  *  
  12:../../libs/libDaisy/src/per/i2c.h ****  *      // setup the configuration
  13:../../libs/libDaisy/src/per/i2c.h ****  *      I2CHandle::Config i2c_conf;
  14:../../libs/libDaisy/src/per/i2c.h ****  *      i2c_conf.periph = I2CHandle::Config::Peripheral::I2C_1;
  15:../../libs/libDaisy/src/per/i2c.h ****  *      i2c_conf.speed  = I2CHandle::Config::Speed::I2C_400KHZ;
  16:../../libs/libDaisy/src/per/i2c.h ****  *      i2c_conf.mode   = I2CHandle::Config::Mode::Master;
  17:../../libs/libDaisy/src/per/i2c.h ****  *      i2c_conf.pin_config.scl  = {DSY_GPIOB, 8};
  18:../../libs/libDaisy/src/per/i2c.h ****  *      i2c_conf.pin_config.sda  = {DSY_GPIOB, 9};
  19:../../libs/libDaisy/src/per/i2c.h ****  *      // initialise the peripheral
  20:../../libs/libDaisy/src/per/i2c.h ****  *      I2CHandle i2c;
  21:../../libs/libDaisy/src/per/i2c.h ****  *      i2c.Init(i2c_conf);
  22:../../libs/libDaisy/src/per/i2c.h ****  *      // now i2c points to the corresponding peripheral and can be used.
  23:../../libs/libDaisy/src/per/i2c.h ****  *      i2c.TransmitBlocking( ... );
  24:../../libs/libDaisy/src/per/i2c.h ****  */
ARM GAS  C:\Users\skipi\AppData\Local\Temp\ccrSunJV.s 			page 30


  25:../../libs/libDaisy/src/per/i2c.h **** class I2CHandle
  26:../../libs/libDaisy/src/per/i2c.h **** {
  27:../../libs/libDaisy/src/per/i2c.h ****   public:
  28:../../libs/libDaisy/src/per/i2c.h ****     /** Contains settings for initialising an I2C interface. */
  29:../../libs/libDaisy/src/per/i2c.h ****     struct Config
 649              		.loc 9 29 12 view .LVU132
 650 0072 4FF01003 		mov	r3, #16
 651 0076 C8F800C0 		str	ip, [r8]
 652              	.LBE641:
 653              	.LBE640:
  49:../../libs/libDaisy/src/dev/mpr121.h **** 
 654              		.loc 7 49 17 view .LVU133
 655 007a 0490     		str	r0, [sp, #16]
 656              	.LBB647:
 657              	.LBB645:
 658              		.loc 9 29 12 view .LVU134
 659 007c 8DF83430 		strb	r3, [sp, #52]
 660              	.LBE645:
 661              	.LBE647:
  56:../../libs/libDaisy/src/dev/mpr121.h ****         i2c_conf.pin_config.sda = config.sda;
 662              		.loc 7 56 33 view .LVU135
 663 0080 BDF81830 		ldrh	r3, [sp, #24]
  53:../../libs/libDaisy/src/dev/mpr121.h ****         i2c_conf.speed  = config.speed;
 664              		.loc 7 53 25 view .LVU136
 665 0084 0990     		str	r0, [sp, #36]
  56:../../libs/libDaisy/src/dev/mpr121.h ****         i2c_conf.pin_config.sda = config.sda;
 666              		.loc 7 56 33 view .LVU137
 667 0086 ADF82830 		strh	r3, [sp, #40]	@ movhi
  57:../../libs/libDaisy/src/dev/mpr121.h **** 
 668              		.loc 7 57 33 view .LVU138
 669 008a BDF81A30 		ldrh	r3, [sp, #26]
  49:../../libs/libDaisy/src/dev/mpr121.h **** 
 670              		.loc 7 49 17 view .LVU139
 671 008e 0591     		str	r1, [sp, #20]
  54:../../libs/libDaisy/src/dev/mpr121.h **** 
 672              		.loc 7 54 25 view .LVU140
 673 0090 0B91     		str	r1, [sp, #44]
  57:../../libs/libDaisy/src/dev/mpr121.h **** 
 674              		.loc 7 57 33 view .LVU141
 675 0092 ADF82A30 		strh	r3, [sp, #42]	@ movhi
  52:../../libs/libDaisy/src/dev/mpr121.h ****         i2c_conf.periph = config.periph;
 676              		.loc 7 52 25 view .LVU142
 677 0096 CDF83090 		str	r9, [sp, #48]
 678              	.LVL31:
  52:../../libs/libDaisy/src/dev/mpr121.h ****         i2c_conf.periph = config.periph;
 679              		.loc 7 52 25 view .LVU143
 680              	.LBE650:
 681              	.LBI638:
  47:../../libs/libDaisy/src/dev/mpr121.h ****     {
 682              		.loc 7 47 17 is_stmt 1 view .LVU144
 683              	.LBB651:
  49:../../libs/libDaisy/src/dev/mpr121.h **** 
 684              		.loc 7 49 9 view .LVU145
  49:../../libs/libDaisy/src/dev/mpr121.h **** 
 685              		.loc 7 49 17 is_stmt 0 view .LVU146
 686 009a BAE80F00 		ldmia	r10!, {r0, r1, r2, r3}
 687              	.LVL32:
ARM GAS  C:\Users\skipi\AppData\Local\Temp\ccrSunJV.s 			page 31


  49:../../libs/libDaisy/src/dev/mpr121.h **** 
 688              		.loc 7 49 17 view .LVU147
 689 009e 0FC7     		stmia	r7!, {r0, r1, r2, r3}
  59:../../libs/libDaisy/src/dev/mpr121.h ****     }
 690              		.loc 7 59 50 view .LVU148
 691 00a0 09A9     		add	r1, sp, #36
  49:../../libs/libDaisy/src/dev/mpr121.h **** 
 692              		.loc 7 49 17 view .LVU149
 693 00a2 87F800C0 		strb	ip, [r7]
  51:../../libs/libDaisy/src/dev/mpr121.h ****         i2c_conf.mode   = I2CHandle::Config::Mode::I2C_MASTER;
 694              		.loc 7 51 9 is_stmt 1 view .LVU150
 695              	.LVL33:
 696              	.LBB648:
 697              	.LBI640:
 698              		.loc 9 29 12 view .LVU151
 699              	.LBB646:
 700              	.LBB642:
 701              	.LBI642:
  30:../../libs/libDaisy/src/per/i2c.h ****     {
  31:../../libs/libDaisy/src/per/i2c.h ****         /** Specifies whether the interface will operate in master or slave mode. */
  32:../../libs/libDaisy/src/per/i2c.h ****         enum class Mode
  33:../../libs/libDaisy/src/per/i2c.h ****         {
  34:../../libs/libDaisy/src/per/i2c.h ****             I2C_MASTER,
  35:../../libs/libDaisy/src/per/i2c.h ****             I2C_SLAVE,
  36:../../libs/libDaisy/src/per/i2c.h ****         };
  37:../../libs/libDaisy/src/per/i2c.h **** 
  38:../../libs/libDaisy/src/per/i2c.h ****         /** Specifices the internal peripheral to use (these are mapped to different pins on the ha
  39:../../libs/libDaisy/src/per/i2c.h ****         enum class Peripheral
  40:../../libs/libDaisy/src/per/i2c.h ****         {
  41:../../libs/libDaisy/src/per/i2c.h ****             I2C_1 = 0, /**< & */
  42:../../libs/libDaisy/src/per/i2c.h ****             I2C_2,     /**< & */
  43:../../libs/libDaisy/src/per/i2c.h ****             I2C_3,     /**< & */
  44:../../libs/libDaisy/src/per/i2c.h ****             I2C_4,     /**< & */
  45:../../libs/libDaisy/src/per/i2c.h ****         };
  46:../../libs/libDaisy/src/per/i2c.h **** 
  47:../../libs/libDaisy/src/per/i2c.h ****         /** Rate at which the clock/data will be sent/received. The device being used will have max
  48:../../libs/libDaisy/src/per/i2c.h ****          *  1MHZ Mode is currently 886kHz
  49:../../libs/libDaisy/src/per/i2c.h ****          */
  50:../../libs/libDaisy/src/per/i2c.h ****         enum class Speed
  51:../../libs/libDaisy/src/per/i2c.h ****         {
  52:../../libs/libDaisy/src/per/i2c.h ****             I2C_100KHZ, /**< & */
  53:../../libs/libDaisy/src/per/i2c.h ****             I2C_400KHZ, /**< & */
  54:../../libs/libDaisy/src/per/i2c.h ****             I2C_1MHZ,   /**< & */
  55:../../libs/libDaisy/src/per/i2c.h ****         };
  56:../../libs/libDaisy/src/per/i2c.h **** 
  57:../../libs/libDaisy/src/per/i2c.h ****         Peripheral periph; /**< & */
  58:../../libs/libDaisy/src/per/i2c.h ****         struct
  59:../../libs/libDaisy/src/per/i2c.h ****         {
 702              		.loc 9 59 9 view .LVU152
 703              	.LBB643:
 704              	.LBI643:
 705              		.file 10 "../../libs/libDaisy/src/daisy_core.h"
   1:../../libs/libDaisy/src/daisy_core.h **** #pragma once
   2:../../libs/libDaisy/src/daisy_core.h **** #ifndef DSY_CORE_HW_H
   3:../../libs/libDaisy/src/daisy_core.h **** #define DSY_CORE_HW_H /**< & */
   4:../../libs/libDaisy/src/daisy_core.h **** #include <stdint.h>
   5:../../libs/libDaisy/src/daisy_core.h **** #include <stdlib.h>
ARM GAS  C:\Users\skipi\AppData\Local\Temp\ccrSunJV.s 			page 32


   6:../../libs/libDaisy/src/daisy_core.h **** 
   7:../../libs/libDaisy/src/daisy_core.h **** #if defined(_MSC_VER)
   8:../../libs/libDaisy/src/daisy_core.h **** #define FORCE_INLINE __forceinline /**< & */
   9:../../libs/libDaisy/src/daisy_core.h **** #elif defined(__clang__)
  10:../../libs/libDaisy/src/daisy_core.h **** #define FORCE_INLINE inline __attribute__((always_inline)) /**< & */
  11:../../libs/libDaisy/src/daisy_core.h **** #pragma clang diagnostic ignored "-Wduplicate-decl-specifier"
  12:../../libs/libDaisy/src/daisy_core.h **** #elif defined(__GNUC__)
  13:../../libs/libDaisy/src/daisy_core.h **** #define FORCE_INLINE inline __attribute__((always_inline)) /**< & */
  14:../../libs/libDaisy/src/daisy_core.h **** #else
  15:../../libs/libDaisy/src/daisy_core.h **** #error unknown compiler
  16:../../libs/libDaisy/src/daisy_core.h **** #endif
  17:../../libs/libDaisy/src/daisy_core.h **** 
  18:../../libs/libDaisy/src/daisy_core.h **** /** @addtogroup utility
  19:../../libs/libDaisy/src/daisy_core.h ****     @{
  20:../../libs/libDaisy/src/daisy_core.h **** */
  21:../../libs/libDaisy/src/daisy_core.h **** 
  22:../../libs/libDaisy/src/daisy_core.h **** /** Macro for area of memory that is configured as cacheless
  23:../../libs/libDaisy/src/daisy_core.h **** This should be used primarily for DMA buffers, and the like.
  24:../../libs/libDaisy/src/daisy_core.h **** */
  25:../../libs/libDaisy/src/daisy_core.h **** #define DMA_BUFFER_MEM_SECTION __attribute__((section(".sram1_bss")))
  26:../../libs/libDaisy/src/daisy_core.h **** /** 
  27:../../libs/libDaisy/src/daisy_core.h **** THE DTCM RAM section is also non-cached. However, is not suitable 
  28:../../libs/libDaisy/src/daisy_core.h **** for DMA transfers. Performance is on par with internal SRAM w/ 
  29:../../libs/libDaisy/src/daisy_core.h **** cache enabled.
  30:../../libs/libDaisy/src/daisy_core.h **** */
  31:../../libs/libDaisy/src/daisy_core.h **** #define DTCM_MEM_SECTION __attribute__((section(".dtcmram_bss")))
  32:../../libs/libDaisy/src/daisy_core.h **** 
  33:../../libs/libDaisy/src/daisy_core.h **** #define FBIPMAX 0.999985f             /**< close to 1.0f-LSB at 16 bit */
  34:../../libs/libDaisy/src/daisy_core.h **** #define FBIPMIN (-FBIPMAX)            /**< - (1 - LSB) */
  35:../../libs/libDaisy/src/daisy_core.h **** #define U82F_SCALE 0.0078740f         /**< 1 / 127 */
  36:../../libs/libDaisy/src/daisy_core.h **** #define F2U8_SCALE 127.0f             /**< 128 - 1 */
  37:../../libs/libDaisy/src/daisy_core.h **** #define S82F_SCALE 0.0078125f         /**< 1 / (2**7) */
  38:../../libs/libDaisy/src/daisy_core.h **** #define F2S8_SCALE 127.0f             /**< (2 ** 7) - 1 */
  39:../../libs/libDaisy/src/daisy_core.h **** #define S162F_SCALE 3.0517578125e-05f /**< 1 / (2** 15) */
  40:../../libs/libDaisy/src/daisy_core.h **** #define F2S16_SCALE 32767.0f          /**< (2 ** 15) - 1 */
  41:../../libs/libDaisy/src/daisy_core.h **** #define F2S24_SCALE 8388608.0f        /**< 2 ** 23 */
  42:../../libs/libDaisy/src/daisy_core.h **** #define S242F_SCALE 1.192092896e-07f  /**< 1 / (2 ** 23) */
  43:../../libs/libDaisy/src/daisy_core.h **** #define S24SIGN 0x800000              /**< 2 ** 23 */
  44:../../libs/libDaisy/src/daisy_core.h **** #define S322F_SCALE 4.6566129e-10f    /**< 1 / (2** 31) */
  45:../../libs/libDaisy/src/daisy_core.h **** #define F2S32_SCALE 2147483647.f      /**< (2 ** 31) - 1 */
  46:../../libs/libDaisy/src/daisy_core.h **** 
  47:../../libs/libDaisy/src/daisy_core.h **** 
  48:../../libs/libDaisy/src/daisy_core.h **** /** shorthand macro for simplifying the reading of the left 
  49:../../libs/libDaisy/src/daisy_core.h ****  *  channel of a non-interleaved output buffer named out */
  50:../../libs/libDaisy/src/daisy_core.h **** #define OUT_L out[0]
  51:../../libs/libDaisy/src/daisy_core.h **** 
  52:../../libs/libDaisy/src/daisy_core.h **** /** shorthand macro for simplifying the reading of the right 
  53:../../libs/libDaisy/src/daisy_core.h ****  *  channel of a non-interleaved output buffer named out */
  54:../../libs/libDaisy/src/daisy_core.h **** #define OUT_R out[1]
  55:../../libs/libDaisy/src/daisy_core.h **** 
  56:../../libs/libDaisy/src/daisy_core.h **** /** shorthand macro for simplifying the reading of the left 
  57:../../libs/libDaisy/src/daisy_core.h ****  *  channel of a non-interleaved input buffer named in */
  58:../../libs/libDaisy/src/daisy_core.h **** #define IN_L in[0]
  59:../../libs/libDaisy/src/daisy_core.h **** 
  60:../../libs/libDaisy/src/daisy_core.h **** /** shorthand macro for simplifying the reading of the right 
  61:../../libs/libDaisy/src/daisy_core.h ****  *  channel of a non-interleaved input buffer named in */
  62:../../libs/libDaisy/src/daisy_core.h **** #define IN_R in[1]
ARM GAS  C:\Users\skipi\AppData\Local\Temp\ccrSunJV.s 			page 33


  63:../../libs/libDaisy/src/daisy_core.h **** 
  64:../../libs/libDaisy/src/daisy_core.h **** /** 
  65:../../libs/libDaisy/src/daisy_core.h ****     Computes cube.
  66:../../libs/libDaisy/src/daisy_core.h ****     \param x Number to be cubed
  67:../../libs/libDaisy/src/daisy_core.h ****     \return x ^ 3
  68:../../libs/libDaisy/src/daisy_core.h **** */
  69:../../libs/libDaisy/src/daisy_core.h **** FORCE_INLINE float cube(float x)
  70:../../libs/libDaisy/src/daisy_core.h **** {
  71:../../libs/libDaisy/src/daisy_core.h ****     return (x * x) * x;
  72:../../libs/libDaisy/src/daisy_core.h **** }
  73:../../libs/libDaisy/src/daisy_core.h **** 
  74:../../libs/libDaisy/src/daisy_core.h **** /** 
  75:../../libs/libDaisy/src/daisy_core.h ****     Converts unsigned 8-bit to float
  76:../../libs/libDaisy/src/daisy_core.h ****     \param x Number to be scaled.
  77:../../libs/libDaisy/src/daisy_core.h ****     \return Scaled number.
  78:../../libs/libDaisy/src/daisy_core.h **** */
  79:../../libs/libDaisy/src/daisy_core.h **** FORCE_INLINE float u82f(uint8_t x)
  80:../../libs/libDaisy/src/daisy_core.h **** {
  81:../../libs/libDaisy/src/daisy_core.h ****     return ((float)x - 127.f) * U82F_SCALE;
  82:../../libs/libDaisy/src/daisy_core.h **** }
  83:../../libs/libDaisy/src/daisy_core.h **** 
  84:../../libs/libDaisy/src/daisy_core.h **** /**
  85:../../libs/libDaisy/src/daisy_core.h ****     Converts float to unsigned 8-bit
  86:../../libs/libDaisy/src/daisy_core.h **** */
  87:../../libs/libDaisy/src/daisy_core.h **** FORCE_INLINE uint8_t f2u8(float x)
  88:../../libs/libDaisy/src/daisy_core.h **** {
  89:../../libs/libDaisy/src/daisy_core.h ****     x = x <= FBIPMIN ? FBIPMIN : x;
  90:../../libs/libDaisy/src/daisy_core.h ****     x = x >= FBIPMAX ? FBIPMAX : x;
  91:../../libs/libDaisy/src/daisy_core.h ****     return (uint8_t)((x * F2U8_SCALE) + F2U8_SCALE);
  92:../../libs/libDaisy/src/daisy_core.h **** }
  93:../../libs/libDaisy/src/daisy_core.h **** 
  94:../../libs/libDaisy/src/daisy_core.h **** 
  95:../../libs/libDaisy/src/daisy_core.h **** /** 
  96:../../libs/libDaisy/src/daisy_core.h ****     Converts Signed 8-bit to float
  97:../../libs/libDaisy/src/daisy_core.h ****     \param x Number to be scaled.
  98:../../libs/libDaisy/src/daisy_core.h ****     \return Scaled number.
  99:../../libs/libDaisy/src/daisy_core.h **** */
 100:../../libs/libDaisy/src/daisy_core.h **** FORCE_INLINE float s82f(int8_t x)
 101:../../libs/libDaisy/src/daisy_core.h **** {
 102:../../libs/libDaisy/src/daisy_core.h ****     return (float)x * S82F_SCALE;
 103:../../libs/libDaisy/src/daisy_core.h **** }
 104:../../libs/libDaisy/src/daisy_core.h **** 
 105:../../libs/libDaisy/src/daisy_core.h **** /**
 106:../../libs/libDaisy/src/daisy_core.h ****     Converts float to Signed 8-bit
 107:../../libs/libDaisy/src/daisy_core.h **** */
 108:../../libs/libDaisy/src/daisy_core.h **** FORCE_INLINE int8_t f2s8(float x)
 109:../../libs/libDaisy/src/daisy_core.h **** {
 110:../../libs/libDaisy/src/daisy_core.h ****     x = x <= FBIPMIN ? FBIPMIN : x;
 111:../../libs/libDaisy/src/daisy_core.h ****     x = x >= FBIPMAX ? FBIPMAX : x;
 112:../../libs/libDaisy/src/daisy_core.h ****     return (int32_t)(x * F2S8_SCALE);
 113:../../libs/libDaisy/src/daisy_core.h **** }
 114:../../libs/libDaisy/src/daisy_core.h **** 
 115:../../libs/libDaisy/src/daisy_core.h **** /** 
 116:../../libs/libDaisy/src/daisy_core.h ****     Converts Signed 16-bit to float
 117:../../libs/libDaisy/src/daisy_core.h ****     \param x Number to be scaled.
 118:../../libs/libDaisy/src/daisy_core.h ****     \return Scaled number.
 119:../../libs/libDaisy/src/daisy_core.h **** */
ARM GAS  C:\Users\skipi\AppData\Local\Temp\ccrSunJV.s 			page 34


 120:../../libs/libDaisy/src/daisy_core.h **** FORCE_INLINE float s162f(int16_t x)
 121:../../libs/libDaisy/src/daisy_core.h **** {
 122:../../libs/libDaisy/src/daisy_core.h ****     return (float)x * S162F_SCALE;
 123:../../libs/libDaisy/src/daisy_core.h **** }
 124:../../libs/libDaisy/src/daisy_core.h **** 
 125:../../libs/libDaisy/src/daisy_core.h **** /**
 126:../../libs/libDaisy/src/daisy_core.h ****     Converts float to Signed 16-bit
 127:../../libs/libDaisy/src/daisy_core.h **** */
 128:../../libs/libDaisy/src/daisy_core.h **** FORCE_INLINE int16_t f2s16(float x)
 129:../../libs/libDaisy/src/daisy_core.h **** {
 130:../../libs/libDaisy/src/daisy_core.h ****     x = x <= FBIPMIN ? FBIPMIN : x;
 131:../../libs/libDaisy/src/daisy_core.h ****     x = x >= FBIPMAX ? FBIPMAX : x;
 132:../../libs/libDaisy/src/daisy_core.h ****     return (int32_t)(x * F2S16_SCALE);
 133:../../libs/libDaisy/src/daisy_core.h **** }
 134:../../libs/libDaisy/src/daisy_core.h **** 
 135:../../libs/libDaisy/src/daisy_core.h **** /**
 136:../../libs/libDaisy/src/daisy_core.h ****     Converts Signed 24-bit to float
 137:../../libs/libDaisy/src/daisy_core.h ****  */
 138:../../libs/libDaisy/src/daisy_core.h **** FORCE_INLINE float s242f(int32_t x)
 139:../../libs/libDaisy/src/daisy_core.h **** {
 140:../../libs/libDaisy/src/daisy_core.h ****     x = (x ^ S24SIGN) - S24SIGN; //sign extend aka ((x<<8)>>8)
 141:../../libs/libDaisy/src/daisy_core.h ****     return (float)x * S242F_SCALE;
 142:../../libs/libDaisy/src/daisy_core.h **** }
 143:../../libs/libDaisy/src/daisy_core.h **** /**
 144:../../libs/libDaisy/src/daisy_core.h ****     Converts float to Signed 24-bit
 145:../../libs/libDaisy/src/daisy_core.h ****  */
 146:../../libs/libDaisy/src/daisy_core.h **** FORCE_INLINE int32_t f2s24(float x)
 147:../../libs/libDaisy/src/daisy_core.h **** {
 148:../../libs/libDaisy/src/daisy_core.h ****     x = x <= FBIPMIN ? FBIPMIN : x;
 149:../../libs/libDaisy/src/daisy_core.h ****     x = x >= FBIPMAX ? FBIPMAX : x;
 150:../../libs/libDaisy/src/daisy_core.h ****     return (int32_t)(x * F2S24_SCALE);
 151:../../libs/libDaisy/src/daisy_core.h **** }
 152:../../libs/libDaisy/src/daisy_core.h **** 
 153:../../libs/libDaisy/src/daisy_core.h **** /**
 154:../../libs/libDaisy/src/daisy_core.h ****     Converts Signed 32-bit to float
 155:../../libs/libDaisy/src/daisy_core.h ****  */
 156:../../libs/libDaisy/src/daisy_core.h **** FORCE_INLINE float s322f(int32_t x)
 157:../../libs/libDaisy/src/daisy_core.h **** {
 158:../../libs/libDaisy/src/daisy_core.h ****     return (float)x * S322F_SCALE;
 159:../../libs/libDaisy/src/daisy_core.h **** }
 160:../../libs/libDaisy/src/daisy_core.h **** /**
 161:../../libs/libDaisy/src/daisy_core.h ****     Converts float to Signed 24-bit
 162:../../libs/libDaisy/src/daisy_core.h ****  */
 163:../../libs/libDaisy/src/daisy_core.h **** FORCE_INLINE int32_t f2s32(float x)
 164:../../libs/libDaisy/src/daisy_core.h **** {
 165:../../libs/libDaisy/src/daisy_core.h ****     x = x <= FBIPMIN ? FBIPMIN : x;
 166:../../libs/libDaisy/src/daisy_core.h ****     x = x >= FBIPMAX ? FBIPMAX : x;
 167:../../libs/libDaisy/src/daisy_core.h ****     return (int32_t)(x * F2S32_SCALE);
 168:../../libs/libDaisy/src/daisy_core.h **** }
 169:../../libs/libDaisy/src/daisy_core.h **** 
 170:../../libs/libDaisy/src/daisy_core.h **** #ifdef __cplusplus
 171:../../libs/libDaisy/src/daisy_core.h **** 
 172:../../libs/libDaisy/src/daisy_core.h **** namespace daisy
 173:../../libs/libDaisy/src/daisy_core.h **** {
 174:../../libs/libDaisy/src/daisy_core.h **** /** @brief GPIO Port names */
 175:../../libs/libDaisy/src/daisy_core.h **** enum GPIOPort
 176:../../libs/libDaisy/src/daisy_core.h **** {
ARM GAS  C:\Users\skipi\AppData\Local\Temp\ccrSunJV.s 			page 35


 177:../../libs/libDaisy/src/daisy_core.h ****     PORTA, /**< Port A */
 178:../../libs/libDaisy/src/daisy_core.h ****     PORTB, /**< Port B */
 179:../../libs/libDaisy/src/daisy_core.h ****     PORTC, /**< Port C */
 180:../../libs/libDaisy/src/daisy_core.h ****     PORTD, /**< Port D */
 181:../../libs/libDaisy/src/daisy_core.h ****     PORTE, /**< Port E */
 182:../../libs/libDaisy/src/daisy_core.h ****     PORTF, /**< Port F */
 183:../../libs/libDaisy/src/daisy_core.h ****     PORTG, /**< Port G */
 184:../../libs/libDaisy/src/daisy_core.h ****     PORTH, /**< Port H */
 185:../../libs/libDaisy/src/daisy_core.h ****     PORTI, /**< Port I */
 186:../../libs/libDaisy/src/daisy_core.h ****     PORTJ, /**< Port J */
 187:../../libs/libDaisy/src/daisy_core.h ****     PORTK, /**< Port K */
 188:../../libs/libDaisy/src/daisy_core.h ****     PORTX, /**< Used as a dummy port to signal an invalid pin. */
 189:../../libs/libDaisy/src/daisy_core.h **** };
 190:../../libs/libDaisy/src/daisy_core.h **** 
 191:../../libs/libDaisy/src/daisy_core.h **** /** @brief representation of hardware port/pin combination */
 192:../../libs/libDaisy/src/daisy_core.h **** struct Pin
 193:../../libs/libDaisy/src/daisy_core.h **** {
 194:../../libs/libDaisy/src/daisy_core.h ****     GPIOPort port;
 195:../../libs/libDaisy/src/daisy_core.h ****     uint8_t  pin;
 196:../../libs/libDaisy/src/daisy_core.h **** 
 197:../../libs/libDaisy/src/daisy_core.h ****     /** @brief Constructor creates a valid pin. 
 198:../../libs/libDaisy/src/daisy_core.h ****      *  @param pt GPIOPort between PA, and PK corresponding to STM32 Port.
 199:../../libs/libDaisy/src/daisy_core.h ****      *  @param pn pin number in range of 0-15
 200:../../libs/libDaisy/src/daisy_core.h ****     */
 201:../../libs/libDaisy/src/daisy_core.h ****     constexpr Pin(const GPIOPort pt, const uint8_t pn) : port(pt), pin(pn) {}
 202:../../libs/libDaisy/src/daisy_core.h **** 
 203:../../libs/libDaisy/src/daisy_core.h ****     /** @brief Basic Constructor creates an invalid Pin object */
 204:../../libs/libDaisy/src/daisy_core.h ****     constexpr Pin() : port(PORTX), pin(255) {}
 706              		.loc 10 204 15 view .LVU153
 707              		.loc 10 204 15 is_stmt 0 view .LVU154
 708              	.LBE643:
 709              	.LBB644:
 710              	.LBI644:
 711              		.loc 10 204 15 is_stmt 1 view .LVU155
 712              		.loc 10 204 15 is_stmt 0 view .LVU156
 713              	.LBE644:
 714              	.LBE642:
 715              	.LBE646:
 716              	.LBE648:
  52:../../libs/libDaisy/src/dev/mpr121.h ****         i2c_conf.periph = config.periph;
 717              		.loc 7 52 9 is_stmt 1 view .LVU157
  53:../../libs/libDaisy/src/dev/mpr121.h ****         i2c_conf.speed  = config.speed;
 718              		.loc 7 53 9 view .LVU158
  54:../../libs/libDaisy/src/dev/mpr121.h **** 
 719              		.loc 7 54 9 view .LVU159
  56:../../libs/libDaisy/src/dev/mpr121.h ****         i2c_conf.pin_config.sda = config.sda;
 720              		.loc 7 56 9 view .LVU160
  57:../../libs/libDaisy/src/dev/mpr121.h **** 
 721              		.loc 7 57 9 view .LVU161
  59:../../libs/libDaisy/src/dev/mpr121.h ****     }
 722              		.loc 7 59 9 view .LVU162
  59:../../libs/libDaisy/src/dev/mpr121.h ****     }
 723              		.loc 7 59 50 is_stmt 0 view .LVU163
 724 00a6 04F11800 		add	r0, r4, #24
 725              	.LVL34:
  59:../../libs/libDaisy/src/dev/mpr121.h ****     }
 726              		.loc 7 59 50 view .LVU164
ARM GAS  C:\Users\skipi\AppData\Local\Temp\ccrSunJV.s 			page 36


 727 00aa FFF7FEFF 		bl	_ZN5daisy9I2CHandle4InitERKNS0_6ConfigE
 728              	.LVL35:
  59:../../libs/libDaisy/src/dev/mpr121.h ****     }
 729              		.loc 7 59 50 view .LVU165
 730              	.LBE651:
 731              	.LBE653:
 732              	.LBB654:
 733              	.LBI654:
 734              		.loc 7 343 10 is_stmt 1 view .LVU166
 735              	.LBB655:
 736              		.loc 7 343 55 is_stmt 0 view .LVU167
 737 00ae 94F83030 		ldrb	r3, [r4, #48]	@ zero_extendqisi2
 738              	.LBE655:
 739              	.LBE654:
 128:../../libs/libDaisy/src/dev/mpr121.h ****         System::Delay(1);
 740              		.loc 7 128 22 view .LVU168
 741 00b2 8021     		movs	r1, #128
 742 00b4 6322     		movs	r2, #99
 743              	.LBB658:
 744              	.LBB656:
 745              		.loc 7 343 55 view .LVU169
 746 00b6 4845     		cmp	r0, r9
 747 00b8 18BF     		it	ne
 748 00ba 43F00103 		orrne	r3, r3, #1
 749              	.LBE656:
 750              	.LBE658:
 128:../../libs/libDaisy/src/dev/mpr121.h ****         System::Delay(1);
 751              		.loc 7 128 22 view .LVU170
 752 00be 2046     		mov	r0, r4
 753              	.LVL36:
 754              	.LBB659:
 755              	.LBB657:
 756              		.loc 7 343 55 view .LVU171
 757 00c0 84F83030 		strb	r3, [r4, #48]
 758              	.LVL37:
 759              		.loc 7 343 55 view .LVU172
 760              	.LBE657:
 761              	.LBE659:
 128:../../libs/libDaisy/src/dev/mpr121.h ****         System::Delay(1);
 762              		.loc 7 128 22 view .LVU173
 763 00c4 FFF7FEFF 		bl	_ZN5daisy6Mpr121INS_18Mpr121I2CTransportEE13WriteRegisterEhh
 764              	.LVL38:
 129:../../libs/libDaisy/src/dev/mpr121.h **** 
 765              		.loc 7 129 22 view .LVU174
 766 00c8 0120     		movs	r0, #1
 767 00ca FFF7FEFF 		bl	_ZN5daisy6System5DelayEm
 768              	.LVL39:
 131:../../libs/libDaisy/src/dev/mpr121.h **** 
 769              		.loc 7 131 22 view .LVU175
 770 00ce 4A46     		mov	r2, r9
 771 00d0 5E21     		movs	r1, #94
 772 00d2 2046     		mov	r0, r4
 773 00d4 FFF7FEFF 		bl	_ZN5daisy6Mpr121INS_18Mpr121I2CTransportEE13WriteRegisterEhh
 774              	.LVL40:
 139:../../libs/libDaisy/src/dev/mpr121.h ****         WriteRegister(MPR121_MHDR, 0x01);
 775              		.loc 7 139 22 view .LVU176
 776 00d8 94F814B0 		ldrb	fp, [r4, #20]	@ zero_extendqisi2
ARM GAS  C:\Users\skipi\AppData\Local\Temp\ccrSunJV.s 			page 37


 777 00dc 94F815A0 		ldrb	r10, [r4, #21]	@ zero_extendqisi2
 778              	.LVL41:
 779              	.LBB660:
 780              	.LBI660:
 183:../../libs/libDaisy/src/dev/mpr121.h ****     {
 781              		.loc 7 183 10 is_stmt 1 view .LVU177
 782              	.LBB661:
 186:../../libs/libDaisy/src/dev/mpr121.h ****         {
 783              		.loc 7 186 30 view .LVU178
 784              	.L11:
 785              	.LBB662:
 786              	.LBI662:
 257:../../libs/libDaisy/src/dev/mpr121.h ****     {
 787              		.loc 7 257 10 view .LVU179
 788              	.LBB663:
 789              	.LBB664:
 790              	.LBB665:
  66:../../libs/libDaisy/src/dev/mpr121.h ****     }
 791              		.loc 7 66 40 is_stmt 0 view .LVU180
 792 00e0 0A27     		movs	r7, #10
 793              	.LBE665:
 794              	.LBE664:
 264:../../libs/libDaisy/src/dev/mpr121.h **** 
 795              		.loc 7 264 17 view .LVU181
 796 00e2 4FF00009 		mov	r9, #0
 797 00e6 4FF05E08 		mov	r8, #94
 798              	.LBB668:
 799              	.LBB666:
  66:../../libs/libDaisy/src/dev/mpr121.h ****     }
 800              		.loc 7 66 40 view .LVU182
 801 00ea 94F82C10 		ldrb	r1, [r4, #44]	@ zero_extendqisi2
 802 00ee 0123     		movs	r3, #1
 803 00f0 09AA     		add	r2, sp, #36
 804 00f2 0097     		str	r7, [sp]
 805 00f4 9048     		ldr	r0, .L25+12
 806              	.LBE666:
 807              	.LBE668:
 264:../../libs/libDaisy/src/dev/mpr121.h **** 
 808              		.loc 7 264 17 view .LVU183
 809 00f6 8DF82590 		strb	r9, [sp, #37]
 810 00fa 8DF82480 		strb	r8, [sp, #36]
 811              	.LVL42:
 812              	.LBB669:
 813              	.LBI664:
  63:../../libs/libDaisy/src/dev/mpr121.h ****     {
 814              		.loc 7 63 10 is_stmt 1 view .LVU184
 815              	.LBB667:
  65:../../libs/libDaisy/src/dev/mpr121.h ****                != i2c_.TransmitBlocking(config_.dev_addr, data, size, 10);
 816              		.loc 7 65 9 view .LVU185
  66:../../libs/libDaisy/src/dev/mpr121.h ****     }
 817              		.loc 7 66 40 is_stmt 0 view .LVU186
 818 00fe FFF7FEFF 		bl	_ZN5daisy9I2CHandle16TransmitBlockingEtPhtm
 819              	.LVL43:
  66:../../libs/libDaisy/src/dev/mpr121.h ****     }
 820              		.loc 7 66 40 view .LVU187
 821              	.LBE667:
 822              	.LBE669:
ARM GAS  C:\Users\skipi\AppData\Local\Temp\ccrSunJV.s 			page 38


 823              	.LBB670:
 824              	.LBI670:
 825              		.loc 7 343 10 is_stmt 1 view .LVU188
 826              	.LBB671:
 827              		.loc 7 343 55 is_stmt 0 view .LVU189
 828 0102 94F83020 		ldrb	r2, [r4, #48]	@ zero_extendqisi2
 829              	.LBE671:
 830              	.LBE670:
 831              	.LBB674:
 832              	.LBB675:
  73:../../libs/libDaisy/src/dev/mpr121.h ****     }
 833              		.loc 7 73 39 view .LVU190
 834 0106 0123     		movs	r3, #1
 835 0108 0097     		str	r7, [sp]
 836              	.LBE675:
 837              	.LBE674:
 838              	.LBB678:
 839              	.LBB672:
 840              		.loc 7 343 55 view .LVU191
 841 010a 4845     		cmp	r0, r9
 842 010c 18BF     		it	ne
 843 010e 42F00102 		orrne	r2, r2, #1
 844              	.LBE672:
 845              	.LBE678:
 846              	.LBB679:
 847              	.LBB676:
  73:../../libs/libDaisy/src/dev/mpr121.h ****     }
 848              		.loc 7 73 39 view .LVU192
 849 0112 94F82C10 		ldrb	r1, [r4, #44]	@ zero_extendqisi2
 850 0116 8848     		ldr	r0, .L25+12
 851              	.LVL44:
  73:../../libs/libDaisy/src/dev/mpr121.h ****     }
 852              		.loc 7 73 39 view .LVU193
 853              	.LBE676:
 854              	.LBE679:
 855              	.LBB680:
 856              	.LBB673:
 857              		.loc 7 343 55 view .LVU194
 858 0118 84F83020 		strb	r2, [r4, #48]
 859              	.LVL45:
 860              		.loc 7 343 55 view .LVU195
 861              	.LBE673:
 862              	.LBE680:
 863              	.LBB681:
 864              	.LBI674:
  70:../../libs/libDaisy/src/dev/mpr121.h ****     {
 865              		.loc 7 70 10 is_stmt 1 view .LVU196
 866              	.LBB677:
  72:../../libs/libDaisy/src/dev/mpr121.h ****                != i2c_.ReceiveBlocking(config_.dev_addr, data, size, 10);
 867              		.loc 7 72 9 view .LVU197
  73:../../libs/libDaisy/src/dev/mpr121.h ****     }
 868              		.loc 7 73 39 is_stmt 0 view .LVU198
 869 011c 04AA     		add	r2, sp, #16
 870              	.LVL46:
  73:../../libs/libDaisy/src/dev/mpr121.h ****     }
 871              		.loc 7 73 39 view .LVU199
 872 011e FFF7FEFF 		bl	_ZN5daisy9I2CHandle15ReceiveBlockingEtPhtm
ARM GAS  C:\Users\skipi\AppData\Local\Temp\ccrSunJV.s 			page 39


 873              	.LVL47:
  73:../../libs/libDaisy/src/dev/mpr121.h ****     }
 874              		.loc 7 73 39 view .LVU200
 875              	.LBE677:
 876              	.LBE681:
 877              	.LBB682:
 878              	.LBI682:
 879              		.loc 7 343 10 is_stmt 1 view .LVU201
 880              	.LBB683:
 881              		.loc 7 343 55 is_stmt 0 view .LVU202
 882 0122 94F83020 		ldrb	r2, [r4, #48]	@ zero_extendqisi2
 883              	.LBE683:
 884              	.LBE682:
 885              	.LBB686:
 886              	.LBB687:
  66:../../libs/libDaisy/src/dev/mpr121.h ****     }
 887              		.loc 7 66 40 view .LVU203
 888 0126 0223     		movs	r3, #2
 889 0128 0097     		str	r7, [sp]
 890              	.LBE687:
 891              	.LBE686:
 892              	.LBB690:
 893              	.LBB684:
 894              		.loc 7 343 55 view .LVU204
 895 012a 4845     		cmp	r0, r9
 896 012c 18BF     		it	ne
 897 012e 42F00102 		orrne	r2, r2, #1
 898              	.LBE684:
 899              	.LBE690:
 900              	.LBB691:
 901              	.LBB688:
  66:../../libs/libDaisy/src/dev/mpr121.h ****     }
 902              		.loc 7 66 40 view .LVU205
 903 0132 94F82C10 		ldrb	r1, [r4, #44]	@ zero_extendqisi2
 904 0136 8048     		ldr	r0, .L25+12
 905              	.LVL48:
  66:../../libs/libDaisy/src/dev/mpr121.h ****     }
 906              		.loc 7 66 40 view .LVU206
 907              	.LBE688:
 908              	.LBE691:
 909              	.LBB692:
 910              	.LBB685:
 911              		.loc 7 343 55 view .LVU207
 912 0138 84F83020 		strb	r2, [r4, #48]
 913              	.LVL49:
 914              		.loc 7 343 55 view .LVU208
 915              	.LBE685:
 916              	.LBE692:
 917              	.LBB693:
 918              	.LBI686:
  63:../../libs/libDaisy/src/dev/mpr121.h ****     {
 919              		.loc 7 63 10 is_stmt 1 view .LVU209
 920              	.LBB689:
  65:../../libs/libDaisy/src/dev/mpr121.h ****                != i2c_.TransmitBlocking(config_.dev_addr, data, size, 10);
 921              		.loc 7 65 9 view .LVU210
  66:../../libs/libDaisy/src/dev/mpr121.h ****     }
 922              		.loc 7 66 40 is_stmt 0 view .LVU211
ARM GAS  C:\Users\skipi\AppData\Local\Temp\ccrSunJV.s 			page 40


 923 013c 09AA     		add	r2, sp, #36
 924              	.LVL50:
  66:../../libs/libDaisy/src/dev/mpr121.h ****     }
 925              		.loc 7 66 40 view .LVU212
 926 013e FFF7FEFF 		bl	_ZN5daisy9I2CHandle16TransmitBlockingEtPhtm
 927              	.LVL51:
  66:../../libs/libDaisy/src/dev/mpr121.h ****     }
 928              		.loc 7 66 40 view .LVU213
 929              	.LBE689:
 930              	.LBE693:
 931              	.LBB694:
 932              	.LBI694:
 933              		.loc 7 343 10 is_stmt 1 view .LVU214
 934              	.LBB695:
 935              		.loc 7 343 55 is_stmt 0 view .LVU215
 936 0142 94F83020 		ldrb	r2, [r4, #48]	@ zero_extendqisi2
 937              	.LBE695:
 938              	.LBE694:
 939              	.LBB698:
 940              	.LBB699:
  66:../../libs/libDaisy/src/dev/mpr121.h ****     }
 941              		.loc 7 66 40 view .LVU216
 942 0146 0223     		movs	r3, #2
 943 0148 0097     		str	r7, [sp]
 944              	.LBE699:
 945              	.LBE698:
 946              	.LBB703:
 947              	.LBB696:
 948              		.loc 7 343 55 view .LVU217
 949 014a 4845     		cmp	r0, r9
 950 014c 18BF     		it	ne
 951 014e 42F00102 		orrne	r2, r2, #1
 952              	.LBE696:
 953              	.LBE703:
 954              	.LBB704:
 955              	.LBB700:
  66:../../libs/libDaisy/src/dev/mpr121.h ****     }
 956              		.loc 7 66 40 view .LVU218
 957 0152 94F82C10 		ldrb	r1, [r4, #44]	@ zero_extendqisi2
 958 0156 7848     		ldr	r0, .L25+12
 959              	.LVL52:
  66:../../libs/libDaisy/src/dev/mpr121.h ****     }
 960              		.loc 7 66 40 view .LVU219
 961              	.LBE700:
 962              	.LBE704:
 963              	.LBB705:
 964              	.LBB697:
 965              		.loc 7 343 55 view .LVU220
 966 0158 84F83020 		strb	r2, [r4, #48]
 967              	.LVL53:
 968              		.loc 7 343 55 view .LVU221
 969              	.LBE697:
 970              	.LBE705:
 971              	.LBB706:
 972              	.LBI698:
  63:../../libs/libDaisy/src/dev/mpr121.h ****     {
 973              		.loc 7 63 10 is_stmt 1 view .LVU222
ARM GAS  C:\Users\skipi\AppData\Local\Temp\ccrSunJV.s 			page 41


 974              	.LBB701:
  65:../../libs/libDaisy/src/dev/mpr121.h ****                != i2c_.TransmitBlocking(config_.dev_addr, data, size, 10);
 975              		.loc 7 65 9 view .LVU223
  66:../../libs/libDaisy/src/dev/mpr121.h ****     }
 976              		.loc 7 66 40 is_stmt 0 view .LVU224
 977 015c 09AA     		add	r2, sp, #36
 978              	.LVL54:
  66:../../libs/libDaisy/src/dev/mpr121.h ****     }
 979              		.loc 7 66 40 view .LVU225
 980              	.LBE701:
 981              	.LBE706:
 281:../../libs/libDaisy/src/dev/mpr121.h ****         buff[1] = value;
 982              		.loc 7 281 17 view .LVU226
 983 015e 8DF82460 		strb	r6, [sp, #36]
 282:../../libs/libDaisy/src/dev/mpr121.h ****         SetTransportErr(transport_.Write(buff, 2));
 984              		.loc 7 282 17 view .LVU227
 985 0162 8DF825B0 		strb	fp, [sp, #37]
 986              	.LBB707:
 987              	.LBB702:
  66:../../libs/libDaisy/src/dev/mpr121.h ****     }
 988              		.loc 7 66 40 view .LVU228
 989 0166 FFF7FEFF 		bl	_ZN5daisy9I2CHandle16TransmitBlockingEtPhtm
 990              	.LVL55:
  66:../../libs/libDaisy/src/dev/mpr121.h ****     }
 991              		.loc 7 66 40 view .LVU229
 992              	.LBE702:
 993              	.LBE707:
 994              	.LBB708:
 995              	.LBI708:
 996              		.loc 7 343 10 is_stmt 1 view .LVU230
 997              	.LBB709:
 998              		.loc 7 343 55 is_stmt 0 view .LVU231
 999 016a 94F83010 		ldrb	r1, [r4, #48]	@ zero_extendqisi2
 1000              	.LBE709:
 1001              	.LBE708:
 1002              	.LBB712:
 1003              	.LBB713:
  66:../../libs/libDaisy/src/dev/mpr121.h ****     }
 1004              		.loc 7 66 40 view .LVU232
 1005 016e 09AA     		add	r2, sp, #36
 1006              	.LBE713:
 1007              	.LBE712:
 289:../../libs/libDaisy/src/dev/mpr121.h ****             SetTransportErr(transport_.Write(buff, 2));
 1008              		.loc 7 289 21 view .LVU233
 1009 0170 9DF81030 		ldrb	r3, [sp, #16]	@ zero_extendqisi2
 1010              	.LBB718:
 1011              	.LBB710:
 1012              		.loc 7 343 55 view .LVU234
 1013 0174 4845     		cmp	r0, r9
 1014 0176 18BF     		it	ne
 1015 0178 41F00101 		orrne	r1, r1, #1
 1016              	.LBE710:
 1017              	.LBE718:
 1018              	.LBB719:
 1019              	.LBB714:
  66:../../libs/libDaisy/src/dev/mpr121.h ****     }
 1020              		.loc 7 66 40 view .LVU235
ARM GAS  C:\Users\skipi\AppData\Local\Temp\ccrSunJV.s 			page 42


 1021 017c 0097     		str	r7, [sp]
 1022              	.LBE714:
 1023              	.LBE719:
 289:../../libs/libDaisy/src/dev/mpr121.h ****             SetTransportErr(transport_.Write(buff, 2));
 1024              		.loc 7 289 21 view .LVU236
 1025 017e 8DF82530 		strb	r3, [sp, #37]
 1026              	.LBB720:
 1027              	.LBB715:
  66:../../libs/libDaisy/src/dev/mpr121.h ****     }
 1028              		.loc 7 66 40 view .LVU237
 1029 0182 0223     		movs	r3, #2
 1030              	.LBE715:
 1031              	.LBE720:
 1032              	.LBB721:
 1033              	.LBB711:
 1034              		.loc 7 343 55 view .LVU238
 1035 0184 84F83010 		strb	r1, [r4, #48]
 1036              	.LVL56:
 1037              		.loc 7 343 55 view .LVU239
 1038              	.LBE711:
 1039              	.LBE721:
 1040              	.LBB722:
 1041              	.LBI712:
  63:../../libs/libDaisy/src/dev/mpr121.h ****     {
 1042              		.loc 7 63 10 is_stmt 1 view .LVU240
 1043              	.LBB716:
  65:../../libs/libDaisy/src/dev/mpr121.h ****                != i2c_.TransmitBlocking(config_.dev_addr, data, size, 10);
 1044              		.loc 7 65 9 view .LVU241
  66:../../libs/libDaisy/src/dev/mpr121.h ****     }
 1045              		.loc 7 66 40 is_stmt 0 view .LVU242
 1046 0188 6B48     		ldr	r0, .L25+12
 1047 018a 94F82C10 		ldrb	r1, [r4, #44]	@ zero_extendqisi2
 1048              	.LBE716:
 1049              	.LBE722:
 288:../../libs/libDaisy/src/dev/mpr121.h ****             buff[1] = ecr_backup;
 1050              		.loc 7 288 21 view .LVU243
 1051 018e 8DF82480 		strb	r8, [sp, #36]
 1052              	.LBB723:
 1053              	.LBB717:
  66:../../libs/libDaisy/src/dev/mpr121.h ****     }
 1054              		.loc 7 66 40 view .LVU244
 1055 0192 FFF7FEFF 		bl	_ZN5daisy9I2CHandle16TransmitBlockingEtPhtm
 1056              	.LVL57:
  66:../../libs/libDaisy/src/dev/mpr121.h ****     }
 1057              		.loc 7 66 40 view .LVU245
 1058              	.LBE717:
 1059              	.LBE723:
 1060              	.LBB724:
 1061              	.LBI724:
 1062              		.loc 7 343 10 is_stmt 1 view .LVU246
 1063              	.LBB725:
 1064              		.loc 7 343 55 is_stmt 0 view .LVU247
 1065 0196 94F83020 		ldrb	r2, [r4, #48]	@ zero_extendqisi2
 1066              	.LBE725:
 1067              	.LBE724:
 1068              	.LBE663:
 1069              	.LBE662:
ARM GAS  C:\Users\skipi\AppData\Local\Temp\ccrSunJV.s 			page 43


 1070              	.LBB732:
 1071              	.LBB733:
 1072              	.LBB734:
 1073              	.LBB735:
  66:../../libs/libDaisy/src/dev/mpr121.h ****     }
 1074              		.loc 7 66 40 view .LVU248
 1075 019a 0123     		movs	r3, #1
 1076 019c 0097     		str	r7, [sp]
 1077              	.LBE735:
 1078              	.LBE734:
 1079              	.LBE733:
 1080              	.LBE732:
 1081              	.LBB807:
 1082              	.LBB730:
 1083              	.LBB728:
 1084              	.LBB726:
 1085              		.loc 7 343 55 view .LVU249
 1086 019e 4845     		cmp	r0, r9
 1087 01a0 18BF     		it	ne
 1088 01a2 42F00102 		orrne	r2, r2, #1
 1089              	.LBE726:
 1090              	.LBE728:
 1091              	.LBE730:
 1092              	.LBE807:
 1093              	.LBB808:
 1094              	.LBB802:
 1095              	.LBB739:
 1096              	.LBB736:
  66:../../libs/libDaisy/src/dev/mpr121.h ****     }
 1097              		.loc 7 66 40 view .LVU250
 1098 01a6 94F82C10 		ldrb	r1, [r4, #44]	@ zero_extendqisi2
 1099 01aa 6348     		ldr	r0, .L25+12
 1100              	.LVL58:
  66:../../libs/libDaisy/src/dev/mpr121.h ****     }
 1101              		.loc 7 66 40 view .LVU251
 1102              	.LBE736:
 1103              	.LBE739:
 1104              	.LBE802:
 1105              	.LBE808:
 1106              	.LBB809:
 1107              	.LBB731:
 1108              	.LBB729:
 1109              	.LBB727:
 1110              		.loc 7 343 55 view .LVU252
 1111 01ac 84F83020 		strb	r2, [r4, #48]
 1112              	.LVL59:
 1113              		.loc 7 343 55 view .LVU253
 1114              	.LBE727:
 1115              	.LBE729:
 1116              	.LBE731:
 1117              	.LBE809:
 1118              	.LBB810:
 1119              	.LBI732:
 257:../../libs/libDaisy/src/dev/mpr121.h ****     {
 1120              		.loc 7 257 10 is_stmt 1 view .LVU254
 1121              	.LBB803:
 1122              	.LBB740:
ARM GAS  C:\Users\skipi\AppData\Local\Temp\ccrSunJV.s 			page 44


 1123              	.LBI734:
  63:../../libs/libDaisy/src/dev/mpr121.h ****     {
 1124              		.loc 7 63 10 view .LVU255
 1125              	.LBB737:
  65:../../libs/libDaisy/src/dev/mpr121.h ****                != i2c_.TransmitBlocking(config_.dev_addr, data, size, 10);
 1126              		.loc 7 65 9 view .LVU256
  66:../../libs/libDaisy/src/dev/mpr121.h ****     }
 1127              		.loc 7 66 40 is_stmt 0 view .LVU257
 1128 01b0 09AA     		add	r2, sp, #36
 1129              	.LVL60:
  66:../../libs/libDaisy/src/dev/mpr121.h ****     }
 1130              		.loc 7 66 40 view .LVU258
 1131              	.LBE737:
 1132              	.LBE740:
 264:../../libs/libDaisy/src/dev/mpr121.h **** 
 1133              		.loc 7 264 17 view .LVU259
 1134 01b2 8DF82590 		strb	r9, [sp, #37]
 1135 01b6 8DF82480 		strb	r8, [sp, #36]
 1136              	.LBB741:
 1137              	.LBB738:
  66:../../libs/libDaisy/src/dev/mpr121.h ****     }
 1138              		.loc 7 66 40 view .LVU260
 1139 01ba FFF7FEFF 		bl	_ZN5daisy9I2CHandle16TransmitBlockingEtPhtm
 1140              	.LVL61:
  66:../../libs/libDaisy/src/dev/mpr121.h ****     }
 1141              		.loc 7 66 40 view .LVU261
 1142              	.LBE738:
 1143              	.LBE741:
 1144              	.LBB742:
 1145              	.LBI742:
 1146              		.loc 7 343 10 is_stmt 1 view .LVU262
 1147              	.LBB743:
 1148              		.loc 7 343 55 is_stmt 0 view .LVU263
 1149 01be 94F83020 		ldrb	r2, [r4, #48]	@ zero_extendqisi2
 1150              	.LBE743:
 1151              	.LBE742:
 1152              	.LBB746:
 1153              	.LBB747:
  73:../../libs/libDaisy/src/dev/mpr121.h ****     }
 1154              		.loc 7 73 39 view .LVU264
 1155 01c2 0123     		movs	r3, #1
 1156 01c4 0097     		str	r7, [sp]
 1157              	.LBE747:
 1158              	.LBE746:
 1159              	.LBB750:
 1160              	.LBB744:
 1161              		.loc 7 343 55 view .LVU265
 1162 01c6 4845     		cmp	r0, r9
 1163 01c8 18BF     		it	ne
 1164 01ca 42F00102 		orrne	r2, r2, #1
 1165              	.LBE744:
 1166              	.LBE750:
 1167              	.LBB751:
 1168              	.LBB748:
  73:../../libs/libDaisy/src/dev/mpr121.h ****     }
 1169              		.loc 7 73 39 view .LVU266
 1170 01ce 94F82C10 		ldrb	r1, [r4, #44]	@ zero_extendqisi2
ARM GAS  C:\Users\skipi\AppData\Local\Temp\ccrSunJV.s 			page 45


 1171 01d2 5948     		ldr	r0, .L25+12
 1172              	.LVL62:
  73:../../libs/libDaisy/src/dev/mpr121.h ****     }
 1173              		.loc 7 73 39 view .LVU267
 1174              	.LBE748:
 1175              	.LBE751:
 1176              	.LBB752:
 1177              	.LBB745:
 1178              		.loc 7 343 55 view .LVU268
 1179 01d4 84F83020 		strb	r2, [r4, #48]
 1180              	.LVL63:
 1181              		.loc 7 343 55 view .LVU269
 1182              	.LBE745:
 1183              	.LBE752:
 1184              	.LBB753:
 1185              	.LBI746:
  70:../../libs/libDaisy/src/dev/mpr121.h ****     {
 1186              		.loc 7 70 10 is_stmt 1 view .LVU270
 1187              	.LBB749:
  72:../../libs/libDaisy/src/dev/mpr121.h ****                != i2c_.ReceiveBlocking(config_.dev_addr, data, size, 10);
 1188              		.loc 7 72 9 view .LVU271
  73:../../libs/libDaisy/src/dev/mpr121.h ****     }
 1189              		.loc 7 73 39 is_stmt 0 view .LVU272
 1190 01d8 04AA     		add	r2, sp, #16
 1191              	.LVL64:
  73:../../libs/libDaisy/src/dev/mpr121.h ****     }
 1192              		.loc 7 73 39 view .LVU273
 1193 01da FFF7FEFF 		bl	_ZN5daisy9I2CHandle15ReceiveBlockingEtPhtm
 1194              	.LVL65:
  73:../../libs/libDaisy/src/dev/mpr121.h ****     }
 1195              		.loc 7 73 39 view .LVU274
 1196              	.LBE749:
 1197              	.LBE753:
 1198              	.LBB754:
 1199              	.LBI754:
 1200              		.loc 7 343 10 is_stmt 1 view .LVU275
 1201              	.LBB755:
 1202              		.loc 7 343 55 is_stmt 0 view .LVU276
 1203 01de 94F83020 		ldrb	r2, [r4, #48]	@ zero_extendqisi2
 1204              	.LBE755:
 1205              	.LBE754:
 1206              	.LBB758:
 1207              	.LBB759:
  66:../../libs/libDaisy/src/dev/mpr121.h ****     }
 1208              		.loc 7 66 40 view .LVU277
 1209 01e2 0223     		movs	r3, #2
 1210 01e4 0097     		str	r7, [sp]
 1211              	.LBE759:
 1212              	.LBE758:
 1213              	.LBB762:
 1214              	.LBB756:
 1215              		.loc 7 343 55 view .LVU278
 1216 01e6 4845     		cmp	r0, r9
 1217 01e8 18BF     		it	ne
 1218 01ea 42F00102 		orrne	r2, r2, #1
 1219              	.LBE756:
 1220              	.LBE762:
ARM GAS  C:\Users\skipi\AppData\Local\Temp\ccrSunJV.s 			page 46


 1221              	.LBB763:
 1222              	.LBB760:
  66:../../libs/libDaisy/src/dev/mpr121.h ****     }
 1223              		.loc 7 66 40 view .LVU279
 1224 01ee 94F82C10 		ldrb	r1, [r4, #44]	@ zero_extendqisi2
 1225 01f2 5148     		ldr	r0, .L25+12
 1226              	.LVL66:
  66:../../libs/libDaisy/src/dev/mpr121.h ****     }
 1227              		.loc 7 66 40 view .LVU280
 1228              	.LBE760:
 1229              	.LBE763:
 1230              	.LBB764:
 1231              	.LBB757:
 1232              		.loc 7 343 55 view .LVU281
 1233 01f4 84F83020 		strb	r2, [r4, #48]
 1234              	.LVL67:
 1235              		.loc 7 343 55 view .LVU282
 1236              	.LBE757:
 1237              	.LBE764:
 1238              	.LBB765:
 1239              	.LBI758:
  63:../../libs/libDaisy/src/dev/mpr121.h ****     {
 1240              		.loc 7 63 10 is_stmt 1 view .LVU283
 1241              	.LBB761:
  65:../../libs/libDaisy/src/dev/mpr121.h ****                != i2c_.TransmitBlocking(config_.dev_addr, data, size, 10);
 1242              		.loc 7 65 9 view .LVU284
  66:../../libs/libDaisy/src/dev/mpr121.h ****     }
 1243              		.loc 7 66 40 is_stmt 0 view .LVU285
 1244 01f8 09AA     		add	r2, sp, #36
 1245              	.LVL68:
  66:../../libs/libDaisy/src/dev/mpr121.h ****     }
 1246              		.loc 7 66 40 view .LVU286
 1247 01fa FFF7FEFF 		bl	_ZN5daisy9I2CHandle16TransmitBlockingEtPhtm
 1248              	.LVL69:
  66:../../libs/libDaisy/src/dev/mpr121.h ****     }
 1249              		.loc 7 66 40 view .LVU287
 1250              	.LBE761:
 1251              	.LBE765:
 1252              	.LBB766:
 1253              	.LBI766:
 1254              		.loc 7 343 10 is_stmt 1 view .LVU288
 1255              	.LBB767:
 1256              		.loc 7 343 55 is_stmt 0 view .LVU289
 1257 01fe 94F83010 		ldrb	r1, [r4, #48]	@ zero_extendqisi2
 1258              	.LBE767:
 1259              	.LBE766:
 281:../../libs/libDaisy/src/dev/mpr121.h ****         buff[1] = value;
 1260              		.loc 7 281 17 view .LVU290
 1261 0202 731C     		adds	r3, r6, #1
 1262              	.LBB770:
 1263              	.LBB771:
  66:../../libs/libDaisy/src/dev/mpr121.h ****     }
 1264              		.loc 7 66 40 view .LVU291
 1265 0204 0097     		str	r7, [sp]
 1266              	.LBE771:
 1267              	.LBE770:
 1268              	.LBB777:
ARM GAS  C:\Users\skipi\AppData\Local\Temp\ccrSunJV.s 			page 47


 1269              	.LBB768:
 1270              		.loc 7 343 55 view .LVU292
 1271 0206 4845     		cmp	r0, r9
 1272 0208 18BF     		it	ne
 1273 020a 41F00101 		orrne	r1, r1, #1
 1274              	.LBE768:
 1275              	.LBE777:
 1276              	.LBB778:
 1277              	.LBB772:
  66:../../libs/libDaisy/src/dev/mpr121.h ****     }
 1278              		.loc 7 66 40 view .LVU293
 1279 020e 09AA     		add	r2, sp, #36
 1280              	.LBE772:
 1281              	.LBE778:
 281:../../libs/libDaisy/src/dev/mpr121.h ****         buff[1] = value;
 1282              		.loc 7 281 17 view .LVU294
 1283 0210 8DF82430 		strb	r3, [sp, #36]
 1284              	.LBB779:
 1285              	.LBB773:
  66:../../libs/libDaisy/src/dev/mpr121.h ****     }
 1286              		.loc 7 66 40 view .LVU295
 1287 0214 0223     		movs	r3, #2
 1288              	.LBE773:
 1289              	.LBE779:
 1290              	.LBB780:
 1291              	.LBB769:
 1292              		.loc 7 343 55 view .LVU296
 1293 0216 84F83010 		strb	r1, [r4, #48]
 1294              	.LVL70:
 1295              		.loc 7 343 55 view .LVU297
 1296              	.LBE769:
 1297              	.LBE780:
 1298              	.LBB781:
 1299              	.LBI770:
  63:../../libs/libDaisy/src/dev/mpr121.h ****     {
 1300              		.loc 7 63 10 is_stmt 1 view .LVU298
 1301              	.LBB774:
  65:../../libs/libDaisy/src/dev/mpr121.h ****                != i2c_.TransmitBlocking(config_.dev_addr, data, size, 10);
 1302              		.loc 7 65 9 view .LVU299
 1303              	.LBE774:
 1304              	.LBE781:
 1305              	.LBE803:
 1306              	.LBE810:
 186:../../libs/libDaisy/src/dev/mpr121.h ****         {
 1307              		.loc 7 186 30 is_stmt 0 view .LVU300
 1308 021a 0236     		adds	r6, r6, #2
 1309              	.LVL71:
 1310              	.LBB811:
 1311              	.LBB804:
 1312              	.LBB782:
 1313              	.LBB775:
  66:../../libs/libDaisy/src/dev/mpr121.h ****     }
 1314              		.loc 7 66 40 view .LVU301
 1315 021c 94F82C10 		ldrb	r1, [r4, #44]	@ zero_extendqisi2
 1316 0220 4548     		ldr	r0, .L25+12
 1317              	.LBE775:
 1318              	.LBE782:
ARM GAS  C:\Users\skipi\AppData\Local\Temp\ccrSunJV.s 			page 48


 1319              	.LBE804:
 1320              	.LBE811:
 186:../../libs/libDaisy/src/dev/mpr121.h ****         {
 1321              		.loc 7 186 30 view .LVU302
 1322 0222 F6B2     		uxtb	r6, r6
 1323              	.LBB812:
 1324              	.LBB805:
 282:../../libs/libDaisy/src/dev/mpr121.h ****         SetTransportErr(transport_.Write(buff, 2));
 1325              		.loc 7 282 17 view .LVU303
 1326 0224 8DF825A0 		strb	r10, [sp, #37]
 1327              	.LBB783:
 1328              	.LBB776:
  66:../../libs/libDaisy/src/dev/mpr121.h ****     }
 1329              		.loc 7 66 40 view .LVU304
 1330 0228 FFF7FEFF 		bl	_ZN5daisy9I2CHandle16TransmitBlockingEtPhtm
 1331              	.LVL72:
  66:../../libs/libDaisy/src/dev/mpr121.h ****     }
 1332              		.loc 7 66 40 view .LVU305
 1333              	.LBE776:
 1334              	.LBE783:
 1335              	.LBB784:
 1336              	.LBI784:
 1337              		.loc 7 343 10 is_stmt 1 view .LVU306
 1338              	.LBB785:
 1339              		.loc 7 343 55 is_stmt 0 view .LVU307
 1340 022c 94F83020 		ldrb	r2, [r4, #48]	@ zero_extendqisi2
 1341              	.LBE785:
 1342              	.LBE784:
 1343              	.LBB788:
 1344              	.LBB789:
  66:../../libs/libDaisy/src/dev/mpr121.h ****     }
 1345              		.loc 7 66 40 view .LVU308
 1346 0230 0223     		movs	r3, #2
 1347 0232 0097     		str	r7, [sp]
 1348              	.LBE789:
 1349              	.LBE788:
 289:../../libs/libDaisy/src/dev/mpr121.h ****             SetTransportErr(transport_.Write(buff, 2));
 1350              		.loc 7 289 21 view .LVU309
 1351 0234 9DF81010 		ldrb	r1, [sp, #16]	@ zero_extendqisi2
 1352              	.LBB793:
 1353              	.LBB786:
 1354              		.loc 7 343 55 view .LVU310
 1355 0238 4845     		cmp	r0, r9
 1356 023a 0CBF     		ite	eq
 1357 023c 1746     		moveq	r7, r2
 1358 023e 42F00107 		orrne	r7, r2, #1
 1359              	.LBE786:
 1360              	.LBE793:
 1361              	.LBB794:
 1362              	.LBB790:
  66:../../libs/libDaisy/src/dev/mpr121.h ****     }
 1363              		.loc 7 66 40 view .LVU311
 1364 0242 09AA     		add	r2, sp, #36
 1365 0244 3C48     		ldr	r0, .L25+12
 1366              	.LVL73:
  66:../../libs/libDaisy/src/dev/mpr121.h ****     }
 1367              		.loc 7 66 40 view .LVU312
ARM GAS  C:\Users\skipi\AppData\Local\Temp\ccrSunJV.s 			page 49


 1368              	.LBE790:
 1369              	.LBE794:
 289:../../libs/libDaisy/src/dev/mpr121.h ****             SetTransportErr(transport_.Write(buff, 2));
 1370              		.loc 7 289 21 view .LVU313
 1371 0246 8DF82510 		strb	r1, [sp, #37]
 1372              	.LBB795:
 1373              	.LBB787:
 1374              		.loc 7 343 55 view .LVU314
 1375 024a 84F83070 		strb	r7, [r4, #48]
 1376              	.LVL74:
 1377              		.loc 7 343 55 view .LVU315
 1378              	.LBE787:
 1379              	.LBE795:
 1380              	.LBB796:
 1381              	.LBI788:
  63:../../libs/libDaisy/src/dev/mpr121.h ****     {
 1382              		.loc 7 63 10 is_stmt 1 view .LVU316
 1383              	.LBB791:
  65:../../libs/libDaisy/src/dev/mpr121.h ****                != i2c_.TransmitBlocking(config_.dev_addr, data, size, 10);
 1384              		.loc 7 65 9 view .LVU317
  66:../../libs/libDaisy/src/dev/mpr121.h ****     }
 1385              		.loc 7 66 40 is_stmt 0 view .LVU318
 1386 024e 94F82C10 		ldrb	r1, [r4, #44]	@ zero_extendqisi2
 1387              	.LBE791:
 1388              	.LBE796:
 288:../../libs/libDaisy/src/dev/mpr121.h ****             buff[1] = ecr_backup;
 1389              		.loc 7 288 21 view .LVU319
 1390 0252 8DF82480 		strb	r8, [sp, #36]
 1391              	.LBB797:
 1392              	.LBB792:
  66:../../libs/libDaisy/src/dev/mpr121.h ****     }
 1393              		.loc 7 66 40 view .LVU320
 1394 0256 FFF7FEFF 		bl	_ZN5daisy9I2CHandle16TransmitBlockingEtPhtm
 1395              	.LVL75:
  66:../../libs/libDaisy/src/dev/mpr121.h ****     }
 1396              		.loc 7 66 40 view .LVU321
 1397              	.LBE792:
 1398              	.LBE797:
 1399              	.LBB798:
 1400              	.LBI798:
 1401              		.loc 7 343 10 is_stmt 1 view .LVU322
 1402              	.LBB799:
 1403              		.loc 7 343 55 is_stmt 0 view .LVU323
 1404 025a 94F83030 		ldrb	r3, [r4, #48]	@ zero_extendqisi2
 1405 025e 4845     		cmp	r0, r9
 1406 0260 18BF     		it	ne
 1407 0262 43F00103 		orrne	r3, r3, #1
 1408              	.LBE799:
 1409              	.LBE798:
 1410              	.LBE805:
 1411              	.LBE812:
 186:../../libs/libDaisy/src/dev/mpr121.h ****         {
 1412              		.loc 7 186 30 view .LVU324
 1413 0266 592E     		cmp	r6, #89
 1414              	.LBB813:
 1415              	.LBB806:
 1416              	.LBB801:
ARM GAS  C:\Users\skipi\AppData\Local\Temp\ccrSunJV.s 			page 50


 1417              	.LBB800:
 1418              		.loc 7 343 55 view .LVU325
 1419 0268 84F83030 		strb	r3, [r4, #48]
 1420              	.LVL76:
 1421              		.loc 7 343 55 view .LVU326
 1422              	.LBE800:
 1423              	.LBE801:
 1424              	.LBE806:
 1425              	.LBE813:
 186:../../libs/libDaisy/src/dev/mpr121.h ****         {
 1426              		.loc 7 186 9 is_stmt 1 view .LVU327
 186:../../libs/libDaisy/src/dev/mpr121.h ****         {
 1427              		.loc 7 186 30 view .LVU328
 1428 026c 7FF438AF 		bne	.L11
 1429              	.LVL77:
 186:../../libs/libDaisy/src/dev/mpr121.h ****         {
 1430              		.loc 7 186 30 is_stmt 0 view .LVU329
 1431              	.LBE661:
 1432              	.LBE660:
 140:../../libs/libDaisy/src/dev/mpr121.h ****         WriteRegister(MPR121_NHDR, 0x01);
 1433              		.loc 7 140 22 view .LVU330
 1434 0270 0122     		movs	r2, #1
 1435 0272 2B21     		movs	r1, #43
 1436 0274 2F48     		ldr	r0, .L25+8
 1437 0276 FFF7FEFF 		bl	_ZN5daisy6Mpr121INS_18Mpr121I2CTransportEE13WriteRegisterEhh
 1438              	.LVL78:
 141:../../libs/libDaisy/src/dev/mpr121.h ****         WriteRegister(MPR121_NCLR, 0x0E);
 1439              		.loc 7 141 22 view .LVU331
 1440 027a 0122     		movs	r2, #1
 1441 027c 2C21     		movs	r1, #44
 1442 027e 2D48     		ldr	r0, .L25+8
 1443 0280 FFF7FEFF 		bl	_ZN5daisy6Mpr121INS_18Mpr121I2CTransportEE13WriteRegisterEhh
 1444              	.LVL79:
 142:../../libs/libDaisy/src/dev/mpr121.h ****         WriteRegister(MPR121_FDLR, 0x00);
 1445              		.loc 7 142 22 view .LVU332
 1446 0284 0E22     		movs	r2, #14
 1447 0286 2D21     		movs	r1, #45
 1448 0288 2A48     		ldr	r0, .L25+8
 1449 028a FFF7FEFF 		bl	_ZN5daisy6Mpr121INS_18Mpr121I2CTransportEE13WriteRegisterEhh
 1450              	.LVL80:
 143:../../libs/libDaisy/src/dev/mpr121.h **** 
 1451              		.loc 7 143 22 view .LVU333
 1452 028e 4A46     		mov	r2, r9
 1453 0290 2E21     		movs	r1, #46
 1454 0292 2848     		ldr	r0, .L25+8
 1455 0294 FFF7FEFF 		bl	_ZN5daisy6Mpr121INS_18Mpr121I2CTransportEE13WriteRegisterEhh
 1456              	.LVL81:
 145:../../libs/libDaisy/src/dev/mpr121.h ****         WriteRegister(MPR121_NHDF, 0x05);
 1457              		.loc 7 145 22 view .LVU334
 1458 0298 0122     		movs	r2, #1
 1459 029a 2F21     		movs	r1, #47
 1460 029c 2548     		ldr	r0, .L25+8
 1461 029e FFF7FEFF 		bl	_ZN5daisy6Mpr121INS_18Mpr121I2CTransportEE13WriteRegisterEhh
 1462              	.LVL82:
 146:../../libs/libDaisy/src/dev/mpr121.h ****         WriteRegister(MPR121_NCLF, 0x01);
 1463              		.loc 7 146 22 view .LVU335
 1464 02a2 0522     		movs	r2, #5
ARM GAS  C:\Users\skipi\AppData\Local\Temp\ccrSunJV.s 			page 51


 1465 02a4 3021     		movs	r1, #48
 1466 02a6 2348     		ldr	r0, .L25+8
 1467 02a8 FFF7FEFF 		bl	_ZN5daisy6Mpr121INS_18Mpr121I2CTransportEE13WriteRegisterEhh
 1468              	.LVL83:
 147:../../libs/libDaisy/src/dev/mpr121.h ****         WriteRegister(MPR121_FDLF, 0x00);
 1469              		.loc 7 147 22 view .LVU336
 1470 02ac 0122     		movs	r2, #1
 1471 02ae 3121     		movs	r1, #49
 1472 02b0 2048     		ldr	r0, .L25+8
 1473 02b2 FFF7FEFF 		bl	_ZN5daisy6Mpr121INS_18Mpr121I2CTransportEE13WriteRegisterEhh
 1474              	.LVL84:
 148:../../libs/libDaisy/src/dev/mpr121.h **** 
 1475              		.loc 7 148 22 view .LVU337
 1476 02b6 4A46     		mov	r2, r9
 1477 02b8 3221     		movs	r1, #50
 1478 02ba 1E48     		ldr	r0, .L25+8
 1479 02bc FFF7FEFF 		bl	_ZN5daisy6Mpr121INS_18Mpr121I2CTransportEE13WriteRegisterEhh
 1480              	.LVL85:
 150:../../libs/libDaisy/src/dev/mpr121.h ****         WriteRegister(MPR121_NCLT, 0x00);
 1481              		.loc 7 150 22 view .LVU338
 1482 02c0 4A46     		mov	r2, r9
 1483 02c2 3321     		movs	r1, #51
 1484 02c4 1B48     		ldr	r0, .L25+8
 1485 02c6 FFF7FEFF 		bl	_ZN5daisy6Mpr121INS_18Mpr121I2CTransportEE13WriteRegisterEhh
 1486              	.LVL86:
 151:../../libs/libDaisy/src/dev/mpr121.h ****         WriteRegister(MPR121_FDLT, 0x00);
 1487              		.loc 7 151 22 view .LVU339
 1488 02ca 4A46     		mov	r2, r9
 1489 02cc 3421     		movs	r1, #52
 1490 02ce 1948     		ldr	r0, .L25+8
 1491 02d0 FFF7FEFF 		bl	_ZN5daisy6Mpr121INS_18Mpr121I2CTransportEE13WriteRegisterEhh
 1492              	.LVL87:
 152:../../libs/libDaisy/src/dev/mpr121.h **** 
 1493              		.loc 7 152 22 view .LVU340
 1494 02d4 4A46     		mov	r2, r9
 1495 02d6 3521     		movs	r1, #53
 1496 02d8 1648     		ldr	r0, .L25+8
 1497 02da FFF7FEFF 		bl	_ZN5daisy6Mpr121INS_18Mpr121I2CTransportEE13WriteRegisterEhh
 1498              	.LVL88:
 154:../../libs/libDaisy/src/dev/mpr121.h ****         WriteRegister(MPR121_CONFIG1, 0x10); // default, 16uA charge current
 1499              		.loc 7 154 22 view .LVU341
 1500 02de 4A46     		mov	r2, r9
 1501 02e0 5B21     		movs	r1, #91
 1502 02e2 1448     		ldr	r0, .L25+8
 1503 02e4 FFF7FEFF 		bl	_ZN5daisy6Mpr121INS_18Mpr121I2CTransportEE13WriteRegisterEhh
 1504              	.LVL89:
 155:../../libs/libDaisy/src/dev/mpr121.h ****         WriteRegister(MPR121_CONFIG2, 0x20); // 0.5uS encoding, 1ms period
 1505              		.loc 7 155 22 view .LVU342
 1506 02e8 1022     		movs	r2, #16
 1507 02ea 5C21     		movs	r1, #92
 1508 02ec 1148     		ldr	r0, .L25+8
 1509 02ee FFF7FEFF 		bl	_ZN5daisy6Mpr121INS_18Mpr121I2CTransportEE13WriteRegisterEhh
 1510              	.LVL90:
 156:../../libs/libDaisy/src/dev/mpr121.h **** 
 1511              		.loc 7 156 22 view .LVU343
 1512 02f2 2022     		movs	r2, #32
 1513 02f4 5D21     		movs	r1, #93
ARM GAS  C:\Users\skipi\AppData\Local\Temp\ccrSunJV.s 			page 52


 1514 02f6 0F48     		ldr	r0, .L25+8
 1515 02f8 FFF7FEFF 		bl	_ZN5daisy6Mpr121INS_18Mpr121I2CTransportEE13WriteRegisterEhh
 1516              	.LVL91:
 172:../../libs/libDaisy/src/dev/mpr121.h ****                       ECR_SETTING); // start with above ECR setting
 1517              		.loc 7 172 22 view .LVU344
 1518 02fc 8C22     		movs	r2, #140
 1519 02fe 4146     		mov	r1, r8
 1520 0300 0C48     		ldr	r0, .L25+8
 1521 0302 FFF7FEFF 		bl	_ZN5daisy6Mpr121INS_18Mpr121I2CTransportEE13WriteRegisterEhh
 1522              	.LVL92:
 1523              	.LBB814:
 1524              	.LBI814:
 344:../../libs/libDaisy/src/dev/mpr121.h **** 
 345:../../libs/libDaisy/src/dev/mpr121.h ****     /** Get the global transport_error_ bool (as a Result), then reset it */
 346:../../libs/libDaisy/src/dev/mpr121.h ****     Result GetTransportErr()
 1525              		.loc 7 346 12 is_stmt 1 view .LVU345
 1526              	.LBB815:
 347:../../libs/libDaisy/src/dev/mpr121.h ****     {
 348:../../libs/libDaisy/src/dev/mpr121.h ****         Result ret       = transport_error_ ? ERR : OK;
 1527              		.loc 7 348 45 is_stmt 0 view .LVU346
 1528 0306 94F83030 		ldrb	r3, [r4, #48]	@ zero_extendqisi2
 1529 030a 13B3     		cbz	r3, .L12
 1530              	.LVL93:
 1531              		.loc 7 348 45 view .LVU347
 1532              	.LBE815:
 1533              	.LBE814:
 1534              	.LBE819:
 1535              	.LBE823:
 1536              	.LBB824:
 1537              	.LBB825:
 128:../../libs/libDaisy/src/daisy_seed.h ****     }
 1538              		.loc 1 128 23 view .LVU348
 1539 030c 0B48     		ldr	r0, .L25+16
 1540              	.LBE825:
 1541              	.LBE824:
 1542              	.LBB827:
 1543              	.LBB820:
 1544              	.LBB817:
 1545              	.LBB816:
 349:../../libs/libDaisy/src/dev/mpr121.h ****         transport_error_ = false;
 1546              		.loc 7 349 26 view .LVU349
 1547 030e 84F83090 		strb	r9, [r4, #48]
 1548              	.LVL94:
 1549              		.loc 7 349 26 view .LVU350
 1550              	.LBE816:
 1551              	.LBE817:
 1552              	.LBE820:
 1553              	.LBE827:
  35:main0.cpp     ****   {
  36:main0.cpp     ****     hw.PrintLine("MPR121 not found, check wiring?");
 1554              		.loc 8 36 5 is_stmt 1 view .LVU351
 1555              	.LBB828:
 1556              	.LBI824:
 126:../../libs/libDaisy/src/daisy_seed.h ****     {
 1557              		.loc 1 126 17 view .LVU352
 1558              	.LBB826:
 128:../../libs/libDaisy/src/daisy_seed.h ****     }
ARM GAS  C:\Users\skipi\AppData\Local\Temp\ccrSunJV.s 			page 53


 1559              		.loc 1 128 23 is_stmt 0 view .LVU353
 1560 0312 FFF7FEFF 		bl	_ZN5daisy6LoggerILNS_17LoggerDestinationE1EE9PrintLineEPKcz
 1561              	.LVL95:
 1562              	.L13:
 128:../../libs/libDaisy/src/daisy_seed.h ****     }
 1563              		.loc 1 128 23 view .LVU354
 1564              	.LBE826:
 1565              	.LBE828:
  37:main0.cpp     ****     while (1)
 1566              		.loc 8 37 5 is_stmt 1 discriminator 1 view .LVU355
  38:main0.cpp     ****     {
  39:main0.cpp     ****       hw.SetLed(true);
 1567              		.loc 8 39 7 discriminator 1 view .LVU356
 1568              		.loc 8 39 16 is_stmt 0 discriminator 1 view .LVU357
 1569 0316 0121     		movs	r1, #1
 1570 0318 0448     		ldr	r0, .L25
 1571 031a FFF7FEFF 		bl	_ZN5daisy9DaisySeed6SetLedEb
 1572              	.LVL96:
  40:main0.cpp     ****       hw.DelayMs(500);
 1573              		.loc 8 40 7 is_stmt 1 discriminator 1 view .LVU358
 1574              		.loc 8 40 17 is_stmt 0 discriminator 1 view .LVU359
 1575 031e 4FF4FA71 		mov	r1, #500
 1576 0322 0248     		ldr	r0, .L25
 1577 0324 FFF7FEFF 		bl	_ZN5daisy9DaisySeed7DelayMsEj
 1578              	.LVL97:
  41:main0.cpp     ****       hw.SetLed(false);
 1579              		.loc 8 41 7 is_stmt 1 discriminator 1 view .LVU360
 1580              		.loc 8 41 16 is_stmt 0 discriminator 1 view .LVU361
 1581 0328 0021     		movs	r1, #0
 1582 032a 09E0     		b	.L26
 1583              	.L27:
 1584              		.align	2
 1585              	.L25:
 1586 032c 00000000 		.word	.LANCHOR0
 1587 0330 00000000 		.word	.LANCHOR1
 1588 0334 00000000 		.word	.LANCHOR2
 1589 0338 18000000 		.word	.LANCHOR2+24
 1590 033c 00000000 		.word	.LC0
 1591              	.L26:
 1592 0340 9E48     		ldr	r0, .L28
 1593 0342 FFF7FEFF 		bl	_ZN5daisy9DaisySeed6SetLedEb
 1594              	.LVL98:
  42:main0.cpp     ****       hw.DelayMs(500);
 1595              		.loc 8 42 7 is_stmt 1 discriminator 1 view .LVU362
 1596              		.loc 8 42 17 is_stmt 0 discriminator 1 view .LVU363
 1597 0346 4FF4FA71 		mov	r1, #500
 1598 034a 9C48     		ldr	r0, .L28
 1599 034c FFF7FEFF 		bl	_ZN5daisy9DaisySeed7DelayMsEj
 1600              	.LVL99:
  37:main0.cpp     ****     {
 1601              		.loc 8 37 5 is_stmt 1 discriminator 1 view .LVU364
 1602 0350 E1E7     		b	.L13
 1603              	.LVL100:
 1604              	.L12:
  43:main0.cpp     ****     }
  44:main0.cpp     ****   }
  45:main0.cpp     ****   hw.PrintLine("MPR121 found!");
ARM GAS  C:\Users\skipi\AppData\Local\Temp\ccrSunJV.s 			page 54


 1605              		.loc 8 45 3 view .LVU365
 1606              	.LBB829:
 1607              	.LBI829:
 126:../../libs/libDaisy/src/daisy_seed.h ****     {
 1608              		.loc 1 126 17 view .LVU366
 1609              	.LBB830:
 128:../../libs/libDaisy/src/daisy_seed.h ****     }
 1610              		.loc 1 128 23 is_stmt 0 view .LVU367
 1611 0352 9B48     		ldr	r0, .L28+4
 1612 0354 9B4F     		ldr	r7, .L28+8
 1613 0356 FFF7FEFF 		bl	_ZN5daisy6LoggerILNS_17LoggerDestinationE1EE9PrintLineEPKcz
 1614              	.LVL101:
 1615 035a DFF89C82 		ldr	r8, .L28+60
 1616 035e DFF89C92 		ldr	r9, .L28+64
 129:../../libs/libDaisy/src/daisy_seed.h **** 
 1617              		.loc 1 129 5 view .LVU368
 1618 0362 79E0     		b	.L14
 1619              	.LVL102:
 1620              	.L24:
 129:../../libs/libDaisy/src/daisy_seed.h **** 
 1621              		.loc 1 129 5 view .LVU369
 1622              	.LBE830:
 1623              	.LBE829:
  46:main0.cpp     ****   //cap.SetThresholds(12, 6); // sets the touch and release thresholds for all 12 channels
  47:main0.cpp     **** 
  48:main0.cpp     ****   while (1)
  49:main0.cpp     ****   {
  50:main0.cpp     **** 
  51:main0.cpp     ****     currtouched = cap.Touched();
  52:main0.cpp     **** 
  53:main0.cpp     ****     
  54:main0.cpp     ****     if ((currtouched & _BV(0)) && !(lasttouched & _BV(0)))
  55:main0.cpp     ****     {
  56:main0.cpp     ****       hw.PrintLine("-------------------------------------------------------------------------------
  57:main0.cpp     ****       hw.PrintLine("CAP 0 touched"); 
  58:main0.cpp     ****       touched = true;  
  59:main0.cpp     ****     }
  60:main0.cpp     **** 
  61:main0.cpp     ****     //if it *was* touched and now *isnt*, alert!
  62:main0.cpp     ****     if (!(currtouched & _BV(0)) && (lasttouched & _BV(0)))
 1624              		.loc 8 62 33 view .LVU370
 1625 0364 D807     		lsls	r0, r3, #31
 1626 0366 00F1AB80 		bmi	.L16
 1627              	.L17:
  63:main0.cpp     ****     {
  64:main0.cpp     ****       hw.PrintLine("CAP 0 released");
  65:main0.cpp     ****       hw.PrintLine("-------------------------------------------------------------------------------
  66:main0.cpp     ****       hw.PrintLine(" ");
  67:main0.cpp     ****       touched = false;
  68:main0.cpp     ****        
  69:main0.cpp     ****     }
  70:main0.cpp     **** 
  71:main0.cpp     ****     if (touched)
 1628              		.loc 8 71 5 is_stmt 1 view .LVU371
 1629 036a 99F80030 		ldrb	r3, [r9]	@ zero_extendqisi2
 1630 036e 002B     		cmp	r3, #0
 1631 0370 00F0B280 		beq	.L20
ARM GAS  C:\Users\skipi\AppData\Local\Temp\ccrSunJV.s 			page 55


 1632              	.L21:
  72:main0.cpp     ****     {
  73:main0.cpp     ****       hw.PrintLine("| ");
 1633              		.loc 8 73 7 view .LVU372
 1634              	.LVL103:
 1635              	.LBB831:
 1636              	.LBI831:
 126:../../libs/libDaisy/src/daisy_seed.h ****     {
 1637              		.loc 1 126 17 view .LVU373
 1638              	.LBE831:
 1639              	.LBB834:
 1640              	.LBB835:
 1641              	.LBB836:
 1642              	.LBB837:
 1643              	.LBB838:
 1644              	.LBB839:
 1645              	.LBB840:
 1646              	.LBB841:
  78:../../libs/libDaisy/src/dev/mpr121.h ****                    config_.dev_addr, memAddress, 1, data, memSize, 10);
 1647              		.loc 7 78 32 is_stmt 0 view .LVU374
 1648 0374 0126     		movs	r6, #1
 1649 0376 4FF00A0A 		mov	r10, #10
 1650              	.LBE841:
 1651              	.LBE840:
 1652              	.LBE839:
 1653              	.LBE838:
 1654              	.LBE837:
 1655              	.LBE836:
 1656              	.LBE835:
 1657              	.LBE834:
 1658              	.LBB868:
 1659              	.LBB832:
 128:../../libs/libDaisy/src/daisy_seed.h ****     }
 1660              		.loc 1 128 23 view .LVU375
 1661 037a 9348     		ldr	r0, .L28+12
 1662              	.LBE832:
 1663              	.LBE868:
 1664              	.LBB869:
 1665              	.LBB870:
 1666              	.LBB871:
 1667              	.LBB872:
 1668              	.LBB873:
 1669              	.LBB874:
  78:../../libs/libDaisy/src/dev/mpr121.h ****                    config_.dev_addr, memAddress, 1, data, memSize, 10);
 1670              		.loc 7 78 32 view .LVU376
 1671 037c 4FF0020B 		mov	fp, #2
 1672              	.LBE874:
 1673              	.LBE873:
 1674              	.LBE872:
 1675              	.LBE871:
 1676              	.LBE870:
 1677              	.LBE869:
 1678              	.LBB890:
 1679              	.LBB833:
 128:../../libs/libDaisy/src/daisy_seed.h ****     }
 1680              		.loc 1 128 23 view .LVU377
 1681 0380 FFF7FEFF 		bl	_ZN5daisy6LoggerILNS_17LoggerDestinationE1EE9PrintLineEPKcz
ARM GAS  C:\Users\skipi\AppData\Local\Temp\ccrSunJV.s 			page 56


 1682              	.LVL104:
 128:../../libs/libDaisy/src/daisy_seed.h ****     }
 1683              		.loc 1 128 23 view .LVU378
 1684              	.LBE833:
 1685              	.LBE890:
  74:main0.cpp     ****       hw.PrintLine("| Baseline Touched Value : %d |", cap.BaselineData(0));
 1686              		.loc 8 74 7 is_stmt 1 view .LVU379
 1687              	.LBB891:
 1688              	.LBI834:
 214:../../libs/libDaisy/src/dev/mpr121.h ****     {
 1689              		.loc 7 214 14 view .LVU380
 1690              	.LBB865:
 1691              	.LBB862:
 1692              	.LBI836:
 214:../../libs/libDaisy/src/dev/mpr121.h ****     {
 1693              		.loc 7 214 14 view .LVU381
 1694              	.LBB859:
 1695              	.LBB856:
 1696              	.LBI838:
 237:../../libs/libDaisy/src/dev/mpr121.h ****     {
 1697              		.loc 7 237 13 view .LVU382
 1698              	.LBB853:
 1699              	.LBB844:
 1700              	.LBI840:
  75:../../libs/libDaisy/src/dev/mpr121.h ****     {
 1701              		.loc 7 75 10 view .LVU383
 1702              	.LBB842:
  77:../../libs/libDaisy/src/dev/mpr121.h ****                != i2c_.Mem_read(
 1703              		.loc 7 77 9 view .LVU384
  78:../../libs/libDaisy/src/dev/mpr121.h ****                    config_.dev_addr, memAddress, 1, data, memSize, 10);
 1704              		.loc 7 78 32 is_stmt 0 view .LVU385
 1705 0384 94F82C10 		ldrb	r1, [r4, #44]	@ zero_extendqisi2
 1706 0388 3346     		mov	r3, r6
 1707 038a 1E22     		movs	r2, #30
 1708 038c 8F48     		ldr	r0, .L28+16
 1709 038e 0095     		str	r5, [sp]
 1710 0390 CDE9016A 		strd	r6, r10, [sp, #4]
 1711 0394 FFF7FEFF 		bl	_ZN5daisy9I2CHandle8Mem_readEtttPhtm
 1712              	.LVL105:
  78:../../libs/libDaisy/src/dev/mpr121.h ****                    config_.dev_addr, memAddress, 1, data, memSize, 10);
 1713              		.loc 7 78 32 view .LVU386
 1714              	.LBE842:
 1715              	.LBE844:
 1716              	.LBB845:
 1717              	.LBB846:
 343:../../libs/libDaisy/src/dev/mpr121.h **** 
 1718              		.loc 7 343 55 view .LVU387
 1719 0398 94F83030 		ldrb	r3, [r4, #48]	@ zero_extendqisi2
 1720              	.LBE846:
 1721              	.LBE845:
 1722              	.LBB849:
 1723              	.LBB843:
  78:../../libs/libDaisy/src/dev/mpr121.h ****                    config_.dev_addr, memAddress, 1, data, memSize, 10);
 1724              		.loc 7 78 32 view .LVU388
 1725 039c 0246     		mov	r2, r0
 1726              	.LVL106:
  78:../../libs/libDaisy/src/dev/mpr121.h ****                    config_.dev_addr, memAddress, 1, data, memSize, 10);
ARM GAS  C:\Users\skipi\AppData\Local\Temp\ccrSunJV.s 			page 57


 1727              		.loc 7 78 32 view .LVU389
 1728              	.LBE843:
 1729              	.LBE849:
 1730              	.LBB850:
 1731              	.LBI845:
 343:../../libs/libDaisy/src/dev/mpr121.h **** 
 1732              		.loc 7 343 10 is_stmt 1 view .LVU390
 1733              	.LBE850:
 241:../../libs/libDaisy/src/dev/mpr121.h ****     }
 1734              		.loc 7 241 16 is_stmt 0 view .LVU391
 1735 039e 9DF83810 		ldrb	r1, [sp, #56]	@ zero_extendqisi2
 1736              	.LBE853:
 1737              	.LBE856:
 1738              	.LBE859:
 1739              	.LBE862:
 1740              	.LBE865:
 1741              	.LBE891:
 1742              	.LBB892:
 1743              	.LBB893:
 128:../../libs/libDaisy/src/daisy_seed.h ****     }
 1744              		.loc 1 128 23 view .LVU392
 1745 03a2 8B48     		ldr	r0, .L28+20
 1746              	.LVL107:
 128:../../libs/libDaisy/src/daisy_seed.h ****     }
 1747              		.loc 1 128 23 view .LVU393
 1748              	.LBE893:
 1749              	.LBE892:
 1750              	.LBB896:
 1751              	.LBB866:
 1752              	.LBB863:
 1753              	.LBB860:
 1754              	.LBB857:
 1755              	.LBB854:
 1756              	.LBB851:
 1757              	.LBB847:
 343:../../libs/libDaisy/src/dev/mpr121.h **** 
 1758              		.loc 7 343 55 view .LVU394
 1759 03a4 002A     		cmp	r2, #0
 1760 03a6 18BF     		it	ne
 1761 03a8 43F00103 		orrne	r3, r3, #1
 1762              	.LBE847:
 1763              	.LBE851:
 1764              	.LBE854:
 1765              	.LBE857:
 1766              	.LBE860:
 1767              	.LBE863:
 1768              	.LBE866:
 1769              	.LBE896:
 1770              	.LBB897:
 1771              	.LBB894:
 128:../../libs/libDaisy/src/daisy_seed.h ****     }
 1772              		.loc 1 128 23 view .LVU395
 1773 03ac 01FA0BF1 		lsl	r1, r1, fp
 1774              	.LBE894:
 1775              	.LBE897:
 1776              	.LBB898:
 1777              	.LBB867:
ARM GAS  C:\Users\skipi\AppData\Local\Temp\ccrSunJV.s 			page 58


 1778              	.LBB864:
 1779              	.LBB861:
 1780              	.LBB858:
 1781              	.LBB855:
 1782              	.LBB852:
 1783              	.LBB848:
 343:../../libs/libDaisy/src/dev/mpr121.h **** 
 1784              		.loc 7 343 55 view .LVU396
 1785 03b0 84F83030 		strb	r3, [r4, #48]
 1786              	.LVL108:
 343:../../libs/libDaisy/src/dev/mpr121.h **** 
 1787              		.loc 7 343 55 view .LVU397
 1788              	.LBE848:
 1789              	.LBE852:
 1790              	.LBE855:
 1791              	.LBE858:
 1792              	.LBE861:
 1793              	.LBE864:
 1794              	.LBE867:
 1795              	.LBE898:
 1796              	.LBB899:
 1797              	.LBI892:
 126:../../libs/libDaisy/src/daisy_seed.h ****     {
 1798              		.loc 1 126 17 is_stmt 1 view .LVU398
 1799              	.LBB895:
 128:../../libs/libDaisy/src/daisy_seed.h ****     }
 1800              		.loc 1 128 23 is_stmt 0 view .LVU399
 1801 03b4 FFF7FEFF 		bl	_ZN5daisy6LoggerILNS_17LoggerDestinationE1EE9PrintLineEPKcz
 1802              	.LVL109:
 128:../../libs/libDaisy/src/daisy_seed.h ****     }
 1803              		.loc 1 128 23 view .LVU400
 1804              	.LBE895:
 1805              	.LBE899:
  75:main0.cpp     ****       hw.PrintLine("| Filtered Touched Value : %d |", cap.FilteredData(0));
 1806              		.loc 8 75 7 is_stmt 1 view .LVU401
 1807              	.LBB900:
 1808              	.LBI869:
 201:../../libs/libDaisy/src/dev/mpr121.h ****     {
 1809              		.loc 7 201 14 view .LVU402
 1810              	.LBB888:
 1811              	.LBI870:
 201:../../libs/libDaisy/src/dev/mpr121.h ****     {
 1812              		.loc 7 201 14 view .LVU403
 1813              	.LBB886:
 1814              	.LBI871:
 244:../../libs/libDaisy/src/dev/mpr121.h ****     {
 1815              		.loc 7 244 14 view .LVU404
 1816              	.LBB884:
 1817              	.LBB877:
 1818              	.LBI873:
  75:../../libs/libDaisy/src/dev/mpr121.h ****     {
 1819              		.loc 7 75 10 view .LVU405
 1820              	.LBB875:
  77:../../libs/libDaisy/src/dev/mpr121.h ****                != i2c_.Mem_read(
 1821              		.loc 7 77 9 view .LVU406
  78:../../libs/libDaisy/src/dev/mpr121.h ****                    config_.dev_addr, memAddress, 1, data, memSize, 10);
 1822              		.loc 7 78 32 is_stmt 0 view .LVU407
ARM GAS  C:\Users\skipi\AppData\Local\Temp\ccrSunJV.s 			page 59


 1823 03b8 94F82C10 		ldrb	r1, [r4, #44]	@ zero_extendqisi2
 1824 03bc 3346     		mov	r3, r6
 1825 03be 0422     		movs	r2, #4
 1826 03c0 8248     		ldr	r0, .L28+16
 1827 03c2 0095     		str	r5, [sp]
 1828 03c4 CDE901BA 		strd	fp, r10, [sp, #4]
 1829 03c8 FFF7FEFF 		bl	_ZN5daisy9I2CHandle8Mem_readEtttPhtm
 1830              	.LVL110:
  78:../../libs/libDaisy/src/dev/mpr121.h ****                    config_.dev_addr, memAddress, 1, data, memSize, 10);
 1831              		.loc 7 78 32 view .LVU408
 1832              	.LBE875:
 1833              	.LBE877:
 1834              	.LBB878:
 1835              	.LBB879:
 343:../../libs/libDaisy/src/dev/mpr121.h **** 
 1836              		.loc 7 343 55 view .LVU409
 1837 03cc 94F83030 		ldrb	r3, [r4, #48]	@ zero_extendqisi2
 1838              	.LBE879:
 1839              	.LBE878:
 1840              	.LBB881:
 1841              	.LBB876:
  78:../../libs/libDaisy/src/dev/mpr121.h ****                    config_.dev_addr, memAddress, 1, data, memSize, 10);
 1842              		.loc 7 78 32 view .LVU410
 1843 03d0 0246     		mov	r2, r0
 1844              	.LVL111:
  78:../../libs/libDaisy/src/dev/mpr121.h ****                    config_.dev_addr, memAddress, 1, data, memSize, 10);
 1845              		.loc 7 78 32 view .LVU411
 1846              	.LBE876:
 1847              	.LBE881:
 1848              	.LBB882:
 1849              	.LBI878:
 343:../../libs/libDaisy/src/dev/mpr121.h **** 
 1850              		.loc 7 343 10 is_stmt 1 view .LVU412
 1851              	.LBE882:
 1852              	.LBE884:
 1853              	.LBE886:
 1854              	.LBE888:
 1855              	.LBE900:
 1856              	.LBB901:
 1857              	.LBB902:
 128:../../libs/libDaisy/src/daisy_seed.h ****     }
 1858              		.loc 1 128 23 is_stmt 0 view .LVU413
 1859 03d2 BDF83810 		ldrh	r1, [sp, #56]
 1860 03d6 7F48     		ldr	r0, .L28+24
 1861              	.LVL112:
 128:../../libs/libDaisy/src/daisy_seed.h ****     }
 1862              		.loc 1 128 23 view .LVU414
 1863              	.LBE902:
 1864              	.LBE901:
 1865              	.LBB904:
 1866              	.LBB889:
 1867              	.LBB887:
 1868              	.LBB885:
 1869              	.LBB883:
 1870              	.LBB880:
 343:../../libs/libDaisy/src/dev/mpr121.h **** 
 1871              		.loc 7 343 55 view .LVU415
ARM GAS  C:\Users\skipi\AppData\Local\Temp\ccrSunJV.s 			page 60


 1872 03d8 002A     		cmp	r2, #0
 1873 03da 18BF     		it	ne
 1874 03dc 43F00103 		orrne	r3, r3, #1
 1875 03e0 84F83030 		strb	r3, [r4, #48]
 1876              	.LVL113:
 343:../../libs/libDaisy/src/dev/mpr121.h **** 
 1877              		.loc 7 343 55 view .LVU416
 1878              	.LBE880:
 1879              	.LBE883:
 1880              	.LBE885:
 1881              	.LBE887:
 1882              	.LBE889:
 1883              	.LBE904:
 1884              	.LBB905:
 1885              	.LBI901:
 126:../../libs/libDaisy/src/daisy_seed.h ****     {
 1886              		.loc 1 126 17 is_stmt 1 view .LVU417
 1887              	.LBB903:
 128:../../libs/libDaisy/src/daisy_seed.h ****     }
 1888              		.loc 1 128 23 is_stmt 0 view .LVU418
 1889 03e4 FFF7FEFF 		bl	_ZN5daisy6LoggerILNS_17LoggerDestinationE1EE9PrintLineEPKcz
 1890              	.LVL114:
 128:../../libs/libDaisy/src/daisy_seed.h ****     }
 1891              		.loc 1 128 23 view .LVU419
 1892              	.LBE903:
 1893              	.LBE905:
  76:main0.cpp     ****       hw.PrintLine("| Difference Touched Value : %d |", cap.BaselineData(0) - cap.FilteredData(0));
 1894              		.loc 8 76 7 is_stmt 1 view .LVU420
 1895              	.LBB906:
 1896              	.LBI906:
 214:../../libs/libDaisy/src/dev/mpr121.h ****     {
 1897              		.loc 7 214 14 view .LVU421
 1898              	.LBB907:
 1899              	.LBB908:
 1900              	.LBI908:
 214:../../libs/libDaisy/src/dev/mpr121.h ****     {
 1901              		.loc 7 214 14 view .LVU422
 1902              	.LBB909:
 1903              	.LBB910:
 1904              	.LBI910:
 237:../../libs/libDaisy/src/dev/mpr121.h ****     {
 1905              		.loc 7 237 13 view .LVU423
 1906              	.LBB911:
 1907              	.LBB912:
 1908              	.LBI912:
  75:../../libs/libDaisy/src/dev/mpr121.h ****     {
 1909              		.loc 7 75 10 view .LVU424
 1910              	.LBB913:
  77:../../libs/libDaisy/src/dev/mpr121.h ****                != i2c_.Mem_read(
 1911              		.loc 7 77 9 view .LVU425
  78:../../libs/libDaisy/src/dev/mpr121.h ****                    config_.dev_addr, memAddress, 1, data, memSize, 10);
 1912              		.loc 7 78 32 is_stmt 0 view .LVU426
 1913 03e8 94F82C10 		ldrb	r1, [r4, #44]	@ zero_extendqisi2
 1914 03ec 3346     		mov	r3, r6
 1915 03ee 1E22     		movs	r2, #30
 1916 03f0 7648     		ldr	r0, .L28+16
 1917 03f2 0095     		str	r5, [sp]
ARM GAS  C:\Users\skipi\AppData\Local\Temp\ccrSunJV.s 			page 61


 1918 03f4 CDE9016A 		strd	r6, r10, [sp, #4]
 1919 03f8 FFF7FEFF 		bl	_ZN5daisy9I2CHandle8Mem_readEtttPhtm
 1920              	.LVL115:
  78:../../libs/libDaisy/src/dev/mpr121.h ****                    config_.dev_addr, memAddress, 1, data, memSize, 10);
 1921              		.loc 7 78 32 view .LVU427
 1922              	.LBE913:
 1923              	.LBE912:
 1924              	.LBB914:
 1925              	.LBI914:
 343:../../libs/libDaisy/src/dev/mpr121.h **** 
 1926              		.loc 7 343 10 is_stmt 1 view .LVU428
 1927              	.LBB915:
 343:../../libs/libDaisy/src/dev/mpr121.h **** 
 1928              		.loc 7 343 55 is_stmt 0 view .LVU429
 1929 03fc 94F830C0 		ldrb	ip, [r4, #48]	@ zero_extendqisi2
 1930              	.LBE915:
 1931              	.LBE914:
 1932              	.LBE911:
 1933              	.LBE910:
 1934              	.LBE909:
 1935              	.LBE908:
 1936              	.LBE907:
 1937              	.LBE906:
 1938              	.LBB935:
 1939              	.LBB936:
 1940              	.LBB937:
 1941              	.LBB938:
 1942              	.LBB939:
 1943              	.LBB940:
  78:../../libs/libDaisy/src/dev/mpr121.h ****                    config_.dev_addr, memAddress, 1, data, memSize, 10);
 1944              		.loc 7 78 32 view .LVU430
 1945 0400 94F82C10 		ldrb	r1, [r4, #44]	@ zero_extendqisi2
 1946 0404 3346     		mov	r3, r6
 1947              	.LBE940:
 1948              	.LBE939:
 1949              	.LBE938:
 1950              	.LBE937:
 1951              	.LBE936:
 1952              	.LBE935:
 1953              	.LBB971:
 1954              	.LBB932:
 1955              	.LBB929:
 1956              	.LBB926:
 1957              	.LBB923:
 1958              	.LBB920:
 1959              	.LBB918:
 1960              	.LBB916:
 343:../../libs/libDaisy/src/dev/mpr121.h **** 
 1961              		.loc 7 343 55 view .LVU431
 1962 0406 0028     		cmp	r0, #0
 1963 0408 18BF     		it	ne
 1964 040a 4CF0010C 		orrne	ip, ip, #1
 1965              	.LBE916:
 1966              	.LBE918:
 1967              	.LBE920:
 1968              	.LBE923:
 1969              	.LBE926:
ARM GAS  C:\Users\skipi\AppData\Local\Temp\ccrSunJV.s 			page 62


 1970              	.LBE929:
 1971              	.LBE932:
 1972              	.LBE971:
 1973              	.LBB972:
 1974              	.LBB966:
 1975              	.LBB961:
 1976              	.LBB956:
 1977              	.LBB945:
 1978              	.LBB941:
  78:../../libs/libDaisy/src/dev/mpr121.h ****                    config_.dev_addr, memAddress, 1, data, memSize, 10);
 1979              		.loc 7 78 32 view .LVU432
 1980 040e 0422     		movs	r2, #4
 1981 0410 0095     		str	r5, [sp]
 1982 0412 6E48     		ldr	r0, .L28+16
 1983              	.LVL116:
  78:../../libs/libDaisy/src/dev/mpr121.h ****                    config_.dev_addr, memAddress, 1, data, memSize, 10);
 1984              		.loc 7 78 32 view .LVU433
 1985              	.LBE941:
 1986              	.LBE945:
 1987              	.LBE956:
 1988              	.LBE961:
 1989              	.LBE966:
 1990              	.LBE972:
 1991              	.LBB973:
 1992              	.LBB933:
 1993              	.LBB930:
 1994              	.LBB927:
 1995              	.LBB924:
 1996              	.LBB921:
 241:../../libs/libDaisy/src/dev/mpr121.h ****     }
 1997              		.loc 7 241 16 view .LVU434
 1998 0414 9DF83860 		ldrb	r6, [sp, #56]	@ zero_extendqisi2
 1999              	.LBE921:
 2000              	.LBE924:
 2001              	.LBE927:
 2002              	.LBE930:
 2003              	.LBE933:
 2004              	.LBE973:
 2005              	.LBB974:
 2006              	.LBB967:
 2007              	.LBB962:
 2008              	.LBB957:
 2009              	.LBB946:
 2010              	.LBB942:
  78:../../libs/libDaisy/src/dev/mpr121.h ****                    config_.dev_addr, memAddress, 1, data, memSize, 10);
 2011              		.loc 7 78 32 view .LVU435
 2012 0418 CDE901BA 		strd	fp, r10, [sp, #4]
 2013              	.LBE942:
 2014              	.LBE946:
 2015              	.LBE957:
 2016              	.LBE962:
 2017              	.LBE967:
 2018              	.LBE974:
 2019              	.LBB975:
 2020              	.LBB934:
 2021              	.LBB931:
 2022              	.LBB928:
ARM GAS  C:\Users\skipi\AppData\Local\Temp\ccrSunJV.s 			page 63


 2023              	.LBB925:
 2024              	.LBB922:
 2025              	.LBB919:
 2026              	.LBB917:
 343:../../libs/libDaisy/src/dev/mpr121.h **** 
 2027              		.loc 7 343 55 view .LVU436
 2028 041c 84F830C0 		strb	ip, [r4, #48]
 2029              	.LVL117:
 343:../../libs/libDaisy/src/dev/mpr121.h **** 
 2030              		.loc 7 343 55 view .LVU437
 2031              	.LBE917:
 2032              	.LBE919:
 2033              	.LBE922:
 2034              	.LBE925:
 2035              	.LBE928:
 2036              	.LBE931:
 2037              	.LBE934:
 2038              	.LBE975:
 2039              	.LBB976:
 2040              	.LBI935:
 201:../../libs/libDaisy/src/dev/mpr121.h ****     {
 2041              		.loc 7 201 14 is_stmt 1 view .LVU438
 2042              	.LBB968:
 2043              	.LBI936:
 201:../../libs/libDaisy/src/dev/mpr121.h ****     {
 2044              		.loc 7 201 14 view .LVU439
 2045              	.LBB963:
 2046              	.LBI937:
 244:../../libs/libDaisy/src/dev/mpr121.h ****     {
 2047              		.loc 7 244 14 view .LVU440
 2048              	.LBB958:
 2049              	.LBB947:
 2050              	.LBI939:
  75:../../libs/libDaisy/src/dev/mpr121.h ****     {
 2051              		.loc 7 75 10 view .LVU441
 2052              	.LBB943:
  77:../../libs/libDaisy/src/dev/mpr121.h ****                != i2c_.Mem_read(
 2053              		.loc 7 77 9 view .LVU442
  78:../../libs/libDaisy/src/dev/mpr121.h ****                    config_.dev_addr, memAddress, 1, data, memSize, 10);
 2054              		.loc 7 78 32 is_stmt 0 view .LVU443
 2055 0420 FFF7FEFF 		bl	_ZN5daisy9I2CHandle8Mem_readEtttPhtm
 2056              	.LVL118:
  78:../../libs/libDaisy/src/dev/mpr121.h ****                    config_.dev_addr, memAddress, 1, data, memSize, 10);
 2057              		.loc 7 78 32 view .LVU444
 2058              	.LBE943:
 2059              	.LBE947:
 2060              	.LBB948:
 2061              	.LBB949:
 343:../../libs/libDaisy/src/dev/mpr121.h **** 
 2062              		.loc 7 343 55 view .LVU445
 2063 0424 94F83030 		ldrb	r3, [r4, #48]	@ zero_extendqisi2
 2064              	.LBE949:
 2065              	.LBE948:
 2066              	.LBB952:
 2067              	.LBB944:
  78:../../libs/libDaisy/src/dev/mpr121.h ****                    config_.dev_addr, memAddress, 1, data, memSize, 10);
 2068              		.loc 7 78 32 view .LVU446
ARM GAS  C:\Users\skipi\AppData\Local\Temp\ccrSunJV.s 			page 64


 2069 0428 0246     		mov	r2, r0
 2070              	.LVL119:
  78:../../libs/libDaisy/src/dev/mpr121.h ****                    config_.dev_addr, memAddress, 1, data, memSize, 10);
 2071              		.loc 7 78 32 view .LVU447
 2072              	.LBE944:
 2073              	.LBE952:
 2074              	.LBB953:
 2075              	.LBI948:
 343:../../libs/libDaisy/src/dev/mpr121.h **** 
 2076              		.loc 7 343 10 is_stmt 1 view .LVU448
 2077              	.LBE953:
 250:../../libs/libDaisy/src/dev/mpr121.h ****     }
 2078              		.loc 7 250 16 is_stmt 0 view .LVU449
 2079 042a BDF83810 		ldrh	r1, [sp, #56]
 2080              	.LBE958:
 2081              	.LBE963:
 2082              	.LBE968:
 2083              	.LBE976:
 2084              	.LBB977:
 2085              	.LBB978:
 128:../../libs/libDaisy/src/daisy_seed.h ****     }
 2086              		.loc 1 128 23 view .LVU450
 2087 042e 6A48     		ldr	r0, .L28+28
 2088              	.LVL120:
 128:../../libs/libDaisy/src/daisy_seed.h ****     }
 2089              		.loc 1 128 23 view .LVU451
 2090              	.LBE978:
 2091              	.LBE977:
 2092              	.LBB981:
 2093              	.LBB969:
 2094              	.LBB964:
 2095              	.LBB959:
 2096              	.LBB954:
 2097              	.LBB950:
 343:../../libs/libDaisy/src/dev/mpr121.h **** 
 2098              		.loc 7 343 55 view .LVU452
 2099 0430 002A     		cmp	r2, #0
 2100 0432 18BF     		it	ne
 2101 0434 43F00103 		orrne	r3, r3, #1
 2102              	.LBE950:
 2103              	.LBE954:
 2104              	.LBE959:
 2105              	.LBE964:
 2106              	.LBE969:
 2107              	.LBE981:
 2108              	.LBB982:
 2109              	.LBB979:
 128:../../libs/libDaisy/src/daisy_seed.h ****     }
 2110              		.loc 1 128 23 view .LVU453
 2111 0438 C1EB8601 		rsb	r1, r1, r6, lsl #2
 2112              	.LBE979:
 2113              	.LBE982:
 2114              	.LBB983:
 2115              	.LBB970:
 2116              	.LBB965:
 2117              	.LBB960:
 2118              	.LBB955:
ARM GAS  C:\Users\skipi\AppData\Local\Temp\ccrSunJV.s 			page 65


 2119              	.LBB951:
 343:../../libs/libDaisy/src/dev/mpr121.h **** 
 2120              		.loc 7 343 55 view .LVU454
 2121 043c 84F83030 		strb	r3, [r4, #48]
 2122              	.LVL121:
 343:../../libs/libDaisy/src/dev/mpr121.h **** 
 2123              		.loc 7 343 55 view .LVU455
 2124              	.LBE951:
 2125              	.LBE955:
 2126              	.LBE960:
 2127              	.LBE965:
 2128              	.LBE970:
 2129              	.LBE983:
 2130              	.LBB984:
 2131              	.LBI977:
 126:../../libs/libDaisy/src/daisy_seed.h ****     {
 2132              		.loc 1 126 17 is_stmt 1 view .LVU456
 2133              	.LBB980:
 128:../../libs/libDaisy/src/daisy_seed.h ****     }
 2134              		.loc 1 128 23 is_stmt 0 view .LVU457
 2135 0440 FFF7FEFF 		bl	_ZN5daisy6LoggerILNS_17LoggerDestinationE1EE9PrintLineEPKcz
 2136              	.LVL122:
 128:../../libs/libDaisy/src/daisy_seed.h ****     }
 2137              		.loc 1 128 23 view .LVU458
 2138              	.LBE980:
 2139              	.LBE984:
  77:main0.cpp     ****       hw.PrintLine("| ");
 2140              		.loc 8 77 7 is_stmt 1 view .LVU459
 2141              	.LBB985:
 2142              	.LBI985:
 126:../../libs/libDaisy/src/daisy_seed.h ****     {
 2143              		.loc 1 126 17 view .LVU460
 2144              	.LBB986:
 128:../../libs/libDaisy/src/daisy_seed.h ****     }
 2145              		.loc 1 128 23 is_stmt 0 view .LVU461
 2146 0444 6048     		ldr	r0, .L28+12
 2147 0446 FFF7FEFF 		bl	_ZN5daisy6LoggerILNS_17LoggerDestinationE1EE9PrintLineEPKcz
 2148              	.LVL123:
 2149              	.L19:
 128:../../libs/libDaisy/src/daisy_seed.h ****     }
 2150              		.loc 1 128 23 view .LVU462
 2151              	.LBE986:
 2152              	.LBE985:
  78:main0.cpp     ****     } else {
  79:main0.cpp     ****       hw.PrintLine(" ");
  80:main0.cpp     ****       hw.PrintLine(" ");
  81:main0.cpp     ****       hw.PrintLine("Baseline Untouched Value : %d", cap.BaselineData(0));
  82:main0.cpp     ****       hw.PrintLine("Filtered Untouched Value : %d", cap.FilteredData(0));
  83:main0.cpp     ****       hw.PrintLine("Difference Untouched Value : %d", cap.BaselineData(0)-cap.FilteredData(0));
  84:main0.cpp     ****       hw.PrintLine(" ");
  85:main0.cpp     ****       hw.PrintLine(" ");
  86:main0.cpp     ****     }
  87:main0.cpp     ****     
  88:main0.cpp     ****     
  89:main0.cpp     ****     lasttouched = currtouched;
 2153              		.loc 8 89 5 is_stmt 1 view .LVU463
 2154              		.loc 8 89 17 is_stmt 0 view .LVU464
ARM GAS  C:\Users\skipi\AppData\Local\Temp\ccrSunJV.s 			page 66


 2155 044a 3B88     		ldrh	r3, [r7]
  90:main0.cpp     **** 
  91:main0.cpp     ****    
  92:main0.cpp     ****     hw.DelayMs(200);
 2156              		.loc 8 92 15 view .LVU465
 2157 044c C821     		movs	r1, #200
 2158 044e 5B48     		ldr	r0, .L28
  89:main0.cpp     **** 
 2159              		.loc 8 89 17 view .LVU466
 2160 0450 A8F80030 		strh	r3, [r8]	@ movhi
 2161              		.loc 8 92 5 is_stmt 1 view .LVU467
 2162              		.loc 8 92 15 is_stmt 0 view .LVU468
 2163 0454 FFF7FEFF 		bl	_ZN5daisy9DaisySeed7DelayMsEj
 2164              	.LVL124:
  48:main0.cpp     ****   {
 2165              		.loc 8 48 3 is_stmt 1 view .LVU469
 2166              	.L14:
  48:main0.cpp     ****   {
 2167              		.loc 8 48 3 view .LVU470
  51:main0.cpp     **** 
 2168              		.loc 8 51 5 view .LVU471
 2169              	.LBB987:
 2170              	.LBI987:
 227:../../libs/libDaisy/src/dev/mpr121.h ****     {
 2171              		.loc 7 227 14 view .LVU472
 2172              	.LBB988:
 2173              	.LBB989:
 2174              	.LBI989:
 244:../../libs/libDaisy/src/dev/mpr121.h ****     {
 2175              		.loc 7 244 14 view .LVU473
 2176              	.LBB990:
 2177              	.LBB991:
 2178              	.LBI991:
  75:../../libs/libDaisy/src/dev/mpr121.h ****     {
 2179              		.loc 7 75 10 view .LVU474
 2180              	.LBB992:
  77:../../libs/libDaisy/src/dev/mpr121.h ****                != i2c_.Mem_read(
 2181              		.loc 7 77 9 view .LVU475
  78:../../libs/libDaisy/src/dev/mpr121.h ****                    config_.dev_addr, memAddress, 1, data, memSize, 10);
 2182              		.loc 7 78 32 is_stmt 0 view .LVU476
 2183 0458 4FF00A0C 		mov	ip, #10
 2184 045c 0226     		movs	r6, #2
 2185 045e 94F82C10 		ldrb	r1, [r4, #44]	@ zero_extendqisi2
 2186 0462 0123     		movs	r3, #1
 2187 0464 0022     		movs	r2, #0
 2188 0466 5948     		ldr	r0, .L28+16
 2189 0468 0095     		str	r5, [sp]
 2190 046a CDE9016C 		strd	r6, ip, [sp, #4]
 2191 046e FFF7FEFF 		bl	_ZN5daisy9I2CHandle8Mem_readEtttPhtm
 2192              	.LVL125:
  78:../../libs/libDaisy/src/dev/mpr121.h ****                    config_.dev_addr, memAddress, 1, data, memSize, 10);
 2193              		.loc 7 78 32 view .LVU477
 2194              	.LBE992:
 2195              	.LBE991:
 2196              	.LBB993:
 2197              	.LBI993:
 343:../../libs/libDaisy/src/dev/mpr121.h **** 
ARM GAS  C:\Users\skipi\AppData\Local\Temp\ccrSunJV.s 			page 67


 2198              		.loc 7 343 10 is_stmt 1 view .LVU478
 2199              	.LBB994:
 343:../../libs/libDaisy/src/dev/mpr121.h **** 
 2200              		.loc 7 343 55 is_stmt 0 view .LVU479
 2201 0472 94F83030 		ldrb	r3, [r4, #48]	@ zero_extendqisi2
 2202              	.LBE994:
 2203              	.LBE993:
 250:../../libs/libDaisy/src/dev/mpr121.h ****     }
 2204              		.loc 7 250 16 view .LVU480
 2205 0476 BDF83820 		ldrh	r2, [sp, #56]
 2206              	.LBB997:
 2207              	.LBB995:
 343:../../libs/libDaisy/src/dev/mpr121.h **** 
 2208              		.loc 7 343 55 view .LVU481
 2209 047a 0028     		cmp	r0, #0
 2210 047c 18BF     		it	ne
 2211 047e 43F00103 		orrne	r3, r3, #1
 2212              	.LBE995:
 2213              	.LBE997:
 2214              	.LBE990:
 2215              	.LBE989:
 230:../../libs/libDaisy/src/dev/mpr121.h ****     }
 2216              		.loc 7 230 20 view .LVU482
 2217 0482 C2F30B01 		ubfx	r1, r2, #0, #12
 2218              	.LBE988:
 2219              	.LBE987:
  54:main0.cpp     ****     {
 2220              		.loc 8 54 5 view .LVU483
 2221 0486 D607     		lsls	r6, r2, #31
 2222              	.LBB1002:
 2223              	.LBB1001:
 2224              	.LBB1000:
 2225              	.LBB999:
 2226              	.LBB998:
 2227              	.LBB996:
 343:../../libs/libDaisy/src/dev/mpr121.h **** 
 2228              		.loc 7 343 55 view .LVU484
 2229 0488 84F83030 		strb	r3, [r4, #48]
 2230              	.LVL126:
 343:../../libs/libDaisy/src/dev/mpr121.h **** 
 2231              		.loc 7 343 55 view .LVU485
 2232              	.LBE996:
 2233              	.LBE998:
 2234              	.LBE999:
 2235              	.LBE1000:
 2236              	.LBE1001:
 2237              	.LBE1002:
  51:main0.cpp     **** 
 2238              		.loc 8 51 17 view .LVU486
 2239 048c 3980     		strh	r1, [r7]	@ movhi
  54:main0.cpp     ****     {
 2240              		.loc 8 54 5 is_stmt 1 view .LVU487
  54:main0.cpp     ****     {
 2241              		.loc 8 54 32 is_stmt 0 view .LVU488
 2242 048e B8F80030 		ldrh	r3, [r8]
  54:main0.cpp     ****     {
 2243              		.loc 8 54 5 view .LVU489
ARM GAS  C:\Users\skipi\AppData\Local\Temp\ccrSunJV.s 			page 68


 2244 0492 7FF567AF 		bpl	.L24
  54:main0.cpp     ****     {
 2245              		.loc 8 54 32 discriminator 1 view .LVU490
 2246 0496 D907     		lsls	r1, r3, #31
 2247 0498 3FF567AF 		bmi	.L17
  56:main0.cpp     ****       hw.PrintLine("CAP 0 touched"); 
 2248              		.loc 8 56 7 is_stmt 1 view .LVU491
 2249              	.LVL127:
 2250              	.LBB1003:
 2251              	.LBI1003:
 126:../../libs/libDaisy/src/daisy_seed.h ****     {
 2252              		.loc 1 126 17 view .LVU492
 2253              	.LBB1004:
 128:../../libs/libDaisy/src/daisy_seed.h ****     }
 2254              		.loc 1 128 23 is_stmt 0 view .LVU493
 2255 049c 4F48     		ldr	r0, .L28+32
 2256 049e FFF7FEFF 		bl	_ZN5daisy6LoggerILNS_17LoggerDestinationE1EE9PrintLineEPKcz
 2257              	.LVL128:
 128:../../libs/libDaisy/src/daisy_seed.h ****     }
 2258              		.loc 1 128 23 view .LVU494
 2259              	.LBE1004:
 2260              	.LBE1003:
  57:main0.cpp     ****       touched = true;  
 2261              		.loc 8 57 7 is_stmt 1 view .LVU495
 2262              	.LBB1005:
 2263              	.LBI1005:
 126:../../libs/libDaisy/src/daisy_seed.h ****     {
 2264              		.loc 1 126 17 view .LVU496
 2265              	.LBB1006:
 128:../../libs/libDaisy/src/daisy_seed.h ****     }
 2266              		.loc 1 128 23 is_stmt 0 view .LVU497
 2267 04a2 4F48     		ldr	r0, .L28+36
 2268 04a4 FFF7FEFF 		bl	_ZN5daisy6LoggerILNS_17LoggerDestinationE1EE9PrintLineEPKcz
 2269              	.LVL129:
 128:../../libs/libDaisy/src/daisy_seed.h ****     }
 2270              		.loc 1 128 23 view .LVU498
 2271              	.LBE1006:
 2272              	.LBE1005:
  58:main0.cpp     ****     }
 2273              		.loc 8 58 7 is_stmt 1 view .LVU499
  58:main0.cpp     ****     }
 2274              		.loc 8 58 15 is_stmt 0 view .LVU500
 2275 04a8 0122     		movs	r2, #1
  62:main0.cpp     ****     {
 2276              		.loc 8 62 5 view .LVU501
 2277 04aa 3B88     		ldrh	r3, [r7]
  58:main0.cpp     ****     }
 2278              		.loc 8 58 15 view .LVU502
 2279 04ac 89F80020 		strb	r2, [r9]
  62:main0.cpp     ****     {
 2280              		.loc 8 62 5 is_stmt 1 view .LVU503
 2281 04b0 DA07     		lsls	r2, r3, #31
 2282 04b2 3FF55FAF 		bmi	.L21
  62:main0.cpp     ****     {
 2283              		.loc 8 62 33 is_stmt 0 view .LVU504
 2284 04b6 B8F80030 		ldrh	r3, [r8]
 2285 04ba DB07     		lsls	r3, r3, #31
ARM GAS  C:\Users\skipi\AppData\Local\Temp\ccrSunJV.s 			page 69


 2286 04bc 7FF55AAF 		bpl	.L21
 2287              	.L16:
  64:main0.cpp     ****       hw.PrintLine("-------------------------------------------------------------------------------
 2288              		.loc 8 64 7 is_stmt 1 view .LVU505
 2289              	.LVL130:
 2290              	.LBB1007:
 2291              	.LBI1007:
 126:../../libs/libDaisy/src/daisy_seed.h ****     {
 2292              		.loc 1 126 17 view .LVU506
 2293              	.LBB1008:
 128:../../libs/libDaisy/src/daisy_seed.h ****     }
 2294              		.loc 1 128 23 is_stmt 0 view .LVU507
 2295 04c0 4848     		ldr	r0, .L28+40
 2296 04c2 FFF7FEFF 		bl	_ZN5daisy6LoggerILNS_17LoggerDestinationE1EE9PrintLineEPKcz
 2297              	.LVL131:
 128:../../libs/libDaisy/src/daisy_seed.h ****     }
 2298              		.loc 1 128 23 view .LVU508
 2299              	.LBE1008:
 2300              	.LBE1007:
  65:main0.cpp     ****       hw.PrintLine(" ");
 2301              		.loc 8 65 7 is_stmt 1 view .LVU509
 2302              	.LBB1009:
 2303              	.LBI1009:
 126:../../libs/libDaisy/src/daisy_seed.h ****     {
 2304              		.loc 1 126 17 view .LVU510
 2305              	.LBB1010:
 128:../../libs/libDaisy/src/daisy_seed.h ****     }
 2306              		.loc 1 128 23 is_stmt 0 view .LVU511
 2307 04c6 4548     		ldr	r0, .L28+32
 2308 04c8 FFF7FEFF 		bl	_ZN5daisy6LoggerILNS_17LoggerDestinationE1EE9PrintLineEPKcz
 2309              	.LVL132:
 128:../../libs/libDaisy/src/daisy_seed.h ****     }
 2310              		.loc 1 128 23 view .LVU512
 2311              	.LBE1010:
 2312              	.LBE1009:
  66:main0.cpp     ****       touched = false;
 2313              		.loc 8 66 7 is_stmt 1 view .LVU513
 2314              	.LBB1011:
 2315              	.LBI1011:
 126:../../libs/libDaisy/src/daisy_seed.h ****     {
 2316              		.loc 1 126 17 view .LVU514
 2317              	.LBB1012:
 128:../../libs/libDaisy/src/daisy_seed.h ****     }
 2318              		.loc 1 128 23 is_stmt 0 view .LVU515
 2319 04cc 4648     		ldr	r0, .L28+44
 2320 04ce FFF7FEFF 		bl	_ZN5daisy6LoggerILNS_17LoggerDestinationE1EE9PrintLineEPKcz
 2321              	.LVL133:
 128:../../libs/libDaisy/src/daisy_seed.h ****     }
 2322              		.loc 1 128 23 view .LVU516
 2323              	.LBE1012:
 2324              	.LBE1011:
  67:main0.cpp     ****        
 2325              		.loc 8 67 7 is_stmt 1 view .LVU517
  67:main0.cpp     ****        
 2326              		.loc 8 67 15 is_stmt 0 view .LVU518
 2327 04d2 0023     		movs	r3, #0
 2328 04d4 89F80030 		strb	r3, [r9]
ARM GAS  C:\Users\skipi\AppData\Local\Temp\ccrSunJV.s 			page 70


  71:main0.cpp     ****     {
 2329              		.loc 8 71 5 is_stmt 1 view .LVU519
 2330              	.L20:
  79:main0.cpp     ****       hw.PrintLine(" ");
 2331              		.loc 8 79 7 view .LVU520
 2332              	.LVL134:
 2333              	.LBB1013:
 2334              	.LBI1013:
 126:../../libs/libDaisy/src/daisy_seed.h ****     {
 2335              		.loc 1 126 17 view .LVU521
 2336              	.LBE1013:
 2337              	.LBB1016:
 2338              	.LBB1017:
 2339              	.LBB1018:
 2340              	.LBB1019:
 2341              	.LBB1020:
 2342              	.LBB1021:
 2343              	.LBB1022:
 2344              	.LBB1023:
  78:../../libs/libDaisy/src/dev/mpr121.h ****                    config_.dev_addr, memAddress, 1, data, memSize, 10);
 2345              		.loc 7 78 32 is_stmt 0 view .LVU522
 2346 04d8 0126     		movs	r6, #1
 2347 04da 4FF00A0A 		mov	r10, #10
 2348              	.LBE1023:
 2349              	.LBE1022:
 2350              	.LBE1021:
 2351              	.LBE1020:
 2352              	.LBE1019:
 2353              	.LBE1018:
 2354              	.LBE1017:
 2355              	.LBE1016:
 2356              	.LBB1050:
 2357              	.LBB1014:
 128:../../libs/libDaisy/src/daisy_seed.h ****     }
 2358              		.loc 1 128 23 view .LVU523
 2359 04de 4248     		ldr	r0, .L28+44
 2360              	.LBE1014:
 2361              	.LBE1050:
 2362              	.LBB1051:
 2363              	.LBB1052:
 2364              	.LBB1053:
 2365              	.LBB1054:
 2366              	.LBB1055:
 2367              	.LBB1056:
  78:../../libs/libDaisy/src/dev/mpr121.h ****                    config_.dev_addr, memAddress, 1, data, memSize, 10);
 2368              		.loc 7 78 32 view .LVU524
 2369 04e0 4FF0020B 		mov	fp, #2
 2370              	.LBE1056:
 2371              	.LBE1055:
 2372              	.LBE1054:
 2373              	.LBE1053:
 2374              	.LBE1052:
 2375              	.LBE1051:
 2376              	.LBB1072:
 2377              	.LBB1015:
 128:../../libs/libDaisy/src/daisy_seed.h ****     }
 2378              		.loc 1 128 23 view .LVU525
ARM GAS  C:\Users\skipi\AppData\Local\Temp\ccrSunJV.s 			page 71


 2379 04e4 FFF7FEFF 		bl	_ZN5daisy6LoggerILNS_17LoggerDestinationE1EE9PrintLineEPKcz
 2380              	.LVL135:
 128:../../libs/libDaisy/src/daisy_seed.h ****     }
 2381              		.loc 1 128 23 view .LVU526
 2382              	.LBE1015:
 2383              	.LBE1072:
  80:main0.cpp     ****       hw.PrintLine("Baseline Untouched Value : %d", cap.BaselineData(0));
 2384              		.loc 8 80 7 is_stmt 1 view .LVU527
 2385              	.LBB1073:
 2386              	.LBI1073:
 126:../../libs/libDaisy/src/daisy_seed.h ****     {
 2387              		.loc 1 126 17 view .LVU528
 2388              	.LBB1074:
 128:../../libs/libDaisy/src/daisy_seed.h ****     }
 2389              		.loc 1 128 23 is_stmt 0 view .LVU529
 2390 04e8 3F48     		ldr	r0, .L28+44
 2391 04ea FFF7FEFF 		bl	_ZN5daisy6LoggerILNS_17LoggerDestinationE1EE9PrintLineEPKcz
 2392              	.LVL136:
 128:../../libs/libDaisy/src/daisy_seed.h ****     }
 2393              		.loc 1 128 23 view .LVU530
 2394              	.LBE1074:
 2395              	.LBE1073:
  81:main0.cpp     ****       hw.PrintLine("Filtered Untouched Value : %d", cap.FilteredData(0));
 2396              		.loc 8 81 7 is_stmt 1 view .LVU531
 2397              	.LBB1075:
 2398              	.LBI1016:
 214:../../libs/libDaisy/src/dev/mpr121.h ****     {
 2399              		.loc 7 214 14 view .LVU532
 2400              	.LBB1047:
 2401              	.LBB1044:
 2402              	.LBI1018:
 214:../../libs/libDaisy/src/dev/mpr121.h ****     {
 2403              		.loc 7 214 14 view .LVU533
 2404              	.LBB1041:
 2405              	.LBB1038:
 2406              	.LBI1020:
 237:../../libs/libDaisy/src/dev/mpr121.h ****     {
 2407              		.loc 7 237 13 view .LVU534
 2408              	.LBB1035:
 2409              	.LBB1026:
 2410              	.LBI1022:
  75:../../libs/libDaisy/src/dev/mpr121.h ****     {
 2411              		.loc 7 75 10 view .LVU535
 2412              	.LBB1024:
  77:../../libs/libDaisy/src/dev/mpr121.h ****                != i2c_.Mem_read(
 2413              		.loc 7 77 9 view .LVU536
  78:../../libs/libDaisy/src/dev/mpr121.h ****                    config_.dev_addr, memAddress, 1, data, memSize, 10);
 2414              		.loc 7 78 32 is_stmt 0 view .LVU537
 2415 04ee 94F82C10 		ldrb	r1, [r4, #44]	@ zero_extendqisi2
 2416 04f2 3346     		mov	r3, r6
 2417 04f4 1E22     		movs	r2, #30
 2418 04f6 0095     		str	r5, [sp]
 2419 04f8 3448     		ldr	r0, .L28+16
 2420 04fa CDE9016A 		strd	r6, r10, [sp, #4]
 2421 04fe FFF7FEFF 		bl	_ZN5daisy9I2CHandle8Mem_readEtttPhtm
 2422              	.LVL137:
  78:../../libs/libDaisy/src/dev/mpr121.h ****                    config_.dev_addr, memAddress, 1, data, memSize, 10);
ARM GAS  C:\Users\skipi\AppData\Local\Temp\ccrSunJV.s 			page 72


 2423              		.loc 7 78 32 view .LVU538
 2424              	.LBE1024:
 2425              	.LBE1026:
 2426              	.LBB1027:
 2427              	.LBB1028:
 343:../../libs/libDaisy/src/dev/mpr121.h **** 
 2428              		.loc 7 343 55 view .LVU539
 2429 0502 94F83030 		ldrb	r3, [r4, #48]	@ zero_extendqisi2
 2430              	.LBE1028:
 2431              	.LBE1027:
 2432              	.LBB1031:
 2433              	.LBB1025:
  78:../../libs/libDaisy/src/dev/mpr121.h ****                    config_.dev_addr, memAddress, 1, data, memSize, 10);
 2434              		.loc 7 78 32 view .LVU540
 2435 0506 0246     		mov	r2, r0
 2436              	.LVL138:
  78:../../libs/libDaisy/src/dev/mpr121.h ****                    config_.dev_addr, memAddress, 1, data, memSize, 10);
 2437              		.loc 7 78 32 view .LVU541
 2438              	.LBE1025:
 2439              	.LBE1031:
 2440              	.LBB1032:
 2441              	.LBI1027:
 343:../../libs/libDaisy/src/dev/mpr121.h **** 
 2442              		.loc 7 343 10 is_stmt 1 view .LVU542
 2443              	.LBE1032:
 241:../../libs/libDaisy/src/dev/mpr121.h ****     }
 2444              		.loc 7 241 16 is_stmt 0 view .LVU543
 2445 0508 9DF83810 		ldrb	r1, [sp, #56]	@ zero_extendqisi2
 2446              	.LBE1035:
 2447              	.LBE1038:
 2448              	.LBE1041:
 2449              	.LBE1044:
 2450              	.LBE1047:
 2451              	.LBE1075:
 2452              	.LBB1076:
 2453              	.LBB1077:
 128:../../libs/libDaisy/src/daisy_seed.h ****     }
 2454              		.loc 1 128 23 view .LVU544
 2455 050c 3748     		ldr	r0, .L28+48
 2456              	.LVL139:
 128:../../libs/libDaisy/src/daisy_seed.h ****     }
 2457              		.loc 1 128 23 view .LVU545
 2458              	.LBE1077:
 2459              	.LBE1076:
 2460              	.LBB1080:
 2461              	.LBB1048:
 2462              	.LBB1045:
 2463              	.LBB1042:
 2464              	.LBB1039:
 2465              	.LBB1036:
 2466              	.LBB1033:
 2467              	.LBB1029:
 343:../../libs/libDaisy/src/dev/mpr121.h **** 
 2468              		.loc 7 343 55 view .LVU546
 2469 050e 002A     		cmp	r2, #0
 2470 0510 18BF     		it	ne
 2471 0512 43F00103 		orrne	r3, r3, #1
ARM GAS  C:\Users\skipi\AppData\Local\Temp\ccrSunJV.s 			page 73


 2472              	.LBE1029:
 2473              	.LBE1033:
 2474              	.LBE1036:
 2475              	.LBE1039:
 2476              	.LBE1042:
 2477              	.LBE1045:
 2478              	.LBE1048:
 2479              	.LBE1080:
 2480              	.LBB1081:
 2481              	.LBB1078:
 128:../../libs/libDaisy/src/daisy_seed.h ****     }
 2482              		.loc 1 128 23 view .LVU547
 2483 0516 01FA0BF1 		lsl	r1, r1, fp
 2484              	.LBE1078:
 2485              	.LBE1081:
 2486              	.LBB1082:
 2487              	.LBB1049:
 2488              	.LBB1046:
 2489              	.LBB1043:
 2490              	.LBB1040:
 2491              	.LBB1037:
 2492              	.LBB1034:
 2493              	.LBB1030:
 343:../../libs/libDaisy/src/dev/mpr121.h **** 
 2494              		.loc 7 343 55 view .LVU548
 2495 051a 84F83030 		strb	r3, [r4, #48]
 2496              	.LVL140:
 343:../../libs/libDaisy/src/dev/mpr121.h **** 
 2497              		.loc 7 343 55 view .LVU549
 2498              	.LBE1030:
 2499              	.LBE1034:
 2500              	.LBE1037:
 2501              	.LBE1040:
 2502              	.LBE1043:
 2503              	.LBE1046:
 2504              	.LBE1049:
 2505              	.LBE1082:
 2506              	.LBB1083:
 2507              	.LBI1076:
 126:../../libs/libDaisy/src/daisy_seed.h ****     {
 2508              		.loc 1 126 17 is_stmt 1 view .LVU550
 2509              	.LBB1079:
 128:../../libs/libDaisy/src/daisy_seed.h ****     }
 2510              		.loc 1 128 23 is_stmt 0 view .LVU551
 2511 051e FFF7FEFF 		bl	_ZN5daisy6LoggerILNS_17LoggerDestinationE1EE9PrintLineEPKcz
 2512              	.LVL141:
 128:../../libs/libDaisy/src/daisy_seed.h ****     }
 2513              		.loc 1 128 23 view .LVU552
 2514              	.LBE1079:
 2515              	.LBE1083:
  82:main0.cpp     ****       hw.PrintLine("Difference Untouched Value : %d", cap.BaselineData(0)-cap.FilteredData(0));
 2516              		.loc 8 82 7 is_stmt 1 view .LVU553
 2517              	.LBB1084:
 2518              	.LBI1051:
 201:../../libs/libDaisy/src/dev/mpr121.h ****     {
 2519              		.loc 7 201 14 view .LVU554
 2520              	.LBB1070:
ARM GAS  C:\Users\skipi\AppData\Local\Temp\ccrSunJV.s 			page 74


 2521              	.LBI1052:
 201:../../libs/libDaisy/src/dev/mpr121.h ****     {
 2522              		.loc 7 201 14 view .LVU555
 2523              	.LBB1068:
 2524              	.LBI1053:
 244:../../libs/libDaisy/src/dev/mpr121.h ****     {
 2525              		.loc 7 244 14 view .LVU556
 2526              	.LBB1066:
 2527              	.LBB1059:
 2528              	.LBI1055:
  75:../../libs/libDaisy/src/dev/mpr121.h ****     {
 2529              		.loc 7 75 10 view .LVU557
 2530              	.LBB1057:
  77:../../libs/libDaisy/src/dev/mpr121.h ****                != i2c_.Mem_read(
 2531              		.loc 7 77 9 view .LVU558
  78:../../libs/libDaisy/src/dev/mpr121.h ****                    config_.dev_addr, memAddress, 1, data, memSize, 10);
 2532              		.loc 7 78 32 is_stmt 0 view .LVU559
 2533 0522 94F82C10 		ldrb	r1, [r4, #44]	@ zero_extendqisi2
 2534 0526 3346     		mov	r3, r6
 2535 0528 0422     		movs	r2, #4
 2536 052a 0095     		str	r5, [sp]
 2537 052c 2748     		ldr	r0, .L28+16
 2538 052e CDE901BA 		strd	fp, r10, [sp, #4]
 2539 0532 FFF7FEFF 		bl	_ZN5daisy9I2CHandle8Mem_readEtttPhtm
 2540              	.LVL142:
  78:../../libs/libDaisy/src/dev/mpr121.h ****                    config_.dev_addr, memAddress, 1, data, memSize, 10);
 2541              		.loc 7 78 32 view .LVU560
 2542              	.LBE1057:
 2543              	.LBE1059:
 2544              	.LBB1060:
 2545              	.LBB1061:
 343:../../libs/libDaisy/src/dev/mpr121.h **** 
 2546              		.loc 7 343 55 view .LVU561
 2547 0536 94F83030 		ldrb	r3, [r4, #48]	@ zero_extendqisi2
 2548              	.LBE1061:
 2549              	.LBE1060:
 2550              	.LBB1063:
 2551              	.LBB1058:
  78:../../libs/libDaisy/src/dev/mpr121.h ****                    config_.dev_addr, memAddress, 1, data, memSize, 10);
 2552              		.loc 7 78 32 view .LVU562
 2553 053a 0246     		mov	r2, r0
 2554              	.LVL143:
  78:../../libs/libDaisy/src/dev/mpr121.h ****                    config_.dev_addr, memAddress, 1, data, memSize, 10);
 2555              		.loc 7 78 32 view .LVU563
 2556              	.LBE1058:
 2557              	.LBE1063:
 2558              	.LBB1064:
 2559              	.LBI1060:
 343:../../libs/libDaisy/src/dev/mpr121.h **** 
 2560              		.loc 7 343 10 is_stmt 1 view .LVU564
 2561              	.LBE1064:
 2562              	.LBE1066:
 2563              	.LBE1068:
 2564              	.LBE1070:
 2565              	.LBE1084:
 2566              	.LBB1085:
 2567              	.LBB1086:
ARM GAS  C:\Users\skipi\AppData\Local\Temp\ccrSunJV.s 			page 75


 128:../../libs/libDaisy/src/daisy_seed.h ****     }
 2568              		.loc 1 128 23 is_stmt 0 view .LVU565
 2569 053c BDF83810 		ldrh	r1, [sp, #56]
 2570 0540 2B48     		ldr	r0, .L28+52
 2571              	.LVL144:
 128:../../libs/libDaisy/src/daisy_seed.h ****     }
 2572              		.loc 1 128 23 view .LVU566
 2573              	.LBE1086:
 2574              	.LBE1085:
 2575              	.LBB1088:
 2576              	.LBB1071:
 2577              	.LBB1069:
 2578              	.LBB1067:
 2579              	.LBB1065:
 2580              	.LBB1062:
 343:../../libs/libDaisy/src/dev/mpr121.h **** 
 2581              		.loc 7 343 55 view .LVU567
 2582 0542 002A     		cmp	r2, #0
 2583 0544 18BF     		it	ne
 2584 0546 43F00103 		orrne	r3, r3, #1
 2585 054a 84F83030 		strb	r3, [r4, #48]
 2586              	.LVL145:
 343:../../libs/libDaisy/src/dev/mpr121.h **** 
 2587              		.loc 7 343 55 view .LVU568
 2588              	.LBE1062:
 2589              	.LBE1065:
 2590              	.LBE1067:
 2591              	.LBE1069:
 2592              	.LBE1071:
 2593              	.LBE1088:
 2594              	.LBB1089:
 2595              	.LBI1085:
 126:../../libs/libDaisy/src/daisy_seed.h ****     {
 2596              		.loc 1 126 17 is_stmt 1 view .LVU569
 2597              	.LBB1087:
 128:../../libs/libDaisy/src/daisy_seed.h ****     }
 2598              		.loc 1 128 23 is_stmt 0 view .LVU570
 2599 054e FFF7FEFF 		bl	_ZN5daisy6LoggerILNS_17LoggerDestinationE1EE9PrintLineEPKcz
 2600              	.LVL146:
 128:../../libs/libDaisy/src/daisy_seed.h ****     }
 2601              		.loc 1 128 23 view .LVU571
 2602              	.LBE1087:
 2603              	.LBE1089:
  83:main0.cpp     ****       hw.PrintLine(" ");
 2604              		.loc 8 83 7 is_stmt 1 view .LVU572
 2605              	.LBB1090:
 2606              	.LBI1090:
 214:../../libs/libDaisy/src/dev/mpr121.h ****     {
 2607              		.loc 7 214 14 view .LVU573
 2608              	.LBB1091:
 2609              	.LBB1092:
 2610              	.LBI1092:
 214:../../libs/libDaisy/src/dev/mpr121.h ****     {
 2611              		.loc 7 214 14 view .LVU574
 2612              	.LBB1093:
 2613              	.LBB1094:
 2614              	.LBI1094:
ARM GAS  C:\Users\skipi\AppData\Local\Temp\ccrSunJV.s 			page 76


 237:../../libs/libDaisy/src/dev/mpr121.h ****     {
 2615              		.loc 7 237 13 view .LVU575
 2616              	.LBB1095:
 2617              	.LBB1096:
 2618              	.LBI1096:
  75:../../libs/libDaisy/src/dev/mpr121.h ****     {
 2619              		.loc 7 75 10 view .LVU576
 2620              	.LBB1097:
  77:../../libs/libDaisy/src/dev/mpr121.h ****                != i2c_.Mem_read(
 2621              		.loc 7 77 9 view .LVU577
  78:../../libs/libDaisy/src/dev/mpr121.h ****                    config_.dev_addr, memAddress, 1, data, memSize, 10);
 2622              		.loc 7 78 32 is_stmt 0 view .LVU578
 2623 0552 94F82C10 		ldrb	r1, [r4, #44]	@ zero_extendqisi2
 2624 0556 3346     		mov	r3, r6
 2625 0558 1E22     		movs	r2, #30
 2626 055a 0095     		str	r5, [sp]
 2627 055c 1B48     		ldr	r0, .L28+16
 2628 055e CDE9016A 		strd	r6, r10, [sp, #4]
 2629 0562 FFF7FEFF 		bl	_ZN5daisy9I2CHandle8Mem_readEtttPhtm
 2630              	.LVL147:
  78:../../libs/libDaisy/src/dev/mpr121.h ****                    config_.dev_addr, memAddress, 1, data, memSize, 10);
 2631              		.loc 7 78 32 view .LVU579
 2632              	.LBE1097:
 2633              	.LBE1096:
 2634              	.LBB1098:
 2635              	.LBI1098:
 343:../../libs/libDaisy/src/dev/mpr121.h **** 
 2636              		.loc 7 343 10 is_stmt 1 view .LVU580
 2637              	.LBB1099:
 343:../../libs/libDaisy/src/dev/mpr121.h **** 
 2638              		.loc 7 343 55 is_stmt 0 view .LVU581
 2639 0566 94F830C0 		ldrb	ip, [r4, #48]	@ zero_extendqisi2
 2640              	.LBE1099:
 2641              	.LBE1098:
 2642              	.LBE1095:
 2643              	.LBE1094:
 2644              	.LBE1093:
 2645              	.LBE1092:
 2646              	.LBE1091:
 2647              	.LBE1090:
 2648              	.LBB1119:
 2649              	.LBB1120:
 2650              	.LBB1121:
 2651              	.LBB1122:
 2652              	.LBB1123:
 2653              	.LBB1124:
  78:../../libs/libDaisy/src/dev/mpr121.h ****                    config_.dev_addr, memAddress, 1, data, memSize, 10);
 2654              		.loc 7 78 32 view .LVU582
 2655 056a 94F82C10 		ldrb	r1, [r4, #44]	@ zero_extendqisi2
 2656 056e 3346     		mov	r3, r6
 2657              	.LBE1124:
 2658              	.LBE1123:
 2659              	.LBE1122:
 2660              	.LBE1121:
 2661              	.LBE1120:
 2662              	.LBE1119:
 2663              	.LBB1155:
ARM GAS  C:\Users\skipi\AppData\Local\Temp\ccrSunJV.s 			page 77


 2664              	.LBB1116:
 2665              	.LBB1113:
 2666              	.LBB1110:
 2667              	.LBB1107:
 2668              	.LBB1104:
 2669              	.LBB1102:
 2670              	.LBB1100:
 343:../../libs/libDaisy/src/dev/mpr121.h **** 
 2671              		.loc 7 343 55 view .LVU583
 2672 0570 0028     		cmp	r0, #0
 2673 0572 18BF     		it	ne
 2674 0574 4CF0010C 		orrne	ip, ip, #1
 2675              	.LBE1100:
 2676              	.LBE1102:
 2677              	.LBE1104:
 2678              	.LBE1107:
 2679              	.LBE1110:
 2680              	.LBE1113:
 2681              	.LBE1116:
 2682              	.LBE1155:
 2683              	.LBB1156:
 2684              	.LBB1150:
 2685              	.LBB1145:
 2686              	.LBB1140:
 2687              	.LBB1129:
 2688              	.LBB1125:
  78:../../libs/libDaisy/src/dev/mpr121.h ****                    config_.dev_addr, memAddress, 1, data, memSize, 10);
 2689              		.loc 7 78 32 view .LVU584
 2690 0578 0095     		str	r5, [sp]
 2691 057a 0422     		movs	r2, #4
 2692 057c 1348     		ldr	r0, .L28+16
 2693              	.LVL148:
  78:../../libs/libDaisy/src/dev/mpr121.h ****                    config_.dev_addr, memAddress, 1, data, memSize, 10);
 2694              		.loc 7 78 32 view .LVU585
 2695              	.LBE1125:
 2696              	.LBE1129:
 2697              	.LBE1140:
 2698              	.LBE1145:
 2699              	.LBE1150:
 2700              	.LBE1156:
 2701              	.LBB1157:
 2702              	.LBB1117:
 2703              	.LBB1114:
 2704              	.LBB1111:
 2705              	.LBB1108:
 2706              	.LBB1105:
 241:../../libs/libDaisy/src/dev/mpr121.h ****     }
 2707              		.loc 7 241 16 view .LVU586
 2708 057e 9DF83860 		ldrb	r6, [sp, #56]	@ zero_extendqisi2
 2709              	.LBE1105:
 2710              	.LBE1108:
 2711              	.LBE1111:
 2712              	.LBE1114:
 2713              	.LBE1117:
 2714              	.LBE1157:
 2715              	.LBB1158:
 2716              	.LBB1151:
ARM GAS  C:\Users\skipi\AppData\Local\Temp\ccrSunJV.s 			page 78


 2717              	.LBB1146:
 2718              	.LBB1141:
 2719              	.LBB1130:
 2720              	.LBB1126:
  78:../../libs/libDaisy/src/dev/mpr121.h ****                    config_.dev_addr, memAddress, 1, data, memSize, 10);
 2721              		.loc 7 78 32 view .LVU587
 2722 0582 CDE901BA 		strd	fp, r10, [sp, #4]
 2723              	.LBE1126:
 2724              	.LBE1130:
 2725              	.LBE1141:
 2726              	.LBE1146:
 2727              	.LBE1151:
 2728              	.LBE1158:
 2729              	.LBB1159:
 2730              	.LBB1118:
 2731              	.LBB1115:
 2732              	.LBB1112:
 2733              	.LBB1109:
 2734              	.LBB1106:
 2735              	.LBB1103:
 2736              	.LBB1101:
 343:../../libs/libDaisy/src/dev/mpr121.h **** 
 2737              		.loc 7 343 55 view .LVU588
 2738 0586 84F830C0 		strb	ip, [r4, #48]
 2739              	.LVL149:
 343:../../libs/libDaisy/src/dev/mpr121.h **** 
 2740              		.loc 7 343 55 view .LVU589
 2741              	.LBE1101:
 2742              	.LBE1103:
 2743              	.LBE1106:
 2744              	.LBE1109:
 2745              	.LBE1112:
 2746              	.LBE1115:
 2747              	.LBE1118:
 2748              	.LBE1159:
 2749              	.LBB1160:
 2750              	.LBI1119:
 201:../../libs/libDaisy/src/dev/mpr121.h ****     {
 2751              		.loc 7 201 14 is_stmt 1 view .LVU590
 2752              	.LBB1152:
 2753              	.LBI1120:
 201:../../libs/libDaisy/src/dev/mpr121.h ****     {
 2754              		.loc 7 201 14 view .LVU591
 2755              	.LBB1147:
 2756              	.LBI1121:
 244:../../libs/libDaisy/src/dev/mpr121.h ****     {
 2757              		.loc 7 244 14 view .LVU592
 2758              	.LBB1142:
 2759              	.LBB1131:
 2760              	.LBI1123:
  75:../../libs/libDaisy/src/dev/mpr121.h ****     {
 2761              		.loc 7 75 10 view .LVU593
 2762              	.LBB1127:
  77:../../libs/libDaisy/src/dev/mpr121.h ****                != i2c_.Mem_read(
 2763              		.loc 7 77 9 view .LVU594
  78:../../libs/libDaisy/src/dev/mpr121.h ****                    config_.dev_addr, memAddress, 1, data, memSize, 10);
 2764              		.loc 7 78 32 is_stmt 0 view .LVU595
ARM GAS  C:\Users\skipi\AppData\Local\Temp\ccrSunJV.s 			page 79


 2765 058a FFF7FEFF 		bl	_ZN5daisy9I2CHandle8Mem_readEtttPhtm
 2766              	.LVL150:
  78:../../libs/libDaisy/src/dev/mpr121.h ****                    config_.dev_addr, memAddress, 1, data, memSize, 10);
 2767              		.loc 7 78 32 view .LVU596
 2768              	.LBE1127:
 2769              	.LBE1131:
 2770              	.LBB1132:
 2771              	.LBB1133:
 343:../../libs/libDaisy/src/dev/mpr121.h **** 
 2772              		.loc 7 343 55 view .LVU597
 2773 058e 94F83030 		ldrb	r3, [r4, #48]	@ zero_extendqisi2
 2774              	.LBE1133:
 2775              	.LBE1132:
 2776              	.LBB1136:
 2777              	.LBB1128:
  78:../../libs/libDaisy/src/dev/mpr121.h ****                    config_.dev_addr, memAddress, 1, data, memSize, 10);
 2778              		.loc 7 78 32 view .LVU598
 2779 0592 0246     		mov	r2, r0
 2780              	.LVL151:
  78:../../libs/libDaisy/src/dev/mpr121.h ****                    config_.dev_addr, memAddress, 1, data, memSize, 10);
 2781              		.loc 7 78 32 view .LVU599
 2782              	.LBE1128:
 2783              	.LBE1136:
 2784              	.LBB1137:
 2785              	.LBI1132:
 343:../../libs/libDaisy/src/dev/mpr121.h **** 
 2786              		.loc 7 343 10 is_stmt 1 view .LVU600
 2787              	.LBE1137:
 250:../../libs/libDaisy/src/dev/mpr121.h ****     }
 2788              		.loc 7 250 16 is_stmt 0 view .LVU601
 2789 0594 BDF83810 		ldrh	r1, [sp, #56]
 2790              	.LBE1142:
 2791              	.LBE1147:
 2792              	.LBE1152:
 2793              	.LBE1160:
 2794              	.LBB1161:
 2795              	.LBB1162:
 128:../../libs/libDaisy/src/daisy_seed.h ****     }
 2796              		.loc 1 128 23 view .LVU602
 2797 0598 1648     		ldr	r0, .L28+56
 2798              	.LVL152:
 128:../../libs/libDaisy/src/daisy_seed.h ****     }
 2799              		.loc 1 128 23 view .LVU603
 2800              	.LBE1162:
 2801              	.LBE1161:
 2802              	.LBB1165:
 2803              	.LBB1153:
 2804              	.LBB1148:
 2805              	.LBB1143:
 2806              	.LBB1138:
 2807              	.LBB1134:
 343:../../libs/libDaisy/src/dev/mpr121.h **** 
 2808              		.loc 7 343 55 view .LVU604
 2809 059a 002A     		cmp	r2, #0
 2810 059c 18BF     		it	ne
 2811 059e 43F00103 		orrne	r3, r3, #1
 2812              	.LBE1134:
ARM GAS  C:\Users\skipi\AppData\Local\Temp\ccrSunJV.s 			page 80


 2813              	.LBE1138:
 2814              	.LBE1143:
 2815              	.LBE1148:
 2816              	.LBE1153:
 2817              	.LBE1165:
 2818              	.LBB1166:
 2819              	.LBB1163:
 128:../../libs/libDaisy/src/daisy_seed.h ****     }
 2820              		.loc 1 128 23 view .LVU605
 2821 05a2 C1EB8601 		rsb	r1, r1, r6, lsl #2
 2822              	.LBE1163:
 2823              	.LBE1166:
 2824              	.LBB1167:
 2825              	.LBB1154:
 2826              	.LBB1149:
 2827              	.LBB1144:
 2828              	.LBB1139:
 2829              	.LBB1135:
 343:../../libs/libDaisy/src/dev/mpr121.h **** 
 2830              		.loc 7 343 55 view .LVU606
 2831 05a6 84F83030 		strb	r3, [r4, #48]
 2832              	.LVL153:
 343:../../libs/libDaisy/src/dev/mpr121.h **** 
 2833              		.loc 7 343 55 view .LVU607
 2834              	.LBE1135:
 2835              	.LBE1139:
 2836              	.LBE1144:
 2837              	.LBE1149:
 2838              	.LBE1154:
 2839              	.LBE1167:
 2840              	.LBB1168:
 2841              	.LBI1161:
 126:../../libs/libDaisy/src/daisy_seed.h ****     {
 2842              		.loc 1 126 17 is_stmt 1 view .LVU608
 2843              	.LBB1164:
 128:../../libs/libDaisy/src/daisy_seed.h ****     }
 2844              		.loc 1 128 23 is_stmt 0 view .LVU609
 2845 05aa FFF7FEFF 		bl	_ZN5daisy6LoggerILNS_17LoggerDestinationE1EE9PrintLineEPKcz
 2846              	.LVL154:
 128:../../libs/libDaisy/src/daisy_seed.h ****     }
 2847              		.loc 1 128 23 view .LVU610
 2848              	.LBE1164:
 2849              	.LBE1168:
  84:main0.cpp     ****       hw.PrintLine(" ");
 2850              		.loc 8 84 7 is_stmt 1 view .LVU611
 2851              	.LBB1169:
 2852              	.LBI1169:
 126:../../libs/libDaisy/src/daisy_seed.h ****     {
 2853              		.loc 1 126 17 view .LVU612
 2854              	.LBB1170:
 128:../../libs/libDaisy/src/daisy_seed.h ****     }
 2855              		.loc 1 128 23 is_stmt 0 view .LVU613
 2856 05ae 0E48     		ldr	r0, .L28+44
 2857 05b0 FFF7FEFF 		bl	_ZN5daisy6LoggerILNS_17LoggerDestinationE1EE9PrintLineEPKcz
 2858              	.LVL155:
 128:../../libs/libDaisy/src/daisy_seed.h ****     }
 2859              		.loc 1 128 23 view .LVU614
ARM GAS  C:\Users\skipi\AppData\Local\Temp\ccrSunJV.s 			page 81


 2860              	.LBE1170:
 2861              	.LBE1169:
  85:main0.cpp     ****     }
 2862              		.loc 8 85 7 is_stmt 1 view .LVU615
 2863              	.LBB1171:
 2864              	.LBI1171:
 126:../../libs/libDaisy/src/daisy_seed.h ****     {
 2865              		.loc 1 126 17 view .LVU616
 2866              	.LBB1172:
 128:../../libs/libDaisy/src/daisy_seed.h ****     }
 2867              		.loc 1 128 23 is_stmt 0 view .LVU617
 2868 05b4 0C48     		ldr	r0, .L28+44
 2869 05b6 FFF7FEFF 		bl	_ZN5daisy6LoggerILNS_17LoggerDestinationE1EE9PrintLineEPKcz
 2870              	.LVL156:
 129:../../libs/libDaisy/src/daisy_seed.h **** 
 2871              		.loc 1 129 5 view .LVU618
 2872 05ba 46E7     		b	.L19
 2873              	.L29:
 2874              		.align	2
 2875              	.L28:
 2876 05bc 00000000 		.word	.LANCHOR0
 2877 05c0 20000000 		.word	.LC1
 2878 05c4 00000000 		.word	.LANCHOR3
 2879 05c8 94000000 		.word	.LC4
 2880 05cc 18000000 		.word	.LANCHOR2+24
 2881 05d0 98000000 		.word	.LC5
 2882 05d4 B8000000 		.word	.LC6
 2883 05d8 D8000000 		.word	.LC7
 2884 05dc 30000000 		.word	.LC2
 2885 05e0 84000000 		.word	.LC3
 2886 05e4 FC000000 		.word	.LC8
 2887 05e8 0C010000 		.word	.LC9
 2888 05ec 10010000 		.word	.LC10
 2889 05f0 30010000 		.word	.LC11
 2890 05f4 50010000 		.word	.LC12
 2891 05f8 00000000 		.word	.LANCHOR4
 2892 05fc 00000000 		.word	.LANCHOR5
 2893              	.LBE1172:
 2894              	.LBE1171:
 2895              		.cfi_endproc
 2896              	.LFE4840:
 2898              		.section	.text.startup._GLOBAL__sub_I_mpr121ObjConf,"ax",%progbits
 2899              		.align	1
 2900              		.p2align 2,,3
 2901              		.syntax unified
 2902              		.thumb
 2903              		.thumb_func
 2904              		.fpu fpv5-d16
 2906              	_GLOBAL__sub_I_mpr121ObjConf:
 2907              	.LFB5425:
  93:main0.cpp     ****   }
  94:main0.cpp     **** }
 2908              		.loc 8 94 1 is_stmt 1 view -0
 2909              		.cfi_startproc
 2910              		@ args = 0, pretend = 0, frame = 0
 2911              		@ frame_needed = 0, uses_anonymous_args = 0
 2912              	.LBB1279:
ARM GAS  C:\Users\skipi\AppData\Local\Temp\ccrSunJV.s 			page 82


 2913              	.LBI1279:
 2914              		.loc 8 94 1 view .LVU620
 2915              	.LVL157:
 2916              	.LBB1280:
 2917              	.LBB1281:
 2918              	.LBI1281:
 105:../../libs/libDaisy/src/dev/mpr121.h ****         {
 2919              		.loc 7 105 9 view .LVU621
 2920              	.LBB1282:
 2921              	.LBB1283:
 2922              	.LBI1283:
  34:../../libs/libDaisy/src/dev/mpr121.h ****         {
 2923              		.loc 7 34 9 view .LVU622
 2924              	.LBB1284:
 2925              	.LBB1285:
 2926              	.LBB1286:
 2927              	.LBI1286:
 2928              		.loc 10 204 15 view .LVU623
 2929              		.loc 10 204 15 is_stmt 0 view .LVU624
 2930              	.LBE1286:
 2931              	.LBB1287:
 2932              	.LBI1287:
 2933              		.loc 10 204 15 is_stmt 1 view .LVU625
 2934              		.loc 10 204 15 is_stmt 0 view .LVU626
 2935              	.LBE1287:
  36:../../libs/libDaisy/src/dev/mpr121.h ****             speed  = I2CHandle::Config::Speed::I2C_400KHZ;
 2936              		.loc 7 36 13 is_stmt 1 view .LVU627
  37:../../libs/libDaisy/src/dev/mpr121.h **** 
 2937              		.loc 7 37 13 view .LVU628
  39:../../libs/libDaisy/src/dev/mpr121.h ****             sda = Pin(PORTB, 9);
 2938              		.loc 7 39 13 view .LVU629
 2939              	.LBB1288:
 2940              	.LBI1288:
 201:../../libs/libDaisy/src/daisy_core.h **** 
 2941              		.loc 10 201 15 view .LVU630
 201:../../libs/libDaisy/src/daisy_core.h **** 
 2942              		.loc 10 201 15 is_stmt 0 view .LVU631
 2943              	.LBE1288:
  40:../../libs/libDaisy/src/dev/mpr121.h **** 
 2944              		.loc 7 40 13 is_stmt 1 view .LVU632
 2945              	.LBB1289:
 2946              	.LBI1289:
 201:../../libs/libDaisy/src/daisy_core.h **** 
 2947              		.loc 10 201 15 view .LVU633
 201:../../libs/libDaisy/src/daisy_core.h **** 
 2948              		.loc 10 201 15 is_stmt 0 view .LVU634
 2949              	.LBE1289:
  42:../../libs/libDaisy/src/dev/mpr121.h ****         }
 2950              		.loc 7 42 13 is_stmt 1 view .LVU635
  42:../../libs/libDaisy/src/dev/mpr121.h ****         }
 2951              		.loc 7 42 13 is_stmt 0 view .LVU636
 2952              	.LBE1285:
 2953              	.LBE1284:
 2954              	.LBE1283:
 2955              	.LBE1282:
 2956              	.LBE1281:
 2957              	.LBE1280:
ARM GAS  C:\Users\skipi\AppData\Local\Temp\ccrSunJV.s 			page 83


 2958              	.LBE1279:
 2959              		.loc 8 94 1 view .LVU637
 2960 0000 10B5     		push	{r4, lr}
 2961              		.cfi_def_cfa_offset 8
 2962              		.cfi_offset 4, -8
 2963              		.cfi_offset 14, -4
 2964              	.LBB1435:
 2965              	.LBB1433:
 2966              	.LBB1304:
 2967              	.LBB1305:
 2968              	.LBB1306:
 2969              	.LBB1307:
 2970              	.LBB1308:
 2971              	.LBB1309:
 2972              	.LBB1310:
  36:../../libs/libDaisy/src/dev/mpr121.h ****             speed  = I2CHandle::Config::Speed::I2C_400KHZ;
 2973              		.loc 7 36 20 view .LVU638
 2974 0002 1D48     		ldr	r0, .L32
 2975              	.LBE1310:
 2976              	.LBE1309:
 2977              	.LBE1308:
 2978              	.LBE1307:
 2979              	.LBE1306:
 2980              	.LBE1305:
 2981              	.LBE1304:
 2982              	.LBB1352:
 2983              	.LBB1299:
 2984              	.LBB1296:
 2985              	.LBB1293:
 2986              	.LBB1290:
 2987 0004 0024     		movs	r4, #0
 2988 0006 1D4B     		ldr	r3, .L32+4
  37:../../libs/libDaisy/src/dev/mpr121.h **** 
 2989              		.loc 7 37 20 view .LVU639
 2990 0008 0121     		movs	r1, #1
 2991              	.LBE1290:
 2992              	.LBE1293:
 2993              	.LBE1296:
 2994              	.LBE1299:
 2995              	.LBE1352:
  14:main0.cpp     **** 
 2996              		.loc 8 14 18 view .LVU640
 2997 000a 1D4A     		ldr	r2, .L32+8
 2998              	.LBB1353:
 2999              	.LBB1300:
 3000              	.LBB1297:
 3001              	.LBB1294:
 3002              	.LBB1291:
  37:../../libs/libDaisy/src/dev/mpr121.h **** 
 3003              		.loc 7 37 20 view .LVU641
 3004 000c 5960     		str	r1, [r3, #4]
 3005              	.LBE1291:
 3006              	.LBE1294:
 3007              	.LBE1297:
 105:../../libs/libDaisy/src/dev/mpr121.h ****         {
 3008              		.loc 7 105 9 view .LVU642
 3009 000e 9982     		strh	r1, [r3, #20]	@ movhi
ARM GAS  C:\Users\skipi\AppData\Local\Temp\ccrSunJV.s 			page 84


 3010              	.LVL158:
 105:../../libs/libDaisy/src/dev/mpr121.h ****         {
 3011              		.loc 7 105 9 view .LVU643
 3012              	.LBE1300:
 3013              	.LBE1353:
 3014              	.LBB1354:
 3015              	.LBI1304:
  96:../../libs/libDaisy/src/dev/mpr121.h ****     ~Mpr121() {}
 3016              		.loc 7 96 5 is_stmt 1 view .LVU644
 3017              	.LBB1348:
 3018              	.LBB1327:
 3019              	.LBI1306:
 105:../../libs/libDaisy/src/dev/mpr121.h ****         {
 3020              		.loc 7 105 9 view .LVU645
 3021              	.LBB1324:
 3022              	.LBB1321:
 3023              	.LBI1308:
  34:../../libs/libDaisy/src/dev/mpr121.h ****         {
 3024              		.loc 7 34 9 view .LVU646
 3025              	.LBB1318:
 3026              	.LBB1315:
 3027              	.LBB1311:
 3028              	.LBI1311:
 3029              		.loc 10 204 15 view .LVU647
 3030              		.loc 10 204 15 is_stmt 0 view .LVU648
 3031              	.LBE1311:
 3032              	.LBB1312:
 3033              	.LBI1312:
 3034              		.loc 10 204 15 is_stmt 1 view .LVU649
 3035              		.loc 10 204 15 is_stmt 0 view .LVU650
 3036              	.LBE1312:
  36:../../libs/libDaisy/src/dev/mpr121.h ****             speed  = I2CHandle::Config::Speed::I2C_400KHZ;
 3037              		.loc 7 36 13 is_stmt 1 view .LVU651
  37:../../libs/libDaisy/src/dev/mpr121.h **** 
 3038              		.loc 7 37 13 view .LVU652
  39:../../libs/libDaisy/src/dev/mpr121.h ****             sda = Pin(PORTB, 9);
 3039              		.loc 7 39 13 view .LVU653
 3040              	.LBB1313:
 3041              	.LBI1313:
 201:../../libs/libDaisy/src/daisy_core.h **** 
 3042              		.loc 10 201 15 view .LVU654
 201:../../libs/libDaisy/src/daisy_core.h **** 
 3043              		.loc 10 201 15 is_stmt 0 view .LVU655
 3044              	.LBE1313:
  40:../../libs/libDaisy/src/dev/mpr121.h **** 
 3045              		.loc 7 40 13 is_stmt 1 view .LVU656
 3046              	.LBB1314:
 3047              	.LBI1314:
 201:../../libs/libDaisy/src/daisy_core.h **** 
 3048              		.loc 10 201 15 view .LVU657
 201:../../libs/libDaisy/src/daisy_core.h **** 
 3049              		.loc 10 201 15 is_stmt 0 view .LVU658
 3050              	.LBE1314:
  42:../../libs/libDaisy/src/dev/mpr121.h ****         }
 3051              		.loc 7 42 13 is_stmt 1 view .LVU659
  42:../../libs/libDaisy/src/dev/mpr121.h ****         }
 3052              		.loc 7 42 13 is_stmt 0 view .LVU660
ARM GAS  C:\Users\skipi\AppData\Local\Temp\ccrSunJV.s 			page 85


 3053              	.LBE1315:
 3054              	.LBE1318:
 3055              	.LBE1321:
 3056              	.LBE1324:
 3057              	.LBE1327:
 3058              	.LBB1328:
 3059              	.LBI1328:
  20:../../libs/libDaisy/src/dev/mpr121.h ****     ~Mpr121I2CTransport() {}
 3060              		.loc 7 20 5 is_stmt 1 view .LVU661
 3061              	.LBB1329:
 3062              	.LBB1330:
 3063              	.LBI1330:
  60:../../libs/libDaisy/src/per/i2c.h ****             Pin scl;  /**< & */
  61:../../libs/libDaisy/src/per/i2c.h ****             Pin sda;  /**< & */
  62:../../libs/libDaisy/src/per/i2c.h ****         } pin_config; /**< & */
  63:../../libs/libDaisy/src/per/i2c.h **** 
  64:../../libs/libDaisy/src/per/i2c.h ****         Speed speed; /**< & */
  65:../../libs/libDaisy/src/per/i2c.h ****         Mode  mode;  /**< & */
  66:../../libs/libDaisy/src/per/i2c.h ****         // 0x10 is chosen as a default to avoid conflicts with reserved addresses
  67:../../libs/libDaisy/src/per/i2c.h ****         uint8_t address = 0x10; /**< & */
  68:../../libs/libDaisy/src/per/i2c.h ****     };
  69:../../libs/libDaisy/src/per/i2c.h **** 
  70:../../libs/libDaisy/src/per/i2c.h ****     /** Return values for I2C functions. */
  71:../../libs/libDaisy/src/per/i2c.h ****     enum class Result
  72:../../libs/libDaisy/src/per/i2c.h ****     {
  73:../../libs/libDaisy/src/per/i2c.h ****         OK, /**< & */
  74:../../libs/libDaisy/src/per/i2c.h ****         ERR /**< & */
  75:../../libs/libDaisy/src/per/i2c.h ****     };
  76:../../libs/libDaisy/src/per/i2c.h **** 
  77:../../libs/libDaisy/src/per/i2c.h ****     enum class Direction
  78:../../libs/libDaisy/src/per/i2c.h ****     {
  79:../../libs/libDaisy/src/per/i2c.h ****         TRANSMIT, /**< & */
  80:../../libs/libDaisy/src/per/i2c.h ****         RECEIVE,  /**< & */
  81:../../libs/libDaisy/src/per/i2c.h ****     };
  82:../../libs/libDaisy/src/per/i2c.h **** 
  83:../../libs/libDaisy/src/per/i2c.h ****     I2CHandle() : pimpl_(nullptr) {}
 3064              		.loc 9 83 5 view .LVU662
 3065              		.loc 9 83 5 is_stmt 0 view .LVU663
 3066              	.LBE1330:
 3067              	.LBB1333:
 3068              	.LBI1333:
  34:../../libs/libDaisy/src/dev/mpr121.h ****         {
 3069              		.loc 7 34 9 is_stmt 1 view .LVU664
 3070              	.LBB1334:
 3071              	.LBB1335:
 3072              	.LBB1336:
 3073              	.LBI1336:
 3074              		.loc 10 204 15 view .LVU665
 3075              		.loc 10 204 15 is_stmt 0 view .LVU666
 3076              	.LBE1336:
 3077              	.LBB1337:
 3078              	.LBI1337:
 3079              		.loc 10 204 15 is_stmt 1 view .LVU667
 3080              		.loc 10 204 15 is_stmt 0 view .LVU668
 3081              	.LBE1337:
  36:../../libs/libDaisy/src/dev/mpr121.h ****             speed  = I2CHandle::Config::Speed::I2C_400KHZ;
 3082              		.loc 7 36 13 is_stmt 1 view .LVU669
ARM GAS  C:\Users\skipi\AppData\Local\Temp\ccrSunJV.s 			page 86


  37:../../libs/libDaisy/src/dev/mpr121.h **** 
 3083              		.loc 7 37 13 view .LVU670
  39:../../libs/libDaisy/src/dev/mpr121.h ****             sda = Pin(PORTB, 9);
 3084              		.loc 7 39 13 view .LVU671
 3085              	.LBB1338:
 3086              	.LBI1338:
 201:../../libs/libDaisy/src/daisy_core.h **** 
 3087              		.loc 10 201 15 view .LVU672
 201:../../libs/libDaisy/src/daisy_core.h **** 
 3088              		.loc 10 201 15 is_stmt 0 view .LVU673
 3089              	.LBE1338:
  40:../../libs/libDaisy/src/dev/mpr121.h **** 
 3090              		.loc 7 40 13 is_stmt 1 view .LVU674
 3091              	.LBB1339:
 3092              	.LBI1339:
 201:../../libs/libDaisy/src/daisy_core.h **** 
 3093              		.loc 10 201 15 view .LVU675
 201:../../libs/libDaisy/src/daisy_core.h **** 
 3094              		.loc 10 201 15 is_stmt 0 view .LVU676
 3095              	.LBE1339:
  42:../../libs/libDaisy/src/dev/mpr121.h ****         }
 3096              		.loc 7 42 13 is_stmt 1 view .LVU677
 3097              	.LBE1335:
 3098              	.LBE1334:
 3099              	.LBE1333:
 3100              	.LBE1329:
 3101              	.LBE1328:
 3102              	.LBB1345:
 3103              	.LBB1325:
 3104              	.LBB1322:
 3105              	.LBB1319:
 3106              	.LBB1316:
  37:../../libs/libDaisy/src/dev/mpr121.h **** 
 3107              		.loc 7 37 20 is_stmt 0 view .LVU678
 3108 0010 4160     		str	r1, [r0, #4]
 3109              	.LBE1316:
 3110              	.LBE1319:
 3111              	.LBE1322:
 3112              	.LBE1325:
 3113              	.LBE1345:
  96:../../libs/libDaisy/src/dev/mpr121.h ****     ~Mpr121() {}
 3114              		.loc 7 96 5 view .LVU679
 3115 0012 4161     		str	r1, [r0, #20]
 3116              	.LBE1348:
 3117              	.LBE1354:
 3118              	.LBB1355:
 3119              	.LBB1301:
 3120              	.LBB1298:
 3121              	.LBB1295:
 3122              	.LBB1292:
  36:../../libs/libDaisy/src/dev/mpr121.h ****             speed  = I2CHandle::Config::Speed::I2C_400KHZ;
 3123              		.loc 7 36 20 view .LVU680
 3124 0014 1C60     		str	r4, [r3]
 3125              	.LBE1292:
 3126              	.LBE1295:
 3127              	.LBE1298:
 3128              	.LBE1301:
ARM GAS  C:\Users\skipi\AppData\Local\Temp\ccrSunJV.s 			page 87


 3129              	.LBE1355:
 3130              	.LBB1356:
 3131              	.LBB1349:
 3132              	.LBB1346:
 3133              	.LBB1326:
 3134              	.LBB1323:
 3135              	.LBB1320:
 3136              	.LBB1317:
 3137 0016 0460     		str	r4, [r0]
 3138              	.LBE1317:
 3139              	.LBE1320:
 3140              	.LBE1323:
 3141              	.LBE1326:
 3142              	.LBE1346:
 3143              	.LBB1347:
 3144              	.LBB1344:
 3145              	.LBB1342:
 3146              	.LBB1331:
 3147              	.LBB1332:
 3148              		.loc 9 83 33 view .LVU681
 3149 0018 8461     		str	r4, [r0, #24]
 3150              	.LBE1332:
 3151              	.LBE1331:
 3152              	.LBE1342:
 3153              	.LBB1343:
 3154              	.LBB1341:
 3155              	.LBB1340:
  36:../../libs/libDaisy/src/dev/mpr121.h ****             speed  = I2CHandle::Config::Speed::I2C_400KHZ;
 3156              		.loc 7 36 20 view .LVU682
 3157 001a C0E90741 		strd	r4, r1, [r0, #28]
 3158              	.LBE1340:
 3159              	.LBE1341:
 3160              	.LBE1343:
 3161              	.LBE1344:
 3162              	.LBE1347:
 3163              	.LBE1349:
 3164              	.LBE1356:
 3165              	.LBB1357:
 3166              	.LBB1302:
 105:../../libs/libDaisy/src/dev/mpr121.h ****         {
 3167              		.loc 7 105 9 view .LVU683
 3168 001e 01F11061 		add	r1, r1, #150994944
 3169 0022 01F58431 		add	r1, r1, #67584
 3170 0026 9960     		str	r1, [r3, #8]
 3171              	.LBE1302:
 3172              	.LBE1357:
 3173              	.LBB1358:
 3174              	.LBB1350:
  96:../../libs/libDaisy/src/dev/mpr121.h ****     ~Mpr121() {}
 3175              		.loc 7 96 5 view .LVU684
 3176 0028 8160     		str	r1, [r0, #8]
 3177 002a 4162     		str	r1, [r0, #36]
 3178              	.LBE1350:
 3179              	.LBE1358:
 3180              	.LBB1359:
 3181              	.LBB1303:
 105:../../libs/libDaisy/src/dev/mpr121.h ****         {
ARM GAS  C:\Users\skipi\AppData\Local\Temp\ccrSunJV.s 			page 88


 3182              		.loc 7 105 9 view .LVU685
 3183 002c 5A21     		movs	r1, #90
 3184 002e 1961     		str	r1, [r3, #16]
 3185              	.LBE1303:
 3186              	.LBE1359:
 3187              	.LBB1360:
 3188              	.LBB1351:
  96:../../libs/libDaisy/src/dev/mpr121.h ****     ~Mpr121() {}
 3189              		.loc 7 96 5 view .LVU686
 3190 0030 0161     		str	r1, [r0, #16]
 3191 0032 C162     		str	r1, [r0, #44]
 3192              	.LVL159:
  96:../../libs/libDaisy/src/dev/mpr121.h ****     ~Mpr121() {}
 3193              		.loc 7 96 5 view .LVU687
 3194              	.LBE1351:
 3195              	.LBE1360:
  14:main0.cpp     **** 
 3196              		.loc 8 14 18 view .LVU688
 3197 0034 1349     		ldr	r1, .L32+12
 3198 0036 FFF7FEFF 		bl	__aeabi_atexit
 3199              	.LVL160:
 3200              	.LBB1361:
 3201              	.LBI1361:
  21:../../libs/libDaisy/src/daisy_seed.h ****     ~DaisySeed() {}
 3202              		.loc 1 21 5 is_stmt 1 view .LVU689
 3203              	.LBB1362:
 3204              	.LBB1363:
 3205              	.LBI1363:
 3206              		.file 11 "../../libs/libDaisy/src/per/qspi.h"
   1:../../libs/libDaisy/src/per/qspi.h **** #ifndef DSY_QSPI
   2:../../libs/libDaisy/src/per/qspi.h **** #define DSY_QSPI /**< Macro */
   3:../../libs/libDaisy/src/per/qspi.h **** 
   4:../../libs/libDaisy/src/per/qspi.h **** #ifndef UNIT_TEST // for unit tests, a dummy implementation
   5:../../libs/libDaisy/src/per/qspi.h **** 
   6:../../libs/libDaisy/src/per/qspi.h **** #include <cstdint>
   7:../../libs/libDaisy/src/per/qspi.h **** #include "daisy_core.h"
   8:../../libs/libDaisy/src/per/qspi.h **** #include "util/hal_map.h"
   9:../../libs/libDaisy/src/per/qspi.h **** 
  10:../../libs/libDaisy/src/per/qspi.h **** #define DSY_QSPI_TEXT       \
  11:../../libs/libDaisy/src/per/qspi.h ****     __attribute__((section( \
  12:../../libs/libDaisy/src/per/qspi.h ****         ".qspiflash_text"))) /**< used for reading memory in memory_mapped mode. */
  13:../../libs/libDaisy/src/per/qspi.h **** #define DSY_QSPI_DATA       \
  14:../../libs/libDaisy/src/per/qspi.h ****     __attribute__((section( \
  15:../../libs/libDaisy/src/per/qspi.h ****         ".qspiflash_data"))) /**< used for reading memory in memory_mapped mode. */
  16:../../libs/libDaisy/src/per/qspi.h **** #define DSY_QSPI_BSS        \
  17:../../libs/libDaisy/src/per/qspi.h ****     __attribute__((section( \
  18:../../libs/libDaisy/src/per/qspi.h ****         ".qspiflash_bss"))) /**< used for reading memory in memory_mapped mode. */
  19:../../libs/libDaisy/src/per/qspi.h **** 
  20:../../libs/libDaisy/src/per/qspi.h **** namespace daisy
  21:../../libs/libDaisy/src/per/qspi.h **** {
  22:../../libs/libDaisy/src/per/qspi.h **** /** @addtogroup serial
  23:../../libs/libDaisy/src/per/qspi.h **** @{
  24:../../libs/libDaisy/src/per/qspi.h **** */
  25:../../libs/libDaisy/src/per/qspi.h **** 
  26:../../libs/libDaisy/src/per/qspi.h **** /**
  27:../../libs/libDaisy/src/per/qspi.h ****  Driver for QSPI peripheral to interface with external flash memory. \n
  28:../../libs/libDaisy/src/per/qspi.h ****     Currently supported QSPI Devices: \n
ARM GAS  C:\Users\skipi\AppData\Local\Temp\ccrSunJV.s 			page 89


  29:../../libs/libDaisy/src/per/qspi.h ****     * IS25LP080D
