ARM GAS  C:\Users\skipi\AppData\Local\Temp\ccYQk2fd.s 			page 1


   1              		.cpu cortex-m7
   2              		.eabi_attribute 28, 1
   3              		.eabi_attribute 20, 1
   4              		.eabi_attribute 21, 1
   5              		.eabi_attribute 23, 3
   6              		.eabi_attribute 24, 1
   7              		.eabi_attribute 25, 1
   8              		.eabi_attribute 26, 1
   9              		.eabi_attribute 30, 2
  10              		.eabi_attribute 34, 1
  11              		.eabi_attribute 18, 4
  12              		.file	"AnalogDelay.cpp"
  13              		.text
  14              	.Ltext0:
  15              		.cfi_sections	.debug_frame
  16              		.section	.text._ZN11AnalogDelayC2Ev,"ax",%progbits
  17              		.align	1
  18              		.p2align 2,,3
  19              		.global	_ZN11AnalogDelayC2Ev
  20              		.arch armv7e-m
  21              		.syntax unified
  22              		.thumb
  23              		.thumb_func
  24              		.fpu fpv5-d16
  26              	_ZN11AnalogDelayC2Ev:
  27              	.LVL0:
  28              	.LFB4815:
  29              		.file 1 "src/AnalogDelay.cpp"
   1:src/AnalogDelay.cpp **** #include "AnalogDelay.h" // Include l'header file della classe AnalogDelay
   2:src/AnalogDelay.cpp **** 
   3:src/AnalogDelay.cpp **** // Coefficiente per lo smoothing del delay time
   4:src/AnalogDelay.cpp **** // Valori più bassi producono uno smoothing più lento
   5:src/AnalogDelay.cpp **** const float SMOOTH_COEFF = 0.00008f;
   6:src/AnalogDelay.cpp **** 
   7:src/AnalogDelay.cpp **** // Costruttore: inizializza tutti i parametri dell'effetto delay con valori predefiniti
   8:src/AnalogDelay.cpp **** AnalogDelay::AnalogDelay() : 
  30              		.loc 1 8 1 view -0
  31              		.cfi_startproc
  32              		@ args = 0, pretend = 0, frame = 0
  33              		@ frame_needed = 0, uses_anonymous_args = 0
  34              		@ link register save eliminated.
  35              	.LBB56:
   9:src/AnalogDelay.cpp ****     _sampleRate(48000.0f),     // Frequenza di campionamento standard (48kHz)
  10:src/AnalogDelay.cpp ****     _delayTime(0.5f),          // Tempo di delay iniziale (500ms)
  11:src/AnalogDelay.cpp ****     _feedback(0.4f),           // Quantità di feedback iniziale (40%)
  12:src/AnalogDelay.cpp ****     _mix(0.5f) {}               // Mix tra segnale dry/wet (50%)
  36              		.loc 1 12 14 is_stmt 0 view .LVU1
  37 0000 4FF07C52 		mov	r2, #1056964608
  38 0004 DFF814C0 		ldr	ip, .L3+4
  39 0008 0349     		ldr	r1, .L3
  40 000a C0F800C0 		str	ip, [r0]	@ float
  41 000e 4260     		str	r2, [r0, #4]	@ float
  42 0010 8160     		str	r1, [r0, #8]	@ float
  43 0012 C260     		str	r2, [r0, #12]	@ float
  44              	.LVL1:
  45              	.LBB57:
  46              	.LBI57:
ARM GAS  C:\Users\skipi\AppData\Local\Temp\ccYQk2fd.s 			page 2


  47              		.file 2 "../DaisySP/Source/Utility/delayline.h"
   1:../DaisySP/Source/Utility/delayline.h **** /*
   2:../DaisySP/Source/Utility/delayline.h **** Copyright (c) 2020 Electrosmith, Corp
   3:../DaisySP/Source/Utility/delayline.h **** 
   4:../DaisySP/Source/Utility/delayline.h **** Use of this source code is governed by an MIT-style
   5:../DaisySP/Source/Utility/delayline.h **** license that can be found in the LICENSE file or at
   6:../DaisySP/Source/Utility/delayline.h **** https://opensource.org/licenses/MIT.
   7:../DaisySP/Source/Utility/delayline.h **** */
   8:../DaisySP/Source/Utility/delayline.h **** 
   9:../DaisySP/Source/Utility/delayline.h **** #pragma once
  10:../DaisySP/Source/Utility/delayline.h **** #ifndef DSY_DELAY_H
  11:../DaisySP/Source/Utility/delayline.h **** #define DSY_DELAY_H
  12:../DaisySP/Source/Utility/delayline.h **** #include <stdlib.h>
  13:../DaisySP/Source/Utility/delayline.h **** #include <stdint.h>
  14:../DaisySP/Source/Utility/delayline.h **** namespace daisysp
  15:../DaisySP/Source/Utility/delayline.h **** {
  16:../DaisySP/Source/Utility/delayline.h **** /** Simple Delay line.
  17:../DaisySP/Source/Utility/delayline.h **** November 2019
  18:../DaisySP/Source/Utility/delayline.h **** 
  19:../DaisySP/Source/Utility/delayline.h **** Converted to Template December 2019
  20:../DaisySP/Source/Utility/delayline.h **** 
  21:../DaisySP/Source/Utility/delayline.h **** declaration example: (1 second of floats)
  22:../DaisySP/Source/Utility/delayline.h **** 
  23:../DaisySP/Source/Utility/delayline.h **** DelayLine<float, SAMPLE_RATE> del;
  24:../DaisySP/Source/Utility/delayline.h **** 
  25:../DaisySP/Source/Utility/delayline.h **** By: shensley
  26:../DaisySP/Source/Utility/delayline.h **** */
  27:../DaisySP/Source/Utility/delayline.h **** template <typename T, size_t max_size>
  28:../DaisySP/Source/Utility/delayline.h **** class DelayLine
  29:../DaisySP/Source/Utility/delayline.h **** {
  30:../DaisySP/Source/Utility/delayline.h ****   public:
  31:../DaisySP/Source/Utility/delayline.h ****     DelayLine() {}
  48              		.loc 2 31 5 is_stmt 1 view .LVU2
  49              		.loc 2 31 5 is_stmt 0 view .LVU3
  50              	.LBE57:
  51              	.LBB58:
  52              	.LBI58:
  53              		.file 3 "../DaisySP/Source/Dynamics/crossfade.h"
   1:../DaisySP/Source/Dynamics/crossfade.h **** /*
   2:../DaisySP/Source/Dynamics/crossfade.h **** Copyright (c) 2020 Electrosmith, Corp, Paul Batchelor
   3:../DaisySP/Source/Dynamics/crossfade.h **** 
   4:../DaisySP/Source/Dynamics/crossfade.h **** Use of this source code is governed by an MIT-style
   5:../DaisySP/Source/Dynamics/crossfade.h **** license that can be found in the LICENSE file or at
   6:../DaisySP/Source/Dynamics/crossfade.h **** https://opensource.org/licenses/MIT.
   7:../DaisySP/Source/Dynamics/crossfade.h **** */
   8:../DaisySP/Source/Dynamics/crossfade.h **** 
   9:../DaisySP/Source/Dynamics/crossfade.h **** #pragma once
  10:../DaisySP/Source/Dynamics/crossfade.h **** #ifndef DSY_CROSSFADE_H
  11:../DaisySP/Source/Dynamics/crossfade.h **** #define DSY_CROSSFADE_H
  12:../DaisySP/Source/Dynamics/crossfade.h **** #include <stdint.h>
  13:../DaisySP/Source/Dynamics/crossfade.h **** #ifdef __cplusplus
  14:../DaisySP/Source/Dynamics/crossfade.h **** 
  15:../DaisySP/Source/Dynamics/crossfade.h **** namespace daisysp
  16:../DaisySP/Source/Dynamics/crossfade.h **** {
  17:../DaisySP/Source/Dynamics/crossfade.h **** /** Curve applied to the CrossFade
  18:../DaisySP/Source/Dynamics/crossfade.h **** - LIN = linear
  19:../DaisySP/Source/Dynamics/crossfade.h **** - CPOW = constant power
ARM GAS  C:\Users\skipi\AppData\Local\Temp\ccYQk2fd.s 			page 3


  20:../DaisySP/Source/Dynamics/crossfade.h **** - LOG = logarithmic
  21:../DaisySP/Source/Dynamics/crossfade.h **** - EXP  exponential
  22:../DaisySP/Source/Dynamics/crossfade.h **** - LAST = end of enum (used for array indexing)
  23:../DaisySP/Source/Dynamics/crossfade.h **** */
  24:../DaisySP/Source/Dynamics/crossfade.h **** enum
  25:../DaisySP/Source/Dynamics/crossfade.h **** {
  26:../DaisySP/Source/Dynamics/crossfade.h ****     CROSSFADE_LIN,
  27:../DaisySP/Source/Dynamics/crossfade.h ****     CROSSFADE_CPOW,
  28:../DaisySP/Source/Dynamics/crossfade.h ****     CROSSFADE_LOG,
  29:../DaisySP/Source/Dynamics/crossfade.h ****     CROSSFADE_EXP,
  30:../DaisySP/Source/Dynamics/crossfade.h ****     CROSSFADE_LAST,
  31:../DaisySP/Source/Dynamics/crossfade.h **** };
  32:../DaisySP/Source/Dynamics/crossfade.h **** 
  33:../DaisySP/Source/Dynamics/crossfade.h **** /** Performs a CrossFade between two signals
  34:../DaisySP/Source/Dynamics/crossfade.h **** 
  35:../DaisySP/Source/Dynamics/crossfade.h ****     Original author: Paul Batchelor
  36:../DaisySP/Source/Dynamics/crossfade.h **** 
  37:../DaisySP/Source/Dynamics/crossfade.h ****     Ported from Soundpipe by Andrew Ikenberry
  38:../DaisySP/Source/Dynamics/crossfade.h **** 
  39:../DaisySP/Source/Dynamics/crossfade.h ****     added curve option for constant power, etc.
  40:../DaisySP/Source/Dynamics/crossfade.h **** */
  41:../DaisySP/Source/Dynamics/crossfade.h **** class CrossFade
  42:../DaisySP/Source/Dynamics/crossfade.h **** {
  43:../DaisySP/Source/Dynamics/crossfade.h ****   public:
  44:../DaisySP/Source/Dynamics/crossfade.h ****     CrossFade() {}
  54              		.loc 3 44 5 is_stmt 1 view .LVU4
  55              		.loc 3 44 5 is_stmt 0 view .LVU5
  56              	.LBE58:
  57              	.LBE56:
  58              		.loc 1 12 17 view .LVU6
  59 0014 7047     		bx	lr
  60              	.L4:
  61 0016 00BF     		.align	2
  62              	.L3:
  63 0018 CDCCCC3E 		.word	1053609165
  64 001c 00803B47 		.word	1195081728
  65              		.cfi_endproc
  66              	.LFE4815:
  68              		.global	_ZN11AnalogDelayC1Ev
  69              		.thumb_set _ZN11AnalogDelayC1Ev,_ZN11AnalogDelayC2Ev
  70              		.section	.text._ZN11AnalogDelayD2Ev,"ax",%progbits
  71              		.align	1
  72              		.p2align 2,,3
  73              		.global	_ZN11AnalogDelayD2Ev
  74              		.syntax unified
  75              		.thumb
  76              		.thumb_func
  77              		.fpu fpv5-d16
  79              	_ZN11AnalogDelayD2Ev:
  80              	.LVL2:
  81              	.LFB4818:
  13:src/AnalogDelay.cpp **** 
  14:src/AnalogDelay.cpp **** 
  15:src/AnalogDelay.cpp **** AnalogDelay::~AnalogDelay() {} // Distruttore (vuoto)
  82              		.loc 1 15 1 is_stmt 1 view -0
  83              		.cfi_startproc
  84              		@ args = 0, pretend = 0, frame = 0
ARM GAS  C:\Users\skipi\AppData\Local\Temp\ccYQk2fd.s 			page 4


  85              		@ frame_needed = 0, uses_anonymous_args = 0
  86              		@ link register save eliminated.
  87              	.LBB59:
  88              	.LBI59:
  45:../DaisySP/Source/Dynamics/crossfade.h ****     ~CrossFade() {}
  89              		.loc 3 45 5 view .LVU8
  90              		.loc 3 45 5 is_stmt 0 view .LVU9
  91              	.LBE59:
  92              	.LBB60:
  93              	.LBI60:
  32:../DaisySP/Source/Utility/delayline.h ****     ~DelayLine() {}
  94              		.loc 2 32 5 is_stmt 1 view .LVU10
  95              		.loc 2 32 5 is_stmt 0 view .LVU11
  96              	.LBE60:
  97              		.loc 1 15 30 view .LVU12
  98 0000 7047     		bx	lr
  99              		.cfi_endproc
 100              	.LFE4818:
 102              		.global	_ZN11AnalogDelayD1Ev
 103              		.thumb_set _ZN11AnalogDelayD1Ev,_ZN11AnalogDelayD2Ev
 104 0002 00BF     		.section	.text._ZN11AnalogDelay4InitEf,"ax",%progbits
 105              		.align	1
 106              		.p2align 2,,3
 107              		.global	_ZN11AnalogDelay4InitEf
 108              		.syntax unified
 109              		.thumb
 110              		.thumb_func
 111              		.fpu fpv5-d16
 113              	_ZN11AnalogDelay4InitEf:
 114              	.LVL3:
 115              	.LFB4820:
  16:src/AnalogDelay.cpp **** 
  17:src/AnalogDelay.cpp **** // Inizializza l'effetto con la frequenza di campionamento specificata
  18:src/AnalogDelay.cpp **** void AnalogDelay::Init(float sampleRate) {
 116              		.loc 1 18 42 is_stmt 1 view -0
 117              		.cfi_startproc
 118              		@ args = 0, pretend = 0, frame = 0
 119              		@ frame_needed = 0, uses_anonymous_args = 0
  19:src/AnalogDelay.cpp ****     _sampleRate = sampleRate;    // Imposta la frequenza di campionamento
 120              		.loc 1 19 5 view .LVU14
  18:src/AnalogDelay.cpp ****     _sampleRate = sampleRate;    // Imposta la frequenza di campionamento
 121              		.loc 1 18 42 is_stmt 0 view .LVU15
 122 0000 10B5     		push	{r4, lr}
 123              		.cfi_def_cfa_offset 8
 124              		.cfi_offset 4, -8
 125              		.cfi_offset 14, -4
  18:src/AnalogDelay.cpp ****     _sampleRate = sampleRate;    // Imposta la frequenza di campionamento
 126              		.loc 1 18 42 view .LVU16
 127 0002 0446     		mov	r4, r0
 128              	.LBB61:
 129              	.LBB62:
 130              	.LBB63:
 131              	.LBB64:
  33:../DaisySP/Source/Utility/delayline.h ****     /** initializes the delay line by clearing the values within, and setting delay to 1 sample.
  34:../DaisySP/Source/Utility/delayline.h ****     */
  35:../DaisySP/Source/Utility/delayline.h ****     void Init() { Reset(); }
  36:../DaisySP/Source/Utility/delayline.h ****     /** clears buffer, sets write ptr to 0, and delay to 1 sample.
ARM GAS  C:\Users\skipi\AppData\Local\Temp\ccYQk2fd.s 			page 5


  37:../DaisySP/Source/Utility/delayline.h ****     */
  38:../DaisySP/Source/Utility/delayline.h ****     void Reset()
  39:../DaisySP/Source/Utility/delayline.h ****     {
  40:../DaisySP/Source/Utility/delayline.h ****         for(size_t i = 0; i < max_size; i++)
  41:../DaisySP/Source/Utility/delayline.h ****         {
  42:../DaisySP/Source/Utility/delayline.h ****             line_[i] = T(0);
 132              		.loc 2 42 22 view .LVU17
 133 0004 0A4A     		ldr	r2, .L8
 134 0006 0021     		movs	r1, #0
 135              	.LBE64:
 136              	.LBE63:
 137              	.LBE62:
 138              	.LBE61:
 139              		.loc 1 19 17 view .LVU18
 140 0008 1C30     		adds	r0, r0, #28
 141              	.LVL4:
 142              		.loc 1 19 17 view .LVU19
 143 000a 84ED000A 		vstr.32	s0, [r4]
  20:src/AnalogDelay.cpp ****     _delayLine.Init();           // Inizializza la linea di ritardo
 144              		.loc 1 20 5 is_stmt 1 view .LVU20
 145              	.LVL5:
 146              	.LBB72:
 147              	.LBI61:
  35:../DaisySP/Source/Utility/delayline.h ****     /** clears buffer, sets write ptr to 0, and delay to 1 sample.
 148              		.loc 2 35 10 view .LVU21
 149              	.LBB69:
 150              	.LBI62:
  38:../DaisySP/Source/Utility/delayline.h ****     {
 151              		.loc 2 38 10 view .LVU22
 152              	.LBB66:
 153              	.LBB65:
  40:../DaisySP/Source/Utility/delayline.h ****         {
 154              		.loc 2 40 29 view .LVU23
 155              		.loc 2 42 22 is_stmt 0 view .LVU24
 156 000e FFF7FEFF 		bl	memset
 157              	.LVL6:
 158              		.loc 2 42 22 view .LVU25
 159              	.LBE65:
 160              	.LBE66:
 161              	.LBE69:
 162              	.LBE72:
 163              	.LBB73:
 164              	.LBB74:
 165              	.LBB75:
  46:../DaisySP/Source/Dynamics/crossfade.h ****     /** Initializes CrossFade module
  47:../DaisySP/Source/Dynamics/crossfade.h ****         Defaults
  48:../DaisySP/Source/Dynamics/crossfade.h ****         - current position = .5
  49:../DaisySP/Source/Dynamics/crossfade.h ****         - curve = linear
  50:../DaisySP/Source/Dynamics/crossfade.h ****     */
  51:../DaisySP/Source/Dynamics/crossfade.h ****     inline void Init(int curve)
  52:../DaisySP/Source/Dynamics/crossfade.h ****     {
  53:../DaisySP/Source/Dynamics/crossfade.h ****         pos_   = 0.5f;
 166              		.loc 3 53 16 view .LVU26
 167 0012 04F53833 		add	r3, r4, #188416
 168              	.LBE75:
 169              	.LBE74:
 170              	.LBE73:
ARM GAS  C:\Users\skipi\AppData\Local\Temp\ccYQk2fd.s 			page 6


 171              	.LBB80:
 172              	.LBB70:
 173              	.LBB67:
  43:../DaisySP/Source/Utility/delayline.h ****         }
  44:../DaisySP/Source/Utility/delayline.h ****         write_ptr_ = 0;
  45:../DaisySP/Source/Utility/delayline.h ****         delay_     = 1;
 174              		.loc 2 45 20 view .LVU27
 175 0016 0022     		movs	r2, #0
 176 0018 0121     		movs	r1, #1
 177              	.LBE67:
 178              	.LBE70:
 179              	.LBE80:
 180              	.LBB81:
 181              	.LBB78:
 182              	.LBB76:
 183              		.loc 3 53 16 view .LVU28
 184 001a 4FF07C50 		mov	r0, #1056964608
 185              	.LBE76:
 186              	.LBE78:
 187              	.LBE81:
 188              	.LBB82:
 189              	.LBB71:
 190              	.LBB68:
 191              		.loc 2 45 20 view .LVU29
 192 001e C4E90521 		strd	r2, r1, [r4, #20]
 193              	.LVL7:
 194              		.loc 2 45 20 view .LVU30
 195              	.LBE68:
 196              	.LBE71:
 197              	.LBE82:
  21:src/AnalogDelay.cpp ****     _crossfade.Init();           // Inizializza il modulo di crossfade
 198              		.loc 1 21 5 is_stmt 1 view .LVU31
 199              	.LBB83:
 200              	.LBI73:
  54:../DaisySP/Source/Dynamics/crossfade.h ****         curve_ = curve < CROSSFADE_LAST ? curve : CROSSFADE_LIN;
  55:../DaisySP/Source/Dynamics/crossfade.h ****     }
  56:../DaisySP/Source/Dynamics/crossfade.h **** 
  57:../DaisySP/Source/Dynamics/crossfade.h ****     /** Initialize with default linear curve 
  58:../DaisySP/Source/Dynamics/crossfade.h ****     */
  59:../DaisySP/Source/Dynamics/crossfade.h ****     inline void Init() { Init(CROSSFADE_LIN); }
 201              		.loc 3 59 17 view .LVU32
 202              	.LBE83:
 203              		.loc 3 59 26 view .LVU33
 204              	.LBB84:
 205              	.LBB79:
 206              	.LBI74:
  51:../DaisySP/Source/Dynamics/crossfade.h ****     {
 207              		.loc 3 51 17 view .LVU34
 208              	.LBB77:
  53:../DaisySP/Source/Dynamics/crossfade.h ****         curve_ = curve < CROSSFADE_LAST ? curve : CROSSFADE_LIN;
 209              		.loc 3 53 9 view .LVU35
  53:../DaisySP/Source/Dynamics/crossfade.h ****         curve_ = curve < CROSSFADE_LAST ? curve : CROSSFADE_LIN;
 210              		.loc 3 53 16 is_stmt 0 view .LVU36
 211 0022 03F61C61 		addw	r1, r3, #3612
 212 0026 0860     		str	r0, [r1]	@ float
  54:../DaisySP/Source/Dynamics/crossfade.h ****         curve_ = curve < CROSSFADE_LAST ? curve : CROSSFADE_LIN;
 213              		.loc 3 54 9 is_stmt 1 view .LVU37
ARM GAS  C:\Users\skipi\AppData\Local\Temp\ccYQk2fd.s 			page 7


  54:../DaisySP/Source/Dynamics/crossfade.h ****         curve_ = curve < CROSSFADE_LAST ? curve : CROSSFADE_LIN;
 214              		.loc 3 54 16 is_stmt 0 view .LVU38
 215 0028 83F8202E 		strb	r2, [r3, #3616]
 216              	.LVL8:
  54:../DaisySP/Source/Dynamics/crossfade.h ****         curve_ = curve < CROSSFADE_LAST ? curve : CROSSFADE_LIN;
 217              		.loc 3 54 16 view .LVU39
 218              	.LBE77:
 219              	.LBE79:
 220              	.LBE84:
  22:src/AnalogDelay.cpp **** }
 221              		.loc 1 22 1 view .LVU40
 222 002c 10BD     		pop	{r4, pc}
 223              	.LVL9:
 224              	.L9:
 225              		.loc 1 22 1 view .LVU41
 226 002e 00BF     		.align	2
 227              	.L8:
 228 0030 00EE0200 		.word	192000
 229              		.cfi_endproc
 230              	.LFE4820:
 232              		.section	.text._ZN11AnalogDelay11setFeedbackEf,"ax",%progbits
 233              		.align	1
 234              		.p2align 2,,3
 235              		.global	_ZN11AnalogDelay11setFeedbackEf
 236              		.syntax unified
 237              		.thumb
 238              		.thumb_func
 239              		.fpu fpv5-d16
 241              	_ZN11AnalogDelay11setFeedbackEf:
 242              	.LVL10:
 243              	.LFB4821:
  23:src/AnalogDelay.cpp **** 
  24:src/AnalogDelay.cpp **** // Imposta il livello di feedback con limit tra 0 e 0.99
  25:src/AnalogDelay.cpp **** void AnalogDelay::setFeedback(float feedback) {
 244              		.loc 1 25 47 is_stmt 1 view -0
 245              		.cfi_startproc
 246              		@ args = 0, pretend = 0, frame = 0
 247              		@ frame_needed = 0, uses_anonymous_args = 0
 248              		@ link register save eliminated.
  26:src/AnalogDelay.cpp ****     _feedback = fclamp(feedback, 0.0f, 0.99f); // Limita il feedback per evitare auto-oscillazioni
 249              		.loc 1 26 5 view .LVU43
 250              	.LBB85:
 251              	.LBI85:
 252              		.file 4 "../DaisySP/Source/Utility/dsp.h"
   1:../DaisySP/Source/Utility/dsp.h **** /*
   2:../DaisySP/Source/Utility/dsp.h **** Copyright (c) 2020 Electrosmith, Corp, Emilie Gillet
   3:../DaisySP/Source/Utility/dsp.h **** 
   4:../DaisySP/Source/Utility/dsp.h **** Use of this source code is governed by an MIT-style
   5:../DaisySP/Source/Utility/dsp.h **** license that can be found in the LICENSE file or at
   6:../DaisySP/Source/Utility/dsp.h **** https://opensource.org/licenses/MIT.
   7:../DaisySP/Source/Utility/dsp.h **** */
   8:../DaisySP/Source/Utility/dsp.h **** 
   9:../DaisySP/Source/Utility/dsp.h **** /** Helpful defines, functions, and other utilities for use in/with daisysp modules.
  10:../DaisySP/Source/Utility/dsp.h **** */
  11:../DaisySP/Source/Utility/dsp.h **** #pragma once
  12:../DaisySP/Source/Utility/dsp.h **** #ifndef DSY_CORE_DSP
  13:../DaisySP/Source/Utility/dsp.h **** #define DSY_CORE_DSP
ARM GAS  C:\Users\skipi\AppData\Local\Temp\ccYQk2fd.s 			page 8


  14:../DaisySP/Source/Utility/dsp.h **** #include <cassert>
  15:../DaisySP/Source/Utility/dsp.h **** #include <cstdint>
  16:../DaisySP/Source/Utility/dsp.h **** #include <random>
  17:../DaisySP/Source/Utility/dsp.h **** #include <cmath>
  18:../DaisySP/Source/Utility/dsp.h **** 
  19:../DaisySP/Source/Utility/dsp.h **** /** PIs
  20:../DaisySP/Source/Utility/dsp.h **** */
  21:../DaisySP/Source/Utility/dsp.h **** #define PI_F 3.1415927410125732421875f
  22:../DaisySP/Source/Utility/dsp.h **** #define TWOPI_F (2.0f * PI_F)
  23:../DaisySP/Source/Utility/dsp.h **** #define HALFPI_F (PI_F * 0.5f)
  24:../DaisySP/Source/Utility/dsp.h **** #define DSY_MIN(in, mn) (in < mn ? in : mn)
  25:../DaisySP/Source/Utility/dsp.h **** #define DSY_MAX(in, mx) (in > mx ? in : mx)
  26:../DaisySP/Source/Utility/dsp.h **** #define DSY_CLAMP(in, mn, mx) (DSY_MIN(DSY_MAX(in, mn), mx))
  27:../DaisySP/Source/Utility/dsp.h **** #define DSY_COUNTOF(_arr) (sizeof(_arr) / sizeof(_arr[0]))
  28:../DaisySP/Source/Utility/dsp.h **** 
  29:../DaisySP/Source/Utility/dsp.h **** namespace daisysp
  30:../DaisySP/Source/Utility/dsp.h **** {
  31:../DaisySP/Source/Utility/dsp.h **** //Avoids division for random floats. e.g. rand() * kRandFrac
  32:../DaisySP/Source/Utility/dsp.h **** static constexpr float kRandFrac = 1.f / (float)RAND_MAX;
  33:../DaisySP/Source/Utility/dsp.h **** 
  34:../DaisySP/Source/Utility/dsp.h **** //Convert from semitones to other units. e.g. 2 ^ (kOneTwelfth * x)
  35:../DaisySP/Source/Utility/dsp.h **** static constexpr float kOneTwelfth = 1.f / 12.f;
  36:../DaisySP/Source/Utility/dsp.h **** 
  37:../DaisySP/Source/Utility/dsp.h **** /** efficient floating point min/max
  38:../DaisySP/Source/Utility/dsp.h **** c/o stephen mccaul
  39:../DaisySP/Source/Utility/dsp.h **** */
  40:../DaisySP/Source/Utility/dsp.h **** inline float fmax(float a, float b)
  41:../DaisySP/Source/Utility/dsp.h **** {
  42:../DaisySP/Source/Utility/dsp.h ****     float r;
  43:../DaisySP/Source/Utility/dsp.h **** #ifdef __arm__
  44:../DaisySP/Source/Utility/dsp.h ****     asm("vmaxnm.f32 %[d], %[n], %[m]" : [d] "=t"(r) : [n] "t"(a), [m] "t"(b) :);
  45:../DaisySP/Source/Utility/dsp.h **** #else
  46:../DaisySP/Source/Utility/dsp.h ****     r = (a > b) ? a : b;
  47:../DaisySP/Source/Utility/dsp.h **** #endif // __arm__
  48:../DaisySP/Source/Utility/dsp.h ****     return r;
  49:../DaisySP/Source/Utility/dsp.h **** }
  50:../DaisySP/Source/Utility/dsp.h **** 
  51:../DaisySP/Source/Utility/dsp.h **** inline float fmin(float a, float b)
  52:../DaisySP/Source/Utility/dsp.h **** {
  53:../DaisySP/Source/Utility/dsp.h ****     float r;
  54:../DaisySP/Source/Utility/dsp.h **** #ifdef __arm__
  55:../DaisySP/Source/Utility/dsp.h ****     asm("vminnm.f32 %[d], %[n], %[m]" : [d] "=t"(r) : [n] "t"(a), [m] "t"(b) :);
  56:../DaisySP/Source/Utility/dsp.h **** #else
  57:../DaisySP/Source/Utility/dsp.h ****     r = (a < b) ? a : b;
  58:../DaisySP/Source/Utility/dsp.h **** #endif // __arm__
  59:../DaisySP/Source/Utility/dsp.h ****     return r;
  60:../DaisySP/Source/Utility/dsp.h **** }
  61:../DaisySP/Source/Utility/dsp.h **** 
  62:../DaisySP/Source/Utility/dsp.h **** /** quick fp clamp
  63:../DaisySP/Source/Utility/dsp.h **** */
  64:../DaisySP/Source/Utility/dsp.h **** inline float fclamp(float in, float min, float max)
 253              		.loc 4 64 14 view .LVU44
 254              	.LBE85:
  65:../DaisySP/Source/Utility/dsp.h **** {
  66:../DaisySP/Source/Utility/dsp.h ****     return fmin(fmax(in, min), max);
 255              		.loc 4 66 5 view .LVU45
 256              	.LBB94:
ARM GAS  C:\Users\skipi\AppData\Local\Temp\ccYQk2fd.s 			page 9


 257              	.LBB86:
 258              	.LBI86:
  40:../DaisySP/Source/Utility/dsp.h **** {
 259              		.loc 4 40 14 view .LVU46
 260              	.LBB87:
  42:../DaisySP/Source/Utility/dsp.h **** #ifdef __arm__
 261              		.loc 4 42 5 view .LVU47
  44:../DaisySP/Source/Utility/dsp.h **** #else
 262              		.loc 4 44 5 view .LVU48
 263 0000 9FED057A 		vldr.32	s14, .L11
 264              	.LBE87:
 265              	.LBE86:
 266              	.LBB89:
 267              	.LBB90:
  55:../DaisySP/Source/Utility/dsp.h **** #else
 268              		.loc 4 55 5 is_stmt 0 view .LVU49
 269 0004 DFED057A 		vldr.32	s15, .L11+4
 270              	.LBE90:
 271              	.LBE89:
 272              	.LBB92:
 273              	.LBB88:
  44:../DaisySP/Source/Utility/dsp.h **** #else
 274              		.loc 4 44 5 view .LVU50
 275              		.syntax unified
 276              	@ 44 "../DaisySP/Source/Utility/dsp.h" 1
 277 0008 80FE070A 		vmaxnm.f32 s0, s0, s14
 278              	@ 0 "" 2
 279              	.LVL11:
  48:../DaisySP/Source/Utility/dsp.h **** }
 280              		.loc 4 48 5 is_stmt 1 view .LVU51
  48:../DaisySP/Source/Utility/dsp.h **** }
 281              		.loc 4 48 5 is_stmt 0 view .LVU52
 282              		.thumb
 283              		.syntax unified
 284              	.LBE88:
 285              	.LBE92:
 286              	.LBB93:
 287              	.LBI89:
  51:../DaisySP/Source/Utility/dsp.h **** {
 288              		.loc 4 51 14 is_stmt 1 view .LVU53
 289              	.LBB91:
  53:../DaisySP/Source/Utility/dsp.h **** #ifdef __arm__
 290              		.loc 4 53 5 view .LVU54
  55:../DaisySP/Source/Utility/dsp.h **** #else
 291              		.loc 4 55 5 view .LVU55
 292              		.syntax unified
 293              	@ 55 "../DaisySP/Source/Utility/dsp.h" 1
 294 000c 80FE670A 		vminnm.f32 s0, s0, s15
 295              	@ 0 "" 2
 296              	.LVL12:
  59:../DaisySP/Source/Utility/dsp.h **** }
 297              		.loc 4 59 5 view .LVU56
  59:../DaisySP/Source/Utility/dsp.h **** }
 298              		.loc 4 59 5 is_stmt 0 view .LVU57
 299              		.thumb
 300              		.syntax unified
 301              	.LBE91:
ARM GAS  C:\Users\skipi\AppData\Local\Temp\ccYQk2fd.s 			page 10


 302              	.LBE93:
 303              	.LBE94:
 304              		.loc 1 26 15 view .LVU58
 305 0010 80ED020A 		vstr.32	s0, [r0, #8]
  27:src/AnalogDelay.cpp **** }
 306              		.loc 1 27 1 view .LVU59
 307 0014 7047     		bx	lr
 308              	.L12:
 309 0016 00BF     		.align	2
 310              	.L11:
 311 0018 00000000 		.word	0
 312 001c A4707D3F 		.word	1065185444
 313              		.cfi_endproc
 314              	.LFE4821:
 316              		.section	.text._ZN11AnalogDelay6setMixEf,"ax",%progbits
 317              		.align	1
 318              		.p2align 2,,3
 319              		.global	_ZN11AnalogDelay6setMixEf
 320              		.syntax unified
 321              		.thumb
 322              		.thumb_func
 323              		.fpu fpv5-d16
 325              	_ZN11AnalogDelay6setMixEf:
 326              	.LVL13:
 327              	.LFB4822:
  28:src/AnalogDelay.cpp **** 
  29:src/AnalogDelay.cpp **** // Imposta il mix tra segnale dry e wet (0 = solo dry, 1 = solo wet)
  30:src/AnalogDelay.cpp **** void AnalogDelay::setMix(float mix) {
 328              		.loc 1 30 37 is_stmt 1 view -0
 329              		.cfi_startproc
 330              		@ args = 0, pretend = 0, frame = 0
 331              		@ frame_needed = 0, uses_anonymous_args = 0
 332              		@ link register save eliminated.
  31:src/AnalogDelay.cpp ****     _mix = fclamp(mix, 0.0f, 1.0f);  // Limita il mix tra 0 e 1
 333              		.loc 1 31 5 view .LVU61
 334              	.LBB95:
 335              	.LBB96:
  60:../DaisySP/Source/Dynamics/crossfade.h ****     /** processes CrossFade and returns single sample
  61:../DaisySP/Source/Dynamics/crossfade.h ****     */
  62:../DaisySP/Source/Dynamics/crossfade.h ****     float Process(float &in1, float &in2);
  63:../DaisySP/Source/Dynamics/crossfade.h **** 
  64:../DaisySP/Source/Dynamics/crossfade.h **** 
  65:../DaisySP/Source/Dynamics/crossfade.h ****     /** Sets position of CrossFade between two input signals
  66:../DaisySP/Source/Dynamics/crossfade.h ****         Input range: 0 to 1
  67:../DaisySP/Source/Dynamics/crossfade.h ****     */
  68:../DaisySP/Source/Dynamics/crossfade.h ****     inline void SetPos(float pos) { pos_ = pos; }
 336              		.loc 3 68 42 is_stmt 0 view .LVU62
 337 0000 074B     		ldr	r3, .L14
 338              	.LVL14:
 339              		.loc 3 68 42 view .LVU63
 340              	.LBE96:
 341              	.LBE95:
 342              	.LBB99:
 343              	.LBI99:
  64:../DaisySP/Source/Utility/dsp.h **** {
 344              		.loc 4 64 14 is_stmt 1 view .LVU64
 345              	.LBE99:
ARM GAS  C:\Users\skipi\AppData\Local\Temp\ccYQk2fd.s 			page 11


 346              		.loc 4 66 5 view .LVU65
 347              	.LBB110:
 348              	.LBB100:
 349              	.LBI100:
  40:../DaisySP/Source/Utility/dsp.h **** {
 350              		.loc 4 40 14 view .LVU66
 351              	.LBB101:
  42:../DaisySP/Source/Utility/dsp.h **** #ifdef __arm__
 352              		.loc 4 42 5 view .LVU67
  44:../DaisySP/Source/Utility/dsp.h **** #else
 353              		.loc 4 44 5 view .LVU68
 354              	.LBE101:
 355              	.LBE100:
 356              	.LBB104:
 357              	.LBB105:
  55:../DaisySP/Source/Utility/dsp.h **** #else
 358              		.loc 4 55 5 is_stmt 0 view .LVU69
 359 0002 F7EE007A 		vmov.f32	s15, #1.0e+0
 360              	.LBE105:
 361              	.LBE104:
 362              	.LBB107:
 363              	.LBB102:
  44:../DaisySP/Source/Utility/dsp.h **** #else
 364              		.loc 4 44 5 view .LVU70
 365 0006 9FED077A 		vldr.32	s14, .L14+4
 366              	.LBE102:
 367              	.LBE107:
 368              	.LBE110:
 369              	.LBB111:
 370              	.LBB97:
 371              		.loc 3 68 42 view .LVU71
 372 000a 0344     		add	r3, r3, r0
 373              	.LBE97:
 374              	.LBE111:
 375              	.LBB112:
 376              	.LBB108:
 377              	.LBB103:
  44:../DaisySP/Source/Utility/dsp.h **** #else
 378              		.loc 4 44 5 view .LVU72
 379              		.syntax unified
 380              	@ 44 "../DaisySP/Source/Utility/dsp.h" 1
 381 000c 80FE070A 		vmaxnm.f32 s0, s0, s14
 382              	@ 0 "" 2
 383              	.LVL15:
  48:../DaisySP/Source/Utility/dsp.h **** }
 384              		.loc 4 48 5 is_stmt 1 view .LVU73
  48:../DaisySP/Source/Utility/dsp.h **** }
 385              		.loc 4 48 5 is_stmt 0 view .LVU74
 386              		.thumb
 387              		.syntax unified
 388              	.LBE103:
 389              	.LBE108:
 390              	.LBB109:
 391              	.LBI104:
  51:../DaisySP/Source/Utility/dsp.h **** {
 392              		.loc 4 51 14 is_stmt 1 view .LVU75
 393              	.LBB106:
ARM GAS  C:\Users\skipi\AppData\Local\Temp\ccYQk2fd.s 			page 12


  53:../DaisySP/Source/Utility/dsp.h **** #ifdef __arm__
 394              		.loc 4 53 5 view .LVU76
  55:../DaisySP/Source/Utility/dsp.h **** #else
 395              		.loc 4 55 5 view .LVU77
 396              		.syntax unified
 397              	@ 55 "../DaisySP/Source/Utility/dsp.h" 1
 398 0010 80FE670A 		vminnm.f32 s0, s0, s15
 399              	@ 0 "" 2
 400              	.LVL16:
  59:../DaisySP/Source/Utility/dsp.h **** }
 401              		.loc 4 59 5 view .LVU78
  59:../DaisySP/Source/Utility/dsp.h **** }
 402              		.loc 4 59 5 is_stmt 0 view .LVU79
 403              		.thumb
 404              		.syntax unified
 405              	.LBE106:
 406              	.LBE109:
 407              	.LBE112:
 408              		.loc 1 31 10 view .LVU80
 409 0014 80ED030A 		vstr.32	s0, [r0, #12]
  32:src/AnalogDelay.cpp ****     _crossfade.SetPos(_mix);          // Aggiorna la posizione del crossfader
 410              		.loc 1 32 5 is_stmt 1 view .LVU81
 411              	.LVL17:
 412              	.LBB113:
 413              	.LBI95:
 414              		.loc 3 68 17 view .LVU82
 415              	.LBB98:
 416              		.loc 3 68 37 view .LVU83
 417              		.loc 3 68 42 is_stmt 0 view .LVU84
 418 0018 83ED000A 		vstr.32	s0, [r3]
 419              	.LVL18:
 420              		.loc 3 68 42 view .LVU85
 421              	.LBE98:
 422              	.LBE113:
  33:src/AnalogDelay.cpp **** }
 423              		.loc 1 33 1 view .LVU86
 424 001c 7047     		bx	lr
 425              	.L15:
 426 001e 00BF     		.align	2
 427              	.L14:
 428 0020 1CEE0200 		.word	192028
 429 0024 00000000 		.word	0
 430              		.cfi_endproc
 431              	.LFE4822:
 433              		.section	.text._ZN11AnalogDelay12setDelayTimeEf,"ax",%progbits
 434              		.align	1
 435              		.p2align 2,,3
 436              		.global	_ZN11AnalogDelay12setDelayTimeEf
 437              		.syntax unified
 438              		.thumb
 439              		.thumb_func
 440              		.fpu fpv5-d16
 442              	_ZN11AnalogDelay12setDelayTimeEf:
 443              	.LVL19:
 444              	.LFB4823:
  34:src/AnalogDelay.cpp **** 
  35:src/AnalogDelay.cpp **** // Imposta il tempo di delay in secondi
ARM GAS  C:\Users\skipi\AppData\Local\Temp\ccYQk2fd.s 			page 13


  36:src/AnalogDelay.cpp **** void AnalogDelay::setDelayTime(float delayTime) {
 445              		.loc 1 36 49 is_stmt 1 view -0
 446              		.cfi_startproc
 447              		@ args = 0, pretend = 0, frame = 0
 448              		@ frame_needed = 0, uses_anonymous_args = 0
 449              		@ link register save eliminated.
  37:src/AnalogDelay.cpp ****     _delayTime = fclamp(delayTime, 0.02f, (float)MAX_DELAY_TIME); // Limita il tempo di delay
 450              		.loc 1 37 5 view .LVU88
 451              	.LBB114:
 452              	.LBI114:
  64:../DaisySP/Source/Utility/dsp.h **** {
 453              		.loc 4 64 14 view .LVU89
 454              	.LBE114:
 455              		.loc 4 66 5 view .LVU90
 456              	.LBB123:
 457              	.LBB115:
 458              	.LBI115:
  40:../DaisySP/Source/Utility/dsp.h **** {
 459              		.loc 4 40 14 view .LVU91
 460              	.LBB116:
  42:../DaisySP/Source/Utility/dsp.h **** #ifdef __arm__
 461              		.loc 4 42 5 view .LVU92
  44:../DaisySP/Source/Utility/dsp.h **** #else
 462              		.loc 4 44 5 view .LVU93
 463              	.LBE116:
 464              	.LBE115:
 465              	.LBB118:
 466              	.LBB119:
  55:../DaisySP/Source/Utility/dsp.h **** #else
 467              		.loc 4 55 5 is_stmt 0 view .LVU94
 468 0000 F7EE007A 		vmov.f32	s15, #1.0e+0
 469              	.LBE119:
 470              	.LBE118:
 471              	.LBB121:
 472              	.LBB117:
  44:../DaisySP/Source/Utility/dsp.h **** #else
 473              		.loc 4 44 5 view .LVU95
 474 0004 9FED047A 		vldr.32	s14, .L17
 475              		.syntax unified
 476              	@ 44 "../DaisySP/Source/Utility/dsp.h" 1
 477 0008 80FE070A 		vmaxnm.f32 s0, s0, s14
 478              	@ 0 "" 2
 479              	.LVL20:
  48:../DaisySP/Source/Utility/dsp.h **** }
 480              		.loc 4 48 5 is_stmt 1 view .LVU96
  48:../DaisySP/Source/Utility/dsp.h **** }
 481              		.loc 4 48 5 is_stmt 0 view .LVU97
 482              		.thumb
 483              		.syntax unified
 484              	.LBE117:
 485              	.LBE121:
 486              	.LBB122:
 487              	.LBI118:
  51:../DaisySP/Source/Utility/dsp.h **** {
 488              		.loc 4 51 14 is_stmt 1 view .LVU98
 489              	.LBB120:
  53:../DaisySP/Source/Utility/dsp.h **** #ifdef __arm__
ARM GAS  C:\Users\skipi\AppData\Local\Temp\ccYQk2fd.s 			page 14


 490              		.loc 4 53 5 view .LVU99
  55:../DaisySP/Source/Utility/dsp.h **** #else
 491              		.loc 4 55 5 view .LVU100
 492              		.syntax unified
 493              	@ 55 "../DaisySP/Source/Utility/dsp.h" 1
 494 000c 80FE670A 		vminnm.f32 s0, s0, s15
 495              	@ 0 "" 2
 496              	.LVL21:
  59:../DaisySP/Source/Utility/dsp.h **** }
 497              		.loc 4 59 5 view .LVU101
  59:../DaisySP/Source/Utility/dsp.h **** }
 498              		.loc 4 59 5 is_stmt 0 view .LVU102
 499              		.thumb
 500              		.syntax unified
 501              	.LBE120:
 502              	.LBE122:
 503              	.LBE123:
 504              		.loc 1 37 16 view .LVU103
 505 0010 80ED010A 		vstr.32	s0, [r0, #4]
  38:src/AnalogDelay.cpp **** }
 506              		.loc 1 38 1 view .LVU104
 507 0014 7047     		bx	lr
 508              	.L18:
 509 0016 00BF     		.align	2
 510              	.L17:
 511 0018 0AD7A33C 		.word	1017370378
 512              		.cfi_endproc
 513              	.LFE4823:
 515              		.section	.text._ZN11AnalogDelay7ProcessEf,"ax",%progbits
 516              		.align	1
 517              		.p2align 2,,3
 518              		.global	_ZN11AnalogDelay7ProcessEf
 519              		.syntax unified
 520              		.thumb
 521              		.thumb_func
 522              		.fpu fpv5-d16
 524              	_ZN11AnalogDelay7ProcessEf:
 525              	.LVL22:
 526              	.LFB4824:
  39:src/AnalogDelay.cpp **** 
  40:src/AnalogDelay.cpp **** // Processa un singolo campione audio
  41:src/AnalogDelay.cpp **** float AnalogDelay::Process(float buffer_in) {
 527              		.loc 1 41 45 is_stmt 1 view -0
 528              		.cfi_startproc
 529              		@ args = 0, pretend = 0, frame = 16
 530              		@ frame_needed = 0, uses_anonymous_args = 0
  42:src/AnalogDelay.cpp ****     // Applica smoothing al tempo di delay usando fonepole
  43:src/AnalogDelay.cpp ****     float currentDelayTime = 0.0f;
 531              		.loc 1 43 5 view .LVU106
  44:src/AnalogDelay.cpp ****     fonepole(currentDelayTime, _delayTime, SMOOTH_COEFF);
 532              		.loc 1 44 5 view .LVU107
 533              	.LBB130:
 534              	.LBB131:
  67:../DaisySP/Source/Utility/dsp.h **** }
  68:../DaisySP/Source/Utility/dsp.h **** 
  69:../DaisySP/Source/Utility/dsp.h **** /** From Musicdsp.org "Fast power and root estimates for 32bit floats)
  70:../DaisySP/Source/Utility/dsp.h **** Original code by Stefan Stenzel
ARM GAS  C:\Users\skipi\AppData\Local\Temp\ccYQk2fd.s 			page 15


  71:../DaisySP/Source/Utility/dsp.h **** These are approximations
  72:../DaisySP/Source/Utility/dsp.h **** */
  73:../DaisySP/Source/Utility/dsp.h **** inline float fastpower(float f, int n)
  74:../DaisySP/Source/Utility/dsp.h **** {
  75:../DaisySP/Source/Utility/dsp.h ****     long *lp, l;
  76:../DaisySP/Source/Utility/dsp.h ****     lp = (long *)(&f);
  77:../DaisySP/Source/Utility/dsp.h ****     l  = *lp;
  78:../DaisySP/Source/Utility/dsp.h ****     l -= 0x3F800000;
  79:../DaisySP/Source/Utility/dsp.h ****     l <<= (n - 1);
  80:../DaisySP/Source/Utility/dsp.h ****     l += 0x3F800000;
  81:../DaisySP/Source/Utility/dsp.h ****     *lp = l;
  82:../DaisySP/Source/Utility/dsp.h ****     return f;
  83:../DaisySP/Source/Utility/dsp.h **** }
  84:../DaisySP/Source/Utility/dsp.h **** 
  85:../DaisySP/Source/Utility/dsp.h **** inline float fastroot(float f, int n)
  86:../DaisySP/Source/Utility/dsp.h **** {
  87:../DaisySP/Source/Utility/dsp.h ****     long *lp, l;
  88:../DaisySP/Source/Utility/dsp.h ****     lp = (long *)(&f);
  89:../DaisySP/Source/Utility/dsp.h ****     l  = *lp;
  90:../DaisySP/Source/Utility/dsp.h ****     l -= 0x3F800000;
  91:../DaisySP/Source/Utility/dsp.h ****     l >>= (n - 1);
  92:../DaisySP/Source/Utility/dsp.h ****     l += 0x3F800000;
  93:../DaisySP/Source/Utility/dsp.h ****     *lp = l;
  94:../DaisySP/Source/Utility/dsp.h ****     return f;
  95:../DaisySP/Source/Utility/dsp.h **** }
  96:../DaisySP/Source/Utility/dsp.h **** 
  97:../DaisySP/Source/Utility/dsp.h **** /** Significantly more efficient than fmodf(x, 1.0f) for calculating
  98:../DaisySP/Source/Utility/dsp.h ****  *  the decimal part of a floating point value.
  99:../DaisySP/Source/Utility/dsp.h ****  */
 100:../DaisySP/Source/Utility/dsp.h **** inline float fastmod1f(float x)
 101:../DaisySP/Source/Utility/dsp.h **** {
 102:../DaisySP/Source/Utility/dsp.h ****     return x - static_cast<int>(x);
 103:../DaisySP/Source/Utility/dsp.h **** }
 104:../DaisySP/Source/Utility/dsp.h **** 
 105:../DaisySP/Source/Utility/dsp.h **** /** From http://openaudio.blogspot.com/2017/02/faster-log10-and-pow.html
 106:../DaisySP/Source/Utility/dsp.h **** No approximation, pow10f(x) gives a 90% speed increase over powf(10.f, x)
 107:../DaisySP/Source/Utility/dsp.h **** */
 108:../DaisySP/Source/Utility/dsp.h **** inline float pow10f(float f)
 109:../DaisySP/Source/Utility/dsp.h **** {
 110:../DaisySP/Source/Utility/dsp.h ****     return expf(2.302585092994046f * f);
 111:../DaisySP/Source/Utility/dsp.h **** }
 112:../DaisySP/Source/Utility/dsp.h **** 
 113:../DaisySP/Source/Utility/dsp.h **** /* Original code for fastlog2f by Dr. Paul Beckmann from the ARM community forum, adapted from the 
 114:../DaisySP/Source/Utility/dsp.h **** About 25% performance increase over std::log10f
 115:../DaisySP/Source/Utility/dsp.h **** */
 116:../DaisySP/Source/Utility/dsp.h **** inline float fastlog2f(float f)
 117:../DaisySP/Source/Utility/dsp.h **** {
 118:../DaisySP/Source/Utility/dsp.h ****     float frac;
 119:../DaisySP/Source/Utility/dsp.h ****     int   exp;
 120:../DaisySP/Source/Utility/dsp.h ****     frac = frexpf(fabsf(f), &exp);
 121:../DaisySP/Source/Utility/dsp.h ****     f    = 1.23149591368684f;
 122:../DaisySP/Source/Utility/dsp.h ****     f *= frac;
 123:../DaisySP/Source/Utility/dsp.h ****     f += -4.11852516267426f;
 124:../DaisySP/Source/Utility/dsp.h ****     f *= frac;
 125:../DaisySP/Source/Utility/dsp.h ****     f += 6.02197014179219f;
 126:../DaisySP/Source/Utility/dsp.h ****     f *= frac;
 127:../DaisySP/Source/Utility/dsp.h ****     f += -3.13396450166353f;
ARM GAS  C:\Users\skipi\AppData\Local\Temp\ccYQk2fd.s 			page 16


 128:../DaisySP/Source/Utility/dsp.h ****     f += exp;
 129:../DaisySP/Source/Utility/dsp.h ****     return (f);
 130:../DaisySP/Source/Utility/dsp.h **** }
 131:../DaisySP/Source/Utility/dsp.h **** 
 132:../DaisySP/Source/Utility/dsp.h **** inline float fastlog10f(float f)
 133:../DaisySP/Source/Utility/dsp.h **** {
 134:../DaisySP/Source/Utility/dsp.h ****     return fastlog2f(f) * 0.3010299956639812f;
 135:../DaisySP/Source/Utility/dsp.h **** }
 136:../DaisySP/Source/Utility/dsp.h **** 
 137:../DaisySP/Source/Utility/dsp.h **** /** Midi to frequency helper
 138:../DaisySP/Source/Utility/dsp.h **** */
 139:../DaisySP/Source/Utility/dsp.h **** inline float mtof(float m)
 140:../DaisySP/Source/Utility/dsp.h **** {
 141:../DaisySP/Source/Utility/dsp.h ****     return powf(2, (m - 69.0f) / 12.0f) * 440.0f;
 142:../DaisySP/Source/Utility/dsp.h **** }
 143:../DaisySP/Source/Utility/dsp.h **** 
 144:../DaisySP/Source/Utility/dsp.h **** 
 145:../DaisySP/Source/Utility/dsp.h **** /** one pole lpf
 146:../DaisySP/Source/Utility/dsp.h **** out is passed by reference, and must be retained between
 147:../DaisySP/Source/Utility/dsp.h **** calls to properly filter the signal
 148:../DaisySP/Source/Utility/dsp.h **** coeff can be calculated:
 149:../DaisySP/Source/Utility/dsp.h **** coeff = 1.0 / (time * sample_rate) ; where time is in seconds
 150:../DaisySP/Source/Utility/dsp.h **** */
 151:../DaisySP/Source/Utility/dsp.h **** inline void fonepole(float &out, float in, float coeff)
 152:../DaisySP/Source/Utility/dsp.h **** {
 153:../DaisySP/Source/Utility/dsp.h ****     out += coeff * (in - out);
 535              		.loc 4 153 9 is_stmt 0 view .LVU108
 536 0000 90ED016A 		vldr.32	s12, [r0, #4]
 537 0004 DFED296A 		vldr.32	s13, .L21
 538 0008 DFED297A 		vldr.32	s15, .L21+4
 539              	.LBE131:
 540              	.LBE130:
  45:src/AnalogDelay.cpp ****     
  46:src/AnalogDelay.cpp ****     // Converte il tempo di delay da secondi a campioni
  47:src/AnalogDelay.cpp ****     float delaySamples = _sampleRate * currentDelayTime;
 541              		.loc 1 47 11 view .LVU109
 542 000c 90ED007A 		vldr.32	s14, [r0]
 543              	.LBB134:
 544              	.LBB132:
 545              		.loc 4 153 9 view .LVU110
 546 0010 E6EE267A 		vfma.f32	s15, s12, s13
 547              	.LBE132:
 548              	.LBE134:
 549              	.LBB135:
 550              	.LBB136:
  46:../DaisySP/Source/Utility/delayline.h ****     }
  47:../DaisySP/Source/Utility/delayline.h **** 
  48:../DaisySP/Source/Utility/delayline.h ****     /** sets the delay time in samples
  49:../DaisySP/Source/Utility/delayline.h ****         If a float is passed in, a fractional component will be calculated for interpolating the de
  50:../DaisySP/Source/Utility/delayline.h ****     */
  51:../DaisySP/Source/Utility/delayline.h ****     inline void SetDelay(size_t delay)
  52:../DaisySP/Source/Utility/delayline.h ****     {
  53:../DaisySP/Source/Utility/delayline.h ****         frac_  = 0.0f;
  54:../DaisySP/Source/Utility/delayline.h ****         delay_ = delay < max_size ? delay : max_size - 1;
  55:../DaisySP/Source/Utility/delayline.h ****     }
  56:../DaisySP/Source/Utility/delayline.h **** 
  57:../DaisySP/Source/Utility/delayline.h ****     /** sets the delay time in samples
ARM GAS  C:\Users\skipi\AppData\Local\Temp\ccYQk2fd.s 			page 17


  58:../DaisySP/Source/Utility/delayline.h ****         If a float is passed in, a fractional component will be calculated for interpolating the de
  59:../DaisySP/Source/Utility/delayline.h ****     */
  60:../DaisySP/Source/Utility/delayline.h ****     inline void SetDelay(float delay)
  61:../DaisySP/Source/Utility/delayline.h ****     {
  62:../DaisySP/Source/Utility/delayline.h ****         int32_t int_delay = static_cast<int32_t>(delay);
  63:../DaisySP/Source/Utility/delayline.h ****         frac_             = delay - static_cast<float>(int_delay);
  64:../DaisySP/Source/Utility/delayline.h ****         delay_ = static_cast<size_t>(int_delay) < max_size ? int_delay
  65:../DaisySP/Source/Utility/delayline.h ****                                                            : max_size - 1;
  66:../DaisySP/Source/Utility/delayline.h ****     }
  67:../DaisySP/Source/Utility/delayline.h **** 
  68:../DaisySP/Source/Utility/delayline.h ****     /** writes the sample of type T to the delay line, and advances the write ptr
  69:../DaisySP/Source/Utility/delayline.h ****     */
  70:../DaisySP/Source/Utility/delayline.h ****     inline void Write(const T sample)
  71:../DaisySP/Source/Utility/delayline.h ****     {
  72:../DaisySP/Source/Utility/delayline.h ****         line_[write_ptr_] = sample;
  73:../DaisySP/Source/Utility/delayline.h ****         write_ptr_        = (write_ptr_ - 1 + max_size) % max_size;
  74:../DaisySP/Source/Utility/delayline.h ****     }
  75:../DaisySP/Source/Utility/delayline.h **** 
  76:../DaisySP/Source/Utility/delayline.h ****     /** returns the next sample of type T in the delay line, interpolated if necessary.
  77:../DaisySP/Source/Utility/delayline.h ****     */
  78:../DaisySP/Source/Utility/delayline.h ****     inline const T Read() const
  79:../DaisySP/Source/Utility/delayline.h ****     {
  80:../DaisySP/Source/Utility/delayline.h ****         T a = line_[(write_ptr_ + delay_) % max_size];
  81:../DaisySP/Source/Utility/delayline.h ****         T b = line_[(write_ptr_ + delay_ + 1) % max_size];
  82:../DaisySP/Source/Utility/delayline.h ****         return a + (b - a) * frac_;
  83:../DaisySP/Source/Utility/delayline.h ****     }
  84:../DaisySP/Source/Utility/delayline.h **** 
  85:../DaisySP/Source/Utility/delayline.h ****     /** Read from a set location */
  86:../DaisySP/Source/Utility/delayline.h ****     inline const T Read(float delay) const
  87:../DaisySP/Source/Utility/delayline.h ****     {
  88:../DaisySP/Source/Utility/delayline.h ****         int32_t delay_integral   = static_cast<int32_t>(delay);
  89:../DaisySP/Source/Utility/delayline.h ****         float   delay_fractional = delay - static_cast<float>(delay_integral);
  90:../DaisySP/Source/Utility/delayline.h ****         const T a = line_[(write_ptr_ + delay_integral) % max_size];
 551              		.loc 2 90 39 view .LVU111
 552 0014 4369     		ldr	r3, [r0, #20]
 553              	.LBE136:
 554              	.LBE135:
  41:src/AnalogDelay.cpp ****     // Applica smoothing al tempo di delay usando fonepole
 555              		.loc 1 41 45 view .LVU112
 556 0016 70B5     		push	{r4, r5, r6, lr}
 557              		.cfi_def_cfa_offset 16
 558              		.cfi_offset 4, -16
 559              		.cfi_offset 5, -12
 560              		.cfi_offset 6, -8
 561              		.cfi_offset 14, -4
 562              	.LBB143:
 563              	.LBB137:
 564              		.loc 2 90 57 view .LVU113
 565 0018 264D     		ldr	r5, .L21+8
 566 001a 4BF68036 		movw	r6, #48000
 567              	.LBE137:
 568              	.LBE143:
  41:src/AnalogDelay.cpp ****     // Applica smoothing al tempo di delay usando fonepole
 569              		.loc 1 41 45 view .LVU114
 570 001e 84B0     		sub	sp, sp, #16
 571              		.cfi_def_cfa_offset 32
  41:src/AnalogDelay.cpp ****     // Applica smoothing al tempo di delay usando fonepole
ARM GAS  C:\Users\skipi\AppData\Local\Temp\ccYQk2fd.s 			page 18


 572              		.loc 1 41 45 view .LVU115
 573 0020 0446     		mov	r4, r0
 574              	.LVL23:
 575              	.LBB144:
 576              	.LBI130:
 151:../DaisySP/Source/Utility/dsp.h **** {
 577              		.loc 4 151 13 is_stmt 1 view .LVU116
 578              	.LBB133:
 579              		.loc 4 153 5 view .LVU117
 580              		.loc 4 153 5 is_stmt 0 view .LVU118
 581              	.LBE133:
 582              	.LBE144:
 583              		.loc 1 47 5 is_stmt 1 view .LVU119
 584              		.loc 1 47 11 is_stmt 0 view .LVU120
 585 0022 67EE877A 		vmul.f32	s15, s15, s14
 586              	.LVL24:
  48:src/AnalogDelay.cpp ****     
  49:src/AnalogDelay.cpp ****     // Legge il campione ritardato dalla linea di delay
  50:src/AnalogDelay.cpp ****     float delayed = _delayLine.Read(delaySamples);
 587              		.loc 1 50 5 is_stmt 1 view .LVU121
 588              	.LBB145:
 589              	.LBI135:
  86:../DaisySP/Source/Utility/delayline.h ****     {
 590              		.loc 2 86 20 view .LVU122
 591              	.LBE145:
  41:src/AnalogDelay.cpp ****     // Applica smoothing al tempo di delay usando fonepole
 592              		.loc 1 41 45 is_stmt 0 view .LVU123
 593 0026 8DED010A 		vstr.32	s0, [sp, #4]
 594              	.LBB146:
 595              	.LBB138:
  88:../DaisySP/Source/Utility/delayline.h ****         float   delay_fractional = delay - static_cast<float>(delay_integral);
 596              		.loc 2 88 17 view .LVU124
 597 002a BDEEE77A 		vcvt.s32.f32	s14, s15
 598              	.LVL25:
 599              		.loc 2 90 39 view .LVU125
 600 002e 17EE102A 		vmov	r2, s14	@ int
  89:../DaisySP/Source/Utility/delayline.h ****         const T a = line_[(write_ptr_ + delay_integral) % max_size];
 601              		.loc 2 89 44 view .LVU126
 602 0032 B8EEC77A 		vcvt.f32.s32	s14, s14
 603              	.LVL26:
 604              		.loc 2 90 39 view .LVU127
 605 0036 1344     		add	r3, r3, r2
  89:../DaisySP/Source/Utility/delayline.h ****         const T a = line_[(write_ptr_ + delay_integral) % max_size];
 606              		.loc 2 89 17 view .LVU128
 607 0038 77EEC77A 		vsub.f32	s15, s15, s14
 608              	.LVL27:
 609              		.loc 2 90 57 view .LVU129
 610 003c A5FB0312 		umull	r1, r2, r5, r3
 611              	.LVL28:
 612              		.loc 2 90 57 view .LVU130
 613 0040 920A     		lsrs	r2, r2, #10
 614 0042 06FB1232 		mls	r2, r6, r2, r3
  91:../DaisySP/Source/Utility/delayline.h ****         const T b = line_[(write_ptr_ + delay_integral + 1) % max_size];
 615              		.loc 2 91 56 view .LVU131
 616 0046 0133     		adds	r3, r3, #1
  90:../DaisySP/Source/Utility/delayline.h ****         const T b = line_[(write_ptr_ + delay_integral + 1) % max_size];
 617              		.loc 2 90 17 view .LVU132
ARM GAS  C:\Users\skipi\AppData\Local\Temp\ccYQk2fd.s 			page 19


 618 0048 00EB8202 		add	r2, r0, r2, lsl #2
 619 004c 92ED077A 		vldr.32	s14, [r2, #28]
 620              	.LVL29:
 621              		.loc 2 91 61 view .LVU133
 622 0050 A5FB0312 		umull	r1, r2, r5, r3
 623              	.LBE138:
 624              	.LBE146:
  51:src/AnalogDelay.cpp ****     
  52:src/AnalogDelay.cpp ****     // Mixa il segnale originale con quello ritardato usando il crossfade
  53:src/AnalogDelay.cpp ****     float buffer_out = _crossfade.Process(buffer_in, delayed);
 625              		.loc 1 53 42 view .LVU134
 626 0054 01A9     		add	r1, sp, #4
 627              	.LBB147:
 628              	.LBB139:
 629              		.loc 2 91 61 view .LVU135
 630 0056 920A     		lsrs	r2, r2, #10
 631 0058 06FB1233 		mls	r3, r6, r2, r3
 632              	.LVL30:
 633              		.loc 2 91 61 view .LVU136
 634              	.LBE139:
 635              	.LBE147:
 636              		.loc 1 53 42 view .LVU137
 637 005c 03AA     		add	r2, sp, #12
 638              	.LBB148:
 639              	.LBB140:
 640              		.loc 2 91 17 view .LVU138
 641 005e 00EB8303 		add	r3, r0, r3, lsl #2
 642              	.LBE140:
 643              	.LBE148:
 644              		.loc 1 53 42 view .LVU139
 645 0062 1548     		ldr	r0, .L21+12
 646              	.LVL31:
 647              	.LBB149:
 648              	.LBB141:
  92:../DaisySP/Source/Utility/delayline.h ****         return a + (b - a) * delay_fractional;
 649              		.loc 2 92 23 view .LVU140
 650 0064 D3ED076A 		vldr.32	s13, [r3, #28]
 651              	.LVL32:
 652              		.loc 2 92 23 view .LVU141
 653              	.LBE141:
 654              	.LBE149:
 655              		.loc 1 53 42 view .LVU142
 656 0068 2044     		add	r0, r0, r4
 657              	.LBB150:
 658              	.LBB142:
 659              		.loc 2 92 23 view .LVU143
 660 006a 76EEC76A 		vsub.f32	s13, s13, s14
 661              		.loc 2 92 30 view .LVU144
 662 006e A7EEA67A 		vfma.f32	s14, s15, s13
 663              	.LVL33:
 664              		.loc 2 92 30 view .LVU145
 665              	.LBE142:
 666              	.LBE150:
  50:src/AnalogDelay.cpp ****     
 667              		.loc 1 50 49 view .LVU146
 668 0072 8DED037A 		vstr.32	s14, [sp, #12]
 669              		.loc 1 53 5 is_stmt 1 view .LVU147
ARM GAS  C:\Users\skipi\AppData\Local\Temp\ccYQk2fd.s 			page 20


 670              		.loc 1 53 42 is_stmt 0 view .LVU148
 671 0076 FFF7FEFF 		bl	_ZN7daisysp9CrossFade7ProcessERfS1_
 672              	.LVL34:
  54:src/AnalogDelay.cpp ****     
  55:src/AnalogDelay.cpp ****     // Scrive nella linea di delay il nuovo campione più il feedback
  56:src/AnalogDelay.cpp ****     _delayLine.Write(buffer_in + delayed * _feedback);
 673              		.loc 1 56 5 is_stmt 1 view .LVU149
 674              		.loc 1 56 21 is_stmt 0 view .LVU150
 675 007a D4ED026A 		vldr.32	s13, [r4, #8]
 676 007e 9DED037A 		vldr.32	s14, [sp, #12]
 677 0082 DDED017A 		vldr.32	s15, [sp, #4]
 678              	.LBB151:
 679              	.LBB152:
  72:../DaisySP/Source/Utility/delayline.h ****         write_ptr_        = (write_ptr_ - 1 + max_size) % max_size;
 680              		.loc 2 72 15 view .LVU151
 681 0086 6269     		ldr	r2, [r4, #20]
 682              	.LBE152:
 683              	.LBE151:
 684              		.loc 1 56 21 view .LVU152
 685 0088 E6EE877A 		vfma.f32	s15, s13, s14
 686              	.LVL35:
 687              	.LBB154:
 688              	.LBI151:
  70:../DaisySP/Source/Utility/delayline.h ****     {
 689              		.loc 2 70 17 is_stmt 1 view .LVU153
 690              	.LBB153:
  72:../DaisySP/Source/Utility/delayline.h ****         write_ptr_        = (write_ptr_ - 1 + max_size) % max_size;
 691              		.loc 2 72 27 is_stmt 0 view .LVU154
 692 008c 04EB8203 		add	r3, r4, r2, lsl #2
 693 0090 C3ED077A 		vstr.32	s15, [r3, #28]
  73:../DaisySP/Source/Utility/delayline.h ****     }
 694              		.loc 2 73 45 view .LVU155
 695 0094 4BF67F33 		movw	r3, #47999
 696 0098 1344     		add	r3, r3, r2
  73:../DaisySP/Source/Utility/delayline.h ****     }
 697              		.loc 2 73 57 view .LVU156
 698 009a A5FB0325 		umull	r2, r5, r5, r3
 699 009e AD0A     		lsrs	r5, r5, #10
 700 00a0 06FB1535 		mls	r5, r6, r5, r3
  73:../DaisySP/Source/Utility/delayline.h ****     }
 701              		.loc 2 73 27 view .LVU157
 702 00a4 6561     		str	r5, [r4, #20]
 703              	.LVL36:
  73:../DaisySP/Source/Utility/delayline.h ****     }
 704              		.loc 2 73 27 view .LVU158
 705              	.LBE153:
 706              	.LBE154:
  57:src/AnalogDelay.cpp **** 
  58:src/AnalogDelay.cpp ****     return buffer_out; // Restituisce il campione processato
 707              		.loc 1 58 5 is_stmt 1 view .LVU159
  59:src/AnalogDelay.cpp **** }
 708              		.loc 1 59 1 is_stmt 0 view .LVU160
 709 00a6 04B0     		add	sp, sp, #16
 710              		.cfi_def_cfa_offset 16
 711              		@ sp needed
 712 00a8 70BD     		pop	{r4, r5, r6, pc}
 713              	.LVL37:
ARM GAS  C:\Users\skipi\AppData\Local\Temp\ccYQk2fd.s 			page 21


 714              	.L22:
 715              		.loc 1 59 1 view .LVU161
 716 00aa 00BF     		.align	2
 717              	.L21:
 718 00ac ACC5A738 		.word	950519212
 719 00b0 00000000 		.word	0
 720 00b4 F1197605 		.word	91625969
 721 00b8 1CEE0200 		.word	192028
 722              		.cfi_endproc
 723              	.LFE4824:
 725              		.text
 726              	.Letext0:
 727              		.file 5 "c:\\program files\\daisytoolchain\\arm-none-eabi\\include\\machine\\_default_types.h"
 728              		.file 6 "c:\\program files\\daisytoolchain\\arm-none-eabi\\include\\sys\\_stdint.h"
 729              		.file 7 "c:\\program files\\daisytoolchain\\arm-none-eabi\\include\\stdint.h"
 730              		.file 8 "c:\\program files\\daisytoolchain\\lib\\gcc\\arm-none-eabi\\10.2.1\\include\\stddef.h"
 731              		.file 9 "c:\\program files\\daisytoolchain\\arm-none-eabi\\include\\c++\\10.2.1\\cmath"
 732              		.file 10 "c:\\program files\\daisytoolchain\\arm-none-eabi\\include\\c++\\10.2.1\\bits\\std_abs.h"
 733              		.file 11 "c:\\program files\\daisytoolchain\\arm-none-eabi\\include\\c++\\10.2.1\\cstdlib"
 734              		.file 12 "c:\\program files\\daisytoolchain\\arm-none-eabi\\include\\c++\\10.2.1\\cstdint"
 735              		.file 13 "c:\\program files\\daisytoolchain\\arm-none-eabi\\include\\c++\\10.2.1\\type_traits"
 736              		.file 14 "c:\\program files\\daisytoolchain\\arm-none-eabi\\include\\c++\\10.2.1\\debug\\debug.h"
 737              		.file 15 "c:\\program files\\daisytoolchain\\arm-none-eabi\\include\\c++\\10.2.1\\arm-none-eabi\\t
 738              		.file 16 "c:\\program files\\daisytoolchain\\arm-none-eabi\\include\\c++\\10.2.1\\bits\\algorithmf
 739              		.file 17 "c:\\program files\\daisytoolchain\\arm-none-eabi\\include\\c++\\10.2.1\\bits\\stl_pair.h
 740              		.file 18 "c:\\program files\\daisytoolchain\\arm-none-eabi\\include\\c++\\10.2.1\\bits\\exception_
 741              		.file 19 "c:\\program files\\daisytoolchain\\arm-none-eabi\\include\\c++\\10.2.1\\cstdarg"
 742              		.file 20 "c:\\program files\\daisytoolchain\\arm-none-eabi\\include\\c++\\10.2.1\\cstdio"
 743              		.file 21 "c:\\program files\\daisytoolchain\\arm-none-eabi\\include\\c++\\10.2.1\\cstring"
 744              		.file 22 "c:\\program files\\daisytoolchain\\arm-none-eabi\\include\\c++\\10.2.1\\cwchar"
 745              		.file 23 "c:\\program files\\daisytoolchain\\arm-none-eabi\\include\\c++\\10.2.1\\clocale"
 746              		.file 24 "c:\\program files\\daisytoolchain\\arm-none-eabi\\include\\c++\\10.2.1\\bits\\basic_stri
 747              		.file 25 "c:\\program files\\daisytoolchain\\arm-none-eabi\\include\\c++\\10.2.1\\bits\\stl_tempbu
 748              		.file 26 "c:\\program files\\daisytoolchain\\arm-none-eabi\\include\\c++\\10.2.1\\bits\\predefined
 749              		.file 27 "c:\\program files\\daisytoolchain\\arm-none-eabi\\include\\sys\\_types.h"
 750              		.file 28 "c:\\program files\\daisytoolchain\\arm-none-eabi\\include\\sys\\reent.h"
 751              		.file 29 "c:\\program files\\daisytoolchain\\arm-none-eabi\\include\\sys\\lock.h"
 752              		.file 30 "c:\\program files\\daisytoolchain\\arm-none-eabi\\include\\math.h"
 753              		.file 31 "c:\\program files\\daisytoolchain\\arm-none-eabi\\include\\stdlib.h"
 754              		.file 32 "c:\\program files\\daisytoolchain\\arm-none-eabi\\include\\c++\\10.2.1\\math.h"
 755              		.file 33 "c:\\program files\\daisytoolchain\\arm-none-eabi\\include\\c++\\10.2.1\\stdlib.h"
 756              		.file 34 "../libDaisy/src/daisy_core.h"
 757              		.file 35 "../libDaisy/src/util/wav_format.h"
 758              		.file 36 "../libDaisy/src/dev/sr_595.h"
 759              		.file 37 "../libDaisy/src/dev/max11300.h"
 760              		.file 38 "../libDaisy/src/daisy_seed.h"
 761              		.file 39 "c:\\program files\\daisytoolchain\\lib\\gcc\\arm-none-eabi\\10.2.1\\include\\stdarg.h"
 762              		.file 40 "c:\\program files\\daisytoolchain\\arm-none-eabi\\include\\stdio.h"
 763              		.file 41 "c:\\program files\\daisytoolchain\\arm-none-eabi\\include\\string.h"
 764              		.file 42 "../DaisySP/Source/Control/adenv.h"
 765              		.file 43 "c:\\program files\\daisytoolchain\\arm-none-eabi\\include\\wchar.h"
 766              		.file 44 "c:\\program files\\daisytoolchain\\arm-none-eabi\\include\\locale.h"
 767              		.file 45 "src/AnalogDelay.h"
 768              		.file 46 "<built-in>"
ARM GAS  C:\Users\skipi\AppData\Local\Temp\ccYQk2fd.s 			page 22


DEFINED SYMBOLS
                            *ABS*:00000000 AnalogDelay.cpp
C:\Users\skipi\AppData\Local\Temp\ccYQk2fd.s:17     .text._ZN11AnalogDelayC2Ev:00000000 $t
C:\Users\skipi\AppData\Local\Temp\ccYQk2fd.s:26     .text._ZN11AnalogDelayC2Ev:00000000 _ZN11AnalogDelayC2Ev
C:\Users\skipi\AppData\Local\Temp\ccYQk2fd.s:63     .text._ZN11AnalogDelayC2Ev:00000018 $d
C:\Users\skipi\AppData\Local\Temp\ccYQk2fd.s:26     .text._ZN11AnalogDelayC2Ev:00000000 _ZN11AnalogDelayC1Ev
C:\Users\skipi\AppData\Local\Temp\ccYQk2fd.s:71     .text._ZN11AnalogDelayD2Ev:00000000 $t
C:\Users\skipi\AppData\Local\Temp\ccYQk2fd.s:79     .text._ZN11AnalogDelayD2Ev:00000000 _ZN11AnalogDelayD2Ev
C:\Users\skipi\AppData\Local\Temp\ccYQk2fd.s:79     .text._ZN11AnalogDelayD2Ev:00000000 _ZN11AnalogDelayD1Ev
C:\Users\skipi\AppData\Local\Temp\ccYQk2fd.s:105    .text._ZN11AnalogDelay4InitEf:00000000 $t
C:\Users\skipi\AppData\Local\Temp\ccYQk2fd.s:113    .text._ZN11AnalogDelay4InitEf:00000000 _ZN11AnalogDelay4InitEf
C:\Users\skipi\AppData\Local\Temp\ccYQk2fd.s:228    .text._ZN11AnalogDelay4InitEf:00000030 $d
C:\Users\skipi\AppData\Local\Temp\ccYQk2fd.s:233    .text._ZN11AnalogDelay11setFeedbackEf:00000000 $t
C:\Users\skipi\AppData\Local\Temp\ccYQk2fd.s:241    .text._ZN11AnalogDelay11setFeedbackEf:00000000 _ZN11AnalogDelay11setFeedbackEf
C:\Users\skipi\AppData\Local\Temp\ccYQk2fd.s:311    .text._ZN11AnalogDelay11setFeedbackEf:00000018 $d
C:\Users\skipi\AppData\Local\Temp\ccYQk2fd.s:317    .text._ZN11AnalogDelay6setMixEf:00000000 $t
C:\Users\skipi\AppData\Local\Temp\ccYQk2fd.s:325    .text._ZN11AnalogDelay6setMixEf:00000000 _ZN11AnalogDelay6setMixEf
C:\Users\skipi\AppData\Local\Temp\ccYQk2fd.s:428    .text._ZN11AnalogDelay6setMixEf:00000020 $d
C:\Users\skipi\AppData\Local\Temp\ccYQk2fd.s:434    .text._ZN11AnalogDelay12setDelayTimeEf:00000000 $t
C:\Users\skipi\AppData\Local\Temp\ccYQk2fd.s:442    .text._ZN11AnalogDelay12setDelayTimeEf:00000000 _ZN11AnalogDelay12setDelayTimeEf
C:\Users\skipi\AppData\Local\Temp\ccYQk2fd.s:511    .text._ZN11AnalogDelay12setDelayTimeEf:00000018 $d
C:\Users\skipi\AppData\Local\Temp\ccYQk2fd.s:516    .text._ZN11AnalogDelay7ProcessEf:00000000 $t
C:\Users\skipi\AppData\Local\Temp\ccYQk2fd.s:524    .text._ZN11AnalogDelay7ProcessEf:00000000 _ZN11AnalogDelay7ProcessEf
C:\Users\skipi\AppData\Local\Temp\ccYQk2fd.s:718    .text._ZN11AnalogDelay7ProcessEf:000000ac $d

UNDEFINED SYMBOLS
memset
_ZN7daisysp9CrossFade7ProcessERfS1_
