ARM GAS  C:\Users\matte\AppData\Local\Temp\ccayzbuB.s 			page 1


   1              		.cpu cortex-m7
   2              		.eabi_attribute 28, 1
   3              		.eabi_attribute 20, 1
   4              		.eabi_attribute 21, 1
   5              		.eabi_attribute 23, 3
   6              		.eabi_attribute 24, 1
   7              		.eabi_attribute 25, 1
   8              		.eabi_attribute 26, 1
   9              		.eabi_attribute 30, 2
  10              		.eabi_attribute 34, 1
  11              		.eabi_attribute 18, 4
  12              		.file	"i2cComm.cpp"
  13              		.text
  14              	.Ltext0:
  15              		.cfi_sections	.debug_frame
  16              		.section	.text._ZN5daisy9DaisySeedD2Ev,"axG",%progbits,_ZN5daisy9DaisySeedD5Ev,comdat
  17              		.align	1
  18              		.p2align 2,,3
  19              		.weak	_ZN5daisy9DaisySeedD2Ev
  20              		.arch armv7e-m
  21              		.syntax unified
  22              		.thumb
  23              		.thumb_func
  24              		.fpu fpv5-d16
  26              	_ZN5daisy9DaisySeedD2Ev:
  27              	.LVL0:
  28              	.LFB2557:
  29              		.file 1 "../../libDaisy//src/daisy_seed.h"
   1:../../libDaisy//src/daisy_seed.h **** #pragma once
   2:../../libDaisy//src/daisy_seed.h **** #ifndef DSY_SEED_H
   3:../../libDaisy//src/daisy_seed.h **** #define DSY_SEED_H
   4:../../libDaisy//src/daisy_seed.h **** 
   5:../../libDaisy//src/daisy_seed.h **** #include "daisy.h"
   6:../../libDaisy//src/daisy_seed.h **** 
   7:../../libDaisy//src/daisy_seed.h **** //Uncomment this out if you're still using the rev2 hardware
   8:../../libDaisy//src/daisy_seed.h **** //#define SEED_REV2
   9:../../libDaisy//src/daisy_seed.h **** 
  10:../../libDaisy//src/daisy_seed.h **** namespace daisy
  11:../../libDaisy//src/daisy_seed.h **** {
  12:../../libDaisy//src/daisy_seed.h **** /**
  13:../../libDaisy//src/daisy_seed.h ****    @brief This is the higher-level interface for the Daisy board. \n 
  14:../../libDaisy//src/daisy_seed.h ****     All basic peripheral configuration/initialization is setup here. \n
  15:../../libDaisy//src/daisy_seed.h **** 
  16:../../libDaisy//src/daisy_seed.h ****    @ingroup boards
  17:../../libDaisy//src/daisy_seed.h **** */
  18:../../libDaisy//src/daisy_seed.h **** class DaisySeed
  19:../../libDaisy//src/daisy_seed.h **** {
  20:../../libDaisy//src/daisy_seed.h ****   public:
  21:../../libDaisy//src/daisy_seed.h ****     DaisySeed() {}
  22:../../libDaisy//src/daisy_seed.h ****     ~DaisySeed() {}
  30              		.loc 1 22 5 view -0
  31              		.cfi_startproc
  32              		@ args = 0, pretend = 0, frame = 0
  33              		@ frame_needed = 0, uses_anonymous_args = 0
  34              		@ link register save eliminated.
  35              	.LBB152:
  36              	.LBI152:
ARM GAS  C:\Users\matte\AppData\Local\Temp\ccayzbuB.s 			page 2


  37              		.file 2 "../../libDaisy//src/sys/system.h"
   1:../../libDaisy//src/sys/system.h **** #ifndef DSY_SYSTEM_H
   2:../../libDaisy//src/sys/system.h **** #define DSY_SYSTEM_H
   3:../../libDaisy//src/sys/system.h **** 
   4:../../libDaisy//src/sys/system.h **** #ifndef UNIT_TEST // for unit tests, a dummy implementation is provided below
   5:../../libDaisy//src/sys/system.h **** 
   6:../../libDaisy//src/sys/system.h **** #include <cstdint>
   7:../../libDaisy//src/sys/system.h **** #include "per/tim.h"
   8:../../libDaisy//src/sys/system.h **** 
   9:../../libDaisy//src/sys/system.h **** namespace daisy
  10:../../libDaisy//src/sys/system.h **** {
  11:../../libDaisy//src/sys/system.h **** /** A handle for interacting with the Core System.
  12:../../libDaisy//src/sys/system.h ****  ** This includes the Clock tree, MPU, global DMA initialization,
  13:../../libDaisy//src/sys/system.h ****  ** cache handling, and any other necessary global initiailzation
  14:../../libDaisy//src/sys/system.h ****  **
  15:../../libDaisy//src/sys/system.h ****  ** @author shensley
  16:../../libDaisy//src/sys/system.h ****  ** @ingroup system
  17:../../libDaisy//src/sys/system.h ****  */
  18:../../libDaisy//src/sys/system.h **** class System
  19:../../libDaisy//src/sys/system.h **** {
  20:../../libDaisy//src/sys/system.h ****   public:
  21:../../libDaisy//src/sys/system.h ****     /** Contains settings for initializing the System */
  22:../../libDaisy//src/sys/system.h ****     struct Config
  23:../../libDaisy//src/sys/system.h ****     {
  24:../../libDaisy//src/sys/system.h ****         /** Specifies the system clock frequency that feeds APB/AHB clocks, etc. */
  25:../../libDaisy//src/sys/system.h ****         enum class SysClkFreq
  26:../../libDaisy//src/sys/system.h ****         {
  27:../../libDaisy//src/sys/system.h ****             FREQ_400MHZ,
  28:../../libDaisy//src/sys/system.h ****             FREQ_480MHZ,
  29:../../libDaisy//src/sys/system.h ****         };
  30:../../libDaisy//src/sys/system.h **** 
  31:../../libDaisy//src/sys/system.h ****         /** Method to call on the struct to set to defaults
  32:../../libDaisy//src/sys/system.h ****          ** CPU Freq set to 400MHz
  33:../../libDaisy//src/sys/system.h ****          ** Cache Enabled
  34:../../libDaisy//src/sys/system.h ****          ** */
  35:../../libDaisy//src/sys/system.h ****         void Defaults()
  36:../../libDaisy//src/sys/system.h ****         {
  37:../../libDaisy//src/sys/system.h ****             cpu_freq    = SysClkFreq::FREQ_400MHZ;
  38:../../libDaisy//src/sys/system.h ****             use_dcache  = true;
  39:../../libDaisy//src/sys/system.h ****             use_icache  = true;
  40:../../libDaisy//src/sys/system.h ****             skip_clocks = false;
  41:../../libDaisy//src/sys/system.h ****         }
  42:../../libDaisy//src/sys/system.h **** 
  43:../../libDaisy//src/sys/system.h ****         /** Method to call on the struct to set to boost mode:
  44:../../libDaisy//src/sys/system.h ****          ** CPU Freq set to 480MHz
  45:../../libDaisy//src/sys/system.h ****          ** Cache Enabled
  46:../../libDaisy//src/sys/system.h ****          ** */
  47:../../libDaisy//src/sys/system.h ****         void Boost()
  48:../../libDaisy//src/sys/system.h ****         {
  49:../../libDaisy//src/sys/system.h ****             cpu_freq    = SysClkFreq::FREQ_480MHZ;
  50:../../libDaisy//src/sys/system.h ****             use_dcache  = true;
  51:../../libDaisy//src/sys/system.h ****             use_icache  = true;
  52:../../libDaisy//src/sys/system.h ****             skip_clocks = false;
  53:../../libDaisy//src/sys/system.h ****         }
  54:../../libDaisy//src/sys/system.h **** 
  55:../../libDaisy//src/sys/system.h ****         SysClkFreq cpu_freq;
  56:../../libDaisy//src/sys/system.h ****         bool       use_dcache;
ARM GAS  C:\Users\matte\AppData\Local\Temp\ccayzbuB.s 			page 3


  57:../../libDaisy//src/sys/system.h ****         bool       use_icache;
  58:../../libDaisy//src/sys/system.h ****         bool       skip_clocks;
  59:../../libDaisy//src/sys/system.h ****     };
  60:../../libDaisy//src/sys/system.h **** 
  61:../../libDaisy//src/sys/system.h ****     /** Describes the different regions of memory available to the Daisy */
  62:../../libDaisy//src/sys/system.h ****     enum MemoryRegion
  63:../../libDaisy//src/sys/system.h ****     {
  64:../../libDaisy//src/sys/system.h ****         INTERNAL_FLASH = 0,
  65:../../libDaisy//src/sys/system.h ****         ITCMRAM,
  66:../../libDaisy//src/sys/system.h ****         DTCMRAM,
  67:../../libDaisy//src/sys/system.h ****         SRAM_D1,
  68:../../libDaisy//src/sys/system.h ****         SRAM_D2,
  69:../../libDaisy//src/sys/system.h ****         SRAM_D3,
  70:../../libDaisy//src/sys/system.h ****         SDRAM,
  71:../../libDaisy//src/sys/system.h ****         QSPI,
  72:../../libDaisy//src/sys/system.h ****         INVALID_ADDRESS,
  73:../../libDaisy//src/sys/system.h ****     };
  74:../../libDaisy//src/sys/system.h **** 
  75:../../libDaisy//src/sys/system.h ****     /** Bootloader struct for controlling bootloading parameters */
  76:../../libDaisy//src/sys/system.h ****     struct BootInfo
  77:../../libDaisy//src/sys/system.h ****     {
  78:../../libDaisy//src/sys/system.h ****         enum class Type : uint32_t
  79:../../libDaisy//src/sys/system.h ****         {
  80:../../libDaisy//src/sys/system.h ****             INVALID      = 0x00000000,
  81:../../libDaisy//src/sys/system.h ****             JUMP         = 0xDEADBEEF,
  82:../../libDaisy//src/sys/system.h ****             SKIP_TIMEOUT = 0x5AFEB007,
  83:../../libDaisy//src/sys/system.h ****             INF_TIMEOUT  = 0xB0074EFA,
  84:../../libDaisy//src/sys/system.h ****         } status;
  85:../../libDaisy//src/sys/system.h ****         uint32_t data;
  86:../../libDaisy//src/sys/system.h ****         enum class Version : uint32_t
  87:../../libDaisy//src/sys/system.h ****         {
  88:../../libDaisy//src/sys/system.h ****             LT_v6_0 = 0, // Less than v6.0
  89:../../libDaisy//src/sys/system.h ****             NONE,        // No bootloader present
  90:../../libDaisy//src/sys/system.h ****             v6_0,        // v6.0
  91:../../libDaisy//src/sys/system.h ****             v6_1,        // v6.1 or greater
  92:../../libDaisy//src/sys/system.h ****             LAST
  93:../../libDaisy//src/sys/system.h ****         } version;
  94:../../libDaisy//src/sys/system.h ****     };
  95:../../libDaisy//src/sys/system.h **** 
  96:../../libDaisy//src/sys/system.h ****     System() {}
  97:../../libDaisy//src/sys/system.h ****     ~System() {}
  38              		.loc 2 97 5 view .LVU1
  39              		.loc 2 97 5 is_stmt 0 view .LVU2
  40              	.LBE152:
  41              	.LBB153:
  42              	.LBI153:
  43              		.file 3 "../../libDaisy//src/hid/usb.h"
   1:../../libDaisy//src/hid/usb.h **** #pragma once
   2:../../libDaisy//src/hid/usb.h **** #ifndef DSY_HID_USB_H
   3:../../libDaisy//src/hid/usb.h **** #define DSY_HID_USB_H
   4:../../libDaisy//src/hid/usb.h **** #include <stdint.h>
   5:../../libDaisy//src/hid/usb.h **** #include <stdlib.h>
   6:../../libDaisy//src/hid/usb.h **** 
   7:../../libDaisy//src/hid/usb.h **** namespace daisy
   8:../../libDaisy//src/hid/usb.h **** /** @addtogroup human_interface
   9:../../libDaisy//src/hid/usb.h ****     @{
  10:../../libDaisy//src/hid/usb.h **** */
ARM GAS  C:\Users\matte\AppData\Local\Temp\ccayzbuB.s 			page 4


  11:../../libDaisy//src/hid/usb.h **** 
  12:../../libDaisy//src/hid/usb.h **** {
  13:../../libDaisy//src/hid/usb.h **** /** 
  14:../../libDaisy//src/hid/usb.h ****     @brief Interface for initializing and using the USB Peripherals on the daisy
  15:../../libDaisy//src/hid/usb.h ****     @author Stephen Hensley
  16:../../libDaisy//src/hid/usb.h ****     @date December 2019
  17:../../libDaisy//src/hid/usb.h **** */
  18:../../libDaisy//src/hid/usb.h **** class UsbHandle
  19:../../libDaisy//src/hid/usb.h **** {
  20:../../libDaisy//src/hid/usb.h ****   public:
  21:../../libDaisy//src/hid/usb.h ****     /** Return values for USBHandle Functions */
  22:../../libDaisy//src/hid/usb.h ****     enum class Result
  23:../../libDaisy//src/hid/usb.h ****     {
  24:../../libDaisy//src/hid/usb.h ****         OK,
  25:../../libDaisy//src/hid/usb.h ****         ERR,
  26:../../libDaisy//src/hid/usb.h ****     };
  27:../../libDaisy//src/hid/usb.h **** 
  28:../../libDaisy//src/hid/usb.h ****     /** Specified which of the two USB Peripherals to initialize. */
  29:../../libDaisy//src/hid/usb.h ****     enum UsbPeriph
  30:../../libDaisy//src/hid/usb.h ****     {
  31:../../libDaisy//src/hid/usb.h ****         FS_INTERNAL, /**< Internal pin */
  32:../../libDaisy//src/hid/usb.h ****         FS_EXTERNAL, /**< FS External D+ pin is Pin 38 (GPIO32). FS External D- pin is Pin 37 (GPIO
  33:../../libDaisy//src/hid/usb.h ****         FS_BOTH,     /**< Both */
  34:../../libDaisy//src/hid/usb.h ****     };
  35:../../libDaisy//src/hid/usb.h **** 
  36:../../libDaisy//src/hid/usb.h **** 
  37:../../libDaisy//src/hid/usb.h ****     /** Function called upon reception of a buffer */
  38:../../libDaisy//src/hid/usb.h ****     typedef void (*ReceiveCallback)(uint8_t* buff, uint32_t* len);
  39:../../libDaisy//src/hid/usb.h **** 
  40:../../libDaisy//src/hid/usb.h ****     UsbHandle() {}
  41:../../libDaisy//src/hid/usb.h **** 
  42:../../libDaisy//src/hid/usb.h ****     ~UsbHandle() {}
  44              		.loc 3 42 5 is_stmt 1 view .LVU3
  45              		.loc 3 42 5 is_stmt 0 view .LVU4
  46              	.LBE153:
  47              	.LBB154:
  48              	.LBI154:
  49              		.file 4 "../../libDaisy//src/per/adc.h"
   1:../../libDaisy//src/per/adc.h **** #pragma once
   2:../../libDaisy//src/per/adc.h **** #ifndef DSY_ADC_H
   3:../../libDaisy//src/per/adc.h **** #define DSY_ADC_H /**< Macro */
   4:../../libDaisy//src/per/adc.h **** #include <stdint.h>
   5:../../libDaisy//src/per/adc.h **** #include <stdlib.h>
   6:../../libDaisy//src/per/adc.h **** #include "daisy_core.h"
   7:../../libDaisy//src/per/adc.h **** #include "per/gpio.h"
   8:../../libDaisy//src/per/adc.h **** 
   9:../../libDaisy//src/per/adc.h **** #define DSY_ADC_MAX_CHANNELS 16 /**< Maximum number of ADC channels */
  10:../../libDaisy//src/per/adc.h **** 
  11:../../libDaisy//src/per/adc.h **** namespace daisy
  12:../../libDaisy//src/per/adc.h **** {
  13:../../libDaisy//src/per/adc.h **** /** @addtogroup per_analog
  14:../../libDaisy//src/per/adc.h ****     @{
  15:../../libDaisy//src/per/adc.h **** */
  16:../../libDaisy//src/per/adc.h **** 
  17:../../libDaisy//src/per/adc.h **** /* While there may not be many configuration options here,
  18:../../libDaisy//src/per/adc.h **** using a struct like this allows us to add more configuration
  19:../../libDaisy//src/per/adc.h **** later without breaking existing functionality.
ARM GAS  C:\Users\matte\AppData\Local\Temp\ccayzbuB.s 			page 5


  20:../../libDaisy//src/per/adc.h **** */
  21:../../libDaisy//src/per/adc.h **** 
  22:../../libDaisy//src/per/adc.h **** /** @brief   Configuration Structure for an ADC Channel 
  23:../../libDaisy//src/per/adc.h ****  *  @details This can be used to configure a a single input, 
  24:../../libDaisy//src/per/adc.h ****  *           or a multiplexed input, allowing up to 8 inputs on 
  25:../../libDaisy//src/per/adc.h ****  *           one channel.
  26:../../libDaisy//src/per/adc.h ****  *  @note    Sharing data lines to multiple muxes _is_ possible, but
  27:../../libDaisy//src/per/adc.h ****  *           each channel sharing data lines must be set to the maximum
  28:../../libDaisy//src/per/adc.h ****  *           number of channels, even if some multiplexers have fewer
  29:../../libDaisy//src/per/adc.h ****  *           inputs connected.
  30:../../libDaisy//src/per/adc.h **** */
  31:../../libDaisy//src/per/adc.h **** struct AdcChannelConfig
  32:../../libDaisy//src/per/adc.h **** {
  33:../../libDaisy//src/per/adc.h ****     /** Which pin to use for multiplexing */
  34:../../libDaisy//src/per/adc.h ****     enum MuxPin
  35:../../libDaisy//src/per/adc.h ****     {
  36:../../libDaisy//src/per/adc.h ****         MUX_SEL_0,    /**< & */
  37:../../libDaisy//src/per/adc.h ****         MUX_SEL_1,    /**< & */
  38:../../libDaisy//src/per/adc.h ****         MUX_SEL_2,    /**< & */
  39:../../libDaisy//src/per/adc.h ****         MUX_SEL_LAST, /**< & */
  40:../../libDaisy//src/per/adc.h ****     };
  41:../../libDaisy//src/per/adc.h **** 
  42:../../libDaisy//src/per/adc.h ****     /** \brief per channel conversion speed added to fixed time based on bitdepth, etc. */
  43:../../libDaisy//src/per/adc.h ****     enum ConversionSpeed
  44:../../libDaisy//src/per/adc.h ****     {
  45:../../libDaisy//src/per/adc.h ****         SPEED_1CYCLES_5,
  46:../../libDaisy//src/per/adc.h ****         SPEED_2CYCLES_5,
  47:../../libDaisy//src/per/adc.h ****         SPEED_8CYCLES_5,
  48:../../libDaisy//src/per/adc.h ****         SPEED_16CYCLES_5,
  49:../../libDaisy//src/per/adc.h ****         SPEED_32CYCLES_5,
  50:../../libDaisy//src/per/adc.h ****         SPEED_64CYCLES_5,
  51:../../libDaisy//src/per/adc.h ****         SPEED_387CYCLES_5,
  52:../../libDaisy//src/per/adc.h ****         SPEED_810CYCLES_5,
  53:../../libDaisy//src/per/adc.h ****     };
  54:../../libDaisy//src/per/adc.h **** 
  55:../../libDaisy//src/per/adc.h ****     /** Initializes a single ADC pin as an ADC. 
  56:../../libDaisy//src/per/adc.h ****     \param pin Pin to init.
  57:../../libDaisy//src/per/adc.h ****     \param speed conversion speed for this pin defaults to 8.5 cycles
  58:../../libDaisy//src/per/adc.h ****      */
  59:../../libDaisy//src/per/adc.h ****     void InitSingle(dsy_gpio_pin pin, ConversionSpeed speed = SPEED_8CYCLES_5);
  60:../../libDaisy//src/per/adc.h **** 
  61:../../libDaisy//src/per/adc.h ****     /** 
  62:../../libDaisy//src/per/adc.h ****     Initializes a single ADC pin as a Multiplexed ADC.
  63:../../libDaisy//src/per/adc.h ****     Requires a CD405X Multiplexer connected to the pin.
  64:../../libDaisy//src/per/adc.h ****     You only need to supply the mux pins that are required,
  65:../../libDaisy//src/per/adc.h ****     e.g. a 4052 mux would only require mux_0 and mux_1.
  66:../../libDaisy//src/per/adc.h ****     Internal Callbacks handle the pin addressing.
  67:../../libDaisy//src/per/adc.h ****     \param adc_pin &
  68:../../libDaisy//src/per/adc.h ****     \param mux_channels must be 1-8
  69:../../libDaisy//src/per/adc.h ****     \param mux_0 First mux pin
  70:../../libDaisy//src/per/adc.h ****     \param mux_1 Second mux pin
  71:../../libDaisy//src/per/adc.h ****     \param mux_2 Third mux pin
  72:../../libDaisy//src/per/adc.h ****     \param speed conversion speed for this pin defaults to 8.5 cycles
  73:../../libDaisy//src/per/adc.h ****     */
  74:../../libDaisy//src/per/adc.h ****     void InitMux(dsy_gpio_pin    adc_pin,
  75:../../libDaisy//src/per/adc.h ****                  size_t          mux_channels,
  76:../../libDaisy//src/per/adc.h ****                  dsy_gpio_pin    mux_0,
ARM GAS  C:\Users\matte\AppData\Local\Temp\ccayzbuB.s 			page 6


  77:../../libDaisy//src/per/adc.h ****                  dsy_gpio_pin    mux_1 = {DSY_GPIOX, 0},
  78:../../libDaisy//src/per/adc.h ****                  dsy_gpio_pin    mux_2 = {DSY_GPIOX, 0},
  79:../../libDaisy//src/per/adc.h ****                  ConversionSpeed speed = SPEED_8CYCLES_5);
  80:../../libDaisy//src/per/adc.h **** 
  81:../../libDaisy//src/per/adc.h ****     dsy_gpio        pin_;                   /**< & */
  82:../../libDaisy//src/per/adc.h ****     dsy_gpio        mux_pin_[MUX_SEL_LAST]; /**< & */
  83:../../libDaisy//src/per/adc.h ****     uint8_t         mux_channels_;          /**< & */
  84:../../libDaisy//src/per/adc.h ****     ConversionSpeed speed_;
  85:../../libDaisy//src/per/adc.h **** };
  86:../../libDaisy//src/per/adc.h **** 
  87:../../libDaisy//src/per/adc.h **** /**
  88:../../libDaisy//src/per/adc.h ****    @brief Handler for analog to digital conversion
  89:../../libDaisy//src/per/adc.h **** */
  90:../../libDaisy//src/per/adc.h **** class AdcHandle
  91:../../libDaisy//src/per/adc.h **** {
  92:../../libDaisy//src/per/adc.h ****   public:
  93:../../libDaisy//src/per/adc.h ****     /** Supported oversampling amounts */
  94:../../libDaisy//src/per/adc.h ****     enum OverSampling
  95:../../libDaisy//src/per/adc.h ****     {
  96:../../libDaisy//src/per/adc.h ****         OVS_NONE, /**< & */
  97:../../libDaisy//src/per/adc.h ****         OVS_4,    /**< & */
  98:../../libDaisy//src/per/adc.h ****         OVS_8,    /**< & */
  99:../../libDaisy//src/per/adc.h ****         OVS_16,   /**< & */
 100:../../libDaisy//src/per/adc.h ****         OVS_32,   /**< & */
 101:../../libDaisy//src/per/adc.h ****         OVS_64,   /**< & */
 102:../../libDaisy//src/per/adc.h ****         OVS_128,  /**< & */
 103:../../libDaisy//src/per/adc.h ****         OVS_256,  /**< & */
 104:../../libDaisy//src/per/adc.h ****         OVS_512,  /**< & */
 105:../../libDaisy//src/per/adc.h ****         OVS_1024, /**< & */
 106:../../libDaisy//src/per/adc.h ****         OVS_LAST, /**< & */
 107:../../libDaisy//src/per/adc.h ****     };
 108:../../libDaisy//src/per/adc.h **** 
 109:../../libDaisy//src/per/adc.h ****     AdcHandle() {}
 110:../../libDaisy//src/per/adc.h ****     ~AdcHandle() {}
  50              		.loc 4 110 5 is_stmt 1 view .LVU5
  51              		.loc 4 110 5 is_stmt 0 view .LVU6
  52              	.LBE154:
  53              	.LBB155:
  54              	.LBI155:
  55              		.file 5 "../../libDaisy//src/hid/audio.h"
   1:../../libDaisy//src/hid/audio.h **** #ifndef DSY_AUDIO_H
   2:../../libDaisy//src/hid/audio.h **** #define DSY_AUDIO_H /**< & */
   3:../../libDaisy//src/hid/audio.h **** 
   4:../../libDaisy//src/hid/audio.h **** #include "per/sai.h"
   5:../../libDaisy//src/hid/audio.h **** 
   6:../../libDaisy//src/hid/audio.h **** namespace daisy
   7:../../libDaisy//src/hid/audio.h **** {
   8:../../libDaisy//src/hid/audio.h **** /** @brief Audio Engine Handle
   9:../../libDaisy//src/hid/audio.h ****  *  @ingroup audio 
  10:../../libDaisy//src/hid/audio.h ****  *  @details This class allows for higher level access to an audio engine.
  11:../../libDaisy//src/hid/audio.h ****  *           If you're using a SOM like the DaisySeed or DaisyPatchSM (or any 
  12:../../libDaisy//src/hid/audio.h ****  *            board that includes one of those objects) then the intialization
  13:../../libDaisy//src/hid/audio.h ****  *            is already taken  care of.
  14:../../libDaisy//src/hid/audio.h ****  *           If you're setting up your own custom hardware, or need to make changes
  15:../../libDaisy//src/hid/audio.h ****  *           you will have to take the following steps:
  16:../../libDaisy//src/hid/audio.h ****  *             1. Create and Initialize an SaiHandle or two depending on your requirements
  17:../../libDaisy//src/hid/audio.h ****  *             2. Initialize the Audio Handle with the desired settings and the Initialized SaiHand
ARM GAS  C:\Users\matte\AppData\Local\Temp\ccayzbuB.s 			page 7


  18:../../libDaisy//src/hid/audio.h ****  *             3. If the connected codec requires special configuration or initialization, do so
  19:../../libDaisy//src/hid/audio.h ****  *             4. Write a callback method using either the AudioCallback or the InterleavingAudioCa
  20:../../libDaisy//src/hid/audio.h ****  *             5. Start the Audio using one of the StartAudio function
  21:../../libDaisy//src/hid/audio.h ****  */
  22:../../libDaisy//src/hid/audio.h **** class AudioHandle
  23:../../libDaisy//src/hid/audio.h **** {
  24:../../libDaisy//src/hid/audio.h ****   public:
  25:../../libDaisy//src/hid/audio.h ****     /** Manually configurable details about the Audio Engine */
  26:../../libDaisy//src/hid/audio.h ****     /** TODO: Figure out how to get samplerate in here. */
  27:../../libDaisy//src/hid/audio.h ****     struct Config
  28:../../libDaisy//src/hid/audio.h ****     {
  29:../../libDaisy//src/hid/audio.h ****         /** number of samples to process per callback */
  30:../../libDaisy//src/hid/audio.h ****         size_t blocksize;
  31:../../libDaisy//src/hid/audio.h **** 
  32:../../libDaisy//src/hid/audio.h ****         /**< Sample rate of audio */
  33:../../libDaisy//src/hid/audio.h ****         SaiHandle::Config::SampleRate samplerate;
  34:../../libDaisy//src/hid/audio.h **** 
  35:../../libDaisy//src/hid/audio.h ****         /** factor for adjustment before and after callback for hardware that may have extra headro
  36:../../libDaisy//src/hid/audio.h ****         float postgain;
  37:../../libDaisy//src/hid/audio.h **** 
  38:../../libDaisy//src/hid/audio.h ****         /** factor for additional one-sided compensation to audio path for hardware that may
  39:../../libDaisy//src/hid/audio.h ****          *  have unequal input/output ranges
  40:../../libDaisy//src/hid/audio.h ****          */
  41:../../libDaisy//src/hid/audio.h ****         float output_compensation;
  42:../../libDaisy//src/hid/audio.h **** 
  43:../../libDaisy//src/hid/audio.h ****         /** Sets default values for config struct */
  44:../../libDaisy//src/hid/audio.h ****         Config()
  45:../../libDaisy//src/hid/audio.h ****         : blocksize(48),
  46:../../libDaisy//src/hid/audio.h ****           samplerate(SaiHandle::Config::SampleRate::SAI_48KHZ),
  47:../../libDaisy//src/hid/audio.h ****           postgain(1.f),
  48:../../libDaisy//src/hid/audio.h ****           output_compensation(1.f)
  49:../../libDaisy//src/hid/audio.h ****         {
  50:../../libDaisy//src/hid/audio.h ****         }
  51:../../libDaisy//src/hid/audio.h ****     };
  52:../../libDaisy//src/hid/audio.h **** 
  53:../../libDaisy//src/hid/audio.h ****     enum class Result
  54:../../libDaisy//src/hid/audio.h ****     {
  55:../../libDaisy//src/hid/audio.h ****         OK,
  56:../../libDaisy//src/hid/audio.h ****         ERR,
  57:../../libDaisy//src/hid/audio.h ****     };
  58:../../libDaisy//src/hid/audio.h **** 
  59:../../libDaisy//src/hid/audio.h ****     /** Non-Interleaving input buffer
  60:../../libDaisy//src/hid/audio.h ****      * Buffer arranged by float[chn][sample] 
  61:../../libDaisy//src/hid/audio.h ****      * const so that the user can't modify the input
  62:../../libDaisy//src/hid/audio.h ****      */
  63:../../libDaisy//src/hid/audio.h ****     typedef const float* const* InputBuffer;
  64:../../libDaisy//src/hid/audio.h **** 
  65:../../libDaisy//src/hid/audio.h ****     /** Non-Interleaving output buffer
  66:../../libDaisy//src/hid/audio.h ****      * Arranged by float[chn][sample] 
  67:../../libDaisy//src/hid/audio.h ****      */
  68:../../libDaisy//src/hid/audio.h ****     typedef float** OutputBuffer;
  69:../../libDaisy//src/hid/audio.h **** 
  70:../../libDaisy//src/hid/audio.h ****     /** Type for a Non-Interleaving audio callback 
  71:../../libDaisy//src/hid/audio.h ****      * Non-Interleaving audio callbacks in daisy will be of this type
  72:../../libDaisy//src/hid/audio.h ****      */
  73:../../libDaisy//src/hid/audio.h ****     typedef void (*AudioCallback)(InputBuffer  in,
  74:../../libDaisy//src/hid/audio.h ****                                   OutputBuffer out,
ARM GAS  C:\Users\matte\AppData\Local\Temp\ccayzbuB.s 			page 8


  75:../../libDaisy//src/hid/audio.h ****                                   size_t       size);
  76:../../libDaisy//src/hid/audio.h **** 
  77:../../libDaisy//src/hid/audio.h ****     /** Interleaving Input buffer
  78:../../libDaisy//src/hid/audio.h ****      ** audio is prepared as { L0, R0, L1, R1, . . . LN, RN }]
  79:../../libDaisy//src/hid/audio.h ****      ** this is const, as the user shouldn't modify it
  80:../../libDaisy//src/hid/audio.h ****     */
  81:../../libDaisy//src/hid/audio.h ****     typedef const float* InterleavingInputBuffer;
  82:../../libDaisy//src/hid/audio.h **** 
  83:../../libDaisy//src/hid/audio.h ****     /** Interleaving Output buffer 
  84:../../libDaisy//src/hid/audio.h ****      ** audio is prepared as { L0, R0, L1, R1, . . . LN, RN }
  85:../../libDaisy//src/hid/audio.h ****     */
  86:../../libDaisy//src/hid/audio.h ****     typedef float* InterleavingOutputBuffer;
  87:../../libDaisy//src/hid/audio.h **** 
  88:../../libDaisy//src/hid/audio.h ****     /** Interleaving Audio Callback 
  89:../../libDaisy//src/hid/audio.h ****      * Interleaving audio callbacks in daisy must be of this type
  90:../../libDaisy//src/hid/audio.h ****      */
  91:../../libDaisy//src/hid/audio.h ****     typedef void (*InterleavingAudioCallback)(InterleavingInputBuffer  in,
  92:../../libDaisy//src/hid/audio.h ****                                               InterleavingOutputBuffer out,
  93:../../libDaisy//src/hid/audio.h ****                                               size_t                   size);
  94:../../libDaisy//src/hid/audio.h **** 
  95:../../libDaisy//src/hid/audio.h ****     AudioHandle() : pimpl_(nullptr) {}
  96:../../libDaisy//src/hid/audio.h ****     ~AudioHandle() {}
  56              		.loc 5 96 5 is_stmt 1 view .LVU7
  57              		.loc 5 96 5 is_stmt 0 view .LVU8
  58              	.LBE155:
  59              		.loc 1 22 19 view .LVU9
  60 0000 7047     		bx	lr
  61              		.cfi_endproc
  62              	.LFE2557:
  64              		.weak	_ZN5daisy9DaisySeedD1Ev
  65              		.thumb_set _ZN5daisy9DaisySeedD1Ev,_ZN5daisy9DaisySeedD2Ev
  66 0002 00BF     		.section	.text._ZN5daisy6Mpr121INS_18Mpr121I2CTransportEE13WriteRegisterEhh,"axG",%progbits,_ZN5da
  67              		.align	1
  68              		.p2align 2,,3
  69              		.weak	_ZN5daisy6Mpr121INS_18Mpr121I2CTransportEE13WriteRegisterEhh
  70              		.syntax unified
  71              		.thumb
  72              		.thumb_func
  73              		.fpu fpv5-d16
  75              	_ZN5daisy6Mpr121INS_18Mpr121I2CTransportEE13WriteRegisterEhh:
  76              	.LVL1:
  77              	.LFB5121:
  78              		.file 6 "../../libDaisy//src/dev/mpr121.h"
   1:../../libDaisy//src/dev/mpr121.h **** #pragma once
   2:../../libDaisy//src/dev/mpr121.h **** #ifndef DSY_MPR121_H
   3:../../libDaisy//src/dev/mpr121.h **** #define DSY_MPR121_H
   4:../../libDaisy//src/dev/mpr121.h **** 
   5:../../libDaisy//src/dev/mpr121.h **** // The default I2C address
   6:../../libDaisy//src/dev/mpr121.h **** #define MPR121_I2CADDR_DEFAULT 0x5A        ///< default I2C address
   7:../../libDaisy//src/dev/mpr121.h **** #define MPR121_TOUCH_THRESHOLD_DEFAULT 12  ///< default touch threshold value
   8:../../libDaisy//src/dev/mpr121.h **** #define MPR121_RELEASE_THRESHOLD_DEFAULT 6 ///< default relese threshold value
   9:../../libDaisy//src/dev/mpr121.h **** 
  10:../../libDaisy//src/dev/mpr121.h **** namespace daisy
  11:../../libDaisy//src/dev/mpr121.h **** {
  12:../../libDaisy//src/dev/mpr121.h **** /** @addtogroup external 
  13:../../libDaisy//src/dev/mpr121.h ****     @{ 
  14:../../libDaisy//src/dev/mpr121.h **** */
ARM GAS  C:\Users\matte\AppData\Local\Temp\ccayzbuB.s 			page 9


  15:../../libDaisy//src/dev/mpr121.h **** 
  16:../../libDaisy//src/dev/mpr121.h **** /** I2C Transport for MPR121 */
  17:../../libDaisy//src/dev/mpr121.h **** class Mpr121I2CTransport
  18:../../libDaisy//src/dev/mpr121.h **** {
  19:../../libDaisy//src/dev/mpr121.h ****   public:
  20:../../libDaisy//src/dev/mpr121.h ****     Mpr121I2CTransport() {}
  21:../../libDaisy//src/dev/mpr121.h ****     ~Mpr121I2CTransport() {}
  22:../../libDaisy//src/dev/mpr121.h **** 
  23:../../libDaisy//src/dev/mpr121.h ****     struct Config
  24:../../libDaisy//src/dev/mpr121.h ****     {
  25:../../libDaisy//src/dev/mpr121.h ****         I2CHandle::Config::Peripheral periph;
  26:../../libDaisy//src/dev/mpr121.h ****         I2CHandle::Config::Speed      speed;
  27:../../libDaisy//src/dev/mpr121.h ****         //Pin                           scl;
  28:../../libDaisy//src/dev/mpr121.h ****         //Pin                           sda;
  29:../../libDaisy//src/dev/mpr121.h ****         dsy_gpio_pin                    scl;
  30:../../libDaisy//src/dev/mpr121.h ****         dsy_gpio_pin                    sda; 
  31:../../libDaisy//src/dev/mpr121.h ****         I2CHandle::Config::Mode mode;
  32:../../libDaisy//src/dev/mpr121.h **** 
  33:../../libDaisy//src/dev/mpr121.h ****         uint8_t dev_addr;
  34:../../libDaisy//src/dev/mpr121.h **** 
  35:../../libDaisy//src/dev/mpr121.h ****         Config()
  36:../../libDaisy//src/dev/mpr121.h ****         {
  37:../../libDaisy//src/dev/mpr121.h ****             periph = I2CHandle::Config::Peripheral::I2C_1;
  38:../../libDaisy//src/dev/mpr121.h ****             speed  = I2CHandle::Config::Speed::I2C_400KHZ;
  39:../../libDaisy//src/dev/mpr121.h **** 
  40:../../libDaisy//src/dev/mpr121.h ****            // changed scl and sda to dsy_gpio_pin
  41:../../libDaisy//src/dev/mpr121.h ****             scl = {DSY_GPIOB, 8};
  42:../../libDaisy//src/dev/mpr121.h ****             sda = {DSY_GPIOB, 9};
  43:../../libDaisy//src/dev/mpr121.h **** 
  44:../../libDaisy//src/dev/mpr121.h ****            // trying to change pin definition
  45:../../libDaisy//src/dev/mpr121.h **** 
  46:../../libDaisy//src/dev/mpr121.h ****             dev_addr = MPR121_I2CADDR_DEFAULT;
  47:../../libDaisy//src/dev/mpr121.h ****         }
  48:../../libDaisy//src/dev/mpr121.h ****     };
  49:../../libDaisy//src/dev/mpr121.h **** 
  50:../../libDaisy//src/dev/mpr121.h ****     /** \return Did the transaction error? i.e. Return true if error, false if ok */
  51:../../libDaisy//src/dev/mpr121.h ****     inline bool Init(Config config)
  52:../../libDaisy//src/dev/mpr121.h ****     {
  53:../../libDaisy//src/dev/mpr121.h ****         config_ = config;
  54:../../libDaisy//src/dev/mpr121.h **** 
  55:../../libDaisy//src/dev/mpr121.h ****         I2CHandle::Config i2c_conf;
  56:../../libDaisy//src/dev/mpr121.h ****         i2c_conf.mode   = I2CHandle::Config::Mode::I2C_MASTER;
  57:../../libDaisy//src/dev/mpr121.h ****         i2c_conf.periph = config.periph;
  58:../../libDaisy//src/dev/mpr121.h ****         i2c_conf.speed  = config.speed;
  59:../../libDaisy//src/dev/mpr121.h **** 
  60:../../libDaisy//src/dev/mpr121.h ****         i2c_conf.pin_config.scl = config.scl;
  61:../../libDaisy//src/dev/mpr121.h ****         i2c_conf.pin_config.sda = config.sda;
  62:../../libDaisy//src/dev/mpr121.h ****         I2CHandle::Result res;
  63:../../libDaisy//src/dev/mpr121.h ****         res = i2c_.Init(i2c_conf);
  64:../../libDaisy//src/dev/mpr121.h ****         if (res == I2CHandle::Result::ERR)
  65:../../libDaisy//src/dev/mpr121.h ****             return true;
  66:../../libDaisy//src/dev/mpr121.h ****         else
  67:../../libDaisy//src/dev/mpr121.h ****             return false;
  68:../../libDaisy//src/dev/mpr121.h ****         // return I2CHandle::Result::OK != i2c_.Init(i2c_conf);
  69:../../libDaisy//src/dev/mpr121.h ****     }
  70:../../libDaisy//src/dev/mpr121.h **** 
  71:../../libDaisy//src/dev/mpr121.h ****     /** \return Did the transaction error? i.e. Return true if error, false if ok */
ARM GAS  C:\Users\matte\AppData\Local\Temp\ccayzbuB.s 			page 10


  72:../../libDaisy//src/dev/mpr121.h ****     bool Write(uint8_t *data, uint16_t size)
  73:../../libDaisy//src/dev/mpr121.h ****     {
  74:../../libDaisy//src/dev/mpr121.h ****         return I2CHandle::Result::OK
  75:../../libDaisy//src/dev/mpr121.h ****                != i2c_.TransmitBlocking(config_.dev_addr, data, size, 10);
  76:../../libDaisy//src/dev/mpr121.h ****     }
  77:../../libDaisy//src/dev/mpr121.h **** 
  78:../../libDaisy//src/dev/mpr121.h ****     /** \return Did the transaction error? i.e. Return true if error, false if ok */
  79:../../libDaisy//src/dev/mpr121.h ****     bool Read(uint8_t *data, uint16_t size)
  80:../../libDaisy//src/dev/mpr121.h ****     {
  81:../../libDaisy//src/dev/mpr121.h ****         return I2CHandle::Result::OK
  82:../../libDaisy//src/dev/mpr121.h ****                != i2c_.ReceiveBlocking(config_.dev_addr, data, size, 10);
  83:../../libDaisy//src/dev/mpr121.h ****     }
  84:../../libDaisy//src/dev/mpr121.h **** 
  85:../../libDaisy//src/dev/mpr121.h ****    
  86:../../libDaisy//src/dev/mpr121.h ****     void SetI2cHandle(I2CHandle passedI2c){
  87:../../libDaisy//src/dev/mpr121.h ****         i2c_ = passedI2c;        
  88:../../libDaisy//src/dev/mpr121.h ****     }
  89:../../libDaisy//src/dev/mpr121.h ****   private:
  90:../../libDaisy//src/dev/mpr121.h ****     I2CHandle i2c_;
  91:../../libDaisy//src/dev/mpr121.h ****     Config    config_;
  92:../../libDaisy//src/dev/mpr121.h **** };
  93:../../libDaisy//src/dev/mpr121.h **** 
  94:../../libDaisy//src/dev/mpr121.h **** 
  95:../../libDaisy//src/dev/mpr121.h **** /** @brief Device support for MPR121 12x Capacitive Touch Sensor
  96:../../libDaisy//src/dev/mpr121.h ****     @author beserge
  97:../../libDaisy//src/dev/mpr121.h ****     @date December 2021
  98:../../libDaisy//src/dev/mpr121.h **** */
  99:../../libDaisy//src/dev/mpr121.h **** template <typename Transport>
 100:../../libDaisy//src/dev/mpr121.h **** class Mpr121
 101:../../libDaisy//src/dev/mpr121.h **** {
 102:../../libDaisy//src/dev/mpr121.h ****   public:
 103:../../libDaisy//src/dev/mpr121.h ****     Mpr121() {}
 104:../../libDaisy//src/dev/mpr121.h ****     ~Mpr121() {}
 105:../../libDaisy//src/dev/mpr121.h **** 
 106:../../libDaisy//src/dev/mpr121.h ****     struct Config
 107:../../libDaisy//src/dev/mpr121.h ****     {
 108:../../libDaisy//src/dev/mpr121.h ****         typename Transport::Config transport_config;
 109:../../libDaisy//src/dev/mpr121.h ****         uint8_t                    touch_threshold;
 110:../../libDaisy//src/dev/mpr121.h ****         uint8_t                    release_threshold;
 111:../../libDaisy//src/dev/mpr121.h **** 
 112:../../libDaisy//src/dev/mpr121.h ****         Config()
 113:../../libDaisy//src/dev/mpr121.h ****         {
 114:../../libDaisy//src/dev/mpr121.h ****             touch_threshold   = MPR121_TOUCH_THRESHOLD_DEFAULT;
 115:../../libDaisy//src/dev/mpr121.h ****             release_threshold = MPR121_RELEASE_THRESHOLD_DEFAULT;
 116:../../libDaisy//src/dev/mpr121.h ****         }
 117:../../libDaisy//src/dev/mpr121.h ****     };
 118:../../libDaisy//src/dev/mpr121.h **** 
 119:../../libDaisy//src/dev/mpr121.h ****     enum Result
 120:../../libDaisy//src/dev/mpr121.h ****     {
 121:../../libDaisy//src/dev/mpr121.h ****         OK = 0,
 122:../../libDaisy//src/dev/mpr121.h ****         ERR
 123:../../libDaisy//src/dev/mpr121.h ****     };
 124:../../libDaisy//src/dev/mpr121.h **** 
 125:../../libDaisy//src/dev/mpr121.h ****     /** Initialize the MPR121 device
 126:../../libDaisy//src/dev/mpr121.h ****         \param config Configuration settings
 127:../../libDaisy//src/dev/mpr121.h ****     */
 128:../../libDaisy//src/dev/mpr121.h ****     Result Init(Config config)
ARM GAS  C:\Users\matte\AppData\Local\Temp\ccayzbuB.s 			page 11


 129:../../libDaisy//src/dev/mpr121.h ****     {
 130:../../libDaisy//src/dev/mpr121.h ****         config_ = config;
 131:../../libDaisy//src/dev/mpr121.h **** 
 132:../../libDaisy//src/dev/mpr121.h ****         SetTransportErr(transport_.Init(config_.transport_config));
 133:../../libDaisy//src/dev/mpr121.h **** 
 134:../../libDaisy//src/dev/mpr121.h ****         // soft reset
 135:../../libDaisy//src/dev/mpr121.h ****         WriteRegister(MPR121_SOFTRESET, 0x63);
 136:../../libDaisy//src/dev/mpr121.h ****         System::Delay(1);
 137:../../libDaisy//src/dev/mpr121.h **** 
 138:../../libDaisy//src/dev/mpr121.h ****         WriteRegister(MPR121_ECR, 0x0);
 139:../../libDaisy//src/dev/mpr121.h **** 
 140:../../libDaisy//src/dev/mpr121.h ****         // this doesn't work for some reason...
 141:../../libDaisy//src/dev/mpr121.h ****         // uint8_t c = ReadRegister8(MPR121_CONFIG2);
 142:../../libDaisy//src/dev/mpr121.h **** 
 143:../../libDaisy//src/dev/mpr121.h ****         // if(c != 0x24)
 144:../../libDaisy//src/dev/mpr121.h ****         //     return ERR;
 145:../../libDaisy//src/dev/mpr121.h **** 
 146:../../libDaisy//src/dev/mpr121.h ****         SetThresholds(config_.touch_threshold, config_.release_threshold);
 147:../../libDaisy//src/dev/mpr121.h ****         WriteRegister(MPR121_MHDR, 0x01);
 148:../../libDaisy//src/dev/mpr121.h ****         WriteRegister(MPR121_NHDR, 0x01);
 149:../../libDaisy//src/dev/mpr121.h ****         WriteRegister(MPR121_NCLR, 0x0E);
 150:../../libDaisy//src/dev/mpr121.h ****         WriteRegister(MPR121_FDLR, 0x00);
 151:../../libDaisy//src/dev/mpr121.h **** 
 152:../../libDaisy//src/dev/mpr121.h ****         WriteRegister(MPR121_MHDF, 0x01);
 153:../../libDaisy//src/dev/mpr121.h ****         WriteRegister(MPR121_NHDF, 0x05);
 154:../../libDaisy//src/dev/mpr121.h ****         WriteRegister(MPR121_NCLF, 0x01);
 155:../../libDaisy//src/dev/mpr121.h ****         WriteRegister(MPR121_FDLF, 0x00);
 156:../../libDaisy//src/dev/mpr121.h **** 
 157:../../libDaisy//src/dev/mpr121.h ****         WriteRegister(MPR121_NHDT, 0x00);
 158:../../libDaisy//src/dev/mpr121.h ****         WriteRegister(MPR121_NCLT, 0x00);
 159:../../libDaisy//src/dev/mpr121.h ****         WriteRegister(MPR121_FDLT, 0x00);
 160:../../libDaisy//src/dev/mpr121.h **** 
 161:../../libDaisy//src/dev/mpr121.h ****         WriteRegister(MPR121_DEBOUNCE, 0);
 162:../../libDaisy//src/dev/mpr121.h ****         WriteRegister(MPR121_CONFIG1, 0x10); // default, 16uA charge current
 163:../../libDaisy//src/dev/mpr121.h ****         WriteRegister(MPR121_CONFIG2, 0x20); // 0.5uS encoding, 1ms period
 164:../../libDaisy//src/dev/mpr121.h **** 
 165:../../libDaisy//src/dev/mpr121.h ****         // autoconfig
 166:../../libDaisy//src/dev/mpr121.h ****         // WriteRegister(MPR121_AUTOCONFIG0, 0x0B);
 167:../../libDaisy//src/dev/mpr121.h **** 
 168:../../libDaisy//src/dev/mpr121.h ****         // correct values for Vdd = 3.3V
 169:../../libDaisy//src/dev/mpr121.h ****         WriteRegister(MPR121_UPLIMIT, 200);     // ((Vdd - 0.7)/Vdd) * 256
 170:../../libDaisy//src/dev/mpr121.h ****         WriteRegister(MPR121_TARGETLIMIT, 180); // UPLIMIT * 0.9
 171:../../libDaisy//src/dev/mpr121.h ****         WriteRegister(MPR121_LOWLIMIT, 130);    // UPLIMIT * 0.65
 172:../../libDaisy//src/dev/mpr121.h ****         // autoconfig
 173:../../libDaisy//src/dev/mpr121.h **** 
 174:../../libDaisy//src/dev/mpr121.h ****         // enable X electrodes and start MPR121
 175:../../libDaisy//src/dev/mpr121.h ****         uint8_t ECR_SETTING
 176:../../libDaisy//src/dev/mpr121.h ****             = 0x80
 177:../../libDaisy//src/dev/mpr121.h ****               + 12; // 5 bits for baseline tracking & proximity disabled + X
 178:../../libDaisy//src/dev/mpr121.h ****                     // amount of electrodes running (12)
 179:../../libDaisy//src/dev/mpr121.h ****         WriteRegister(MPR121_ECR,
 180:../../libDaisy//src/dev/mpr121.h ****                       ECR_SETTING); // start with above ECR setting
 181:../../libDaisy//src/dev/mpr121.h **** 
 182:../../libDaisy//src/dev/mpr121.h ****         return GetTransportErr();
 183:../../libDaisy//src/dev/mpr121.h ****     }
 184:../../libDaisy//src/dev/mpr121.h **** 
 185:../../libDaisy//src/dev/mpr121.h ****     /** Set the touch and release thresholds for all 13 channels on the
ARM GAS  C:\Users\matte\AppData\Local\Temp\ccayzbuB.s 			page 12


 186:../../libDaisy//src/dev/mpr121.h ****         device to the passed values.
 187:../../libDaisy//src/dev/mpr121.h ****         \param      touch The touch threshold value from 0 to 255.
 188:../../libDaisy//src/dev/mpr121.h ****         \param      release The release threshold from 0 to 255.
 189:../../libDaisy//src/dev/mpr121.h ****     */
 190:../../libDaisy//src/dev/mpr121.h ****     void SetThresholds(uint8_t touch, uint8_t release)
 191:../../libDaisy//src/dev/mpr121.h ****     {
 192:../../libDaisy//src/dev/mpr121.h ****         // set all thresholds (the same)
 193:../../libDaisy//src/dev/mpr121.h ****         for(uint8_t i = 0; i < 12; i++)
 194:../../libDaisy//src/dev/mpr121.h ****         {
 195:../../libDaisy//src/dev/mpr121.h ****             WriteRegister(MPR121_TOUCHTH_0 + 2 * i, touch);
 196:../../libDaisy//src/dev/mpr121.h ****             WriteRegister(MPR121_RELEASETH_0 + 2 * i, release);
 197:../../libDaisy//src/dev/mpr121.h ****         }
 198:../../libDaisy//src/dev/mpr121.h ****     }
 199:../../libDaisy//src/dev/mpr121.h **** 
 200:../../libDaisy//src/dev/mpr121.h **** 
 201:../../libDaisy//src/dev/mpr121.h ****     /** Read the filtered data from channel t. The ADC raw data outputs
 202:../../libDaisy//src/dev/mpr121.h ****         run through 3 levels of digital filtering to filter out the high
 203:../../libDaisy//src/dev/mpr121.h ****         frequency and low frequency noise encountered. For detailed information on
 204:../../libDaisy//src/dev/mpr121.h ****         this filtering see page 6 of the device datasheet.
 205:../../libDaisy//src/dev/mpr121.h ****         \param      t the channel to read
 206:../../libDaisy//src/dev/mpr121.h ****         \returns    the filtered reading as a 10 bit unsigned value
 207:../../libDaisy//src/dev/mpr121.h ****     */
 208:../../libDaisy//src/dev/mpr121.h ****     uint16_t FilteredData(uint8_t t)
 209:../../libDaisy//src/dev/mpr121.h ****     {
 210:../../libDaisy//src/dev/mpr121.h ****         if(t > 12)
 211:../../libDaisy//src/dev/mpr121.h ****             return 0;
 212:../../libDaisy//src/dev/mpr121.h ****         return ReadRegister16(MPR121_FILTDATA_0L + (t * 2));
 213:../../libDaisy//src/dev/mpr121.h ****        // return ReadRegister8(MPR121_FILTDATA_0L);
 214:../../libDaisy//src/dev/mpr121.h ****     }
 215:../../libDaisy//src/dev/mpr121.h **** 
 216:../../libDaisy//src/dev/mpr121.h ****     /** Read the baseline value for the channel. The 3rd level filtered
 217:../../libDaisy//src/dev/mpr121.h ****         result is internally 10bit but only high 8 bits are readable
 218:../../libDaisy//src/dev/mpr121.h ****         from registers 0x1E~0x2A as the baseline value output for each channel.
 219:../../libDaisy//src/dev/mpr121.h ****         \param      t the channel to read.
 220:../../libDaisy//src/dev/mpr121.h ****         \returns    the baseline data that was read
 221:../../libDaisy//src/dev/mpr121.h ****     */
 222:../../libDaisy//src/dev/mpr121.h ****     uint16_t BaselineData(uint8_t t)
 223:../../libDaisy//src/dev/mpr121.h ****     {
 224:../../libDaisy//src/dev/mpr121.h ****         if(t > 12)
 225:../../libDaisy//src/dev/mpr121.h ****             return 0;
 226:../../libDaisy//src/dev/mpr121.h ****         //uint16_t bl = ReadRegister8(MPR121_BASELINE_0 + t);
 227:../../libDaisy//src/dev/mpr121.h ****         uint16_t bl = ReadRegister8(0x1E + t);
 228:../../libDaisy//src/dev/mpr121.h ****         return (bl << 2);
 229:../../libDaisy//src/dev/mpr121.h ****     }
 230:../../libDaisy//src/dev/mpr121.h **** 
 231:../../libDaisy//src/dev/mpr121.h ****     /** Read the touch status of all 13 channels as bit values in a 12 bit integer.
 232:../../libDaisy//src/dev/mpr121.h ****         \returns    a 12 bit integer with each bit corresponding to the touch status
 233:../../libDaisy//src/dev/mpr121.h ****         of a sensor. For example, if bit 0 is set then channel 0 of the
 234:../../libDaisy//src/dev/mpr121.h ****         device is currently deemed to be touched.
 235:../../libDaisy//src/dev/mpr121.h ****     */
 236:../../libDaisy//src/dev/mpr121.h ****     uint16_t Touched()
 237:../../libDaisy//src/dev/mpr121.h ****     {
 238:../../libDaisy//src/dev/mpr121.h ****         uint16_t t = ReadRegister16(MPR121_TOUCHSTATUS_L);
 239:../../libDaisy//src/dev/mpr121.h ****         return t & 0x0FFF;
 240:../../libDaisy//src/dev/mpr121.h ****     }
 241:../../libDaisy//src/dev/mpr121.h **** 
 242:../../libDaisy//src/dev/mpr121.h ****     /** Read the contents of an 8 bit device register.
ARM GAS  C:\Users\matte\AppData\Local\Temp\ccayzbuB.s 			page 13


 243:../../libDaisy//src/dev/mpr121.h ****         \param      reg the register address to read from
 244:../../libDaisy//src/dev/mpr121.h ****         \returns    the 8 bit value that was read.
 245:../../libDaisy//src/dev/mpr121.h ****     */
 246:../../libDaisy//src/dev/mpr121.h ****     uint8_t ReadRegister8(uint8_t reg)
 247:../../libDaisy//src/dev/mpr121.h ****     {
 248:../../libDaisy//src/dev/mpr121.h ****         uint8_t buff;
 249:../../libDaisy//src/dev/mpr121.h ****         SetTransportErr(transport_.Write(&reg, 1));
 250:../../libDaisy//src/dev/mpr121.h ****         SetTransportErr(transport_.Read (&buff, 1));
 251:../../libDaisy//src/dev/mpr121.h **** 
 252:../../libDaisy//src/dev/mpr121.h ****         return buff;
 253:../../libDaisy//src/dev/mpr121.h ****     }
 254:../../libDaisy//src/dev/mpr121.h **** 
 255:../../libDaisy//src/dev/mpr121.h ****     /** Read the contents of a 16 bit device register.
 256:../../libDaisy//src/dev/mpr121.h ****         \param      reg the register address to read from
 257:../../libDaisy//src/dev/mpr121.h ****         \returns    the 16 bit value that was read.
 258:../../libDaisy//src/dev/mpr121.h ****     */
 259:../../libDaisy//src/dev/mpr121.h ****     uint16_t ReadRegister16(uint8_t reg)
 260:../../libDaisy//src/dev/mpr121.h ****     {
 261:../../libDaisy//src/dev/mpr121.h ****         uint16_t buff;
 262:../../libDaisy//src/dev/mpr121.h ****         SetTransportErr(transport_.Write(&reg, 1));
 263:../../libDaisy//src/dev/mpr121.h ****         SetTransportErr(transport_.Read((uint8_t *)&buff, 2));
 264:../../libDaisy//src/dev/mpr121.h ****         // added
 265:../../libDaisy//src/dev/mpr121.h **** 
 266:../../libDaisy//src/dev/mpr121.h ****         //SetTransportErr(transport_.Read(reg, (uint8_t *)&buff, 2));
 267:../../libDaisy//src/dev/mpr121.h **** 
 268:../../libDaisy//src/dev/mpr121.h ****         return buff;
 269:../../libDaisy//src/dev/mpr121.h ****     }
 270:../../libDaisy//src/dev/mpr121.h **** 
 271:../../libDaisy//src/dev/mpr121.h ****     /** Writes 8-bits to the specified destination register
 272:../../libDaisy//src/dev/mpr121.h ****         \param  reg the register address to write to
 273:../../libDaisy//src/dev/mpr121.h ****         \param  value the value to write
 274:../../libDaisy//src/dev/mpr121.h ****     */
 275:../../libDaisy//src/dev/mpr121.h ****     void WriteRegister(uint8_t reg, uint8_t value)
  79              		.loc 6 275 10 is_stmt 1 view -0
  80              		.cfi_startproc
  81              		@ args = 0, pretend = 0, frame = 8
  82              		@ frame_needed = 0, uses_anonymous_args = 0
  83              		.loc 6 275 10 is_stmt 0 view .LVU11
  84 0000 2DE9F043 		push	{r4, r5, r6, r7, r8, r9, lr}
  85              		.cfi_def_cfa_offset 28
  86              		.cfi_offset 4, -28
  87              		.cfi_offset 5, -24
  88              		.cfi_offset 6, -20
  89              		.cfi_offset 7, -16
  90              		.cfi_offset 8, -12
  91              		.cfi_offset 9, -8
  92              		.cfi_offset 14, -4
 276:../../libDaisy//src/dev/mpr121.h ****     {
 277:../../libDaisy//src/dev/mpr121.h ****         // MPR121 must be put in Stop Mode to write to most registers
 278:../../libDaisy//src/dev/mpr121.h ****         bool stop_required = true;
 279:../../libDaisy//src/dev/mpr121.h **** 
 280:../../libDaisy//src/dev/mpr121.h ****         // first get the current set value of the MPR121_ECR register
 281:../../libDaisy//src/dev/mpr121.h ****         uint8_t ecr_reg = MPR121_ECR;
 282:../../libDaisy//src/dev/mpr121.h ****         uint8_t buff[2] = {ecr_reg, 0x00};
  93              		.loc 6 282 17 view .LVU12
  94 0004 0023     		movs	r3, #0
 275:../../libDaisy//src/dev/mpr121.h ****     {
ARM GAS  C:\Users\matte\AppData\Local\Temp\ccayzbuB.s 			page 14


  95              		.loc 6 275 10 view .LVU13
  96 0006 85B0     		sub	sp, sp, #20
  97              		.cfi_def_cfa_offset 48
  98              	.LBB186:
  99              	.LBB187:
  75:../../libDaisy//src/dev/mpr121.h ****     }
 100              		.loc 6 75 40 view .LVU14
 101 0008 00F11806 		add	r6, r0, #24
 102 000c 4FF00A08 		mov	r8, #10
 103              	.LBE187:
 104              	.LBE186:
 275:../../libDaisy//src/dev/mpr121.h ****     {
 105              		.loc 6 275 10 view .LVU15
 106 0010 0446     		mov	r4, r0
 107              		.loc 6 282 17 view .LVU16
 108 0012 4FF05E09 		mov	r9, #94
 275:../../libDaisy//src/dev/mpr121.h ****     {
 109              		.loc 6 275 10 view .LVU17
 110 0016 0D46     		mov	r5, r1
 111              		.loc 6 282 17 view .LVU18
 112 0018 8DF80D30 		strb	r3, [sp, #13]
 113              	.LBB191:
 114              	.LBB188:
  75:../../libDaisy//src/dev/mpr121.h ****     }
 115              		.loc 6 75 40 view .LVU19
 116 001c CDF80080 		str	r8, [sp]
 117 0020 0123     		movs	r3, #1
 118 0022 90F82C10 		ldrb	r1, [r0, #44]	@ zero_extendqisi2
 119              	.LVL2:
  75:../../libDaisy//src/dev/mpr121.h ****     }
 120              		.loc 6 75 40 view .LVU20
 121              	.LBE188:
 122              	.LBE191:
 275:../../libDaisy//src/dev/mpr121.h ****     {
 123              		.loc 6 275 10 view .LVU21
 124 0026 1746     		mov	r7, r2
 125              	.LBB192:
 126              	.LBB189:
  75:../../libDaisy//src/dev/mpr121.h ****     }
 127              		.loc 6 75 40 view .LVU22
 128 0028 3046     		mov	r0, r6
 129              	.LVL3:
  75:../../libDaisy//src/dev/mpr121.h ****     }
 130              		.loc 6 75 40 view .LVU23
 131 002a 03AA     		add	r2, sp, #12
 132              	.LVL4:
  75:../../libDaisy//src/dev/mpr121.h ****     }
 133              		.loc 6 75 40 view .LVU24
 134              	.LBE189:
 135              	.LBE192:
 136              		.loc 6 282 17 view .LVU25
 137 002c 8DF80C90 		strb	r9, [sp, #12]
 138              	.LVL5:
 139              	.LBB193:
 140              	.LBI186:
  72:../../libDaisy//src/dev/mpr121.h ****     {
 141              		.loc 6 72 10 is_stmt 1 view .LVU26
ARM GAS  C:\Users\matte\AppData\Local\Temp\ccayzbuB.s 			page 15


 142              	.LBB190:
  74:../../libDaisy//src/dev/mpr121.h ****                != i2c_.TransmitBlocking(config_.dev_addr, data, size, 10);
 143              		.loc 6 74 9 view .LVU27
  75:../../libDaisy//src/dev/mpr121.h ****     }
 144              		.loc 6 75 40 is_stmt 0 view .LVU28
 145 0030 FFF7FEFF 		bl	_ZN5daisy9I2CHandle16TransmitBlockingEtPhtm
 146              	.LVL6:
  75:../../libDaisy//src/dev/mpr121.h ****     }
 147              		.loc 6 75 40 view .LVU29
 148              	.LBE190:
 149              	.LBE193:
 150              	.LBB194:
 151              	.LBI194:
 283:../../libDaisy//src/dev/mpr121.h **** 
 284:../../libDaisy//src/dev/mpr121.h ****         SetTransportErr(transport_.Write(buff, 1));
 285:../../libDaisy//src/dev/mpr121.h **** 
 286:../../libDaisy//src/dev/mpr121.h ****         uint8_t ecr_backup;
 287:../../libDaisy//src/dev/mpr121.h ****         SetTransportErr(transport_.Read(&ecr_backup, 1));
 288:../../libDaisy//src/dev/mpr121.h ****         if((reg == MPR121_ECR) || ((0x73 <= reg) && (reg <= 0x7A)))
 289:../../libDaisy//src/dev/mpr121.h ****         {
 290:../../libDaisy//src/dev/mpr121.h ****             stop_required = false;
 291:../../libDaisy//src/dev/mpr121.h ****         }
 292:../../libDaisy//src/dev/mpr121.h **** 
 293:../../libDaisy//src/dev/mpr121.h ****         if(stop_required)
 294:../../libDaisy//src/dev/mpr121.h ****         {
 295:../../libDaisy//src/dev/mpr121.h ****             // clear this register to set stop mode
 296:../../libDaisy//src/dev/mpr121.h ****             SetTransportErr(transport_.Write(buff, 2));
 297:../../libDaisy//src/dev/mpr121.h ****         }
 298:../../libDaisy//src/dev/mpr121.h **** 
 299:../../libDaisy//src/dev/mpr121.h ****         buff[0] = reg;
 300:../../libDaisy//src/dev/mpr121.h ****         buff[1] = value;
 301:../../libDaisy//src/dev/mpr121.h ****         SetTransportErr(transport_.Write(buff, 2));
 302:../../libDaisy//src/dev/mpr121.h **** 
 303:../../libDaisy//src/dev/mpr121.h ****         if(stop_required)
 304:../../libDaisy//src/dev/mpr121.h ****         {
 305:../../libDaisy//src/dev/mpr121.h ****             // write back the previous set ECR settings
 306:../../libDaisy//src/dev/mpr121.h ****             buff[0] = ecr_reg;
 307:../../libDaisy//src/dev/mpr121.h ****             buff[1] = ecr_backup;
 308:../../libDaisy//src/dev/mpr121.h ****             SetTransportErr(transport_.Write(buff, 2));
 309:../../libDaisy//src/dev/mpr121.h ****         }
 310:../../libDaisy//src/dev/mpr121.h ****     }
 311:../../libDaisy//src/dev/mpr121.h **** 
 312:../../libDaisy//src/dev/mpr121.h ****     /** Device register map */
 313:../../libDaisy//src/dev/mpr121.h ****     enum RegMap
 314:../../libDaisy//src/dev/mpr121.h ****     {
 315:../../libDaisy//src/dev/mpr121.h ****         MPR121_TOUCHSTATUS_L = 0x00,
 316:../../libDaisy//src/dev/mpr121.h ****         MPR121_TOUCHSTATUS_H = 0x01,
 317:../../libDaisy//src/dev/mpr121.h ****         MPR121_FILTDATA_0L   = 0x04,
 318:../../libDaisy//src/dev/mpr121.h ****         MPR121_FILTDATA_0H   = 0x05,
 319:../../libDaisy//src/dev/mpr121.h ****         MPR121_BASELINE_0    = 0x1E,
 320:../../libDaisy//src/dev/mpr121.h ****         MPR121_MHDR          = 0x2B,
 321:../../libDaisy//src/dev/mpr121.h ****         MPR121_NHDR          = 0x2C,
 322:../../libDaisy//src/dev/mpr121.h ****         MPR121_NCLR          = 0x2D,
 323:../../libDaisy//src/dev/mpr121.h ****         MPR121_FDLR          = 0x2E,
 324:../../libDaisy//src/dev/mpr121.h ****         MPR121_MHDF          = 0x2F,
 325:../../libDaisy//src/dev/mpr121.h ****         MPR121_NHDF          = 0x30,
 326:../../libDaisy//src/dev/mpr121.h ****         MPR121_NCLF          = 0x31,
ARM GAS  C:\Users\matte\AppData\Local\Temp\ccayzbuB.s 			page 16


 327:../../libDaisy//src/dev/mpr121.h ****         MPR121_FDLF          = 0x32,
 328:../../libDaisy//src/dev/mpr121.h ****         MPR121_NHDT          = 0x33,
 329:../../libDaisy//src/dev/mpr121.h ****         MPR121_NCLT          = 0x34,
 330:../../libDaisy//src/dev/mpr121.h ****         MPR121_FDLT          = 0x35,
 331:../../libDaisy//src/dev/mpr121.h **** 
 332:../../libDaisy//src/dev/mpr121.h ****         MPR121_TOUCHTH_0    = 0x41,
 333:../../libDaisy//src/dev/mpr121.h ****         MPR121_RELEASETH_0  = 0x42,
 334:../../libDaisy//src/dev/mpr121.h ****         MPR121_DEBOUNCE     = 0x5B,
 335:../../libDaisy//src/dev/mpr121.h ****         MPR121_CONFIG1      = 0x5C,
 336:../../libDaisy//src/dev/mpr121.h ****         MPR121_CONFIG2      = 0x5D,
 337:../../libDaisy//src/dev/mpr121.h ****         MPR121_CHARGECURR_0 = 0x5F,
 338:../../libDaisy//src/dev/mpr121.h ****         MPR121_CHARGETIME_1 = 0x6C,
 339:../../libDaisy//src/dev/mpr121.h ****         MPR121_ECR          = 0x5E,
 340:../../libDaisy//src/dev/mpr121.h ****         MPR121_AUTOCONFIG0  = 0x7B,
 341:../../libDaisy//src/dev/mpr121.h ****         MPR121_AUTOCONFIG1  = 0x7C,
 342:../../libDaisy//src/dev/mpr121.h ****         MPR121_UPLIMIT      = 0x7D,
 343:../../libDaisy//src/dev/mpr121.h ****         MPR121_LOWLIMIT     = 0x7E,
 344:../../libDaisy//src/dev/mpr121.h ****         MPR121_TARGETLIMIT  = 0x7F,
 345:../../libDaisy//src/dev/mpr121.h **** 
 346:../../libDaisy//src/dev/mpr121.h ****         MPR121_GPIODIR    = 0x76,
 347:../../libDaisy//src/dev/mpr121.h ****         MPR121_GPIOEN     = 0x77,
 348:../../libDaisy//src/dev/mpr121.h ****         MPR121_GPIOSET    = 0x78,
 349:../../libDaisy//src/dev/mpr121.h ****         MPR121_GPIOCLR    = 0x79,
 350:../../libDaisy//src/dev/mpr121.h ****         MPR121_GPIOTOGGLE = 0x7A,
 351:../../libDaisy//src/dev/mpr121.h **** 
 352:../../libDaisy//src/dev/mpr121.h ****         MPR121_SOFTRESET = 0x80,
 353:../../libDaisy//src/dev/mpr121.h ****     };
 354:../../libDaisy//src/dev/mpr121.h ****     void SetI2cHandle(I2CHandle passedI2c){
 355:../../libDaisy//src/dev/mpr121.h ****         transport_.SetI2cHandle(passedI2c);
 356:../../libDaisy//src/dev/mpr121.h ****     }
 357:../../libDaisy//src/dev/mpr121.h ****     
 358:../../libDaisy//src/dev/mpr121.h ****     /** Get the global transport_error_ bool (as a Result), then reset it */
 359:../../libDaisy//src/dev/mpr121.h ****     Result GetTransportErr()
 360:../../libDaisy//src/dev/mpr121.h ****     {
 361:../../libDaisy//src/dev/mpr121.h ****         Result ret       = transport_error_ ? ERR : OK;
 362:../../libDaisy//src/dev/mpr121.h ****         transport_error_ = false;
 363:../../libDaisy//src/dev/mpr121.h ****         return ret;
 364:../../libDaisy//src/dev/mpr121.h ****     }
 365:../../libDaisy//src/dev/mpr121.h **** 
 366:../../libDaisy//src/dev/mpr121.h **** 
 367:../../libDaisy//src/dev/mpr121.h ****   private:
 368:../../libDaisy//src/dev/mpr121.h ****     Config    config_;
 369:../../libDaisy//src/dev/mpr121.h ****     Transport transport_;
 370:../../libDaisy//src/dev/mpr121.h ****     bool      transport_error_;
 371:../../libDaisy//src/dev/mpr121.h **** 
 372:../../libDaisy//src/dev/mpr121.h ****     /** Set the global transport_error_ bool */
 373:../../libDaisy//src/dev/mpr121.h ****     void SetTransportErr(bool err) { transport_error_ |= err; }
 152              		.loc 6 373 10 is_stmt 1 view .LVU30
 153              	.LBE194:
 154              	.LBB198:
 155              	.LBB199:
  82:../../libDaisy//src/dev/mpr121.h ****     }
 156              		.loc 6 82 39 is_stmt 0 view .LVU31
 157 0034 CDF80080 		str	r8, [sp]
 158 0038 0DF10B02 		add	r2, sp, #11
 159              	.LBE199:
 160              	.LBE198:
ARM GAS  C:\Users\matte\AppData\Local\Temp\ccayzbuB.s 			page 17


 161              	.LBB203:
 162              	.LBB195:
 163              		.loc 6 373 55 view .LVU32
 164 003c 94F83030 		ldrb	r3, [r4, #48]	@ zero_extendqisi2
 165              	.LBE195:
 166              	.LBE203:
 167              	.LBB204:
 168              	.LBB200:
  82:../../libDaisy//src/dev/mpr121.h ****     }
 169              		.loc 6 82 39 view .LVU33
 170 0040 94F82C10 		ldrb	r1, [r4, #44]	@ zero_extendqisi2
 171              	.LBE200:
 172              	.LBE204:
 173              	.LBB205:
 174              	.LBB196:
 175              		.loc 6 373 55 view .LVU34
 176 0044 0028     		cmp	r0, #0
 177 0046 18BF     		it	ne
 178 0048 43F00103 		orrne	r3, r3, #1
 179              	.LBE196:
 180              	.LBE205:
 181              	.LBB206:
 182              	.LBB201:
  82:../../libDaisy//src/dev/mpr121.h ****     }
 183              		.loc 6 82 39 view .LVU35
 184 004c 3046     		mov	r0, r6
 185              	.LVL7:
  82:../../libDaisy//src/dev/mpr121.h ****     }
 186              		.loc 6 82 39 view .LVU36
 187              	.LBE201:
 188              	.LBE206:
 189              	.LBB207:
 190              	.LBB197:
 191              		.loc 6 373 55 view .LVU37
 192 004e 84F83030 		strb	r3, [r4, #48]
 193              	.LVL8:
 194              		.loc 6 373 55 view .LVU38
 195              	.LBE197:
 196              	.LBE207:
 197              	.LBB208:
 198              	.LBI198:
  79:../../libDaisy//src/dev/mpr121.h ****     {
 199              		.loc 6 79 10 is_stmt 1 view .LVU39
 200              	.LBB202:
  81:../../libDaisy//src/dev/mpr121.h ****                != i2c_.ReceiveBlocking(config_.dev_addr, data, size, 10);
 201              		.loc 6 81 9 view .LVU40
  82:../../libDaisy//src/dev/mpr121.h ****     }
 202              		.loc 6 82 39 is_stmt 0 view .LVU41
 203 0052 0123     		movs	r3, #1
 204 0054 FFF7FEFF 		bl	_ZN5daisy9I2CHandle15ReceiveBlockingEtPhtm
 205              	.LVL9:
  82:../../libDaisy//src/dev/mpr121.h ****     }
 206              		.loc 6 82 39 view .LVU42
 207              	.LBE202:
 208              	.LBE208:
 209              	.LBB209:
 210              	.LBI209:
ARM GAS  C:\Users\matte\AppData\Local\Temp\ccayzbuB.s 			page 18


 211              		.loc 6 373 10 is_stmt 1 view .LVU43
 212              	.LBB210:
 213              		.loc 6 373 55 is_stmt 0 view .LVU44
 214 0058 94F83030 		ldrb	r3, [r4, #48]	@ zero_extendqisi2
 215 005c 0028     		cmp	r0, #0
 216 005e 18BF     		it	ne
 217 0060 43F00103 		orrne	r3, r3, #1
 218 0064 84F83030 		strb	r3, [r4, #48]
 219              	.LVL10:
 220              		.loc 6 373 55 view .LVU45
 221              	.LBE210:
 222              	.LBE209:
 288:../../libDaisy//src/dev/mpr121.h ****         {
 223              		.loc 6 288 50 view .LVU46
 224 0068 A5F17303 		sub	r3, r5, #115
 288:../../libDaisy//src/dev/mpr121.h ****         {
 225              		.loc 6 288 9 view .LVU47
 226 006c 072B     		cmp	r3, #7
 227 006e 01D9     		bls	.L4
 228 0070 4D45     		cmp	r5, r9
 229 0072 17D1     		bne	.L8
 230              	.L4:
 231              	.LVL11:
 232              	.LBB211:
 233              	.LBB212:
  75:../../libDaisy//src/dev/mpr121.h ****     }
 234              		.loc 6 75 40 view .LVU48
 235 0074 0A23     		movs	r3, #10
 236 0076 03AA     		add	r2, sp, #12
 237 0078 3046     		mov	r0, r6
 238              	.LBE212:
 239              	.LBE211:
 299:../../libDaisy//src/dev/mpr121.h ****         buff[1] = value;
 240              		.loc 6 299 17 view .LVU49
 241 007a 8DF80C50 		strb	r5, [sp, #12]
 242              	.LBB221:
 243              	.LBB213:
  75:../../libDaisy//src/dev/mpr121.h ****     }
 244              		.loc 6 75 40 view .LVU50
 245 007e 0093     		str	r3, [sp]
 246 0080 0223     		movs	r3, #2
 247              	.LBE213:
 248              	.LBE221:
 300:../../libDaisy//src/dev/mpr121.h ****         SetTransportErr(transport_.Write(buff, 2));
 249              		.loc 6 300 17 view .LVU51
 250 0082 8DF80D70 		strb	r7, [sp, #13]
 251              	.LVL12:
 252              	.LBB222:
 253              	.LBI211:
  72:../../libDaisy//src/dev/mpr121.h ****     {
 254              		.loc 6 72 10 is_stmt 1 view .LVU52
 255              	.LBB214:
  74:../../libDaisy//src/dev/mpr121.h ****                != i2c_.TransmitBlocking(config_.dev_addr, data, size, 10);
 256              		.loc 6 74 9 view .LVU53
 257              	.L7:
  75:../../libDaisy//src/dev/mpr121.h ****     }
 258              		.loc 6 75 40 is_stmt 0 view .LVU54
ARM GAS  C:\Users\matte\AppData\Local\Temp\ccayzbuB.s 			page 19


 259 0086 94F82C10 		ldrb	r1, [r4, #44]	@ zero_extendqisi2
 260 008a FFF7FEFF 		bl	_ZN5daisy9I2CHandle16TransmitBlockingEtPhtm
 261              	.LVL13:
  75:../../libDaisy//src/dev/mpr121.h ****     }
 262              		.loc 6 75 40 view .LVU55
 263              	.LBE214:
 264              	.LBE222:
 265              	.LBB223:
 266              	.LBI223:
 267              		.loc 6 373 10 is_stmt 1 view .LVU56
 268              	.LBB224:
 269              		.loc 6 373 55 is_stmt 0 view .LVU57
 270 008e 94F83030 		ldrb	r3, [r4, #48]	@ zero_extendqisi2
 271 0092 0028     		cmp	r0, #0
 272 0094 18BF     		it	ne
 273 0096 43F00103 		orrne	r3, r3, #1
 274 009a 84F83030 		strb	r3, [r4, #48]
 275              	.LVL14:
 276              		.loc 6 373 55 view .LVU58
 277              	.LBE224:
 278              	.LBE223:
 310:../../libDaisy//src/dev/mpr121.h **** 
 279              		.loc 6 310 5 view .LVU59
 280 009e 05B0     		add	sp, sp, #20
 281              		.cfi_remember_state
 282              		.cfi_def_cfa_offset 28
 283              		@ sp needed
 284 00a0 BDE8F083 		pop	{r4, r5, r6, r7, r8, r9, pc}
 285              	.LVL15:
 286              	.L8:
 287              		.cfi_restore_state
 288              	.LBB228:
 289              	.LBI228:
  72:../../libDaisy//src/dev/mpr121.h ****     {
 290              		.loc 6 72 10 is_stmt 1 view .LVU60
 291              	.LBB229:
  74:../../libDaisy//src/dev/mpr121.h ****                != i2c_.TransmitBlocking(config_.dev_addr, data, size, 10);
 292              		.loc 6 74 9 view .LVU61
  75:../../libDaisy//src/dev/mpr121.h ****     }
 293              		.loc 6 75 40 is_stmt 0 view .LVU62
 294 00a4 0223     		movs	r3, #2
 295 00a6 03AA     		add	r2, sp, #12
 296              	.LVL16:
  75:../../libDaisy//src/dev/mpr121.h ****     }
 297              		.loc 6 75 40 view .LVU63
 298 00a8 CDF80080 		str	r8, [sp]
 299 00ac 3046     		mov	r0, r6
 300 00ae 94F82C10 		ldrb	r1, [r4, #44]	@ zero_extendqisi2
 301 00b2 FFF7FEFF 		bl	_ZN5daisy9I2CHandle16TransmitBlockingEtPhtm
 302              	.LVL17:
  75:../../libDaisy//src/dev/mpr121.h ****     }
 303              		.loc 6 75 40 view .LVU64
 304              	.LBE229:
 305              	.LBE228:
 306              	.LBB230:
 307              	.LBI230:
 308              		.loc 6 373 10 is_stmt 1 view .LVU65
ARM GAS  C:\Users\matte\AppData\Local\Temp\ccayzbuB.s 			page 20


 309              	.LBE230:
 310              	.LBB234:
 311              	.LBB215:
  75:../../libDaisy//src/dev/mpr121.h ****     }
 312              		.loc 6 75 40 is_stmt 0 view .LVU66
 313 00b6 CDF80080 		str	r8, [sp]
 314              	.LBE215:
 315              	.LBE234:
 316              	.LBB235:
 317              	.LBB231:
 318              		.loc 6 373 55 view .LVU67
 319 00ba 94F83030 		ldrb	r3, [r4, #48]	@ zero_extendqisi2
 320              	.LBE231:
 321              	.LBE235:
 322              	.LBB236:
 323              	.LBB216:
  75:../../libDaisy//src/dev/mpr121.h ****     }
 324              		.loc 6 75 40 view .LVU68
 325 00be 03AA     		add	r2, sp, #12
 326 00c0 94F82C10 		ldrb	r1, [r4, #44]	@ zero_extendqisi2
 327              	.LBE216:
 328              	.LBE236:
 329              	.LBB237:
 330              	.LBB232:
 331              		.loc 6 373 55 view .LVU69
 332 00c4 0028     		cmp	r0, #0
 333 00c6 18BF     		it	ne
 334 00c8 43F00103 		orrne	r3, r3, #1
 335              	.LBE232:
 336              	.LBE237:
 337              	.LBB238:
 338              	.LBB217:
  75:../../libDaisy//src/dev/mpr121.h ****     }
 339              		.loc 6 75 40 view .LVU70
 340 00cc 3046     		mov	r0, r6
 341              	.LVL18:
  75:../../libDaisy//src/dev/mpr121.h ****     }
 342              		.loc 6 75 40 view .LVU71
 343              	.LBE217:
 344              	.LBE238:
 299:../../libDaisy//src/dev/mpr121.h ****         buff[1] = value;
 345              		.loc 6 299 17 view .LVU72
 346 00ce 8DF80C50 		strb	r5, [sp, #12]
 347              	.LBB239:
 348              	.LBB233:
 349              		.loc 6 373 55 view .LVU73
 350 00d2 84F83030 		strb	r3, [r4, #48]
 351              	.LVL19:
 352              		.loc 6 373 55 view .LVU74
 353              	.LBE233:
 354              	.LBE239:
 355              	.LBB240:
  72:../../libDaisy//src/dev/mpr121.h ****     {
 356              		.loc 6 72 10 is_stmt 1 view .LVU75
 357              	.LBB218:
  74:../../libDaisy//src/dev/mpr121.h ****                != i2c_.TransmitBlocking(config_.dev_addr, data, size, 10);
 358              		.loc 6 74 9 view .LVU76
ARM GAS  C:\Users\matte\AppData\Local\Temp\ccayzbuB.s 			page 21


  75:../../libDaisy//src/dev/mpr121.h ****     }
 359              		.loc 6 75 40 is_stmt 0 view .LVU77
 360 00d6 0223     		movs	r3, #2
 361              	.LBE218:
 362              	.LBE240:
 300:../../libDaisy//src/dev/mpr121.h ****         SetTransportErr(transport_.Write(buff, 2));
 363              		.loc 6 300 17 view .LVU78
 364 00d8 8DF80D70 		strb	r7, [sp, #13]
 365              	.LBB241:
 366              	.LBB219:
  75:../../libDaisy//src/dev/mpr121.h ****     }
 367              		.loc 6 75 40 view .LVU79
 368 00dc FFF7FEFF 		bl	_ZN5daisy9I2CHandle16TransmitBlockingEtPhtm
 369              	.LVL20:
  75:../../libDaisy//src/dev/mpr121.h ****     }
 370              		.loc 6 75 40 view .LVU80
 371              	.LBE219:
 372              	.LBE241:
 373              	.LBB242:
 374              	.LBB243:
 375 00e0 CDF80080 		str	r8, [sp]
 376              	.LBE243:
 377              	.LBE242:
 378              	.LBB248:
 379              	.LBB220:
 380 00e4 0546     		mov	r5, r0
 381              	.LVL21:
  75:../../libDaisy//src/dev/mpr121.h ****     }
 382              		.loc 6 75 40 view .LVU81
 383              	.LBE220:
 384              	.LBE248:
 385              	.LBB249:
 386              		.loc 6 373 10 is_stmt 1 view .LVU82
 387              	.LBB225:
 388              		.loc 6 373 55 is_stmt 0 view .LVU83
 389 00e6 94F83010 		ldrb	r1, [r4, #48]	@ zero_extendqisi2
 390              	.LBE225:
 391              	.LBE249:
 392              	.LBB250:
 393              	.LBB244:
  75:../../libDaisy//src/dev/mpr121.h ****     }
 394              		.loc 6 75 40 view .LVU84
 395 00ea 03AA     		add	r2, sp, #12
 396              	.LBE244:
 397              	.LBE250:
 307:../../libDaisy//src/dev/mpr121.h ****             SetTransportErr(transport_.Write(buff, 2));
 398              		.loc 6 307 21 view .LVU85
 399 00ec 9DF80B30 		ldrb	r3, [sp, #11]	@ zero_extendqisi2
 400              	.LBB251:
 401              	.LBB245:
  75:../../libDaisy//src/dev/mpr121.h ****     }
 402              		.loc 6 75 40 view .LVU86
 403 00f0 3046     		mov	r0, r6
 404              	.LVL22:
  75:../../libDaisy//src/dev/mpr121.h ****     }
 405              		.loc 6 75 40 view .LVU87
 406              	.LBE245:
ARM GAS  C:\Users\matte\AppData\Local\Temp\ccayzbuB.s 			page 22


 407              	.LBE251:
 408              	.LBB252:
 409              	.LBB226:
 410              		.loc 6 373 55 view .LVU88
 411 00f2 002D     		cmp	r5, #0
 412 00f4 18BF     		it	ne
 413 00f6 41F00101 		orrne	r1, r1, #1
 414              	.LBE226:
 415              	.LBE252:
 306:../../libDaisy//src/dev/mpr121.h ****             buff[1] = ecr_backup;
 416              		.loc 6 306 21 view .LVU89
 417 00fa 8DF80C90 		strb	r9, [sp, #12]
 307:../../libDaisy//src/dev/mpr121.h ****             SetTransportErr(transport_.Write(buff, 2));
 418              		.loc 6 307 21 view .LVU90
 419 00fe 8DF80D30 		strb	r3, [sp, #13]
 420              	.LBB253:
 421              	.LBB246:
  75:../../libDaisy//src/dev/mpr121.h ****     }
 422              		.loc 6 75 40 view .LVU91
 423 0102 0223     		movs	r3, #2
 424              	.LBE246:
 425              	.LBE253:
 426              	.LBB254:
 427              	.LBB227:
 428              		.loc 6 373 55 view .LVU92
 429 0104 84F83010 		strb	r1, [r4, #48]
 430              	.LVL23:
 431              		.loc 6 373 55 view .LVU93
 432              	.LBE227:
 433              	.LBE254:
 434              	.LBB255:
 435              	.LBI242:
  72:../../libDaisy//src/dev/mpr121.h ****     {
 436              		.loc 6 72 10 is_stmt 1 view .LVU94
 437              	.LBB247:
  74:../../libDaisy//src/dev/mpr121.h ****                != i2c_.TransmitBlocking(config_.dev_addr, data, size, 10);
 438              		.loc 6 74 9 view .LVU95
 439 0108 BDE7     		b	.L7
 440              	.LBE247:
 441              	.LBE255:
 442              		.cfi_endproc
 443              	.LFE5121:
 445 010a 00BF     		.section	.rodata.main.str1.4,"aMS",%progbits,1
 446              		.align	2
 447              	.LC2:
 448 0000 4F4B00   		.ascii	"OK\000"
 449 0003 00       		.align	2
 450              	.LC3:
 451 0004 74657374 		.ascii	"test\000"
 451      00
 452 0009 000000   		.align	2
 453              	.LC4:
 454 000c 6E6F7420 		.ascii	"not ok\000"
 454      6F6B00
 455 0013 00       		.align	2
 456              	.LC5:
 457 0014 66696C74 		.ascii	"filtered data: %d \000"
ARM GAS  C:\Users\matte\AppData\Local\Temp\ccayzbuB.s 			page 23


 457      65726564 
 457      20646174 
 457      613A2025 
 457      642000
 458              		.section	.text.startup.main,"ax",%progbits
 459              		.align	1
 460              		.p2align 2,,3
 461              		.global	main
 462              		.syntax unified
 463              		.thumb
 464              		.thumb_func
 465              		.fpu fpv5-d16
 467              	main:
 468              	.LFB4683:
 469              		.file 7 "i2cComm.cpp"
   1:i2cComm.cpp   **** #include "daisy_seed.h"
   2:i2cComm.cpp   **** #include "daisysp.h"
   3:i2cComm.cpp   **** #include "daisy_core.h"
   4:i2cComm.cpp   **** #include "stm32h7xx_hal.h"
   5:i2cComm.cpp   **** 
   6:i2cComm.cpp   **** 
   7:i2cComm.cpp   **** using namespace daisy;
   8:i2cComm.cpp   **** using namespace daisysp;
   9:i2cComm.cpp   **** 
  10:i2cComm.cpp   **** DaisySeed hw;
  11:i2cComm.cpp   **** /*
  12:i2cComm.cpp   **** For the STEMMA QT cables, we follow the Qwiic convention:
  13:i2cComm.cpp   **** 
  14:i2cComm.cpp   **** Black for GND
  15:i2cComm.cpp   **** Red for V+
  16:i2cComm.cpp   **** Blue for SDA
  17:i2cComm.cpp   **** Yellow for SCL
  18:i2cComm.cpp   **** */
  19:i2cComm.cpp   **** 
  20:i2cComm.cpp   **** int main(void)
  21:i2cComm.cpp   **** {
 470              		.loc 7 21 1 view -0
 471              		.cfi_startproc
 472              		@ args = 0, pretend = 0, frame = 120
 473              		@ frame_needed = 0, uses_anonymous_args = 0
  22:i2cComm.cpp   **** 	hw.Init();
 474              		.loc 7 22 2 view .LVU97
  21:i2cComm.cpp   **** 	hw.Init();
 475              		.loc 7 21 1 is_stmt 0 view .LVU98
 476 0000 2DE9F043 		push	{r4, r5, r6, r7, r8, r9, lr}
 477              		.cfi_def_cfa_offset 28
 478              		.cfi_offset 4, -28
 479              		.cfi_offset 5, -24
 480              		.cfi_offset 6, -20
 481              		.cfi_offset 7, -16
 482              		.cfi_offset 8, -12
 483              		.cfi_offset 9, -8
 484              		.cfi_offset 14, -4
 485              		.loc 7 22 9 view .LVU99
 486 0004 0021     		movs	r1, #0
  21:i2cComm.cpp   **** 	hw.Init();
 487              		.loc 7 21 1 view .LVU100
ARM GAS  C:\Users\matte\AppData\Local\Temp\ccayzbuB.s 			page 24


 488 0006 A1B0     		sub	sp, sp, #132
 489              		.cfi_def_cfa_offset 160
 490              		.loc 7 22 9 view .LVU101
 491 0008 C648     		ldr	r0, .L16
 492              	.LBB367:
 493              	.LBB368:
 494              		.file 8 "../../libDaisy//src/per/i2c.h"
   1:../../libDaisy//src/per/i2c.h **** #pragma once
   2:../../libDaisy//src/per/i2c.h **** #include "daisy_core.h"
   3:../../libDaisy//src/per/i2c.h **** 
   4:../../libDaisy//src/per/i2c.h **** namespace daisy
   5:../../libDaisy//src/per/i2c.h **** {
   6:../../libDaisy//src/per/i2c.h **** /** A handle for interacting with an I2C peripheral. This is a dumb
   7:../../libDaisy//src/per/i2c.h ****  *  gateway that internally points to one of the four I2C peripherals
   8:../../libDaisy//src/per/i2c.h ****  *  after it was initialised. It can then be copied and passed around.
   9:../../libDaisy//src/per/i2c.h ****  *  Use an I2CHandle like this:
  10:../../libDaisy//src/per/i2c.h ****  *  
  11:../../libDaisy//src/per/i2c.h ****  *      // setup the configuration
  12:../../libDaisy//src/per/i2c.h ****  *      I2CHandle::Config i2c_conf;
  13:../../libDaisy//src/per/i2c.h ****  *      i2c_conf.periph = I2CHandle::Config::Peripheral::I2C_1;
  14:../../libDaisy//src/per/i2c.h ****  *      i2c_conf.speed  = I2CHandle::Config::Speed::I2C_400KHZ;
  15:../../libDaisy//src/per/i2c.h ****  *      i2c_conf.mode   = I2CHandle::Config::Mode::Master;
  16:../../libDaisy//src/per/i2c.h ****  *      i2c_conf.pin_config.scl  = {DSY_GPIOB, 8};
  17:../../libDaisy//src/per/i2c.h ****  *      i2c_conf.pin_config.sda  = {DSY_GPIOB, 9};
  18:../../libDaisy//src/per/i2c.h ****  *      // initialise the peripheral
  19:../../libDaisy//src/per/i2c.h ****  *      I2CHandle i2c;
  20:../../libDaisy//src/per/i2c.h ****  *      i2c.Init(i2c_conf);
  21:../../libDaisy//src/per/i2c.h ****  *      // now i2c points to the corresponding peripheral and can be used.
  22:../../libDaisy//src/per/i2c.h ****  *      i2c.TransmitBlocking( ... );
  23:../../libDaisy//src/per/i2c.h ****  */
  24:../../libDaisy//src/per/i2c.h **** class I2CHandle
  25:../../libDaisy//src/per/i2c.h **** {
  26:../../libDaisy//src/per/i2c.h ****   public:
  27:../../libDaisy//src/per/i2c.h ****     /** Contains settings for initialising an I2C interface. */
  28:../../libDaisy//src/per/i2c.h ****     struct Config
 495              		.loc 8 28 12 view .LVU102
 496 000a 1026     		movs	r6, #16
 497              	.LBE368:
 498              	.LBE367:
 499              		.loc 7 22 9 view .LVU103
 500 000c FFF7FEFF 		bl	_ZN5daisy9DaisySeed4InitEb
 501              	.LVL24:
  23:i2cComm.cpp   **** 	hw.StartLog (true); /* true == wait for PC: will block until a terminal is connected */
 502              		.loc 7 23 2 is_stmt 1 view .LVU104
 503              	.LBB370:
 504              	.LBI370:
  23:../../libDaisy//src/daisy_seed.h **** 
  24:../../libDaisy//src/daisy_seed.h ****     /** This function used to provide a pre-initialization configuraiton 
  25:../../libDaisy//src/daisy_seed.h ****      *  it has since been deprecated, and does nothing.
  26:../../libDaisy//src/daisy_seed.h ****      */
  27:../../libDaisy//src/daisy_seed.h ****     void Configure();
  28:../../libDaisy//src/daisy_seed.h **** 
  29:../../libDaisy//src/daisy_seed.h ****     /** 
  30:../../libDaisy//src/daisy_seed.h ****     Initializes the Daisy Seed and the following peripherals:
  31:../../libDaisy//src/daisy_seed.h ****     SDRAM, QSPI, 24-bit 48kHz Audio via AK4556, Internal USB,
  32:../../libDaisy//src/daisy_seed.h ****     as well as the built-in LED and Testpoint.
  33:../../libDaisy//src/daisy_seed.h **** 
ARM GAS  C:\Users\matte\AppData\Local\Temp\ccayzbuB.s 			page 25


  34:../../libDaisy//src/daisy_seed.h ****     ADCs, DACs, and other special peripherals (such as I2C, SPI, etc.)
  35:../../libDaisy//src/daisy_seed.h ****     can be initialized using their specific initializers within libdaisy
  36:../../libDaisy//src/daisy_seed.h ****     for a specific application.
  37:../../libDaisy//src/daisy_seed.h ****     */
  38:../../libDaisy//src/daisy_seed.h ****     void Init(bool boost = false);
  39:../../libDaisy//src/daisy_seed.h **** 
  40:../../libDaisy//src/daisy_seed.h ****     /** 
  41:../../libDaisy//src/daisy_seed.h ****     Deinitializes all peripherals automatically handled by `Init`.
  42:../../libDaisy//src/daisy_seed.h ****     */
  43:../../libDaisy//src/daisy_seed.h ****     void DeInit();
  44:../../libDaisy//src/daisy_seed.h **** 
  45:../../libDaisy//src/daisy_seed.h ****     /** 
  46:../../libDaisy//src/daisy_seed.h ****     Wait some ms before going on.
  47:../../libDaisy//src/daisy_seed.h ****     \param del Delay time in ms.
  48:../../libDaisy//src/daisy_seed.h ****     */
  49:../../libDaisy//src/daisy_seed.h ****     void DelayMs(size_t del);
  50:../../libDaisy//src/daisy_seed.h **** 
  51:../../libDaisy//src/daisy_seed.h ****     /** 
  52:../../libDaisy//src/daisy_seed.h ****     Returns the gpio_pin corresponding to the index 0-31.
  53:../../libDaisy//src/daisy_seed.h ****     For the given GPIO on the Daisy Seed (labeled 1-32 in docs).
  54:../../libDaisy//src/daisy_seed.h ****     */
  55:../../libDaisy//src/daisy_seed.h ****     static dsy_gpio_pin GetPin(uint8_t pin_idx);
  56:../../libDaisy//src/daisy_seed.h **** 
  57:../../libDaisy//src/daisy_seed.h ****     /** Begins the audio for the seeds builtin audio.
  58:../../libDaisy//src/daisy_seed.h ****     the specified callback will get called whenever
  59:../../libDaisy//src/daisy_seed.h ****     new data is ready to be prepared.
  60:../../libDaisy//src/daisy_seed.h ****     */
  61:../../libDaisy//src/daisy_seed.h ****     void StartAudio(AudioHandle::InterleavingAudioCallback cb);
  62:../../libDaisy//src/daisy_seed.h **** 
  63:../../libDaisy//src/daisy_seed.h ****     /** Begins the audio for the seeds builtin audio.
  64:../../libDaisy//src/daisy_seed.h ****     the specified callback will get called whenever
  65:../../libDaisy//src/daisy_seed.h ****     new data is ready to be prepared.
  66:../../libDaisy//src/daisy_seed.h ****     This will use the newer non-interleaved callback.
  67:../../libDaisy//src/daisy_seed.h ****     */
  68:../../libDaisy//src/daisy_seed.h ****     void StartAudio(AudioHandle::AudioCallback cb);
  69:../../libDaisy//src/daisy_seed.h **** 
  70:../../libDaisy//src/daisy_seed.h ****     /** Changes to a new interleaved callback
  71:../../libDaisy//src/daisy_seed.h ****      */
  72:../../libDaisy//src/daisy_seed.h ****     void ChangeAudioCallback(AudioHandle::InterleavingAudioCallback cb);
  73:../../libDaisy//src/daisy_seed.h **** 
  74:../../libDaisy//src/daisy_seed.h ****     /** Changes to a new multichannel callback
  75:../../libDaisy//src/daisy_seed.h ****      */
  76:../../libDaisy//src/daisy_seed.h ****     void ChangeAudioCallback(AudioHandle::AudioCallback cb);
  77:../../libDaisy//src/daisy_seed.h **** 
  78:../../libDaisy//src/daisy_seed.h ****     /** Stops the audio if it is running. */
  79:../../libDaisy//src/daisy_seed.h ****     void StopAudio();
  80:../../libDaisy//src/daisy_seed.h **** 
  81:../../libDaisy//src/daisy_seed.h ****     /** Updates the Audio Sample Rate, and reinitializes.
  82:../../libDaisy//src/daisy_seed.h ****      ** Audio must be stopped for this to work.
  83:../../libDaisy//src/daisy_seed.h ****      */
  84:../../libDaisy//src/daisy_seed.h ****     void SetAudioSampleRate(SaiHandle::Config::SampleRate samplerate);
  85:../../libDaisy//src/daisy_seed.h **** 
  86:../../libDaisy//src/daisy_seed.h ****     /** Returns the audio sample rate in Hz as a floating point number.
  87:../../libDaisy//src/daisy_seed.h ****      */
  88:../../libDaisy//src/daisy_seed.h ****     float AudioSampleRate();
  89:../../libDaisy//src/daisy_seed.h **** 
  90:../../libDaisy//src/daisy_seed.h ****     /** Sets the number of samples processed per channel by the audio callback.
ARM GAS  C:\Users\matte\AppData\Local\Temp\ccayzbuB.s 			page 26


  91:../../libDaisy//src/daisy_seed.h ****      */
  92:../../libDaisy//src/daisy_seed.h ****     void SetAudioBlockSize(size_t blocksize);
  93:../../libDaisy//src/daisy_seed.h **** 
  94:../../libDaisy//src/daisy_seed.h ****     /** Returns the number of samples per channel in a block of audio. */
  95:../../libDaisy//src/daisy_seed.h ****     size_t AudioBlockSize();
  96:../../libDaisy//src/daisy_seed.h **** 
  97:../../libDaisy//src/daisy_seed.h ****     /** Returns the rate in Hz that the Audio callback is called */
  98:../../libDaisy//src/daisy_seed.h ****     float AudioCallbackRate() const;
  99:../../libDaisy//src/daisy_seed.h **** 
 100:../../libDaisy//src/daisy_seed.h ****     /** Returns the SAI Handle for the Daisy Seed 
 101:../../libDaisy//src/daisy_seed.h ****      *  This can be useful when adding a secondary codec,
 102:../../libDaisy//src/daisy_seed.h ****      *  the result of this function can be passed to the audio reinit 
 103:../../libDaisy//src/daisy_seed.h ****      *  with an SAI2 configuration
 104:../../libDaisy//src/daisy_seed.h ****      */
 105:../../libDaisy//src/daisy_seed.h ****     const SaiHandle& AudioSaiHandle() const;
 106:../../libDaisy//src/daisy_seed.h **** 
 107:../../libDaisy//src/daisy_seed.h ****     /** Sets the state of the built in LED
 108:../../libDaisy//src/daisy_seed.h ****      */
 109:../../libDaisy//src/daisy_seed.h ****     void SetLed(bool state);
 110:../../libDaisy//src/daisy_seed.h **** 
 111:../../libDaisy//src/daisy_seed.h ****     /** Sets the state of the test point near pin 10
 112:../../libDaisy//src/daisy_seed.h ****      */
 113:../../libDaisy//src/daisy_seed.h ****     void SetTestPoint(bool state);
 114:../../libDaisy//src/daisy_seed.h **** 
 115:../../libDaisy//src/daisy_seed.h ****     /** Print formatted debug log message
 116:../../libDaisy//src/daisy_seed.h ****      */
 117:../../libDaisy//src/daisy_seed.h ****     template <typename... VA>
 118:../../libDaisy//src/daisy_seed.h ****     static void Print(const char* format, VA... va)
 119:../../libDaisy//src/daisy_seed.h ****     {
 120:../../libDaisy//src/daisy_seed.h ****         Log::Print(format, va...);
 121:../../libDaisy//src/daisy_seed.h ****     }
 122:../../libDaisy//src/daisy_seed.h **** 
 123:../../libDaisy//src/daisy_seed.h ****     /** Print formatted debug log message with automatic line termination
 124:../../libDaisy//src/daisy_seed.h ****     */
 125:../../libDaisy//src/daisy_seed.h ****     template <typename... VA>
 126:../../libDaisy//src/daisy_seed.h ****     static void PrintLine(const char* format, VA... va)
 127:../../libDaisy//src/daisy_seed.h ****     {
 128:../../libDaisy//src/daisy_seed.h ****         Log::PrintLine(format, va...);
 129:../../libDaisy//src/daisy_seed.h ****     }
 130:../../libDaisy//src/daisy_seed.h **** 
 131:../../libDaisy//src/daisy_seed.h ****     /** Start the logging session. Optionally wait for terminal connection before proceeding.
 132:../../libDaisy//src/daisy_seed.h ****     */
 133:../../libDaisy//src/daisy_seed.h ****     static void StartLog(bool wait_for_pc = false)
 505              		.loc 1 133 17 view .LVU105
 506              	.LBB371:
 134:../../libDaisy//src/daisy_seed.h ****     {
 135:../../libDaisy//src/daisy_seed.h ****         Log::StartLog(wait_for_pc);
 507              		.loc 1 135 9 view .LVU106
 508              		.loc 1 135 22 is_stmt 0 view .LVU107
 509 0010 0120     		movs	r0, #1
 510 0012 FFF7FEFF 		bl	_ZN5daisy6LoggerILNS_17LoggerDestinationE1EE8StartLogEb
 511              	.LVL25:
 512              		.loc 1 135 22 view .LVU108
 513              	.LBE371:
 514              	.LBE370:
  24:i2cComm.cpp   **** 	hw.DelayMs(100);
 515              		.loc 7 24 2 is_stmt 1 view .LVU109
ARM GAS  C:\Users\matte\AppData\Local\Temp\ccayzbuB.s 			page 27


 516              		.loc 7 24 12 is_stmt 0 view .LVU110
 517 0016 6421     		movs	r1, #100
 518 0018 C248     		ldr	r0, .L16
  25:i2cComm.cpp   **** 	/*
  26:i2cComm.cpp   **** 	// first the transport must be set MAYBE NOT NEEDED
  27:i2cComm.cpp   **** 	daisy::Mpr121I2CTransport mprTransport;
  28:i2cComm.cpp   **** 
  29:i2cComm.cpp   **** 	// create the configuration object (struct already has a constructor)
  30:i2cComm.cpp   **** 	daisy::Mpr121I2CTransport::Config mprTransportConfig;
  31:i2cComm.cpp   **** 	mprTransport.Init(mprTransportConfig);
  32:i2cComm.cpp   **** */
  33:i2cComm.cpp   **** 	// setup the configuration TEST
  34:i2cComm.cpp   **** 	I2CHandle::Result res1;
  35:i2cComm.cpp   **** 	I2CHandle::Config i2c_conf;
  36:i2cComm.cpp   **** 	i2c_conf.periph = I2CHandle::Config::Peripheral::I2C_1;
  37:i2cComm.cpp   **** 	i2c_conf.speed  = I2CHandle::Config::Speed::I2C_400KHZ;
 519              		.loc 7 37 18 view .LVU111
 520 001a 4FF00108 		mov	r8, #1
  24:i2cComm.cpp   **** 	hw.DelayMs(100);
 521              		.loc 7 24 12 view .LVU112
 522 001e FFF7FEFF 		bl	_ZN5daisy9DaisySeed7DelayMsEj
 523              	.LVL26:
  34:i2cComm.cpp   **** 	I2CHandle::Config i2c_conf;
 524              		.loc 7 34 2 is_stmt 1 view .LVU113
  35:i2cComm.cpp   **** 	i2c_conf.periph = I2CHandle::Config::Peripheral::I2C_1;
 525              		.loc 7 35 2 view .LVU114
 526              	.LBB372:
 527              	.LBI367:
 528              		.loc 8 28 12 view .LVU115
 529              		.loc 8 28 12 is_stmt 0 view .LVU116
 530              	.LBE372:
  36:i2cComm.cpp   **** 	i2c_conf.speed  = I2CHandle::Config::Speed::I2C_400KHZ;
 531              		.loc 7 36 2 is_stmt 1 view .LVU117
 532              		.loc 7 37 2 view .LVU118
  38:i2cComm.cpp   **** 	i2c_conf.mode   = I2CHandle::Config::Mode::I2C_MASTER;
 533              		.loc 7 38 2 view .LVU119
  39:i2cComm.cpp   **** 	i2c_conf.pin_config.scl  = {DSY_GPIOB, 8}; // D11
 534              		.loc 7 39 2 view .LVU120
  40:i2cComm.cpp   **** 	i2c_conf.pin_config.sda  = {DSY_GPIOB, 9}; // D12
 535              		.loc 7 40 2 view .LVU121
  39:i2cComm.cpp   **** 	i2c_conf.pin_config.scl  = {DSY_GPIOB, 8}; // D11
 536              		.loc 7 39 27 is_stmt 0 view .LVU122
 537 0022 C14D     		ldr	r5, .L16+4
  36:i2cComm.cpp   **** 	i2c_conf.speed  = I2CHandle::Config::Speed::I2C_400KHZ;
 538              		.loc 7 36 18 view .LVU123
 539 0024 0023     		movs	r3, #0
  41:i2cComm.cpp   **** 	// initialise the peripheral
  42:i2cComm.cpp   **** 	I2CHandle i2c;
  43:i2cComm.cpp   **** 	res1 = i2c.Init(i2c_conf);
 540              		.loc 7 43 17 view .LVU124
 541 0026 0DEB0601 		add	r1, sp, r6
 542 002a 03A8     		add	r0, sp, #12
 543              	.LBB373:
 544              	.LBB369:
 545              		.loc 8 28 12 view .LVU125
 546 002c 8DF82060 		strb	r6, [sp, #32]
 547              	.LBE369:
ARM GAS  C:\Users\matte\AppData\Local\Temp\ccayzbuB.s 			page 28


 548              	.LBE373:
  42:i2cComm.cpp   **** 	res1 = i2c.Init(i2c_conf);
 549              		.loc 7 42 2 is_stmt 1 view .LVU126
 550              	.LVL27:
 551              	.LBB374:
 552              	.LBI374:
  29:../../libDaisy//src/per/i2c.h ****     {
  30:../../libDaisy//src/per/i2c.h ****         /** Specifies whether the interface will operate in master or slave mode. */
  31:../../libDaisy//src/per/i2c.h ****         enum class Mode
  32:../../libDaisy//src/per/i2c.h ****         {
  33:../../libDaisy//src/per/i2c.h ****             I2C_MASTER,
  34:../../libDaisy//src/per/i2c.h ****             I2C_SLAVE,
  35:../../libDaisy//src/per/i2c.h ****         };
  36:../../libDaisy//src/per/i2c.h **** 
  37:../../libDaisy//src/per/i2c.h ****         /** Specifices the internal peripheral to use (these are mapped to different pins on the ha
  38:../../libDaisy//src/per/i2c.h ****         enum class Peripheral
  39:../../libDaisy//src/per/i2c.h ****         {
  40:../../libDaisy//src/per/i2c.h ****             I2C_1 = 0, /**< & */
  41:../../libDaisy//src/per/i2c.h ****             I2C_2,     /**< & */
  42:../../libDaisy//src/per/i2c.h ****             I2C_3,     /**< & */
  43:../../libDaisy//src/per/i2c.h ****             I2C_4,     /**< & */
  44:../../libDaisy//src/per/i2c.h ****         };
  45:../../libDaisy//src/per/i2c.h **** 
  46:../../libDaisy//src/per/i2c.h ****         /** Rate at which the clock/data will be sent/received. The device being used will have max
  47:../../libDaisy//src/per/i2c.h ****          *  1MHZ Mode is currently 886kHz
  48:../../libDaisy//src/per/i2c.h ****          */
  49:../../libDaisy//src/per/i2c.h ****         enum class Speed
  50:../../libDaisy//src/per/i2c.h ****         {
  51:../../libDaisy//src/per/i2c.h ****             I2C_100KHZ, /**< & */
  52:../../libDaisy//src/per/i2c.h ****             I2C_400KHZ, /**< & */
  53:../../libDaisy//src/per/i2c.h ****             I2C_1MHZ,   /**< & */
  54:../../libDaisy//src/per/i2c.h ****         };
  55:../../libDaisy//src/per/i2c.h **** 
  56:../../libDaisy//src/per/i2c.h ****         Peripheral periph; /**< & */
  57:../../libDaisy//src/per/i2c.h ****         struct
  58:../../libDaisy//src/per/i2c.h ****         {
  59:../../libDaisy//src/per/i2c.h ****             dsy_gpio_pin scl; /**< & */
  60:../../libDaisy//src/per/i2c.h ****             dsy_gpio_pin sda; /**< & */
  61:../../libDaisy//src/per/i2c.h ****         } pin_config;         /**< & */
  62:../../libDaisy//src/per/i2c.h **** 
  63:../../libDaisy//src/per/i2c.h ****         Speed speed; /**< & */
  64:../../libDaisy//src/per/i2c.h ****         Mode  mode;  /**< & */
  65:../../libDaisy//src/per/i2c.h ****         // 0x10 is chosen as a default to avoid conflicts with reserved addresses
  66:../../libDaisy//src/per/i2c.h ****         uint8_t address = 0x10; /**< & */
  67:../../libDaisy//src/per/i2c.h ****     };
  68:../../libDaisy//src/per/i2c.h **** 
  69:../../libDaisy//src/per/i2c.h ****     /** Return values for I2C functions. */
  70:../../libDaisy//src/per/i2c.h ****     enum class Result
  71:../../libDaisy//src/per/i2c.h ****     {
  72:../../libDaisy//src/per/i2c.h ****         OK, /**< & */
  73:../../libDaisy//src/per/i2c.h ****         ERR /**< & */
  74:../../libDaisy//src/per/i2c.h ****     };
  75:../../libDaisy//src/per/i2c.h **** 
  76:../../libDaisy//src/per/i2c.h ****     enum class Direction
  77:../../libDaisy//src/per/i2c.h ****     {
  78:../../libDaisy//src/per/i2c.h ****         TRANSMIT, /**< & */
  79:../../libDaisy//src/per/i2c.h ****         RECEIVE,  /**< & */
ARM GAS  C:\Users\matte\AppData\Local\Temp\ccayzbuB.s 			page 29


  80:../../libDaisy//src/per/i2c.h ****     };
  81:../../libDaisy//src/per/i2c.h **** 
  82:../../libDaisy//src/per/i2c.h ****     I2CHandle() : pimpl_(nullptr) {}
 553              		.loc 8 82 5 view .LVU127
 554              	.LBB375:
 555              	.LBB376:
 556              		.loc 8 82 33 is_stmt 0 view .LVU128
 557 0030 0393     		str	r3, [sp, #12]
 558              	.LVL28:
 559              		.loc 8 82 33 view .LVU129
 560              	.LBE376:
 561              	.LBE375:
 562              	.LBE374:
 563              		.loc 7 43 2 is_stmt 1 view .LVU130
  36:i2cComm.cpp   **** 	i2c_conf.speed  = I2CHandle::Config::Speed::I2C_400KHZ;
 564              		.loc 7 36 18 is_stmt 0 view .LVU131
 565 0032 CDE90435 		strd	r3, r5, [sp, #16]
  38:i2cComm.cpp   **** 	i2c_conf.pin_config.scl  = {DSY_GPIOB, 8}; // D11
 566              		.loc 7 38 18 view .LVU132
 567 0036 CDE90683 		strd	r8, r3, [sp, #24]
 568              		.loc 7 43 17 view .LVU133
 569 003a FFF7FEFF 		bl	_ZN5daisy9I2CHandle4InitERKNS0_6ConfigE
 570              	.LVL29:
  44:i2cComm.cpp   **** 	
  45:i2cComm.cpp   **** 	if (res1 == I2CHandle::Result::OK){
 571              		.loc 7 45 2 is_stmt 1 view .LVU134
 572 003e 0028     		cmp	r0, #0
 573 0040 40F0A881 		bne	.L10
  46:i2cComm.cpp   **** 		hw.PrintLine("OK");
 574              		.loc 7 46 3 view .LVU135
 575              	.LVL30:
 576              	.LBB377:
 577              	.LBI377:
 126:../../libDaisy//src/daisy_seed.h ****     {
 578              		.loc 1 126 17 view .LVU136
 579 0044 0446     		mov	r4, r0
 580              	.LBB378:
 128:../../libDaisy//src/daisy_seed.h ****     }
 581              		.loc 1 128 23 is_stmt 0 view .LVU137
 582 0046 B948     		ldr	r0, .L16+8
 583              	.LVL31:
 128:../../libDaisy//src/daisy_seed.h ****     }
 584              		.loc 1 128 23 view .LVU138
 585 0048 FFF7FEFF 		bl	_ZN5daisy6LoggerILNS_17LoggerDestinationE1EE9PrintLineEPKcz
 586              	.LVL32:
 128:../../libDaisy//src/daisy_seed.h ****     }
 587              		.loc 1 128 23 view .LVU139
 588              	.LBE378:
 589              	.LBE377:
  47:i2cComm.cpp   **** 	}
  48:i2cComm.cpp   **** 	else {
  49:i2cComm.cpp   **** 		hw.PrintLine("not ok");
  50:i2cComm.cpp   **** 		while (1);
  51:i2cComm.cpp   **** 	}
  52:i2cComm.cpp   **** 	
  53:i2cComm.cpp   **** 
  54:i2cComm.cpp   **** 	// creates object for mpr121
ARM GAS  C:\Users\matte\AppData\Local\Temp\ccayzbuB.s 			page 30


  55:i2cComm.cpp   **** 	daisy::Mpr121I2C mpr121Obj;
 590              		.loc 7 55 2 is_stmt 1 view .LVU140
 591              	.LBB379:
 592              	.LBI379:
 103:../../libDaisy//src/dev/mpr121.h ****     ~Mpr121() {}
 593              		.loc 6 103 5 view .LVU141
 594              	.LBB380:
 595              	.LBB381:
 596              	.LBI381:
 112:../../libDaisy//src/dev/mpr121.h ****         {
 597              		.loc 6 112 9 view .LVU142
 598              	.LBB382:
 599              	.LBB383:
 600              	.LBI383:
  35:../../libDaisy//src/dev/mpr121.h ****         {
 601              		.loc 6 35 9 view .LVU143
 602              	.LBE383:
 603              	.LBE382:
 604              	.LBE381:
 605              	.LBE380:
 606              	.LBE379:
  37:../../libDaisy//src/dev/mpr121.h ****             speed  = I2CHandle::Config::Speed::I2C_400KHZ;
 607              		.loc 6 37 13 view .LVU144
  38:../../libDaisy//src/dev/mpr121.h **** 
 608              		.loc 6 38 13 view .LVU145
  41:../../libDaisy//src/dev/mpr121.h ****             sda = {DSY_GPIOB, 9};
 609              		.loc 6 41 13 view .LVU146
  42:../../libDaisy//src/dev/mpr121.h **** 
 610              		.loc 6 42 13 view .LVU147
  46:../../libDaisy//src/dev/mpr121.h ****         }
 611              		.loc 6 46 13 view .LVU148
 612              	.LBB397:
 613              	.LBB393:
 614              	.LBB384:
 615              	.LBI384:
  20:../../libDaisy//src/dev/mpr121.h ****     ~Mpr121I2CTransport() {}
 616              		.loc 6 20 5 view .LVU149
 617              	.LBB385:
 618              	.LBB386:
 619              	.LBI386:
 620              		.loc 8 82 5 view .LVU150
 621              		.loc 8 82 5 is_stmt 0 view .LVU151
 622              	.LBE386:
 623              	.LBB389:
 624              	.LBI389:
  35:../../libDaisy//src/dev/mpr121.h ****         {
 625              		.loc 6 35 9 is_stmt 1 view .LVU152
 626              	.LBE389:
 627              	.LBE385:
 628              	.LBE384:
 629              	.LBE393:
 630              	.LBE397:
  37:../../libDaisy//src/dev/mpr121.h ****             speed  = I2CHandle::Config::Speed::I2C_400KHZ;
 631              		.loc 6 37 13 view .LVU153
  38:../../libDaisy//src/dev/mpr121.h **** 
 632              		.loc 6 38 13 view .LVU154
  41:../../libDaisy//src/dev/mpr121.h ****             sda = {DSY_GPIOB, 9};
ARM GAS  C:\Users\matte\AppData\Local\Temp\ccayzbuB.s 			page 31


 633              		.loc 6 41 13 view .LVU155
  42:../../libDaisy//src/dev/mpr121.h **** 
 634              		.loc 6 42 13 view .LVU156
  46:../../libDaisy//src/dev/mpr121.h ****         }
 635              		.loc 6 46 13 view .LVU157
  56:i2cComm.cpp   **** 
  57:i2cComm.cpp   **** 	// creates variable to check output of functions
  58:i2cComm.cpp   **** 	daisy::Mpr121I2C::Result res;
 636              		.loc 7 58 2 view .LVU158
  59:i2cComm.cpp   **** 	// creates config for mpr121 (constructor sets all to deafult)
  60:i2cComm.cpp   **** 	daisy::Mpr121I2C::Config mpr121ObjConf;
 637              		.loc 7 60 2 view .LVU159
 638              	.LBB398:
 639              	.LBI398:
 112:../../libDaisy//src/dev/mpr121.h ****         {
 640              		.loc 6 112 9 view .LVU160
 641              	.LBB399:
 642              	.LBI399:
  35:../../libDaisy//src/dev/mpr121.h ****         {
 643              		.loc 6 35 9 view .LVU161
 644              	.LBE399:
 645              	.LBE398:
  37:../../libDaisy//src/dev/mpr121.h ****             speed  = I2CHandle::Config::Speed::I2C_400KHZ;
 646              		.loc 6 37 13 view .LVU162
  38:../../libDaisy//src/dev/mpr121.h **** 
 647              		.loc 6 38 13 view .LVU163
  41:../../libDaisy//src/dev/mpr121.h ****             sda = {DSY_GPIOB, 9};
 648              		.loc 6 41 13 view .LVU164
  42:../../libDaisy//src/dev/mpr121.h **** 
 649              		.loc 6 42 13 view .LVU165
  46:../../libDaisy//src/dev/mpr121.h ****         }
 650              		.loc 6 46 13 view .LVU166
  61:i2cComm.cpp   **** 
  62:i2cComm.cpp   **** 	// init the object and checks return val
  63:i2cComm.cpp   **** 	// check not working
  64:i2cComm.cpp   **** 	res = mpr121Obj.Init(mpr121ObjConf);
 651              		.loc 7 64 2 view .LVU167
 652              	.LBB400:
 653              	.LBI400:
 128:../../libDaisy//src/dev/mpr121.h ****     {
 654              		.loc 6 128 12 view .LVU168
 655              	.LBE400:
 656              	.LBB576:
 657              	.LBB394:
 103:../../libDaisy//src/dev/mpr121.h ****     ~Mpr121() {}
 658              		.loc 6 103 5 is_stmt 0 view .LVU169
 659 004c 4FF05A09 		mov	r9, #90
 660 0050 40F20C63 		movw	r3, #1548
 661 0054 0DF14C0E 		add	lr, sp, #76
 662              	.LVL33:
 103:../../libDaisy//src/dev/mpr121.h ****     ~Mpr121() {}
 663              		.loc 6 103 5 view .LVU170
 664 0058 1595     		str	r5, [sp, #84]
 665 005a 09AF     		add	r7, sp, #36
 666              	.LBE394:
 667              	.LBE576:
 668              	.LBB577:
ARM GAS  C:\Users\matte\AppData\Local\Temp\ccayzbuB.s 			page 32


 669              	.LBB401:
 670              	.LBB402:
 671              	.LBB403:
 672              	.LBB404:
 673              	.LBB405:
  28:../../libDaisy//src/per/i2c.h ****     {
 674              		.loc 8 28 12 view .LVU171
 675 005c 8DF84860 		strb	r6, [sp, #72]
 676              	.LBE405:
 677              	.LBE404:
  53:../../libDaisy//src/dev/mpr121.h **** 
 678              		.loc 6 53 17 view .LVU172
 679 0060 1AAE     		add	r6, sp, #104
 680 0062 BC46     		mov	ip, r7
  58:../../libDaisy//src/dev/mpr121.h **** 
 681              		.loc 6 58 25 view .LVU173
 682 0064 CDF84080 		str	r8, [sp, #64]
 683              	.LBE403:
 684              	.LBE402:
 685              	.LBE401:
 686              	.LBE577:
 687              	.LBB578:
 688              	.LBB395:
 689              	.LBB392:
 690              	.LBB391:
 691              	.LBB390:
 692              	.LBB387:
 693              	.LBB388:
 694              		.loc 8 82 33 view .LVU174
 695 0068 1994     		str	r4, [sp, #100]
 696              	.LVL34:
 697              		.loc 8 82 33 view .LVU175
 698              	.LBE388:
 699              	.LBE387:
 700              	.LBE390:
 701              	.LBE391:
 702              	.LBE392:
 703              	.LBE395:
 704              	.LBE578:
 705              	.LBB579:
 706              	.LBB573:
 146:../../libDaisy//src/dev/mpr121.h ****         WriteRegister(MPR121_MHDR, 0x01);
 707              		.loc 6 146 22 view .LVU176
 708 006a 4125     		movs	r5, #65
 709              	.LBB410:
 710              	.LBB407:
  56:../../libDaisy//src/dev/mpr121.h ****         i2c_conf.periph = config.periph;
 711              		.loc 6 56 25 view .LVU177
 712 006c 1194     		str	r4, [sp, #68]
  57:../../libDaisy//src/dev/mpr121.h ****         i2c_conf.speed  = config.speed;
 713              		.loc 6 57 25 view .LVU178
 714 006e 0E94     		str	r4, [sp, #56]
 715              	.LBE407:
 716              	.LBE410:
 130:../../libDaisy//src/dev/mpr121.h **** 
 717              		.loc 6 130 9 view .LVU179
 718 0070 CDE91348 		strd	r4, r8, [sp, #76]
ARM GAS  C:\Users\matte\AppData\Local\Temp\ccayzbuB.s 			page 33


 719              	.LBE573:
 720              	.LBE579:
 721              	.LBB580:
 722              	.LBB396:
 103:../../libDaisy//src/dev/mpr121.h ****     ~Mpr121() {}
 723              		.loc 6 103 5 view .LVU180
 724 0074 CDE91793 		strd	r9, r3, [sp, #92]
 725 0078 BEE80F00 		ldmia	lr!, {r0, r1, r2, r3}
 726              	.LVL35:
 103:../../libDaisy//src/dev/mpr121.h ****     ~Mpr121() {}
 727              		.loc 6 103 5 view .LVU181
 728 007c 0FC7     		stmia	r7!, {r0, r1, r2, r3}
 729              	.LBE396:
 730              	.LBE580:
 731              	.LBB581:
 732              	.LBB574:
 733              	.LBB411:
 734              	.LBB408:
  60:../../libDaisy//src/dev/mpr121.h ****         i2c_conf.pin_config.sda = config.sda;
 735              		.loc 6 60 33 view .LVU182
 736 007e BDF82C30 		ldrh	r3, [sp, #44]
 737 0082 C7F80090 		str	r9, [r7]
 738              	.LBE408:
 739              	.LBI402:
  51:../../libDaisy//src/dev/mpr121.h ****     {
 740              		.loc 6 51 17 is_stmt 1 view .LVU183
 741              	.LBB409:
  53:../../libDaisy//src/dev/mpr121.h **** 
 742              		.loc 6 53 9 view .LVU184
  60:../../libDaisy//src/dev/mpr121.h ****         i2c_conf.pin_config.sda = config.sda;
 743              		.loc 6 60 33 is_stmt 0 view .LVU185
 744 0086 ADF83C30 		strh	r3, [sp, #60]	@ movhi
  61:../../libDaisy//src/dev/mpr121.h ****         I2CHandle::Result res;
 745              		.loc 6 61 33 view .LVU186
 746 008a BDF82E30 		ldrh	r3, [sp, #46]
 747 008e ADF83E30 		strh	r3, [sp, #62]	@ movhi
  53:../../libDaisy//src/dev/mpr121.h **** 
 748              		.loc 6 53 17 view .LVU187
 749 0092 BCE80F00 		ldmia	ip!, {r0, r1, r2, r3}
 750 0096 0FC6     		stmia	r6!, {r0, r1, r2, r3}
  63:../../libDaisy//src/dev/mpr121.h ****         if (res == I2CHandle::Result::ERR)
 751              		.loc 6 63 24 view .LVU188
 752 0098 0EA9     		add	r1, sp, #56
  53:../../libDaisy//src/dev/mpr121.h **** 
 753              		.loc 6 53 17 view .LVU189
 754 009a 86F80090 		strb	r9, [r6]
  55:../../libDaisy//src/dev/mpr121.h ****         i2c_conf.mode   = I2CHandle::Config::Mode::I2C_MASTER;
 755              		.loc 6 55 9 is_stmt 1 view .LVU190
 756              	.LVL36:
 757              	.LBB406:
 758              	.LBI404:
  28:../../libDaisy//src/per/i2c.h ****     {
 759              		.loc 8 28 12 view .LVU191
  28:../../libDaisy//src/per/i2c.h ****     {
 760              		.loc 8 28 12 is_stmt 0 view .LVU192
 761              	.LBE406:
  56:../../libDaisy//src/dev/mpr121.h ****         i2c_conf.periph = config.periph;
ARM GAS  C:\Users\matte\AppData\Local\Temp\ccayzbuB.s 			page 34


 762              		.loc 6 56 9 is_stmt 1 view .LVU193
  57:../../libDaisy//src/dev/mpr121.h ****         i2c_conf.speed  = config.speed;
 763              		.loc 6 57 9 view .LVU194
  58:../../libDaisy//src/dev/mpr121.h **** 
 764              		.loc 6 58 9 view .LVU195
  60:../../libDaisy//src/dev/mpr121.h ****         i2c_conf.pin_config.sda = config.sda;
 765              		.loc 6 60 9 view .LVU196
  61:../../libDaisy//src/dev/mpr121.h ****         I2CHandle::Result res;
 766              		.loc 6 61 9 view .LVU197
  62:../../libDaisy//src/dev/mpr121.h ****         res = i2c_.Init(i2c_conf);
 767              		.loc 6 62 9 view .LVU198
  63:../../libDaisy//src/dev/mpr121.h ****         if (res == I2CHandle::Result::ERR)
 768              		.loc 6 63 9 view .LVU199
  63:../../libDaisy//src/dev/mpr121.h ****         if (res == I2CHandle::Result::ERR)
 769              		.loc 6 63 24 is_stmt 0 view .LVU200
 770 009e 19A8     		add	r0, sp, #100
 771              	.LVL37:
  63:../../libDaisy//src/dev/mpr121.h ****         if (res == I2CHandle::Result::ERR)
 772              		.loc 6 63 24 view .LVU201
 773 00a0 FFF7FEFF 		bl	_ZN5daisy9I2CHandle4InitERKNS0_6ConfigE
 774              	.LVL38:
  64:../../libDaisy//src/dev/mpr121.h ****             return true;
 775              		.loc 6 64 9 is_stmt 1 view .LVU202
  64:../../libDaisy//src/dev/mpr121.h ****             return true;
 776              		.loc 6 64 9 is_stmt 0 view .LVU203
 777              	.LBE409:
 778              	.LBE411:
 779              	.LBB412:
 780              	.LBI412:
 781              		.loc 6 373 10 is_stmt 1 view .LVU204
 782              	.LBB413:
 783              		.loc 6 373 55 is_stmt 0 view .LVU205
 784 00a4 9DF87C30 		ldrb	r3, [sp, #124]	@ zero_extendqisi2
 785              	.LBE413:
 786              	.LBE412:
 135:../../libDaisy//src/dev/mpr121.h ****         System::Delay(1);
 787              		.loc 6 135 22 view .LVU206
 788 00a8 8021     		movs	r1, #128
 789 00aa 6322     		movs	r2, #99
 790              	.LBB416:
 791              	.LBB414:
 792              		.loc 6 373 55 view .LVU207
 793 00ac 4045     		cmp	r0, r8
 794 00ae 08BF     		it	eq
 795 00b0 43F00103 		orreq	r3, r3, #1
 796              	.LBE414:
 797              	.LBE416:
 135:../../libDaisy//src/dev/mpr121.h ****         System::Delay(1);
 798              		.loc 6 135 22 view .LVU208
 799 00b4 13A8     		add	r0, sp, #76
 800              	.LVL39:
 801              	.LBB417:
 802              	.LBB415:
 803              		.loc 6 373 55 view .LVU209
 804 00b6 8DF87C30 		strb	r3, [sp, #124]
 805              	.LVL40:
 806              		.loc 6 373 55 view .LVU210
ARM GAS  C:\Users\matte\AppData\Local\Temp\ccayzbuB.s 			page 35


 807              	.LBE415:
 808              	.LBE417:
 135:../../libDaisy//src/dev/mpr121.h ****         System::Delay(1);
 809              		.loc 6 135 22 view .LVU211
 810 00ba FFF7FEFF 		bl	_ZN5daisy6Mpr121INS_18Mpr121I2CTransportEE13WriteRegisterEhh
 811              	.LVL41:
 136:../../libDaisy//src/dev/mpr121.h **** 
 812              		.loc 6 136 22 view .LVU212
 813 00be 4046     		mov	r0, r8
 814 00c0 FFF7FEFF 		bl	_ZN5daisy6System5DelayEm
 815              	.LVL42:
 138:../../libDaisy//src/dev/mpr121.h **** 
 816              		.loc 6 138 22 view .LVU213
 817 00c4 2246     		mov	r2, r4
 818 00c6 5E21     		movs	r1, #94
 819 00c8 13A8     		add	r0, sp, #76
 820              	.LVL43:
 138:../../libDaisy//src/dev/mpr121.h **** 
 821              		.loc 6 138 22 view .LVU214
 822 00ca FFF7FEFF 		bl	_ZN5daisy6Mpr121INS_18Mpr121I2CTransportEE13WriteRegisterEhh
 823              	.LVL44:
 146:../../libDaisy//src/dev/mpr121.h ****         WriteRegister(MPR121_MHDR, 0x01);
 824              		.loc 6 146 22 view .LVU215
 825 00ce 9DF86090 		ldrb	r9, [sp, #96]	@ zero_extendqisi2
 826 00d2 9DF86180 		ldrb	r8, [sp, #97]	@ zero_extendqisi2
 827              	.LVL45:
 828              	.LBB418:
 829              	.LBI418:
 190:../../libDaisy//src/dev/mpr121.h ****     {
 830              		.loc 6 190 10 is_stmt 1 view .LVU216
 831              	.LBB419:
 193:../../libDaisy//src/dev/mpr121.h ****         {
 832              		.loc 6 193 30 view .LVU217
 833              	.L11:
 834              	.LBB420:
 835              	.LBI420:
 275:../../libDaisy//src/dev/mpr121.h ****     {
 836              		.loc 6 275 10 view .LVU218
 837              	.LBB421:
 838              	.LBB422:
 839              	.LBB423:
  75:../../libDaisy//src/dev/mpr121.h ****     }
 840              		.loc 6 75 40 is_stmt 0 view .LVU219
 841 00d6 0A24     		movs	r4, #10
 842              	.LBE423:
 843              	.LBE422:
 282:../../libDaisy//src/dev/mpr121.h **** 
 844              		.loc 6 282 17 view .LVU220
 845 00d8 0027     		movs	r7, #0
 846 00da 5E26     		movs	r6, #94
 847              	.LBB426:
 848              	.LBB424:
  75:../../libDaisy//src/dev/mpr121.h ****     }
 849              		.loc 6 75 40 view .LVU221
 850 00dc 0123     		movs	r3, #1
 851 00de 0EAA     		add	r2, sp, #56
 852 00e0 9DF87810 		ldrb	r1, [sp, #120]	@ zero_extendqisi2
ARM GAS  C:\Users\matte\AppData\Local\Temp\ccayzbuB.s 			page 36


 853 00e4 19A8     		add	r0, sp, #100
 854 00e6 0094     		str	r4, [sp]
 855              	.LBE424:
 856              	.LBE426:
 282:../../libDaisy//src/dev/mpr121.h **** 
 857              		.loc 6 282 17 view .LVU222
 858 00e8 8DF83970 		strb	r7, [sp, #57]
 859 00ec 8DF83860 		strb	r6, [sp, #56]
 860              	.LVL46:
 861              	.LBB427:
 862              	.LBI422:
  72:../../libDaisy//src/dev/mpr121.h ****     {
 863              		.loc 6 72 10 is_stmt 1 view .LVU223
 864              	.LBB425:
  74:../../libDaisy//src/dev/mpr121.h ****                != i2c_.TransmitBlocking(config_.dev_addr, data, size, 10);
 865              		.loc 6 74 9 view .LVU224
  75:../../libDaisy//src/dev/mpr121.h ****     }
 866              		.loc 6 75 40 is_stmt 0 view .LVU225
 867 00f0 FFF7FEFF 		bl	_ZN5daisy9I2CHandle16TransmitBlockingEtPhtm
 868              	.LVL47:
  75:../../libDaisy//src/dev/mpr121.h ****     }
 869              		.loc 6 75 40 view .LVU226
 870              	.LBE425:
 871              	.LBE427:
 872              	.LBB428:
 873              	.LBI428:
 874              		.loc 6 373 10 is_stmt 1 view .LVU227
 875              	.LBB429:
 876              		.loc 6 373 55 is_stmt 0 view .LVU228
 877 00f4 9DF87C20 		ldrb	r2, [sp, #124]	@ zero_extendqisi2
 878              	.LBE429:
 879              	.LBE428:
 880              	.LBB432:
 881              	.LBB433:
  82:../../libDaisy//src/dev/mpr121.h ****     }
 882              		.loc 6 82 39 view .LVU229
 883 00f8 0123     		movs	r3, #1
 884 00fa 9DF87810 		ldrb	r1, [sp, #120]	@ zero_extendqisi2
 885              	.LBE433:
 886              	.LBE432:
 887              	.LBB436:
 888              	.LBB430:
 889              		.loc 6 373 55 view .LVU230
 890 00fe B842     		cmp	r0, r7
 891 0100 18BF     		it	ne
 892 0102 42F00102 		orrne	r2, r2, #1
 893              	.LBE430:
 894              	.LBE436:
 895              	.LBB437:
 896              	.LBB434:
  82:../../libDaisy//src/dev/mpr121.h ****     }
 897              		.loc 6 82 39 view .LVU231
 898 0106 0094     		str	r4, [sp]
 899 0108 19A8     		add	r0, sp, #100
 900              	.LVL48:
  82:../../libDaisy//src/dev/mpr121.h ****     }
 901              		.loc 6 82 39 view .LVU232
ARM GAS  C:\Users\matte\AppData\Local\Temp\ccayzbuB.s 			page 37


 902              	.LBE434:
 903              	.LBE437:
 904              	.LBB438:
 905              	.LBB431:
 906              		.loc 6 373 55 view .LVU233
 907 010a 8DF87C20 		strb	r2, [sp, #124]
 908              	.LVL49:
 909              		.loc 6 373 55 view .LVU234
 910              	.LBE431:
 911              	.LBE438:
 912              	.LBB439:
 913              	.LBI432:
  79:../../libDaisy//src/dev/mpr121.h ****     {
 914              		.loc 6 79 10 is_stmt 1 view .LVU235
 915              	.LBB435:
  81:../../libDaisy//src/dev/mpr121.h ****                != i2c_.ReceiveBlocking(config_.dev_addr, data, size, 10);
 916              		.loc 6 81 9 view .LVU236
  82:../../libDaisy//src/dev/mpr121.h ****     }
 917              		.loc 6 82 39 is_stmt 0 view .LVU237
 918 010e 09AA     		add	r2, sp, #36
 919              	.LVL50:
  82:../../libDaisy//src/dev/mpr121.h ****     }
 920              		.loc 6 82 39 view .LVU238
 921 0110 FFF7FEFF 		bl	_ZN5daisy9I2CHandle15ReceiveBlockingEtPhtm
 922              	.LVL51:
  82:../../libDaisy//src/dev/mpr121.h ****     }
 923              		.loc 6 82 39 view .LVU239
 924              	.LBE435:
 925              	.LBE439:
 926              	.LBB440:
 927              	.LBI440:
 928              		.loc 6 373 10 is_stmt 1 view .LVU240
 929              	.LBB441:
 930              		.loc 6 373 55 is_stmt 0 view .LVU241
 931 0114 9DF87C20 		ldrb	r2, [sp, #124]	@ zero_extendqisi2
 932              	.LBE441:
 933              	.LBE440:
 934              	.LBB444:
 935              	.LBB445:
  75:../../libDaisy//src/dev/mpr121.h ****     }
 936              		.loc 6 75 40 view .LVU242
 937 0118 0223     		movs	r3, #2
 938 011a 9DF87810 		ldrb	r1, [sp, #120]	@ zero_extendqisi2
 939              	.LBE445:
 940              	.LBE444:
 941              	.LBB448:
 942              	.LBB442:
 943              		.loc 6 373 55 view .LVU243
 944 011e B842     		cmp	r0, r7
 945 0120 18BF     		it	ne
 946 0122 42F00102 		orrne	r2, r2, #1
 947              	.LBE442:
 948              	.LBE448:
 949              	.LBB449:
 950              	.LBB446:
  75:../../libDaisy//src/dev/mpr121.h ****     }
 951              		.loc 6 75 40 view .LVU244
ARM GAS  C:\Users\matte\AppData\Local\Temp\ccayzbuB.s 			page 38


 952 0126 0094     		str	r4, [sp]
 953 0128 19A8     		add	r0, sp, #100
 954              	.LVL52:
  75:../../libDaisy//src/dev/mpr121.h ****     }
 955              		.loc 6 75 40 view .LVU245
 956              	.LBE446:
 957              	.LBE449:
 958              	.LBB450:
 959              	.LBB443:
 960              		.loc 6 373 55 view .LVU246
 961 012a 8DF87C20 		strb	r2, [sp, #124]
 962              	.LVL53:
 963              		.loc 6 373 55 view .LVU247
 964              	.LBE443:
 965              	.LBE450:
 966              	.LBB451:
 967              	.LBI444:
  72:../../libDaisy//src/dev/mpr121.h ****     {
 968              		.loc 6 72 10 is_stmt 1 view .LVU248
 969              	.LBB447:
  74:../../libDaisy//src/dev/mpr121.h ****                != i2c_.TransmitBlocking(config_.dev_addr, data, size, 10);
 970              		.loc 6 74 9 view .LVU249
  75:../../libDaisy//src/dev/mpr121.h ****     }
 971              		.loc 6 75 40 is_stmt 0 view .LVU250
 972 012e 0EAA     		add	r2, sp, #56
 973              	.LVL54:
  75:../../libDaisy//src/dev/mpr121.h ****     }
 974              		.loc 6 75 40 view .LVU251
 975 0130 FFF7FEFF 		bl	_ZN5daisy9I2CHandle16TransmitBlockingEtPhtm
 976              	.LVL55:
  75:../../libDaisy//src/dev/mpr121.h ****     }
 977              		.loc 6 75 40 view .LVU252
 978              	.LBE447:
 979              	.LBE451:
 980              	.LBB452:
 981              	.LBI452:
 982              		.loc 6 373 10 is_stmt 1 view .LVU253
 983              	.LBB453:
 984              		.loc 6 373 55 is_stmt 0 view .LVU254
 985 0134 9DF87C20 		ldrb	r2, [sp, #124]	@ zero_extendqisi2
 986              	.LBE453:
 987              	.LBE452:
 988              	.LBB456:
 989              	.LBB457:
  75:../../libDaisy//src/dev/mpr121.h ****     }
 990              		.loc 6 75 40 view .LVU255
 991 0138 0223     		movs	r3, #2
 992 013a 9DF87810 		ldrb	r1, [sp, #120]	@ zero_extendqisi2
 993              	.LBE457:
 994              	.LBE456:
 995              	.LBB461:
 996              	.LBB454:
 997              		.loc 6 373 55 view .LVU256
 998 013e B842     		cmp	r0, r7
 999 0140 18BF     		it	ne
 1000 0142 42F00102 		orrne	r2, r2, #1
 1001              	.LBE454:
ARM GAS  C:\Users\matte\AppData\Local\Temp\ccayzbuB.s 			page 39


 1002              	.LBE461:
 1003              	.LBB462:
 1004              	.LBB458:
  75:../../libDaisy//src/dev/mpr121.h ****     }
 1005              		.loc 6 75 40 view .LVU257
 1006 0146 0094     		str	r4, [sp]
 1007 0148 19A8     		add	r0, sp, #100
 1008              	.LVL56:
  75:../../libDaisy//src/dev/mpr121.h ****     }
 1009              		.loc 6 75 40 view .LVU258
 1010              	.LBE458:
 1011              	.LBE462:
 299:../../libDaisy//src/dev/mpr121.h ****         buff[1] = value;
 1012              		.loc 6 299 17 view .LVU259
 1013 014a 8DF83850 		strb	r5, [sp, #56]
 1014              	.LBB463:
 1015              	.LBB455:
 1016              		.loc 6 373 55 view .LVU260
 1017 014e 8DF87C20 		strb	r2, [sp, #124]
 1018              	.LVL57:
 1019              		.loc 6 373 55 view .LVU261
 1020              	.LBE455:
 1021              	.LBE463:
 1022              	.LBB464:
 1023              	.LBI456:
  72:../../libDaisy//src/dev/mpr121.h ****     {
 1024              		.loc 6 72 10 is_stmt 1 view .LVU262
 1025              	.LBB459:
  74:../../libDaisy//src/dev/mpr121.h ****                != i2c_.TransmitBlocking(config_.dev_addr, data, size, 10);
 1026              		.loc 6 74 9 view .LVU263
  75:../../libDaisy//src/dev/mpr121.h ****     }
 1027              		.loc 6 75 40 is_stmt 0 view .LVU264
 1028 0152 0EAA     		add	r2, sp, #56
 1029              	.LVL58:
  75:../../libDaisy//src/dev/mpr121.h ****     }
 1030              		.loc 6 75 40 view .LVU265
 1031              	.LBE459:
 1032              	.LBE464:
 300:../../libDaisy//src/dev/mpr121.h ****         SetTransportErr(transport_.Write(buff, 2));
 1033              		.loc 6 300 17 view .LVU266
 1034 0154 8DF83990 		strb	r9, [sp, #57]
 1035              	.LBB465:
 1036              	.LBB460:
  75:../../libDaisy//src/dev/mpr121.h ****     }
 1037              		.loc 6 75 40 view .LVU267
 1038 0158 FFF7FEFF 		bl	_ZN5daisy9I2CHandle16TransmitBlockingEtPhtm
 1039              	.LVL59:
  75:../../libDaisy//src/dev/mpr121.h ****     }
 1040              		.loc 6 75 40 view .LVU268
 1041              	.LBE460:
 1042              	.LBE465:
 1043              	.LBB466:
 1044              	.LBI466:
 1045              		.loc 6 373 10 is_stmt 1 view .LVU269
 1046              	.LBB467:
 1047              		.loc 6 373 55 is_stmt 0 view .LVU270
 1048 015c 9DF87C30 		ldrb	r3, [sp, #124]	@ zero_extendqisi2
ARM GAS  C:\Users\matte\AppData\Local\Temp\ccayzbuB.s 			page 40


 1049              	.LBE467:
 1050              	.LBE466:
 307:../../libDaisy//src/dev/mpr121.h ****             SetTransportErr(transport_.Write(buff, 2));
 1051              		.loc 6 307 21 view .LVU271
 1052 0160 9DF82420 		ldrb	r2, [sp, #36]	@ zero_extendqisi2
 1053              	.LBB470:
 1054              	.LBB468:
 1055              		.loc 6 373 55 view .LVU272
 1056 0164 B842     		cmp	r0, r7
 1057 0166 18BF     		it	ne
 1058 0168 43F00103 		orrne	r3, r3, #1
 1059              	.LBE468:
 1060              	.LBE470:
 1061              	.LBB471:
 1062              	.LBB472:
  75:../../libDaisy//src/dev/mpr121.h ****     }
 1063              		.loc 6 75 40 view .LVU273
 1064 016c 9DF87810 		ldrb	r1, [sp, #120]	@ zero_extendqisi2
 1065              	.LBE472:
 1066              	.LBE471:
 307:../../libDaisy//src/dev/mpr121.h ****             SetTransportErr(transport_.Write(buff, 2));
 1067              		.loc 6 307 21 view .LVU274
 1068 0170 8DF83920 		strb	r2, [sp, #57]
 1069              	.LBB476:
 1070              	.LBB473:
  75:../../libDaisy//src/dev/mpr121.h ****     }
 1071              		.loc 6 75 40 view .LVU275
 1072 0174 19A8     		add	r0, sp, #100
 1073              	.LVL60:
  75:../../libDaisy//src/dev/mpr121.h ****     }
 1074              		.loc 6 75 40 view .LVU276
 1075 0176 0EAA     		add	r2, sp, #56
 1076              	.LBE473:
 1077              	.LBE476:
 1078              	.LBB477:
 1079              	.LBB469:
 1080              		.loc 6 373 55 view .LVU277
 1081 0178 8DF87C30 		strb	r3, [sp, #124]
 1082              	.LVL61:
 1083              		.loc 6 373 55 view .LVU278
 1084              	.LBE469:
 1085              	.LBE477:
 1086              	.LBB478:
 1087              	.LBI471:
  72:../../libDaisy//src/dev/mpr121.h ****     {
 1088              		.loc 6 72 10 is_stmt 1 view .LVU279
 1089              	.LBB474:
  74:../../libDaisy//src/dev/mpr121.h ****                != i2c_.TransmitBlocking(config_.dev_addr, data, size, 10);
 1090              		.loc 6 74 9 view .LVU280
  75:../../libDaisy//src/dev/mpr121.h ****     }
 1091              		.loc 6 75 40 is_stmt 0 view .LVU281
 1092 017c 0094     		str	r4, [sp]
 1093 017e 0223     		movs	r3, #2
 1094              	.LBE474:
 1095              	.LBE478:
 306:../../libDaisy//src/dev/mpr121.h ****             buff[1] = ecr_backup;
 1096              		.loc 6 306 21 view .LVU282
ARM GAS  C:\Users\matte\AppData\Local\Temp\ccayzbuB.s 			page 41


 1097 0180 8DF83860 		strb	r6, [sp, #56]
 1098              	.LBB479:
 1099              	.LBB475:
  75:../../libDaisy//src/dev/mpr121.h ****     }
 1100              		.loc 6 75 40 view .LVU283
 1101 0184 FFF7FEFF 		bl	_ZN5daisy9I2CHandle16TransmitBlockingEtPhtm
 1102              	.LVL62:
  75:../../libDaisy//src/dev/mpr121.h ****     }
 1103              		.loc 6 75 40 view .LVU284
 1104              	.LBE475:
 1105              	.LBE479:
 1106              	.LBB480:
 1107              	.LBI480:
 1108              		.loc 6 373 10 is_stmt 1 view .LVU285
 1109              	.LBB481:
 1110              		.loc 6 373 55 is_stmt 0 view .LVU286
 1111 0188 9DF87C20 		ldrb	r2, [sp, #124]	@ zero_extendqisi2
 1112              	.LBE481:
 1113              	.LBE480:
 1114              	.LBE421:
 1115              	.LBE420:
 1116              	.LBB488:
 1117              	.LBB489:
 1118              	.LBB490:
 1119              	.LBB491:
  75:../../libDaisy//src/dev/mpr121.h ****     }
 1120              		.loc 6 75 40 view .LVU287
 1121 018c 0123     		movs	r3, #1
 1122 018e 9DF87810 		ldrb	r1, [sp, #120]	@ zero_extendqisi2
 1123              	.LBE491:
 1124              	.LBE490:
 1125              	.LBE489:
 1126              	.LBE488:
 1127              	.LBB563:
 1128              	.LBB486:
 1129              	.LBB484:
 1130              	.LBB482:
 1131              		.loc 6 373 55 view .LVU288
 1132 0192 B842     		cmp	r0, r7
 1133 0194 18BF     		it	ne
 1134 0196 42F00102 		orrne	r2, r2, #1
 1135              	.LBE482:
 1136              	.LBE484:
 1137              	.LBE486:
 1138              	.LBE563:
 1139              	.LBB564:
 1140              	.LBB558:
 1141              	.LBB495:
 1142              	.LBB492:
  75:../../libDaisy//src/dev/mpr121.h ****     }
 1143              		.loc 6 75 40 view .LVU289
 1144 019a 0094     		str	r4, [sp]
 1145 019c 19A8     		add	r0, sp, #100
 1146              	.LVL63:
  75:../../libDaisy//src/dev/mpr121.h ****     }
 1147              		.loc 6 75 40 view .LVU290
 1148              	.LBE492:
ARM GAS  C:\Users\matte\AppData\Local\Temp\ccayzbuB.s 			page 42


 1149              	.LBE495:
 282:../../libDaisy//src/dev/mpr121.h **** 
 1150              		.loc 6 282 17 view .LVU291
 1151 019e 8DF83970 		strb	r7, [sp, #57]
 1152              	.LBE558:
 1153              	.LBE564:
 1154              	.LBB565:
 1155              	.LBB487:
 1156              	.LBB485:
 1157              	.LBB483:
 1158              		.loc 6 373 55 view .LVU292
 1159 01a2 8DF87C20 		strb	r2, [sp, #124]
 1160              	.LVL64:
 1161              		.loc 6 373 55 view .LVU293
 1162              	.LBE483:
 1163              	.LBE485:
 1164              	.LBE487:
 1165              	.LBE565:
 1166              	.LBB566:
 1167              	.LBI488:
 275:../../libDaisy//src/dev/mpr121.h ****     {
 1168              		.loc 6 275 10 is_stmt 1 view .LVU294
 1169              	.LBB559:
 1170              	.LBB496:
 1171              	.LBI490:
  72:../../libDaisy//src/dev/mpr121.h ****     {
 1172              		.loc 6 72 10 view .LVU295
 1173              	.LBB493:
  74:../../libDaisy//src/dev/mpr121.h ****                != i2c_.TransmitBlocking(config_.dev_addr, data, size, 10);
 1174              		.loc 6 74 9 view .LVU296
  75:../../libDaisy//src/dev/mpr121.h ****     }
 1175              		.loc 6 75 40 is_stmt 0 view .LVU297
 1176 01a6 0EAA     		add	r2, sp, #56
 1177              	.LVL65:
  75:../../libDaisy//src/dev/mpr121.h ****     }
 1178              		.loc 6 75 40 view .LVU298
 1179              	.LBE493:
 1180              	.LBE496:
 282:../../libDaisy//src/dev/mpr121.h **** 
 1181              		.loc 6 282 17 view .LVU299
 1182 01a8 8DF83860 		strb	r6, [sp, #56]
 1183              	.LBB497:
 1184              	.LBB494:
  75:../../libDaisy//src/dev/mpr121.h ****     }
 1185              		.loc 6 75 40 view .LVU300
 1186 01ac FFF7FEFF 		bl	_ZN5daisy9I2CHandle16TransmitBlockingEtPhtm
 1187              	.LVL66:
  75:../../libDaisy//src/dev/mpr121.h ****     }
 1188              		.loc 6 75 40 view .LVU301
 1189              	.LBE494:
 1190              	.LBE497:
 1191              	.LBB498:
 1192              	.LBI498:
 1193              		.loc 6 373 10 is_stmt 1 view .LVU302
 1194              	.LBB499:
 1195              		.loc 6 373 55 is_stmt 0 view .LVU303
 1196 01b0 9DF87C20 		ldrb	r2, [sp, #124]	@ zero_extendqisi2
ARM GAS  C:\Users\matte\AppData\Local\Temp\ccayzbuB.s 			page 43


 1197              	.LBE499:
 1198              	.LBE498:
 1199              	.LBB502:
 1200              	.LBB503:
  82:../../libDaisy//src/dev/mpr121.h ****     }
 1201              		.loc 6 82 39 view .LVU304
 1202 01b4 0123     		movs	r3, #1
 1203 01b6 9DF87810 		ldrb	r1, [sp, #120]	@ zero_extendqisi2
 1204              	.LBE503:
 1205              	.LBE502:
 1206              	.LBB506:
 1207              	.LBB500:
 1208              		.loc 6 373 55 view .LVU305
 1209 01ba B842     		cmp	r0, r7
 1210 01bc 18BF     		it	ne
 1211 01be 42F00102 		orrne	r2, r2, #1
 1212              	.LBE500:
 1213              	.LBE506:
 1214              	.LBB507:
 1215              	.LBB504:
  82:../../libDaisy//src/dev/mpr121.h ****     }
 1216              		.loc 6 82 39 view .LVU306
 1217 01c2 0094     		str	r4, [sp]
 1218 01c4 19A8     		add	r0, sp, #100
 1219              	.LVL67:
  82:../../libDaisy//src/dev/mpr121.h ****     }
 1220              		.loc 6 82 39 view .LVU307
 1221              	.LBE504:
 1222              	.LBE507:
 1223              	.LBB508:
 1224              	.LBB501:
 1225              		.loc 6 373 55 view .LVU308
 1226 01c6 8DF87C20 		strb	r2, [sp, #124]
 1227              	.LVL68:
 1228              		.loc 6 373 55 view .LVU309
 1229              	.LBE501:
 1230              	.LBE508:
 1231              	.LBB509:
 1232              	.LBI502:
  79:../../libDaisy//src/dev/mpr121.h ****     {
 1233              		.loc 6 79 10 is_stmt 1 view .LVU310
 1234              	.LBB505:
  81:../../libDaisy//src/dev/mpr121.h ****                != i2c_.ReceiveBlocking(config_.dev_addr, data, size, 10);
 1235              		.loc 6 81 9 view .LVU311
  82:../../libDaisy//src/dev/mpr121.h ****     }
 1236              		.loc 6 82 39 is_stmt 0 view .LVU312
 1237 01ca 09AA     		add	r2, sp, #36
 1238              	.LVL69:
  82:../../libDaisy//src/dev/mpr121.h ****     }
 1239              		.loc 6 82 39 view .LVU313
 1240 01cc FFF7FEFF 		bl	_ZN5daisy9I2CHandle15ReceiveBlockingEtPhtm
 1241              	.LVL70:
  82:../../libDaisy//src/dev/mpr121.h ****     }
 1242              		.loc 6 82 39 view .LVU314
 1243              	.LBE505:
 1244              	.LBE509:
 1245              	.LBB510:
ARM GAS  C:\Users\matte\AppData\Local\Temp\ccayzbuB.s 			page 44


 1246              	.LBI510:
 1247              		.loc 6 373 10 is_stmt 1 view .LVU315
 1248              	.LBB511:
 1249              		.loc 6 373 55 is_stmt 0 view .LVU316
 1250 01d0 9DF87C20 		ldrb	r2, [sp, #124]	@ zero_extendqisi2
 1251              	.LBE511:
 1252              	.LBE510:
 1253              	.LBB514:
 1254              	.LBB515:
  75:../../libDaisy//src/dev/mpr121.h ****     }
 1255              		.loc 6 75 40 view .LVU317
 1256 01d4 0223     		movs	r3, #2
 1257 01d6 9DF87810 		ldrb	r1, [sp, #120]	@ zero_extendqisi2
 1258              	.LBE515:
 1259              	.LBE514:
 1260              	.LBB518:
 1261              	.LBB512:
 1262              		.loc 6 373 55 view .LVU318
 1263 01da B842     		cmp	r0, r7
 1264 01dc 18BF     		it	ne
 1265 01de 42F00102 		orrne	r2, r2, #1
 1266              	.LBE512:
 1267              	.LBE518:
 1268              	.LBB519:
 1269              	.LBB516:
  75:../../libDaisy//src/dev/mpr121.h ****     }
 1270              		.loc 6 75 40 view .LVU319
 1271 01e2 0094     		str	r4, [sp]
 1272 01e4 19A8     		add	r0, sp, #100
 1273              	.LVL71:
  75:../../libDaisy//src/dev/mpr121.h ****     }
 1274              		.loc 6 75 40 view .LVU320
 1275              	.LBE516:
 1276              	.LBE519:
 1277              	.LBB520:
 1278              	.LBB513:
 1279              		.loc 6 373 55 view .LVU321
 1280 01e6 8DF87C20 		strb	r2, [sp, #124]
 1281              	.LVL72:
 1282              		.loc 6 373 55 view .LVU322
 1283              	.LBE513:
 1284              	.LBE520:
 1285              	.LBB521:
 1286              	.LBI514:
  72:../../libDaisy//src/dev/mpr121.h ****     {
 1287              		.loc 6 72 10 is_stmt 1 view .LVU323
 1288              	.LBB517:
  74:../../libDaisy//src/dev/mpr121.h ****                != i2c_.TransmitBlocking(config_.dev_addr, data, size, 10);
 1289              		.loc 6 74 9 view .LVU324
  75:../../libDaisy//src/dev/mpr121.h ****     }
 1290              		.loc 6 75 40 is_stmt 0 view .LVU325
 1291 01ea 0EAA     		add	r2, sp, #56
 1292              	.LVL73:
  75:../../libDaisy//src/dev/mpr121.h ****     }
 1293              		.loc 6 75 40 view .LVU326
 1294 01ec FFF7FEFF 		bl	_ZN5daisy9I2CHandle16TransmitBlockingEtPhtm
 1295              	.LVL74:
ARM GAS  C:\Users\matte\AppData\Local\Temp\ccayzbuB.s 			page 45


  75:../../libDaisy//src/dev/mpr121.h ****     }
 1296              		.loc 6 75 40 view .LVU327
 1297              	.LBE517:
 1298              	.LBE521:
 1299              	.LBB522:
 1300              	.LBI522:
 1301              		.loc 6 373 10 is_stmt 1 view .LVU328
 1302              	.LBB523:
 1303              		.loc 6 373 55 is_stmt 0 view .LVU329
 1304 01f0 9DF87C30 		ldrb	r3, [sp, #124]	@ zero_extendqisi2
 1305              	.LBE523:
 1306              	.LBE522:
 299:../../libDaisy//src/dev/mpr121.h ****         buff[1] = value;
 1307              		.loc 6 299 17 view .LVU330
 1308 01f4 6A1C     		adds	r2, r5, #1
 1309              	.LBB526:
 1310              	.LBB527:
  75:../../libDaisy//src/dev/mpr121.h ****     }
 1311              		.loc 6 75 40 view .LVU331
 1312 01f6 9DF87810 		ldrb	r1, [sp, #120]	@ zero_extendqisi2
 1313              	.LBE527:
 1314              	.LBE526:
 1315              	.LBB532:
 1316              	.LBB524:
 1317              		.loc 6 373 55 view .LVU332
 1318 01fa B842     		cmp	r0, r7
 1319 01fc 18BF     		it	ne
 1320 01fe 43F00103 		orrne	r3, r3, #1
 1321              	.LBE524:
 1322              	.LBE532:
 1323              	.LBB533:
 1324              	.LBB528:
  75:../../libDaisy//src/dev/mpr121.h ****     }
 1325              		.loc 6 75 40 view .LVU333
 1326 0202 0094     		str	r4, [sp]
 1327              	.LBE528:
 1328              	.LBE533:
 299:../../libDaisy//src/dev/mpr121.h ****         buff[1] = value;
 1329              		.loc 6 299 17 view .LVU334
 1330 0204 8DF83820 		strb	r2, [sp, #56]
 1331              	.LBB534:
 1332              	.LBB529:
  75:../../libDaisy//src/dev/mpr121.h ****     }
 1333              		.loc 6 75 40 view .LVU335
 1334 0208 19A8     		add	r0, sp, #100
 1335              	.LVL75:
  75:../../libDaisy//src/dev/mpr121.h ****     }
 1336              		.loc 6 75 40 view .LVU336
 1337 020a 0EAA     		add	r2, sp, #56
 1338              	.LBE529:
 1339              	.LBE534:
 1340              	.LBB535:
 1341              	.LBB525:
 1342              		.loc 6 373 55 view .LVU337
 1343 020c 8DF87C30 		strb	r3, [sp, #124]
 1344              	.LVL76:
 1345              		.loc 6 373 55 view .LVU338
ARM GAS  C:\Users\matte\AppData\Local\Temp\ccayzbuB.s 			page 46


 1346              	.LBE525:
 1347              	.LBE535:
 1348              	.LBB536:
 1349              	.LBI526:
  72:../../libDaisy//src/dev/mpr121.h ****     {
 1350              		.loc 6 72 10 is_stmt 1 view .LVU339
 1351              	.LBB530:
  74:../../libDaisy//src/dev/mpr121.h ****                != i2c_.TransmitBlocking(config_.dev_addr, data, size, 10);
 1352              		.loc 6 74 9 view .LVU340
  75:../../libDaisy//src/dev/mpr121.h ****     }
 1353              		.loc 6 75 40 is_stmt 0 view .LVU341
 1354 0210 0223     		movs	r3, #2
 1355              	.LBE530:
 1356              	.LBE536:
 300:../../libDaisy//src/dev/mpr121.h ****         SetTransportErr(transport_.Write(buff, 2));
 1357              		.loc 6 300 17 view .LVU342
 1358 0212 8DF83980 		strb	r8, [sp, #57]
 1359              	.LBB537:
 1360              	.LBB531:
  75:../../libDaisy//src/dev/mpr121.h ****     }
 1361              		.loc 6 75 40 view .LVU343
 1362 0216 FFF7FEFF 		bl	_ZN5daisy9I2CHandle16TransmitBlockingEtPhtm
 1363              	.LVL77:
  75:../../libDaisy//src/dev/mpr121.h ****     }
 1364              		.loc 6 75 40 view .LVU344
 1365              	.LBE531:
 1366              	.LBE537:
 1367              	.LBB538:
 1368              	.LBI538:
 1369              		.loc 6 373 10 is_stmt 1 view .LVU345
 1370              	.LBB539:
 1371              		.loc 6 373 55 is_stmt 0 view .LVU346
 1372 021a 9DF87C20 		ldrb	r2, [sp, #124]	@ zero_extendqisi2
 1373              	.LBE539:
 1374              	.LBE538:
 307:../../libDaisy//src/dev/mpr121.h ****             SetTransportErr(transport_.Write(buff, 2));
 1375              		.loc 6 307 21 view .LVU347
 1376 021e 9DF82410 		ldrb	r1, [sp, #36]	@ zero_extendqisi2
 1377              	.LBE559:
 1378              	.LBE566:
 193:../../libDaisy//src/dev/mpr121.h ****         {
 1379              		.loc 6 193 30 view .LVU348
 1380 0222 0235     		adds	r5, r5, #2
 1381              	.LVL78:
 1382              	.LBB567:
 1383              	.LBB560:
 1384              	.LBB542:
 1385              	.LBB540:
 1386              		.loc 6 373 55 view .LVU349
 1387 0224 B842     		cmp	r0, r7
 1388 0226 18BF     		it	ne
 1389 0228 42F00102 		orrne	r2, r2, #1
 1390              	.LBE540:
 1391              	.LBE542:
 1392              	.LBB543:
 1393              	.LBB544:
  75:../../libDaisy//src/dev/mpr121.h ****     }
ARM GAS  C:\Users\matte\AppData\Local\Temp\ccayzbuB.s 			page 47


 1394              		.loc 6 75 40 view .LVU350
 1395 022c 0223     		movs	r3, #2
 1396              	.LBE544:
 1397              	.LBE543:
 307:../../libDaisy//src/dev/mpr121.h ****             SetTransportErr(transport_.Write(buff, 2));
 1398              		.loc 6 307 21 view .LVU351
 1399 022e 8DF83910 		strb	r1, [sp, #57]
 1400              	.LBB549:
 1401              	.LBB545:
  75:../../libDaisy//src/dev/mpr121.h ****     }
 1402              		.loc 6 75 40 view .LVU352
 1403 0232 19A8     		add	r0, sp, #100
 1404              	.LVL79:
  75:../../libDaisy//src/dev/mpr121.h ****     }
 1405              		.loc 6 75 40 view .LVU353
 1406              	.LBE545:
 1407              	.LBE549:
 1408              	.LBB550:
 1409              	.LBB541:
 1410              		.loc 6 373 55 view .LVU354
 1411 0234 8DF87C20 		strb	r2, [sp, #124]
 1412              	.LVL80:
 1413              		.loc 6 373 55 view .LVU355
 1414              	.LBE541:
 1415              	.LBE550:
 1416              	.LBB551:
 1417              	.LBI543:
  72:../../libDaisy//src/dev/mpr121.h ****     {
 1418              		.loc 6 72 10 is_stmt 1 view .LVU356
 1419              	.LBB546:
  74:../../libDaisy//src/dev/mpr121.h ****                != i2c_.TransmitBlocking(config_.dev_addr, data, size, 10);
 1420              		.loc 6 74 9 view .LVU357
  75:../../libDaisy//src/dev/mpr121.h ****     }
 1421              		.loc 6 75 40 is_stmt 0 view .LVU358
 1422 0238 0EAA     		add	r2, sp, #56
 1423              	.LVL81:
  75:../../libDaisy//src/dev/mpr121.h ****     }
 1424              		.loc 6 75 40 view .LVU359
 1425 023a 9DF87810 		ldrb	r1, [sp, #120]	@ zero_extendqisi2
 1426              	.LBE546:
 1427              	.LBE551:
 1428              	.LBE560:
 1429              	.LBE567:
 193:../../libDaisy//src/dev/mpr121.h ****         {
 1430              		.loc 6 193 30 view .LVU360
 1431 023e EDB2     		uxtb	r5, r5
 1432              	.LBB568:
 1433              	.LBB561:
 1434              	.LBB552:
 1435              	.LBB547:
  75:../../libDaisy//src/dev/mpr121.h ****     }
 1436              		.loc 6 75 40 view .LVU361
 1437 0240 0094     		str	r4, [sp]
 1438              	.LBE547:
 1439              	.LBE552:
 306:../../libDaisy//src/dev/mpr121.h ****             buff[1] = ecr_backup;
 1440              		.loc 6 306 21 view .LVU362
ARM GAS  C:\Users\matte\AppData\Local\Temp\ccayzbuB.s 			page 48


 1441 0242 8DF83860 		strb	r6, [sp, #56]
 1442              	.LBB553:
 1443              	.LBB548:
  75:../../libDaisy//src/dev/mpr121.h ****     }
 1444              		.loc 6 75 40 view .LVU363
 1445 0246 FFF7FEFF 		bl	_ZN5daisy9I2CHandle16TransmitBlockingEtPhtm
 1446              	.LVL82:
  75:../../libDaisy//src/dev/mpr121.h ****     }
 1447              		.loc 6 75 40 view .LVU364
 1448              	.LBE548:
 1449              	.LBE553:
 1450              	.LBB554:
 1451              	.LBI554:
 1452              		.loc 6 373 10 is_stmt 1 view .LVU365
 1453              	.LBB555:
 1454              		.loc 6 373 55 is_stmt 0 view .LVU366
 1455 024a 9DF87C30 		ldrb	r3, [sp, #124]	@ zero_extendqisi2
 1456 024e B842     		cmp	r0, r7
 1457 0250 18BF     		it	ne
 1458 0252 43F00103 		orrne	r3, r3, #1
 1459              	.LBE555:
 1460              	.LBE554:
 1461              	.LBE561:
 1462              	.LBE568:
 193:../../libDaisy//src/dev/mpr121.h ****         {
 1463              		.loc 6 193 30 view .LVU367
 1464 0256 592D     		cmp	r5, #89
 1465              	.LBB569:
 1466              	.LBB562:
 1467              	.LBB557:
 1468              	.LBB556:
 1469              		.loc 6 373 55 view .LVU368
 1470 0258 8DF87C30 		strb	r3, [sp, #124]
 1471              	.LVL83:
 1472              		.loc 6 373 55 view .LVU369
 1473              	.LBE556:
 1474              	.LBE557:
 1475              	.LBE562:
 1476              	.LBE569:
 193:../../libDaisy//src/dev/mpr121.h ****         {
 1477              		.loc 6 193 9 is_stmt 1 view .LVU370
 193:../../libDaisy//src/dev/mpr121.h ****         {
 1478              		.loc 6 193 30 view .LVU371
 1479 025c 7FF43BAF 		bne	.L11
 1480              	.LVL84:
 193:../../libDaisy//src/dev/mpr121.h ****         {
 1481              		.loc 6 193 30 is_stmt 0 view .LVU372
 1482              	.LBE419:
 1483              	.LBE418:
 147:../../libDaisy//src/dev/mpr121.h ****         WriteRegister(MPR121_NHDR, 0x01);
 1484              		.loc 6 147 22 view .LVU373
 1485 0260 13A8     		add	r0, sp, #76
 1486              	.LVL85:
 147:../../libDaisy//src/dev/mpr121.h ****         WriteRegister(MPR121_NHDR, 0x01);
 1487              		.loc 6 147 22 view .LVU374
 1488 0262 0122     		movs	r2, #1
 1489 0264 2B21     		movs	r1, #43
ARM GAS  C:\Users\matte\AppData\Local\Temp\ccayzbuB.s 			page 49


 1490 0266 FFF7FEFF 		bl	_ZN5daisy6Mpr121INS_18Mpr121I2CTransportEE13WriteRegisterEhh
 1491              	.LVL86:
 148:../../libDaisy//src/dev/mpr121.h ****         WriteRegister(MPR121_NCLR, 0x0E);
 1492              		.loc 6 148 22 view .LVU375
 1493 026a 13A8     		add	r0, sp, #76
 1494              	.LVL87:
 148:../../libDaisy//src/dev/mpr121.h ****         WriteRegister(MPR121_NCLR, 0x0E);
 1495              		.loc 6 148 22 view .LVU376
 1496 026c 0122     		movs	r2, #1
 1497 026e 2C21     		movs	r1, #44
 1498 0270 FFF7FEFF 		bl	_ZN5daisy6Mpr121INS_18Mpr121I2CTransportEE13WriteRegisterEhh
 1499              	.LVL88:
 149:../../libDaisy//src/dev/mpr121.h ****         WriteRegister(MPR121_FDLR, 0x00);
 1500              		.loc 6 149 22 view .LVU377
 1501 0274 13A8     		add	r0, sp, #76
 1502              	.LVL89:
 149:../../libDaisy//src/dev/mpr121.h ****         WriteRegister(MPR121_FDLR, 0x00);
 1503              		.loc 6 149 22 view .LVU378
 1504 0276 2D21     		movs	r1, #45
 1505 0278 0E22     		movs	r2, #14
 1506 027a FFF7FEFF 		bl	_ZN5daisy6Mpr121INS_18Mpr121I2CTransportEE13WriteRegisterEhh
 1507              	.LVL90:
 150:../../libDaisy//src/dev/mpr121.h **** 
 1508              		.loc 6 150 22 view .LVU379
 1509 027e 3A46     		mov	r2, r7
 1510 0280 13A8     		add	r0, sp, #76
 1511              	.LVL91:
 150:../../libDaisy//src/dev/mpr121.h **** 
 1512              		.loc 6 150 22 view .LVU380
 1513 0282 2E21     		movs	r1, #46
 1514 0284 FFF7FEFF 		bl	_ZN5daisy6Mpr121INS_18Mpr121I2CTransportEE13WriteRegisterEhh
 1515              	.LVL92:
 152:../../libDaisy//src/dev/mpr121.h ****         WriteRegister(MPR121_NHDF, 0x05);
 1516              		.loc 6 152 22 view .LVU381
 1517 0288 13A8     		add	r0, sp, #76
 1518              	.LVL93:
 152:../../libDaisy//src/dev/mpr121.h ****         WriteRegister(MPR121_NHDF, 0x05);
 1519              		.loc 6 152 22 view .LVU382
 1520 028a 0122     		movs	r2, #1
 1521 028c 2F21     		movs	r1, #47
 1522 028e FFF7FEFF 		bl	_ZN5daisy6Mpr121INS_18Mpr121I2CTransportEE13WriteRegisterEhh
 1523              	.LVL94:
 153:../../libDaisy//src/dev/mpr121.h ****         WriteRegister(MPR121_NCLF, 0x01);
 1524              		.loc 6 153 22 view .LVU383
 1525 0292 13A8     		add	r0, sp, #76
 1526              	.LVL95:
 153:../../libDaisy//src/dev/mpr121.h ****         WriteRegister(MPR121_NCLF, 0x01);
 1527              		.loc 6 153 22 view .LVU384
 1528 0294 0522     		movs	r2, #5
 1529 0296 3021     		movs	r1, #48
 1530 0298 FFF7FEFF 		bl	_ZN5daisy6Mpr121INS_18Mpr121I2CTransportEE13WriteRegisterEhh
 1531              	.LVL96:
 154:../../libDaisy//src/dev/mpr121.h ****         WriteRegister(MPR121_FDLF, 0x00);
 1532              		.loc 6 154 22 view .LVU385
 1533 029c 13A8     		add	r0, sp, #76
 1534              	.LVL97:
 154:../../libDaisy//src/dev/mpr121.h ****         WriteRegister(MPR121_FDLF, 0x00);
ARM GAS  C:\Users\matte\AppData\Local\Temp\ccayzbuB.s 			page 50


 1535              		.loc 6 154 22 view .LVU386
 1536 029e 3121     		movs	r1, #49
 1537 02a0 0122     		movs	r2, #1
 1538 02a2 FFF7FEFF 		bl	_ZN5daisy6Mpr121INS_18Mpr121I2CTransportEE13WriteRegisterEhh
 1539              	.LVL98:
 155:../../libDaisy//src/dev/mpr121.h **** 
 1540              		.loc 6 155 22 view .LVU387
 1541 02a6 3A46     		mov	r2, r7
 1542 02a8 13A8     		add	r0, sp, #76
 1543              	.LVL99:
 155:../../libDaisy//src/dev/mpr121.h **** 
 1544              		.loc 6 155 22 view .LVU388
 1545 02aa 3221     		movs	r1, #50
 1546 02ac FFF7FEFF 		bl	_ZN5daisy6Mpr121INS_18Mpr121I2CTransportEE13WriteRegisterEhh
 1547              	.LVL100:
 157:../../libDaisy//src/dev/mpr121.h ****         WriteRegister(MPR121_NCLT, 0x00);
 1548              		.loc 6 157 22 view .LVU389
 1549 02b0 3A46     		mov	r2, r7
 1550 02b2 13A8     		add	r0, sp, #76
 1551              	.LVL101:
 157:../../libDaisy//src/dev/mpr121.h ****         WriteRegister(MPR121_NCLT, 0x00);
 1552              		.loc 6 157 22 view .LVU390
 1553 02b4 3321     		movs	r1, #51
 1554 02b6 FFF7FEFF 		bl	_ZN5daisy6Mpr121INS_18Mpr121I2CTransportEE13WriteRegisterEhh
 1555              	.LVL102:
 158:../../libDaisy//src/dev/mpr121.h ****         WriteRegister(MPR121_FDLT, 0x00);
 1556              		.loc 6 158 22 view .LVU391
 1557 02ba 3A46     		mov	r2, r7
 1558 02bc 13A8     		add	r0, sp, #76
 1559              	.LVL103:
 158:../../libDaisy//src/dev/mpr121.h ****         WriteRegister(MPR121_FDLT, 0x00);
 1560              		.loc 6 158 22 view .LVU392
 1561 02be 3421     		movs	r1, #52
 1562 02c0 FFF7FEFF 		bl	_ZN5daisy6Mpr121INS_18Mpr121I2CTransportEE13WriteRegisterEhh
 1563              	.LVL104:
 159:../../libDaisy//src/dev/mpr121.h **** 
 1564              		.loc 6 159 22 view .LVU393
 1565 02c4 3A46     		mov	r2, r7
 1566 02c6 13A8     		add	r0, sp, #76
 1567              	.LVL105:
 159:../../libDaisy//src/dev/mpr121.h **** 
 1568              		.loc 6 159 22 view .LVU394
 1569 02c8 3521     		movs	r1, #53
 1570 02ca FFF7FEFF 		bl	_ZN5daisy6Mpr121INS_18Mpr121I2CTransportEE13WriteRegisterEhh
 1571              	.LVL106:
 161:../../libDaisy//src/dev/mpr121.h ****         WriteRegister(MPR121_CONFIG1, 0x10); // default, 16uA charge current
 1572              		.loc 6 161 22 view .LVU395
 1573 02ce 3A46     		mov	r2, r7
 1574 02d0 13A8     		add	r0, sp, #76
 1575              	.LVL107:
 161:../../libDaisy//src/dev/mpr121.h ****         WriteRegister(MPR121_CONFIG1, 0x10); // default, 16uA charge current
 1576              		.loc 6 161 22 view .LVU396
 1577 02d2 5B21     		movs	r1, #91
 1578 02d4 FFF7FEFF 		bl	_ZN5daisy6Mpr121INS_18Mpr121I2CTransportEE13WriteRegisterEhh
 1579              	.LVL108:
 162:../../libDaisy//src/dev/mpr121.h ****         WriteRegister(MPR121_CONFIG2, 0x20); // 0.5uS encoding, 1ms period
 1580              		.loc 6 162 22 view .LVU397
ARM GAS  C:\Users\matte\AppData\Local\Temp\ccayzbuB.s 			page 51


 1581 02d8 13A8     		add	r0, sp, #76
 1582              	.LVL109:
 162:../../libDaisy//src/dev/mpr121.h ****         WriteRegister(MPR121_CONFIG2, 0x20); // 0.5uS encoding, 1ms period
 1583              		.loc 6 162 22 view .LVU398
 1584 02da 1022     		movs	r2, #16
 1585 02dc 5C21     		movs	r1, #92
 1586 02de FFF7FEFF 		bl	_ZN5daisy6Mpr121INS_18Mpr121I2CTransportEE13WriteRegisterEhh
 1587              	.LVL110:
 163:../../libDaisy//src/dev/mpr121.h **** 
 1588              		.loc 6 163 22 view .LVU399
 1589 02e2 13A8     		add	r0, sp, #76
 1590              	.LVL111:
 163:../../libDaisy//src/dev/mpr121.h **** 
 1591              		.loc 6 163 22 view .LVU400
 1592 02e4 2022     		movs	r2, #32
 1593 02e6 5D21     		movs	r1, #93
 1594 02e8 FFF7FEFF 		bl	_ZN5daisy6Mpr121INS_18Mpr121I2CTransportEE13WriteRegisterEhh
 1595              	.LVL112:
 169:../../libDaisy//src/dev/mpr121.h ****         WriteRegister(MPR121_TARGETLIMIT, 180); // UPLIMIT * 0.9
 1596              		.loc 6 169 22 view .LVU401
 1597 02ec 13A8     		add	r0, sp, #76
 1598              	.LVL113:
 169:../../libDaisy//src/dev/mpr121.h ****         WriteRegister(MPR121_TARGETLIMIT, 180); // UPLIMIT * 0.9
 1599              		.loc 6 169 22 view .LVU402
 1600 02ee C822     		movs	r2, #200
 1601 02f0 7D21     		movs	r1, #125
 1602 02f2 FFF7FEFF 		bl	_ZN5daisy6Mpr121INS_18Mpr121I2CTransportEE13WriteRegisterEhh
 1603              	.LVL114:
 170:../../libDaisy//src/dev/mpr121.h ****         WriteRegister(MPR121_LOWLIMIT, 130);    // UPLIMIT * 0.65
 1604              		.loc 6 170 22 view .LVU403
 1605 02f6 13A8     		add	r0, sp, #76
 1606              	.LVL115:
 170:../../libDaisy//src/dev/mpr121.h ****         WriteRegister(MPR121_LOWLIMIT, 130);    // UPLIMIT * 0.65
 1607              		.loc 6 170 22 view .LVU404
 1608 02f8 B422     		movs	r2, #180
 1609 02fa 7F21     		movs	r1, #127
 1610 02fc FFF7FEFF 		bl	_ZN5daisy6Mpr121INS_18Mpr121I2CTransportEE13WriteRegisterEhh
 1611              	.LVL116:
 171:../../libDaisy//src/dev/mpr121.h ****         // autoconfig
 1612              		.loc 6 171 22 view .LVU405
 1613 0300 13A8     		add	r0, sp, #76
 1614              	.LVL117:
 171:../../libDaisy//src/dev/mpr121.h ****         // autoconfig
 1615              		.loc 6 171 22 view .LVU406
 1616 0302 8222     		movs	r2, #130
 1617 0304 7E21     		movs	r1, #126
 1618 0306 FFF7FEFF 		bl	_ZN5daisy6Mpr121INS_18Mpr121I2CTransportEE13WriteRegisterEhh
 1619              	.LVL118:
 179:../../libDaisy//src/dev/mpr121.h ****                       ECR_SETTING); // start with above ECR setting
 1620              		.loc 6 179 22 view .LVU407
 1621 030a 13A8     		add	r0, sp, #76
 1622              	.LVL119:
 179:../../libDaisy//src/dev/mpr121.h ****                       ECR_SETTING); // start with above ECR setting
 1623              		.loc 6 179 22 view .LVU408
 1624 030c 3146     		mov	r1, r6
 1625 030e 8C22     		movs	r2, #140
 1626 0310 FFF7FEFF 		bl	_ZN5daisy6Mpr121INS_18Mpr121I2CTransportEE13WriteRegisterEhh
ARM GAS  C:\Users\matte\AppData\Local\Temp\ccayzbuB.s 			page 52


 1627              	.LVL120:
 1628              	.LBB570:
 1629              	.LBI570:
 359:../../libDaisy//src/dev/mpr121.h ****     {
 1630              		.loc 6 359 12 is_stmt 1 view .LVU409
 1631              	.LBE570:
 1632              	.LBE574:
 1633              	.LBE581:
 1634              	.LBB582:
 1635              	.LBB583:
 1636              	.LBB584:
  87:../../libDaisy//src/dev/mpr121.h ****     }
 1637              		.loc 6 87 14 is_stmt 0 view .LVU410
 1638 0314 039B     		ldr	r3, [sp, #12]
 1639              	.LBE584:
 1640              	.LBE583:
 1641              	.LBE582:
 1642              	.LBB587:
 1643              	.LBB588:
 128:../../libDaisy//src/daisy_seed.h ****     }
 1644              		.loc 1 128 23 view .LVU411
 1645 0316 0648     		ldr	r0, .L16+12
 1646              	.LBE588:
 1647              	.LBE587:
 1648              	.LBB590:
 1649              	.LBB575:
 1650              	.LBB572:
 1651              	.LBB571:
 362:../../libDaisy//src/dev/mpr121.h ****         return ret;
 1652              		.loc 6 362 26 view .LVU412
 1653 0318 8DF87C70 		strb	r7, [sp, #124]
 1654              	.LVL121:
 362:../../libDaisy//src/dev/mpr121.h ****         return ret;
 1655              		.loc 6 362 26 view .LVU413
 1656              	.LBE571:
 1657              	.LBE572:
 1658              	.LBE575:
 1659              	.LBE590:
  65:i2cComm.cpp   **** 
  66:i2cComm.cpp   **** 	//TEST
  67:i2cComm.cpp   **** 	mpr121Obj.SetI2cHandle(i2c);
 1660              		.loc 7 67 2 is_stmt 1 view .LVU414
 1661              	.LBB591:
 1662              	.LBI582:
 354:../../libDaisy//src/dev/mpr121.h ****         transport_.SetI2cHandle(passedI2c);
 1663              		.loc 6 354 10 view .LVU415
 1664              	.LBB586:
 1665              	.LBI583:
  86:../../libDaisy//src/dev/mpr121.h ****         i2c_ = passedI2c;        
 1666              		.loc 6 86 10 view .LVU416
 1667              	.LBB585:
  87:../../libDaisy//src/dev/mpr121.h ****     }
 1668              		.loc 6 87 9 view .LVU417
  87:../../libDaisy//src/dev/mpr121.h ****     }
 1669              		.loc 6 87 14 is_stmt 0 view .LVU418
 1670 031c 1993     		str	r3, [sp, #100]
 1671              	.LVL122:
ARM GAS  C:\Users\matte\AppData\Local\Temp\ccayzbuB.s 			page 53


  87:../../libDaisy//src/dev/mpr121.h ****     }
 1672              		.loc 6 87 14 view .LVU419
 1673              	.LBE585:
 1674              	.LBE586:
 1675              	.LBE591:
  68:i2cComm.cpp   **** 
  69:i2cComm.cpp   **** 	/*
  70:i2cComm.cpp   **** 	if (res == daisy::Mpr121I2C::Result::OK){
  71:i2cComm.cpp   **** 		hw.PrintLine("mpr121 init completed succesfully");
  72:i2cComm.cpp   **** 	}
  73:i2cComm.cpp   **** 	else {
  74:i2cComm.cpp   **** 		hw.PrintLine("mpr121 init ERROR");
  75:i2cComm.cpp   **** 		while(1){}
  76:i2cComm.cpp   **** 	}
  77:i2cComm.cpp   **** 	*/
  78:i2cComm.cpp   **** 	hw.PrintLine("test");
 1676              		.loc 7 78 2 is_stmt 1 view .LVU420
 1677              	.LBB592:
 1678              	.LBI587:
 126:../../libDaisy//src/daisy_seed.h ****     {
 1679              		.loc 1 126 17 view .LVU421
 1680              	.LBB589:
 128:../../libDaisy//src/daisy_seed.h ****     }
 1681              		.loc 1 128 23 is_stmt 0 view .LVU422
 1682 031e FFF7FEFF 		bl	_ZN5daisy6LoggerILNS_17LoggerDestinationE1EE9PrintLineEPKcz
 1683              	.LVL123:
 1684 0322 07E0     		b	.L17
 1685              	.L18:
 1686              		.align	2
 1687              	.L16:
 1688 0324 00000000 		.word	.LANCHOR0
 1689 0328 01080109 		.word	151062529
 1690 032c 00000000 		.word	.LC2
 1691 0330 04000000 		.word	.LC3
 1692              	.L17:
 1693              	.LVL124:
 1694              	.L12:
 128:../../libDaisy//src/daisy_seed.h ****     }
 1695              		.loc 1 128 23 view .LVU423
 1696              	.LBE589:
 1697              	.LBE592:
  79:i2cComm.cpp   **** 	while(1) {
 1698              		.loc 7 79 2 is_stmt 1 discriminator 1 view .LVU424
  80:i2cComm.cpp   **** 		// dunno why but this works as a gate function
  81:i2cComm.cpp   **** 		hw.PrintLine ("filtered data: %d ", mpr121Obj.FilteredData(0));
 1699              		.loc 7 81 3 discriminator 1 view .LVU425
 1700              	.LBB593:
 1701              	.LBI593:
 208:../../libDaisy//src/dev/mpr121.h ****     {
 1702              		.loc 6 208 14 discriminator 1 view .LVU426
 1703              	.LBB594:
 1704              	.LBI594:
 208:../../libDaisy//src/dev/mpr121.h ****     {
 1705              		.loc 6 208 14 discriminator 1 view .LVU427
 1706              	.LBB595:
 1707              	.LBB596:
 1708              	.LBB597:
ARM GAS  C:\Users\matte\AppData\Local\Temp\ccayzbuB.s 			page 54


 1709              	.LBB598:
 1710              	.LBB599:
  75:../../libDaisy//src/dev/mpr121.h ****     }
 1711              		.loc 6 75 40 is_stmt 0 discriminator 1 view .LVU428
 1712 0334 0A24     		movs	r4, #10
 1713 0336 4FF0040C 		mov	ip, #4
 1714 033a 09AA     		add	r2, sp, #36
 1715 033c 9DF87810 		ldrb	r1, [sp, #120]	@ zero_extendqisi2
 1716 0340 0123     		movs	r3, #1
 1717 0342 19A8     		add	r0, sp, #100
 1718 0344 0094     		str	r4, [sp]
 1719 0346 8DF824C0 		strb	ip, [sp, #36]
 1720              	.LVL125:
  75:../../libDaisy//src/dev/mpr121.h ****     }
 1721              		.loc 6 75 40 discriminator 1 view .LVU429
 1722              	.LBE599:
 1723              	.LBE598:
 1724              	.LBE597:
 1725              	.LBI596:
 259:../../libDaisy//src/dev/mpr121.h ****     {
 1726              		.loc 6 259 14 is_stmt 1 discriminator 1 view .LVU430
 1727              	.LBB623:
 1728              	.LBB601:
 1729              	.LBI598:
  72:../../libDaisy//src/dev/mpr121.h ****     {
 1730              		.loc 6 72 10 discriminator 1 view .LVU431
 1731              	.LBB600:
  74:../../libDaisy//src/dev/mpr121.h ****                != i2c_.TransmitBlocking(config_.dev_addr, data, size, 10);
 1732              		.loc 6 74 9 discriminator 1 view .LVU432
  75:../../libDaisy//src/dev/mpr121.h ****     }
 1733              		.loc 6 75 40 is_stmt 0 discriminator 1 view .LVU433
 1734 034a FFF7FEFF 		bl	_ZN5daisy9I2CHandle16TransmitBlockingEtPhtm
 1735              	.LVL126:
  75:../../libDaisy//src/dev/mpr121.h ****     }
 1736              		.loc 6 75 40 discriminator 1 view .LVU434
 1737              	.LBE600:
 1738              	.LBE601:
 1739              	.LBB602:
 1740              	.LBI602:
 1741              		.loc 6 373 10 is_stmt 1 discriminator 1 view .LVU435
 1742              	.LBB603:
 1743              		.loc 6 373 55 is_stmt 0 discriminator 1 view .LVU436
 1744 034e 9DF87CC0 		ldrb	ip, [sp, #124]	@ zero_extendqisi2
 1745              	.LBE603:
 1746              	.LBE602:
 1747              	.LBB606:
 1748              	.LBB607:
  82:../../libDaisy//src/dev/mpr121.h ****     }
 1749              		.loc 6 82 39 discriminator 1 view .LVU437
 1750 0352 0EAA     		add	r2, sp, #56
 1751 0354 9DF87810 		ldrb	r1, [sp, #120]	@ zero_extendqisi2
 1752 0358 0223     		movs	r3, #2
 1753              	.LBE607:
 1754              	.LBE606:
 1755              	.LBB611:
 1756              	.LBB604:
 1757              		.loc 6 373 55 discriminator 1 view .LVU438
ARM GAS  C:\Users\matte\AppData\Local\Temp\ccayzbuB.s 			page 55


 1758 035a 0028     		cmp	r0, #0
 1759 035c 18BF     		it	ne
 1760 035e 4CF0010C 		orrne	ip, ip, #1
 1761              	.LBE604:
 1762              	.LBE611:
 1763              	.LBB612:
 1764              	.LBB608:
  82:../../libDaisy//src/dev/mpr121.h ****     }
 1765              		.loc 6 82 39 discriminator 1 view .LVU439
 1766 0362 0094     		str	r4, [sp]
 1767 0364 19A8     		add	r0, sp, #100
 1768              	.LVL127:
  82:../../libDaisy//src/dev/mpr121.h ****     }
 1769              		.loc 6 82 39 discriminator 1 view .LVU440
 1770              	.LBE608:
 1771              	.LBE612:
 1772              	.LBB613:
 1773              	.LBB605:
 1774              		.loc 6 373 55 discriminator 1 view .LVU441
 1775 0366 8DF87CC0 		strb	ip, [sp, #124]
 1776              	.LVL128:
 1777              		.loc 6 373 55 discriminator 1 view .LVU442
 1778              	.LBE605:
 1779              	.LBE613:
 1780              	.LBB614:
 1781              	.LBI606:
  79:../../libDaisy//src/dev/mpr121.h ****     {
 1782              		.loc 6 79 10 is_stmt 1 discriminator 1 view .LVU443
 1783              	.LBB609:
  81:../../libDaisy//src/dev/mpr121.h ****                != i2c_.ReceiveBlocking(config_.dev_addr, data, size, 10);
 1784              		.loc 6 81 9 discriminator 1 view .LVU444
  82:../../libDaisy//src/dev/mpr121.h ****     }
 1785              		.loc 6 82 39 is_stmt 0 discriminator 1 view .LVU445
 1786 036a FFF7FEFF 		bl	_ZN5daisy9I2CHandle15ReceiveBlockingEtPhtm
 1787              	.LVL129:
  82:../../libDaisy//src/dev/mpr121.h ****     }
 1788              		.loc 6 82 39 discriminator 1 view .LVU446
 1789              	.LBE609:
 1790              	.LBE614:
 1791              	.LBB615:
 1792              	.LBB616:
 1793              		.loc 6 373 55 discriminator 1 view .LVU447
 1794 036e 9DF87C30 		ldrb	r3, [sp, #124]	@ zero_extendqisi2
 1795              	.LBE616:
 1796              	.LBE615:
 1797              	.LBB619:
 1798              	.LBB610:
  82:../../libDaisy//src/dev/mpr121.h ****     }
 1799              		.loc 6 82 39 discriminator 1 view .LVU448
 1800 0372 0246     		mov	r2, r0
 1801              	.LVL130:
  82:../../libDaisy//src/dev/mpr121.h ****     }
 1802              		.loc 6 82 39 discriminator 1 view .LVU449
 1803              	.LBE610:
 1804              	.LBE619:
 1805              	.LBB620:
 1806              	.LBI615:
ARM GAS  C:\Users\matte\AppData\Local\Temp\ccayzbuB.s 			page 56


 1807              		.loc 6 373 10 is_stmt 1 discriminator 1 view .LVU450
 1808              	.LBE620:
 1809              	.LBE623:
 1810              	.LBE596:
 1811              	.LBE595:
 1812              	.LBE594:
 1813              	.LBE593:
 1814              	.LBB632:
 1815              	.LBB633:
 128:../../libDaisy//src/daisy_seed.h ****     }
 1816              		.loc 1 128 23 is_stmt 0 discriminator 1 view .LVU451
 1817 0374 BDF83810 		ldrh	r1, [sp, #56]
 1818              	.LBE633:
 1819              	.LBE632:
 1820              	.LBB636:
 1821              	.LBB630:
 1822              	.LBB628:
 1823              	.LBB626:
 1824              	.LBB624:
 1825              	.LBB621:
 1826              	.LBB617:
 1827              		.loc 6 373 55 discriminator 1 view .LVU452
 1828 0378 002A     		cmp	r2, #0
 1829 037a 18BF     		it	ne
 1830 037c 43F00103 		orrne	r3, r3, #1
 1831              	.LBE617:
 1832              	.LBE621:
 1833              	.LBE624:
 1834              	.LBE626:
 1835              	.LBE628:
 1836              	.LBE630:
 1837              	.LBE636:
 1838              	.LBB637:
 1839              	.LBB634:
 128:../../libDaisy//src/daisy_seed.h ****     }
 1840              		.loc 1 128 23 discriminator 1 view .LVU453
 1841 0380 0648     		ldr	r0, .L19
 1842              	.LVL131:
 128:../../libDaisy//src/daisy_seed.h ****     }
 1843              		.loc 1 128 23 discriminator 1 view .LVU454
 1844              	.LBE634:
 1845              	.LBE637:
 1846              	.LBB638:
 1847              	.LBB631:
 1848              	.LBB629:
 1849              	.LBB627:
 1850              	.LBB625:
 1851              	.LBB622:
 1852              	.LBB618:
 1853              		.loc 6 373 55 discriminator 1 view .LVU455
 1854 0382 8DF87C30 		strb	r3, [sp, #124]
 1855              	.LVL132:
 1856              		.loc 6 373 55 discriminator 1 view .LVU456
 1857              	.LBE618:
 1858              	.LBE622:
 1859              	.LBE625:
 1860              	.LBE627:
ARM GAS  C:\Users\matte\AppData\Local\Temp\ccayzbuB.s 			page 57


 1861              	.LBE629:
 1862              	.LBE631:
 1863              	.LBE638:
 1864              	.LBB639:
 1865              	.LBI632:
 126:../../libDaisy//src/daisy_seed.h ****     {
 1866              		.loc 1 126 17 is_stmt 1 discriminator 1 view .LVU457
 1867              	.LBB635:
 128:../../libDaisy//src/daisy_seed.h ****     }
 1868              		.loc 1 128 23 is_stmt 0 discriminator 1 view .LVU458
 1869 0386 FFF7FEFF 		bl	_ZN5daisy6LoggerILNS_17LoggerDestinationE1EE9PrintLineEPKcz
 1870              	.LVL133:
 128:../../libDaisy//src/daisy_seed.h ****     }
 1871              		.loc 1 128 23 discriminator 1 view .LVU459
 1872              	.LBE635:
 1873              	.LBE639:
  82:i2cComm.cpp   **** 		//uint8_t regToRead = 0x08;
  83:i2cComm.cpp   **** 		//uint8_t data = 0;
  84:i2cComm.cpp   **** 		// FROM I2C datasheet: read operation
  85:i2cComm.cpp   **** 		// this doesn't work
  86:i2cComm.cpp   **** 		
  87:i2cComm.cpp   **** 		//i2c.TransmitBlocking (0x5A,&regToRead, sizeof(regToRead) * 2, 10);
  88:i2cComm.cpp   **** 		//i2c.ReceiveBlocking (0x5A, &data, 1, 10);
  89:i2cComm.cpp   **** 		
  90:i2cComm.cpp   **** 
  91:i2cComm.cpp   **** 		//This doesn'teither
  92:i2cComm.cpp   **** 	 
  93:i2cComm.cpp   **** 		// i2c.WriteDataAtAddress (0x5A, regToRead, 1, );
  94:i2cComm.cpp   **** 		//i2c.ReadDataAtAddress ( 0x5A, regToRead, 1, &data, 1, 10 );
  95:i2cComm.cpp   **** 		//hw.PrintLine("%d", data);
  96:i2cComm.cpp   **** 		hw.DelayMs(10);
 1874              		.loc 7 96 3 is_stmt 1 discriminator 1 view .LVU460
 1875              		.loc 7 96 13 is_stmt 0 discriminator 1 view .LVU461
 1876 038a 2146     		mov	r1, r4
 1877 038c 0448     		ldr	r0, .L19+4
 1878 038e FFF7FEFF 		bl	_ZN5daisy9DaisySeed7DelayMsEj
 1879              	.LVL134:
  79:i2cComm.cpp   **** 		// dunno why but this works as a gate function
 1880              		.loc 7 79 2 is_stmt 1 discriminator 1 view .LVU462
 1881 0392 CFE7     		b	.L12
 1882              	.LVL135:
 1883              	.L10:
  49:i2cComm.cpp   **** 		while (1);
 1884              		.loc 7 49 3 view .LVU463
 1885              	.LBB640:
 1886              	.LBI640:
 126:../../libDaisy//src/daisy_seed.h ****     {
 1887              		.loc 1 126 17 view .LVU464
 1888              	.LBB641:
 128:../../libDaisy//src/daisy_seed.h ****     }
 1889              		.loc 1 128 23 is_stmt 0 view .LVU465
 1890 0394 0348     		ldr	r0, .L19+8
 1891              	.LVL136:
 128:../../libDaisy//src/daisy_seed.h ****     }
 1892              		.loc 1 128 23 view .LVU466
 1893 0396 FFF7FEFF 		bl	_ZN5daisy6LoggerILNS_17LoggerDestinationE1EE9PrintLineEPKcz
 1894              	.LVL137:
ARM GAS  C:\Users\matte\AppData\Local\Temp\ccayzbuB.s 			page 58


 1895              	.L13:
 128:../../libDaisy//src/daisy_seed.h ****     }
 1896              		.loc 1 128 23 view .LVU467
 1897              	.LBE641:
 1898              	.LBE640:
  50:i2cComm.cpp   **** 	}
 1899              		.loc 7 50 3 is_stmt 1 discriminator 1 view .LVU468
  50:i2cComm.cpp   **** 	}
 1900              		.loc 7 50 3 discriminator 1 view .LVU469
  50:i2cComm.cpp   **** 	}
 1901              		.loc 7 50 3 discriminator 1 view .LVU470
  50:i2cComm.cpp   **** 	}
 1902              		.loc 7 50 3 discriminator 1 view .LVU471
 1903 039a FEE7     		b	.L13
 1904              	.L20:
 1905              		.align	2
 1906              	.L19:
 1907 039c 14000000 		.word	.LC5
 1908 03a0 00000000 		.word	.LANCHOR0
 1909 03a4 0C000000 		.word	.LC4
 1910              		.cfi_endproc
 1911              	.LFE4683:
 1913              		.section	.text.startup._GLOBAL__sub_I_hw,"ax",%progbits
 1914              		.align	1
 1915              		.p2align 2,,3
 1916              		.syntax unified
 1917              		.thumb
 1918              		.thumb_func
 1919              		.fpu fpv5-d16
 1921              	_GLOBAL__sub_I_hw:
 1922              	.LFB5265:
  97:i2cComm.cpp   **** 	}
  98:i2cComm.cpp   **** }
 1923              		.loc 7 98 1 view -0
 1924              		.cfi_startproc
 1925              		@ args = 0, pretend = 0, frame = 0
 1926              		@ frame_needed = 0, uses_anonymous_args = 0
 1927              		@ link register save eliminated.
 1928              	.LBB663:
 1929              	.LBI663:
 1930              		.loc 7 98 1 view .LVU473
 1931              	.LVL138:
 1932              	.LBB664:
 1933              	.LBB665:
 1934              	.LBI665:
  21:../../libDaisy//src/daisy_seed.h ****     ~DaisySeed() {}
 1935              		.loc 1 21 5 view .LVU474
 1936              	.LBB666:
 1937              	.LBB667:
 1938              	.LBI667:
 1939              		.file 9 "../../libDaisy//src/per/qspi.h"
   1:../../libDaisy//src/per/qspi.h **** #ifndef DSY_QSPI
   2:../../libDaisy//src/per/qspi.h **** #define DSY_QSPI /**< Macro */
   3:../../libDaisy//src/per/qspi.h **** 
   4:../../libDaisy//src/per/qspi.h **** #ifndef UNIT_TEST // for unit tests, a dummy implementation
   5:../../libDaisy//src/per/qspi.h **** 
   6:../../libDaisy//src/per/qspi.h **** #include <cstdint>
ARM GAS  C:\Users\matte\AppData\Local\Temp\ccayzbuB.s 			page 59


   7:../../libDaisy//src/per/qspi.h **** #include "daisy_core.h" // Added for dsy_gpio_pin typedef
   8:../../libDaisy//src/per/qspi.h **** 
   9:../../libDaisy//src/per/qspi.h **** #define DSY_QSPI_TEXT       \
  10:../../libDaisy//src/per/qspi.h ****     __attribute__((section( \
  11:../../libDaisy//src/per/qspi.h ****         ".qspiflash_text"))) /**< used for reading memory in memory_mapped mode. */
  12:../../libDaisy//src/per/qspi.h **** #define DSY_QSPI_DATA       \
  13:../../libDaisy//src/per/qspi.h ****     __attribute__((section( \
  14:../../libDaisy//src/per/qspi.h ****         ".qspiflash_data"))) /**< used for reading memory in memory_mapped mode. */
  15:../../libDaisy//src/per/qspi.h **** #define DSY_QSPI_BSS        \
  16:../../libDaisy//src/per/qspi.h ****     __attribute__((section( \
  17:../../libDaisy//src/per/qspi.h ****         ".qspiflash_bss"))) /**< used for reading memory in memory_mapped mode. */
  18:../../libDaisy//src/per/qspi.h **** 
  19:../../libDaisy//src/per/qspi.h **** namespace daisy
  20:../../libDaisy//src/per/qspi.h **** {
  21:../../libDaisy//src/per/qspi.h **** /** @addtogroup serial
  22:../../libDaisy//src/per/qspi.h **** @{
  23:../../libDaisy//src/per/qspi.h **** */
  24:../../libDaisy//src/per/qspi.h **** 
  25:../../libDaisy//src/per/qspi.h **** /** 
  26:../../libDaisy//src/per/qspi.h ****  Driver for QSPI peripheral to interface with external flash memory. \n 
  27:../../libDaisy//src/per/qspi.h ****     Currently supported QSPI Devices: \n 
  28:../../libDaisy//src/per/qspi.h ****     * IS25LP080D
  29:../../libDaisy//src/per/qspi.h **** */
  30:../../libDaisy//src/per/qspi.h **** class QSPIHandle
  31:../../libDaisy//src/per/qspi.h **** {
  32:../../libDaisy//src/per/qspi.h ****   public:
  33:../../libDaisy//src/per/qspi.h ****     enum Result
  34:../../libDaisy//src/per/qspi.h ****     {
  35:../../libDaisy//src/per/qspi.h ****         OK = 0,
  36:../../libDaisy//src/per/qspi.h ****         ERR
  37:../../libDaisy//src/per/qspi.h ****     };
  38:../../libDaisy//src/per/qspi.h **** 
  39:../../libDaisy//src/per/qspi.h ****     /** Indicates the current status of the module. 
  40:../../libDaisy//src/per/qspi.h ****          *  Warnings are indicated by a leading W.
  41:../../libDaisy//src/per/qspi.h ****          *  Errors are indicated by a leading E and cause an immediate exit.
  42:../../libDaisy//src/per/qspi.h ****          * 
  43:../../libDaisy//src/per/qspi.h ****          *  \param GOOD - No errors have been reported.
  44:../../libDaisy//src/per/qspi.h ****          *  \param E_HAL_ERROR - HAL code did not return HAL_OK.
  45:../../libDaisy//src/per/qspi.h ****          *  \param E_SWITCHING_MODES - An error was encountered while switching QSPI peripheral mod
  46:../../libDaisy//src/per/qspi.h ****          *  \param E_INVALID_MODE - QSPI should not be written to while the program is executing fr
  47:../../libDaisy//src/per/qspi.h ****          */
  48:../../libDaisy//src/per/qspi.h ****     enum Status
  49:../../libDaisy//src/per/qspi.h ****     {
  50:../../libDaisy//src/per/qspi.h ****         GOOD = 0,
  51:../../libDaisy//src/per/qspi.h ****         E_HAL_ERROR,
  52:../../libDaisy//src/per/qspi.h ****         E_SWITCHING_MODES,
  53:../../libDaisy//src/per/qspi.h ****         E_INVALID_MODE,
  54:../../libDaisy//src/per/qspi.h ****     };
  55:../../libDaisy//src/per/qspi.h **** 
  56:../../libDaisy//src/per/qspi.h ****     /** Configuration structure for interfacing with QSPI Driver */
  57:../../libDaisy//src/per/qspi.h ****     struct Config
  58:../../libDaisy//src/per/qspi.h ****     {
  59:../../libDaisy//src/per/qspi.h ****         /** Flash Devices supported. (Both of these are more-or-less the same, just different sizes
  60:../../libDaisy//src/per/qspi.h ****         enum Device
  61:../../libDaisy//src/per/qspi.h ****         {
  62:../../libDaisy//src/per/qspi.h ****             IS25LP080D,  /**< & */
  63:../../libDaisy//src/per/qspi.h ****             IS25LP064A,  /**< & */
ARM GAS  C:\Users\matte\AppData\Local\Temp\ccayzbuB.s 			page 60


  64:../../libDaisy//src/per/qspi.h ****             DEVICE_LAST, /**< & */
  65:../../libDaisy//src/per/qspi.h ****         };
  66:../../libDaisy//src/per/qspi.h **** 
  67:../../libDaisy//src/per/qspi.h ****         /** 
  68:../../libDaisy//src/per/qspi.h ****         Modes of operation.
  69:../../libDaisy//src/per/qspi.h ****         Memory Mapped mode: QSPI configured so that the QSPI can be
  70:../../libDaisy//src/per/qspi.h ****         read from starting address 0x90000000. Writing is not
  71:../../libDaisy//src/per/qspi.h ****         possible in this mode. \n 
  72:../../libDaisy//src/per/qspi.h ****         Indirect Polling mode: Device driver enabled. 
  73:../../libDaisy//src/per/qspi.h ****         */
  74:../../libDaisy//src/per/qspi.h ****         enum Mode
  75:../../libDaisy//src/per/qspi.h ****         {
  76:../../libDaisy//src/per/qspi.h ****             MEMORY_MAPPED,    /**< & */
  77:../../libDaisy//src/per/qspi.h ****             INDIRECT_POLLING, /**< & */
  78:../../libDaisy//src/per/qspi.h ****             MODE_LAST,
  79:../../libDaisy//src/per/qspi.h ****         };
  80:../../libDaisy//src/per/qspi.h **** 
  81:../../libDaisy//src/per/qspi.h ****         //SCK,  CE# (active low)
  82:../../libDaisy//src/per/qspi.h ****         struct
  83:../../libDaisy//src/per/qspi.h ****         {
  84:../../libDaisy//src/per/qspi.h ****             dsy_gpio_pin io0; /**< & */
  85:../../libDaisy//src/per/qspi.h ****             dsy_gpio_pin io1; /**< & */
  86:../../libDaisy//src/per/qspi.h ****             dsy_gpio_pin io2; /**< & */
  87:../../libDaisy//src/per/qspi.h ****             dsy_gpio_pin io3; /**< & */
  88:../../libDaisy//src/per/qspi.h ****             dsy_gpio_pin clk; /**< & */
  89:../../libDaisy//src/per/qspi.h ****             dsy_gpio_pin ncs; /**< & */
  90:../../libDaisy//src/per/qspi.h ****         } pin_config;
  91:../../libDaisy//src/per/qspi.h **** 
  92:../../libDaisy//src/per/qspi.h ****         Device device;
  93:../../libDaisy//src/per/qspi.h ****         Mode   mode;
  94:../../libDaisy//src/per/qspi.h ****     };
  95:../../libDaisy//src/per/qspi.h **** 
  96:../../libDaisy//src/per/qspi.h ****     /** 
  97:../../libDaisy//src/per/qspi.h ****         Initializes QSPI peripheral, and Resets, and prepares memory for access.
  98:../../libDaisy//src/per/qspi.h ****         \param config should be populated with the mode, device and pin_config before calling this 
  99:../../libDaisy//src/per/qspi.h ****         \return Result::OK or Result::ERR
 100:../../libDaisy//src/per/qspi.h ****         */
 101:../../libDaisy//src/per/qspi.h ****     Result Init(const Config& config);
 102:../../libDaisy//src/per/qspi.h **** 
 103:../../libDaisy//src/per/qspi.h ****     /** Returns the current config. */
 104:../../libDaisy//src/per/qspi.h ****     const Config& GetConfig() const;
 105:../../libDaisy//src/per/qspi.h **** 
 106:../../libDaisy//src/per/qspi.h ****     // Couldn't this just be called before anything else in init? That
 107:../../libDaisy//src/per/qspi.h ****     // would make manually calling it unnecessary.
 108:../../libDaisy//src/per/qspi.h ****     /** 
 109:../../libDaisy//src/per/qspi.h ****         Deinitializes the peripheral
 110:../../libDaisy//src/per/qspi.h ****         This should be called before reinitializing QSPI in a different mode.
 111:../../libDaisy//src/per/qspi.h ****         \return Result::OK or Result::ERR
 112:../../libDaisy//src/per/qspi.h ****         */
 113:../../libDaisy//src/per/qspi.h ****     Result DeInit();
 114:../../libDaisy//src/per/qspi.h **** 
 115:../../libDaisy//src/per/qspi.h ****     /** 
 116:../../libDaisy//src/per/qspi.h ****         Writes a single page to to the specified address on the QSPI chip.
 117:../../libDaisy//src/per/qspi.h ****         For IS25LP*, page size is 256 bytes.
 118:../../libDaisy//src/per/qspi.h ****         \param address Address to write to
 119:../../libDaisy//src/per/qspi.h ****         \param size Buffer size
 120:../../libDaisy//src/per/qspi.h ****         \param buffer Buffer to write
ARM GAS  C:\Users\matte\AppData\Local\Temp\ccayzbuB.s 			page 61


 121:../../libDaisy//src/per/qspi.h ****         \return Result::OK or Result::ERR
 122:../../libDaisy//src/per/qspi.h ****         */
 123:../../libDaisy//src/per/qspi.h ****     Result WritePage(uint32_t address, uint32_t size, uint8_t* buffer);
 124:../../libDaisy//src/per/qspi.h **** 
 125:../../libDaisy//src/per/qspi.h ****     /** 
 126:../../libDaisy//src/per/qspi.h ****         Writes data in buffer to to the QSPI. Starting at address to address+size 
 127:../../libDaisy//src/per/qspi.h ****         \param address Address to write to
 128:../../libDaisy//src/per/qspi.h ****         \param size Buffer size
 129:../../libDaisy//src/per/qspi.h ****         \param buffer Buffer to write
 130:../../libDaisy//src/per/qspi.h ****         \return Result::OK or Result::ERR
 131:../../libDaisy//src/per/qspi.h ****         */
 132:../../libDaisy//src/per/qspi.h ****     Result Write(uint32_t address, uint32_t size, uint8_t* buffer);
 133:../../libDaisy//src/per/qspi.h **** 
 134:../../libDaisy//src/per/qspi.h ****     /** 
 135:../../libDaisy//src/per/qspi.h ****         Erases the area specified on the chip.
 136:../../libDaisy//src/per/qspi.h ****         Erasures will happen by 4K, 32K or 64K increments.
 137:../../libDaisy//src/per/qspi.h ****         Smallest erase possible is 4kB at a time. (on IS25LP*)
 138:../../libDaisy//src/per/qspi.h ****         \param start_addr Address to begin erasing from
 139:../../libDaisy//src/per/qspi.h ****         \param end_addr  Address to stop erasing at
 140:../../libDaisy//src/per/qspi.h ****         \return Result::OK or Result::ERR
 141:../../libDaisy//src/per/qspi.h ****         */
 142:../../libDaisy//src/per/qspi.h ****     Result Erase(uint32_t start_addr, uint32_t end_addr);
 143:../../libDaisy//src/per/qspi.h **** 
 144:../../libDaisy//src/per/qspi.h ****     /**  
 145:../../libDaisy//src/per/qspi.h ****          Erases a single sector of the chip.  
 146:../../libDaisy//src/per/qspi.h ****         TODO: Document the size of this function. 
 147:../../libDaisy//src/per/qspi.h ****         \param address Address of sector to erase
 148:../../libDaisy//src/per/qspi.h ****         \return Result::OK or Result::ERR
 149:../../libDaisy//src/per/qspi.h ****         */
 150:../../libDaisy//src/per/qspi.h ****     Result EraseSector(uint32_t address);
 151:../../libDaisy//src/per/qspi.h **** 
 152:../../libDaisy//src/per/qspi.h ****     /** Returns the current class status. Useful for debugging.
 153:../../libDaisy//src/per/qspi.h ****      *  \returns Status
 154:../../libDaisy//src/per/qspi.h ****      */
 155:../../libDaisy//src/per/qspi.h ****     Status GetStatus();
 156:../../libDaisy//src/per/qspi.h **** 
 157:../../libDaisy//src/per/qspi.h ****     /** Returns a pointer to the actual memory used 
 158:../../libDaisy//src/per/qspi.h ****      *  The memory at this address is read-only
 159:../../libDaisy//src/per/qspi.h ****      *  to write to it use the Write function.
 160:../../libDaisy//src/per/qspi.h ****      * 
 161:../../libDaisy//src/per/qspi.h ****      *  \param offset returns the pointer starting this 
 162:../../libDaisy//src/per/qspi.h ****      *                many bytes into the memory
 163:../../libDaisy//src/per/qspi.h ****     */
 164:../../libDaisy//src/per/qspi.h ****     void* GetData(uint32_t offset = 0);
 165:../../libDaisy//src/per/qspi.h **** 
 166:../../libDaisy//src/per/qspi.h ****     QSPIHandle() : pimpl_(nullptr) {}
 1940              		.loc 9 166 5 view .LVU475
 1941              	.LBB668:
 1942              	.LBB669:
 1943              		.loc 9 166 34 is_stmt 0 view .LVU476
 1944 0000 0448     		ldr	r0, .L22
 1945 0002 0023     		movs	r3, #0
 1946              	.LBE669:
 1947              	.LBE668:
 1948              	.LBE667:
 1949              	.LBE666:
 1950              	.LBE665:
ARM GAS  C:\Users\matte\AppData\Local\Temp\ccayzbuB.s 			page 62


  10:i2cComm.cpp   **** /*
 1951              		.loc 7 10 11 view .LVU477
 1952 0004 044A     		ldr	r2, .L22+4
 1953 0006 0549     		ldr	r1, .L22+8
 1954              	.LBB686:
 1955              	.LBB685:
 1956              	.LBB672:
 1957              	.LBB671:
 1958              	.LBB670:
 1959              		.loc 9 166 34 view .LVU478
 1960 0008 0360     		str	r3, [r0]
 1961              	.LVL139:
 1962              		.loc 9 166 34 view .LVU479
 1963              	.LBE670:
 1964              	.LBE671:
 1965              	.LBE672:
 1966              	.LBB673:
 1967              	.LBI673:
  95:../../libDaisy//src/hid/audio.h ****     ~AudioHandle() {}
 1968              		.loc 5 95 5 is_stmt 1 view .LVU480
 1969              	.LBB674:
 1970              	.LBB675:
  95:../../libDaisy//src/hid/audio.h ****     ~AudioHandle() {}
 1971              		.loc 5 95 35 is_stmt 0 view .LVU481
 1972 000a 4361     		str	r3, [r0, #20]
 1973              	.LVL140:
  95:../../libDaisy//src/hid/audio.h ****     ~AudioHandle() {}
 1974              		.loc 5 95 35 view .LVU482
 1975              	.LBE675:
 1976              	.LBE674:
 1977              	.LBE673:
 1978              	.LBB676:
 1979              	.LBI676:
 109:../../libDaisy//src/per/adc.h ****     ~AdcHandle() {}
 1980              		.loc 4 109 5 is_stmt 1 view .LVU483
 109:../../libDaisy//src/per/adc.h ****     ~AdcHandle() {}
 1981              		.loc 4 109 5 is_stmt 0 view .LVU484
 1982              	.LBE676:
 1983              	.LBB677:
 1984              	.LBI677:
 1985              		.file 10 "../../libDaisy//src/per/dac.h"
   1:../../libDaisy//src/per/dac.h **** #pragma once
   2:../../libDaisy//src/per/dac.h **** #ifndef DSY_DAC_H
   3:../../libDaisy//src/per/dac.h **** #define DSY_DAC_H
   4:../../libDaisy//src/per/dac.h **** 
   5:../../libDaisy//src/per/dac.h **** #include "daisy_core.h"
   6:../../libDaisy//src/per/dac.h **** 
   7:../../libDaisy//src/per/dac.h **** namespace daisy
   8:../../libDaisy//src/per/dac.h **** {
   9:../../libDaisy//src/per/dac.h **** /** @brief DAC handle for Built-in DAC Peripheral 
  10:../../libDaisy//src/per/dac.h ****  *  @ingroup per_analog
  11:../../libDaisy//src/per/dac.h ****  ** 
  12:../../libDaisy//src/per/dac.h ****  ** For now only Normal Mode is supported,
  13:../../libDaisy//src/per/dac.h ****  ** Sample and hold mode provides reduced power consumption, but requires a bit more setup.
  14:../../libDaisy//src/per/dac.h ****  **
  15:../../libDaisy//src/per/dac.h ****  ** For now connecting the DAC through other internal peripherals is also not supported.
  16:../../libDaisy//src/per/dac.h ****  **
ARM GAS  C:\Users\matte\AppData\Local\Temp\ccayzbuB.s 			page 63


  17:../../libDaisy//src/per/dac.h ****  ** Since the DAC channels have dedicated pins we don't need to pass in a pin config like with
  18:../../libDaisy//src/per/dac.h ****  ** other modules. However, it is still important to not try to use the DAC pins for anything else.
  19:../../libDaisy//src/per/dac.h ****  ** DAC Channel 1 is on PA4, and DAC Channel 2 is on PA5
  20:../../libDaisy//src/per/dac.h ****  ***/
  21:../../libDaisy//src/per/dac.h **** class DacHandle
  22:../../libDaisy//src/per/dac.h **** {
  23:../../libDaisy//src/per/dac.h ****   public:
  24:../../libDaisy//src/per/dac.h ****     /** Return Values for the DacHandle class */
  25:../../libDaisy//src/per/dac.h ****     enum class Result
  26:../../libDaisy//src/per/dac.h ****     {
  27:../../libDaisy//src/per/dac.h ****         OK,
  28:../../libDaisy//src/per/dac.h ****         ERR,
  29:../../libDaisy//src/per/dac.h ****     };
  30:../../libDaisy//src/per/dac.h **** 
  31:../../libDaisy//src/per/dac.h ****     /** Selects which channel(s) will be configured for use. */
  32:../../libDaisy//src/per/dac.h ****     enum class Channel
  33:../../libDaisy//src/per/dac.h ****     {
  34:../../libDaisy//src/per/dac.h ****         ONE,
  35:../../libDaisy//src/per/dac.h ****         TWO,
  36:../../libDaisy//src/per/dac.h ****         BOTH,
  37:../../libDaisy//src/per/dac.h ****     };
  38:../../libDaisy//src/per/dac.h **** 
  39:../../libDaisy//src/per/dac.h ****     /** Sets the Mode for the DAC channels.
  40:../../libDaisy//src/per/dac.h ****      **
  41:../../libDaisy//src/per/dac.h ****      ** Polling mode uses the blocking mode to transmit a single value at a time.
  42:../../libDaisy//src/per/dac.h ****      **
  43:../../libDaisy//src/per/dac.h ****      ** DMA mode uses a buffer, and periodically transmits it triggering a 
  44:../../libDaisy//src/per/dac.h ****      ** callback to fill the buffer when it is ready for more samples.
  45:../../libDaisy//src/per/dac.h ****      ***/
  46:../../libDaisy//src/per/dac.h ****     enum class Mode
  47:../../libDaisy//src/per/dac.h ****     {
  48:../../libDaisy//src/per/dac.h ****         POLLING,
  49:../../libDaisy//src/per/dac.h ****         DMA,
  50:../../libDaisy//src/per/dac.h ****     };
  51:../../libDaisy//src/per/dac.h **** 
  52:../../libDaisy//src/per/dac.h ****     /** Sets the number of bits per sample transmitted out of the DAC.
  53:../../libDaisy//src/per/dac.h ****      ** The output range will be: 0V - VDDA
  54:../../libDaisy//src/per/dac.h ****      ** The resolution will be roughly: bitdepth / (VDDA - 0V) 
  55:../../libDaisy//src/per/dac.h ****      ***/
  56:../../libDaisy//src/per/dac.h ****     enum class BitDepth
  57:../../libDaisy//src/per/dac.h ****     {
  58:../../libDaisy//src/per/dac.h ****         BITS_8,
  59:../../libDaisy//src/per/dac.h ****         BITS_12
  60:../../libDaisy//src/per/dac.h ****     };
  61:../../libDaisy//src/per/dac.h **** 
  62:../../libDaisy//src/per/dac.h ****     /** Sets whether the DAC output is buffered for higher drive ability. */
  63:../../libDaisy//src/per/dac.h ****     enum class BufferState
  64:../../libDaisy//src/per/dac.h ****     {
  65:../../libDaisy//src/per/dac.h ****         ENABLED,
  66:../../libDaisy//src/per/dac.h ****         DISABLED,
  67:../../libDaisy//src/per/dac.h ****     };
  68:../../libDaisy//src/per/dac.h **** 
  69:../../libDaisy//src/per/dac.h ****     /** Configuration structure for initializing the DAC structure. */
  70:../../libDaisy//src/per/dac.h ****     struct Config
  71:../../libDaisy//src/per/dac.h ****     {
  72:../../libDaisy//src/per/dac.h ****         /** Target Samplerate in Hz used to configure the internal 
  73:../../libDaisy//src/per/dac.h ****          ** timebase for DMA mode. Does nothing in POLLING mode.
ARM GAS  C:\Users\matte\AppData\Local\Temp\ccayzbuB.s 			page 64


  74:../../libDaisy//src/per/dac.h ****          ** If the value is 0 at Init time this will default to 48000Hz 
  75:../../libDaisy//src/per/dac.h ****          ** otherwise the driver will attempt meet the target.*/
  76:../../libDaisy//src/per/dac.h ****         uint32_t target_samplerate;
  77:../../libDaisy//src/per/dac.h **** 
  78:../../libDaisy//src/per/dac.h ****         Channel     chn;
  79:../../libDaisy//src/per/dac.h ****         Mode        mode;
  80:../../libDaisy//src/per/dac.h ****         BitDepth    bitdepth;
  81:../../libDaisy//src/per/dac.h ****         BufferState buff_state;
  82:../../libDaisy//src/per/dac.h ****     };
  83:../../libDaisy//src/per/dac.h **** 
  84:../../libDaisy//src/per/dac.h ****     DacHandle() : pimpl_(nullptr) {}
 1986              		.loc 10 84 5 is_stmt 1 view .LVU485
 1987              	.LBB678:
 1988              	.LBB679:
 1989              		.loc 10 84 33 is_stmt 0 view .LVU486
 1990 000c 0362     		str	r3, [r0, #32]
 1991              	.LVL141:
 1992              		.loc 10 84 33 view .LVU487
 1993              	.LBE679:
 1994              	.LBE678:
 1995              	.LBE677:
 1996              	.LBB680:
 1997              	.LBI680:
  40:../../libDaisy//src/hid/usb.h **** 
 1998              		.loc 3 40 5 is_stmt 1 view .LVU488
  40:../../libDaisy//src/hid/usb.h **** 
 1999              		.loc 3 40 5 is_stmt 0 view .LVU489
 2000              	.LBE680:
 2001              	.LBB681:
 2002              	.LBI681:
  96:../../libDaisy//src/sys/system.h ****     ~System() {}
 2003              		.loc 2 96 5 is_stmt 1 view .LVU490
  96:../../libDaisy//src/sys/system.h ****     ~System() {}
 2004              		.loc 2 96 5 is_stmt 0 view .LVU491
 2005              	.LBE681:
 2006              	.LBB682:
 2007              	.LBI682:
 2008              		.file 11 "../../libDaisy//src/per/sai.h"
   1:../../libDaisy//src/per/sai.h **** #pragma once
   2:../../libDaisy//src/per/sai.h **** #ifndef DSY_SAI_H
   3:../../libDaisy//src/per/sai.h **** #define DSY_SAI_H
   4:../../libDaisy//src/per/sai.h **** 
   5:../../libDaisy//src/per/sai.h **** #include "daisy_core.h"
   6:../../libDaisy//src/per/sai.h **** 
   7:../../libDaisy//src/per/sai.h **** namespace daisy
   8:../../libDaisy//src/per/sai.h **** {
   9:../../libDaisy//src/per/sai.h **** /** 
  10:../../libDaisy//src/per/sai.h ****  * Support for I2S Audio Protocol with different bit-depth, samplerate options
  11:../../libDaisy//src/per/sai.h ****  * Allows for master or slave, as well as freedom of selecting direction, 
  12:../../libDaisy//src/per/sai.h ****  * and other behavior for each peripheral, and block.
  13:../../libDaisy//src/per/sai.h ****  * 
  14:../../libDaisy//src/per/sai.h ****  * DMA Transfer commands must use buffers located within non-cached memory or use cache maintenance
  15:../../libDaisy//src/per/sai.h ****  * To declare an unitialized global element in the DMA memory section:
  16:../../libDaisy//src/per/sai.h ****  *    int32_t DSY_DMA_BUFFER_SECTOR my_buffer[96];
  17:../../libDaisy//src/per/sai.h ****  *
  18:../../libDaisy//src/per/sai.h ****  * Callback functions will be called once per half of the buffer. In the above example, 
  19:../../libDaisy//src/per/sai.h ****  * the callback function would be called once for every 48 samples.
ARM GAS  C:\Users\matte\AppData\Local\Temp\ccayzbuB.s 			page 65


  20:../../libDaisy//src/per/sai.h ****  * 
  21:../../libDaisy//src/per/sai.h ****  * Use SAI Handle like this:
  22:../../libDaisy//src/per/sai.h ****  * 
  23:../../libDaisy//src/per/sai.h ****  *  SaiHandle::Config sai_config;
  24:../../libDaisy//src/per/sai.h ****  *  sai_config.periph          = SaiHandle::Config::Peripheral::SAI_1;
  25:../../libDaisy//src/per/sai.h ****  *  sai_config.sr              = SaiHandle::Config::SampleRate::SAI_48KHZ;
  26:../../libDaisy//src/per/sai.h ****  *  sai_config.bit_depth       = SaiHandle::Config::BitDepth::SAI_24BIT;
  27:../../libDaisy//src/per/sai.h ****  *  sai_config.a_sync          = SaiHandle::Config::Sync::MASTER;
  28:../../libDaisy//src/per/sai.h ****  *  sai_config.b_sync          = SaiHandle::Config::Sync::SLAVE;
  29:../../libDaisy//src/per/sai.h ****  *  sai_config.a_dir           = SaiHandle::Config::Direction::RECEIVE;
  30:../../libDaisy//src/per/sai.h ****  *  sai_config.b_dir           = SaiHandle::Config::Direction::TRANSMIT;
  31:../../libDaisy//src/per/sai.h ****  *  sai_config.pin_config.fs   = {DSY_GPIOE, 4};
  32:../../libDaisy//src/per/sai.h ****  *  sai_config.pin_config.mclk = {DSY_GPIOE, 2};
  33:../../libDaisy//src/per/sai.h ****  *  sai_config.pin_config.sck  = {DSY_GPIOE, 5};
  34:../../libDaisy//src/per/sai.h ****  *  sai_config.pin_config.sa   = {DSY_GPIOE, 6};
  35:../../libDaisy//src/per/sai.h ****  *  sai_config.pin_config.sb   = {DSY_GPIOE, 3};
  36:../../libDaisy//src/per/sai.h ****  *  // Then Initialize
  37:../../libDaisy//src/per/sai.h ****  *  SaiHandle sai;
  38:../../libDaisy//src/per/sai.h ****  *  sai.Init(sai_config);
  39:../../libDaisy//src/per/sai.h ****  *  // Now you can use it:
  40:../../libDaisy//src/per/sai.h ****  *  sai.StartDma(. . .);
  41:../../libDaisy//src/per/sai.h ****  */
  42:../../libDaisy//src/per/sai.h **** class SaiHandle
  43:../../libDaisy//src/per/sai.h **** {
  44:../../libDaisy//src/per/sai.h ****   public:
  45:../../libDaisy//src/per/sai.h ****     /** Contains settings for initialising an SAI Interface */
  46:../../libDaisy//src/per/sai.h ****     struct Config
  47:../../libDaisy//src/per/sai.h ****     {
  48:../../libDaisy//src/per/sai.h ****         /** Specifies the internal peripheral to use (mapped to different hardware pins) */
  49:../../libDaisy//src/per/sai.h ****         enum class Peripheral
  50:../../libDaisy//src/per/sai.h ****         {
  51:../../libDaisy//src/per/sai.h ****             SAI_1,
  52:../../libDaisy//src/per/sai.h ****             SAI_2,
  53:../../libDaisy//src/per/sai.h ****         };
  54:../../libDaisy//src/per/sai.h **** 
  55:../../libDaisy//src/per/sai.h ****         /** Rate at which samples will be streaming to/from the device. */
  56:../../libDaisy//src/per/sai.h ****         enum class SampleRate
  57:../../libDaisy//src/per/sai.h ****         {
  58:../../libDaisy//src/per/sai.h ****             SAI_8KHZ,
  59:../../libDaisy//src/per/sai.h ****             SAI_16KHZ,
  60:../../libDaisy//src/per/sai.h ****             SAI_32KHZ,
  61:../../libDaisy//src/per/sai.h ****             SAI_48KHZ,
  62:../../libDaisy//src/per/sai.h ****             SAI_96KHZ,
  63:../../libDaisy//src/per/sai.h ****         };
  64:../../libDaisy//src/per/sai.h **** 
  65:../../libDaisy//src/per/sai.h ****         /** Bit Depth that the hardware expects to be transferred to/from the device. */
  66:../../libDaisy//src/per/sai.h ****         enum class BitDepth
  67:../../libDaisy//src/per/sai.h ****         {
  68:../../libDaisy//src/per/sai.h ****             SAI_16BIT,
  69:../../libDaisy//src/per/sai.h ****             SAI_24BIT,
  70:../../libDaisy//src/per/sai.h ****             SAI_32BIT,
  71:../../libDaisy//src/per/sai.h ****         };
  72:../../libDaisy//src/per/sai.h **** 
  73:../../libDaisy//src/per/sai.h ****         /** Specifies whether a particular block is the master or the slave 
  74:../../libDaisy//src/per/sai.h ****          ** If both are set to slave, no MCLK signal will be used, and it is
  75:../../libDaisy//src/per/sai.h ****          ** expected that the codec will have its own xtal.
  76:../../libDaisy//src/per/sai.h ****          */
ARM GAS  C:\Users\matte\AppData\Local\Temp\ccayzbuB.s 			page 66


  77:../../libDaisy//src/per/sai.h ****         enum class Sync
  78:../../libDaisy//src/per/sai.h ****         {
  79:../../libDaisy//src/per/sai.h ****             MASTER,
  80:../../libDaisy//src/per/sai.h ****             SLAVE,
  81:../../libDaisy//src/per/sai.h ****         };
  82:../../libDaisy//src/per/sai.h **** 
  83:../../libDaisy//src/per/sai.h ****         /** Specifies the direction for each peripheral block. */
  84:../../libDaisy//src/per/sai.h ****         enum class Direction
  85:../../libDaisy//src/per/sai.h ****         {
  86:../../libDaisy//src/per/sai.h ****             TRANSMIT,
  87:../../libDaisy//src/per/sai.h ****             RECEIVE,
  88:../../libDaisy//src/per/sai.h ****         };
  89:../../libDaisy//src/per/sai.h **** 
  90:../../libDaisy//src/per/sai.h ****         Peripheral periph;
  91:../../libDaisy//src/per/sai.h ****         struct
  92:../../libDaisy//src/per/sai.h ****         {
  93:../../libDaisy//src/per/sai.h ****             dsy_gpio_pin mclk, fs, sck, sa, sb;
  94:../../libDaisy//src/per/sai.h ****         } pin_config;
  95:../../libDaisy//src/per/sai.h ****         SampleRate sr;
  96:../../libDaisy//src/per/sai.h ****         BitDepth   bit_depth;
  97:../../libDaisy//src/per/sai.h ****         Sync       a_sync, b_sync;
  98:../../libDaisy//src/per/sai.h ****         Direction  a_dir, b_dir;
  99:../../libDaisy//src/per/sai.h ****     };
 100:../../libDaisy//src/per/sai.h **** 
 101:../../libDaisy//src/per/sai.h ****     /** Return values for SAI functions */
 102:../../libDaisy//src/per/sai.h ****     enum class Result
 103:../../libDaisy//src/per/sai.h ****     {
 104:../../libDaisy//src/per/sai.h ****         OK,
 105:../../libDaisy//src/per/sai.h ****         ERR,
 106:../../libDaisy//src/per/sai.h ****     };
 107:../../libDaisy//src/per/sai.h **** 
 108:../../libDaisy//src/per/sai.h ****     SaiHandle() : pimpl_(nullptr) {}
 2009              		.loc 11 108 5 is_stmt 1 view .LVU492
 2010              	.LBB683:
 2011              	.LBB684:
 2012              		.loc 11 108 33 is_stmt 0 view .LVU493
 2013 000e C363     		str	r3, [r0, #60]
 2014              	.LVL142:
 2015              		.loc 11 108 33 view .LVU494
 2016              	.LBE684:
 2017              	.LBE683:
 2018              	.LBE682:
 2019              	.LBE685:
 2020              	.LBE686:
  10:i2cComm.cpp   **** /*
 2021              		.loc 7 10 11 view .LVU495
 2022 0010 FFF7FEBF 		b	__aeabi_atexit
 2023              	.LVL143:
 2024              	.L23:
 2025              		.align	2
 2026              	.L22:
 2027 0014 00000000 		.word	.LANCHOR0
 2028 0018 00000000 		.word	__dso_handle
 2029 001c 00000000 		.word	_ZN5daisy9DaisySeedD1Ev
 2030              	.LBE664:
 2031              	.LBE663:
 2032              		.cfi_endproc
ARM GAS  C:\Users\matte\AppData\Local\Temp\ccayzbuB.s 			page 67


 2033              	.LFE5265:
 2035              		.section	.init_array,"aw",%init_array
 2036              		.align	2
 2037 0000 00000000 		.word	_GLOBAL__sub_I_hw(target1)
 2038              		.global	hw
 2039              		.section	.bss.hw,"aw",%nobits
 2040              		.align	2
 2041              		.set	.LANCHOR0,. + 0
 2044              	hw:
 2045 0000 00000000 		.space	64
 2045      00000000 
 2045      00000000 
 2045      00000000 
 2045      00000000 
 2046              		.text
 2047              	.Letext0:
 2048              		.file 12 "c:\\program files\\daisytoolchain\\arm-none-eabi\\include\\machine\\_default_types.h"
 2049              		.file 13 "c:\\program files\\daisytoolchain\\arm-none-eabi\\include\\sys\\_stdint.h"
 2050              		.file 14 "c:\\program files\\daisytoolchain\\arm-none-eabi\\include\\stdint.h"
 2051              		.file 15 "c:\\program files\\daisytoolchain\\lib\\gcc\\arm-none-eabi\\10.2.1\\include\\stddef.h"
 2052              		.file 16 "c:\\program files\\daisytoolchain\\arm-none-eabi\\include\\c++\\10.2.1\\cmath"
 2053              		.file 17 "c:\\program files\\daisytoolchain\\arm-none-eabi\\include\\c++\\10.2.1\\bits\\std_abs.h"
 2054              		.file 18 "c:\\program files\\daisytoolchain\\arm-none-eabi\\include\\c++\\10.2.1\\cstdlib"
 2055              		.file 19 "c:\\program files\\daisytoolchain\\arm-none-eabi\\include\\c++\\10.2.1\\cstdint"
 2056              		.file 20 "c:\\program files\\daisytoolchain\\arm-none-eabi\\include\\c++\\10.2.1\\type_traits"
 2057              		.file 21 "c:\\program files\\daisytoolchain\\arm-none-eabi\\include\\c++\\10.2.1\\debug\\debug.h"
 2058              		.file 22 "c:\\program files\\daisytoolchain\\arm-none-eabi\\include\\c++\\10.2.1\\arm-none-eabi\\t
 2059              		.file 23 "c:\\program files\\daisytoolchain\\arm-none-eabi\\include\\c++\\10.2.1\\bits\\algorithmf
 2060              		.file 24 "c:\\program files\\daisytoolchain\\arm-none-eabi\\include\\c++\\10.2.1\\bits\\stl_pair.h
 2061              		.file 25 "c:\\program files\\daisytoolchain\\arm-none-eabi\\include\\c++\\10.2.1\\bits\\exception_
 2062              		.file 26 "c:\\program files\\daisytoolchain\\arm-none-eabi\\include\\c++\\10.2.1\\cstdarg"
 2063              		.file 27 "c:\\program files\\daisytoolchain\\arm-none-eabi\\include\\c++\\10.2.1\\cstdio"
 2064              		.file 28 "c:\\program files\\daisytoolchain\\arm-none-eabi\\include\\c++\\10.2.1\\cstring"
 2065              		.file 29 "c:\\program files\\daisytoolchain\\arm-none-eabi\\include\\c++\\10.2.1\\cwchar"
 2066              		.file 30 "c:\\program files\\daisytoolchain\\arm-none-eabi\\include\\c++\\10.2.1\\clocale"
 2067              		.file 31 "c:\\program files\\daisytoolchain\\arm-none-eabi\\include\\c++\\10.2.1\\bits\\basic_stri
 2068              		.file 32 "c:\\program files\\daisytoolchain\\arm-none-eabi\\include\\c++\\10.2.1\\bits\\stl_tempbu
 2069              		.file 33 "c:\\program files\\daisytoolchain\\arm-none-eabi\\include\\c++\\10.2.1\\bits\\predefined
 2070              		.file 34 "c:\\program files\\daisytoolchain\\arm-none-eabi\\include\\sys\\_types.h"
 2071              		.file 35 "c:\\program files\\daisytoolchain\\arm-none-eabi\\include\\sys\\reent.h"
 2072              		.file 36 "c:\\program files\\daisytoolchain\\arm-none-eabi\\include\\sys\\lock.h"
 2073              		.file 37 "c:\\program files\\daisytoolchain\\arm-none-eabi\\include\\math.h"
 2074              		.file 38 "c:\\program files\\daisytoolchain\\arm-none-eabi\\include\\stdlib.h"
 2075              		.file 39 "c:\\program files\\daisytoolchain\\arm-none-eabi\\include\\c++\\10.2.1\\math.h"
 2076              		.file 40 "c:\\program files\\daisytoolchain\\arm-none-eabi\\include\\c++\\10.2.1\\stdlib.h"
 2077              		.file 41 "../../libDaisy//src/daisy_core.h"
 2078              		.file 42 "../../libDaisy//src/per/tim.h"
 2079              		.file 43 "../../libDaisy//src/hid/logger_impl.h"
 2080              		.file 44 "../../libDaisy//src/util/wav_format.h"
 2081              		.file 45 "../../libDaisy//src/dev/max11300.h"
 2082              		.file 46 "../../libDaisy//src/hid/logger.h"
 2083              		.file 47 "../../libDaisy//src/per/gpio.h"
 2084              		.file 48 "../../libDaisy//src/dev/sdram.h"
 2085              		.file 49 "c:\\program files\\daisytoolchain\\lib\\gcc\\arm-none-eabi\\10.2.1\\include\\stdarg.h"
 2086              		.file 50 "c:\\program files\\daisytoolchain\\arm-none-eabi\\include\\stdio.h"
 2087              		.file 51 "c:\\program files\\daisytoolchain\\arm-none-eabi\\include\\string.h"
 2088              		.file 52 "../../DaisySP//Source/Control/adenv.h"
ARM GAS  C:\Users\matte\AppData\Local\Temp\ccayzbuB.s 			page 68


 2089              		.file 53 "../../DaisySP//Source/Utility/dsp.h"
 2090              		.file 54 "c:\\program files\\daisytoolchain\\arm-none-eabi\\include\\wchar.h"
 2091              		.file 55 "c:\\program files\\daisytoolchain\\arm-none-eabi\\include\\locale.h"
 2092              		.file 56 "../../libDaisy//src/dev/sr_595.h"
 2093              		.file 57 "<built-in>"
ARM GAS  C:\Users\matte\AppData\Local\Temp\ccayzbuB.s 			page 69

