ARM GAS  C:\Users\matte\AppData\Local\Temp\ccP67MDp.s 			page 1


   1              		.cpu cortex-m7
   2              		.eabi_attribute 28, 1
   3              		.eabi_attribute 20, 1
   4              		.eabi_attribute 21, 1
   5              		.eabi_attribute 23, 3
   6              		.eabi_attribute 24, 1
   7              		.eabi_attribute 25, 1
   8              		.eabi_attribute 26, 1
   9              		.eabi_attribute 30, 2
  10              		.eabi_attribute 34, 1
  11              		.eabi_attribute 18, 4
  12              		.file	"main.cpp"
  13              		.text
  14              	.Ltext0:
  15              		.cfi_sections	.debug_frame
  16              		.section	.text._ZN5daisy9DaisySeedD2Ev,"axG",%progbits,_ZN5daisy9DaisySeedD5Ev,comdat
  17              		.align	1
  18              		.p2align 2,,3
  19              		.weak	_ZN5daisy9DaisySeedD2Ev
  20              		.arch armv7e-m
  21              		.syntax unified
  22              		.thumb
  23              		.thumb_func
  24              		.fpu fpv5-d16
  26              	_ZN5daisy9DaisySeedD2Ev:
  27              	.LVL0:
  28              	.LFB2729:
  29              		.file 1 "../../libs/PolitekDSP/libs/libDaisy/../../libs/libDaisy/src/daisy_seed.h"
   1:../../libs/PolitekDSP/libs/libDaisy/../../libs/libDaisy/src/daisy_seed.h **** #pragma once
   2:../../libs/PolitekDSP/libs/libDaisy/../../libs/libDaisy/src/daisy_seed.h **** #ifndef DSY_SEED_H
   3:../../libs/PolitekDSP/libs/libDaisy/../../libs/libDaisy/src/daisy_seed.h **** #define DSY_SEED_H
   4:../../libs/PolitekDSP/libs/libDaisy/../../libs/libDaisy/src/daisy_seed.h **** 
   5:../../libs/PolitekDSP/libs/libDaisy/../../libs/libDaisy/src/daisy_seed.h **** #include "daisy.h"
   6:../../libs/PolitekDSP/libs/libDaisy/../../libs/libDaisy/src/daisy_seed.h **** 
   7:../../libs/PolitekDSP/libs/libDaisy/../../libs/libDaisy/src/daisy_seed.h **** //Uncomment this out if you're still using the rev2 hardware
   8:../../libs/PolitekDSP/libs/libDaisy/../../libs/libDaisy/src/daisy_seed.h **** //#define SEED_REV2
   9:../../libs/PolitekDSP/libs/libDaisy/../../libs/libDaisy/src/daisy_seed.h **** 
  10:../../libs/PolitekDSP/libs/libDaisy/../../libs/libDaisy/src/daisy_seed.h **** namespace daisy
  11:../../libs/PolitekDSP/libs/libDaisy/../../libs/libDaisy/src/daisy_seed.h **** {
  12:../../libs/PolitekDSP/libs/libDaisy/../../libs/libDaisy/src/daisy_seed.h **** /**
  13:../../libs/PolitekDSP/libs/libDaisy/../../libs/libDaisy/src/daisy_seed.h ****    @brief This is the higher-level interface for the Daisy board. \n 
  14:../../libs/PolitekDSP/libs/libDaisy/../../libs/libDaisy/src/daisy_seed.h ****     All basic peripheral configuration/initialization is setup here. \n
  15:../../libs/PolitekDSP/libs/libDaisy/../../libs/libDaisy/src/daisy_seed.h **** 
  16:../../libs/PolitekDSP/libs/libDaisy/../../libs/libDaisy/src/daisy_seed.h ****    @ingroup boards
  17:../../libs/PolitekDSP/libs/libDaisy/../../libs/libDaisy/src/daisy_seed.h **** */
  18:../../libs/PolitekDSP/libs/libDaisy/../../libs/libDaisy/src/daisy_seed.h **** class DaisySeed
  19:../../libs/PolitekDSP/libs/libDaisy/../../libs/libDaisy/src/daisy_seed.h **** {
  20:../../libs/PolitekDSP/libs/libDaisy/../../libs/libDaisy/src/daisy_seed.h ****   public:
  21:../../libs/PolitekDSP/libs/libDaisy/../../libs/libDaisy/src/daisy_seed.h ****     DaisySeed() {}
  22:../../libs/PolitekDSP/libs/libDaisy/../../libs/libDaisy/src/daisy_seed.h ****     ~DaisySeed() {}
  30              		.loc 1 22 5 view -0
  31              		.cfi_startproc
  32              		@ args = 0, pretend = 0, frame = 0
  33              		@ frame_needed = 0, uses_anonymous_args = 0
  34              		@ link register save eliminated.
  35              	.LBB268:
  36              	.LBI268:
ARM GAS  C:\Users\matte\AppData\Local\Temp\ccP67MDp.s 			page 2


  37              		.file 2 "../../libs/PolitekDSP/libs/libDaisy/../../libs/libDaisy/src/dev/codec_ak4556.h"
   1:../../libs/PolitekDSP/libs/libDaisy/../../libs/libDaisy/src/dev/codec_ak4556.h **** #pragma once
   2:../../libs/PolitekDSP/libs/libDaisy/../../libs/libDaisy/src/dev/codec_ak4556.h **** #ifndef DSY_CODEC_AK4556_H
   3:../../libs/PolitekDSP/libs/libDaisy/../../libs/libDaisy/src/dev/codec_ak4556.h **** #define DSY_CODEC_AK4556_H
   4:../../libs/PolitekDSP/libs/libDaisy/../../libs/libDaisy/src/dev/codec_ak4556.h **** 
   5:../../libs/PolitekDSP/libs/libDaisy/../../libs/libDaisy/src/dev/codec_ak4556.h **** #include "daisy_core.h"
   6:../../libs/PolitekDSP/libs/libDaisy/../../libs/libDaisy/src/dev/codec_ak4556.h **** #include "per/gpio.h"
   7:../../libs/PolitekDSP/libs/libDaisy/../../libs/libDaisy/src/dev/codec_ak4556.h **** 
   8:../../libs/PolitekDSP/libs/libDaisy/../../libs/libDaisy/src/dev/codec_ak4556.h **** namespace daisy
   9:../../libs/PolitekDSP/libs/libDaisy/../../libs/libDaisy/src/dev/codec_ak4556.h **** {
  10:../../libs/PolitekDSP/libs/libDaisy/../../libs/libDaisy/src/dev/codec_ak4556.h **** /** @brief Ak4556 Codec support 
  11:../../libs/PolitekDSP/libs/libDaisy/../../libs/libDaisy/src/dev/codec_ak4556.h ****  ** @author shensley
  12:../../libs/PolitekDSP/libs/libDaisy/../../libs/libDaisy/src/dev/codec_ak4556.h ****  ** @addtogroup codec
  13:../../libs/PolitekDSP/libs/libDaisy/../../libs/libDaisy/src/dev/codec_ak4556.h ****  ** 
  14:../../libs/PolitekDSP/libs/libDaisy/../../libs/libDaisy/src/dev/codec_ak4556.h ****  ** I don't see any real reason to have this be more than a function, but in case we want
  15:../../libs/PolitekDSP/libs/libDaisy/../../libs/libDaisy/src/dev/codec_ak4556.h ****  ** to add other functions down the road I wrapped the function in a class.
  16:../../libs/PolitekDSP/libs/libDaisy/../../libs/libDaisy/src/dev/codec_ak4556.h ****  ***/
  17:../../libs/PolitekDSP/libs/libDaisy/../../libs/libDaisy/src/dev/codec_ak4556.h **** class Ak4556
  18:../../libs/PolitekDSP/libs/libDaisy/../../libs/libDaisy/src/dev/codec_ak4556.h **** {
  19:../../libs/PolitekDSP/libs/libDaisy/../../libs/libDaisy/src/dev/codec_ak4556.h ****   public:
  20:../../libs/PolitekDSP/libs/libDaisy/../../libs/libDaisy/src/dev/codec_ak4556.h ****     Ak4556() {}
  21:../../libs/PolitekDSP/libs/libDaisy/../../libs/libDaisy/src/dev/codec_ak4556.h ****     ~Ak4556() {}
  38              		.loc 2 21 5 view .LVU1
  39              		.loc 2 21 5 is_stmt 0 view .LVU2
  40              	.LBE268:
  41              	.LBB269:
  42              	.LBI269:
  43              		.file 3 "../../libs/PolitekDSP/libs/libDaisy/../../libs/libDaisy/src/sys/system.h"
   1:../../libs/PolitekDSP/libs/libDaisy/../../libs/libDaisy/src/sys/system.h **** #ifndef DSY_SYSTEM_H
   2:../../libs/PolitekDSP/libs/libDaisy/../../libs/libDaisy/src/sys/system.h **** #define DSY_SYSTEM_H
   3:../../libs/PolitekDSP/libs/libDaisy/../../libs/libDaisy/src/sys/system.h **** 
   4:../../libs/PolitekDSP/libs/libDaisy/../../libs/libDaisy/src/sys/system.h **** #ifndef UNIT_TEST // for unit tests, a dummy implementation is provided below
   5:../../libs/PolitekDSP/libs/libDaisy/../../libs/libDaisy/src/sys/system.h **** 
   6:../../libs/PolitekDSP/libs/libDaisy/../../libs/libDaisy/src/sys/system.h **** #include <cstdint>
   7:../../libs/PolitekDSP/libs/libDaisy/../../libs/libDaisy/src/sys/system.h **** #include "per/tim.h"
   8:../../libs/PolitekDSP/libs/libDaisy/../../libs/libDaisy/src/sys/system.h **** 
   9:../../libs/PolitekDSP/libs/libDaisy/../../libs/libDaisy/src/sys/system.h **** namespace daisy
  10:../../libs/PolitekDSP/libs/libDaisy/../../libs/libDaisy/src/sys/system.h **** {
  11:../../libs/PolitekDSP/libs/libDaisy/../../libs/libDaisy/src/sys/system.h **** /** A handle for interacting with the Core System.
  12:../../libs/PolitekDSP/libs/libDaisy/../../libs/libDaisy/src/sys/system.h ****  ** This includes the Clock tree, MPU, global DMA initialization,
  13:../../libs/PolitekDSP/libs/libDaisy/../../libs/libDaisy/src/sys/system.h ****  ** cache handling, and any other necessary global initiailzation
  14:../../libs/PolitekDSP/libs/libDaisy/../../libs/libDaisy/src/sys/system.h ****  **
  15:../../libs/PolitekDSP/libs/libDaisy/../../libs/libDaisy/src/sys/system.h ****  ** @author shensley
  16:../../libs/PolitekDSP/libs/libDaisy/../../libs/libDaisy/src/sys/system.h ****  ** @ingroup system
  17:../../libs/PolitekDSP/libs/libDaisy/../../libs/libDaisy/src/sys/system.h ****  */
  18:../../libs/PolitekDSP/libs/libDaisy/../../libs/libDaisy/src/sys/system.h **** class System
  19:../../libs/PolitekDSP/libs/libDaisy/../../libs/libDaisy/src/sys/system.h **** {
  20:../../libs/PolitekDSP/libs/libDaisy/../../libs/libDaisy/src/sys/system.h ****   public:
  21:../../libs/PolitekDSP/libs/libDaisy/../../libs/libDaisy/src/sys/system.h ****     /** Contains settings for initializing the System */
  22:../../libs/PolitekDSP/libs/libDaisy/../../libs/libDaisy/src/sys/system.h ****     struct Config
  23:../../libs/PolitekDSP/libs/libDaisy/../../libs/libDaisy/src/sys/system.h ****     {
  24:../../libs/PolitekDSP/libs/libDaisy/../../libs/libDaisy/src/sys/system.h ****         /** Specifies the system clock frequency that feeds APB/AHB clocks, etc. */
  25:../../libs/PolitekDSP/libs/libDaisy/../../libs/libDaisy/src/sys/system.h ****         enum class SysClkFreq
  26:../../libs/PolitekDSP/libs/libDaisy/../../libs/libDaisy/src/sys/system.h ****         {
  27:../../libs/PolitekDSP/libs/libDaisy/../../libs/libDaisy/src/sys/system.h ****             FREQ_400MHZ,
  28:../../libs/PolitekDSP/libs/libDaisy/../../libs/libDaisy/src/sys/system.h ****             FREQ_480MHZ,
  29:../../libs/PolitekDSP/libs/libDaisy/../../libs/libDaisy/src/sys/system.h ****         };
ARM GAS  C:\Users\matte\AppData\Local\Temp\ccP67MDp.s 			page 3


  30:../../libs/PolitekDSP/libs/libDaisy/../../libs/libDaisy/src/sys/system.h **** 
  31:../../libs/PolitekDSP/libs/libDaisy/../../libs/libDaisy/src/sys/system.h ****         /** Method to call on the struct to set to defaults
  32:../../libs/PolitekDSP/libs/libDaisy/../../libs/libDaisy/src/sys/system.h ****          ** CPU Freq set to 400MHz
  33:../../libs/PolitekDSP/libs/libDaisy/../../libs/libDaisy/src/sys/system.h ****          ** Cache Enabled
  34:../../libs/PolitekDSP/libs/libDaisy/../../libs/libDaisy/src/sys/system.h ****          ** */
  35:../../libs/PolitekDSP/libs/libDaisy/../../libs/libDaisy/src/sys/system.h ****         void Defaults()
  36:../../libs/PolitekDSP/libs/libDaisy/../../libs/libDaisy/src/sys/system.h ****         {
  37:../../libs/PolitekDSP/libs/libDaisy/../../libs/libDaisy/src/sys/system.h ****             cpu_freq    = SysClkFreq::FREQ_400MHZ;
  38:../../libs/PolitekDSP/libs/libDaisy/../../libs/libDaisy/src/sys/system.h ****             use_dcache  = true;
  39:../../libs/PolitekDSP/libs/libDaisy/../../libs/libDaisy/src/sys/system.h ****             use_icache  = true;
  40:../../libs/PolitekDSP/libs/libDaisy/../../libs/libDaisy/src/sys/system.h ****             skip_clocks = false;
  41:../../libs/PolitekDSP/libs/libDaisy/../../libs/libDaisy/src/sys/system.h ****         }
  42:../../libs/PolitekDSP/libs/libDaisy/../../libs/libDaisy/src/sys/system.h **** 
  43:../../libs/PolitekDSP/libs/libDaisy/../../libs/libDaisy/src/sys/system.h ****         /** Method to call on the struct to set to boost mode:
  44:../../libs/PolitekDSP/libs/libDaisy/../../libs/libDaisy/src/sys/system.h ****          ** CPU Freq set to 480MHz
  45:../../libs/PolitekDSP/libs/libDaisy/../../libs/libDaisy/src/sys/system.h ****          ** Cache Enabled
  46:../../libs/PolitekDSP/libs/libDaisy/../../libs/libDaisy/src/sys/system.h ****          ** */
  47:../../libs/PolitekDSP/libs/libDaisy/../../libs/libDaisy/src/sys/system.h ****         void Boost()
  48:../../libs/PolitekDSP/libs/libDaisy/../../libs/libDaisy/src/sys/system.h ****         {
  49:../../libs/PolitekDSP/libs/libDaisy/../../libs/libDaisy/src/sys/system.h ****             cpu_freq    = SysClkFreq::FREQ_480MHZ;
  50:../../libs/PolitekDSP/libs/libDaisy/../../libs/libDaisy/src/sys/system.h ****             use_dcache  = true;
  51:../../libs/PolitekDSP/libs/libDaisy/../../libs/libDaisy/src/sys/system.h ****             use_icache  = true;
  52:../../libs/PolitekDSP/libs/libDaisy/../../libs/libDaisy/src/sys/system.h ****             skip_clocks = false;
  53:../../libs/PolitekDSP/libs/libDaisy/../../libs/libDaisy/src/sys/system.h ****         }
  54:../../libs/PolitekDSP/libs/libDaisy/../../libs/libDaisy/src/sys/system.h **** 
  55:../../libs/PolitekDSP/libs/libDaisy/../../libs/libDaisy/src/sys/system.h ****         SysClkFreq cpu_freq;
  56:../../libs/PolitekDSP/libs/libDaisy/../../libs/libDaisy/src/sys/system.h ****         bool       use_dcache;
  57:../../libs/PolitekDSP/libs/libDaisy/../../libs/libDaisy/src/sys/system.h ****         bool       use_icache;
  58:../../libs/PolitekDSP/libs/libDaisy/../../libs/libDaisy/src/sys/system.h ****         bool       skip_clocks;
  59:../../libs/PolitekDSP/libs/libDaisy/../../libs/libDaisy/src/sys/system.h ****     };
  60:../../libs/PolitekDSP/libs/libDaisy/../../libs/libDaisy/src/sys/system.h **** 
  61:../../libs/PolitekDSP/libs/libDaisy/../../libs/libDaisy/src/sys/system.h ****     /** Describes the different regions of memory available to the Daisy */
  62:../../libs/PolitekDSP/libs/libDaisy/../../libs/libDaisy/src/sys/system.h ****     enum MemoryRegion
  63:../../libs/PolitekDSP/libs/libDaisy/../../libs/libDaisy/src/sys/system.h ****     {
  64:../../libs/PolitekDSP/libs/libDaisy/../../libs/libDaisy/src/sys/system.h ****         INTERNAL_FLASH = 0,
  65:../../libs/PolitekDSP/libs/libDaisy/../../libs/libDaisy/src/sys/system.h ****         ITCMRAM,
  66:../../libs/PolitekDSP/libs/libDaisy/../../libs/libDaisy/src/sys/system.h ****         DTCMRAM,
  67:../../libs/PolitekDSP/libs/libDaisy/../../libs/libDaisy/src/sys/system.h ****         SRAM_D1,
  68:../../libs/PolitekDSP/libs/libDaisy/../../libs/libDaisy/src/sys/system.h ****         SRAM_D2,
  69:../../libs/PolitekDSP/libs/libDaisy/../../libs/libDaisy/src/sys/system.h ****         SRAM_D3,
  70:../../libs/PolitekDSP/libs/libDaisy/../../libs/libDaisy/src/sys/system.h ****         SDRAM,
  71:../../libs/PolitekDSP/libs/libDaisy/../../libs/libDaisy/src/sys/system.h ****         QSPI,
  72:../../libs/PolitekDSP/libs/libDaisy/../../libs/libDaisy/src/sys/system.h ****         INVALID_ADDRESS,
  73:../../libs/PolitekDSP/libs/libDaisy/../../libs/libDaisy/src/sys/system.h ****     };
  74:../../libs/PolitekDSP/libs/libDaisy/../../libs/libDaisy/src/sys/system.h **** 
  75:../../libs/PolitekDSP/libs/libDaisy/../../libs/libDaisy/src/sys/system.h ****     /** Bootloader struct for controlling bootloading parameters */
  76:../../libs/PolitekDSP/libs/libDaisy/../../libs/libDaisy/src/sys/system.h ****     struct BootInfo
  77:../../libs/PolitekDSP/libs/libDaisy/../../libs/libDaisy/src/sys/system.h ****     {
  78:../../libs/PolitekDSP/libs/libDaisy/../../libs/libDaisy/src/sys/system.h ****         enum class Type : uint32_t
  79:../../libs/PolitekDSP/libs/libDaisy/../../libs/libDaisy/src/sys/system.h ****         {
  80:../../libs/PolitekDSP/libs/libDaisy/../../libs/libDaisy/src/sys/system.h ****             INVALID      = 0x00000000,
  81:../../libs/PolitekDSP/libs/libDaisy/../../libs/libDaisy/src/sys/system.h ****             JUMP         = 0xDEADBEEF,
  82:../../libs/PolitekDSP/libs/libDaisy/../../libs/libDaisy/src/sys/system.h ****             SKIP_TIMEOUT = 0x5AFEB007,
  83:../../libs/PolitekDSP/libs/libDaisy/../../libs/libDaisy/src/sys/system.h ****             INF_TIMEOUT  = 0xB0074EFA,
  84:../../libs/PolitekDSP/libs/libDaisy/../../libs/libDaisy/src/sys/system.h ****         } status;
  85:../../libs/PolitekDSP/libs/libDaisy/../../libs/libDaisy/src/sys/system.h ****         uint32_t data;
  86:../../libs/PolitekDSP/libs/libDaisy/../../libs/libDaisy/src/sys/system.h ****         enum class Version : uint32_t
ARM GAS  C:\Users\matte\AppData\Local\Temp\ccP67MDp.s 			page 4


  87:../../libs/PolitekDSP/libs/libDaisy/../../libs/libDaisy/src/sys/system.h ****         {
  88:../../libs/PolitekDSP/libs/libDaisy/../../libs/libDaisy/src/sys/system.h ****             LT_v6_0 = 0, // Less than v6.0
  89:../../libs/PolitekDSP/libs/libDaisy/../../libs/libDaisy/src/sys/system.h ****             NONE,        // No bootloader present
  90:../../libs/PolitekDSP/libs/libDaisy/../../libs/libDaisy/src/sys/system.h ****             v6_0,        // v6.0
  91:../../libs/PolitekDSP/libs/libDaisy/../../libs/libDaisy/src/sys/system.h ****             v6_1,        // v6.1 or greater
  92:../../libs/PolitekDSP/libs/libDaisy/../../libs/libDaisy/src/sys/system.h ****             LAST
  93:../../libs/PolitekDSP/libs/libDaisy/../../libs/libDaisy/src/sys/system.h ****         } version;
  94:../../libs/PolitekDSP/libs/libDaisy/../../libs/libDaisy/src/sys/system.h ****     };
  95:../../libs/PolitekDSP/libs/libDaisy/../../libs/libDaisy/src/sys/system.h **** 
  96:../../libs/PolitekDSP/libs/libDaisy/../../libs/libDaisy/src/sys/system.h ****     System() {}
  97:../../libs/PolitekDSP/libs/libDaisy/../../libs/libDaisy/src/sys/system.h ****     ~System() {}
  44              		.loc 3 97 5 is_stmt 1 view .LVU3
  45              		.loc 3 97 5 is_stmt 0 view .LVU4
  46              	.LBE269:
  47              	.LBB270:
  48              	.LBI270:
  49              		.file 4 "../../libs/PolitekDSP/libs/libDaisy/src/hid/usb.h"
   1:../../libs/PolitekDSP/libs/libDaisy/src/hid/usb.h **** #pragma once
   2:../../libs/PolitekDSP/libs/libDaisy/src/hid/usb.h **** #ifndef DSY_HID_USB_H
   3:../../libs/PolitekDSP/libs/libDaisy/src/hid/usb.h **** #define DSY_HID_USB_H
   4:../../libs/PolitekDSP/libs/libDaisy/src/hid/usb.h **** #include <stdint.h>
   5:../../libs/PolitekDSP/libs/libDaisy/src/hid/usb.h **** #include <stdlib.h>
   6:../../libs/PolitekDSP/libs/libDaisy/src/hid/usb.h **** 
   7:../../libs/PolitekDSP/libs/libDaisy/src/hid/usb.h **** namespace daisy
   8:../../libs/PolitekDSP/libs/libDaisy/src/hid/usb.h **** /** @addtogroup human_interface
   9:../../libs/PolitekDSP/libs/libDaisy/src/hid/usb.h ****     @{
  10:../../libs/PolitekDSP/libs/libDaisy/src/hid/usb.h **** */
  11:../../libs/PolitekDSP/libs/libDaisy/src/hid/usb.h **** 
  12:../../libs/PolitekDSP/libs/libDaisy/src/hid/usb.h **** {
  13:../../libs/PolitekDSP/libs/libDaisy/src/hid/usb.h **** /** 
  14:../../libs/PolitekDSP/libs/libDaisy/src/hid/usb.h ****     @brief Interface for initializing and using the USB Peripherals on the daisy
  15:../../libs/PolitekDSP/libs/libDaisy/src/hid/usb.h ****     @author Stephen Hensley
  16:../../libs/PolitekDSP/libs/libDaisy/src/hid/usb.h ****     @date December 2019
  17:../../libs/PolitekDSP/libs/libDaisy/src/hid/usb.h **** */
  18:../../libs/PolitekDSP/libs/libDaisy/src/hid/usb.h **** class UsbHandle
  19:../../libs/PolitekDSP/libs/libDaisy/src/hid/usb.h **** {
  20:../../libs/PolitekDSP/libs/libDaisy/src/hid/usb.h ****   public:
  21:../../libs/PolitekDSP/libs/libDaisy/src/hid/usb.h ****     /** Return values for USBHandle Functions */
  22:../../libs/PolitekDSP/libs/libDaisy/src/hid/usb.h ****     enum class Result
  23:../../libs/PolitekDSP/libs/libDaisy/src/hid/usb.h ****     {
  24:../../libs/PolitekDSP/libs/libDaisy/src/hid/usb.h ****         OK,
  25:../../libs/PolitekDSP/libs/libDaisy/src/hid/usb.h ****         ERR,
  26:../../libs/PolitekDSP/libs/libDaisy/src/hid/usb.h ****     };
  27:../../libs/PolitekDSP/libs/libDaisy/src/hid/usb.h **** 
  28:../../libs/PolitekDSP/libs/libDaisy/src/hid/usb.h ****     /** Specified which of the two USB Peripherals to initialize. */
  29:../../libs/PolitekDSP/libs/libDaisy/src/hid/usb.h ****     enum UsbPeriph
  30:../../libs/PolitekDSP/libs/libDaisy/src/hid/usb.h ****     {
  31:../../libs/PolitekDSP/libs/libDaisy/src/hid/usb.h ****         FS_INTERNAL, /**< Internal pin */
  32:../../libs/PolitekDSP/libs/libDaisy/src/hid/usb.h ****         FS_EXTERNAL, /**< FS External D+ pin is Pin 38 (GPIO32). FS External D- pin is Pin 37 (GPIO
  33:../../libs/PolitekDSP/libs/libDaisy/src/hid/usb.h ****         FS_BOTH,     /**< Both */
  34:../../libs/PolitekDSP/libs/libDaisy/src/hid/usb.h ****     };
  35:../../libs/PolitekDSP/libs/libDaisy/src/hid/usb.h **** 
  36:../../libs/PolitekDSP/libs/libDaisy/src/hid/usb.h **** 
  37:../../libs/PolitekDSP/libs/libDaisy/src/hid/usb.h ****     /** Function called upon reception of a buffer */
  38:../../libs/PolitekDSP/libs/libDaisy/src/hid/usb.h ****     typedef void (*ReceiveCallback)(uint8_t* buff, uint32_t* len);
  39:../../libs/PolitekDSP/libs/libDaisy/src/hid/usb.h **** 
  40:../../libs/PolitekDSP/libs/libDaisy/src/hid/usb.h ****     UsbHandle() {}
ARM GAS  C:\Users\matte\AppData\Local\Temp\ccP67MDp.s 			page 5


  41:../../libs/PolitekDSP/libs/libDaisy/src/hid/usb.h **** 
  42:../../libs/PolitekDSP/libs/libDaisy/src/hid/usb.h ****     ~UsbHandle() {}
  50              		.loc 4 42 5 is_stmt 1 view .LVU5
  51              		.loc 4 42 5 is_stmt 0 view .LVU6
  52              	.LBE270:
  53              	.LBB271:
  54              	.LBI271:
  55              		.file 5 "../../libs/PolitekDSP/libs/libDaisy/../../libs/libDaisy/src/per/adc.h"
   1:../../libs/PolitekDSP/libs/libDaisy/../../libs/libDaisy/src/per/adc.h **** #pragma once
   2:../../libs/PolitekDSP/libs/libDaisy/../../libs/libDaisy/src/per/adc.h **** #ifndef DSY_ADC_H
   3:../../libs/PolitekDSP/libs/libDaisy/../../libs/libDaisy/src/per/adc.h **** #define DSY_ADC_H /**< Macro */
   4:../../libs/PolitekDSP/libs/libDaisy/../../libs/libDaisy/src/per/adc.h **** #include <stdint.h>
   5:../../libs/PolitekDSP/libs/libDaisy/../../libs/libDaisy/src/per/adc.h **** #include <stdlib.h>
   6:../../libs/PolitekDSP/libs/libDaisy/../../libs/libDaisy/src/per/adc.h **** #include "daisy_core.h"
   7:../../libs/PolitekDSP/libs/libDaisy/../../libs/libDaisy/src/per/adc.h **** #include "per/gpio.h"
   8:../../libs/PolitekDSP/libs/libDaisy/../../libs/libDaisy/src/per/adc.h **** 
   9:../../libs/PolitekDSP/libs/libDaisy/../../libs/libDaisy/src/per/adc.h **** #define DSY_ADC_MAX_CHANNELS 16 /**< Maximum number of ADC channels */
  10:../../libs/PolitekDSP/libs/libDaisy/../../libs/libDaisy/src/per/adc.h **** 
  11:../../libs/PolitekDSP/libs/libDaisy/../../libs/libDaisy/src/per/adc.h **** namespace daisy
  12:../../libs/PolitekDSP/libs/libDaisy/../../libs/libDaisy/src/per/adc.h **** {
  13:../../libs/PolitekDSP/libs/libDaisy/../../libs/libDaisy/src/per/adc.h **** /** @addtogroup per_analog
  14:../../libs/PolitekDSP/libs/libDaisy/../../libs/libDaisy/src/per/adc.h ****     @{
  15:../../libs/PolitekDSP/libs/libDaisy/../../libs/libDaisy/src/per/adc.h **** */
  16:../../libs/PolitekDSP/libs/libDaisy/../../libs/libDaisy/src/per/adc.h **** 
  17:../../libs/PolitekDSP/libs/libDaisy/../../libs/libDaisy/src/per/adc.h **** /* While there may not be many configuration options here,
  18:../../libs/PolitekDSP/libs/libDaisy/../../libs/libDaisy/src/per/adc.h **** using a struct like this allows us to add more configuration
  19:../../libs/PolitekDSP/libs/libDaisy/../../libs/libDaisy/src/per/adc.h **** later without breaking existing functionality.
  20:../../libs/PolitekDSP/libs/libDaisy/../../libs/libDaisy/src/per/adc.h **** */
  21:../../libs/PolitekDSP/libs/libDaisy/../../libs/libDaisy/src/per/adc.h **** 
  22:../../libs/PolitekDSP/libs/libDaisy/../../libs/libDaisy/src/per/adc.h **** /** @brief   Configuration Structure for an ADC Channel 
  23:../../libs/PolitekDSP/libs/libDaisy/../../libs/libDaisy/src/per/adc.h ****  *  @details This can be used to configure a a single input, 
  24:../../libs/PolitekDSP/libs/libDaisy/../../libs/libDaisy/src/per/adc.h ****  *           or a multiplexed input, allowing up to 8 inputs on 
  25:../../libs/PolitekDSP/libs/libDaisy/../../libs/libDaisy/src/per/adc.h ****  *           one channel.
  26:../../libs/PolitekDSP/libs/libDaisy/../../libs/libDaisy/src/per/adc.h ****  *  @note    Sharing data lines to multiple muxes _is_ possible, but
  27:../../libs/PolitekDSP/libs/libDaisy/../../libs/libDaisy/src/per/adc.h ****  *           each channel sharing data lines must be set to the maximum
  28:../../libs/PolitekDSP/libs/libDaisy/../../libs/libDaisy/src/per/adc.h ****  *           number of channels, even if some multiplexers have fewer
  29:../../libs/PolitekDSP/libs/libDaisy/../../libs/libDaisy/src/per/adc.h ****  *           inputs connected.
  30:../../libs/PolitekDSP/libs/libDaisy/../../libs/libDaisy/src/per/adc.h **** */
  31:../../libs/PolitekDSP/libs/libDaisy/../../libs/libDaisy/src/per/adc.h **** struct AdcChannelConfig
  32:../../libs/PolitekDSP/libs/libDaisy/../../libs/libDaisy/src/per/adc.h **** {
  33:../../libs/PolitekDSP/libs/libDaisy/../../libs/libDaisy/src/per/adc.h ****     /** Which pin to use for multiplexing */
  34:../../libs/PolitekDSP/libs/libDaisy/../../libs/libDaisy/src/per/adc.h ****     enum MuxPin
  35:../../libs/PolitekDSP/libs/libDaisy/../../libs/libDaisy/src/per/adc.h ****     {
  36:../../libs/PolitekDSP/libs/libDaisy/../../libs/libDaisy/src/per/adc.h ****         MUX_SEL_0,    /**< & */
  37:../../libs/PolitekDSP/libs/libDaisy/../../libs/libDaisy/src/per/adc.h ****         MUX_SEL_1,    /**< & */
  38:../../libs/PolitekDSP/libs/libDaisy/../../libs/libDaisy/src/per/adc.h ****         MUX_SEL_2,    /**< & */
  39:../../libs/PolitekDSP/libs/libDaisy/../../libs/libDaisy/src/per/adc.h ****         MUX_SEL_LAST, /**< & */
  40:../../libs/PolitekDSP/libs/libDaisy/../../libs/libDaisy/src/per/adc.h ****     };
  41:../../libs/PolitekDSP/libs/libDaisy/../../libs/libDaisy/src/per/adc.h **** 
  42:../../libs/PolitekDSP/libs/libDaisy/../../libs/libDaisy/src/per/adc.h ****     /** \brief per channel conversion speed added to fixed time based on bitdepth, etc. */
  43:../../libs/PolitekDSP/libs/libDaisy/../../libs/libDaisy/src/per/adc.h ****     enum ConversionSpeed
  44:../../libs/PolitekDSP/libs/libDaisy/../../libs/libDaisy/src/per/adc.h ****     {
  45:../../libs/PolitekDSP/libs/libDaisy/../../libs/libDaisy/src/per/adc.h ****         SPEED_1CYCLES_5,
  46:../../libs/PolitekDSP/libs/libDaisy/../../libs/libDaisy/src/per/adc.h ****         SPEED_2CYCLES_5,
  47:../../libs/PolitekDSP/libs/libDaisy/../../libs/libDaisy/src/per/adc.h ****         SPEED_8CYCLES_5,
  48:../../libs/PolitekDSP/libs/libDaisy/../../libs/libDaisy/src/per/adc.h ****         SPEED_16CYCLES_5,
  49:../../libs/PolitekDSP/libs/libDaisy/../../libs/libDaisy/src/per/adc.h ****         SPEED_32CYCLES_5,
ARM GAS  C:\Users\matte\AppData\Local\Temp\ccP67MDp.s 			page 6


  50:../../libs/PolitekDSP/libs/libDaisy/../../libs/libDaisy/src/per/adc.h ****         SPEED_64CYCLES_5,
  51:../../libs/PolitekDSP/libs/libDaisy/../../libs/libDaisy/src/per/adc.h ****         SPEED_387CYCLES_5,
  52:../../libs/PolitekDSP/libs/libDaisy/../../libs/libDaisy/src/per/adc.h ****         SPEED_810CYCLES_5,
  53:../../libs/PolitekDSP/libs/libDaisy/../../libs/libDaisy/src/per/adc.h ****     };
  54:../../libs/PolitekDSP/libs/libDaisy/../../libs/libDaisy/src/per/adc.h **** 
  55:../../libs/PolitekDSP/libs/libDaisy/../../libs/libDaisy/src/per/adc.h ****     /** Initializes a single ADC pin as an ADC. 
  56:../../libs/PolitekDSP/libs/libDaisy/../../libs/libDaisy/src/per/adc.h ****     \param pin Pin to init.
  57:../../libs/PolitekDSP/libs/libDaisy/../../libs/libDaisy/src/per/adc.h ****     \param speed conversion speed for this pin defaults to 8.5 cycles
  58:../../libs/PolitekDSP/libs/libDaisy/../../libs/libDaisy/src/per/adc.h ****      */
  59:../../libs/PolitekDSP/libs/libDaisy/../../libs/libDaisy/src/per/adc.h ****     void InitSingle(Pin pin, ConversionSpeed speed = SPEED_8CYCLES_5);
  60:../../libs/PolitekDSP/libs/libDaisy/../../libs/libDaisy/src/per/adc.h **** 
  61:../../libs/PolitekDSP/libs/libDaisy/../../libs/libDaisy/src/per/adc.h ****     /** 
  62:../../libs/PolitekDSP/libs/libDaisy/../../libs/libDaisy/src/per/adc.h ****     Initializes a single ADC pin as a Multiplexed ADC.
  63:../../libs/PolitekDSP/libs/libDaisy/../../libs/libDaisy/src/per/adc.h ****     Requires a CD405X Multiplexer connected to the pin.
  64:../../libs/PolitekDSP/libs/libDaisy/../../libs/libDaisy/src/per/adc.h ****     You only need to supply the mux pins that are required,
  65:../../libs/PolitekDSP/libs/libDaisy/../../libs/libDaisy/src/per/adc.h ****     e.g. a 4052 mux would only require mux_0 and mux_1.
  66:../../libs/PolitekDSP/libs/libDaisy/../../libs/libDaisy/src/per/adc.h ****     Internal Callbacks handle the pin addressing.
  67:../../libs/PolitekDSP/libs/libDaisy/../../libs/libDaisy/src/per/adc.h ****     \param adc_pin &
  68:../../libs/PolitekDSP/libs/libDaisy/../../libs/libDaisy/src/per/adc.h ****     \param mux_channels must be 1-8
  69:../../libs/PolitekDSP/libs/libDaisy/../../libs/libDaisy/src/per/adc.h ****     \param mux_0 First mux pin
  70:../../libs/PolitekDSP/libs/libDaisy/../../libs/libDaisy/src/per/adc.h ****     \param mux_1 Second mux pin
  71:../../libs/PolitekDSP/libs/libDaisy/../../libs/libDaisy/src/per/adc.h ****     \param mux_2 Third mux pin
  72:../../libs/PolitekDSP/libs/libDaisy/../../libs/libDaisy/src/per/adc.h ****     \param speed conversion speed for this pin defaults to 8.5 cycles
  73:../../libs/PolitekDSP/libs/libDaisy/../../libs/libDaisy/src/per/adc.h ****     */
  74:../../libs/PolitekDSP/libs/libDaisy/../../libs/libDaisy/src/per/adc.h ****     void InitMux(Pin             adc_pin,
  75:../../libs/PolitekDSP/libs/libDaisy/../../libs/libDaisy/src/per/adc.h ****                  size_t          mux_channels,
  76:../../libs/PolitekDSP/libs/libDaisy/../../libs/libDaisy/src/per/adc.h ****                  Pin             mux_0,
  77:../../libs/PolitekDSP/libs/libDaisy/../../libs/libDaisy/src/per/adc.h ****                  Pin             mux_1 = Pin(PORTX, 0),
  78:../../libs/PolitekDSP/libs/libDaisy/../../libs/libDaisy/src/per/adc.h ****                  Pin             mux_2 = Pin(PORTX, 0),
  79:../../libs/PolitekDSP/libs/libDaisy/../../libs/libDaisy/src/per/adc.h ****                  ConversionSpeed speed = SPEED_8CYCLES_5);
  80:../../libs/PolitekDSP/libs/libDaisy/../../libs/libDaisy/src/per/adc.h **** 
  81:../../libs/PolitekDSP/libs/libDaisy/../../libs/libDaisy/src/per/adc.h ****     GPIO            pin_;                   /**< & */
  82:../../libs/PolitekDSP/libs/libDaisy/../../libs/libDaisy/src/per/adc.h ****     GPIO            mux_pin_[MUX_SEL_LAST]; /**< & */
  83:../../libs/PolitekDSP/libs/libDaisy/../../libs/libDaisy/src/per/adc.h ****     uint8_t         mux_channels_;          /**< & */
  84:../../libs/PolitekDSP/libs/libDaisy/../../libs/libDaisy/src/per/adc.h ****     ConversionSpeed speed_;
  85:../../libs/PolitekDSP/libs/libDaisy/../../libs/libDaisy/src/per/adc.h **** };
  86:../../libs/PolitekDSP/libs/libDaisy/../../libs/libDaisy/src/per/adc.h **** 
  87:../../libs/PolitekDSP/libs/libDaisy/../../libs/libDaisy/src/per/adc.h **** /**
  88:../../libs/PolitekDSP/libs/libDaisy/../../libs/libDaisy/src/per/adc.h ****    @brief Handler for analog to digital conversion
  89:../../libs/PolitekDSP/libs/libDaisy/../../libs/libDaisy/src/per/adc.h **** */
  90:../../libs/PolitekDSP/libs/libDaisy/../../libs/libDaisy/src/per/adc.h **** class AdcHandle
  91:../../libs/PolitekDSP/libs/libDaisy/../../libs/libDaisy/src/per/adc.h **** {
  92:../../libs/PolitekDSP/libs/libDaisy/../../libs/libDaisy/src/per/adc.h ****   public:
  93:../../libs/PolitekDSP/libs/libDaisy/../../libs/libDaisy/src/per/adc.h ****     /** Supported oversampling amounts */
  94:../../libs/PolitekDSP/libs/libDaisy/../../libs/libDaisy/src/per/adc.h ****     enum OverSampling
  95:../../libs/PolitekDSP/libs/libDaisy/../../libs/libDaisy/src/per/adc.h ****     {
  96:../../libs/PolitekDSP/libs/libDaisy/../../libs/libDaisy/src/per/adc.h ****         OVS_NONE, /**< & */
  97:../../libs/PolitekDSP/libs/libDaisy/../../libs/libDaisy/src/per/adc.h ****         OVS_4,    /**< & */
  98:../../libs/PolitekDSP/libs/libDaisy/../../libs/libDaisy/src/per/adc.h ****         OVS_8,    /**< & */
  99:../../libs/PolitekDSP/libs/libDaisy/../../libs/libDaisy/src/per/adc.h ****         OVS_16,   /**< & */
 100:../../libs/PolitekDSP/libs/libDaisy/../../libs/libDaisy/src/per/adc.h ****         OVS_32,   /**< & */
 101:../../libs/PolitekDSP/libs/libDaisy/../../libs/libDaisy/src/per/adc.h ****         OVS_64,   /**< & */
 102:../../libs/PolitekDSP/libs/libDaisy/../../libs/libDaisy/src/per/adc.h ****         OVS_128,  /**< & */
 103:../../libs/PolitekDSP/libs/libDaisy/../../libs/libDaisy/src/per/adc.h ****         OVS_256,  /**< & */
 104:../../libs/PolitekDSP/libs/libDaisy/../../libs/libDaisy/src/per/adc.h ****         OVS_512,  /**< & */
 105:../../libs/PolitekDSP/libs/libDaisy/../../libs/libDaisy/src/per/adc.h ****         OVS_1024, /**< & */
 106:../../libs/PolitekDSP/libs/libDaisy/../../libs/libDaisy/src/per/adc.h ****         OVS_LAST, /**< & */
ARM GAS  C:\Users\matte\AppData\Local\Temp\ccP67MDp.s 			page 7


 107:../../libs/PolitekDSP/libs/libDaisy/../../libs/libDaisy/src/per/adc.h ****     };
 108:../../libs/PolitekDSP/libs/libDaisy/../../libs/libDaisy/src/per/adc.h **** 
 109:../../libs/PolitekDSP/libs/libDaisy/../../libs/libDaisy/src/per/adc.h ****     AdcHandle() {}
 110:../../libs/PolitekDSP/libs/libDaisy/../../libs/libDaisy/src/per/adc.h ****     ~AdcHandle() {}
  56              		.loc 5 110 5 is_stmt 1 view .LVU7
  57              		.loc 5 110 5 is_stmt 0 view .LVU8
  58              	.LBE271:
  59              	.LBB272:
  60              	.LBI272:
  61              		.file 6 "../../libs/PolitekDSP/libs/libDaisy/../../libs/libDaisy/src/hid/audio.h"
   1:../../libs/PolitekDSP/libs/libDaisy/../../libs/libDaisy/src/hid/audio.h **** #ifndef DSY_AUDIO_H
   2:../../libs/PolitekDSP/libs/libDaisy/../../libs/libDaisy/src/hid/audio.h **** #define DSY_AUDIO_H /**< & */
   3:../../libs/PolitekDSP/libs/libDaisy/../../libs/libDaisy/src/hid/audio.h **** 
   4:../../libs/PolitekDSP/libs/libDaisy/../../libs/libDaisy/src/hid/audio.h **** #include "per/sai.h"
   5:../../libs/PolitekDSP/libs/libDaisy/../../libs/libDaisy/src/hid/audio.h **** 
   6:../../libs/PolitekDSP/libs/libDaisy/../../libs/libDaisy/src/hid/audio.h **** namespace daisy
   7:../../libs/PolitekDSP/libs/libDaisy/../../libs/libDaisy/src/hid/audio.h **** {
   8:../../libs/PolitekDSP/libs/libDaisy/../../libs/libDaisy/src/hid/audio.h **** /** @brief Audio Engine Handle
   9:../../libs/PolitekDSP/libs/libDaisy/../../libs/libDaisy/src/hid/audio.h ****  *  @ingroup audio 
  10:../../libs/PolitekDSP/libs/libDaisy/../../libs/libDaisy/src/hid/audio.h ****  *  @details This class allows for higher level access to an audio engine.
  11:../../libs/PolitekDSP/libs/libDaisy/../../libs/libDaisy/src/hid/audio.h ****  *           If you're using a SOM like the DaisySeed or DaisyPatchSM (or any 
  12:../../libs/PolitekDSP/libs/libDaisy/../../libs/libDaisy/src/hid/audio.h ****  *            board that includes one of those objects) then the intialization
  13:../../libs/PolitekDSP/libs/libDaisy/../../libs/libDaisy/src/hid/audio.h ****  *            is already taken  care of.
  14:../../libs/PolitekDSP/libs/libDaisy/../../libs/libDaisy/src/hid/audio.h ****  *           If you're setting up your own custom hardware, or need to make changes
  15:../../libs/PolitekDSP/libs/libDaisy/../../libs/libDaisy/src/hid/audio.h ****  *           you will have to take the following steps:
  16:../../libs/PolitekDSP/libs/libDaisy/../../libs/libDaisy/src/hid/audio.h ****  *             1. Create and Initialize an SaiHandle or two depending on your requirements
  17:../../libs/PolitekDSP/libs/libDaisy/../../libs/libDaisy/src/hid/audio.h ****  *             2. Initialize the Audio Handle with the desired settings and the Initialized SaiHand
  18:../../libs/PolitekDSP/libs/libDaisy/../../libs/libDaisy/src/hid/audio.h ****  *             3. If the connected codec requires special configuration or initialization, do so
  19:../../libs/PolitekDSP/libs/libDaisy/../../libs/libDaisy/src/hid/audio.h ****  *             4. Write a callback method using either the AudioCallback or the InterleavingAudioCa
  20:../../libs/PolitekDSP/libs/libDaisy/../../libs/libDaisy/src/hid/audio.h ****  *             5. Start the Audio using one of the StartAudio function
  21:../../libs/PolitekDSP/libs/libDaisy/../../libs/libDaisy/src/hid/audio.h ****  */
  22:../../libs/PolitekDSP/libs/libDaisy/../../libs/libDaisy/src/hid/audio.h **** class AudioHandle
  23:../../libs/PolitekDSP/libs/libDaisy/../../libs/libDaisy/src/hid/audio.h **** {
  24:../../libs/PolitekDSP/libs/libDaisy/../../libs/libDaisy/src/hid/audio.h ****   public:
  25:../../libs/PolitekDSP/libs/libDaisy/../../libs/libDaisy/src/hid/audio.h ****     /** Manually configurable details about the Audio Engine */
  26:../../libs/PolitekDSP/libs/libDaisy/../../libs/libDaisy/src/hid/audio.h ****     /** TODO: Figure out how to get samplerate in here. */
  27:../../libs/PolitekDSP/libs/libDaisy/../../libs/libDaisy/src/hid/audio.h ****     struct Config
  28:../../libs/PolitekDSP/libs/libDaisy/../../libs/libDaisy/src/hid/audio.h ****     {
  29:../../libs/PolitekDSP/libs/libDaisy/../../libs/libDaisy/src/hid/audio.h ****         /** number of samples to process per callback */
  30:../../libs/PolitekDSP/libs/libDaisy/../../libs/libDaisy/src/hid/audio.h ****         size_t blocksize = 48;
  31:../../libs/PolitekDSP/libs/libDaisy/../../libs/libDaisy/src/hid/audio.h **** 
  32:../../libs/PolitekDSP/libs/libDaisy/../../libs/libDaisy/src/hid/audio.h ****         /**< Sample rate of audio */
  33:../../libs/PolitekDSP/libs/libDaisy/../../libs/libDaisy/src/hid/audio.h ****         SaiHandle::Config::SampleRate samplerate
  34:../../libs/PolitekDSP/libs/libDaisy/../../libs/libDaisy/src/hid/audio.h ****             = SaiHandle::Config::SampleRate::SAI_48KHZ;
  35:../../libs/PolitekDSP/libs/libDaisy/../../libs/libDaisy/src/hid/audio.h **** 
  36:../../libs/PolitekDSP/libs/libDaisy/../../libs/libDaisy/src/hid/audio.h ****         /** factor for adjustment before and after callback for hardware that may have extra headro
  37:../../libs/PolitekDSP/libs/libDaisy/../../libs/libDaisy/src/hid/audio.h ****         float postgain = 1.f;
  38:../../libs/PolitekDSP/libs/libDaisy/../../libs/libDaisy/src/hid/audio.h **** 
  39:../../libs/PolitekDSP/libs/libDaisy/../../libs/libDaisy/src/hid/audio.h ****         /** factor for additional one-sided compensation to audio path for hardware that may
  40:../../libs/PolitekDSP/libs/libDaisy/../../libs/libDaisy/src/hid/audio.h ****          *  have unequal input/output ranges
  41:../../libs/PolitekDSP/libs/libDaisy/../../libs/libDaisy/src/hid/audio.h ****          */
  42:../../libs/PolitekDSP/libs/libDaisy/../../libs/libDaisy/src/hid/audio.h ****         float output_compensation = 1.f;
  43:../../libs/PolitekDSP/libs/libDaisy/../../libs/libDaisy/src/hid/audio.h ****     };
  44:../../libs/PolitekDSP/libs/libDaisy/../../libs/libDaisy/src/hid/audio.h **** 
  45:../../libs/PolitekDSP/libs/libDaisy/../../libs/libDaisy/src/hid/audio.h ****     enum class Result
  46:../../libs/PolitekDSP/libs/libDaisy/../../libs/libDaisy/src/hid/audio.h ****     {
  47:../../libs/PolitekDSP/libs/libDaisy/../../libs/libDaisy/src/hid/audio.h ****         OK,
ARM GAS  C:\Users\matte\AppData\Local\Temp\ccP67MDp.s 			page 8


  48:../../libs/PolitekDSP/libs/libDaisy/../../libs/libDaisy/src/hid/audio.h ****         ERR,
  49:../../libs/PolitekDSP/libs/libDaisy/../../libs/libDaisy/src/hid/audio.h ****     };
  50:../../libs/PolitekDSP/libs/libDaisy/../../libs/libDaisy/src/hid/audio.h **** 
  51:../../libs/PolitekDSP/libs/libDaisy/../../libs/libDaisy/src/hid/audio.h ****     /** Non-Interleaving input buffer
  52:../../libs/PolitekDSP/libs/libDaisy/../../libs/libDaisy/src/hid/audio.h ****      * Buffer arranged by float[chn][sample] 
  53:../../libs/PolitekDSP/libs/libDaisy/../../libs/libDaisy/src/hid/audio.h ****      * const so that the user can't modify the input
  54:../../libs/PolitekDSP/libs/libDaisy/../../libs/libDaisy/src/hid/audio.h ****      */
  55:../../libs/PolitekDSP/libs/libDaisy/../../libs/libDaisy/src/hid/audio.h ****     typedef const float* const* InputBuffer;
  56:../../libs/PolitekDSP/libs/libDaisy/../../libs/libDaisy/src/hid/audio.h **** 
  57:../../libs/PolitekDSP/libs/libDaisy/../../libs/libDaisy/src/hid/audio.h ****     /** Non-Interleaving output buffer
  58:../../libs/PolitekDSP/libs/libDaisy/../../libs/libDaisy/src/hid/audio.h ****      * Arranged by float[chn][sample] 
  59:../../libs/PolitekDSP/libs/libDaisy/../../libs/libDaisy/src/hid/audio.h ****      */
  60:../../libs/PolitekDSP/libs/libDaisy/../../libs/libDaisy/src/hid/audio.h ****     typedef float** OutputBuffer;
  61:../../libs/PolitekDSP/libs/libDaisy/../../libs/libDaisy/src/hid/audio.h **** 
  62:../../libs/PolitekDSP/libs/libDaisy/../../libs/libDaisy/src/hid/audio.h ****     /** Type for a Non-Interleaving audio callback 
  63:../../libs/PolitekDSP/libs/libDaisy/../../libs/libDaisy/src/hid/audio.h ****      * Non-Interleaving audio callbacks in daisy will be of this type
  64:../../libs/PolitekDSP/libs/libDaisy/../../libs/libDaisy/src/hid/audio.h ****      */
  65:../../libs/PolitekDSP/libs/libDaisy/../../libs/libDaisy/src/hid/audio.h ****     typedef void (*AudioCallback)(InputBuffer  in,
  66:../../libs/PolitekDSP/libs/libDaisy/../../libs/libDaisy/src/hid/audio.h ****                                   OutputBuffer out,
  67:../../libs/PolitekDSP/libs/libDaisy/../../libs/libDaisy/src/hid/audio.h ****                                   size_t       size);
  68:../../libs/PolitekDSP/libs/libDaisy/../../libs/libDaisy/src/hid/audio.h **** 
  69:../../libs/PolitekDSP/libs/libDaisy/../../libs/libDaisy/src/hid/audio.h ****     /** Interleaving Input buffer
  70:../../libs/PolitekDSP/libs/libDaisy/../../libs/libDaisy/src/hid/audio.h ****      ** audio is prepared as { L0, R0, L1, R1, . . . LN, RN }]
  71:../../libs/PolitekDSP/libs/libDaisy/../../libs/libDaisy/src/hid/audio.h ****      ** this is const, as the user shouldn't modify it
  72:../../libs/PolitekDSP/libs/libDaisy/../../libs/libDaisy/src/hid/audio.h ****     */
  73:../../libs/PolitekDSP/libs/libDaisy/../../libs/libDaisy/src/hid/audio.h ****     typedef const float* InterleavingInputBuffer;
  74:../../libs/PolitekDSP/libs/libDaisy/../../libs/libDaisy/src/hid/audio.h **** 
  75:../../libs/PolitekDSP/libs/libDaisy/../../libs/libDaisy/src/hid/audio.h ****     /** Interleaving Output buffer 
  76:../../libs/PolitekDSP/libs/libDaisy/../../libs/libDaisy/src/hid/audio.h ****      ** audio is prepared as { L0, R0, L1, R1, . . . LN, RN }
  77:../../libs/PolitekDSP/libs/libDaisy/../../libs/libDaisy/src/hid/audio.h ****     */
  78:../../libs/PolitekDSP/libs/libDaisy/../../libs/libDaisy/src/hid/audio.h ****     typedef float* InterleavingOutputBuffer;
  79:../../libs/PolitekDSP/libs/libDaisy/../../libs/libDaisy/src/hid/audio.h **** 
  80:../../libs/PolitekDSP/libs/libDaisy/../../libs/libDaisy/src/hid/audio.h ****     /** Interleaving Audio Callback 
  81:../../libs/PolitekDSP/libs/libDaisy/../../libs/libDaisy/src/hid/audio.h ****      * Interleaving audio callbacks in daisy must be of this type
  82:../../libs/PolitekDSP/libs/libDaisy/../../libs/libDaisy/src/hid/audio.h ****      */
  83:../../libs/PolitekDSP/libs/libDaisy/../../libs/libDaisy/src/hid/audio.h ****     typedef void (*InterleavingAudioCallback)(InterleavingInputBuffer  in,
  84:../../libs/PolitekDSP/libs/libDaisy/../../libs/libDaisy/src/hid/audio.h ****                                               InterleavingOutputBuffer out,
  85:../../libs/PolitekDSP/libs/libDaisy/../../libs/libDaisy/src/hid/audio.h ****                                               size_t                   size);
  86:../../libs/PolitekDSP/libs/libDaisy/../../libs/libDaisy/src/hid/audio.h **** 
  87:../../libs/PolitekDSP/libs/libDaisy/../../libs/libDaisy/src/hid/audio.h ****     AudioHandle() : pimpl_(nullptr) {}
  88:../../libs/PolitekDSP/libs/libDaisy/../../libs/libDaisy/src/hid/audio.h ****     ~AudioHandle() {}
  62              		.loc 6 88 5 is_stmt 1 view .LVU9
  63              		.loc 6 88 5 is_stmt 0 view .LVU10
  64              	.LBE272:
  65              		.loc 1 22 19 view .LVU11
  66 0000 7047     		bx	lr
  67              		.cfi_endproc
  68              	.LFE2729:
  70              		.weak	_ZN5daisy9DaisySeedD1Ev
  71              		.thumb_set _ZN5daisy9DaisySeedD1Ev,_ZN5daisy9DaisySeedD2Ev
  72 0002 00BF     		.section	.text._ZN5daisy6Mpr121INS_18Mpr121I2CTransportEE13SetThresholdsEhh,"axG",%progbits,_ZN5da
  73              		.align	1
  74              		.p2align 2,,3
  75              		.weak	_ZN5daisy6Mpr121INS_18Mpr121I2CTransportEE13SetThresholdsEhh
  76              		.syntax unified
  77              		.thumb
  78              		.thumb_func
ARM GAS  C:\Users\matte\AppData\Local\Temp\ccP67MDp.s 			page 9


  79              		.fpu fpv5-d16
  81              	_ZN5daisy6Mpr121INS_18Mpr121I2CTransportEE13SetThresholdsEhh:
  82              	.LVL1:
  83              	.LFB5219:
  84              		.file 7 "../../libs/PolitekDSP/libs/libDaisy/../../libs/libDaisy/src/dev/mpr121.h"
   1:../../libs/PolitekDSP/libs/libDaisy/../../libs/libDaisy/src/dev/mpr121.h **** #pragma once
   2:../../libs/PolitekDSP/libs/libDaisy/../../libs/libDaisy/src/dev/mpr121.h **** #ifndef DSY_MPR121_H
   3:../../libs/PolitekDSP/libs/libDaisy/../../libs/libDaisy/src/dev/mpr121.h **** #define DSY_MPR121_H
   4:../../libs/PolitekDSP/libs/libDaisy/../../libs/libDaisy/src/dev/mpr121.h **** 
   5:../../libs/PolitekDSP/libs/libDaisy/../../libs/libDaisy/src/dev/mpr121.h **** // The default I2C address
   6:../../libs/PolitekDSP/libs/libDaisy/../../libs/libDaisy/src/dev/mpr121.h **** #define MPR121_I2CADDR_DEFAULT 0x5A        ///< default I2C address
   7:../../libs/PolitekDSP/libs/libDaisy/../../libs/libDaisy/src/dev/mpr121.h **** #define MPR121_TOUCH_THRESHOLD_DEFAULT 12  ///< default touch threshold value
   8:../../libs/PolitekDSP/libs/libDaisy/../../libs/libDaisy/src/dev/mpr121.h **** #define MPR121_RELEASE_THRESHOLD_DEFAULT 6 ///< default relese threshold value
   9:../../libs/PolitekDSP/libs/libDaisy/../../libs/libDaisy/src/dev/mpr121.h **** 
  10:../../libs/PolitekDSP/libs/libDaisy/../../libs/libDaisy/src/dev/mpr121.h **** namespace daisy
  11:../../libs/PolitekDSP/libs/libDaisy/../../libs/libDaisy/src/dev/mpr121.h **** {
  12:../../libs/PolitekDSP/libs/libDaisy/../../libs/libDaisy/src/dev/mpr121.h **** /** @addtogroup external 
  13:../../libs/PolitekDSP/libs/libDaisy/../../libs/libDaisy/src/dev/mpr121.h ****     @{ 
  14:../../libs/PolitekDSP/libs/libDaisy/../../libs/libDaisy/src/dev/mpr121.h **** */
  15:../../libs/PolitekDSP/libs/libDaisy/../../libs/libDaisy/src/dev/mpr121.h **** 
  16:../../libs/PolitekDSP/libs/libDaisy/../../libs/libDaisy/src/dev/mpr121.h **** /** I2C Transport for MPR121 */
  17:../../libs/PolitekDSP/libs/libDaisy/../../libs/libDaisy/src/dev/mpr121.h **** class Mpr121I2CTransport
  18:../../libs/PolitekDSP/libs/libDaisy/../../libs/libDaisy/src/dev/mpr121.h **** {
  19:../../libs/PolitekDSP/libs/libDaisy/../../libs/libDaisy/src/dev/mpr121.h ****   public:
  20:../../libs/PolitekDSP/libs/libDaisy/../../libs/libDaisy/src/dev/mpr121.h ****     Mpr121I2CTransport() {}
  21:../../libs/PolitekDSP/libs/libDaisy/../../libs/libDaisy/src/dev/mpr121.h ****     ~Mpr121I2CTransport() {}
  22:../../libs/PolitekDSP/libs/libDaisy/../../libs/libDaisy/src/dev/mpr121.h **** 
  23:../../libs/PolitekDSP/libs/libDaisy/../../libs/libDaisy/src/dev/mpr121.h ****     struct Config
  24:../../libs/PolitekDSP/libs/libDaisy/../../libs/libDaisy/src/dev/mpr121.h ****     {
  25:../../libs/PolitekDSP/libs/libDaisy/../../libs/libDaisy/src/dev/mpr121.h ****         I2CHandle::Config::Peripheral periph;
  26:../../libs/PolitekDSP/libs/libDaisy/../../libs/libDaisy/src/dev/mpr121.h ****         I2CHandle::Config::Speed      speed;
  27:../../libs/PolitekDSP/libs/libDaisy/../../libs/libDaisy/src/dev/mpr121.h ****         Pin                           scl;
  28:../../libs/PolitekDSP/libs/libDaisy/../../libs/libDaisy/src/dev/mpr121.h ****         Pin                           sda;
  29:../../libs/PolitekDSP/libs/libDaisy/../../libs/libDaisy/src/dev/mpr121.h **** 
  30:../../libs/PolitekDSP/libs/libDaisy/../../libs/libDaisy/src/dev/mpr121.h ****         I2CHandle::Config::Mode mode;
  31:../../libs/PolitekDSP/libs/libDaisy/../../libs/libDaisy/src/dev/mpr121.h **** 
  32:../../libs/PolitekDSP/libs/libDaisy/../../libs/libDaisy/src/dev/mpr121.h ****         uint8_t dev_addr;
  33:../../libs/PolitekDSP/libs/libDaisy/../../libs/libDaisy/src/dev/mpr121.h **** 
  34:../../libs/PolitekDSP/libs/libDaisy/../../libs/libDaisy/src/dev/mpr121.h ****         Config()
  35:../../libs/PolitekDSP/libs/libDaisy/../../libs/libDaisy/src/dev/mpr121.h ****         {
  36:../../libs/PolitekDSP/libs/libDaisy/../../libs/libDaisy/src/dev/mpr121.h ****             periph = I2CHandle::Config::Peripheral::I2C_1;
  37:../../libs/PolitekDSP/libs/libDaisy/../../libs/libDaisy/src/dev/mpr121.h ****             speed  = I2CHandle::Config::Speed::I2C_400KHZ;
  38:../../libs/PolitekDSP/libs/libDaisy/../../libs/libDaisy/src/dev/mpr121.h **** 
  39:../../libs/PolitekDSP/libs/libDaisy/../../libs/libDaisy/src/dev/mpr121.h ****             scl = Pin(PORTB, 8);
  40:../../libs/PolitekDSP/libs/libDaisy/../../libs/libDaisy/src/dev/mpr121.h ****             sda = Pin(PORTB, 9);
  41:../../libs/PolitekDSP/libs/libDaisy/../../libs/libDaisy/src/dev/mpr121.h **** 
  42:../../libs/PolitekDSP/libs/libDaisy/../../libs/libDaisy/src/dev/mpr121.h ****             dev_addr = MPR121_I2CADDR_DEFAULT;
  43:../../libs/PolitekDSP/libs/libDaisy/../../libs/libDaisy/src/dev/mpr121.h ****         }
  44:../../libs/PolitekDSP/libs/libDaisy/../../libs/libDaisy/src/dev/mpr121.h ****     };
  45:../../libs/PolitekDSP/libs/libDaisy/../../libs/libDaisy/src/dev/mpr121.h **** 
  46:../../libs/PolitekDSP/libs/libDaisy/../../libs/libDaisy/src/dev/mpr121.h ****     /** \return Did the transaction error? i.e. Return true if error, false if ok */
  47:../../libs/PolitekDSP/libs/libDaisy/../../libs/libDaisy/src/dev/mpr121.h ****     inline bool Init(Config config)
  48:../../libs/PolitekDSP/libs/libDaisy/../../libs/libDaisy/src/dev/mpr121.h ****     {
  49:../../libs/PolitekDSP/libs/libDaisy/../../libs/libDaisy/src/dev/mpr121.h ****         config_ = config;
  50:../../libs/PolitekDSP/libs/libDaisy/../../libs/libDaisy/src/dev/mpr121.h **** 
  51:../../libs/PolitekDSP/libs/libDaisy/../../libs/libDaisy/src/dev/mpr121.h ****         I2CHandle::Config i2c_conf;
  52:../../libs/PolitekDSP/libs/libDaisy/../../libs/libDaisy/src/dev/mpr121.h ****         i2c_conf.mode   = I2CHandle::Config::Mode::I2C_MASTER;
ARM GAS  C:\Users\matte\AppData\Local\Temp\ccP67MDp.s 			page 10


  53:../../libs/PolitekDSP/libs/libDaisy/../../libs/libDaisy/src/dev/mpr121.h ****         i2c_conf.periph = config.periph;
  54:../../libs/PolitekDSP/libs/libDaisy/../../libs/libDaisy/src/dev/mpr121.h ****         i2c_conf.speed  = config.speed;
  55:../../libs/PolitekDSP/libs/libDaisy/../../libs/libDaisy/src/dev/mpr121.h **** 
  56:../../libs/PolitekDSP/libs/libDaisy/../../libs/libDaisy/src/dev/mpr121.h ****         i2c_conf.pin_config.scl = config.scl;
  57:../../libs/PolitekDSP/libs/libDaisy/../../libs/libDaisy/src/dev/mpr121.h ****         i2c_conf.pin_config.sda = config.sda;
  58:../../libs/PolitekDSP/libs/libDaisy/../../libs/libDaisy/src/dev/mpr121.h **** 
  59:../../libs/PolitekDSP/libs/libDaisy/../../libs/libDaisy/src/dev/mpr121.h ****         return I2CHandle::Result::OK != i2c_.Init(i2c_conf);
  60:../../libs/PolitekDSP/libs/libDaisy/../../libs/libDaisy/src/dev/mpr121.h ****     }
  61:../../libs/PolitekDSP/libs/libDaisy/../../libs/libDaisy/src/dev/mpr121.h **** 
  62:../../libs/PolitekDSP/libs/libDaisy/../../libs/libDaisy/src/dev/mpr121.h ****     /** \return Did the transaction error? i.e. Return true if error, false if ok */
  63:../../libs/PolitekDSP/libs/libDaisy/../../libs/libDaisy/src/dev/mpr121.h ****     bool ReadDataAtAddress(uint8_t address, uint8_t *data, uint16_t size)
  64:../../libs/PolitekDSP/libs/libDaisy/../../libs/libDaisy/src/dev/mpr121.h ****     {
  65:../../libs/PolitekDSP/libs/libDaisy/../../libs/libDaisy/src/dev/mpr121.h ****         return I2CHandle::Result::OK
  66:../../libs/PolitekDSP/libs/libDaisy/../../libs/libDaisy/src/dev/mpr121.h ****                != i2c_.ReadDataAtAddress(
  67:../../libs/PolitekDSP/libs/libDaisy/../../libs/libDaisy/src/dev/mpr121.h ****                    config_.dev_addr, address, 1, data, size, 10);
  68:../../libs/PolitekDSP/libs/libDaisy/../../libs/libDaisy/src/dev/mpr121.h ****     }
  69:../../libs/PolitekDSP/libs/libDaisy/../../libs/libDaisy/src/dev/mpr121.h **** 
  70:../../libs/PolitekDSP/libs/libDaisy/../../libs/libDaisy/src/dev/mpr121.h ****     /** \return Did the transaction error? i.e. Return true if error, false if ok */
  71:../../libs/PolitekDSP/libs/libDaisy/../../libs/libDaisy/src/dev/mpr121.h ****     bool WriteDataAtAddress(uint8_t address, uint8_t *data, uint16_t size)
  72:../../libs/PolitekDSP/libs/libDaisy/../../libs/libDaisy/src/dev/mpr121.h ****     {
  73:../../libs/PolitekDSP/libs/libDaisy/../../libs/libDaisy/src/dev/mpr121.h ****         return I2CHandle::Result::OK
  74:../../libs/PolitekDSP/libs/libDaisy/../../libs/libDaisy/src/dev/mpr121.h ****                != i2c_.WriteDataAtAddress(
  75:../../libs/PolitekDSP/libs/libDaisy/../../libs/libDaisy/src/dev/mpr121.h ****                    config_.dev_addr, address, 1, data, size, 10);
  76:../../libs/PolitekDSP/libs/libDaisy/../../libs/libDaisy/src/dev/mpr121.h ****     }
  77:../../libs/PolitekDSP/libs/libDaisy/../../libs/libDaisy/src/dev/mpr121.h **** 
  78:../../libs/PolitekDSP/libs/libDaisy/../../libs/libDaisy/src/dev/mpr121.h ****   private:
  79:../../libs/PolitekDSP/libs/libDaisy/../../libs/libDaisy/src/dev/mpr121.h ****     I2CHandle i2c_;
  80:../../libs/PolitekDSP/libs/libDaisy/../../libs/libDaisy/src/dev/mpr121.h ****     Config    config_;
  81:../../libs/PolitekDSP/libs/libDaisy/../../libs/libDaisy/src/dev/mpr121.h **** };
  82:../../libs/PolitekDSP/libs/libDaisy/../../libs/libDaisy/src/dev/mpr121.h **** 
  83:../../libs/PolitekDSP/libs/libDaisy/../../libs/libDaisy/src/dev/mpr121.h **** 
  84:../../libs/PolitekDSP/libs/libDaisy/../../libs/libDaisy/src/dev/mpr121.h **** /** @brief Device support for MPR121 12x Capacitive Touch Sensor
  85:../../libs/PolitekDSP/libs/libDaisy/../../libs/libDaisy/src/dev/mpr121.h ****     @author beserge
  86:../../libs/PolitekDSP/libs/libDaisy/../../libs/libDaisy/src/dev/mpr121.h ****     @date December 2021
  87:../../libs/PolitekDSP/libs/libDaisy/../../libs/libDaisy/src/dev/mpr121.h **** */
  88:../../libs/PolitekDSP/libs/libDaisy/../../libs/libDaisy/src/dev/mpr121.h **** template <typename Transport>
  89:../../libs/PolitekDSP/libs/libDaisy/../../libs/libDaisy/src/dev/mpr121.h **** class Mpr121
  90:../../libs/PolitekDSP/libs/libDaisy/../../libs/libDaisy/src/dev/mpr121.h **** {
  91:../../libs/PolitekDSP/libs/libDaisy/../../libs/libDaisy/src/dev/mpr121.h ****   public:
  92:../../libs/PolitekDSP/libs/libDaisy/../../libs/libDaisy/src/dev/mpr121.h ****     Mpr121() {}
  93:../../libs/PolitekDSP/libs/libDaisy/../../libs/libDaisy/src/dev/mpr121.h ****     ~Mpr121() {}
  94:../../libs/PolitekDSP/libs/libDaisy/../../libs/libDaisy/src/dev/mpr121.h **** 
  95:../../libs/PolitekDSP/libs/libDaisy/../../libs/libDaisy/src/dev/mpr121.h ****     struct Config
  96:../../libs/PolitekDSP/libs/libDaisy/../../libs/libDaisy/src/dev/mpr121.h ****     {
  97:../../libs/PolitekDSP/libs/libDaisy/../../libs/libDaisy/src/dev/mpr121.h ****         typename Transport::Config transport_config;
  98:../../libs/PolitekDSP/libs/libDaisy/../../libs/libDaisy/src/dev/mpr121.h ****         uint8_t                    touch_threshold;
  99:../../libs/PolitekDSP/libs/libDaisy/../../libs/libDaisy/src/dev/mpr121.h ****         uint8_t                    release_threshold;
 100:../../libs/PolitekDSP/libs/libDaisy/../../libs/libDaisy/src/dev/mpr121.h **** 
 101:../../libs/PolitekDSP/libs/libDaisy/../../libs/libDaisy/src/dev/mpr121.h ****         Config()
 102:../../libs/PolitekDSP/libs/libDaisy/../../libs/libDaisy/src/dev/mpr121.h ****         {
 103:../../libs/PolitekDSP/libs/libDaisy/../../libs/libDaisy/src/dev/mpr121.h ****             touch_threshold   = MPR121_TOUCH_THRESHOLD_DEFAULT;
 104:../../libs/PolitekDSP/libs/libDaisy/../../libs/libDaisy/src/dev/mpr121.h ****             release_threshold = MPR121_RELEASE_THRESHOLD_DEFAULT;
 105:../../libs/PolitekDSP/libs/libDaisy/../../libs/libDaisy/src/dev/mpr121.h ****         }
 106:../../libs/PolitekDSP/libs/libDaisy/../../libs/libDaisy/src/dev/mpr121.h ****     };
 107:../../libs/PolitekDSP/libs/libDaisy/../../libs/libDaisy/src/dev/mpr121.h **** 
 108:../../libs/PolitekDSP/libs/libDaisy/../../libs/libDaisy/src/dev/mpr121.h ****     enum Result
 109:../../libs/PolitekDSP/libs/libDaisy/../../libs/libDaisy/src/dev/mpr121.h ****     {
ARM GAS  C:\Users\matte\AppData\Local\Temp\ccP67MDp.s 			page 11


 110:../../libs/PolitekDSP/libs/libDaisy/../../libs/libDaisy/src/dev/mpr121.h ****         OK = 0,
 111:../../libs/PolitekDSP/libs/libDaisy/../../libs/libDaisy/src/dev/mpr121.h ****         ERR
 112:../../libs/PolitekDSP/libs/libDaisy/../../libs/libDaisy/src/dev/mpr121.h ****     };
 113:../../libs/PolitekDSP/libs/libDaisy/../../libs/libDaisy/src/dev/mpr121.h **** 
 114:../../libs/PolitekDSP/libs/libDaisy/../../libs/libDaisy/src/dev/mpr121.h ****     /** Initialize the MPR121 device
 115:../../libs/PolitekDSP/libs/libDaisy/../../libs/libDaisy/src/dev/mpr121.h ****         \param config Configuration settings
 116:../../libs/PolitekDSP/libs/libDaisy/../../libs/libDaisy/src/dev/mpr121.h ****     */
 117:../../libs/PolitekDSP/libs/libDaisy/../../libs/libDaisy/src/dev/mpr121.h ****     Result Init(Config config)
 118:../../libs/PolitekDSP/libs/libDaisy/../../libs/libDaisy/src/dev/mpr121.h ****     {
 119:../../libs/PolitekDSP/libs/libDaisy/../../libs/libDaisy/src/dev/mpr121.h ****         config_ = config;
 120:../../libs/PolitekDSP/libs/libDaisy/../../libs/libDaisy/src/dev/mpr121.h **** 
 121:../../libs/PolitekDSP/libs/libDaisy/../../libs/libDaisy/src/dev/mpr121.h ****         SetTransportErr(transport_.Init(config_.transport_config));
 122:../../libs/PolitekDSP/libs/libDaisy/../../libs/libDaisy/src/dev/mpr121.h **** 
 123:../../libs/PolitekDSP/libs/libDaisy/../../libs/libDaisy/src/dev/mpr121.h ****         // soft reset
 124:../../libs/PolitekDSP/libs/libDaisy/../../libs/libDaisy/src/dev/mpr121.h ****         WriteRegister(MPR121_SOFTRESET, 0x63);
 125:../../libs/PolitekDSP/libs/libDaisy/../../libs/libDaisy/src/dev/mpr121.h ****         System::Delay(1);
 126:../../libs/PolitekDSP/libs/libDaisy/../../libs/libDaisy/src/dev/mpr121.h **** 
 127:../../libs/PolitekDSP/libs/libDaisy/../../libs/libDaisy/src/dev/mpr121.h ****         WriteRegister(MPR121_ECR, 0x0);
 128:../../libs/PolitekDSP/libs/libDaisy/../../libs/libDaisy/src/dev/mpr121.h **** 
 129:../../libs/PolitekDSP/libs/libDaisy/../../libs/libDaisy/src/dev/mpr121.h ****         uint8_t c = ReadRegister8(MPR121_CONFIG2);
 130:../../libs/PolitekDSP/libs/libDaisy/../../libs/libDaisy/src/dev/mpr121.h **** 
 131:../../libs/PolitekDSP/libs/libDaisy/../../libs/libDaisy/src/dev/mpr121.h ****         if(c != 0x24)
 132:../../libs/PolitekDSP/libs/libDaisy/../../libs/libDaisy/src/dev/mpr121.h ****             return ERR;
 133:../../libs/PolitekDSP/libs/libDaisy/../../libs/libDaisy/src/dev/mpr121.h **** 
 134:../../libs/PolitekDSP/libs/libDaisy/../../libs/libDaisy/src/dev/mpr121.h ****         SetThresholds(config_.touch_threshold, config_.release_threshold);
 135:../../libs/PolitekDSP/libs/libDaisy/../../libs/libDaisy/src/dev/mpr121.h ****         WriteRegister(MPR121_MHDR, 0x01);
 136:../../libs/PolitekDSP/libs/libDaisy/../../libs/libDaisy/src/dev/mpr121.h ****         WriteRegister(MPR121_NHDR, 0x01);
 137:../../libs/PolitekDSP/libs/libDaisy/../../libs/libDaisy/src/dev/mpr121.h ****         WriteRegister(MPR121_NCLR, 0x0E);
 138:../../libs/PolitekDSP/libs/libDaisy/../../libs/libDaisy/src/dev/mpr121.h ****         WriteRegister(MPR121_FDLR, 0x00);
 139:../../libs/PolitekDSP/libs/libDaisy/../../libs/libDaisy/src/dev/mpr121.h **** 
 140:../../libs/PolitekDSP/libs/libDaisy/../../libs/libDaisy/src/dev/mpr121.h ****         WriteRegister(MPR121_MHDF, 0x01);
 141:../../libs/PolitekDSP/libs/libDaisy/../../libs/libDaisy/src/dev/mpr121.h ****         WriteRegister(MPR121_NHDF, 0x05);
 142:../../libs/PolitekDSP/libs/libDaisy/../../libs/libDaisy/src/dev/mpr121.h ****         WriteRegister(MPR121_NCLF, 0x01);
 143:../../libs/PolitekDSP/libs/libDaisy/../../libs/libDaisy/src/dev/mpr121.h ****         WriteRegister(MPR121_FDLF, 0x00);
 144:../../libs/PolitekDSP/libs/libDaisy/../../libs/libDaisy/src/dev/mpr121.h **** 
 145:../../libs/PolitekDSP/libs/libDaisy/../../libs/libDaisy/src/dev/mpr121.h ****         WriteRegister(MPR121_NHDT, 0x00);
 146:../../libs/PolitekDSP/libs/libDaisy/../../libs/libDaisy/src/dev/mpr121.h ****         WriteRegister(MPR121_NCLT, 0x00);
 147:../../libs/PolitekDSP/libs/libDaisy/../../libs/libDaisy/src/dev/mpr121.h ****         WriteRegister(MPR121_FDLT, 0x00);
 148:../../libs/PolitekDSP/libs/libDaisy/../../libs/libDaisy/src/dev/mpr121.h **** 
 149:../../libs/PolitekDSP/libs/libDaisy/../../libs/libDaisy/src/dev/mpr121.h ****         WriteRegister(MPR121_DEBOUNCE, 0);
 150:../../libs/PolitekDSP/libs/libDaisy/../../libs/libDaisy/src/dev/mpr121.h ****         WriteRegister(MPR121_CONFIG1, 0x10); // default, 16uA charge current
 151:../../libs/PolitekDSP/libs/libDaisy/../../libs/libDaisy/src/dev/mpr121.h ****         WriteRegister(MPR121_CONFIG2, 0x20); // 0.5uS encoding, 1ms period
 152:../../libs/PolitekDSP/libs/libDaisy/../../libs/libDaisy/src/dev/mpr121.h **** 
 153:../../libs/PolitekDSP/libs/libDaisy/../../libs/libDaisy/src/dev/mpr121.h ****         // autoconfig
 154:../../libs/PolitekDSP/libs/libDaisy/../../libs/libDaisy/src/dev/mpr121.h ****         // WriteRegister(MPR121_AUTOCONFIG0, 0x0B);
 155:../../libs/PolitekDSP/libs/libDaisy/../../libs/libDaisy/src/dev/mpr121.h **** 
 156:../../libs/PolitekDSP/libs/libDaisy/../../libs/libDaisy/src/dev/mpr121.h ****         // correct values for Vdd = 3.3V
 157:../../libs/PolitekDSP/libs/libDaisy/../../libs/libDaisy/src/dev/mpr121.h ****         // WriteRegister(MPR121_UPLIMIT, 200);     // ((Vdd - 0.7)/Vdd) * 256
 158:../../libs/PolitekDSP/libs/libDaisy/../../libs/libDaisy/src/dev/mpr121.h ****         // WriteRegister(MPR121_TARGETLIMIT, 180); // UPLIMIT * 0.9
 159:../../libs/PolitekDSP/libs/libDaisy/../../libs/libDaisy/src/dev/mpr121.h ****         // WriteRegister(MPR121_LOWLIMIT, 130);    // UPLIMIT * 0.65
 160:../../libs/PolitekDSP/libs/libDaisy/../../libs/libDaisy/src/dev/mpr121.h ****         // autoconfig
 161:../../libs/PolitekDSP/libs/libDaisy/../../libs/libDaisy/src/dev/mpr121.h **** 
 162:../../libs/PolitekDSP/libs/libDaisy/../../libs/libDaisy/src/dev/mpr121.h ****         // enable X electrodes and start MPR121
 163:../../libs/PolitekDSP/libs/libDaisy/../../libs/libDaisy/src/dev/mpr121.h ****         uint8_t ECR_SETTING
 164:../../libs/PolitekDSP/libs/libDaisy/../../libs/libDaisy/src/dev/mpr121.h ****             = 0x80
 165:../../libs/PolitekDSP/libs/libDaisy/../../libs/libDaisy/src/dev/mpr121.h ****               + 12; // enable baseline tracking (10) & disable proximity (00) + X
 166:../../libs/PolitekDSP/libs/libDaisy/../../libs/libDaisy/src/dev/mpr121.h ****                     // amount of electrodes running (12)
ARM GAS  C:\Users\matte\AppData\Local\Temp\ccP67MDp.s 			page 12


 167:../../libs/PolitekDSP/libs/libDaisy/../../libs/libDaisy/src/dev/mpr121.h ****         WriteRegister(MPR121_ECR,
 168:../../libs/PolitekDSP/libs/libDaisy/../../libs/libDaisy/src/dev/mpr121.h ****                       ECR_SETTING); // start with above ECR setting
 169:../../libs/PolitekDSP/libs/libDaisy/../../libs/libDaisy/src/dev/mpr121.h **** 
 170:../../libs/PolitekDSP/libs/libDaisy/../../libs/libDaisy/src/dev/mpr121.h ****         return GetTransportErr();
 171:../../libs/PolitekDSP/libs/libDaisy/../../libs/libDaisy/src/dev/mpr121.h ****     }
 172:../../libs/PolitekDSP/libs/libDaisy/../../libs/libDaisy/src/dev/mpr121.h **** 
 173:../../libs/PolitekDSP/libs/libDaisy/../../libs/libDaisy/src/dev/mpr121.h ****     /** Set the touch and release thresholds for all 13 channels on the
 174:../../libs/PolitekDSP/libs/libDaisy/../../libs/libDaisy/src/dev/mpr121.h ****         device to the passed values.
 175:../../libs/PolitekDSP/libs/libDaisy/../../libs/libDaisy/src/dev/mpr121.h ****         \param      touch The touch threshold value from 0 to 255.
 176:../../libs/PolitekDSP/libs/libDaisy/../../libs/libDaisy/src/dev/mpr121.h ****         \param      release The release threshold from 0 to 255.
 177:../../libs/PolitekDSP/libs/libDaisy/../../libs/libDaisy/src/dev/mpr121.h ****     */
 178:../../libs/PolitekDSP/libs/libDaisy/../../libs/libDaisy/src/dev/mpr121.h ****     void SetThresholds(uint8_t touch, uint8_t release)
  85              		.loc 7 178 10 is_stmt 1 view -0
  86              		.cfi_startproc
  87              		@ args = 0, pretend = 0, frame = 16
  88              		@ frame_needed = 0, uses_anonymous_args = 0
  89              	.LBB319:
 179:../../libs/PolitekDSP/libs/libDaisy/../../libs/libDaisy/src/dev/mpr121.h ****     {
 180:../../libs/PolitekDSP/libs/libDaisy/../../libs/libDaisy/src/dev/mpr121.h ****         // set all thresholds (the same)
 181:../../libs/PolitekDSP/libs/libDaisy/../../libs/libDaisy/src/dev/mpr121.h ****         for(uint8_t i = 0; i < 12; i++)
  90              		.loc 7 181 30 view .LVU13
  91              	.LBE319:
 178:../../libs/PolitekDSP/libs/libDaisy/../../libs/libDaisy/src/dev/mpr121.h ****     {
  92              		.loc 7 178 10 is_stmt 0 view .LVU14
  93 0000 2DE9F04F 		push	{r4, r5, r6, r7, r8, r9, r10, fp, lr}
  94              		.cfi_def_cfa_offset 36
  95              		.cfi_offset 4, -36
  96              		.cfi_offset 5, -32
  97              		.cfi_offset 6, -28
  98              		.cfi_offset 7, -24
  99              		.cfi_offset 8, -20
 100              		.cfi_offset 9, -16
 101              		.cfi_offset 10, -12
 102              		.cfi_offset 11, -8
 103              		.cfi_offset 14, -4
 104 0004 89B0     		sub	sp, sp, #36
 105              		.cfi_def_cfa_offset 72
 106              	.LBB488:
 107              	.LBB320:
 108              	.LBB321:
 109              	.LBB322:
 110              	.LBB323:
 111              	.LBB324:
 112              	.LBB325:
 113              	.LBB326:
  66:../../libs/PolitekDSP/libs/libDaisy/../../libs/libDaisy/src/dev/mpr121.h ****                    config_.dev_addr, address, 1, data, size, 10);
 114              		.loc 7 66 41 view .LVU15
 115 0006 4127     		movs	r7, #65
 116              	.LBE326:
 117              	.LBE325:
 118              	.LBE324:
 119              	.LBE323:
 120              	.LBE322:
 121              	.LBE321:
 122              	.LBE320:
 123              	.LBE488:
 178:../../libs/PolitekDSP/libs/libDaisy/../../libs/libDaisy/src/dev/mpr121.h ****     {
ARM GAS  C:\Users\matte\AppData\Local\Temp\ccP67MDp.s 			page 13


 124              		.loc 7 178 10 view .LVU16
 125 0008 0446     		mov	r4, r0
 126              	.LBB489:
 127              	.LBB403:
 128              	.LBB398:
 129              	.LBB369:
 130              	.LBB347:
 131              	.LBB341:
 132              	.LBB331:
 133              	.LBB327:
  66:../../libs/PolitekDSP/libs/libDaisy/../../libs/libDaisy/src/dev/mpr121.h ****                    config_.dev_addr, address, 1, data, size, 10);
 134              		.loc 7 66 41 view .LVU17
 135 000a 00F11806 		add	r6, r0, #24
 136 000e 0DF11F08 		add	r8, sp, #31
 137 0012 0DF11D0B 		add	fp, sp, #29
 138              	.LBE327:
 139              	.LBE331:
 140              	.LBE341:
 141              	.LBE347:
 142              	.LBE369:
 143              	.LBE398:
 144              	.LBE403:
 145              	.LBE489:
 178:../../libs/PolitekDSP/libs/libDaisy/../../libs/libDaisy/src/dev/mpr121.h ****     {
 146              		.loc 7 178 10 view .LVU18
 147 0016 CDE90412 		strd	r1, r2, [sp, #16]
 148              	.LVL2:
 149              	.L4:
 150              	.LBB490:
 151              	.LBB404:
 152              	.LBB399:
 153              	.LBB370:
 154              	.LBB348:
 155              	.LBB342:
 156              	.LBB332:
 157              	.LBB328:
  66:../../libs/PolitekDSP/libs/libDaisy/../../libs/libDaisy/src/dev/mpr121.h ****                    config_.dev_addr, address, 1, data, size, 10);
 158              		.loc 7 66 41 discriminator 2 view .LVU19
 159 001a 4FF0010A 		mov	r10, #1
 160 001e 0A25     		movs	r5, #10
 161 0020 0498     		ldr	r0, [sp, #16]
 162 0022 5E22     		movs	r2, #94
 163 0024 94F82C10 		ldrb	r1, [r4, #44]	@ zero_extendqisi2
 164 0028 5346     		mov	r3, r10
 165 002a 8DF81D00 		strb	r0, [sp, #29]
 166              	.LVL3:
  66:../../libs/PolitekDSP/libs/libDaisy/../../libs/libDaisy/src/dev/mpr121.h ****                    config_.dev_addr, address, 1, data, size, 10);
 167              		.loc 7 66 41 discriminator 2 view .LVU20
 168              	.LBE328:
 169              	.LBE332:
 170              	.LBE342:
 171              	.LBE348:
 172              	.LBE370:
 173              	.LBE399:
 174              	.LBI320:
 182:../../libs/PolitekDSP/libs/libDaisy/../../libs/libDaisy/src/dev/mpr121.h ****         {
 183:../../libs/PolitekDSP/libs/libDaisy/../../libs/libDaisy/src/dev/mpr121.h ****             WriteRegister(MPR121_TOUCHTH_0 + 2 * i, touch);
ARM GAS  C:\Users\matte\AppData\Local\Temp\ccP67MDp.s 			page 14


 184:../../libs/PolitekDSP/libs/libDaisy/../../libs/libDaisy/src/dev/mpr121.h ****             WriteRegister(MPR121_RELEASETH_0 + 2 * i, release);
 185:../../libs/PolitekDSP/libs/libDaisy/../../libs/libDaisy/src/dev/mpr121.h ****         }
 186:../../libs/PolitekDSP/libs/libDaisy/../../libs/libDaisy/src/dev/mpr121.h ****     }
 187:../../libs/PolitekDSP/libs/libDaisy/../../libs/libDaisy/src/dev/mpr121.h **** 
 188:../../libs/PolitekDSP/libs/libDaisy/../../libs/libDaisy/src/dev/mpr121.h **** 
 189:../../libs/PolitekDSP/libs/libDaisy/../../libs/libDaisy/src/dev/mpr121.h ****     /** Read the filtered data from channel t. The ADC raw data outputs
 190:../../libs/PolitekDSP/libs/libDaisy/../../libs/libDaisy/src/dev/mpr121.h ****         run through 3 levels of digital filtering to filter out the high
 191:../../libs/PolitekDSP/libs/libDaisy/../../libs/libDaisy/src/dev/mpr121.h ****         frequency and low frequency noise encountered. For detailed information on
 192:../../libs/PolitekDSP/libs/libDaisy/../../libs/libDaisy/src/dev/mpr121.h ****         this filtering see page 6 of the device datasheet.
 193:../../libs/PolitekDSP/libs/libDaisy/../../libs/libDaisy/src/dev/mpr121.h ****         \param      t the channel to read
 194:../../libs/PolitekDSP/libs/libDaisy/../../libs/libDaisy/src/dev/mpr121.h ****         \returns    the filtered reading as a 10 bit unsigned value
 195:../../libs/PolitekDSP/libs/libDaisy/../../libs/libDaisy/src/dev/mpr121.h ****     */
 196:../../libs/PolitekDSP/libs/libDaisy/../../libs/libDaisy/src/dev/mpr121.h ****     uint16_t FilteredData(uint8_t t)
 197:../../libs/PolitekDSP/libs/libDaisy/../../libs/libDaisy/src/dev/mpr121.h ****     {
 198:../../libs/PolitekDSP/libs/libDaisy/../../libs/libDaisy/src/dev/mpr121.h ****         if(t > 12)
 199:../../libs/PolitekDSP/libs/libDaisy/../../libs/libDaisy/src/dev/mpr121.h ****             return 0;
 200:../../libs/PolitekDSP/libs/libDaisy/../../libs/libDaisy/src/dev/mpr121.h ****         return ReadRegister16(MPR121_FILTDATA_0L + t * 2);
 201:../../libs/PolitekDSP/libs/libDaisy/../../libs/libDaisy/src/dev/mpr121.h ****     }
 202:../../libs/PolitekDSP/libs/libDaisy/../../libs/libDaisy/src/dev/mpr121.h **** 
 203:../../libs/PolitekDSP/libs/libDaisy/../../libs/libDaisy/src/dev/mpr121.h ****     /** Read the baseline value for the channel. The 3rd level filtered
 204:../../libs/PolitekDSP/libs/libDaisy/../../libs/libDaisy/src/dev/mpr121.h ****         result is internally 10bit but only high 8 bits are readable
 205:../../libs/PolitekDSP/libs/libDaisy/../../libs/libDaisy/src/dev/mpr121.h ****         from registers 0x1E~0x2A as the baseline value output for each channel.
 206:../../libs/PolitekDSP/libs/libDaisy/../../libs/libDaisy/src/dev/mpr121.h ****         \param      t the channel to read.
 207:../../libs/PolitekDSP/libs/libDaisy/../../libs/libDaisy/src/dev/mpr121.h ****         \returns    the baseline data that was read
 208:../../libs/PolitekDSP/libs/libDaisy/../../libs/libDaisy/src/dev/mpr121.h ****     */
 209:../../libs/PolitekDSP/libs/libDaisy/../../libs/libDaisy/src/dev/mpr121.h ****     uint16_t BaselineData(uint8_t t)
 210:../../libs/PolitekDSP/libs/libDaisy/../../libs/libDaisy/src/dev/mpr121.h ****     {
 211:../../libs/PolitekDSP/libs/libDaisy/../../libs/libDaisy/src/dev/mpr121.h ****         if(t > 12)
 212:../../libs/PolitekDSP/libs/libDaisy/../../libs/libDaisy/src/dev/mpr121.h ****             return 0;
 213:../../libs/PolitekDSP/libs/libDaisy/../../libs/libDaisy/src/dev/mpr121.h ****         uint16_t bl = ReadRegister8(MPR121_BASELINE_0 + t);
 214:../../libs/PolitekDSP/libs/libDaisy/../../libs/libDaisy/src/dev/mpr121.h ****         return (bl << 2);
 215:../../libs/PolitekDSP/libs/libDaisy/../../libs/libDaisy/src/dev/mpr121.h ****     }
 216:../../libs/PolitekDSP/libs/libDaisy/../../libs/libDaisy/src/dev/mpr121.h **** 
 217:../../libs/PolitekDSP/libs/libDaisy/../../libs/libDaisy/src/dev/mpr121.h ****     /** Read the touch status of all 13 channels as bit values in a 12 bit integer.
 218:../../libs/PolitekDSP/libs/libDaisy/../../libs/libDaisy/src/dev/mpr121.h ****         \returns    a 12 bit integer with each bit corresponding to the touch status
 219:../../libs/PolitekDSP/libs/libDaisy/../../libs/libDaisy/src/dev/mpr121.h ****         of a sensor. For example, if bit 0 is set then channel 0 of the
 220:../../libs/PolitekDSP/libs/libDaisy/../../libs/libDaisy/src/dev/mpr121.h ****         device is currently deemed to be touched.
 221:../../libs/PolitekDSP/libs/libDaisy/../../libs/libDaisy/src/dev/mpr121.h ****     */
 222:../../libs/PolitekDSP/libs/libDaisy/../../libs/libDaisy/src/dev/mpr121.h ****     uint16_t Touched()
 223:../../libs/PolitekDSP/libs/libDaisy/../../libs/libDaisy/src/dev/mpr121.h ****     {
 224:../../libs/PolitekDSP/libs/libDaisy/../../libs/libDaisy/src/dev/mpr121.h ****         uint16_t t = ReadRegister16(MPR121_TOUCHSTATUS_L);
 225:../../libs/PolitekDSP/libs/libDaisy/../../libs/libDaisy/src/dev/mpr121.h ****         return t & 0x0FFF;
 226:../../libs/PolitekDSP/libs/libDaisy/../../libs/libDaisy/src/dev/mpr121.h ****     }
 227:../../libs/PolitekDSP/libs/libDaisy/../../libs/libDaisy/src/dev/mpr121.h **** 
 228:../../libs/PolitekDSP/libs/libDaisy/../../libs/libDaisy/src/dev/mpr121.h ****     /** Read the contents of an 8 bit device register.
 229:../../libs/PolitekDSP/libs/libDaisy/../../libs/libDaisy/src/dev/mpr121.h ****         \param      reg the register address to read from
 230:../../libs/PolitekDSP/libs/libDaisy/../../libs/libDaisy/src/dev/mpr121.h ****         \returns    the 8 bit value that was read.
 231:../../libs/PolitekDSP/libs/libDaisy/../../libs/libDaisy/src/dev/mpr121.h ****     */
 232:../../libs/PolitekDSP/libs/libDaisy/../../libs/libDaisy/src/dev/mpr121.h ****     uint8_t ReadRegister8(uint8_t reg)
 233:../../libs/PolitekDSP/libs/libDaisy/../../libs/libDaisy/src/dev/mpr121.h ****     {
 234:../../libs/PolitekDSP/libs/libDaisy/../../libs/libDaisy/src/dev/mpr121.h ****         uint8_t buff;
 235:../../libs/PolitekDSP/libs/libDaisy/../../libs/libDaisy/src/dev/mpr121.h ****         SetTransportErr(transport_.ReadDataAtAddress(reg, &buff, 1));
 236:../../libs/PolitekDSP/libs/libDaisy/../../libs/libDaisy/src/dev/mpr121.h **** 
 237:../../libs/PolitekDSP/libs/libDaisy/../../libs/libDaisy/src/dev/mpr121.h ****         return buff;
 238:../../libs/PolitekDSP/libs/libDaisy/../../libs/libDaisy/src/dev/mpr121.h ****     }
 239:../../libs/PolitekDSP/libs/libDaisy/../../libs/libDaisy/src/dev/mpr121.h **** 
 240:../../libs/PolitekDSP/libs/libDaisy/../../libs/libDaisy/src/dev/mpr121.h ****     /** Read the contents of a 16 bit device register.
ARM GAS  C:\Users\matte\AppData\Local\Temp\ccP67MDp.s 			page 15


 241:../../libs/PolitekDSP/libs/libDaisy/../../libs/libDaisy/src/dev/mpr121.h ****         \param      reg the register address to read from
 242:../../libs/PolitekDSP/libs/libDaisy/../../libs/libDaisy/src/dev/mpr121.h ****         \returns    the 16 bit value that was read.
 243:../../libs/PolitekDSP/libs/libDaisy/../../libs/libDaisy/src/dev/mpr121.h ****     */
 244:../../libs/PolitekDSP/libs/libDaisy/../../libs/libDaisy/src/dev/mpr121.h ****     uint16_t ReadRegister16(uint8_t reg)
 245:../../libs/PolitekDSP/libs/libDaisy/../../libs/libDaisy/src/dev/mpr121.h ****     {
 246:../../libs/PolitekDSP/libs/libDaisy/../../libs/libDaisy/src/dev/mpr121.h ****         uint16_t buff;
 247:../../libs/PolitekDSP/libs/libDaisy/../../libs/libDaisy/src/dev/mpr121.h ****         SetTransportErr(
 248:../../libs/PolitekDSP/libs/libDaisy/../../libs/libDaisy/src/dev/mpr121.h ****             transport_.ReadDataAtAddress(reg, (uint8_t *)(&buff), 2));
 249:../../libs/PolitekDSP/libs/libDaisy/../../libs/libDaisy/src/dev/mpr121.h **** 
 250:../../libs/PolitekDSP/libs/libDaisy/../../libs/libDaisy/src/dev/mpr121.h ****         return buff;
 251:../../libs/PolitekDSP/libs/libDaisy/../../libs/libDaisy/src/dev/mpr121.h ****     }
 252:../../libs/PolitekDSP/libs/libDaisy/../../libs/libDaisy/src/dev/mpr121.h **** 
 253:../../libs/PolitekDSP/libs/libDaisy/../../libs/libDaisy/src/dev/mpr121.h ****     /** Writes 8-bits to the specified destination register
 254:../../libs/PolitekDSP/libs/libDaisy/../../libs/libDaisy/src/dev/mpr121.h ****         \param  reg the register address to write to
 255:../../libs/PolitekDSP/libs/libDaisy/../../libs/libDaisy/src/dev/mpr121.h ****         \param  value the value to write
 256:../../libs/PolitekDSP/libs/libDaisy/../../libs/libDaisy/src/dev/mpr121.h ****     */
 257:../../libs/PolitekDSP/libs/libDaisy/../../libs/libDaisy/src/dev/mpr121.h ****     void WriteRegister(uint8_t reg, uint8_t value)
 175              		.loc 7 257 10 is_stmt 1 discriminator 2 view .LVU21
 176              	.LBB400:
 177              	.LBB371:
 178              	.LBB349:
 179              	.LBI323:
 232:../../libs/PolitekDSP/libs/libDaisy/../../libs/libDaisy/src/dev/mpr121.h ****     {
 180              		.loc 7 232 13 discriminator 2 view .LVU22
 181              	.LBB343:
 182              	.LBB333:
 183              	.LBI325:
  63:../../libs/PolitekDSP/libs/libDaisy/../../libs/libDaisy/src/dev/mpr121.h ****     {
 184              		.loc 7 63 10 discriminator 2 view .LVU23
 185              	.LBB329:
  65:../../libs/PolitekDSP/libs/libDaisy/../../libs/libDaisy/src/dev/mpr121.h ****                != i2c_.ReadDataAtAddress(
 186              		.loc 7 65 9 discriminator 2 view .LVU24
  66:../../libs/PolitekDSP/libs/libDaisy/../../libs/libDaisy/src/dev/mpr121.h ****                    config_.dev_addr, address, 1, data, size, 10);
 187              		.loc 7 66 41 is_stmt 0 discriminator 2 view .LVU25
 188 002e 3046     		mov	r0, r6
 189              	.LVL4:
  66:../../libs/PolitekDSP/libs/libDaisy/../../libs/libDaisy/src/dev/mpr121.h ****                    config_.dev_addr, address, 1, data, size, 10);
 190              		.loc 7 66 41 discriminator 2 view .LVU26
 191 0030 CDF80080 		str	r8, [sp]
 192              	.LBE329:
 193              	.LBE333:
 194              	.LBE343:
 195              	.LBE349:
 258:../../libs/PolitekDSP/libs/libDaisy/../../libs/libDaisy/src/dev/mpr121.h ****     {
 259:../../libs/PolitekDSP/libs/libDaisy/../../libs/libDaisy/src/dev/mpr121.h ****         // MPR121 must be put in Stop Mode to write to most registers
 260:../../libs/PolitekDSP/libs/libDaisy/../../libs/libDaisy/src/dev/mpr121.h ****         bool stop_required = true;
 261:../../libs/PolitekDSP/libs/libDaisy/../../libs/libDaisy/src/dev/mpr121.h ****         if((reg == MPR121_ECR) || ((0x73 <= reg) && (reg <= 0x7A)))
 262:../../libs/PolitekDSP/libs/libDaisy/../../libs/libDaisy/src/dev/mpr121.h ****         {
 263:../../libs/PolitekDSP/libs/libDaisy/../../libs/libDaisy/src/dev/mpr121.h ****             stop_required = false;
 264:../../libs/PolitekDSP/libs/libDaisy/../../libs/libDaisy/src/dev/mpr121.h ****         }
 265:../../libs/PolitekDSP/libs/libDaisy/../../libs/libDaisy/src/dev/mpr121.h **** 
 266:../../libs/PolitekDSP/libs/libDaisy/../../libs/libDaisy/src/dev/mpr121.h ****         uint8_t ecr_backup;
 267:../../libs/PolitekDSP/libs/libDaisy/../../libs/libDaisy/src/dev/mpr121.h **** 
 268:../../libs/PolitekDSP/libs/libDaisy/../../libs/libDaisy/src/dev/mpr121.h ****         if(stop_required)
 269:../../libs/PolitekDSP/libs/libDaisy/../../libs/libDaisy/src/dev/mpr121.h ****         {
 270:../../libs/PolitekDSP/libs/libDaisy/../../libs/libDaisy/src/dev/mpr121.h ****             ecr_backup   = ReadRegister8(MPR121_ECR);
 271:../../libs/PolitekDSP/libs/libDaisy/../../libs/libDaisy/src/dev/mpr121.h ****             uint8_t zero = 0x00;
ARM GAS  C:\Users\matte\AppData\Local\Temp\ccP67MDp.s 			page 16


 196              		.loc 7 271 21 discriminator 2 view .LVU27
 197 0034 4FF00009 		mov	r9, #0
 198              	.LBB350:
 199              	.LBB344:
 200              	.LBB334:
 201              	.LBB330:
  66:../../libs/PolitekDSP/libs/libDaisy/../../libs/libDaisy/src/dev/mpr121.h ****                    config_.dev_addr, address, 1, data, size, 10);
 202              		.loc 7 66 41 discriminator 2 view .LVU28
 203 0038 CDE901A5 		strd	r10, r5, [sp, #4]
 204 003c FFF7FEFF 		bl	_ZN5daisy9I2CHandle17ReadDataAtAddressEtttPhtm
 205              	.LVL5:
  66:../../libs/PolitekDSP/libs/libDaisy/../../libs/libDaisy/src/dev/mpr121.h ****                    config_.dev_addr, address, 1, data, size, 10);
 206              		.loc 7 66 41 discriminator 2 view .LVU29
 207              	.LBE330:
 208              	.LBE334:
 209              	.LBB335:
 210              	.LBI335:
 272:../../libs/PolitekDSP/libs/libDaisy/../../libs/libDaisy/src/dev/mpr121.h ****             // clear this register to set stop mode
 273:../../libs/PolitekDSP/libs/libDaisy/../../libs/libDaisy/src/dev/mpr121.h ****             SetTransportErr(
 274:../../libs/PolitekDSP/libs/libDaisy/../../libs/libDaisy/src/dev/mpr121.h ****                 transport_.WriteDataAtAddress(MPR121_ECR, &zero, 1));
 275:../../libs/PolitekDSP/libs/libDaisy/../../libs/libDaisy/src/dev/mpr121.h ****         }
 276:../../libs/PolitekDSP/libs/libDaisy/../../libs/libDaisy/src/dev/mpr121.h **** 
 277:../../libs/PolitekDSP/libs/libDaisy/../../libs/libDaisy/src/dev/mpr121.h ****         SetTransportErr(transport_.WriteDataAtAddress(reg, &value, 1));
 278:../../libs/PolitekDSP/libs/libDaisy/../../libs/libDaisy/src/dev/mpr121.h **** 
 279:../../libs/PolitekDSP/libs/libDaisy/../../libs/libDaisy/src/dev/mpr121.h ****         if(stop_required)
 280:../../libs/PolitekDSP/libs/libDaisy/../../libs/libDaisy/src/dev/mpr121.h ****         {
 281:../../libs/PolitekDSP/libs/libDaisy/../../libs/libDaisy/src/dev/mpr121.h ****             // write back the previous set ECR settings
 282:../../libs/PolitekDSP/libs/libDaisy/../../libs/libDaisy/src/dev/mpr121.h ****             SetTransportErr(
 283:../../libs/PolitekDSP/libs/libDaisy/../../libs/libDaisy/src/dev/mpr121.h ****                 transport_.WriteDataAtAddress(MPR121_ECR, &ecr_backup, 1));
 284:../../libs/PolitekDSP/libs/libDaisy/../../libs/libDaisy/src/dev/mpr121.h ****         }
 285:../../libs/PolitekDSP/libs/libDaisy/../../libs/libDaisy/src/dev/mpr121.h ****     }
 286:../../libs/PolitekDSP/libs/libDaisy/../../libs/libDaisy/src/dev/mpr121.h **** 
 287:../../libs/PolitekDSP/libs/libDaisy/../../libs/libDaisy/src/dev/mpr121.h ****     /** Device register map */
 288:../../libs/PolitekDSP/libs/libDaisy/../../libs/libDaisy/src/dev/mpr121.h ****     enum RegMap
 289:../../libs/PolitekDSP/libs/libDaisy/../../libs/libDaisy/src/dev/mpr121.h ****     {
 290:../../libs/PolitekDSP/libs/libDaisy/../../libs/libDaisy/src/dev/mpr121.h ****         MPR121_TOUCHSTATUS_L = 0x00,
 291:../../libs/PolitekDSP/libs/libDaisy/../../libs/libDaisy/src/dev/mpr121.h ****         MPR121_TOUCHSTATUS_H = 0x01,
 292:../../libs/PolitekDSP/libs/libDaisy/../../libs/libDaisy/src/dev/mpr121.h ****         MPR121_FILTDATA_0L   = 0x04,
 293:../../libs/PolitekDSP/libs/libDaisy/../../libs/libDaisy/src/dev/mpr121.h ****         MPR121_FILTDATA_0H   = 0x05,
 294:../../libs/PolitekDSP/libs/libDaisy/../../libs/libDaisy/src/dev/mpr121.h ****         MPR121_BASELINE_0    = 0x1E,
 295:../../libs/PolitekDSP/libs/libDaisy/../../libs/libDaisy/src/dev/mpr121.h ****         MPR121_MHDR          = 0x2B,
 296:../../libs/PolitekDSP/libs/libDaisy/../../libs/libDaisy/src/dev/mpr121.h ****         MPR121_NHDR          = 0x2C,
 297:../../libs/PolitekDSP/libs/libDaisy/../../libs/libDaisy/src/dev/mpr121.h ****         MPR121_NCLR          = 0x2D,
 298:../../libs/PolitekDSP/libs/libDaisy/../../libs/libDaisy/src/dev/mpr121.h ****         MPR121_FDLR          = 0x2E,
 299:../../libs/PolitekDSP/libs/libDaisy/../../libs/libDaisy/src/dev/mpr121.h ****         MPR121_MHDF          = 0x2F,
 300:../../libs/PolitekDSP/libs/libDaisy/../../libs/libDaisy/src/dev/mpr121.h ****         MPR121_NHDF          = 0x30,
 301:../../libs/PolitekDSP/libs/libDaisy/../../libs/libDaisy/src/dev/mpr121.h ****         MPR121_NCLF          = 0x31,
 302:../../libs/PolitekDSP/libs/libDaisy/../../libs/libDaisy/src/dev/mpr121.h ****         MPR121_FDLF          = 0x32,
 303:../../libs/PolitekDSP/libs/libDaisy/../../libs/libDaisy/src/dev/mpr121.h ****         MPR121_NHDT          = 0x33,
 304:../../libs/PolitekDSP/libs/libDaisy/../../libs/libDaisy/src/dev/mpr121.h ****         MPR121_NCLT          = 0x34,
 305:../../libs/PolitekDSP/libs/libDaisy/../../libs/libDaisy/src/dev/mpr121.h ****         MPR121_FDLT          = 0x35,
 306:../../libs/PolitekDSP/libs/libDaisy/../../libs/libDaisy/src/dev/mpr121.h **** 
 307:../../libs/PolitekDSP/libs/libDaisy/../../libs/libDaisy/src/dev/mpr121.h ****         MPR121_TOUCHTH_0    = 0x41,
 308:../../libs/PolitekDSP/libs/libDaisy/../../libs/libDaisy/src/dev/mpr121.h ****         MPR121_RELEASETH_0  = 0x42,
 309:../../libs/PolitekDSP/libs/libDaisy/../../libs/libDaisy/src/dev/mpr121.h ****         MPR121_DEBOUNCE     = 0x5B,
 310:../../libs/PolitekDSP/libs/libDaisy/../../libs/libDaisy/src/dev/mpr121.h ****         MPR121_CONFIG1      = 0x5C,
 311:../../libs/PolitekDSP/libs/libDaisy/../../libs/libDaisy/src/dev/mpr121.h ****         MPR121_CONFIG2      = 0x5D,
ARM GAS  C:\Users\matte\AppData\Local\Temp\ccP67MDp.s 			page 17


 312:../../libs/PolitekDSP/libs/libDaisy/../../libs/libDaisy/src/dev/mpr121.h ****         MPR121_CHARGECURR_0 = 0x5F,
 313:../../libs/PolitekDSP/libs/libDaisy/../../libs/libDaisy/src/dev/mpr121.h ****         MPR121_CHARGETIME_1 = 0x6C,
 314:../../libs/PolitekDSP/libs/libDaisy/../../libs/libDaisy/src/dev/mpr121.h ****         MPR121_ECR          = 0x5E,
 315:../../libs/PolitekDSP/libs/libDaisy/../../libs/libDaisy/src/dev/mpr121.h ****         MPR121_AUTOCONFIG0  = 0x7B,
 316:../../libs/PolitekDSP/libs/libDaisy/../../libs/libDaisy/src/dev/mpr121.h ****         MPR121_AUTOCONFIG1  = 0x7C,
 317:../../libs/PolitekDSP/libs/libDaisy/../../libs/libDaisy/src/dev/mpr121.h ****         MPR121_UPLIMIT      = 0x7D,
 318:../../libs/PolitekDSP/libs/libDaisy/../../libs/libDaisy/src/dev/mpr121.h ****         MPR121_LOWLIMIT     = 0x7E,
 319:../../libs/PolitekDSP/libs/libDaisy/../../libs/libDaisy/src/dev/mpr121.h ****         MPR121_TARGETLIMIT  = 0x7F,
 320:../../libs/PolitekDSP/libs/libDaisy/../../libs/libDaisy/src/dev/mpr121.h **** 
 321:../../libs/PolitekDSP/libs/libDaisy/../../libs/libDaisy/src/dev/mpr121.h ****         MPR121_GPIODIR    = 0x76,
 322:../../libs/PolitekDSP/libs/libDaisy/../../libs/libDaisy/src/dev/mpr121.h ****         MPR121_GPIOEN     = 0x77,
 323:../../libs/PolitekDSP/libs/libDaisy/../../libs/libDaisy/src/dev/mpr121.h ****         MPR121_GPIOSET    = 0x78,
 324:../../libs/PolitekDSP/libs/libDaisy/../../libs/libDaisy/src/dev/mpr121.h ****         MPR121_GPIOCLR    = 0x79,
 325:../../libs/PolitekDSP/libs/libDaisy/../../libs/libDaisy/src/dev/mpr121.h ****         MPR121_GPIOTOGGLE = 0x7A,
 326:../../libs/PolitekDSP/libs/libDaisy/../../libs/libDaisy/src/dev/mpr121.h **** 
 327:../../libs/PolitekDSP/libs/libDaisy/../../libs/libDaisy/src/dev/mpr121.h ****         MPR121_SOFTRESET = 0x80,
 328:../../libs/PolitekDSP/libs/libDaisy/../../libs/libDaisy/src/dev/mpr121.h ****     };
 329:../../libs/PolitekDSP/libs/libDaisy/../../libs/libDaisy/src/dev/mpr121.h **** 
 330:../../libs/PolitekDSP/libs/libDaisy/../../libs/libDaisy/src/dev/mpr121.h ****   private:
 331:../../libs/PolitekDSP/libs/libDaisy/../../libs/libDaisy/src/dev/mpr121.h ****     Config    config_;
 332:../../libs/PolitekDSP/libs/libDaisy/../../libs/libDaisy/src/dev/mpr121.h ****     Transport transport_;
 333:../../libs/PolitekDSP/libs/libDaisy/../../libs/libDaisy/src/dev/mpr121.h ****     bool      transport_error_;
 334:../../libs/PolitekDSP/libs/libDaisy/../../libs/libDaisy/src/dev/mpr121.h **** 
 335:../../libs/PolitekDSP/libs/libDaisy/../../libs/libDaisy/src/dev/mpr121.h ****     /** Set the global transport_error_ bool */
 336:../../libs/PolitekDSP/libs/libDaisy/../../libs/libDaisy/src/dev/mpr121.h ****     void SetTransportErr(bool err) { transport_error_ |= err; }
 211              		.loc 7 336 10 is_stmt 1 discriminator 2 view .LVU30
 212              	.LBB336:
 213              		.loc 7 336 55 is_stmt 0 discriminator 2 view .LVU31
 214 0040 94F83020 		ldrb	r2, [r4, #48]	@ zero_extendqisi2
 215              	.LBE336:
 216              	.LBE335:
 237:../../libs/PolitekDSP/libs/libDaisy/../../libs/libDaisy/src/dev/mpr121.h ****     }
 217              		.loc 7 237 16 discriminator 2 view .LVU32
 218 0044 9DF81F10 		ldrb	r1, [sp, #31]	@ zero_extendqisi2
 219              	.LBE344:
 220              	.LBE350:
 221              	.LBB351:
 222              	.LBB352:
  74:../../libs/PolitekDSP/libs/libDaisy/../../libs/libDaisy/src/dev/mpr121.h ****                    config_.dev_addr, address, 1, data, size, 10);
 223              		.loc 7 74 42 discriminator 2 view .LVU33
 224 0048 5346     		mov	r3, r10
 225              	.LBE352:
 226              	.LBE351:
 227              	.LBB357:
 228              	.LBB345:
 229              	.LBB339:
 230              	.LBB337:
 231              		.loc 7 336 55 discriminator 2 view .LVU34
 232 004a 0028     		cmp	r0, #0
 233 004c 18BF     		it	ne
 234 004e 42F00102 		orrne	r2, r2, #1
 235              	.LBE337:
 236              	.LBE339:
 237              	.LBE345:
 238              	.LBE357:
 239              	.LBB358:
 240              	.LBB353:
ARM GAS  C:\Users\matte\AppData\Local\Temp\ccP67MDp.s 			page 18


  74:../../libs/PolitekDSP/libs/libDaisy/../../libs/libDaisy/src/dev/mpr121.h ****                    config_.dev_addr, address, 1, data, size, 10);
 241              		.loc 7 74 42 discriminator 2 view .LVU35
 242 0052 CDF80080 		str	r8, [sp]
 243              	.LBE353:
 244              	.LBE358:
 270:../../libs/PolitekDSP/libs/libDaisy/../../libs/libDaisy/src/dev/mpr121.h ****             uint8_t zero = 0x00;
 245              		.loc 7 270 26 discriminator 2 view .LVU36
 246 0056 8DF81E10 		strb	r1, [sp, #30]
 247              	.LBB359:
 248              	.LBB354:
  74:../../libs/PolitekDSP/libs/libDaisy/../../libs/libDaisy/src/dev/mpr121.h ****                    config_.dev_addr, address, 1, data, size, 10);
 249              		.loc 7 74 42 discriminator 2 view .LVU37
 250 005a 3046     		mov	r0, r6
 251              	.LVL6:
  74:../../libs/PolitekDSP/libs/libDaisy/../../libs/libDaisy/src/dev/mpr121.h ****                    config_.dev_addr, address, 1, data, size, 10);
 252              		.loc 7 74 42 discriminator 2 view .LVU38
 253              	.LBE354:
 254              	.LBE359:
 271:../../libs/PolitekDSP/libs/libDaisy/../../libs/libDaisy/src/dev/mpr121.h ****             // clear this register to set stop mode
 255              		.loc 7 271 21 discriminator 2 view .LVU39
 256 005c 8DF81F90 		strb	r9, [sp, #31]
 257              	.LBB360:
 258              	.LBB355:
  74:../../libs/PolitekDSP/libs/libDaisy/../../libs/libDaisy/src/dev/mpr121.h ****                    config_.dev_addr, address, 1, data, size, 10);
 259              		.loc 7 74 42 discriminator 2 view .LVU40
 260 0060 CDE901A5 		strd	r10, r5, [sp, #4]
 261              	.LBE355:
 262              	.LBE360:
 263              	.LBB361:
 264              	.LBB346:
 265              	.LBB340:
 266              	.LBB338:
 267              		.loc 7 336 55 discriminator 2 view .LVU41
 268 0064 84F83020 		strb	r2, [r4, #48]
 269              	.LVL7:
 270              		.loc 7 336 55 discriminator 2 view .LVU42
 271              	.LBE338:
 272              	.LBE340:
 273              	.LBE346:
 274              	.LBE361:
 275              	.LBB362:
 276              	.LBI351:
  71:../../libs/PolitekDSP/libs/libDaisy/../../libs/libDaisy/src/dev/mpr121.h ****     {
 277              		.loc 7 71 10 is_stmt 1 discriminator 2 view .LVU43
 278              	.LBB356:
  73:../../libs/PolitekDSP/libs/libDaisy/../../libs/libDaisy/src/dev/mpr121.h ****                != i2c_.WriteDataAtAddress(
 279              		.loc 7 73 9 discriminator 2 view .LVU44
  74:../../libs/PolitekDSP/libs/libDaisy/../../libs/libDaisy/src/dev/mpr121.h ****                    config_.dev_addr, address, 1, data, size, 10);
 280              		.loc 7 74 42 is_stmt 0 discriminator 2 view .LVU45
 281 0068 5E22     		movs	r2, #94
 282 006a 94F82C10 		ldrb	r1, [r4, #44]	@ zero_extendqisi2
 283 006e FFF7FEFF 		bl	_ZN5daisy9I2CHandle18WriteDataAtAddressEtttPhtm
 284              	.LVL8:
  74:../../libs/PolitekDSP/libs/libDaisy/../../libs/libDaisy/src/dev/mpr121.h ****                    config_.dev_addr, address, 1, data, size, 10);
 285              		.loc 7 74 42 discriminator 2 view .LVU46
 286              	.LBE356:
 287              	.LBE362:
ARM GAS  C:\Users\matte\AppData\Local\Temp\ccP67MDp.s 			page 19


 288              	.LBB363:
 289              	.LBI363:
 290              		.loc 7 336 10 is_stmt 1 discriminator 2 view .LVU47
 291              	.LBB364:
 292              		.loc 7 336 55 is_stmt 0 discriminator 2 view .LVU48
 293 0072 94F83010 		ldrb	r1, [r4, #48]	@ zero_extendqisi2
 294              	.LBE364:
 295              	.LBE363:
 296              	.LBE371:
 297              	.LBB372:
 298              	.LBB373:
  74:../../libs/PolitekDSP/libs/libDaisy/../../libs/libDaisy/src/dev/mpr121.h ****                    config_.dev_addr, address, 1, data, size, 10);
 299              		.loc 7 74 42 discriminator 2 view .LVU49
 300 0076 3A46     		mov	r2, r7
 301 0078 CDF800B0 		str	fp, [sp]
 302              	.LBE373:
 303              	.LBE372:
 304              	.LBB376:
 305              	.LBB367:
 306              	.LBB365:
 307              		.loc 7 336 55 discriminator 2 view .LVU50
 308 007c 4845     		cmp	r0, r9
 309 007e 18BF     		it	ne
 310 0080 41F00101 		orrne	r1, r1, #1
 311              	.LBE365:
 312              	.LBE367:
 313              	.LBE376:
 314              	.LBB377:
 315              	.LBB374:
  74:../../libs/PolitekDSP/libs/libDaisy/../../libs/libDaisy/src/dev/mpr121.h ****                    config_.dev_addr, address, 1, data, size, 10);
 316              		.loc 7 74 42 discriminator 2 view .LVU51
 317 0084 5346     		mov	r3, r10
 318 0086 3046     		mov	r0, r6
 319              	.LVL9:
  74:../../libs/PolitekDSP/libs/libDaisy/../../libs/libDaisy/src/dev/mpr121.h ****                    config_.dev_addr, address, 1, data, size, 10);
 320              		.loc 7 74 42 discriminator 2 view .LVU52
 321 0088 CDE901A5 		strd	r10, r5, [sp, #4]
 322              	.LBE374:
 323              	.LBE377:
 324              	.LBB378:
 325              	.LBB368:
 326              	.LBB366:
 327              		.loc 7 336 55 discriminator 2 view .LVU53
 328 008c 84F83010 		strb	r1, [r4, #48]
 329              	.LVL10:
 330              		.loc 7 336 55 discriminator 2 view .LVU54
 331              	.LBE366:
 332              	.LBE368:
 333              	.LBE378:
 334              	.LBB379:
 335              	.LBI372:
  71:../../libs/PolitekDSP/libs/libDaisy/../../libs/libDaisy/src/dev/mpr121.h ****     {
 336              		.loc 7 71 10 is_stmt 1 discriminator 2 view .LVU55
 337              	.LBB375:
  73:../../libs/PolitekDSP/libs/libDaisy/../../libs/libDaisy/src/dev/mpr121.h ****                != i2c_.WriteDataAtAddress(
 338              		.loc 7 73 9 discriminator 2 view .LVU56
  74:../../libs/PolitekDSP/libs/libDaisy/../../libs/libDaisy/src/dev/mpr121.h ****                    config_.dev_addr, address, 1, data, size, 10);
ARM GAS  C:\Users\matte\AppData\Local\Temp\ccP67MDp.s 			page 20


 339              		.loc 7 74 42 is_stmt 0 discriminator 2 view .LVU57
 340 0090 94F82C10 		ldrb	r1, [r4, #44]	@ zero_extendqisi2
 341 0094 FFF7FEFF 		bl	_ZN5daisy9I2CHandle18WriteDataAtAddressEtttPhtm
 342              	.LVL11:
  74:../../libs/PolitekDSP/libs/libDaisy/../../libs/libDaisy/src/dev/mpr121.h ****                    config_.dev_addr, address, 1, data, size, 10);
 343              		.loc 7 74 42 discriminator 2 view .LVU58
 344              	.LBE375:
 345              	.LBE379:
 346              	.LBB380:
 347              	.LBI380:
 348              		.loc 7 336 10 is_stmt 1 discriminator 2 view .LVU59
 349              	.LBB381:
 350              		.loc 7 336 55 is_stmt 0 discriminator 2 view .LVU60
 351 0098 94F83020 		ldrb	r2, [r4, #48]	@ zero_extendqisi2
 352              	.LBE381:
 353              	.LBE380:
 354              	.LBB384:
 355              	.LBB385:
  74:../../libs/PolitekDSP/libs/libDaisy/../../libs/libDaisy/src/dev/mpr121.h ****                    config_.dev_addr, address, 1, data, size, 10);
 356              		.loc 7 74 42 discriminator 2 view .LVU61
 357 009c 0DF11E03 		add	r3, sp, #30
 358              	.LBE385:
 359              	.LBE384:
 360              	.LBB388:
 361              	.LBB382:
 362              		.loc 7 336 55 discriminator 2 view .LVU62
 363 00a0 4845     		cmp	r0, r9
 364 00a2 18BF     		it	ne
 365 00a4 42F00102 		orrne	r2, r2, #1
 366              	.LBE382:
 367              	.LBE388:
 368              	.LBB389:
 369              	.LBB386:
  74:../../libs/PolitekDSP/libs/libDaisy/../../libs/libDaisy/src/dev/mpr121.h ****                    config_.dev_addr, address, 1, data, size, 10);
 370              		.loc 7 74 42 discriminator 2 view .LVU63
 371 00a8 3046     		mov	r0, r6
 372              	.LVL12:
  74:../../libs/PolitekDSP/libs/libDaisy/../../libs/libDaisy/src/dev/mpr121.h ****                    config_.dev_addr, address, 1, data, size, 10);
 373              		.loc 7 74 42 discriminator 2 view .LVU64
 374 00aa 0093     		str	r3, [sp]
 375 00ac 5346     		mov	r3, r10
 376 00ae CDE901A5 		strd	r10, r5, [sp, #4]
 377              	.LBE386:
 378              	.LBE389:
 379              	.LBB390:
 380              	.LBB383:
 381              		.loc 7 336 55 discriminator 2 view .LVU65
 382 00b2 84F83020 		strb	r2, [r4, #48]
 383              	.LVL13:
 384              		.loc 7 336 55 discriminator 2 view .LVU66
 385              	.LBE383:
 386              	.LBE390:
 387              	.LBB391:
 388              	.LBI384:
  71:../../libs/PolitekDSP/libs/libDaisy/../../libs/libDaisy/src/dev/mpr121.h ****     {
 389              		.loc 7 71 10 is_stmt 1 discriminator 2 view .LVU67
 390              	.LBB387:
ARM GAS  C:\Users\matte\AppData\Local\Temp\ccP67MDp.s 			page 21


  73:../../libs/PolitekDSP/libs/libDaisy/../../libs/libDaisy/src/dev/mpr121.h ****                != i2c_.WriteDataAtAddress(
 391              		.loc 7 73 9 discriminator 2 view .LVU68
  74:../../libs/PolitekDSP/libs/libDaisy/../../libs/libDaisy/src/dev/mpr121.h ****                    config_.dev_addr, address, 1, data, size, 10);
 392              		.loc 7 74 42 is_stmt 0 discriminator 2 view .LVU69
 393 00b6 5E22     		movs	r2, #94
 394 00b8 94F82C10 		ldrb	r1, [r4, #44]	@ zero_extendqisi2
 395 00bc FFF7FEFF 		bl	_ZN5daisy9I2CHandle18WriteDataAtAddressEtttPhtm
 396              	.LVL14:
  74:../../libs/PolitekDSP/libs/libDaisy/../../libs/libDaisy/src/dev/mpr121.h ****                    config_.dev_addr, address, 1, data, size, 10);
 397              		.loc 7 74 42 discriminator 2 view .LVU70
 398              	.LBE387:
 399              	.LBE391:
 400              	.LBB392:
 401              	.LBI392:
 402              		.loc 7 336 10 is_stmt 1 discriminator 2 view .LVU71
 403              	.LBB393:
 404              		.loc 7 336 55 is_stmt 0 discriminator 2 view .LVU72
 405 00c0 94F83020 		ldrb	r2, [r4, #48]	@ zero_extendqisi2
 406 00c4 0599     		ldr	r1, [sp, #20]
 407              	.LBE393:
 408              	.LBE392:
 409              	.LBE400:
 410              	.LBE404:
 411              	.LBB405:
 412              	.LBB406:
 413              	.LBB407:
 414              	.LBB408:
 415              	.LBB409:
 416              	.LBB410:
 417              	.LBB411:
  66:../../libs/PolitekDSP/libs/libDaisy/../../libs/libDaisy/src/dev/mpr121.h ****                    config_.dev_addr, address, 1, data, size, 10);
 418              		.loc 7 66 41 discriminator 2 view .LVU73
 419 00c6 5346     		mov	r3, r10
 420              	.LBE411:
 421              	.LBE410:
 422              	.LBE409:
 423              	.LBE408:
 424              	.LBE407:
 425              	.LBE406:
 426              	.LBE405:
 427              	.LBB481:
 428              	.LBB401:
 429              	.LBB396:
 430              	.LBB394:
 431              		.loc 7 336 55 discriminator 2 view .LVU74
 432 00c8 4845     		cmp	r0, r9
 433 00ca 18BF     		it	ne
 434 00cc 42F00102 		orrne	r2, r2, #1
 435              	.LBE394:
 436              	.LBE396:
 437              	.LBE401:
 438              	.LBE481:
 439              	.LBB482:
 440              	.LBB476:
 441              	.LBB446:
 442              	.LBB426:
 443              	.LBB422:
ARM GAS  C:\Users\matte\AppData\Local\Temp\ccP67MDp.s 			page 22


 444              	.LBB414:
 445              	.LBB412:
  66:../../libs/PolitekDSP/libs/libDaisy/../../libs/libDaisy/src/dev/mpr121.h ****                    config_.dev_addr, address, 1, data, size, 10);
 446              		.loc 7 66 41 discriminator 2 view .LVU75
 447 00d0 CDF80080 		str	r8, [sp]
 448 00d4 8DF81D10 		strb	r1, [sp, #29]
 449 00d8 3046     		mov	r0, r6
 450              	.LVL15:
  66:../../libs/PolitekDSP/libs/libDaisy/../../libs/libDaisy/src/dev/mpr121.h ****                    config_.dev_addr, address, 1, data, size, 10);
 451              		.loc 7 66 41 discriminator 2 view .LVU76
 452 00da CDE901A5 		strd	r10, r5, [sp, #4]
 453              	.LBE412:
 454              	.LBE414:
 455              	.LBE422:
 456              	.LBE426:
 457              	.LBE446:
 458              	.LBE476:
 459              	.LBE482:
 460              	.LBB483:
 461              	.LBB402:
 462              	.LBB397:
 463              	.LBB395:
 464              		.loc 7 336 55 discriminator 2 view .LVU77
 465 00de 84F83020 		strb	r2, [r4, #48]
 466              	.LVL16:
 467              		.loc 7 336 55 discriminator 2 view .LVU78
 468              	.LBE395:
 469              	.LBE397:
 470              	.LBE402:
 471              	.LBE483:
 472              	.LBB484:
 473              	.LBI405:
 257:../../libs/PolitekDSP/libs/libDaisy/../../libs/libDaisy/src/dev/mpr121.h ****     {
 474              		.loc 7 257 10 is_stmt 1 discriminator 2 view .LVU79
 475              	.LBB477:
 476              	.LBB447:
 477              	.LBB427:
 478              	.LBI408:
 232:../../libs/PolitekDSP/libs/libDaisy/../../libs/libDaisy/src/dev/mpr121.h ****     {
 479              		.loc 7 232 13 discriminator 2 view .LVU80
 480              	.LBB423:
 481              	.LBB415:
 482              	.LBI410:
  63:../../libs/PolitekDSP/libs/libDaisy/../../libs/libDaisy/src/dev/mpr121.h ****     {
 483              		.loc 7 63 10 discriminator 2 view .LVU81
 484              	.LBB413:
  65:../../libs/PolitekDSP/libs/libDaisy/../../libs/libDaisy/src/dev/mpr121.h ****                != i2c_.ReadDataAtAddress(
 485              		.loc 7 65 9 discriminator 2 view .LVU82
  66:../../libs/PolitekDSP/libs/libDaisy/../../libs/libDaisy/src/dev/mpr121.h ****                    config_.dev_addr, address, 1, data, size, 10);
 486              		.loc 7 66 41 is_stmt 0 discriminator 2 view .LVU83
 487 00e2 5E22     		movs	r2, #94
 488 00e4 94F82C10 		ldrb	r1, [r4, #44]	@ zero_extendqisi2
 489              	.LVL17:
  66:../../libs/PolitekDSP/libs/libDaisy/../../libs/libDaisy/src/dev/mpr121.h ****                    config_.dev_addr, address, 1, data, size, 10);
 490              		.loc 7 66 41 discriminator 2 view .LVU84
 491 00e8 FFF7FEFF 		bl	_ZN5daisy9I2CHandle17ReadDataAtAddressEtttPhtm
 492              	.LVL18:
ARM GAS  C:\Users\matte\AppData\Local\Temp\ccP67MDp.s 			page 23


  66:../../libs/PolitekDSP/libs/libDaisy/../../libs/libDaisy/src/dev/mpr121.h ****                    config_.dev_addr, address, 1, data, size, 10);
 493              		.loc 7 66 41 discriminator 2 view .LVU85
 494              	.LBE413:
 495              	.LBE415:
 496              	.LBB416:
 497              	.LBI416:
 498              		.loc 7 336 10 is_stmt 1 discriminator 2 view .LVU86
 499              	.LBB417:
 500              		.loc 7 336 55 is_stmt 0 discriminator 2 view .LVU87
 501 00ec 94F83020 		ldrb	r2, [r4, #48]	@ zero_extendqisi2
 502              	.LBE417:
 503              	.LBE416:
 237:../../libs/PolitekDSP/libs/libDaisy/../../libs/libDaisy/src/dev/mpr121.h ****     }
 504              		.loc 7 237 16 discriminator 2 view .LVU88
 505 00f0 9DF81F10 		ldrb	r1, [sp, #31]	@ zero_extendqisi2
 506              	.LBE423:
 507              	.LBE427:
 508              	.LBB428:
 509              	.LBB429:
  74:../../libs/PolitekDSP/libs/libDaisy/../../libs/libDaisy/src/dev/mpr121.h ****                    config_.dev_addr, address, 1, data, size, 10);
 510              		.loc 7 74 42 discriminator 2 view .LVU89
 511 00f4 5346     		mov	r3, r10
 512              	.LBE429:
 513              	.LBE428:
 514              	.LBB434:
 515              	.LBB424:
 516              	.LBB420:
 517              	.LBB418:
 518              		.loc 7 336 55 discriminator 2 view .LVU90
 519 00f6 4845     		cmp	r0, r9
 520 00f8 18BF     		it	ne
 521 00fa 42F00102 		orrne	r2, r2, #1
 522              	.LBE418:
 523              	.LBE420:
 524              	.LBE424:
 525              	.LBE434:
 526              	.LBB435:
 527              	.LBB430:
  74:../../libs/PolitekDSP/libs/libDaisy/../../libs/libDaisy/src/dev/mpr121.h ****                    config_.dev_addr, address, 1, data, size, 10);
 528              		.loc 7 74 42 discriminator 2 view .LVU91
 529 00fe CDF80080 		str	r8, [sp]
 530              	.LBE430:
 531              	.LBE435:
 270:../../libs/PolitekDSP/libs/libDaisy/../../libs/libDaisy/src/dev/mpr121.h ****             uint8_t zero = 0x00;
 532              		.loc 7 270 26 discriminator 2 view .LVU92
 533 0102 8DF81E10 		strb	r1, [sp, #30]
 534              	.LBB436:
 535              	.LBB431:
  74:../../libs/PolitekDSP/libs/libDaisy/../../libs/libDaisy/src/dev/mpr121.h ****                    config_.dev_addr, address, 1, data, size, 10);
 536              		.loc 7 74 42 discriminator 2 view .LVU93
 537 0106 3046     		mov	r0, r6
 538              	.LVL19:
  74:../../libs/PolitekDSP/libs/libDaisy/../../libs/libDaisy/src/dev/mpr121.h ****                    config_.dev_addr, address, 1, data, size, 10);
 539              		.loc 7 74 42 discriminator 2 view .LVU94
 540              	.LBE431:
 541              	.LBE436:
 271:../../libs/PolitekDSP/libs/libDaisy/../../libs/libDaisy/src/dev/mpr121.h ****             // clear this register to set stop mode
ARM GAS  C:\Users\matte\AppData\Local\Temp\ccP67MDp.s 			page 24


 542              		.loc 7 271 21 discriminator 2 view .LVU95
 543 0108 8DF81F90 		strb	r9, [sp, #31]
 544              	.LBB437:
 545              	.LBB432:
  74:../../libs/PolitekDSP/libs/libDaisy/../../libs/libDaisy/src/dev/mpr121.h ****                    config_.dev_addr, address, 1, data, size, 10);
 546              		.loc 7 74 42 discriminator 2 view .LVU96
 547 010c CDE901A5 		strd	r10, r5, [sp, #4]
 548              	.LBE432:
 549              	.LBE437:
 550              	.LBB438:
 551              	.LBB425:
 552              	.LBB421:
 553              	.LBB419:
 554              		.loc 7 336 55 discriminator 2 view .LVU97
 555 0110 84F83020 		strb	r2, [r4, #48]
 556              	.LVL20:
 557              		.loc 7 336 55 discriminator 2 view .LVU98
 558              	.LBE419:
 559              	.LBE421:
 560              	.LBE425:
 561              	.LBE438:
 562              	.LBB439:
 563              	.LBI428:
  71:../../libs/PolitekDSP/libs/libDaisy/../../libs/libDaisy/src/dev/mpr121.h ****     {
 564              		.loc 7 71 10 is_stmt 1 discriminator 2 view .LVU99
 565              	.LBB433:
  73:../../libs/PolitekDSP/libs/libDaisy/../../libs/libDaisy/src/dev/mpr121.h ****                != i2c_.WriteDataAtAddress(
 566              		.loc 7 73 9 discriminator 2 view .LVU100
  74:../../libs/PolitekDSP/libs/libDaisy/../../libs/libDaisy/src/dev/mpr121.h ****                    config_.dev_addr, address, 1, data, size, 10);
 567              		.loc 7 74 42 is_stmt 0 discriminator 2 view .LVU101
 568 0114 5E22     		movs	r2, #94
 569 0116 94F82C10 		ldrb	r1, [r4, #44]	@ zero_extendqisi2
 570 011a FFF7FEFF 		bl	_ZN5daisy9I2CHandle18WriteDataAtAddressEtttPhtm
 571              	.LVL21:
  74:../../libs/PolitekDSP/libs/libDaisy/../../libs/libDaisy/src/dev/mpr121.h ****                    config_.dev_addr, address, 1, data, size, 10);
 572              		.loc 7 74 42 discriminator 2 view .LVU102
 573              	.LBE433:
 574              	.LBE439:
 575              	.LBB440:
 576              	.LBI440:
 577              		.loc 7 336 10 is_stmt 1 discriminator 2 view .LVU103
 578              	.LBB441:
 579              		.loc 7 336 55 is_stmt 0 discriminator 2 view .LVU104
 580 011e 94F83010 		ldrb	r1, [r4, #48]	@ zero_extendqisi2
 581              	.LBE441:
 582              	.LBE440:
 583              	.LBE447:
 584              	.LBB448:
 585              	.LBB449:
  74:../../libs/PolitekDSP/libs/libDaisy/../../libs/libDaisy/src/dev/mpr121.h ****                    config_.dev_addr, address, 1, data, size, 10);
 586              		.loc 7 74 42 discriminator 2 view .LVU105
 587 0122 07EB0A02 		add	r2, r7, r10
 588 0126 CDF800B0 		str	fp, [sp]
 589              	.LBE449:
 590              	.LBE448:
 591              	.LBB454:
 592              	.LBB444:
ARM GAS  C:\Users\matte\AppData\Local\Temp\ccP67MDp.s 			page 25


 593              	.LBB442:
 594              		.loc 7 336 55 discriminator 2 view .LVU106
 595 012a 4845     		cmp	r0, r9
 596 012c 18BF     		it	ne
 597 012e 41F00101 		orrne	r1, r1, #1
 598              	.LBE442:
 599              	.LBE444:
 600              	.LBE454:
 601              	.LBB455:
 602              	.LBB450:
  74:../../libs/PolitekDSP/libs/libDaisy/../../libs/libDaisy/src/dev/mpr121.h ****                    config_.dev_addr, address, 1, data, size, 10);
 603              		.loc 7 74 42 discriminator 2 view .LVU107
 604 0132 5346     		mov	r3, r10
 605 0134 92B2     		uxth	r2, r2
 606 0136 3046     		mov	r0, r6
 607              	.LVL22:
  74:../../libs/PolitekDSP/libs/libDaisy/../../libs/libDaisy/src/dev/mpr121.h ****                    config_.dev_addr, address, 1, data, size, 10);
 608              		.loc 7 74 42 discriminator 2 view .LVU108
 609              	.LBE450:
 610              	.LBE455:
 611              	.LBE477:
 612              	.LBE484:
 181:../../libs/PolitekDSP/libs/libDaisy/../../libs/libDaisy/src/dev/mpr121.h ****         {
 613              		.loc 7 181 30 discriminator 2 view .LVU109
 614 0138 0237     		adds	r7, r7, #2
 615              	.LVL23:
 616              	.LBB485:
 617              	.LBB478:
 618              	.LBB456:
 619              	.LBB451:
  74:../../libs/PolitekDSP/libs/libDaisy/../../libs/libDaisy/src/dev/mpr121.h ****                    config_.dev_addr, address, 1, data, size, 10);
 620              		.loc 7 74 42 discriminator 2 view .LVU110
 621 013a CDE901A5 		strd	r10, r5, [sp, #4]
 622              	.LBE451:
 623              	.LBE456:
 624              	.LBB457:
 625              	.LBB445:
 626              	.LBB443:
 627              		.loc 7 336 55 discriminator 2 view .LVU111
 628 013e 84F83010 		strb	r1, [r4, #48]
 629              	.LVL24:
 630              		.loc 7 336 55 discriminator 2 view .LVU112
 631              	.LBE443:
 632              	.LBE445:
 633              	.LBE457:
 634              	.LBB458:
 635              	.LBI448:
  71:../../libs/PolitekDSP/libs/libDaisy/../../libs/libDaisy/src/dev/mpr121.h ****     {
 636              		.loc 7 71 10 is_stmt 1 discriminator 2 view .LVU113
 637              	.LBB452:
  73:../../libs/PolitekDSP/libs/libDaisy/../../libs/libDaisy/src/dev/mpr121.h ****                != i2c_.WriteDataAtAddress(
 638              		.loc 7 73 9 discriminator 2 view .LVU114
 639              	.LBE452:
 640              	.LBE458:
 641              	.LBE478:
 642              	.LBE485:
 181:../../libs/PolitekDSP/libs/libDaisy/../../libs/libDaisy/src/dev/mpr121.h ****         {
ARM GAS  C:\Users\matte\AppData\Local\Temp\ccP67MDp.s 			page 26


 643              		.loc 7 181 30 is_stmt 0 discriminator 2 view .LVU115
 644 0142 BFB2     		uxth	r7, r7
 645              	.LBB486:
 646              	.LBB479:
 647              	.LBB459:
 648              	.LBB453:
  74:../../libs/PolitekDSP/libs/libDaisy/../../libs/libDaisy/src/dev/mpr121.h ****                    config_.dev_addr, address, 1, data, size, 10);
 649              		.loc 7 74 42 discriminator 2 view .LVU116
 650 0144 94F82C10 		ldrb	r1, [r4, #44]	@ zero_extendqisi2
 651 0148 FFF7FEFF 		bl	_ZN5daisy9I2CHandle18WriteDataAtAddressEtttPhtm
 652              	.LVL25:
  74:../../libs/PolitekDSP/libs/libDaisy/../../libs/libDaisy/src/dev/mpr121.h ****                    config_.dev_addr, address, 1, data, size, 10);
 653              		.loc 7 74 42 discriminator 2 view .LVU117
 654              	.LBE453:
 655              	.LBE459:
 656              	.LBB460:
 657              	.LBI460:
 658              		.loc 7 336 10 is_stmt 1 discriminator 2 view .LVU118
 659              	.LBB461:
 660              		.loc 7 336 55 is_stmt 0 discriminator 2 view .LVU119
 661 014c 94F83020 		ldrb	r2, [r4, #48]	@ zero_extendqisi2
 662              	.LBE461:
 663              	.LBE460:
 664              	.LBB464:
 665              	.LBB465:
  74:../../libs/PolitekDSP/libs/libDaisy/../../libs/libDaisy/src/dev/mpr121.h ****                    config_.dev_addr, address, 1, data, size, 10);
 666              		.loc 7 74 42 discriminator 2 view .LVU120
 667 0150 5346     		mov	r3, r10
 668 0152 CDE901A5 		strd	r10, r5, [sp, #4]
 669              	.LBE465:
 670              	.LBE464:
 671              	.LBB468:
 672              	.LBB462:
 673              		.loc 7 336 55 discriminator 2 view .LVU121
 674 0156 4845     		cmp	r0, r9
 675 0158 0CBF     		ite	eq
 676 015a 1546     		moveq	r5, r2
 677 015c 42F00105 		orrne	r5, r2, #1
 678              	.LBE462:
 679              	.LBE468:
 680              	.LBB469:
 681              	.LBB466:
  74:../../libs/PolitekDSP/libs/libDaisy/../../libs/libDaisy/src/dev/mpr121.h ****                    config_.dev_addr, address, 1, data, size, 10);
 682              		.loc 7 74 42 discriminator 2 view .LVU122
 683 0160 94F82C10 		ldrb	r1, [r4, #44]	@ zero_extendqisi2
 684 0164 5E22     		movs	r2, #94
 685 0166 3046     		mov	r0, r6
 686              	.LVL26:
  74:../../libs/PolitekDSP/libs/libDaisy/../../libs/libDaisy/src/dev/mpr121.h ****                    config_.dev_addr, address, 1, data, size, 10);
 687              		.loc 7 74 42 discriminator 2 view .LVU123
 688              	.LBE466:
 689              	.LBE469:
 690              	.LBB470:
 691              	.LBB463:
 692              		.loc 7 336 55 discriminator 2 view .LVU124
 693 0168 84F83050 		strb	r5, [r4, #48]
 694              	.LVL27:
ARM GAS  C:\Users\matte\AppData\Local\Temp\ccP67MDp.s 			page 27


 695              		.loc 7 336 55 discriminator 2 view .LVU125
 696              	.LBE463:
 697              	.LBE470:
 698              	.LBB471:
 699              	.LBI464:
  71:../../libs/PolitekDSP/libs/libDaisy/../../libs/libDaisy/src/dev/mpr121.h ****     {
 700              		.loc 7 71 10 is_stmt 1 discriminator 2 view .LVU126
 701              	.LBB467:
  73:../../libs/PolitekDSP/libs/libDaisy/../../libs/libDaisy/src/dev/mpr121.h ****                != i2c_.WriteDataAtAddress(
 702              		.loc 7 73 9 discriminator 2 view .LVU127
  74:../../libs/PolitekDSP/libs/libDaisy/../../libs/libDaisy/src/dev/mpr121.h ****                    config_.dev_addr, address, 1, data, size, 10);
 703              		.loc 7 74 42 is_stmt 0 discriminator 2 view .LVU128
 704 016c 0DF11E05 		add	r5, sp, #30
 705              	.LVL28:
  74:../../libs/PolitekDSP/libs/libDaisy/../../libs/libDaisy/src/dev/mpr121.h ****                    config_.dev_addr, address, 1, data, size, 10);
 706              		.loc 7 74 42 discriminator 2 view .LVU129
 707 0170 0095     		str	r5, [sp]
 708 0172 FFF7FEFF 		bl	_ZN5daisy9I2CHandle18WriteDataAtAddressEtttPhtm
 709              	.LVL29:
  74:../../libs/PolitekDSP/libs/libDaisy/../../libs/libDaisy/src/dev/mpr121.h ****                    config_.dev_addr, address, 1, data, size, 10);
 710              		.loc 7 74 42 discriminator 2 view .LVU130
 711              	.LBE467:
 712              	.LBE471:
 713              	.LBB472:
 714              	.LBI472:
 715              		.loc 7 336 10 is_stmt 1 discriminator 2 view .LVU131
 716              	.LBB473:
 717              		.loc 7 336 55 is_stmt 0 discriminator 2 view .LVU132
 718 0176 94F83030 		ldrb	r3, [r4, #48]	@ zero_extendqisi2
 719 017a 4845     		cmp	r0, r9
 720 017c 18BF     		it	ne
 721 017e 43F00103 		orrne	r3, r3, #1
 722              	.LBE473:
 723              	.LBE472:
 724              	.LBE479:
 725              	.LBE486:
 181:../../libs/PolitekDSP/libs/libDaisy/../../libs/libDaisy/src/dev/mpr121.h ****         {
 726              		.loc 7 181 30 discriminator 2 view .LVU133
 727 0182 592F     		cmp	r7, #89
 728              	.LBB487:
 729              	.LBB480:
 730              	.LBB475:
 731              	.LBB474:
 732              		.loc 7 336 55 discriminator 2 view .LVU134
 733 0184 84F83030 		strb	r3, [r4, #48]
 734              	.LVL30:
 735              		.loc 7 336 55 discriminator 2 view .LVU135
 736              	.LBE474:
 737              	.LBE475:
 738              	.LBE480:
 739              	.LBE487:
 181:../../libs/PolitekDSP/libs/libDaisy/../../libs/libDaisy/src/dev/mpr121.h ****         {
 740              		.loc 7 181 9 is_stmt 1 discriminator 2 view .LVU136
 181:../../libs/PolitekDSP/libs/libDaisy/../../libs/libDaisy/src/dev/mpr121.h ****         {
 741              		.loc 7 181 30 discriminator 2 view .LVU137
 742 0188 7FF447AF 		bne	.L4
 743              	.LBE490:
ARM GAS  C:\Users\matte\AppData\Local\Temp\ccP67MDp.s 			page 28


 186:../../libs/PolitekDSP/libs/libDaisy/../../libs/libDaisy/src/dev/mpr121.h **** 
 744              		.loc 7 186 5 is_stmt 0 view .LVU138
 745 018c 09B0     		add	sp, sp, #36
 746              		.cfi_def_cfa_offset 36
 747              		@ sp needed
 748 018e BDE8F08F 		pop	{r4, r5, r6, r7, r8, r9, r10, fp, pc}
 186:../../libs/PolitekDSP/libs/libDaisy/../../libs/libDaisy/src/dev/mpr121.h **** 
 749              		.loc 7 186 5 view .LVU139
 750              		.cfi_endproc
 751              	.LFE5219:
 753 0192 00BF     		.section	.text._ZN5daisy6Mpr121INS_18Mpr121I2CTransportEE13WriteRegisterEhh,"axG",%progbits,_ZN5da
 754              		.align	1
 755              		.p2align 2,,3
 756              		.weak	_ZN5daisy6Mpr121INS_18Mpr121I2CTransportEE13WriteRegisterEhh
 757              		.syntax unified
 758              		.thumb
 759              		.thumb_func
 760              		.fpu fpv5-d16
 762              	_ZN5daisy6Mpr121INS_18Mpr121I2CTransportEE13WriteRegisterEhh:
 763              	.LVL31:
 764              	.LFB5340:
 257:../../libs/PolitekDSP/libs/libDaisy/../../libs/libDaisy/src/dev/mpr121.h ****     {
 765              		.loc 7 257 10 is_stmt 1 view -0
 766              		.cfi_startproc
 767              		@ args = 0, pretend = 0, frame = 16
 768              		@ frame_needed = 0, uses_anonymous_args = 0
 261:../../libs/PolitekDSP/libs/libDaisy/../../libs/libDaisy/src/dev/mpr121.h ****         {
 769              		.loc 7 261 50 is_stmt 0 view .LVU141
 770 0000 A1F17303 		sub	r3, r1, #115
 257:../../libs/PolitekDSP/libs/libDaisy/../../libs/libDaisy/src/dev/mpr121.h ****     {
 771              		.loc 7 257 10 view .LVU142
 772 0004 2DE9F047 		push	{r4, r5, r6, r7, r8, r9, r10, lr}
 773              		.cfi_def_cfa_offset 32
 774              		.cfi_offset 4, -32
 775              		.cfi_offset 5, -28
 776              		.cfi_offset 6, -24
 777              		.cfi_offset 7, -20
 778              		.cfi_offset 8, -16
 779              		.cfi_offset 9, -12
 780              		.cfi_offset 10, -8
 781              		.cfi_offset 14, -4
 261:../../libs/PolitekDSP/libs/libDaisy/../../libs/libDaisy/src/dev/mpr121.h ****         {
 782              		.loc 7 261 9 view .LVU143
 783 0008 072B     		cmp	r3, #7
 257:../../libs/PolitekDSP/libs/libDaisy/../../libs/libDaisy/src/dev/mpr121.h ****     {
 784              		.loc 7 257 10 view .LVU144
 785 000a 88B0     		sub	sp, sp, #32
 786              		.cfi_def_cfa_offset 64
 257:../../libs/PolitekDSP/libs/libDaisy/../../libs/libDaisy/src/dev/mpr121.h ****     {
 787              		.loc 7 257 10 view .LVU145
 788 000c 0D46     		mov	r5, r1
 789 000e 0446     		mov	r4, r0
 790 0010 8DF81720 		strb	r2, [sp, #23]
 261:../../libs/PolitekDSP/libs/libDaisy/../../libs/libDaisy/src/dev/mpr121.h ****         {
 791              		.loc 7 261 9 view .LVU146
 792 0014 08D9     		bls	.L8
 793 0016 A1F15E08 		sub	r8, r1, #94
ARM GAS  C:\Users\matte\AppData\Local\Temp\ccP67MDp.s 			page 29


 794 001a B8FA88F8 		clz	r8, r8
 795 001e 4FEA5818 		lsr	r8, r8, #5
 796 0022 B8F1000F 		cmp	r8, #0
 797 0026 18D0     		beq	.L11
 798              	.L8:
 799              	.LVL32:
 800              	.LBB519:
 801              	.LBI519:
  71:../../libs/PolitekDSP/libs/libDaisy/../../libs/libDaisy/src/dev/mpr121.h ****     {
 802              		.loc 7 71 10 is_stmt 1 view .LVU147
 803              	.LBB520:
  73:../../libs/PolitekDSP/libs/libDaisy/../../libs/libDaisy/src/dev/mpr121.h ****                != i2c_.WriteDataAtAddress(
 804              		.loc 7 73 9 view .LVU148
  74:../../libs/PolitekDSP/libs/libDaisy/../../libs/libDaisy/src/dev/mpr121.h ****                    config_.dev_addr, address, 1, data, size, 10);
 805              		.loc 7 74 42 is_stmt 0 view .LVU149
 806 0028 0123     		movs	r3, #1
 807 002a 0DF11701 		add	r1, sp, #23
 808              	.LVL33:
  74:../../libs/PolitekDSP/libs/libDaisy/../../libs/libDaisy/src/dev/mpr121.h ****                    config_.dev_addr, address, 1, data, size, 10);
 809              		.loc 7 74 42 view .LVU150
 810 002e 0A20     		movs	r0, #10
 811              	.LVL34:
  74:../../libs/PolitekDSP/libs/libDaisy/../../libs/libDaisy/src/dev/mpr121.h ****                    config_.dev_addr, address, 1, data, size, 10);
 812              		.loc 7 74 42 view .LVU151
 813 0030 2A46     		mov	r2, r5
 814              	.LVL35:
  74:../../libs/PolitekDSP/libs/libDaisy/../../libs/libDaisy/src/dev/mpr121.h ****                    config_.dev_addr, address, 1, data, size, 10);
 815              		.loc 7 74 42 view .LVU152
 816 0032 0091     		str	r1, [sp]
 817 0034 CDE90130 		strd	r3, r0, [sp, #4]
 818 0038 04F11800 		add	r0, r4, #24
 819              	.LVL36:
  74:../../libs/PolitekDSP/libs/libDaisy/../../libs/libDaisy/src/dev/mpr121.h ****                    config_.dev_addr, address, 1, data, size, 10);
 820              		.loc 7 74 42 view .LVU153
 821 003c 94F82C10 		ldrb	r1, [r4, #44]	@ zero_extendqisi2
 822              	.LVL37:
  74:../../libs/PolitekDSP/libs/libDaisy/../../libs/libDaisy/src/dev/mpr121.h ****                    config_.dev_addr, address, 1, data, size, 10);
 823              		.loc 7 74 42 view .LVU154
 824 0040 FFF7FEFF 		bl	_ZN5daisy9I2CHandle18WriteDataAtAddressEtttPhtm
 825              	.LVL38:
  74:../../libs/PolitekDSP/libs/libDaisy/../../libs/libDaisy/src/dev/mpr121.h ****                    config_.dev_addr, address, 1, data, size, 10);
 826              		.loc 7 74 42 view .LVU155
 827              	.LBE520:
 828              	.LBE519:
 829              	.LBB525:
 830              	.LBI525:
 831              		.loc 7 336 10 is_stmt 1 view .LVU156
 832              	.LBB526:
 833              		.loc 7 336 55 is_stmt 0 view .LVU157
 834 0044 94F83030 		ldrb	r3, [r4, #48]	@ zero_extendqisi2
 835 0048 0028     		cmp	r0, #0
 836 004a 18BF     		it	ne
 837 004c 43F00103 		orrne	r3, r3, #1
 838 0050 84F83030 		strb	r3, [r4, #48]
 839              	.LVL39:
 840              		.loc 7 336 55 view .LVU158
 841              	.LBE526:
ARM GAS  C:\Users\matte\AppData\Local\Temp\ccP67MDp.s 			page 30


 842              	.LBE525:
 285:../../libs/PolitekDSP/libs/libDaisy/../../libs/libDaisy/src/dev/mpr121.h **** 
 843              		.loc 7 285 5 view .LVU159
 844 0054 08B0     		add	sp, sp, #32
 845              		.cfi_remember_state
 846              		.cfi_def_cfa_offset 32
 847              		@ sp needed
 848 0056 BDE8F087 		pop	{r4, r5, r6, r7, r8, r9, r10, pc}
 849              	.LVL40:
 850              	.L11:
 851              		.cfi_restore_state
 852              	.LBB529:
 853              	.LBB530:
 854              	.LBI530:
 232:../../libs/PolitekDSP/libs/libDaisy/../../libs/libDaisy/src/dev/mpr121.h ****     {
 855              		.loc 7 232 13 is_stmt 1 view .LVU160
 856              	.LBB531:
 857              	.LBB532:
 858              	.LBI532:
  63:../../libs/PolitekDSP/libs/libDaisy/../../libs/libDaisy/src/dev/mpr121.h ****     {
 859              		.loc 7 63 10 view .LVU161
 860              	.LBB533:
  65:../../libs/PolitekDSP/libs/libDaisy/../../libs/libDaisy/src/dev/mpr121.h ****                != i2c_.ReadDataAtAddress(
 861              		.loc 7 65 9 view .LVU162
  66:../../libs/PolitekDSP/libs/libDaisy/../../libs/libDaisy/src/dev/mpr121.h ****                    config_.dev_addr, address, 1, data, size, 10);
 862              		.loc 7 66 41 is_stmt 0 view .LVU163
 863 005a 0126     		movs	r6, #1
 864 005c 00F11809 		add	r9, r0, #24
 865              	.LVL41:
  66:../../libs/PolitekDSP/libs/libDaisy/../../libs/libDaisy/src/dev/mpr121.h ****                    config_.dev_addr, address, 1, data, size, 10);
 866              		.loc 7 66 41 view .LVU164
 867 0060 4FF00A0A 		mov	r10, #10
 868 0064 0DF11F07 		add	r7, sp, #31
 869              	.LVL42:
  66:../../libs/PolitekDSP/libs/libDaisy/../../libs/libDaisy/src/dev/mpr121.h ****                    config_.dev_addr, address, 1, data, size, 10);
 870              		.loc 7 66 41 view .LVU165
 871 0068 3346     		mov	r3, r6
 872 006a 5E22     		movs	r2, #94
 873              	.LVL43:
  66:../../libs/PolitekDSP/libs/libDaisy/../../libs/libDaisy/src/dev/mpr121.h ****                    config_.dev_addr, address, 1, data, size, 10);
 874              		.loc 7 66 41 view .LVU166
 875 006c 0097     		str	r7, [sp]
 876 006e CDE9016A 		strd	r6, r10, [sp, #4]
 877 0072 90F82C10 		ldrb	r1, [r0, #44]	@ zero_extendqisi2
 878              	.LVL44:
  66:../../libs/PolitekDSP/libs/libDaisy/../../libs/libDaisy/src/dev/mpr121.h ****                    config_.dev_addr, address, 1, data, size, 10);
 879              		.loc 7 66 41 view .LVU167
 880 0076 4846     		mov	r0, r9
 881              	.LVL45:
  66:../../libs/PolitekDSP/libs/libDaisy/../../libs/libDaisy/src/dev/mpr121.h ****                    config_.dev_addr, address, 1, data, size, 10);
 882              		.loc 7 66 41 view .LVU168
 883 0078 FFF7FEFF 		bl	_ZN5daisy9I2CHandle17ReadDataAtAddressEtttPhtm
 884              	.LVL46:
  66:../../libs/PolitekDSP/libs/libDaisy/../../libs/libDaisy/src/dev/mpr121.h ****                    config_.dev_addr, address, 1, data, size, 10);
 885              		.loc 7 66 41 view .LVU169
 886              	.LBE533:
 887              	.LBE532:
ARM GAS  C:\Users\matte\AppData\Local\Temp\ccP67MDp.s 			page 31


 888              	.LBB534:
 889              	.LBI534:
 890              		.loc 7 336 10 is_stmt 1 view .LVU170
 891              	.LBE534:
 892              	.LBE531:
 893              	.LBE530:
 894              	.LBB544:
 895              	.LBB545:
  74:../../libs/PolitekDSP/libs/libDaisy/../../libs/libDaisy/src/dev/mpr121.h ****                    config_.dev_addr, address, 1, data, size, 10);
 896              		.loc 7 74 42 is_stmt 0 view .LVU171
 897 007c 0097     		str	r7, [sp]
 898 007e 5E22     		movs	r2, #94
 899 0080 CDE9016A 		strd	r6, r10, [sp, #4]
 900              	.LBE545:
 901              	.LBE544:
 902              	.LBB550:
 903              	.LBB541:
 904              	.LBB538:
 905              	.LBB535:
 906              		.loc 7 336 55 view .LVU172
 907 0084 94F83030 		ldrb	r3, [r4, #48]	@ zero_extendqisi2
 908              	.LBE535:
 909              	.LBE538:
 910              	.LBE541:
 911              	.LBE550:
 912              	.LBB551:
 913              	.LBB546:
  74:../../libs/PolitekDSP/libs/libDaisy/../../libs/libDaisy/src/dev/mpr121.h ****                    config_.dev_addr, address, 1, data, size, 10);
 914              		.loc 7 74 42 view .LVU173
 915 0088 94F82C10 		ldrb	r1, [r4, #44]	@ zero_extendqisi2
 916              	.LBE546:
 917              	.LBE551:
 918              	.LBB552:
 919              	.LBB542:
 920              	.LBB539:
 921              	.LBB536:
 922              		.loc 7 336 55 view .LVU174
 923 008c 0028     		cmp	r0, #0
 924 008e 18BF     		it	ne
 925 0090 43F00103 		orrne	r3, r3, #1
 926              	.LBE536:
 927              	.LBE539:
 928              	.LBE542:
 929              	.LBE552:
 930              	.LBB553:
 931              	.LBB547:
  74:../../libs/PolitekDSP/libs/libDaisy/../../libs/libDaisy/src/dev/mpr121.h ****                    config_.dev_addr, address, 1, data, size, 10);
 932              		.loc 7 74 42 view .LVU175
 933 0094 4846     		mov	r0, r9
 934              	.LVL47:
  74:../../libs/PolitekDSP/libs/libDaisy/../../libs/libDaisy/src/dev/mpr121.h ****                    config_.dev_addr, address, 1, data, size, 10);
 935              		.loc 7 74 42 view .LVU176
 936              	.LBE547:
 937              	.LBE553:
 938              	.LBB554:
 939              	.LBB543:
 940              	.LBB540:
ARM GAS  C:\Users\matte\AppData\Local\Temp\ccP67MDp.s 			page 32


 941              	.LBB537:
 942              		.loc 7 336 55 view .LVU177
 943 0096 84F83030 		strb	r3, [r4, #48]
 944              	.LVL48:
 945              		.loc 7 336 55 view .LVU178
 946              	.LBE537:
 947              	.LBE540:
 237:../../libs/PolitekDSP/libs/libDaisy/../../libs/libDaisy/src/dev/mpr121.h ****     }
 948              		.loc 7 237 16 view .LVU179
 949 009a 9DF81F30 		ldrb	r3, [sp, #31]	@ zero_extendqisi2
 950              	.LVL49:
 237:../../libs/PolitekDSP/libs/libDaisy/../../libs/libDaisy/src/dev/mpr121.h ****     }
 951              		.loc 7 237 16 view .LVU180
 952              	.LBE543:
 953              	.LBE554:
 271:../../libs/PolitekDSP/libs/libDaisy/../../libs/libDaisy/src/dev/mpr121.h ****             // clear this register to set stop mode
 954              		.loc 7 271 21 view .LVU181
 955 009e 8DF81F80 		strb	r8, [sp, #31]
 956              	.LVL50:
 957              	.LBB555:
 958              	.LBI544:
  71:../../libs/PolitekDSP/libs/libDaisy/../../libs/libDaisy/src/dev/mpr121.h ****     {
 959              		.loc 7 71 10 is_stmt 1 view .LVU182
 960              	.LBB548:
  73:../../libs/PolitekDSP/libs/libDaisy/../../libs/libDaisy/src/dev/mpr121.h ****                != i2c_.WriteDataAtAddress(
 961              		.loc 7 73 9 view .LVU183
 962              	.LBE548:
 963              	.LBE555:
 270:../../libs/PolitekDSP/libs/libDaisy/../../libs/libDaisy/src/dev/mpr121.h ****             uint8_t zero = 0x00;
 964              		.loc 7 270 26 is_stmt 0 view .LVU184
 965 00a2 8DF81E30 		strb	r3, [sp, #30]
 966              	.LBB556:
 967              	.LBB549:
  74:../../libs/PolitekDSP/libs/libDaisy/../../libs/libDaisy/src/dev/mpr121.h ****                    config_.dev_addr, address, 1, data, size, 10);
 968              		.loc 7 74 42 view .LVU185
 969 00a6 3346     		mov	r3, r6
 970 00a8 FFF7FEFF 		bl	_ZN5daisy9I2CHandle18WriteDataAtAddressEtttPhtm
 971              	.LVL51:
  74:../../libs/PolitekDSP/libs/libDaisy/../../libs/libDaisy/src/dev/mpr121.h ****                    config_.dev_addr, address, 1, data, size, 10);
 972              		.loc 7 74 42 view .LVU186
 973              	.LBE549:
 974              	.LBE556:
 975              	.LBB557:
 976              	.LBI557:
 977              		.loc 7 336 10 is_stmt 1 view .LVU187
 978              	.LBE557:
 979              	.LBE529:
 980              	.LBB562:
 981              	.LBB521:
  74:../../libs/PolitekDSP/libs/libDaisy/../../libs/libDaisy/src/dev/mpr121.h ****                    config_.dev_addr, address, 1, data, size, 10);
 982              		.loc 7 74 42 is_stmt 0 view .LVU188
 983 00ac 2A46     		mov	r2, r5
 984 00ae CDE9016A 		strd	r6, r10, [sp, #4]
 985              	.LBE521:
 986              	.LBE562:
 987              	.LBB563:
 988              	.LBB560:
ARM GAS  C:\Users\matte\AppData\Local\Temp\ccP67MDp.s 			page 33


 989              	.LBB558:
 990              		.loc 7 336 55 view .LVU189
 991 00b2 94F83030 		ldrb	r3, [r4, #48]	@ zero_extendqisi2
 992 00b6 0028     		cmp	r0, #0
 993 00b8 18BF     		it	ne
 994 00ba 43F00103 		orrne	r3, r3, #1
 995              	.LBE558:
 996              	.LBE560:
 997              	.LBE563:
 998              	.LBB564:
 999              	.LBB522:
  74:../../libs/PolitekDSP/libs/libDaisy/../../libs/libDaisy/src/dev/mpr121.h ****                    config_.dev_addr, address, 1, data, size, 10);
 1000              		.loc 7 74 42 view .LVU190
 1001 00be 4846     		mov	r0, r9
 1002              	.LVL52:
  74:../../libs/PolitekDSP/libs/libDaisy/../../libs/libDaisy/src/dev/mpr121.h ****                    config_.dev_addr, address, 1, data, size, 10);
 1003              		.loc 7 74 42 view .LVU191
 1004              	.LBE522:
 1005              	.LBE564:
 1006              	.LBB565:
 1007              	.LBB561:
 1008              	.LBB559:
 1009              		.loc 7 336 55 view .LVU192
 1010 00c0 84F83030 		strb	r3, [r4, #48]
 1011              	.LVL53:
 1012              		.loc 7 336 55 view .LVU193
 1013              	.LBE559:
 1014              	.LBE561:
 1015              	.LBE565:
 1016              	.LBB566:
  71:../../libs/PolitekDSP/libs/libDaisy/../../libs/libDaisy/src/dev/mpr121.h ****     {
 1017              		.loc 7 71 10 is_stmt 1 view .LVU194
 1018              	.LBB523:
  73:../../libs/PolitekDSP/libs/libDaisy/../../libs/libDaisy/src/dev/mpr121.h ****                != i2c_.WriteDataAtAddress(
 1019              		.loc 7 73 9 view .LVU195
  74:../../libs/PolitekDSP/libs/libDaisy/../../libs/libDaisy/src/dev/mpr121.h ****                    config_.dev_addr, address, 1, data, size, 10);
 1020              		.loc 7 74 42 is_stmt 0 view .LVU196
 1021 00c4 0DF11703 		add	r3, sp, #23
 1022              	.LVL54:
  74:../../libs/PolitekDSP/libs/libDaisy/../../libs/libDaisy/src/dev/mpr121.h ****                    config_.dev_addr, address, 1, data, size, 10);
 1023              		.loc 7 74 42 view .LVU197
 1024 00c8 0093     		str	r3, [sp]
 1025 00ca 3346     		mov	r3, r6
 1026              	.LVL55:
  74:../../libs/PolitekDSP/libs/libDaisy/../../libs/libDaisy/src/dev/mpr121.h ****                    config_.dev_addr, address, 1, data, size, 10);
 1027              		.loc 7 74 42 view .LVU198
 1028 00cc 94F82C10 		ldrb	r1, [r4, #44]	@ zero_extendqisi2
 1029 00d0 FFF7FEFF 		bl	_ZN5daisy9I2CHandle18WriteDataAtAddressEtttPhtm
 1030              	.LVL56:
  74:../../libs/PolitekDSP/libs/libDaisy/../../libs/libDaisy/src/dev/mpr121.h ****                    config_.dev_addr, address, 1, data, size, 10);
 1031              		.loc 7 74 42 view .LVU199
 1032              	.LBE523:
 1033              	.LBE566:
 1034              	.LBB567:
 1035              	.LBB568:
 1036 00d4 0DF11E02 		add	r2, sp, #30
 1037 00d8 CDF808A0 		str	r10, [sp, #8]
ARM GAS  C:\Users\matte\AppData\Local\Temp\ccP67MDp.s 			page 34


 1038              	.LBE568:
 1039              	.LBE567:
 1040              	.LBB572:
 1041              	.LBB524:
 1042 00dc 0546     		mov	r5, r0
 1043              	.LVL57:
  74:../../libs/PolitekDSP/libs/libDaisy/../../libs/libDaisy/src/dev/mpr121.h ****                    config_.dev_addr, address, 1, data, size, 10);
 1044              		.loc 7 74 42 view .LVU200
 1045              	.LBE524:
 1046              	.LBE572:
 1047              	.LBB573:
 1048              		.loc 7 336 10 is_stmt 1 view .LVU201
 1049              	.LBE573:
 1050              	.LBB574:
 1051              	.LBB569:
  74:../../libs/PolitekDSP/libs/libDaisy/../../libs/libDaisy/src/dev/mpr121.h ****                    config_.dev_addr, address, 1, data, size, 10);
 1052              		.loc 7 74 42 is_stmt 0 view .LVU202
 1053 00de 0092     		str	r2, [sp]
 1054 00e0 3346     		mov	r3, r6
 1055 00e2 0196     		str	r6, [sp, #4]
 1056 00e4 4846     		mov	r0, r9
 1057              	.LVL58:
  74:../../libs/PolitekDSP/libs/libDaisy/../../libs/libDaisy/src/dev/mpr121.h ****                    config_.dev_addr, address, 1, data, size, 10);
 1058              		.loc 7 74 42 view .LVU203
 1059              	.LBE569:
 1060              	.LBE574:
 1061              	.LBB575:
 1062              	.LBB527:
 1063              		.loc 7 336 55 view .LVU204
 1064 00e6 94F83010 		ldrb	r1, [r4, #48]	@ zero_extendqisi2
 1065              	.LBE527:
 1066              	.LBE575:
 1067              	.LBB576:
 1068              	.LBB570:
  74:../../libs/PolitekDSP/libs/libDaisy/../../libs/libDaisy/src/dev/mpr121.h ****                    config_.dev_addr, address, 1, data, size, 10);
 1069              		.loc 7 74 42 view .LVU205
 1070 00ea 5E22     		movs	r2, #94
 1071              	.LBE570:
 1072              	.LBE576:
 1073              	.LBB577:
 1074              	.LBB528:
 1075              		.loc 7 336 55 view .LVU206
 1076 00ec 002D     		cmp	r5, #0
 1077 00ee 18BF     		it	ne
 1078 00f0 41F00101 		orrne	r1, r1, #1
 1079 00f4 84F83010 		strb	r1, [r4, #48]
 1080              	.LVL59:
 1081              		.loc 7 336 55 view .LVU207
 1082              	.LBE528:
 1083              	.LBE577:
 1084              	.LBB578:
 1085              	.LBI567:
  71:../../libs/PolitekDSP/libs/libDaisy/../../libs/libDaisy/src/dev/mpr121.h ****     {
 1086              		.loc 7 71 10 is_stmt 1 view .LVU208
 1087              	.LBB571:
  73:../../libs/PolitekDSP/libs/libDaisy/../../libs/libDaisy/src/dev/mpr121.h ****                != i2c_.WriteDataAtAddress(
 1088              		.loc 7 73 9 view .LVU209
ARM GAS  C:\Users\matte\AppData\Local\Temp\ccP67MDp.s 			page 35


  74:../../libs/PolitekDSP/libs/libDaisy/../../libs/libDaisy/src/dev/mpr121.h ****                    config_.dev_addr, address, 1, data, size, 10);
 1089              		.loc 7 74 42 is_stmt 0 view .LVU210
 1090 00f8 94F82C10 		ldrb	r1, [r4, #44]	@ zero_extendqisi2
 1091 00fc FFF7FEFF 		bl	_ZN5daisy9I2CHandle18WriteDataAtAddressEtttPhtm
 1092              	.LVL60:
  74:../../libs/PolitekDSP/libs/libDaisy/../../libs/libDaisy/src/dev/mpr121.h ****                    config_.dev_addr, address, 1, data, size, 10);
 1093              		.loc 7 74 42 view .LVU211
 1094              	.LBE571:
 1095              	.LBE578:
 1096              	.LBB579:
 1097              	.LBI579:
 1098              		.loc 7 336 10 is_stmt 1 view .LVU212
 1099              	.LBB580:
 1100              		.loc 7 336 55 is_stmt 0 view .LVU213
 1101 0100 94F83030 		ldrb	r3, [r4, #48]	@ zero_extendqisi2
 1102 0104 0028     		cmp	r0, #0
 1103 0106 18BF     		it	ne
 1104 0108 43F00103 		orrne	r3, r3, #1
 1105 010c 84F83030 		strb	r3, [r4, #48]
 1106              	.LVL61:
 1107              		.loc 7 336 55 view .LVU214
 1108              	.LBE580:
 1109              	.LBE579:
 285:../../libs/PolitekDSP/libs/libDaisy/../../libs/libDaisy/src/dev/mpr121.h **** 
 1110              		.loc 7 285 5 view .LVU215
 1111 0110 08B0     		add	sp, sp, #32
 1112              		.cfi_def_cfa_offset 32
 1113              		@ sp needed
 1114 0112 BDE8F087 		pop	{r4, r5, r6, r7, r8, r9, r10, pc}
 285:../../libs/PolitekDSP/libs/libDaisy/../../libs/libDaisy/src/dev/mpr121.h **** 
 1115              		.loc 7 285 5 view .LVU216
 1116              		.cfi_endproc
 1117              	.LFE5340:
 1119 0116 00BF     		.section	.rodata.main.str1.4,"aMS",%progbits,1
 1120              		.align	2
 1121              	.LC0:
 1122 0000 456E7465 		.ascii	"Entering program...\000"
 1122      72696E67 
 1122      2070726F 
 1122      6772616D 
 1122      2E2E2E00 
 1123              		.align	2
 1124              	.LC1:
 1125 0014 25642069 		.ascii	"%d iter: touch is %d and release is %d\000"
 1125      7465723A 
 1125      20746F75 
 1125      63682069 
 1125      73202564 
 1126              		.section	.text.startup.main,"ax",%progbits
 1127              		.align	1
 1128              		.p2align 2,,3
 1129              		.global	main
 1130              		.syntax unified
 1131              		.thumb
 1132              		.thumb_func
 1133              		.fpu fpv5-d16
 1135              	main:
ARM GAS  C:\Users\matte\AppData\Local\Temp\ccP67MDp.s 			page 36


 1136              	.LFB4902:
 1137              		.file 8 "main.cpp"
   1:main.cpp      **** /**
   2:main.cpp      ****  * @brief Test main function for dynamic thresholds
   3:main.cpp      ****  * 
   4:main.cpp      ****  * This is the main entry point for the display test application.
   5:main.cpp      ****  * It serves as a test harness to verify dynamic threshold functionality.
   6:main.cpp      ****  * 
   7:main.cpp      ****  * @todo use new function SetThreshold to change only one channel
   8:main.cpp      ****  * 
   9:main.cpp      ****  * @return int Exit status code (0 for success, non-zero for failure)
  10:main.cpp      ****  */
  11:main.cpp      ****  
  12:main.cpp      **** 
  13:main.cpp      **** #include "../../libs/libDaisy/src/daisy_seed.h"
  14:main.cpp      **** #include "../../libs/DaisySP/Source/daisysp.h"
  15:main.cpp      **** 
  16:main.cpp      **** using namespace daisy;
  17:main.cpp      **** using namespace daisysp;
  18:main.cpp      **** 
  19:main.cpp      **** DaisySeed hw;
  20:main.cpp      **** 
  21:main.cpp      **** 
  22:main.cpp      **** // unused in this test
  23:main.cpp      **** static void AudioCallback(AudioHandle::InterleavingInputBuffer in, AudioHandle::InterleavingOutputB
  24:main.cpp      **** {
  25:main.cpp      **** 
  26:main.cpp      ****     for (size_t i = 0; i < size; i += 2)
  27:main.cpp      ****     {
  28:main.cpp      **** 
  29:main.cpp      ****         out[i] = out[i + 1] = 0.f;             
  30:main.cpp      ****     }
  31:main.cpp      **** }
  32:main.cpp      **** 
  33:main.cpp      **** int main (){
 1138              		.loc 8 33 12 is_stmt 1 view -0
 1139              		.cfi_startproc
 1140              		@ args = 0, pretend = 0, frame = 104
 1141              		@ frame_needed = 0, uses_anonymous_args = 0
  34:main.cpp      **** 
  35:main.cpp      ****     hw.Init();    
 1142              		.loc 8 35 5 view .LVU218
  33:main.cpp      **** 
 1143              		.loc 8 33 12 is_stmt 0 view .LVU219
 1144 0000 2DE9F04F 		push	{r4, r5, r6, r7, r8, r9, r10, fp, lr}
 1145              		.cfi_def_cfa_offset 36
 1146              		.cfi_offset 4, -36
 1147              		.cfi_offset 5, -32
 1148              		.cfi_offset 6, -28
 1149              		.cfi_offset 7, -24
 1150              		.cfi_offset 8, -20
 1151              		.cfi_offset 9, -16
 1152              		.cfi_offset 10, -12
 1153              		.cfi_offset 11, -8
 1154              		.cfi_offset 14, -4
 1155              	.LBB707:
 1156              	.LBB708:
ARM GAS  C:\Users\matte\AppData\Local\Temp\ccP67MDp.s 			page 37


 1157              	.LBB709:
 1158              	.LBB710:
 1159              	.LBB711:
 1160              	.LBB712:
 1161              	.LBB713:
  36:../../libs/PolitekDSP/libs/libDaisy/../../libs/libDaisy/src/dev/mpr121.h ****             speed  = I2CHandle::Config::Speed::I2C_400KHZ;
 1162              		.loc 7 36 20 view .LVU220
 1163 0004 0025     		movs	r5, #0
  37:../../libs/PolitekDSP/libs/libDaisy/../../libs/libDaisy/src/dev/mpr121.h **** 
 1164              		.loc 7 37 20 view .LVU221
 1165 0006 0124     		movs	r4, #1
 1166              	.LBE713:
 1167              	.LBE712:
 1168              	.LBE711:
 1169              	.LBE710:
 1170              	.LBE709:
 1171              	.LBE708:
 1172              	.LBE707:
  33:main.cpp      **** 
 1173              		.loc 8 33 12 view .LVU222
 1174 0008 9FB0     		sub	sp, sp, #124
 1175              		.cfi_def_cfa_offset 160
 1176              	.LBB749:
 1177              	.LBB743:
  92:../../libs/PolitekDSP/libs/libDaisy/../../libs/libDaisy/src/dev/mpr121.h ****     ~Mpr121() {}
 1178              		.loc 7 92 5 view .LVU223
 1179 000a 424E     		ldr	r6, .L23
 1180              	.LBE743:
 1181              	.LBE749:
 1182              		.loc 8 35 12 view .LVU224
 1183 000c 2946     		mov	r1, r5
 1184              	.LBB750:
 1185              	.LBB744:
  92:../../libs/PolitekDSP/libs/libDaisy/../../libs/libDaisy/src/dev/mpr121.h ****     ~Mpr121() {}
 1186              		.loc 7 92 5 view .LVU225
 1187 000e 5A27     		movs	r7, #90
 1188 0010 40F20C68 		movw	r8, #1548
 1189              	.LBE744:
 1190              	.LBE750:
 1191              		.loc 8 35 12 view .LVU226
 1192 0014 4048     		ldr	r0, .L23+4
 1193 0016 FFF7FEFF 		bl	_ZN5daisy9DaisySeed4InitEb
 1194              	.LVL62:
  36:main.cpp      ****     
  37:main.cpp      ****     // mpr121 creation
  38:main.cpp      ****     Mpr121I2C::Config mpr121ObjConf;
 1195              		.loc 8 38 5 is_stmt 1 view .LVU227
 1196              	.LBB751:
 1197              	.LBI751:
 101:../../libs/PolitekDSP/libs/libDaisy/../../libs/libDaisy/src/dev/mpr121.h ****         {
 1198              		.loc 7 101 9 view .LVU228
 1199              	.LBB752:
 1200              	.LBI752:
  34:../../libs/PolitekDSP/libs/libDaisy/../../libs/libDaisy/src/dev/mpr121.h ****         {
 1201              		.loc 7 34 9 view .LVU229
 1202              	.LBB753:
 1203              	.LBI753:
ARM GAS  C:\Users\matte\AppData\Local\Temp\ccP67MDp.s 			page 38


 1204              		.file 9 "../../libs/PolitekDSP/libs/libDaisy/../../libs/libDaisy/src/daisy_core.h"
   1:../../libs/PolitekDSP/libs/libDaisy/../../libs/libDaisy/src/daisy_core.h **** #pragma once
   2:../../libs/PolitekDSP/libs/libDaisy/../../libs/libDaisy/src/daisy_core.h **** #ifndef DSY_CORE_HW_H
   3:../../libs/PolitekDSP/libs/libDaisy/../../libs/libDaisy/src/daisy_core.h **** #define DSY_CORE_HW_H /**< & */
   4:../../libs/PolitekDSP/libs/libDaisy/../../libs/libDaisy/src/daisy_core.h **** #include <stdint.h>
   5:../../libs/PolitekDSP/libs/libDaisy/../../libs/libDaisy/src/daisy_core.h **** #include <stdlib.h>
   6:../../libs/PolitekDSP/libs/libDaisy/../../libs/libDaisy/src/daisy_core.h **** 
   7:../../libs/PolitekDSP/libs/libDaisy/../../libs/libDaisy/src/daisy_core.h **** #if defined(_MSC_VER)
   8:../../libs/PolitekDSP/libs/libDaisy/../../libs/libDaisy/src/daisy_core.h **** #define FORCE_INLINE __forceinline /**< & */
   9:../../libs/PolitekDSP/libs/libDaisy/../../libs/libDaisy/src/daisy_core.h **** #elif defined(__clang__)
  10:../../libs/PolitekDSP/libs/libDaisy/../../libs/libDaisy/src/daisy_core.h **** #define FORCE_INLINE inline __attribute__((always_inline)) /**< & */
  11:../../libs/PolitekDSP/libs/libDaisy/../../libs/libDaisy/src/daisy_core.h **** #pragma clang diagnostic ignored "-Wduplicate-decl-specifier"
  12:../../libs/PolitekDSP/libs/libDaisy/../../libs/libDaisy/src/daisy_core.h **** #elif defined(__GNUC__)
  13:../../libs/PolitekDSP/libs/libDaisy/../../libs/libDaisy/src/daisy_core.h **** #define FORCE_INLINE inline __attribute__((always_inline)) /**< & */
  14:../../libs/PolitekDSP/libs/libDaisy/../../libs/libDaisy/src/daisy_core.h **** #else
  15:../../libs/PolitekDSP/libs/libDaisy/../../libs/libDaisy/src/daisy_core.h **** #error unknown compiler
  16:../../libs/PolitekDSP/libs/libDaisy/../../libs/libDaisy/src/daisy_core.h **** #endif
  17:../../libs/PolitekDSP/libs/libDaisy/../../libs/libDaisy/src/daisy_core.h **** 
  18:../../libs/PolitekDSP/libs/libDaisy/../../libs/libDaisy/src/daisy_core.h **** /** @addtogroup utility
  19:../../libs/PolitekDSP/libs/libDaisy/../../libs/libDaisy/src/daisy_core.h ****     @{
  20:../../libs/PolitekDSP/libs/libDaisy/../../libs/libDaisy/src/daisy_core.h **** */
  21:../../libs/PolitekDSP/libs/libDaisy/../../libs/libDaisy/src/daisy_core.h **** 
  22:../../libs/PolitekDSP/libs/libDaisy/../../libs/libDaisy/src/daisy_core.h **** /** Macro for area of memory that is configured as cacheless
  23:../../libs/PolitekDSP/libs/libDaisy/../../libs/libDaisy/src/daisy_core.h **** This should be used primarily for DMA buffers, and the like.
  24:../../libs/PolitekDSP/libs/libDaisy/../../libs/libDaisy/src/daisy_core.h **** */
  25:../../libs/PolitekDSP/libs/libDaisy/../../libs/libDaisy/src/daisy_core.h **** #define DMA_BUFFER_MEM_SECTION __attribute__((section(".sram1_bss")))
  26:../../libs/PolitekDSP/libs/libDaisy/../../libs/libDaisy/src/daisy_core.h **** /** 
  27:../../libs/PolitekDSP/libs/libDaisy/../../libs/libDaisy/src/daisy_core.h **** THE DTCM RAM section is also non-cached. However, is not suitable 
  28:../../libs/PolitekDSP/libs/libDaisy/../../libs/libDaisy/src/daisy_core.h **** for DMA transfers. Performance is on par with internal SRAM w/ 
  29:../../libs/PolitekDSP/libs/libDaisy/../../libs/libDaisy/src/daisy_core.h **** cache enabled.
  30:../../libs/PolitekDSP/libs/libDaisy/../../libs/libDaisy/src/daisy_core.h **** */
  31:../../libs/PolitekDSP/libs/libDaisy/../../libs/libDaisy/src/daisy_core.h **** #define DTCM_MEM_SECTION __attribute__((section(".dtcmram_bss")))
  32:../../libs/PolitekDSP/libs/libDaisy/../../libs/libDaisy/src/daisy_core.h **** 
  33:../../libs/PolitekDSP/libs/libDaisy/../../libs/libDaisy/src/daisy_core.h **** #define FBIPMAX 0.999985f             /**< close to 1.0f-LSB at 16 bit */
  34:../../libs/PolitekDSP/libs/libDaisy/../../libs/libDaisy/src/daisy_core.h **** #define FBIPMIN (-FBIPMAX)            /**< - (1 - LSB) */
  35:../../libs/PolitekDSP/libs/libDaisy/../../libs/libDaisy/src/daisy_core.h **** #define U82F_SCALE 0.0078740f         /**< 1 / 127 */
  36:../../libs/PolitekDSP/libs/libDaisy/../../libs/libDaisy/src/daisy_core.h **** #define F2U8_SCALE 127.0f             /**< 128 - 1 */
  37:../../libs/PolitekDSP/libs/libDaisy/../../libs/libDaisy/src/daisy_core.h **** #define S82F_SCALE 0.0078125f         /**< 1 / (2**7) */
  38:../../libs/PolitekDSP/libs/libDaisy/../../libs/libDaisy/src/daisy_core.h **** #define F2S8_SCALE 127.0f             /**< (2 ** 7) - 1 */
  39:../../libs/PolitekDSP/libs/libDaisy/../../libs/libDaisy/src/daisy_core.h **** #define S162F_SCALE 3.0517578125e-05f /**< 1 / (2** 15) */
  40:../../libs/PolitekDSP/libs/libDaisy/../../libs/libDaisy/src/daisy_core.h **** #define F2S16_SCALE 32767.0f          /**< (2 ** 15) - 1 */
  41:../../libs/PolitekDSP/libs/libDaisy/../../libs/libDaisy/src/daisy_core.h **** #define F2S24_SCALE 8388608.0f        /**< 2 ** 23 */
  42:../../libs/PolitekDSP/libs/libDaisy/../../libs/libDaisy/src/daisy_core.h **** #define S242F_SCALE 1.192092896e-07f  /**< 1 / (2 ** 23) */
  43:../../libs/PolitekDSP/libs/libDaisy/../../libs/libDaisy/src/daisy_core.h **** #define S24SIGN 0x800000              /**< 2 ** 23 */
  44:../../libs/PolitekDSP/libs/libDaisy/../../libs/libDaisy/src/daisy_core.h **** #define S322F_SCALE 4.6566129e-10f    /**< 1 / (2** 31) */
  45:../../libs/PolitekDSP/libs/libDaisy/../../libs/libDaisy/src/daisy_core.h **** #define F2S32_SCALE 2147483647.f      /**< (2 ** 31) - 1 */
  46:../../libs/PolitekDSP/libs/libDaisy/../../libs/libDaisy/src/daisy_core.h **** 
  47:../../libs/PolitekDSP/libs/libDaisy/../../libs/libDaisy/src/daisy_core.h **** 
  48:../../libs/PolitekDSP/libs/libDaisy/../../libs/libDaisy/src/daisy_core.h **** /** shorthand macro for simplifying the reading of the left 
  49:../../libs/PolitekDSP/libs/libDaisy/../../libs/libDaisy/src/daisy_core.h ****  *  channel of a non-interleaved output buffer named out */
  50:../../libs/PolitekDSP/libs/libDaisy/../../libs/libDaisy/src/daisy_core.h **** #define OUT_L out[0]
  51:../../libs/PolitekDSP/libs/libDaisy/../../libs/libDaisy/src/daisy_core.h **** 
  52:../../libs/PolitekDSP/libs/libDaisy/../../libs/libDaisy/src/daisy_core.h **** /** shorthand macro for simplifying the reading of the right 
  53:../../libs/PolitekDSP/libs/libDaisy/../../libs/libDaisy/src/daisy_core.h ****  *  channel of a non-interleaved output buffer named out */
  54:../../libs/PolitekDSP/libs/libDaisy/../../libs/libDaisy/src/daisy_core.h **** #define OUT_R out[1]
  55:../../libs/PolitekDSP/libs/libDaisy/../../libs/libDaisy/src/daisy_core.h **** 
  56:../../libs/PolitekDSP/libs/libDaisy/../../libs/libDaisy/src/daisy_core.h **** /** shorthand macro for simplifying the reading of the left 
ARM GAS  C:\Users\matte\AppData\Local\Temp\ccP67MDp.s 			page 39


  57:../../libs/PolitekDSP/libs/libDaisy/../../libs/libDaisy/src/daisy_core.h ****  *  channel of a non-interleaved input buffer named in */
  58:../../libs/PolitekDSP/libs/libDaisy/../../libs/libDaisy/src/daisy_core.h **** #define IN_L in[0]
  59:../../libs/PolitekDSP/libs/libDaisy/../../libs/libDaisy/src/daisy_core.h **** 
  60:../../libs/PolitekDSP/libs/libDaisy/../../libs/libDaisy/src/daisy_core.h **** /** shorthand macro for simplifying the reading of the right 
  61:../../libs/PolitekDSP/libs/libDaisy/../../libs/libDaisy/src/daisy_core.h ****  *  channel of a non-interleaved input buffer named in */
  62:../../libs/PolitekDSP/libs/libDaisy/../../libs/libDaisy/src/daisy_core.h **** #define IN_R in[1]
  63:../../libs/PolitekDSP/libs/libDaisy/../../libs/libDaisy/src/daisy_core.h **** 
  64:../../libs/PolitekDSP/libs/libDaisy/../../libs/libDaisy/src/daisy_core.h **** /** 
  65:../../libs/PolitekDSP/libs/libDaisy/../../libs/libDaisy/src/daisy_core.h ****     Computes cube.
  66:../../libs/PolitekDSP/libs/libDaisy/../../libs/libDaisy/src/daisy_core.h ****     \param x Number to be cubed
  67:../../libs/PolitekDSP/libs/libDaisy/../../libs/libDaisy/src/daisy_core.h ****     \return x ^ 3
  68:../../libs/PolitekDSP/libs/libDaisy/../../libs/libDaisy/src/daisy_core.h **** */
  69:../../libs/PolitekDSP/libs/libDaisy/../../libs/libDaisy/src/daisy_core.h **** FORCE_INLINE float cube(float x)
  70:../../libs/PolitekDSP/libs/libDaisy/../../libs/libDaisy/src/daisy_core.h **** {
  71:../../libs/PolitekDSP/libs/libDaisy/../../libs/libDaisy/src/daisy_core.h ****     return (x * x) * x;
  72:../../libs/PolitekDSP/libs/libDaisy/../../libs/libDaisy/src/daisy_core.h **** }
  73:../../libs/PolitekDSP/libs/libDaisy/../../libs/libDaisy/src/daisy_core.h **** 
  74:../../libs/PolitekDSP/libs/libDaisy/../../libs/libDaisy/src/daisy_core.h **** /** 
  75:../../libs/PolitekDSP/libs/libDaisy/../../libs/libDaisy/src/daisy_core.h ****     Converts unsigned 8-bit to float
  76:../../libs/PolitekDSP/libs/libDaisy/../../libs/libDaisy/src/daisy_core.h ****     \param x Number to be scaled.
  77:../../libs/PolitekDSP/libs/libDaisy/../../libs/libDaisy/src/daisy_core.h ****     \return Scaled number.
  78:../../libs/PolitekDSP/libs/libDaisy/../../libs/libDaisy/src/daisy_core.h **** */
  79:../../libs/PolitekDSP/libs/libDaisy/../../libs/libDaisy/src/daisy_core.h **** FORCE_INLINE float u82f(uint8_t x)
  80:../../libs/PolitekDSP/libs/libDaisy/../../libs/libDaisy/src/daisy_core.h **** {
  81:../../libs/PolitekDSP/libs/libDaisy/../../libs/libDaisy/src/daisy_core.h ****     return ((float)x - 127.f) * U82F_SCALE;
  82:../../libs/PolitekDSP/libs/libDaisy/../../libs/libDaisy/src/daisy_core.h **** }
  83:../../libs/PolitekDSP/libs/libDaisy/../../libs/libDaisy/src/daisy_core.h **** 
  84:../../libs/PolitekDSP/libs/libDaisy/../../libs/libDaisy/src/daisy_core.h **** /**
  85:../../libs/PolitekDSP/libs/libDaisy/../../libs/libDaisy/src/daisy_core.h ****     Converts float to unsigned 8-bit
  86:../../libs/PolitekDSP/libs/libDaisy/../../libs/libDaisy/src/daisy_core.h **** */
  87:../../libs/PolitekDSP/libs/libDaisy/../../libs/libDaisy/src/daisy_core.h **** FORCE_INLINE uint8_t f2u8(float x)
  88:../../libs/PolitekDSP/libs/libDaisy/../../libs/libDaisy/src/daisy_core.h **** {
  89:../../libs/PolitekDSP/libs/libDaisy/../../libs/libDaisy/src/daisy_core.h ****     x = x <= FBIPMIN ? FBIPMIN : x;
  90:../../libs/PolitekDSP/libs/libDaisy/../../libs/libDaisy/src/daisy_core.h ****     x = x >= FBIPMAX ? FBIPMAX : x;
  91:../../libs/PolitekDSP/libs/libDaisy/../../libs/libDaisy/src/daisy_core.h ****     return (uint8_t)((x * F2U8_SCALE) + F2U8_SCALE);
  92:../../libs/PolitekDSP/libs/libDaisy/../../libs/libDaisy/src/daisy_core.h **** }
  93:../../libs/PolitekDSP/libs/libDaisy/../../libs/libDaisy/src/daisy_core.h **** 
  94:../../libs/PolitekDSP/libs/libDaisy/../../libs/libDaisy/src/daisy_core.h **** 
  95:../../libs/PolitekDSP/libs/libDaisy/../../libs/libDaisy/src/daisy_core.h **** /** 
  96:../../libs/PolitekDSP/libs/libDaisy/../../libs/libDaisy/src/daisy_core.h ****     Converts Signed 8-bit to float
  97:../../libs/PolitekDSP/libs/libDaisy/../../libs/libDaisy/src/daisy_core.h ****     \param x Number to be scaled.
  98:../../libs/PolitekDSP/libs/libDaisy/../../libs/libDaisy/src/daisy_core.h ****     \return Scaled number.
  99:../../libs/PolitekDSP/libs/libDaisy/../../libs/libDaisy/src/daisy_core.h **** */
 100:../../libs/PolitekDSP/libs/libDaisy/../../libs/libDaisy/src/daisy_core.h **** FORCE_INLINE float s82f(int8_t x)
 101:../../libs/PolitekDSP/libs/libDaisy/../../libs/libDaisy/src/daisy_core.h **** {
 102:../../libs/PolitekDSP/libs/libDaisy/../../libs/libDaisy/src/daisy_core.h ****     return (float)x * S82F_SCALE;
 103:../../libs/PolitekDSP/libs/libDaisy/../../libs/libDaisy/src/daisy_core.h **** }
 104:../../libs/PolitekDSP/libs/libDaisy/../../libs/libDaisy/src/daisy_core.h **** 
 105:../../libs/PolitekDSP/libs/libDaisy/../../libs/libDaisy/src/daisy_core.h **** /**
 106:../../libs/PolitekDSP/libs/libDaisy/../../libs/libDaisy/src/daisy_core.h ****     Converts float to Signed 8-bit
 107:../../libs/PolitekDSP/libs/libDaisy/../../libs/libDaisy/src/daisy_core.h **** */
 108:../../libs/PolitekDSP/libs/libDaisy/../../libs/libDaisy/src/daisy_core.h **** FORCE_INLINE int8_t f2s8(float x)
 109:../../libs/PolitekDSP/libs/libDaisy/../../libs/libDaisy/src/daisy_core.h **** {
 110:../../libs/PolitekDSP/libs/libDaisy/../../libs/libDaisy/src/daisy_core.h ****     x = x <= FBIPMIN ? FBIPMIN : x;
 111:../../libs/PolitekDSP/libs/libDaisy/../../libs/libDaisy/src/daisy_core.h ****     x = x >= FBIPMAX ? FBIPMAX : x;
 112:../../libs/PolitekDSP/libs/libDaisy/../../libs/libDaisy/src/daisy_core.h ****     return (int32_t)(x * F2S8_SCALE);
 113:../../libs/PolitekDSP/libs/libDaisy/../../libs/libDaisy/src/daisy_core.h **** }
ARM GAS  C:\Users\matte\AppData\Local\Temp\ccP67MDp.s 			page 40


 114:../../libs/PolitekDSP/libs/libDaisy/../../libs/libDaisy/src/daisy_core.h **** 
 115:../../libs/PolitekDSP/libs/libDaisy/../../libs/libDaisy/src/daisy_core.h **** /** 
 116:../../libs/PolitekDSP/libs/libDaisy/../../libs/libDaisy/src/daisy_core.h ****     Converts Signed 16-bit to float
 117:../../libs/PolitekDSP/libs/libDaisy/../../libs/libDaisy/src/daisy_core.h ****     \param x Number to be scaled.
 118:../../libs/PolitekDSP/libs/libDaisy/../../libs/libDaisy/src/daisy_core.h ****     \return Scaled number.
 119:../../libs/PolitekDSP/libs/libDaisy/../../libs/libDaisy/src/daisy_core.h **** */
 120:../../libs/PolitekDSP/libs/libDaisy/../../libs/libDaisy/src/daisy_core.h **** FORCE_INLINE float s162f(int16_t x)
 121:../../libs/PolitekDSP/libs/libDaisy/../../libs/libDaisy/src/daisy_core.h **** {
 122:../../libs/PolitekDSP/libs/libDaisy/../../libs/libDaisy/src/daisy_core.h ****     return (float)x * S162F_SCALE;
 123:../../libs/PolitekDSP/libs/libDaisy/../../libs/libDaisy/src/daisy_core.h **** }
 124:../../libs/PolitekDSP/libs/libDaisy/../../libs/libDaisy/src/daisy_core.h **** 
 125:../../libs/PolitekDSP/libs/libDaisy/../../libs/libDaisy/src/daisy_core.h **** /**
 126:../../libs/PolitekDSP/libs/libDaisy/../../libs/libDaisy/src/daisy_core.h ****     Converts float to Signed 16-bit
 127:../../libs/PolitekDSP/libs/libDaisy/../../libs/libDaisy/src/daisy_core.h **** */
 128:../../libs/PolitekDSP/libs/libDaisy/../../libs/libDaisy/src/daisy_core.h **** FORCE_INLINE int16_t f2s16(float x)
 129:../../libs/PolitekDSP/libs/libDaisy/../../libs/libDaisy/src/daisy_core.h **** {
 130:../../libs/PolitekDSP/libs/libDaisy/../../libs/libDaisy/src/daisy_core.h ****     x = x <= FBIPMIN ? FBIPMIN : x;
 131:../../libs/PolitekDSP/libs/libDaisy/../../libs/libDaisy/src/daisy_core.h ****     x = x >= FBIPMAX ? FBIPMAX : x;
 132:../../libs/PolitekDSP/libs/libDaisy/../../libs/libDaisy/src/daisy_core.h ****     return (int32_t)(x * F2S16_SCALE);
 133:../../libs/PolitekDSP/libs/libDaisy/../../libs/libDaisy/src/daisy_core.h **** }
 134:../../libs/PolitekDSP/libs/libDaisy/../../libs/libDaisy/src/daisy_core.h **** 
 135:../../libs/PolitekDSP/libs/libDaisy/../../libs/libDaisy/src/daisy_core.h **** /**
 136:../../libs/PolitekDSP/libs/libDaisy/../../libs/libDaisy/src/daisy_core.h ****     Converts Signed 24-bit to float
 137:../../libs/PolitekDSP/libs/libDaisy/../../libs/libDaisy/src/daisy_core.h ****  */
 138:../../libs/PolitekDSP/libs/libDaisy/../../libs/libDaisy/src/daisy_core.h **** FORCE_INLINE float s242f(int32_t x)
 139:../../libs/PolitekDSP/libs/libDaisy/../../libs/libDaisy/src/daisy_core.h **** {
 140:../../libs/PolitekDSP/libs/libDaisy/../../libs/libDaisy/src/daisy_core.h ****     x = (x ^ S24SIGN) - S24SIGN; //sign extend aka ((x<<8)>>8)
 141:../../libs/PolitekDSP/libs/libDaisy/../../libs/libDaisy/src/daisy_core.h ****     return (float)x * S242F_SCALE;
 142:../../libs/PolitekDSP/libs/libDaisy/../../libs/libDaisy/src/daisy_core.h **** }
 143:../../libs/PolitekDSP/libs/libDaisy/../../libs/libDaisy/src/daisy_core.h **** /**
 144:../../libs/PolitekDSP/libs/libDaisy/../../libs/libDaisy/src/daisy_core.h ****     Converts float to Signed 24-bit
 145:../../libs/PolitekDSP/libs/libDaisy/../../libs/libDaisy/src/daisy_core.h ****  */
 146:../../libs/PolitekDSP/libs/libDaisy/../../libs/libDaisy/src/daisy_core.h **** FORCE_INLINE int32_t f2s24(float x)
 147:../../libs/PolitekDSP/libs/libDaisy/../../libs/libDaisy/src/daisy_core.h **** {
 148:../../libs/PolitekDSP/libs/libDaisy/../../libs/libDaisy/src/daisy_core.h ****     x = x <= FBIPMIN ? FBIPMIN : x;
 149:../../libs/PolitekDSP/libs/libDaisy/../../libs/libDaisy/src/daisy_core.h ****     x = x >= FBIPMAX ? FBIPMAX : x;
 150:../../libs/PolitekDSP/libs/libDaisy/../../libs/libDaisy/src/daisy_core.h ****     return (int32_t)(x * F2S24_SCALE);
 151:../../libs/PolitekDSP/libs/libDaisy/../../libs/libDaisy/src/daisy_core.h **** }
 152:../../libs/PolitekDSP/libs/libDaisy/../../libs/libDaisy/src/daisy_core.h **** 
 153:../../libs/PolitekDSP/libs/libDaisy/../../libs/libDaisy/src/daisy_core.h **** /**
 154:../../libs/PolitekDSP/libs/libDaisy/../../libs/libDaisy/src/daisy_core.h ****     Converts Signed 32-bit to float
 155:../../libs/PolitekDSP/libs/libDaisy/../../libs/libDaisy/src/daisy_core.h ****  */
 156:../../libs/PolitekDSP/libs/libDaisy/../../libs/libDaisy/src/daisy_core.h **** FORCE_INLINE float s322f(int32_t x)
 157:../../libs/PolitekDSP/libs/libDaisy/../../libs/libDaisy/src/daisy_core.h **** {
 158:../../libs/PolitekDSP/libs/libDaisy/../../libs/libDaisy/src/daisy_core.h ****     return (float)x * S322F_SCALE;
 159:../../libs/PolitekDSP/libs/libDaisy/../../libs/libDaisy/src/daisy_core.h **** }
 160:../../libs/PolitekDSP/libs/libDaisy/../../libs/libDaisy/src/daisy_core.h **** /**
 161:../../libs/PolitekDSP/libs/libDaisy/../../libs/libDaisy/src/daisy_core.h ****     Converts float to Signed 24-bit
 162:../../libs/PolitekDSP/libs/libDaisy/../../libs/libDaisy/src/daisy_core.h ****  */
 163:../../libs/PolitekDSP/libs/libDaisy/../../libs/libDaisy/src/daisy_core.h **** FORCE_INLINE int32_t f2s32(float x)
 164:../../libs/PolitekDSP/libs/libDaisy/../../libs/libDaisy/src/daisy_core.h **** {
 165:../../libs/PolitekDSP/libs/libDaisy/../../libs/libDaisy/src/daisy_core.h ****     x = x <= FBIPMIN ? FBIPMIN : x;
 166:../../libs/PolitekDSP/libs/libDaisy/../../libs/libDaisy/src/daisy_core.h ****     x = x >= FBIPMAX ? FBIPMAX : x;
 167:../../libs/PolitekDSP/libs/libDaisy/../../libs/libDaisy/src/daisy_core.h ****     return (int32_t)(x * F2S32_SCALE);
 168:../../libs/PolitekDSP/libs/libDaisy/../../libs/libDaisy/src/daisy_core.h **** }
 169:../../libs/PolitekDSP/libs/libDaisy/../../libs/libDaisy/src/daisy_core.h **** 
 170:../../libs/PolitekDSP/libs/libDaisy/../../libs/libDaisy/src/daisy_core.h **** #ifdef __cplusplus
ARM GAS  C:\Users\matte\AppData\Local\Temp\ccP67MDp.s 			page 41


 171:../../libs/PolitekDSP/libs/libDaisy/../../libs/libDaisy/src/daisy_core.h **** 
 172:../../libs/PolitekDSP/libs/libDaisy/../../libs/libDaisy/src/daisy_core.h **** namespace daisy
 173:../../libs/PolitekDSP/libs/libDaisy/../../libs/libDaisy/src/daisy_core.h **** {
 174:../../libs/PolitekDSP/libs/libDaisy/../../libs/libDaisy/src/daisy_core.h **** /** @brief GPIO Port names */
 175:../../libs/PolitekDSP/libs/libDaisy/../../libs/libDaisy/src/daisy_core.h **** enum GPIOPort
 176:../../libs/PolitekDSP/libs/libDaisy/../../libs/libDaisy/src/daisy_core.h **** {
 177:../../libs/PolitekDSP/libs/libDaisy/../../libs/libDaisy/src/daisy_core.h ****     PORTA, /**< Port A */
 178:../../libs/PolitekDSP/libs/libDaisy/../../libs/libDaisy/src/daisy_core.h ****     PORTB, /**< Port B */
 179:../../libs/PolitekDSP/libs/libDaisy/../../libs/libDaisy/src/daisy_core.h ****     PORTC, /**< Port C */
 180:../../libs/PolitekDSP/libs/libDaisy/../../libs/libDaisy/src/daisy_core.h ****     PORTD, /**< Port D */
 181:../../libs/PolitekDSP/libs/libDaisy/../../libs/libDaisy/src/daisy_core.h ****     PORTE, /**< Port E */
 182:../../libs/PolitekDSP/libs/libDaisy/../../libs/libDaisy/src/daisy_core.h ****     PORTF, /**< Port F */
 183:../../libs/PolitekDSP/libs/libDaisy/../../libs/libDaisy/src/daisy_core.h ****     PORTG, /**< Port G */
 184:../../libs/PolitekDSP/libs/libDaisy/../../libs/libDaisy/src/daisy_core.h ****     PORTH, /**< Port H */
 185:../../libs/PolitekDSP/libs/libDaisy/../../libs/libDaisy/src/daisy_core.h ****     PORTI, /**< Port I */
 186:../../libs/PolitekDSP/libs/libDaisy/../../libs/libDaisy/src/daisy_core.h ****     PORTJ, /**< Port J */
 187:../../libs/PolitekDSP/libs/libDaisy/../../libs/libDaisy/src/daisy_core.h ****     PORTK, /**< Port K */
 188:../../libs/PolitekDSP/libs/libDaisy/../../libs/libDaisy/src/daisy_core.h ****     PORTX, /**< Used as a dummy port to signal an invalid pin. */
 189:../../libs/PolitekDSP/libs/libDaisy/../../libs/libDaisy/src/daisy_core.h **** };
 190:../../libs/PolitekDSP/libs/libDaisy/../../libs/libDaisy/src/daisy_core.h **** 
 191:../../libs/PolitekDSP/libs/libDaisy/../../libs/libDaisy/src/daisy_core.h **** /** @brief representation of hardware port/pin combination */
 192:../../libs/PolitekDSP/libs/libDaisy/../../libs/libDaisy/src/daisy_core.h **** struct Pin
 193:../../libs/PolitekDSP/libs/libDaisy/../../libs/libDaisy/src/daisy_core.h **** {
 194:../../libs/PolitekDSP/libs/libDaisy/../../libs/libDaisy/src/daisy_core.h ****     GPIOPort port;
 195:../../libs/PolitekDSP/libs/libDaisy/../../libs/libDaisy/src/daisy_core.h ****     uint8_t  pin;
 196:../../libs/PolitekDSP/libs/libDaisy/../../libs/libDaisy/src/daisy_core.h **** 
 197:../../libs/PolitekDSP/libs/libDaisy/../../libs/libDaisy/src/daisy_core.h ****     /** @brief Constructor creates a valid pin. 
 198:../../libs/PolitekDSP/libs/libDaisy/../../libs/libDaisy/src/daisy_core.h ****      *  @param pt GPIOPort between PA, and PK corresponding to STM32 Port.
 199:../../libs/PolitekDSP/libs/libDaisy/../../libs/libDaisy/src/daisy_core.h ****      *  @param pn pin number in range of 0-15
 200:../../libs/PolitekDSP/libs/libDaisy/../../libs/libDaisy/src/daisy_core.h ****     */
 201:../../libs/PolitekDSP/libs/libDaisy/../../libs/libDaisy/src/daisy_core.h ****     constexpr Pin(const GPIOPort pt, const uint8_t pn) : port(pt), pin(pn) {}
 202:../../libs/PolitekDSP/libs/libDaisy/../../libs/libDaisy/src/daisy_core.h **** 
 203:../../libs/PolitekDSP/libs/libDaisy/../../libs/libDaisy/src/daisy_core.h ****     /** @brief Basic Constructor creates an invalid Pin object */
 204:../../libs/PolitekDSP/libs/libDaisy/../../libs/libDaisy/src/daisy_core.h ****     constexpr Pin() : port(PORTX), pin(255) {}
 1205              		.loc 9 204 15 view .LVU230
 1206              		.loc 9 204 15 is_stmt 0 view .LVU231
 1207              	.LBE753:
 1208              	.LBB754:
 1209              	.LBI754:
 1210              		.loc 9 204 15 is_stmt 1 view .LVU232
 1211              		.loc 9 204 15 is_stmt 0 view .LVU233
 1212              	.LBE754:
 1213              	.LBE752:
 1214              	.LBE751:
  36:../../libs/PolitekDSP/libs/libDaisy/../../libs/libDaisy/src/dev/mpr121.h ****             speed  = I2CHandle::Config::Speed::I2C_400KHZ;
 1215              		.loc 7 36 13 is_stmt 1 view .LVU234
  37:../../libs/PolitekDSP/libs/libDaisy/../../libs/libDaisy/src/dev/mpr121.h **** 
 1216              		.loc 7 37 13 view .LVU235
  39:../../libs/PolitekDSP/libs/libDaisy/../../libs/libDaisy/src/dev/mpr121.h ****             sda = Pin(PORTB, 9);
 1217              		.loc 7 39 13 view .LVU236
 1218              	.LBB759:
 1219              	.LBB757:
 1220              	.LBB755:
 1221              	.LBI755:
 201:../../libs/PolitekDSP/libs/libDaisy/../../libs/libDaisy/src/daisy_core.h **** 
 1222              		.loc 9 201 15 view .LVU237
 201:../../libs/PolitekDSP/libs/libDaisy/../../libs/libDaisy/src/daisy_core.h **** 
ARM GAS  C:\Users\matte\AppData\Local\Temp\ccP67MDp.s 			page 42


 1223              		.loc 9 201 15 is_stmt 0 view .LVU238
 1224              	.LBE755:
 1225              	.LBE757:
 1226              	.LBE759:
  40:../../libs/PolitekDSP/libs/libDaisy/../../libs/libDaisy/src/dev/mpr121.h **** 
 1227              		.loc 7 40 13 is_stmt 1 view .LVU239
 1228              	.LBB760:
 1229              	.LBB758:
 1230              	.LBB756:
 1231              	.LBI756:
 201:../../libs/PolitekDSP/libs/libDaisy/../../libs/libDaisy/src/daisy_core.h **** 
 1232              		.loc 9 201 15 view .LVU240
 201:../../libs/PolitekDSP/libs/libDaisy/../../libs/libDaisy/src/daisy_core.h **** 
 1233              		.loc 9 201 15 is_stmt 0 view .LVU241
 1234              	.LBE756:
 1235              	.LBE758:
 1236              	.LBE760:
  42:../../libs/PolitekDSP/libs/libDaisy/../../libs/libDaisy/src/dev/mpr121.h ****         }
 1237              		.loc 7 42 13 is_stmt 1 view .LVU242
  39:main.cpp      ****     Mpr121I2C         cap;
 1238              		.loc 8 39 5 view .LVU243
 1239              	.LBB761:
 1240              	.LBI707:
  92:../../libs/PolitekDSP/libs/libDaisy/../../libs/libDaisy/src/dev/mpr121.h ****     ~Mpr121() {}
 1241              		.loc 7 92 5 view .LVU244
 1242              	.LBB745:
 1243              	.LBB726:
 1244              	.LBI709:
 101:../../libs/PolitekDSP/libs/libDaisy/../../libs/libDaisy/src/dev/mpr121.h ****         {
 1245              		.loc 7 101 9 view .LVU245
 1246              	.LBB724:
 1247              	.LBB722:
 1248              	.LBI711:
  34:../../libs/PolitekDSP/libs/libDaisy/../../libs/libDaisy/src/dev/mpr121.h ****         {
 1249              		.loc 7 34 9 view .LVU246
 1250              	.LBB720:
 1251              	.LBB718:
 1252              	.LBB714:
 1253              	.LBI714:
 1254              		.loc 9 204 15 view .LVU247
 1255              		.loc 9 204 15 is_stmt 0 view .LVU248
 1256              	.LBE714:
 1257              	.LBB715:
 1258              	.LBI715:
 1259              		.loc 9 204 15 is_stmt 1 view .LVU249
 1260              		.loc 9 204 15 is_stmt 0 view .LVU250
 1261              	.LBE715:
  36:../../libs/PolitekDSP/libs/libDaisy/../../libs/libDaisy/src/dev/mpr121.h ****             speed  = I2CHandle::Config::Speed::I2C_400KHZ;
 1262              		.loc 7 36 13 is_stmt 1 view .LVU251
  37:../../libs/PolitekDSP/libs/libDaisy/../../libs/libDaisy/src/dev/mpr121.h **** 
 1263              		.loc 7 37 13 view .LVU252
  39:../../libs/PolitekDSP/libs/libDaisy/../../libs/libDaisy/src/dev/mpr121.h ****             sda = Pin(PORTB, 9);
 1264              		.loc 7 39 13 view .LVU253
 1265              	.LBB716:
 1266              	.LBI716:
 201:../../libs/PolitekDSP/libs/libDaisy/../../libs/libDaisy/src/daisy_core.h **** 
 1267              		.loc 9 201 15 view .LVU254
ARM GAS  C:\Users\matte\AppData\Local\Temp\ccP67MDp.s 			page 43


 201:../../libs/PolitekDSP/libs/libDaisy/../../libs/libDaisy/src/daisy_core.h **** 
 1268              		.loc 9 201 15 is_stmt 0 view .LVU255
 1269              	.LBE716:
  40:../../libs/PolitekDSP/libs/libDaisy/../../libs/libDaisy/src/dev/mpr121.h **** 
 1270              		.loc 7 40 13 is_stmt 1 view .LVU256
 1271              	.LBB717:
 1272              	.LBI717:
 201:../../libs/PolitekDSP/libs/libDaisy/../../libs/libDaisy/src/daisy_core.h **** 
 1273              		.loc 9 201 15 view .LVU257
 201:../../libs/PolitekDSP/libs/libDaisy/../../libs/libDaisy/src/daisy_core.h **** 
 1274              		.loc 9 201 15 is_stmt 0 view .LVU258
 1275              	.LBE717:
  42:../../libs/PolitekDSP/libs/libDaisy/../../libs/libDaisy/src/dev/mpr121.h ****         }
 1276              		.loc 7 42 13 is_stmt 1 view .LVU259
  42:../../libs/PolitekDSP/libs/libDaisy/../../libs/libDaisy/src/dev/mpr121.h ****         }
 1277              		.loc 7 42 13 is_stmt 0 view .LVU260
 1278              	.LBE718:
 1279              	.LBE720:
 1280              	.LBE722:
 1281              	.LBE724:
 1282              	.LBE726:
 1283              	.LBB727:
 1284              	.LBI727:
  20:../../libs/PolitekDSP/libs/libDaisy/../../libs/libDaisy/src/dev/mpr121.h ****     ~Mpr121I2CTransport() {}
 1285              		.loc 7 20 5 is_stmt 1 view .LVU261
 1286              	.LBB728:
 1287              	.LBB729:
 1288              	.LBI729:
 1289              		.file 10 "../../libs/PolitekDSP/libs/libDaisy/src/per/i2c.h"
   1:../../libs/PolitekDSP/libs/libDaisy/src/per/i2c.h **** #pragma once
   2:../../libs/PolitekDSP/libs/libDaisy/src/per/i2c.h **** #include "util/hal_map.h"
   3:../../libs/PolitekDSP/libs/libDaisy/src/per/i2c.h **** #include "daisy_core.h"
   4:../../libs/PolitekDSP/libs/libDaisy/src/per/i2c.h **** 
   5:../../libs/PolitekDSP/libs/libDaisy/src/per/i2c.h **** namespace daisy
   6:../../libs/PolitekDSP/libs/libDaisy/src/per/i2c.h **** {
   7:../../libs/PolitekDSP/libs/libDaisy/src/per/i2c.h **** /** A handle for interacting with an I2C peripheral. This is a dumb
   8:../../libs/PolitekDSP/libs/libDaisy/src/per/i2c.h ****  *  gateway that internally points to one of the four I2C peripherals
   9:../../libs/PolitekDSP/libs/libDaisy/src/per/i2c.h ****  *  after it was initialised. It can then be copied and passed around.
  10:../../libs/PolitekDSP/libs/libDaisy/src/per/i2c.h ****  *  Use an I2CHandle like this:
  11:../../libs/PolitekDSP/libs/libDaisy/src/per/i2c.h ****  *  
  12:../../libs/PolitekDSP/libs/libDaisy/src/per/i2c.h ****  *      // setup the configuration
  13:../../libs/PolitekDSP/libs/libDaisy/src/per/i2c.h ****  *      I2CHandle::Config i2c_conf;
  14:../../libs/PolitekDSP/libs/libDaisy/src/per/i2c.h ****  *      i2c_conf.periph = I2CHandle::Config::Peripheral::I2C_1;
  15:../../libs/PolitekDSP/libs/libDaisy/src/per/i2c.h ****  *      i2c_conf.speed  = I2CHandle::Config::Speed::I2C_400KHZ;
  16:../../libs/PolitekDSP/libs/libDaisy/src/per/i2c.h ****  *      i2c_conf.mode   = I2CHandle::Config::Mode::Master;
  17:../../libs/PolitekDSP/libs/libDaisy/src/per/i2c.h ****  *      i2c_conf.pin_config.scl  = {DSY_GPIOB, 8};
  18:../../libs/PolitekDSP/libs/libDaisy/src/per/i2c.h ****  *      i2c_conf.pin_config.sda  = {DSY_GPIOB, 9};
  19:../../libs/PolitekDSP/libs/libDaisy/src/per/i2c.h ****  *      // initialise the peripheral
  20:../../libs/PolitekDSP/libs/libDaisy/src/per/i2c.h ****  *      I2CHandle i2c;
  21:../../libs/PolitekDSP/libs/libDaisy/src/per/i2c.h ****  *      i2c.Init(i2c_conf);
  22:../../libs/PolitekDSP/libs/libDaisy/src/per/i2c.h ****  *      // now i2c points to the corresponding peripheral and can be used.
  23:../../libs/PolitekDSP/libs/libDaisy/src/per/i2c.h ****  *      i2c.TransmitBlocking( ... );
  24:../../libs/PolitekDSP/libs/libDaisy/src/per/i2c.h ****  */
  25:../../libs/PolitekDSP/libs/libDaisy/src/per/i2c.h **** class I2CHandle
  26:../../libs/PolitekDSP/libs/libDaisy/src/per/i2c.h **** {
  27:../../libs/PolitekDSP/libs/libDaisy/src/per/i2c.h ****   public:
  28:../../libs/PolitekDSP/libs/libDaisy/src/per/i2c.h ****     /** Contains settings for initialising an I2C interface. */
ARM GAS  C:\Users\matte\AppData\Local\Temp\ccP67MDp.s 			page 44


  29:../../libs/PolitekDSP/libs/libDaisy/src/per/i2c.h ****     struct Config
  30:../../libs/PolitekDSP/libs/libDaisy/src/per/i2c.h ****     {
  31:../../libs/PolitekDSP/libs/libDaisy/src/per/i2c.h ****         /** Specifies whether the interface will operate in master or slave mode. */
  32:../../libs/PolitekDSP/libs/libDaisy/src/per/i2c.h ****         enum class Mode
  33:../../libs/PolitekDSP/libs/libDaisy/src/per/i2c.h ****         {
  34:../../libs/PolitekDSP/libs/libDaisy/src/per/i2c.h ****             I2C_MASTER,
  35:../../libs/PolitekDSP/libs/libDaisy/src/per/i2c.h ****             I2C_SLAVE,
  36:../../libs/PolitekDSP/libs/libDaisy/src/per/i2c.h ****         };
  37:../../libs/PolitekDSP/libs/libDaisy/src/per/i2c.h **** 
  38:../../libs/PolitekDSP/libs/libDaisy/src/per/i2c.h ****         /** Specifices the internal peripheral to use (these are mapped to different pins on the ha
  39:../../libs/PolitekDSP/libs/libDaisy/src/per/i2c.h ****         enum class Peripheral
  40:../../libs/PolitekDSP/libs/libDaisy/src/per/i2c.h ****         {
  41:../../libs/PolitekDSP/libs/libDaisy/src/per/i2c.h ****             I2C_1 = 0, /**< & */
  42:../../libs/PolitekDSP/libs/libDaisy/src/per/i2c.h ****             I2C_2,     /**< & */
  43:../../libs/PolitekDSP/libs/libDaisy/src/per/i2c.h ****             I2C_3,     /**< & */
  44:../../libs/PolitekDSP/libs/libDaisy/src/per/i2c.h ****             I2C_4,     /**< & */
  45:../../libs/PolitekDSP/libs/libDaisy/src/per/i2c.h ****         };
  46:../../libs/PolitekDSP/libs/libDaisy/src/per/i2c.h **** 
  47:../../libs/PolitekDSP/libs/libDaisy/src/per/i2c.h ****         /** Rate at which the clock/data will be sent/received. The device being used will have max
  48:../../libs/PolitekDSP/libs/libDaisy/src/per/i2c.h ****          *  1MHZ Mode is currently 886kHz
  49:../../libs/PolitekDSP/libs/libDaisy/src/per/i2c.h ****          */
  50:../../libs/PolitekDSP/libs/libDaisy/src/per/i2c.h ****         enum class Speed
  51:../../libs/PolitekDSP/libs/libDaisy/src/per/i2c.h ****         {
  52:../../libs/PolitekDSP/libs/libDaisy/src/per/i2c.h ****             I2C_100KHZ, /**< & */
  53:../../libs/PolitekDSP/libs/libDaisy/src/per/i2c.h ****             I2C_400KHZ, /**< & */
  54:../../libs/PolitekDSP/libs/libDaisy/src/per/i2c.h ****             I2C_1MHZ,   /**< & */
  55:../../libs/PolitekDSP/libs/libDaisy/src/per/i2c.h ****         };
  56:../../libs/PolitekDSP/libs/libDaisy/src/per/i2c.h **** 
  57:../../libs/PolitekDSP/libs/libDaisy/src/per/i2c.h ****         Peripheral periph; /**< & */
  58:../../libs/PolitekDSP/libs/libDaisy/src/per/i2c.h ****         struct
  59:../../libs/PolitekDSP/libs/libDaisy/src/per/i2c.h ****         {
  60:../../libs/PolitekDSP/libs/libDaisy/src/per/i2c.h ****             Pin scl;  /**< & */
  61:../../libs/PolitekDSP/libs/libDaisy/src/per/i2c.h ****             Pin sda;  /**< & */
  62:../../libs/PolitekDSP/libs/libDaisy/src/per/i2c.h ****         } pin_config; /**< & */
  63:../../libs/PolitekDSP/libs/libDaisy/src/per/i2c.h **** 
  64:../../libs/PolitekDSP/libs/libDaisy/src/per/i2c.h ****         Speed speed; /**< & */
  65:../../libs/PolitekDSP/libs/libDaisy/src/per/i2c.h ****         Mode  mode;  /**< & */
  66:../../libs/PolitekDSP/libs/libDaisy/src/per/i2c.h ****         // 0x10 is chosen as a default to avoid conflicts with reserved addresses
  67:../../libs/PolitekDSP/libs/libDaisy/src/per/i2c.h ****         uint8_t address = 0x10; /**< & */
  68:../../libs/PolitekDSP/libs/libDaisy/src/per/i2c.h ****     };
  69:../../libs/PolitekDSP/libs/libDaisy/src/per/i2c.h **** 
  70:../../libs/PolitekDSP/libs/libDaisy/src/per/i2c.h ****     /** Return values for I2C functions. */
  71:../../libs/PolitekDSP/libs/libDaisy/src/per/i2c.h ****     enum class Result
  72:../../libs/PolitekDSP/libs/libDaisy/src/per/i2c.h ****     {
  73:../../libs/PolitekDSP/libs/libDaisy/src/per/i2c.h ****         OK, /**< & */
  74:../../libs/PolitekDSP/libs/libDaisy/src/per/i2c.h ****         ERR /**< & */
  75:../../libs/PolitekDSP/libs/libDaisy/src/per/i2c.h ****     };
  76:../../libs/PolitekDSP/libs/libDaisy/src/per/i2c.h **** 
  77:../../libs/PolitekDSP/libs/libDaisy/src/per/i2c.h ****     enum class Direction
  78:../../libs/PolitekDSP/libs/libDaisy/src/per/i2c.h ****     {
  79:../../libs/PolitekDSP/libs/libDaisy/src/per/i2c.h ****         TRANSMIT, /**< & */
  80:../../libs/PolitekDSP/libs/libDaisy/src/per/i2c.h ****         RECEIVE,  /**< & */
  81:../../libs/PolitekDSP/libs/libDaisy/src/per/i2c.h ****     };
  82:../../libs/PolitekDSP/libs/libDaisy/src/per/i2c.h **** 
  83:../../libs/PolitekDSP/libs/libDaisy/src/per/i2c.h ****     I2CHandle() : pimpl_(nullptr) {}
 1290              		.loc 10 83 5 view .LVU262
 1291              		.loc 10 83 5 is_stmt 0 view .LVU263
ARM GAS  C:\Users\matte\AppData\Local\Temp\ccP67MDp.s 			page 45


 1292              	.LBE729:
 1293              	.LBB730:
 1294              	.LBI730:
  34:../../libs/PolitekDSP/libs/libDaisy/../../libs/libDaisy/src/dev/mpr121.h ****         {
 1295              		.loc 7 34 9 is_stmt 1 view .LVU264
 1296              	.LBB731:
 1297              	.LBB732:
 1298              	.LBB733:
 1299              	.LBI733:
 1300              		.loc 9 204 15 view .LVU265
 1301              		.loc 9 204 15 is_stmt 0 view .LVU266
 1302              	.LBE733:
 1303              	.LBB734:
 1304              	.LBI734:
 1305              		.loc 9 204 15 is_stmt 1 view .LVU267
 1306              		.loc 9 204 15 is_stmt 0 view .LVU268
 1307              	.LBE734:
  36:../../libs/PolitekDSP/libs/libDaisy/../../libs/libDaisy/src/dev/mpr121.h ****             speed  = I2CHandle::Config::Speed::I2C_400KHZ;
 1308              		.loc 7 36 13 is_stmt 1 view .LVU269
  37:../../libs/PolitekDSP/libs/libDaisy/../../libs/libDaisy/src/dev/mpr121.h **** 
 1309              		.loc 7 37 13 view .LVU270
  39:../../libs/PolitekDSP/libs/libDaisy/../../libs/libDaisy/src/dev/mpr121.h ****             sda = Pin(PORTB, 9);
 1310              		.loc 7 39 13 view .LVU271
 1311              	.LBB735:
 1312              	.LBI735:
 201:../../libs/PolitekDSP/libs/libDaisy/../../libs/libDaisy/src/daisy_core.h **** 
 1313              		.loc 9 201 15 view .LVU272
 201:../../libs/PolitekDSP/libs/libDaisy/../../libs/libDaisy/src/daisy_core.h **** 
 1314              		.loc 9 201 15 is_stmt 0 view .LVU273
 1315              	.LBE735:
  40:../../libs/PolitekDSP/libs/libDaisy/../../libs/libDaisy/src/dev/mpr121.h **** 
 1316              		.loc 7 40 13 is_stmt 1 view .LVU274
 1317              	.LBB736:
 1318              	.LBI736:
 201:../../libs/PolitekDSP/libs/libDaisy/../../libs/libDaisy/src/daisy_core.h **** 
 1319              		.loc 9 201 15 view .LVU275
 201:../../libs/PolitekDSP/libs/libDaisy/../../libs/libDaisy/src/daisy_core.h **** 
 1320              		.loc 9 201 15 is_stmt 0 view .LVU276
 1321              	.LBE736:
  42:../../libs/PolitekDSP/libs/libDaisy/../../libs/libDaisy/src/dev/mpr121.h ****         }
 1322              		.loc 7 42 13 is_stmt 1 view .LVU277
 1323              	.LBE732:
 1324              	.LBE731:
 1325              	.LBE730:
 1326              	.LBE728:
 1327              	.LBE727:
 1328              	.LBE745:
 1329              	.LBE761:
 1330              	.LBB762:
 1331              	.LBB763:
  23:../../libs/PolitekDSP/libs/libDaisy/../../libs/libDaisy/src/daisy_seed.h **** 
  24:../../libs/PolitekDSP/libs/libDaisy/../../libs/libDaisy/src/daisy_seed.h ****     /** This function used to provide a pre-initialization configuraiton 
  25:../../libs/PolitekDSP/libs/libDaisy/../../libs/libDaisy/src/daisy_seed.h ****      *  it has since been deprecated, and does nothing.
  26:../../libs/PolitekDSP/libs/libDaisy/../../libs/libDaisy/src/daisy_seed.h ****      */
  27:../../libs/PolitekDSP/libs/libDaisy/../../libs/libDaisy/src/daisy_seed.h ****     void Configure();
  28:../../libs/PolitekDSP/libs/libDaisy/../../libs/libDaisy/src/daisy_seed.h **** 
  29:../../libs/PolitekDSP/libs/libDaisy/../../libs/libDaisy/src/daisy_seed.h ****     /** 
ARM GAS  C:\Users\matte\AppData\Local\Temp\ccP67MDp.s 			page 46


  30:../../libs/PolitekDSP/libs/libDaisy/../../libs/libDaisy/src/daisy_seed.h ****     Initializes the Daisy Seed and the following peripherals:
  31:../../libs/PolitekDSP/libs/libDaisy/../../libs/libDaisy/src/daisy_seed.h ****     SDRAM, QSPI, 24-bit 48kHz Audio via AK4556, Internal USB,
  32:../../libs/PolitekDSP/libs/libDaisy/../../libs/libDaisy/src/daisy_seed.h ****     as well as the built-in LED and Testpoint.
  33:../../libs/PolitekDSP/libs/libDaisy/../../libs/libDaisy/src/daisy_seed.h **** 
  34:../../libs/PolitekDSP/libs/libDaisy/../../libs/libDaisy/src/daisy_seed.h ****     ADCs, DACs, and other special peripherals (such as I2C, SPI, etc.)
  35:../../libs/PolitekDSP/libs/libDaisy/../../libs/libDaisy/src/daisy_seed.h ****     can be initialized using their specific initializers within libdaisy
  36:../../libs/PolitekDSP/libs/libDaisy/../../libs/libDaisy/src/daisy_seed.h ****     for a specific application.
  37:../../libs/PolitekDSP/libs/libDaisy/../../libs/libDaisy/src/daisy_seed.h ****     */
  38:../../libs/PolitekDSP/libs/libDaisy/../../libs/libDaisy/src/daisy_seed.h ****     void Init(bool boost = false);
  39:../../libs/PolitekDSP/libs/libDaisy/../../libs/libDaisy/src/daisy_seed.h **** 
  40:../../libs/PolitekDSP/libs/libDaisy/../../libs/libDaisy/src/daisy_seed.h ****     /** 
  41:../../libs/PolitekDSP/libs/libDaisy/../../libs/libDaisy/src/daisy_seed.h ****     Deinitializes all peripherals automatically handled by `Init`.
  42:../../libs/PolitekDSP/libs/libDaisy/../../libs/libDaisy/src/daisy_seed.h ****     */
  43:../../libs/PolitekDSP/libs/libDaisy/../../libs/libDaisy/src/daisy_seed.h ****     void DeInit();
  44:../../libs/PolitekDSP/libs/libDaisy/../../libs/libDaisy/src/daisy_seed.h **** 
  45:../../libs/PolitekDSP/libs/libDaisy/../../libs/libDaisy/src/daisy_seed.h ****     /** 
  46:../../libs/PolitekDSP/libs/libDaisy/../../libs/libDaisy/src/daisy_seed.h ****     Wait some ms before going on.
  47:../../libs/PolitekDSP/libs/libDaisy/../../libs/libDaisy/src/daisy_seed.h ****     \param del Delay time in ms.
  48:../../libs/PolitekDSP/libs/libDaisy/../../libs/libDaisy/src/daisy_seed.h ****     */
  49:../../libs/PolitekDSP/libs/libDaisy/../../libs/libDaisy/src/daisy_seed.h ****     void DelayMs(size_t del);
  50:../../libs/PolitekDSP/libs/libDaisy/../../libs/libDaisy/src/daisy_seed.h **** 
  51:../../libs/PolitekDSP/libs/libDaisy/../../libs/libDaisy/src/daisy_seed.h ****     /** 
  52:../../libs/PolitekDSP/libs/libDaisy/../../libs/libDaisy/src/daisy_seed.h ****     Returns the gpio_pin corresponding to the index 0-31.
  53:../../libs/PolitekDSP/libs/libDaisy/../../libs/libDaisy/src/daisy_seed.h ****     For the given GPIO on the Daisy Seed (labeled 1-32 in docs).
  54:../../libs/PolitekDSP/libs/libDaisy/../../libs/libDaisy/src/daisy_seed.h ****     */
  55:../../libs/PolitekDSP/libs/libDaisy/../../libs/libDaisy/src/daisy_seed.h ****     static Pin GetPin(uint8_t pin_idx);
  56:../../libs/PolitekDSP/libs/libDaisy/../../libs/libDaisy/src/daisy_seed.h **** 
  57:../../libs/PolitekDSP/libs/libDaisy/../../libs/libDaisy/src/daisy_seed.h ****     /** Begins the audio for the seeds builtin audio.
  58:../../libs/PolitekDSP/libs/libDaisy/../../libs/libDaisy/src/daisy_seed.h ****     the specified callback will get called whenever
  59:../../libs/PolitekDSP/libs/libDaisy/../../libs/libDaisy/src/daisy_seed.h ****     new data is ready to be prepared.
  60:../../libs/PolitekDSP/libs/libDaisy/../../libs/libDaisy/src/daisy_seed.h ****     */
  61:../../libs/PolitekDSP/libs/libDaisy/../../libs/libDaisy/src/daisy_seed.h ****     void StartAudio(AudioHandle::InterleavingAudioCallback cb);
  62:../../libs/PolitekDSP/libs/libDaisy/../../libs/libDaisy/src/daisy_seed.h **** 
  63:../../libs/PolitekDSP/libs/libDaisy/../../libs/libDaisy/src/daisy_seed.h ****     /** Begins the audio for the seeds builtin audio.
  64:../../libs/PolitekDSP/libs/libDaisy/../../libs/libDaisy/src/daisy_seed.h ****     the specified callback will get called whenever
  65:../../libs/PolitekDSP/libs/libDaisy/../../libs/libDaisy/src/daisy_seed.h ****     new data is ready to be prepared.
  66:../../libs/PolitekDSP/libs/libDaisy/../../libs/libDaisy/src/daisy_seed.h ****     This will use the newer non-interleaved callback.
  67:../../libs/PolitekDSP/libs/libDaisy/../../libs/libDaisy/src/daisy_seed.h ****     */
  68:../../libs/PolitekDSP/libs/libDaisy/../../libs/libDaisy/src/daisy_seed.h ****     void StartAudio(AudioHandle::AudioCallback cb);
  69:../../libs/PolitekDSP/libs/libDaisy/../../libs/libDaisy/src/daisy_seed.h **** 
  70:../../libs/PolitekDSP/libs/libDaisy/../../libs/libDaisy/src/daisy_seed.h ****     /** Changes to a new interleaved callback
  71:../../libs/PolitekDSP/libs/libDaisy/../../libs/libDaisy/src/daisy_seed.h ****      */
  72:../../libs/PolitekDSP/libs/libDaisy/../../libs/libDaisy/src/daisy_seed.h ****     void ChangeAudioCallback(AudioHandle::InterleavingAudioCallback cb);
  73:../../libs/PolitekDSP/libs/libDaisy/../../libs/libDaisy/src/daisy_seed.h **** 
  74:../../libs/PolitekDSP/libs/libDaisy/../../libs/libDaisy/src/daisy_seed.h ****     /** Changes to a new multichannel callback
  75:../../libs/PolitekDSP/libs/libDaisy/../../libs/libDaisy/src/daisy_seed.h ****      */
  76:../../libs/PolitekDSP/libs/libDaisy/../../libs/libDaisy/src/daisy_seed.h ****     void ChangeAudioCallback(AudioHandle::AudioCallback cb);
  77:../../libs/PolitekDSP/libs/libDaisy/../../libs/libDaisy/src/daisy_seed.h **** 
  78:../../libs/PolitekDSP/libs/libDaisy/../../libs/libDaisy/src/daisy_seed.h ****     /** Stops the audio if it is running. */
  79:../../libs/PolitekDSP/libs/libDaisy/../../libs/libDaisy/src/daisy_seed.h ****     void StopAudio();
  80:../../libs/PolitekDSP/libs/libDaisy/../../libs/libDaisy/src/daisy_seed.h **** 
  81:../../libs/PolitekDSP/libs/libDaisy/../../libs/libDaisy/src/daisy_seed.h ****     /** Updates the Audio Sample Rate, and reinitializes.
  82:../../libs/PolitekDSP/libs/libDaisy/../../libs/libDaisy/src/daisy_seed.h ****      ** Audio must be stopped for this to work.
  83:../../libs/PolitekDSP/libs/libDaisy/../../libs/libDaisy/src/daisy_seed.h ****      */
  84:../../libs/PolitekDSP/libs/libDaisy/../../libs/libDaisy/src/daisy_seed.h ****     void SetAudioSampleRate(SaiHandle::Config::SampleRate samplerate);
  85:../../libs/PolitekDSP/libs/libDaisy/../../libs/libDaisy/src/daisy_seed.h **** 
  86:../../libs/PolitekDSP/libs/libDaisy/../../libs/libDaisy/src/daisy_seed.h ****     /** Returns the audio sample rate in Hz as a floating point number.
ARM GAS  C:\Users\matte\AppData\Local\Temp\ccP67MDp.s 			page 47


  87:../../libs/PolitekDSP/libs/libDaisy/../../libs/libDaisy/src/daisy_seed.h ****      */
  88:../../libs/PolitekDSP/libs/libDaisy/../../libs/libDaisy/src/daisy_seed.h ****     float AudioSampleRate();
  89:../../libs/PolitekDSP/libs/libDaisy/../../libs/libDaisy/src/daisy_seed.h **** 
  90:../../libs/PolitekDSP/libs/libDaisy/../../libs/libDaisy/src/daisy_seed.h ****     /** Sets the number of samples processed per channel by the audio callback.
  91:../../libs/PolitekDSP/libs/libDaisy/../../libs/libDaisy/src/daisy_seed.h ****      */
  92:../../libs/PolitekDSP/libs/libDaisy/../../libs/libDaisy/src/daisy_seed.h ****     void SetAudioBlockSize(size_t blocksize);
  93:../../libs/PolitekDSP/libs/libDaisy/../../libs/libDaisy/src/daisy_seed.h **** 
  94:../../libs/PolitekDSP/libs/libDaisy/../../libs/libDaisy/src/daisy_seed.h ****     /** Returns the number of samples per channel in a block of audio. */
  95:../../libs/PolitekDSP/libs/libDaisy/../../libs/libDaisy/src/daisy_seed.h ****     size_t AudioBlockSize();
  96:../../libs/PolitekDSP/libs/libDaisy/../../libs/libDaisy/src/daisy_seed.h **** 
  97:../../libs/PolitekDSP/libs/libDaisy/../../libs/libDaisy/src/daisy_seed.h ****     /** Returns the rate in Hz that the Audio callback is called */
  98:../../libs/PolitekDSP/libs/libDaisy/../../libs/libDaisy/src/daisy_seed.h ****     float AudioCallbackRate() const;
  99:../../libs/PolitekDSP/libs/libDaisy/../../libs/libDaisy/src/daisy_seed.h **** 
 100:../../libs/PolitekDSP/libs/libDaisy/../../libs/libDaisy/src/daisy_seed.h ****     /** Returns the SAI Handle for the Daisy Seed 
 101:../../libs/PolitekDSP/libs/libDaisy/../../libs/libDaisy/src/daisy_seed.h ****      *  This can be useful when adding a secondary codec,
 102:../../libs/PolitekDSP/libs/libDaisy/../../libs/libDaisy/src/daisy_seed.h ****      *  the result of this function can be passed to the audio reinit 
 103:../../libs/PolitekDSP/libs/libDaisy/../../libs/libDaisy/src/daisy_seed.h ****      *  with an SAI2 configuration
 104:../../libs/PolitekDSP/libs/libDaisy/../../libs/libDaisy/src/daisy_seed.h ****      */
 105:../../libs/PolitekDSP/libs/libDaisy/../../libs/libDaisy/src/daisy_seed.h ****     const SaiHandle& AudioSaiHandle() const;
 106:../../libs/PolitekDSP/libs/libDaisy/../../libs/libDaisy/src/daisy_seed.h **** 
 107:../../libs/PolitekDSP/libs/libDaisy/../../libs/libDaisy/src/daisy_seed.h ****     /** Sets the state of the built in LED
 108:../../libs/PolitekDSP/libs/libDaisy/../../libs/libDaisy/src/daisy_seed.h ****      */
 109:../../libs/PolitekDSP/libs/libDaisy/../../libs/libDaisy/src/daisy_seed.h ****     void SetLed(bool state);
 110:../../libs/PolitekDSP/libs/libDaisy/../../libs/libDaisy/src/daisy_seed.h **** 
 111:../../libs/PolitekDSP/libs/libDaisy/../../libs/libDaisy/src/daisy_seed.h ****     /** Sets the state of the test point near pin 10
 112:../../libs/PolitekDSP/libs/libDaisy/../../libs/libDaisy/src/daisy_seed.h ****      */
 113:../../libs/PolitekDSP/libs/libDaisy/../../libs/libDaisy/src/daisy_seed.h ****     void SetTestPoint(bool state);
 114:../../libs/PolitekDSP/libs/libDaisy/../../libs/libDaisy/src/daisy_seed.h **** 
 115:../../libs/PolitekDSP/libs/libDaisy/../../libs/libDaisy/src/daisy_seed.h ****     /** Print formatted debug log message
 116:../../libs/PolitekDSP/libs/libDaisy/../../libs/libDaisy/src/daisy_seed.h ****      */
 117:../../libs/PolitekDSP/libs/libDaisy/../../libs/libDaisy/src/daisy_seed.h ****     template <typename... VA>
 118:../../libs/PolitekDSP/libs/libDaisy/../../libs/libDaisy/src/daisy_seed.h ****     static void Print(const char* format, VA... va)
 119:../../libs/PolitekDSP/libs/libDaisy/../../libs/libDaisy/src/daisy_seed.h ****     {
 120:../../libs/PolitekDSP/libs/libDaisy/../../libs/libDaisy/src/daisy_seed.h ****         Log::Print(format, va...);
 121:../../libs/PolitekDSP/libs/libDaisy/../../libs/libDaisy/src/daisy_seed.h ****     }
 122:../../libs/PolitekDSP/libs/libDaisy/../../libs/libDaisy/src/daisy_seed.h **** 
 123:../../libs/PolitekDSP/libs/libDaisy/../../libs/libDaisy/src/daisy_seed.h ****     /** Print formatted debug log message with automatic line termination
 124:../../libs/PolitekDSP/libs/libDaisy/../../libs/libDaisy/src/daisy_seed.h ****     */
 125:../../libs/PolitekDSP/libs/libDaisy/../../libs/libDaisy/src/daisy_seed.h ****     template <typename... VA>
 126:../../libs/PolitekDSP/libs/libDaisy/../../libs/libDaisy/src/daisy_seed.h ****     static void PrintLine(const char* format, VA... va)
 127:../../libs/PolitekDSP/libs/libDaisy/../../libs/libDaisy/src/daisy_seed.h ****     {
 128:../../libs/PolitekDSP/libs/libDaisy/../../libs/libDaisy/src/daisy_seed.h ****         Log::PrintLine(format, va...);
 129:../../libs/PolitekDSP/libs/libDaisy/../../libs/libDaisy/src/daisy_seed.h ****     }
 130:../../libs/PolitekDSP/libs/libDaisy/../../libs/libDaisy/src/daisy_seed.h **** 
 131:../../libs/PolitekDSP/libs/libDaisy/../../libs/libDaisy/src/daisy_seed.h ****     /** Start the logging session. Optionally wait for terminal connection before proceeding.
 132:../../libs/PolitekDSP/libs/libDaisy/../../libs/libDaisy/src/daisy_seed.h ****     */
 133:../../libs/PolitekDSP/libs/libDaisy/../../libs/libDaisy/src/daisy_seed.h ****     static void StartLog(bool wait_for_pc = false)
 134:../../libs/PolitekDSP/libs/libDaisy/../../libs/libDaisy/src/daisy_seed.h ****     {
 135:../../libs/PolitekDSP/libs/libDaisy/../../libs/libDaisy/src/daisy_seed.h ****         Log::StartLog(wait_for_pc);
 1332              		.loc 1 135 22 is_stmt 0 view .LVU278
 1333 001a 2046     		mov	r0, r4
 1334              	.LBE763:
 1335              	.LBE762:
 1336              	.LBB766:
 1337              	.LBB746:
  92:../../libs/PolitekDSP/libs/libDaisy/../../libs/libDaisy/src/dev/mpr121.h ****     ~Mpr121() {}
 1338              		.loc 7 92 5 view .LVU279
ARM GAS  C:\Users\matte\AppData\Local\Temp\ccP67MDp.s 			page 48


 1339 001c 1396     		str	r6, [sp, #76]
 1340              	.LBE746:
 1341              	.LBE766:
 1342              	.LBB767:
 1343              	.LBB768:
 1344              	.LBB769:
 1345              	.LBB770:
 1346              	.LBB771:
 1347              	.LBB772:
  29:../../libs/PolitekDSP/libs/libDaisy/src/per/i2c.h ****     {
 1348              		.loc 10 29 12 view .LVU280
 1349 001e 4FF0100A 		mov	r10, #16
 1350              	.LBE772:
 1351              	.LBE771:
 1352              	.LBE770:
 1353              	.LBE769:
 1354              	.LBE768:
 1355              	.LBE767:
 1356              	.LBB812:
 1357              	.LBB747:
  92:../../libs/PolitekDSP/libs/libDaisy/../../libs/libDaisy/src/dev/mpr121.h ****     ~Mpr121() {}
 1358              		.loc 7 92 5 view .LVU281
 1359 0022 1C97     		str	r7, [sp, #112]
 1360              	.LVL63:
  92:../../libs/PolitekDSP/libs/libDaisy/../../libs/libDaisy/src/dev/mpr121.h ****     ~Mpr121() {}
 1361              		.loc 7 92 5 view .LVU282
 1362              	.LBE747:
 1363              	.LBE812:
  40:main.cpp      ****     
  41:main.cpp      ****     // init log to pc, program waits for serial monitor connection
  42:main.cpp      ****     hw.StartLog(true);
 1364              		.loc 8 42 5 is_stmt 1 view .LVU283
 1365              	.LBB813:
 1366              	.LBI762:
 133:../../libs/PolitekDSP/libs/libDaisy/../../libs/libDaisy/src/daisy_seed.h ****     {
 1367              		.loc 1 133 17 view .LVU284
 1368              	.LBB764:
 1369              		.loc 1 135 9 view .LVU285
 1370              	.LBE764:
 1371              	.LBE813:
 1372              	.LBB814:
 1373              	.LBB748:
  92:../../libs/PolitekDSP/libs/libDaisy/../../libs/libDaisy/src/dev/mpr121.h ****     ~Mpr121() {}
 1374              		.loc 7 92 5 is_stmt 0 view .LVU286
 1375 0024 CDE91578 		strd	r7, r8, [sp, #84]
 1376 0028 CDE91946 		strd	r4, r6, [sp, #100]
 1377              	.LBB741:
 1378              	.LBB725:
 1379              	.LBB723:
 1380              	.LBB721:
 1381              	.LBB719:
  37:../../libs/PolitekDSP/libs/libDaisy/../../libs/libDaisy/src/dev/mpr121.h **** 
 1382              		.loc 7 37 20 view .LVU287
 1383 002c CDE91154 		strd	r5, r4, [sp, #68]
 1384              	.LBE719:
 1385              	.LBE721:
 1386              	.LBE723:
ARM GAS  C:\Users\matte\AppData\Local\Temp\ccP67MDp.s 			page 49


 1387              	.LBE725:
 1388              	.LBE741:
 1389              	.LBB742:
 1390              	.LBB740:
 1391              	.LBB739:
 1392              	.LBB738:
 1393              	.LBB737:
  36:../../libs/PolitekDSP/libs/libDaisy/../../libs/libDaisy/src/dev/mpr121.h ****             speed  = I2CHandle::Config::Speed::I2C_400KHZ;
 1394              		.loc 7 36 20 view .LVU288
 1395 0030 CDE91755 		strd	r5, r5, [sp, #92]
 1396              	.LBE737:
 1397              	.LBE738:
 1398              	.LBE739:
 1399              	.LBE740:
 1400              	.LBE742:
 1401              	.LBE748:
 1402              	.LBE814:
 1403              	.LBB815:
 1404              	.LBB765:
 1405              		.loc 1 135 22 view .LVU289
 1406 0034 FFF7FEFF 		bl	_ZN5daisy6LoggerILNS_17LoggerDestinationE1EE8StartLogEb
 1407              	.LVL64:
 1408              		.loc 1 135 22 view .LVU290
 1409              	.LBE765:
 1410              	.LBE815:
  43:main.cpp      ****     hw.PrintLine ("Entering program...");
 1411              		.loc 8 43 5 is_stmt 1 view .LVU291
 1412              	.LBB816:
 1413              	.LBI816:
 126:../../libs/PolitekDSP/libs/libDaisy/../../libs/libDaisy/src/daisy_seed.h ****     {
 1414              		.loc 1 126 17 view .LVU292
 1415              	.LBB817:
 128:../../libs/PolitekDSP/libs/libDaisy/../../libs/libDaisy/src/daisy_seed.h ****     }
 1416              		.loc 1 128 23 is_stmt 0 view .LVU293
 1417 0038 3848     		ldr	r0, .L23+8
 1418 003a FFF7FEFF 		bl	_ZN5daisy6LoggerILNS_17LoggerDestinationE1EE9PrintLineEPKcz
 1419              	.LVL65:
 128:../../libs/PolitekDSP/libs/libDaisy/../../libs/libDaisy/src/daisy_seed.h ****     }
 1420              		.loc 1 128 23 view .LVU294
 1421              	.LBE817:
 1422              	.LBE816:
  44:main.cpp      **** 
  45:main.cpp      ****     uint8_t touchThreshold = 0;
 1423              		.loc 8 45 5 is_stmt 1 view .LVU295
  46:main.cpp      ****     uint8_t releaseThreshold = 0;
 1424              		.loc 8 46 5 view .LVU296
  47:main.cpp      ****     uint8_t newTh = 0;
 1425              		.loc 8 47 5 view .LVU297
  48:main.cpp      ****     int iteration = 0;
 1426              		.loc 8 48 5 view .LVU298
  49:main.cpp      ****     
  50:main.cpp      ****     // mpr121 initialization
  51:main.cpp      ****     mpr121ObjConf.transport_config.speed = I2CHandle::Config::Speed::I2C_400KHZ;
 1427              		.loc 8 51 5 view .LVU299
  52:main.cpp      ****     if (cap.Init(mpr121ObjConf) != Mpr121I2C::Result::OK)
 1428              		.loc 8 52 5 view .LVU300
 1429              	.LBB818:
ARM GAS  C:\Users\matte\AppData\Local\Temp\ccP67MDp.s 			page 50


 1430              	.LBI767:
 117:../../libs/PolitekDSP/libs/libDaisy/../../libs/libDaisy/src/dev/mpr121.h ****     {
 1431              		.loc 7 117 12 view .LVU301
 1432 003e 0DF1440E 		add	lr, sp, #68
 1433              	.LVL66:
 1434              	.LBB809:
 119:../../libs/PolitekDSP/libs/libDaisy/../../libs/libDaisy/src/dev/mpr121.h **** 
 1435              		.loc 7 119 9 is_stmt 0 view .LVU302
 1436 0042 8DF85470 		strb	r7, [sp, #84]
 1437 0046 0DF11C0C 		add	ip, sp, #28
 1438 004a ADF85880 		strh	r8, [sp, #88]	@ movhi
 1439              	.LVL67:
 1440              	.LBB785:
 1441              	.LBB780:
  49:../../libs/PolitekDSP/libs/libDaisy/../../libs/libDaisy/src/dev/mpr121.h **** 
 1442              		.loc 7 49 17 view .LVU303
 1443 004e 18AF     		add	r7, sp, #96
 1444              	.LBE780:
 1445              	.LBE785:
 119:../../libs/PolitekDSP/libs/libDaisy/../../libs/libDaisy/src/dev/mpr121.h **** 
 1446              		.loc 7 119 9 view .LVU304
 1447 0050 1396     		str	r6, [sp, #76]
 1448              	.LBB786:
 1449              	.LBB781:
  49:../../libs/PolitekDSP/libs/libDaisy/../../libs/libDaisy/src/dev/mpr121.h **** 
 1450              		.loc 7 49 17 view .LVU305
 1451 0052 E346     		mov	fp, ip
 1452 0054 E146     		mov	r9, ip
  59:../../libs/PolitekDSP/libs/libDaisy/../../libs/libDaisy/src/dev/mpr121.h ****     }
 1453              		.loc 7 59 50 view .LVU306
 1454 0056 0CAE     		add	r6, sp, #48
  52:../../libs/PolitekDSP/libs/libDaisy/../../libs/libDaisy/src/dev/mpr121.h ****         i2c_conf.periph = config.periph;
 1455              		.loc 7 52 25 view .LVU307
 1456 0058 0F95     		str	r5, [sp, #60]
 1457              	.LBE781:
 1458              	.LBE786:
 1459              	.LBB787:
 1460              	.LBB788:
 1461              	.LBB789:
 1462              	.LBB790:
  66:../../libs/PolitekDSP/libs/libDaisy/../../libs/libDaisy/src/dev/mpr121.h ****                    config_.dev_addr, address, 1, data, size, 10);
 1463              		.loc 7 66 41 view .LVU308
 1464 005a 4FF00A08 		mov	r8, #10
 1465              	.LBE790:
 1466              	.LBE789:
 1467              	.LBE788:
 1468              	.LBE787:
 1469              	.LBB796:
 1470              	.LBB782:
  53:../../libs/PolitekDSP/libs/libDaisy/../../libs/libDaisy/src/dev/mpr121.h ****         i2c_conf.speed  = config.speed;
 1471              		.loc 7 53 25 view .LVU309
 1472 005e 0C95     		str	r5, [sp, #48]
  54:../../libs/PolitekDSP/libs/libDaisy/../../libs/libDaisy/src/dev/mpr121.h **** 
 1473              		.loc 7 54 25 view .LVU310
 1474 0060 0E94     		str	r4, [sp, #56]
 1475              	.LBB778:
 1476              	.LBB776:
ARM GAS  C:\Users\matte\AppData\Local\Temp\ccP67MDp.s 			page 51


  29:../../libs/PolitekDSP/libs/libDaisy/src/per/i2c.h ****     {
 1477              		.loc 10 29 12 view .LVU311
 1478 0062 8DF840A0 		strb	r10, [sp, #64]
 1479              	.LBE776:
 1480              	.LBE778:
 1481              	.LBE782:
 1482              	.LBE796:
 119:../../libs/PolitekDSP/libs/libDaisy/../../libs/libDaisy/src/dev/mpr121.h **** 
 1483              		.loc 7 119 9 view .LVU312
 1484 0066 CDE91154 		strd	r5, r4, [sp, #68]
 1485 006a BEE80F00 		ldmia	lr!, {r0, r1, r2, r3}
 1486              	.LVL68:
 119:../../libs/PolitekDSP/libs/libDaisy/../../libs/libDaisy/src/dev/mpr121.h **** 
 1487              		.loc 7 119 9 view .LVU313
 1488 006e ACE80F00 		stmia	ip!, {r0, r1, r2, r3}
 1489              	.LBB797:
 1490              	.LBB783:
  56:../../libs/PolitekDSP/libs/libDaisy/../../libs/libDaisy/src/dev/mpr121.h ****         i2c_conf.pin_config.sda = config.sda;
 1491              		.loc 7 56 33 view .LVU314
 1492 0072 BDF82430 		ldrh	r3, [sp, #36]
 1493 0076 DEF800E0 		ldr	lr, [lr]
 1494              	.LVL69:
  56:../../libs/PolitekDSP/libs/libDaisy/../../libs/libDaisy/src/dev/mpr121.h ****         i2c_conf.pin_config.sda = config.sda;
 1495              		.loc 7 56 33 view .LVU315
 1496 007a ADF83430 		strh	r3, [sp, #52]	@ movhi
  57:../../libs/PolitekDSP/libs/libDaisy/../../libs/libDaisy/src/dev/mpr121.h **** 
 1497              		.loc 7 57 33 view .LVU316
 1498 007e BDF82630 		ldrh	r3, [sp, #38]
 1499 0082 CCF800E0 		str	lr, [ip]
 1500              	.LBE783:
 1501              	.LBI769:
  47:../../libs/PolitekDSP/libs/libDaisy/../../libs/libDaisy/src/dev/mpr121.h ****     {
 1502              		.loc 7 47 17 is_stmt 1 view .LVU317
 1503              	.LBB784:
  49:../../libs/PolitekDSP/libs/libDaisy/../../libs/libDaisy/src/dev/mpr121.h **** 
 1504              		.loc 7 49 9 view .LVU318
  57:../../libs/PolitekDSP/libs/libDaisy/../../libs/libDaisy/src/dev/mpr121.h **** 
 1505              		.loc 7 57 33 is_stmt 0 view .LVU319
 1506 0086 ADF83630 		strh	r3, [sp, #54]	@ movhi
  49:../../libs/PolitekDSP/libs/libDaisy/../../libs/libDaisy/src/dev/mpr121.h **** 
 1507              		.loc 7 49 17 view .LVU320
 1508 008a BBE80F00 		ldmia	fp!, {r0, r1, r2, r3}
 1509 008e 0FC7     		stmia	r7!, {r0, r1, r2, r3}
  59:../../libs/PolitekDSP/libs/libDaisy/../../libs/libDaisy/src/dev/mpr121.h ****     }
 1510              		.loc 7 59 50 view .LVU321
 1511 0090 3146     		mov	r1, r6
  49:../../libs/PolitekDSP/libs/libDaisy/../../libs/libDaisy/src/dev/mpr121.h **** 
 1512              		.loc 7 49 17 view .LVU322
 1513 0092 87F800E0 		strb	lr, [r7]
  51:../../libs/PolitekDSP/libs/libDaisy/../../libs/libDaisy/src/dev/mpr121.h ****         i2c_conf.mode   = I2CHandle::Config::Mode::I2C_MASTER;
 1514              		.loc 7 51 9 is_stmt 1 view .LVU323
 1515              	.LVL70:
 1516              	.LBB779:
 1517              	.LBI771:
  29:../../libs/PolitekDSP/libs/libDaisy/src/per/i2c.h ****     {
 1518              		.loc 10 29 12 view .LVU324
 1519              	.LBB777:
ARM GAS  C:\Users\matte\AppData\Local\Temp\ccP67MDp.s 			page 52


 1520              	.LBB773:
 1521              	.LBI773:
  59:../../libs/PolitekDSP/libs/libDaisy/src/per/i2c.h ****             Pin scl;  /**< & */
 1522              		.loc 10 59 9 view .LVU325
 1523              	.LBB774:
 1524              	.LBI774:
 1525              		.loc 9 204 15 view .LVU326
 1526              		.loc 9 204 15 is_stmt 0 view .LVU327
 1527              	.LBE774:
 1528              	.LBB775:
 1529              	.LBI775:
 1530              		.loc 9 204 15 is_stmt 1 view .LVU328
 1531              		.loc 9 204 15 is_stmt 0 view .LVU329
 1532              	.LBE775:
 1533              	.LBE773:
 1534              	.LBE777:
 1535              	.LBE779:
  52:../../libs/PolitekDSP/libs/libDaisy/../../libs/libDaisy/src/dev/mpr121.h ****         i2c_conf.periph = config.periph;
 1536              		.loc 7 52 9 is_stmt 1 view .LVU330
  53:../../libs/PolitekDSP/libs/libDaisy/../../libs/libDaisy/src/dev/mpr121.h ****         i2c_conf.speed  = config.speed;
 1537              		.loc 7 53 9 view .LVU331
  54:../../libs/PolitekDSP/libs/libDaisy/../../libs/libDaisy/src/dev/mpr121.h **** 
 1538              		.loc 7 54 9 view .LVU332
  56:../../libs/PolitekDSP/libs/libDaisy/../../libs/libDaisy/src/dev/mpr121.h ****         i2c_conf.pin_config.sda = config.sda;
 1539              		.loc 7 56 9 view .LVU333
  57:../../libs/PolitekDSP/libs/libDaisy/../../libs/libDaisy/src/dev/mpr121.h **** 
 1540              		.loc 7 57 9 view .LVU334
  59:../../libs/PolitekDSP/libs/libDaisy/../../libs/libDaisy/src/dev/mpr121.h ****     }
 1541              		.loc 7 59 9 view .LVU335
  59:../../libs/PolitekDSP/libs/libDaisy/../../libs/libDaisy/src/dev/mpr121.h ****     }
 1542              		.loc 7 59 50 is_stmt 0 view .LVU336
 1543 0096 17A8     		add	r0, sp, #92
 1544              	.LVL71:
  59:../../libs/PolitekDSP/libs/libDaisy/../../libs/libDaisy/src/dev/mpr121.h ****     }
 1545              		.loc 7 59 50 view .LVU337
 1546 0098 FFF7FEFF 		bl	_ZN5daisy9I2CHandle4InitERKNS0_6ConfigE
 1547              	.LVL72:
  59:../../libs/PolitekDSP/libs/libDaisy/../../libs/libDaisy/src/dev/mpr121.h ****     }
 1548              		.loc 7 59 50 view .LVU338
 1549              	.LBE784:
 1550              	.LBE797:
 1551              	.LBB798:
 1552              	.LBI798:
 1553              		.loc 7 336 10 is_stmt 1 view .LVU339
 1554              	.LBB799:
 1555              		.loc 7 336 55 is_stmt 0 view .LVU340
 1556 009c 9DF87430 		ldrb	r3, [sp, #116]	@ zero_extendqisi2
 1557              	.LBE799:
 1558              	.LBE798:
 124:../../libs/PolitekDSP/libs/libDaisy/../../libs/libDaisy/src/dev/mpr121.h ****         System::Delay(1);
 1559              		.loc 7 124 22 view .LVU341
 1560 00a0 8021     		movs	r1, #128
 1561 00a2 6322     		movs	r2, #99
 1562              	.LBB802:
 1563              	.LBB800:
 1564              		.loc 7 336 55 view .LVU342
 1565 00a4 A842     		cmp	r0, r5
ARM GAS  C:\Users\matte\AppData\Local\Temp\ccP67MDp.s 			page 53


 1566 00a6 18BF     		it	ne
 1567 00a8 43F00103 		orrne	r3, r3, #1
 1568              	.LBE800:
 1569              	.LBE802:
 124:../../libs/PolitekDSP/libs/libDaisy/../../libs/libDaisy/src/dev/mpr121.h ****         System::Delay(1);
 1570              		.loc 7 124 22 view .LVU343
 1571 00ac 11A8     		add	r0, sp, #68
 1572              	.LVL73:
 1573              	.LBB803:
 1574              	.LBB801:
 1575              		.loc 7 336 55 view .LVU344
 1576 00ae 8DF87430 		strb	r3, [sp, #116]
 1577              	.LVL74:
 1578              		.loc 7 336 55 view .LVU345
 1579              	.LBE801:
 1580              	.LBE803:
 124:../../libs/PolitekDSP/libs/libDaisy/../../libs/libDaisy/src/dev/mpr121.h ****         System::Delay(1);
 1581              		.loc 7 124 22 view .LVU346
 1582 00b2 FFF7FEFF 		bl	_ZN5daisy6Mpr121INS_18Mpr121I2CTransportEE13WriteRegisterEhh
 1583              	.LVL75:
 125:../../libs/PolitekDSP/libs/libDaisy/../../libs/libDaisy/src/dev/mpr121.h **** 
 1584              		.loc 7 125 22 view .LVU347
 1585 00b6 2046     		mov	r0, r4
 1586 00b8 FFF7FEFF 		bl	_ZN5daisy6System5DelayEm
 1587              	.LVL76:
 127:../../libs/PolitekDSP/libs/libDaisy/../../libs/libDaisy/src/dev/mpr121.h **** 
 1588              		.loc 7 127 22 view .LVU348
 1589 00bc 2A46     		mov	r2, r5
 1590 00be 5E21     		movs	r1, #94
 1591 00c0 11A8     		add	r0, sp, #68
 1592              	.LVL77:
 127:../../libs/PolitekDSP/libs/libDaisy/../../libs/libDaisy/src/dev/mpr121.h **** 
 1593              		.loc 7 127 22 view .LVU349
 1594 00c2 FFF7FEFF 		bl	_ZN5daisy6Mpr121INS_18Mpr121I2CTransportEE13WriteRegisterEhh
 1595              	.LVL78:
 1596              	.LBB804:
 1597              	.LBI787:
 232:../../libs/PolitekDSP/libs/libDaisy/../../libs/libDaisy/src/dev/mpr121.h ****     {
 1598              		.loc 7 232 13 is_stmt 1 view .LVU350
 1599              	.LBB795:
 1600              	.LBB792:
 1601              	.LBI789:
  63:../../libs/PolitekDSP/libs/libDaisy/../../libs/libDaisy/src/dev/mpr121.h ****     {
 1602              		.loc 7 63 10 view .LVU351
 1603              	.LBB791:
  65:../../libs/PolitekDSP/libs/libDaisy/../../libs/libDaisy/src/dev/mpr121.h ****                != i2c_.ReadDataAtAddress(
 1604              		.loc 7 65 9 view .LVU352
  66:../../libs/PolitekDSP/libs/libDaisy/../../libs/libDaisy/src/dev/mpr121.h ****                    config_.dev_addr, address, 1, data, size, 10);
 1605              		.loc 7 66 41 is_stmt 0 view .LVU353
 1606 00c6 2346     		mov	r3, r4
 1607 00c8 5D22     		movs	r2, #93
 1608 00ca 9DF87010 		ldrb	r1, [sp, #112]	@ zero_extendqisi2
 1609 00ce 17A8     		add	r0, sp, #92
 1610              	.LVL79:
  66:../../libs/PolitekDSP/libs/libDaisy/../../libs/libDaisy/src/dev/mpr121.h ****                    config_.dev_addr, address, 1, data, size, 10);
 1611              		.loc 7 66 41 view .LVU354
 1612 00d0 0096     		str	r6, [sp]
ARM GAS  C:\Users\matte\AppData\Local\Temp\ccP67MDp.s 			page 54


 1613 00d2 CDE90148 		strd	r4, r8, [sp, #4]
 1614 00d6 FFF7FEFF 		bl	_ZN5daisy9I2CHandle17ReadDataAtAddressEtttPhtm
 1615              	.LVL80:
  66:../../libs/PolitekDSP/libs/libDaisy/../../libs/libDaisy/src/dev/mpr121.h ****                    config_.dev_addr, address, 1, data, size, 10);
 1616              		.loc 7 66 41 view .LVU355
 1617              	.LBE791:
 1618              	.LBE792:
 1619              	.LBB793:
 1620              	.LBI793:
 1621              		.loc 7 336 10 is_stmt 1 view .LVU356
 1622              	.LBB794:
 1623              		.loc 7 336 55 is_stmt 0 view .LVU357
 1624 00da 9DF87430 		ldrb	r3, [sp, #116]	@ zero_extendqisi2
 1625 00de A842     		cmp	r0, r5
 1626 00e0 18BF     		it	ne
 1627 00e2 43F00103 		orrne	r3, r3, #1
 1628 00e6 8DF87430 		strb	r3, [sp, #116]
 1629              	.LVL81:
 1630              		.loc 7 336 55 view .LVU358
 1631              	.LBE794:
 1632              	.LBE793:
 237:../../libs/PolitekDSP/libs/libDaisy/../../libs/libDaisy/src/dev/mpr121.h ****     }
 1633              		.loc 7 237 16 view .LVU359
 1634 00ea 9DF83030 		ldrb	r3, [sp, #48]	@ zero_extendqisi2
 1635              	.LVL82:
 237:../../libs/PolitekDSP/libs/libDaisy/../../libs/libDaisy/src/dev/mpr121.h ****     }
 1636              		.loc 7 237 16 view .LVU360
 1637              	.LBE795:
 1638              	.LBE804:
 131:../../libs/PolitekDSP/libs/libDaisy/../../libs/libDaisy/src/dev/mpr121.h ****             return ERR;
 1639              		.loc 7 131 9 view .LVU361
 1640 00ee 242B     		cmp	r3, #36
 1641 00f0 16D0     		beq	.L22
 1642              	.LVL83:
 1643              	.L17:
 131:../../libs/PolitekDSP/libs/libDaisy/../../libs/libDaisy/src/dev/mpr121.h ****             return ERR;
 1644              		.loc 7 131 9 view .LVU362
 1645              	.LBE809:
 1646              	.LBE818:
  53:main.cpp      ****     {
  54:main.cpp      ****         while (1) {
 1647              		.loc 8 54 9 is_stmt 1 discriminator 1 view .LVU363
  55:main.cpp      ****             hw.SetLed(true); hw.DelayMs(100);
 1648              		.loc 8 55 13 discriminator 1 view .LVU364
 1649              		.loc 8 55 22 is_stmt 0 discriminator 1 view .LVU365
 1650 00f2 0121     		movs	r1, #1
 1651 00f4 0848     		ldr	r0, .L23+4
 1652 00f6 FFF7FEFF 		bl	_ZN5daisy9DaisySeed6SetLedEb
 1653              	.LVL84:
 1654              		.loc 8 55 30 is_stmt 1 discriminator 1 view .LVU366
 1655              		.loc 8 55 40 is_stmt 0 discriminator 1 view .LVU367
 1656 00fa 6421     		movs	r1, #100
 1657 00fc 0648     		ldr	r0, .L23+4
 1658 00fe FFF7FEFF 		bl	_ZN5daisy9DaisySeed7DelayMsEj
 1659              	.LVL85:
  56:main.cpp      ****             hw.SetLed(false); hw.DelayMs(100);
 1660              		.loc 8 56 13 is_stmt 1 discriminator 1 view .LVU368
ARM GAS  C:\Users\matte\AppData\Local\Temp\ccP67MDp.s 			page 55


 1661              		.loc 8 56 22 is_stmt 0 discriminator 1 view .LVU369
 1662 0102 0021     		movs	r1, #0
 1663 0104 0448     		ldr	r0, .L23+4
 1664 0106 FFF7FEFF 		bl	_ZN5daisy9DaisySeed6SetLedEb
 1665              	.LVL86:
 1666              		.loc 8 56 31 is_stmt 1 discriminator 1 view .LVU370
 1667              		.loc 8 56 41 is_stmt 0 discriminator 1 view .LVU371
 1668 010a 6421     		movs	r1, #100
 1669 010c 0248     		ldr	r0, .L23+4
 1670 010e FFF7FEFF 		bl	_ZN5daisy9DaisySeed7DelayMsEj
 1671              	.LVL87:
  54:main.cpp      ****             hw.SetLed(true); hw.DelayMs(100);
 1672              		.loc 8 54 9 is_stmt 1 discriminator 1 view .LVU372
 1673 0112 EEE7     		b	.L17
 1674              	.L24:
 1675              		.align	2
 1676              	.L23:
 1677 0114 01080109 		.word	151062529
 1678 0118 00000000 		.word	.LANCHOR0
 1679 011c 00000000 		.word	.LC0
 1680              	.LVL88:
 1681              	.L22:
 1682              	.LBB819:
 1683              	.LBB810:
 134:../../libs/PolitekDSP/libs/libDaisy/../../libs/libDaisy/src/dev/mpr121.h ****         WriteRegister(MPR121_MHDR, 0x01);
 1684              		.loc 7 134 22 is_stmt 0 view .LVU373
 1685 0120 9DF85810 		ldrb	r1, [sp, #88]	@ zero_extendqisi2
 1686 0124 11A8     		add	r0, sp, #68
 1687              	.LVL89:
 134:../../libs/PolitekDSP/libs/libDaisy/../../libs/libDaisy/src/dev/mpr121.h ****         WriteRegister(MPR121_MHDR, 0x01);
 1688              		.loc 7 134 22 view .LVU374
 1689 0126 9DF85920 		ldrb	r2, [sp, #89]	@ zero_extendqisi2
 1690 012a FFF7FEFF 		bl	_ZN5daisy6Mpr121INS_18Mpr121I2CTransportEE13SetThresholdsEhh
 1691              	.LVL90:
 135:../../libs/PolitekDSP/libs/libDaisy/../../libs/libDaisy/src/dev/mpr121.h ****         WriteRegister(MPR121_NHDR, 0x01);
 1692              		.loc 7 135 22 view .LVU375
 1693 012e 2246     		mov	r2, r4
 1694 0130 2B21     		movs	r1, #43
 1695 0132 11A8     		add	r0, sp, #68
 1696              	.LVL91:
 135:../../libs/PolitekDSP/libs/libDaisy/../../libs/libDaisy/src/dev/mpr121.h ****         WriteRegister(MPR121_NHDR, 0x01);
 1697              		.loc 7 135 22 view .LVU376
 1698 0134 FFF7FEFF 		bl	_ZN5daisy6Mpr121INS_18Mpr121I2CTransportEE13WriteRegisterEhh
 1699              	.LVL92:
 136:../../libs/PolitekDSP/libs/libDaisy/../../libs/libDaisy/src/dev/mpr121.h ****         WriteRegister(MPR121_NCLR, 0x0E);
 1700              		.loc 7 136 22 view .LVU377
 1701 0138 2246     		mov	r2, r4
 1702 013a 2C21     		movs	r1, #44
 1703 013c 11A8     		add	r0, sp, #68
 1704              	.LVL93:
 136:../../libs/PolitekDSP/libs/libDaisy/../../libs/libDaisy/src/dev/mpr121.h ****         WriteRegister(MPR121_NCLR, 0x0E);
 1705              		.loc 7 136 22 view .LVU378
 1706 013e FFF7FEFF 		bl	_ZN5daisy6Mpr121INS_18Mpr121I2CTransportEE13WriteRegisterEhh
 1707              	.LVL94:
 137:../../libs/PolitekDSP/libs/libDaisy/../../libs/libDaisy/src/dev/mpr121.h ****         WriteRegister(MPR121_FDLR, 0x00);
 1708              		.loc 7 137 22 view .LVU379
 1709 0142 2D21     		movs	r1, #45
ARM GAS  C:\Users\matte\AppData\Local\Temp\ccP67MDp.s 			page 56


 1710 0144 11A8     		add	r0, sp, #68
 1711              	.LVL95:
 137:../../libs/PolitekDSP/libs/libDaisy/../../libs/libDaisy/src/dev/mpr121.h ****         WriteRegister(MPR121_FDLR, 0x00);
 1712              		.loc 7 137 22 view .LVU380
 1713 0146 0E22     		movs	r2, #14
 1714 0148 FFF7FEFF 		bl	_ZN5daisy6Mpr121INS_18Mpr121I2CTransportEE13WriteRegisterEhh
 1715              	.LVL96:
 138:../../libs/PolitekDSP/libs/libDaisy/../../libs/libDaisy/src/dev/mpr121.h **** 
 1716              		.loc 7 138 22 view .LVU381
 1717 014c 2A46     		mov	r2, r5
 1718 014e 2E21     		movs	r1, #46
 1719 0150 11A8     		add	r0, sp, #68
 1720              	.LVL97:
 138:../../libs/PolitekDSP/libs/libDaisy/../../libs/libDaisy/src/dev/mpr121.h **** 
 1721              		.loc 7 138 22 view .LVU382
 1722 0152 FFF7FEFF 		bl	_ZN5daisy6Mpr121INS_18Mpr121I2CTransportEE13WriteRegisterEhh
 1723              	.LVL98:
 140:../../libs/PolitekDSP/libs/libDaisy/../../libs/libDaisy/src/dev/mpr121.h ****         WriteRegister(MPR121_NHDF, 0x05);
 1724              		.loc 7 140 22 view .LVU383
 1725 0156 2246     		mov	r2, r4
 1726 0158 2F21     		movs	r1, #47
 1727 015a 11A8     		add	r0, sp, #68
 1728              	.LVL99:
 140:../../libs/PolitekDSP/libs/libDaisy/../../libs/libDaisy/src/dev/mpr121.h ****         WriteRegister(MPR121_NHDF, 0x05);
 1729              		.loc 7 140 22 view .LVU384
 1730 015c FFF7FEFF 		bl	_ZN5daisy6Mpr121INS_18Mpr121I2CTransportEE13WriteRegisterEhh
 1731              	.LVL100:
 141:../../libs/PolitekDSP/libs/libDaisy/../../libs/libDaisy/src/dev/mpr121.h ****         WriteRegister(MPR121_NCLF, 0x01);
 1732              		.loc 7 141 22 view .LVU385
 1733 0160 3021     		movs	r1, #48
 1734 0162 11A8     		add	r0, sp, #68
 1735              	.LVL101:
 141:../../libs/PolitekDSP/libs/libDaisy/../../libs/libDaisy/src/dev/mpr121.h ****         WriteRegister(MPR121_NCLF, 0x01);
 1736              		.loc 7 141 22 view .LVU386
 1737 0164 0522     		movs	r2, #5
 1738 0166 FFF7FEFF 		bl	_ZN5daisy6Mpr121INS_18Mpr121I2CTransportEE13WriteRegisterEhh
 1739              	.LVL102:
 142:../../libs/PolitekDSP/libs/libDaisy/../../libs/libDaisy/src/dev/mpr121.h ****         WriteRegister(MPR121_FDLF, 0x00);
 1740              		.loc 7 142 22 view .LVU387
 1741 016a 2246     		mov	r2, r4
 1742 016c 3121     		movs	r1, #49
 1743 016e 11A8     		add	r0, sp, #68
 1744              	.LVL103:
 142:../../libs/PolitekDSP/libs/libDaisy/../../libs/libDaisy/src/dev/mpr121.h ****         WriteRegister(MPR121_FDLF, 0x00);
 1745              		.loc 7 142 22 view .LVU388
 1746 0170 FFF7FEFF 		bl	_ZN5daisy6Mpr121INS_18Mpr121I2CTransportEE13WriteRegisterEhh
 1747              	.LVL104:
 143:../../libs/PolitekDSP/libs/libDaisy/../../libs/libDaisy/src/dev/mpr121.h **** 
 1748              		.loc 7 143 22 view .LVU389
 1749 0174 2A46     		mov	r2, r5
 1750 0176 3221     		movs	r1, #50
 1751 0178 11A8     		add	r0, sp, #68
 1752              	.LVL105:
 143:../../libs/PolitekDSP/libs/libDaisy/../../libs/libDaisy/src/dev/mpr121.h **** 
 1753              		.loc 7 143 22 view .LVU390
 1754 017a FFF7FEFF 		bl	_ZN5daisy6Mpr121INS_18Mpr121I2CTransportEE13WriteRegisterEhh
 1755              	.LVL106:
ARM GAS  C:\Users\matte\AppData\Local\Temp\ccP67MDp.s 			page 57


 145:../../libs/PolitekDSP/libs/libDaisy/../../libs/libDaisy/src/dev/mpr121.h ****         WriteRegister(MPR121_NCLT, 0x00);
 1756              		.loc 7 145 22 view .LVU391
 1757 017e 2A46     		mov	r2, r5
 1758 0180 3321     		movs	r1, #51
 1759 0182 11A8     		add	r0, sp, #68
 1760              	.LVL107:
 145:../../libs/PolitekDSP/libs/libDaisy/../../libs/libDaisy/src/dev/mpr121.h ****         WriteRegister(MPR121_NCLT, 0x00);
 1761              		.loc 7 145 22 view .LVU392
 1762 0184 FFF7FEFF 		bl	_ZN5daisy6Mpr121INS_18Mpr121I2CTransportEE13WriteRegisterEhh
 1763              	.LVL108:
 146:../../libs/PolitekDSP/libs/libDaisy/../../libs/libDaisy/src/dev/mpr121.h ****         WriteRegister(MPR121_FDLT, 0x00);
 1764              		.loc 7 146 22 view .LVU393
 1765 0188 2A46     		mov	r2, r5
 1766 018a 3421     		movs	r1, #52
 1767 018c 11A8     		add	r0, sp, #68
 1768              	.LVL109:
 146:../../libs/PolitekDSP/libs/libDaisy/../../libs/libDaisy/src/dev/mpr121.h ****         WriteRegister(MPR121_FDLT, 0x00);
 1769              		.loc 7 146 22 view .LVU394
 1770 018e FFF7FEFF 		bl	_ZN5daisy6Mpr121INS_18Mpr121I2CTransportEE13WriteRegisterEhh
 1771              	.LVL110:
 147:../../libs/PolitekDSP/libs/libDaisy/../../libs/libDaisy/src/dev/mpr121.h **** 
 1772              		.loc 7 147 22 view .LVU395
 1773 0192 2A46     		mov	r2, r5
 1774 0194 3521     		movs	r1, #53
 1775 0196 11A8     		add	r0, sp, #68
 1776              	.LVL111:
 147:../../libs/PolitekDSP/libs/libDaisy/../../libs/libDaisy/src/dev/mpr121.h **** 
 1777              		.loc 7 147 22 view .LVU396
 1778 0198 FFF7FEFF 		bl	_ZN5daisy6Mpr121INS_18Mpr121I2CTransportEE13WriteRegisterEhh
 1779              	.LVL112:
 149:../../libs/PolitekDSP/libs/libDaisy/../../libs/libDaisy/src/dev/mpr121.h ****         WriteRegister(MPR121_CONFIG1, 0x10); // default, 16uA charge current
 1780              		.loc 7 149 22 view .LVU397
 1781 019c 2A46     		mov	r2, r5
 1782 019e 5B21     		movs	r1, #91
 1783 01a0 11A8     		add	r0, sp, #68
 1784              	.LVL113:
 149:../../libs/PolitekDSP/libs/libDaisy/../../libs/libDaisy/src/dev/mpr121.h ****         WriteRegister(MPR121_CONFIG1, 0x10); // default, 16uA charge current
 1785              		.loc 7 149 22 view .LVU398
 1786 01a2 FFF7FEFF 		bl	_ZN5daisy6Mpr121INS_18Mpr121I2CTransportEE13WriteRegisterEhh
 1787              	.LVL114:
 150:../../libs/PolitekDSP/libs/libDaisy/../../libs/libDaisy/src/dev/mpr121.h ****         WriteRegister(MPR121_CONFIG2, 0x20); // 0.5uS encoding, 1ms period
 1788              		.loc 7 150 22 view .LVU399
 1789 01a6 5246     		mov	r2, r10
 1790 01a8 5C21     		movs	r1, #92
 1791 01aa 11A8     		add	r0, sp, #68
 1792              	.LVL115:
 150:../../libs/PolitekDSP/libs/libDaisy/../../libs/libDaisy/src/dev/mpr121.h ****         WriteRegister(MPR121_CONFIG2, 0x20); // 0.5uS encoding, 1ms period
 1793              		.loc 7 150 22 view .LVU400
 1794 01ac FFF7FEFF 		bl	_ZN5daisy6Mpr121INS_18Mpr121I2CTransportEE13WriteRegisterEhh
 1795              	.LVL116:
 151:../../libs/PolitekDSP/libs/libDaisy/../../libs/libDaisy/src/dev/mpr121.h **** 
 1796              		.loc 7 151 22 view .LVU401
 1797 01b0 2022     		movs	r2, #32
 1798 01b2 5D21     		movs	r1, #93
 1799 01b4 11A8     		add	r0, sp, #68
 1800              	.LVL117:
 151:../../libs/PolitekDSP/libs/libDaisy/../../libs/libDaisy/src/dev/mpr121.h **** 
ARM GAS  C:\Users\matte\AppData\Local\Temp\ccP67MDp.s 			page 58


 1801              		.loc 7 151 22 view .LVU402
 1802 01b6 FFF7FEFF 		bl	_ZN5daisy6Mpr121INS_18Mpr121I2CTransportEE13WriteRegisterEhh
 1803              	.LVL118:
 167:../../libs/PolitekDSP/libs/libDaisy/../../libs/libDaisy/src/dev/mpr121.h ****                       ECR_SETTING); // start with above ECR setting
 1804              		.loc 7 167 22 view .LVU403
 1805 01ba 8C22     		movs	r2, #140
 1806 01bc 5E21     		movs	r1, #94
 1807 01be 11A8     		add	r0, sp, #68
 1808              	.LVL119:
 167:../../libs/PolitekDSP/libs/libDaisy/../../libs/libDaisy/src/dev/mpr121.h ****                       ECR_SETTING); // start with above ECR setting
 1809              		.loc 7 167 22 view .LVU404
 1810 01c0 FFF7FEFF 		bl	_ZN5daisy6Mpr121INS_18Mpr121I2CTransportEE13WriteRegisterEhh
 1811              	.LVL120:
 1812              	.LBB805:
 1813              	.LBI805:
 337:../../libs/PolitekDSP/libs/libDaisy/../../libs/libDaisy/src/dev/mpr121.h **** 
 338:../../libs/PolitekDSP/libs/libDaisy/../../libs/libDaisy/src/dev/mpr121.h ****     /** Get the global transport_error_ bool (as a Result), then reset it */
 339:../../libs/PolitekDSP/libs/libDaisy/../../libs/libDaisy/src/dev/mpr121.h ****     Result GetTransportErr()
 1814              		.loc 7 339 12 is_stmt 1 view .LVU405
 1815              	.LBB806:
 340:../../libs/PolitekDSP/libs/libDaisy/../../libs/libDaisy/src/dev/mpr121.h ****     {
 341:../../libs/PolitekDSP/libs/libDaisy/../../libs/libDaisy/src/dev/mpr121.h ****         Result ret       = transport_error_ ? ERR : OK;
 1816              		.loc 7 341 45 is_stmt 0 view .LVU406
 1817 01c4 9DF87430 		ldrb	r3, [sp, #116]	@ zero_extendqisi2
 1818 01c8 002B     		cmp	r3, #0
 1819 01ca 40F0F780 		bne	.L15
 1820              	.LVL121:
 1821              		.loc 7 341 45 view .LVU407
 1822              	.LBE806:
 1823              	.LBE805:
 1824              	.LBE810:
 1825              	.LBE819:
  57:main.cpp      ****         }
  58:main.cpp      ****     }
  59:main.cpp      ****     hw.SetLed(true);
 1826              		.loc 8 59 5 is_stmt 1 view .LVU408
 1827              		.loc 8 59 14 is_stmt 0 view .LVU409
 1828 01ce 2146     		mov	r1, r4
 1829 01d0 7C48     		ldr	r0, .L25
 1830 01d2 0DF11B0A 		add	r10, sp, #27
  48:main.cpp      ****     
 1831              		.loc 8 48 9 view .LVU410
 1832 01d6 0593     		str	r3, [sp, #20]
 1833              		.loc 8 59 14 view .LVU411
 1834 01d8 FFF7FEFF 		bl	_ZN5daisy9DaisySeed6SetLedEb
 1835              	.LVL122:
  60:main.cpp      **** 
  61:main.cpp      ****     // sets starting thresholds
  62:main.cpp      ****     cap.SetThresholds (10, 20);
 1836              		.loc 8 62 5 is_stmt 1 view .LVU412
 1837              		.loc 8 62 23 is_stmt 0 view .LVU413
 1838 01dc 4146     		mov	r1, r8
 1839 01de 11A8     		add	r0, sp, #68
 1840 01e0 1422     		movs	r2, #20
 1841 01e2 FFF7FEFF 		bl	_ZN5daisy6Mpr121INS_18Mpr121I2CTransportEE13SetThresholdsEhh
 1842              	.LVL123:
 1843              	.L16:
ARM GAS  C:\Users\matte\AppData\Local\Temp\ccP67MDp.s 			page 59


  63:main.cpp      ****     
  64:main.cpp      ****     while (1){
 1844              		.loc 8 64 5 is_stmt 1 view .LVU414
  65:main.cpp      **** 
  66:main.cpp      ****         // read thresholds
  67:main.cpp      ****         touchThreshold = cap.ReadRegister8 (Mpr121I2C::RegMap::MPR121_TOUCHTH_0);
 1845              		.loc 8 67 9 view .LVU415
 1846              	.LBB820:
 1847              	.LBI820:
 232:../../libs/PolitekDSP/libs/libDaisy/../../libs/libDaisy/src/dev/mpr121.h ****     {
 1848              		.loc 7 232 13 view .LVU416
 1849              	.LBB821:
 1850              	.LBB822:
 1851              	.LBI822:
  63:../../libs/PolitekDSP/libs/libDaisy/../../libs/libDaisy/src/dev/mpr121.h ****     {
 1852              		.loc 7 63 10 view .LVU417
 1853              	.LBB823:
  65:../../libs/PolitekDSP/libs/libDaisy/../../libs/libDaisy/src/dev/mpr121.h ****                != i2c_.ReadDataAtAddress(
 1854              		.loc 7 65 9 view .LVU418
  66:../../libs/PolitekDSP/libs/libDaisy/../../libs/libDaisy/src/dev/mpr121.h ****                    config_.dev_addr, address, 1, data, size, 10);
 1855              		.loc 7 66 41 is_stmt 0 view .LVU419
 1856 01e6 0124     		movs	r4, #1
 1857 01e8 0A27     		movs	r7, #10
 1858 01ea 4122     		movs	r2, #65
 1859 01ec 9DF87010 		ldrb	r1, [sp, #112]	@ zero_extendqisi2
 1860 01f0 2346     		mov	r3, r4
 1861 01f2 17A8     		add	r0, sp, #92
 1862              	.LVL124:
  66:../../libs/PolitekDSP/libs/libDaisy/../../libs/libDaisy/src/dev/mpr121.h ****                    config_.dev_addr, address, 1, data, size, 10);
 1863              		.loc 7 66 41 view .LVU420
 1864 01f4 0096     		str	r6, [sp]
 1865 01f6 CDE90147 		strd	r4, r7, [sp, #4]
 1866 01fa FFF7FEFF 		bl	_ZN5daisy9I2CHandle17ReadDataAtAddressEtttPhtm
 1867              	.LVL125:
  66:../../libs/PolitekDSP/libs/libDaisy/../../libs/libDaisy/src/dev/mpr121.h ****                    config_.dev_addr, address, 1, data, size, 10);
 1868              		.loc 7 66 41 view .LVU421
 1869              	.LBE823:
 1870              	.LBE822:
 1871              	.LBB824:
 1872              	.LBI824:
 336:../../libs/PolitekDSP/libs/libDaisy/../../libs/libDaisy/src/dev/mpr121.h **** 
 1873              		.loc 7 336 10 is_stmt 1 view .LVU422
 1874              	.LBB825:
 336:../../libs/PolitekDSP/libs/libDaisy/../../libs/libDaisy/src/dev/mpr121.h **** 
 1875              		.loc 7 336 55 is_stmt 0 view .LVU423
 1876 01fe 9DF87450 		ldrb	r5, [sp, #116]	@ zero_extendqisi2
 1877              	.LBE825:
 1878              	.LBE824:
 1879              	.LBE821:
 1880              	.LBE820:
 1881              	.LBB833:
 1882              	.LBB834:
 1883              	.LBB835:
 1884              	.LBB836:
  66:../../libs/PolitekDSP/libs/libDaisy/../../libs/libDaisy/src/dev/mpr121.h ****                    config_.dev_addr, address, 1, data, size, 10);
 1885              		.loc 7 66 41 view .LVU424
 1886 0202 2346     		mov	r3, r4
ARM GAS  C:\Users\matte\AppData\Local\Temp\ccP67MDp.s 			page 60


 1887 0204 4222     		movs	r2, #66
 1888              	.LBE836:
 1889              	.LBE835:
 1890              	.LBE834:
 1891              	.LBE833:
 1892              	.LBB854:
 1893              	.LBB830:
 1894              	.LBB828:
 1895              	.LBB826:
 336:../../libs/PolitekDSP/libs/libDaisy/../../libs/libDaisy/src/dev/mpr121.h **** 
 1896              		.loc 7 336 55 view .LVU425
 1897 0206 0028     		cmp	r0, #0
 1898 0208 18BF     		it	ne
 1899 020a 45F00105 		orrne	r5, r5, #1
 1900              	.LBE826:
 1901              	.LBE828:
 1902              	.LBE830:
 1903              	.LBE854:
 1904              	.LBB855:
 1905              	.LBB849:
 1906              	.LBB840:
 1907              	.LBB837:
  66:../../libs/PolitekDSP/libs/libDaisy/../../libs/libDaisy/src/dev/mpr121.h ****                    config_.dev_addr, address, 1, data, size, 10);
 1908              		.loc 7 66 41 view .LVU426
 1909 020e 9DF87010 		ldrb	r1, [sp, #112]	@ zero_extendqisi2
 1910 0212 17A8     		add	r0, sp, #92
 1911              	.LVL126:
  66:../../libs/PolitekDSP/libs/libDaisy/../../libs/libDaisy/src/dev/mpr121.h ****                    config_.dev_addr, address, 1, data, size, 10);
 1912              		.loc 7 66 41 view .LVU427
 1913 0214 0096     		str	r6, [sp]
 1914              	.LBE837:
 1915              	.LBE840:
 1916              	.LBE849:
 1917              	.LBE855:
 1918              	.LBB856:
 1919              	.LBB831:
 1920              	.LBB829:
 1921              	.LBB827:
 336:../../libs/PolitekDSP/libs/libDaisy/../../libs/libDaisy/src/dev/mpr121.h **** 
 1922              		.loc 7 336 55 view .LVU428
 1923 0216 8DF87450 		strb	r5, [sp, #116]
 1924              	.LVL127:
 336:../../libs/PolitekDSP/libs/libDaisy/../../libs/libDaisy/src/dev/mpr121.h **** 
 1925              		.loc 7 336 55 view .LVU429
 1926              	.LBE827:
 1927              	.LBE829:
 1928              	.LBE831:
 1929              	.LBE856:
 1930              	.LBB857:
 1931              	.LBB850:
 1932              	.LBB841:
 1933              	.LBB838:
  66:../../libs/PolitekDSP/libs/libDaisy/../../libs/libDaisy/src/dev/mpr121.h ****                    config_.dev_addr, address, 1, data, size, 10);
 1934              		.loc 7 66 41 view .LVU430
 1935 021a CDE90147 		strd	r4, r7, [sp, #4]
 1936              	.LBE838:
 1937              	.LBE841:
ARM GAS  C:\Users\matte\AppData\Local\Temp\ccP67MDp.s 			page 61


 1938              	.LBE850:
 1939              	.LBE857:
 1940              	.LBB858:
 1941              	.LBB832:
 237:../../libs/PolitekDSP/libs/libDaisy/../../libs/libDaisy/src/dev/mpr121.h ****     }
 1942              		.loc 7 237 16 view .LVU431
 1943 021e 9DF83070 		ldrb	r7, [sp, #48]	@ zero_extendqisi2
 1944              	.LVL128:
 237:../../libs/PolitekDSP/libs/libDaisy/../../libs/libDaisy/src/dev/mpr121.h ****     }
 1945              		.loc 7 237 16 view .LVU432
 1946              	.LBE832:
 1947              	.LBE858:
  68:main.cpp      ****         releaseThreshold = cap.ReadRegister8 (Mpr121I2C::RegMap::MPR121_RELEASETH_0);
 1948              		.loc 8 68 9 is_stmt 1 view .LVU433
 1949              	.LBB859:
 1950              	.LBI833:
 232:../../libs/PolitekDSP/libs/libDaisy/../../libs/libDaisy/src/dev/mpr121.h ****     {
 1951              		.loc 7 232 13 view .LVU434
 1952              	.LBB851:
 1953              	.LBB842:
 1954              	.LBI835:
  63:../../libs/PolitekDSP/libs/libDaisy/../../libs/libDaisy/src/dev/mpr121.h ****     {
 1955              		.loc 7 63 10 view .LVU435
 1956              	.LBB839:
  65:../../libs/PolitekDSP/libs/libDaisy/../../libs/libDaisy/src/dev/mpr121.h ****                != i2c_.ReadDataAtAddress(
 1957              		.loc 7 65 9 view .LVU436
  66:../../libs/PolitekDSP/libs/libDaisy/../../libs/libDaisy/src/dev/mpr121.h ****                    config_.dev_addr, address, 1, data, size, 10);
 1958              		.loc 7 66 41 is_stmt 0 view .LVU437
 1959 0222 FFF7FEFF 		bl	_ZN5daisy9I2CHandle17ReadDataAtAddressEtttPhtm
 1960              	.LVL129:
  66:../../libs/PolitekDSP/libs/libDaisy/../../libs/libDaisy/src/dev/mpr121.h ****                    config_.dev_addr, address, 1, data, size, 10);
 1961              		.loc 7 66 41 view .LVU438
 1962              	.LBE839:
 1963              	.LBE842:
 1964              	.LBB843:
 1965              	.LBI843:
 336:../../libs/PolitekDSP/libs/libDaisy/../../libs/libDaisy/src/dev/mpr121.h **** 
 1966              		.loc 7 336 10 is_stmt 1 view .LVU439
 1967              	.LBB844:
 336:../../libs/PolitekDSP/libs/libDaisy/../../libs/libDaisy/src/dev/mpr121.h **** 
 1968              		.loc 7 336 55 is_stmt 0 view .LVU440
 1969 0226 9DF87440 		ldrb	r4, [sp, #116]	@ zero_extendqisi2
 1970              	.LBE844:
 1971              	.LBE843:
 1972              	.LBE851:
 1973              	.LBE859:
 1974              	.LBB860:
 1975              	.LBB861:
 128:../../libs/PolitekDSP/libs/libDaisy/../../libs/libDaisy/src/daisy_seed.h ****     }
 1976              		.loc 1 128 23 view .LVU441
 1977 022a 059D     		ldr	r5, [sp, #20]
 1978 022c 3A46     		mov	r2, r7
 1979              	.LBE861:
 1980              	.LBE860:
 1981              	.LBB864:
 1982              	.LBB852:
 1983              	.LBB847:
ARM GAS  C:\Users\matte\AppData\Local\Temp\ccP67MDp.s 			page 62


 1984              	.LBB845:
 336:../../libs/PolitekDSP/libs/libDaisy/../../libs/libDaisy/src/dev/mpr121.h **** 
 1985              		.loc 7 336 55 view .LVU442
 1986 022e 0028     		cmp	r0, #0
 1987 0230 18BF     		it	ne
 1988 0232 44F00104 		orrne	r4, r4, #1
 1989              	.LBE845:
 1990              	.LBE847:
 1991              	.LBE852:
 1992              	.LBE864:
 1993              	.LBB865:
 1994              	.LBB862:
 128:../../libs/PolitekDSP/libs/libDaisy/../../libs/libDaisy/src/daisy_seed.h ****     }
 1995              		.loc 1 128 23 view .LVU443
 1996 0236 9DF83030 		ldrb	r3, [sp, #48]	@ zero_extendqisi2
 1997 023a 2946     		mov	r1, r5
 1998 023c 6248     		ldr	r0, .L25+4
 1999              	.LVL130:
 128:../../libs/PolitekDSP/libs/libDaisy/../../libs/libDaisy/src/daisy_seed.h ****     }
 2000              		.loc 1 128 23 view .LVU444
 2001              	.LBE862:
 2002              	.LBE865:
 2003              	.LBB866:
 2004              	.LBB853:
 2005              	.LBB848:
 2006              	.LBB846:
 336:../../libs/PolitekDSP/libs/libDaisy/../../libs/libDaisy/src/dev/mpr121.h **** 
 2007              		.loc 7 336 55 view .LVU445
 2008 023e 8DF87440 		strb	r4, [sp, #116]
 2009              	.LVL131:
 336:../../libs/PolitekDSP/libs/libDaisy/../../libs/libDaisy/src/dev/mpr121.h **** 
 2010              		.loc 7 336 55 view .LVU446
 2011              	.LBE846:
 2012              	.LBE848:
 2013              	.LBE853:
 2014              	.LBE866:
  69:main.cpp      ****         
  70:main.cpp      ****         // print thresholds
  71:main.cpp      ****         hw.PrintLine ("%d iter: touch is %d and release is %d", iteration, touchThreshold, releaseT
 2015              		.loc 8 71 9 is_stmt 1 view .LVU447
 2016              	.LBB867:
 2017              	.LBI860:
 126:../../libs/PolitekDSP/libs/libDaisy/../../libs/libDaisy/src/daisy_seed.h ****     {
 2018              		.loc 1 126 17 view .LVU448
 2019              	.LBB863:
 128:../../libs/PolitekDSP/libs/libDaisy/../../libs/libDaisy/src/daisy_seed.h ****     }
 2020              		.loc 1 128 23 is_stmt 0 view .LVU449
 2021 0242 FFF7FEFF 		bl	_ZN5daisy6LoggerILNS_17LoggerDestinationE1EE9PrintLineEPKcz
 2022              	.LVL132:
 128:../../libs/PolitekDSP/libs/libDaisy/../../libs/libDaisy/src/daisy_seed.h ****     }
 2023              		.loc 1 128 23 view .LVU450
 2024              	.LBE863:
 2025              	.LBE867:
  72:main.cpp      **** 
  73:main.cpp      ****         // change thresholds at 10th iteration 
  74:main.cpp      ****         if (iteration == 10) {
 2026              		.loc 8 74 9 is_stmt 1 view .LVU451
ARM GAS  C:\Users\matte\AppData\Local\Temp\ccP67MDp.s 			page 63


 2027 0246 0A2D     		cmp	r5, #10
 2028 0248 40F0AF80 		bne	.L18
 2029 024c 4125     		movs	r5, #65
 2030              	.LVL133:
 2031              	.L19:
 2032              	.LBB868:
 2033              	.LBB869:
 2034              	.LBB870:
 2035              	.LBB871:
 2036              	.LBB872:
 2037              	.LBB873:
 2038              	.LBB874:
 2039              	.LBB875:
 2040              	.LBB876:
  66:../../libs/PolitekDSP/libs/libDaisy/../../libs/libDaisy/src/dev/mpr121.h ****                    config_.dev_addr, address, 1, data, size, 10);
 2041              		.loc 7 66 41 is_stmt 0 view .LVU452
 2042 024e 0124     		movs	r4, #1
 2043 0250 0A27     		movs	r7, #10
 2044 0252 4FF01E0B 		mov	fp, #30
 2045 0256 5E22     		movs	r2, #94
 2046 0258 2346     		mov	r3, r4
 2047 025a 9DF87010 		ldrb	r1, [sp, #112]	@ zero_extendqisi2
 2048 025e 17A8     		add	r0, sp, #92
 2049 0260 0096     		str	r6, [sp]
 2050              	.LBE876:
 2051              	.LBE875:
 2052              	.LBE874:
 2053              	.LBE873:
 271:../../libs/PolitekDSP/libs/libDaisy/../../libs/libDaisy/src/dev/mpr121.h ****             // clear this register to set stop mode
 2054              		.loc 7 271 21 view .LVU453
 2055 0262 4FF00008 		mov	r8, #0
 2056 0266 8DF81BB0 		strb	fp, [sp, #27]
 2057              	.LVL134:
 271:../../libs/PolitekDSP/libs/libDaisy/../../libs/libDaisy/src/dev/mpr121.h ****             // clear this register to set stop mode
 2058              		.loc 7 271 21 view .LVU454
 2059              	.LBE872:
 2060              	.LBE871:
 2061              	.LBI870:
 257:../../libs/PolitekDSP/libs/libDaisy/../../libs/libDaisy/src/dev/mpr121.h ****     {
 2062              		.loc 7 257 10 is_stmt 1 view .LVU455
 2063              	.LBB934:
 2064              	.LBB907:
 2065              	.LBB888:
 2066              	.LBI873:
 232:../../libs/PolitekDSP/libs/libDaisy/../../libs/libDaisy/src/dev/mpr121.h ****     {
 2067              		.loc 7 232 13 view .LVU456
 2068              	.LBB885:
 2069              	.LBB878:
 2070              	.LBI875:
  63:../../libs/PolitekDSP/libs/libDaisy/../../libs/libDaisy/src/dev/mpr121.h ****     {
 2071              		.loc 7 63 10 view .LVU457
 2072              	.LBB877:
  65:../../libs/PolitekDSP/libs/libDaisy/../../libs/libDaisy/src/dev/mpr121.h ****                != i2c_.ReadDataAtAddress(
 2073              		.loc 7 65 9 view .LVU458
  66:../../libs/PolitekDSP/libs/libDaisy/../../libs/libDaisy/src/dev/mpr121.h ****                    config_.dev_addr, address, 1, data, size, 10);
 2074              		.loc 7 66 41 is_stmt 0 view .LVU459
 2075 026a CDE90147 		strd	r4, r7, [sp, #4]
ARM GAS  C:\Users\matte\AppData\Local\Temp\ccP67MDp.s 			page 64


 2076 026e FFF7FEFF 		bl	_ZN5daisy9I2CHandle17ReadDataAtAddressEtttPhtm
 2077              	.LVL135:
  66:../../libs/PolitekDSP/libs/libDaisy/../../libs/libDaisy/src/dev/mpr121.h ****                    config_.dev_addr, address, 1, data, size, 10);
 2078              		.loc 7 66 41 view .LVU460
 2079              	.LBE877:
 2080              	.LBE878:
 2081              	.LBB879:
 2082              	.LBI879:
 336:../../libs/PolitekDSP/libs/libDaisy/../../libs/libDaisy/src/dev/mpr121.h **** 
 2083              		.loc 7 336 10 is_stmt 1 view .LVU461
 2084              	.LBB880:
 336:../../libs/PolitekDSP/libs/libDaisy/../../libs/libDaisy/src/dev/mpr121.h **** 
 2085              		.loc 7 336 55 is_stmt 0 view .LVU462
 2086 0272 9DF87430 		ldrb	r3, [sp, #116]	@ zero_extendqisi2
 2087              	.LBE880:
 2088              	.LBE879:
 237:../../libs/PolitekDSP/libs/libDaisy/../../libs/libDaisy/src/dev/mpr121.h ****     }
 2089              		.loc 7 237 16 view .LVU463
 2090 0276 9DF83010 		ldrb	r1, [sp, #48]	@ zero_extendqisi2
 2091              	.LBE885:
 2092              	.LBE888:
 2093              	.LBB889:
 2094              	.LBB890:
  74:../../libs/PolitekDSP/libs/libDaisy/../../libs/libDaisy/src/dev/mpr121.h ****                    config_.dev_addr, address, 1, data, size, 10);
 2095              		.loc 7 74 42 view .LVU464
 2096 027a 5E22     		movs	r2, #94
 2097              	.LBE890:
 2098              	.LBE889:
 2099              	.LBB895:
 2100              	.LBB886:
 2101              	.LBB883:
 2102              	.LBB881:
 336:../../libs/PolitekDSP/libs/libDaisy/../../libs/libDaisy/src/dev/mpr121.h **** 
 2103              		.loc 7 336 55 view .LVU465
 2104 027c 4045     		cmp	r0, r8
 2105 027e 18BF     		it	ne
 2106 0280 43F00103 		orrne	r3, r3, #1
 2107              	.LBE881:
 2108              	.LBE883:
 2109              	.LBE886:
 2110              	.LBE895:
 2111              	.LBB896:
 2112              	.LBB891:
  74:../../libs/PolitekDSP/libs/libDaisy/../../libs/libDaisy/src/dev/mpr121.h ****                    config_.dev_addr, address, 1, data, size, 10);
 2113              		.loc 7 74 42 view .LVU466
 2114 0284 0096     		str	r6, [sp]
 2115              	.LBE891:
 2116              	.LBE896:
 270:../../libs/PolitekDSP/libs/libDaisy/../../libs/libDaisy/src/dev/mpr121.h ****             uint8_t zero = 0x00;
 2117              		.loc 7 270 26 view .LVU467
 2118 0286 8DF81C10 		strb	r1, [sp, #28]
 2119              	.LBB897:
 2120              	.LBB892:
  74:../../libs/PolitekDSP/libs/libDaisy/../../libs/libDaisy/src/dev/mpr121.h ****                    config_.dev_addr, address, 1, data, size, 10);
 2121              		.loc 7 74 42 view .LVU468
 2122 028a 17A8     		add	r0, sp, #92
 2123              	.LVL136:
ARM GAS  C:\Users\matte\AppData\Local\Temp\ccP67MDp.s 			page 65


  74:../../libs/PolitekDSP/libs/libDaisy/../../libs/libDaisy/src/dev/mpr121.h ****                    config_.dev_addr, address, 1, data, size, 10);
 2124              		.loc 7 74 42 view .LVU469
 2125 028c 9DF87010 		ldrb	r1, [sp, #112]	@ zero_extendqisi2
 2126              	.LBE892:
 2127              	.LBE897:
 2128              	.LBB898:
 2129              	.LBB887:
 2130              	.LBB884:
 2131              	.LBB882:
 336:../../libs/PolitekDSP/libs/libDaisy/../../libs/libDaisy/src/dev/mpr121.h **** 
 2132              		.loc 7 336 55 view .LVU470
 2133 0290 8DF87430 		strb	r3, [sp, #116]
 2134              	.LVL137:
 336:../../libs/PolitekDSP/libs/libDaisy/../../libs/libDaisy/src/dev/mpr121.h **** 
 2135              		.loc 7 336 55 view .LVU471
 2136              	.LBE882:
 2137              	.LBE884:
 2138              	.LBE887:
 2139              	.LBE898:
 2140              	.LBB899:
 2141              	.LBB893:
  74:../../libs/PolitekDSP/libs/libDaisy/../../libs/libDaisy/src/dev/mpr121.h ****                    config_.dev_addr, address, 1, data, size, 10);
 2142              		.loc 7 74 42 view .LVU472
 2143 0294 2346     		mov	r3, r4
 2144              	.LBE893:
 2145              	.LBE899:
