ARM GAS  C:\Users\skipi\AppData\Local\Temp\cceg9rRe.s 			page 1


   1              		.cpu cortex-m7
   2              		.eabi_attribute 28, 1
   3              		.eabi_attribute 20, 1
   4              		.eabi_attribute 21, 1
   5              		.eabi_attribute 23, 3
   6              		.eabi_attribute 24, 1
   7              		.eabi_attribute 25, 1
   8              		.eabi_attribute 26, 1
   9              		.eabi_attribute 30, 2
  10              		.eabi_attribute 34, 1
  11              		.eabi_attribute 18, 4
  12              		.file	"main.cpp"
  13              		.text
  14              	.Ltext0:
  15              		.cfi_sections	.debug_frame
  16              		.section	.text._ZN5daisy9DaisySeedD2Ev,"axG",%progbits,_ZN5daisy9DaisySeedD5Ev,comdat
  17              		.align	1
  18              		.p2align 2,,3
  19              		.weak	_ZN5daisy9DaisySeedD2Ev
  20              		.arch armv7e-m
  21              		.syntax unified
  22              		.thumb
  23              		.thumb_func
  24              		.fpu fpv5-d16
  26              	_ZN5daisy9DaisySeedD2Ev:
  27              	.LVL0:
  28              	.LFB2671:
  29              		.file 1 "../../libs/libDaisy/src/daisy_seed.h"
   1:../../libs/libDaisy/src/daisy_seed.h **** #pragma once
   2:../../libs/libDaisy/src/daisy_seed.h **** #ifndef DSY_SEED_H
   3:../../libs/libDaisy/src/daisy_seed.h **** #define DSY_SEED_H
   4:../../libs/libDaisy/src/daisy_seed.h **** 
   5:../../libs/libDaisy/src/daisy_seed.h **** #include "daisy.h"
   6:../../libs/libDaisy/src/daisy_seed.h **** 
   7:../../libs/libDaisy/src/daisy_seed.h **** //Uncomment this out if you're still using the rev2 hardware
   8:../../libs/libDaisy/src/daisy_seed.h **** //#define SEED_REV2
   9:../../libs/libDaisy/src/daisy_seed.h **** 
  10:../../libs/libDaisy/src/daisy_seed.h **** namespace daisy
  11:../../libs/libDaisy/src/daisy_seed.h **** {
  12:../../libs/libDaisy/src/daisy_seed.h **** /**
  13:../../libs/libDaisy/src/daisy_seed.h ****    @brief This is the higher-level interface for the Daisy board. \n 
  14:../../libs/libDaisy/src/daisy_seed.h ****     All basic peripheral configuration/initialization is setup here. \n
  15:../../libs/libDaisy/src/daisy_seed.h **** 
  16:../../libs/libDaisy/src/daisy_seed.h ****    @ingroup boards
  17:../../libs/libDaisy/src/daisy_seed.h **** */
  18:../../libs/libDaisy/src/daisy_seed.h **** class DaisySeed
  19:../../libs/libDaisy/src/daisy_seed.h **** {
  20:../../libs/libDaisy/src/daisy_seed.h ****   public:
  21:../../libs/libDaisy/src/daisy_seed.h ****     DaisySeed() {}
  22:../../libs/libDaisy/src/daisy_seed.h ****     ~DaisySeed() {}
  30              		.loc 1 22 5 view -0
  31              		.cfi_startproc
  32              		@ args = 0, pretend = 0, frame = 0
  33              		@ frame_needed = 0, uses_anonymous_args = 0
  34              		@ link register save eliminated.
  35              	.LBB365:
  36              	.LBI365:
ARM GAS  C:\Users\skipi\AppData\Local\Temp\cceg9rRe.s 			page 2


  37              		.file 2 "../../libs/libDaisy/src/dev/codec_ak4556.h"
   1:../../libs/libDaisy/src/dev/codec_ak4556.h **** #pragma once
   2:../../libs/libDaisy/src/dev/codec_ak4556.h **** #ifndef DSY_CODEC_AK4556_H
   3:../../libs/libDaisy/src/dev/codec_ak4556.h **** #define DSY_CODEC_AK4556_H
   4:../../libs/libDaisy/src/dev/codec_ak4556.h **** 
   5:../../libs/libDaisy/src/dev/codec_ak4556.h **** #include "daisy_core.h"
   6:../../libs/libDaisy/src/dev/codec_ak4556.h **** #include "per/gpio.h"
   7:../../libs/libDaisy/src/dev/codec_ak4556.h **** 
   8:../../libs/libDaisy/src/dev/codec_ak4556.h **** namespace daisy
   9:../../libs/libDaisy/src/dev/codec_ak4556.h **** {
  10:../../libs/libDaisy/src/dev/codec_ak4556.h **** /** @brief Ak4556 Codec support 
  11:../../libs/libDaisy/src/dev/codec_ak4556.h ****  ** @author shensley
  12:../../libs/libDaisy/src/dev/codec_ak4556.h ****  ** @addtogroup codec
  13:../../libs/libDaisy/src/dev/codec_ak4556.h ****  ** 
  14:../../libs/libDaisy/src/dev/codec_ak4556.h ****  ** I don't see any real reason to have this be more than a function, but in case we want
  15:../../libs/libDaisy/src/dev/codec_ak4556.h ****  ** to add other functions down the road I wrapped the function in a class.
  16:../../libs/libDaisy/src/dev/codec_ak4556.h ****  ***/
  17:../../libs/libDaisy/src/dev/codec_ak4556.h **** class Ak4556
  18:../../libs/libDaisy/src/dev/codec_ak4556.h **** {
  19:../../libs/libDaisy/src/dev/codec_ak4556.h ****   public:
  20:../../libs/libDaisy/src/dev/codec_ak4556.h ****     Ak4556() {}
  21:../../libs/libDaisy/src/dev/codec_ak4556.h ****     ~Ak4556() {}
  38              		.loc 2 21 5 view .LVU1
  39              		.loc 2 21 5 is_stmt 0 view .LVU2
  40              	.LBE365:
  41              	.LBB366:
  42              	.LBI366:
  43              		.file 3 "../../libs/libDaisy/src/sys/system.h"
   1:../../libs/libDaisy/src/sys/system.h **** #ifndef DSY_SYSTEM_H
   2:../../libs/libDaisy/src/sys/system.h **** #define DSY_SYSTEM_H
   3:../../libs/libDaisy/src/sys/system.h **** 
   4:../../libs/libDaisy/src/sys/system.h **** #ifndef UNIT_TEST // for unit tests, a dummy implementation is provided below
   5:../../libs/libDaisy/src/sys/system.h **** 
   6:../../libs/libDaisy/src/sys/system.h **** #include <cstdint>
   7:../../libs/libDaisy/src/sys/system.h **** #include "per/tim.h"
   8:../../libs/libDaisy/src/sys/system.h **** 
   9:../../libs/libDaisy/src/sys/system.h **** namespace daisy
  10:../../libs/libDaisy/src/sys/system.h **** {
  11:../../libs/libDaisy/src/sys/system.h **** /** A handle for interacting with the Core System.
  12:../../libs/libDaisy/src/sys/system.h ****  ** This includes the Clock tree, MPU, global DMA initialization,
  13:../../libs/libDaisy/src/sys/system.h ****  ** cache handling, and any other necessary global initiailzation
  14:../../libs/libDaisy/src/sys/system.h ****  **
  15:../../libs/libDaisy/src/sys/system.h ****  ** @author shensley
  16:../../libs/libDaisy/src/sys/system.h ****  ** @ingroup system
  17:../../libs/libDaisy/src/sys/system.h ****  */
  18:../../libs/libDaisy/src/sys/system.h **** class System
  19:../../libs/libDaisy/src/sys/system.h **** {
  20:../../libs/libDaisy/src/sys/system.h ****   public:
  21:../../libs/libDaisy/src/sys/system.h ****     /** Contains settings for initializing the System */
  22:../../libs/libDaisy/src/sys/system.h ****     struct Config
  23:../../libs/libDaisy/src/sys/system.h ****     {
  24:../../libs/libDaisy/src/sys/system.h ****         /** Specifies the system clock frequency that feeds APB/AHB clocks, etc. */
  25:../../libs/libDaisy/src/sys/system.h ****         enum class SysClkFreq
  26:../../libs/libDaisy/src/sys/system.h ****         {
  27:../../libs/libDaisy/src/sys/system.h ****             FREQ_400MHZ,
  28:../../libs/libDaisy/src/sys/system.h ****             FREQ_480MHZ,
  29:../../libs/libDaisy/src/sys/system.h ****         };
ARM GAS  C:\Users\skipi\AppData\Local\Temp\cceg9rRe.s 			page 3


  30:../../libs/libDaisy/src/sys/system.h **** 
  31:../../libs/libDaisy/src/sys/system.h ****         /** Method to call on the struct to set to defaults
  32:../../libs/libDaisy/src/sys/system.h ****          ** CPU Freq set to 400MHz
  33:../../libs/libDaisy/src/sys/system.h ****          ** Cache Enabled
  34:../../libs/libDaisy/src/sys/system.h ****          ** */
  35:../../libs/libDaisy/src/sys/system.h ****         void Defaults()
  36:../../libs/libDaisy/src/sys/system.h ****         {
  37:../../libs/libDaisy/src/sys/system.h ****             cpu_freq    = SysClkFreq::FREQ_400MHZ;
  38:../../libs/libDaisy/src/sys/system.h ****             use_dcache  = true;
  39:../../libs/libDaisy/src/sys/system.h ****             use_icache  = true;
  40:../../libs/libDaisy/src/sys/system.h ****             skip_clocks = false;
  41:../../libs/libDaisy/src/sys/system.h ****         }
  42:../../libs/libDaisy/src/sys/system.h **** 
  43:../../libs/libDaisy/src/sys/system.h ****         /** Method to call on the struct to set to boost mode:
  44:../../libs/libDaisy/src/sys/system.h ****          ** CPU Freq set to 480MHz
  45:../../libs/libDaisy/src/sys/system.h ****          ** Cache Enabled
  46:../../libs/libDaisy/src/sys/system.h ****          ** */
  47:../../libs/libDaisy/src/sys/system.h ****         void Boost()
  48:../../libs/libDaisy/src/sys/system.h ****         {
  49:../../libs/libDaisy/src/sys/system.h ****             cpu_freq    = SysClkFreq::FREQ_480MHZ;
  50:../../libs/libDaisy/src/sys/system.h ****             use_dcache  = true;
  51:../../libs/libDaisy/src/sys/system.h ****             use_icache  = true;
  52:../../libs/libDaisy/src/sys/system.h ****             skip_clocks = false;
  53:../../libs/libDaisy/src/sys/system.h ****         }
  54:../../libs/libDaisy/src/sys/system.h **** 
  55:../../libs/libDaisy/src/sys/system.h ****         SysClkFreq cpu_freq;
  56:../../libs/libDaisy/src/sys/system.h ****         bool       use_dcache;
  57:../../libs/libDaisy/src/sys/system.h ****         bool       use_icache;
  58:../../libs/libDaisy/src/sys/system.h ****         bool       skip_clocks;
  59:../../libs/libDaisy/src/sys/system.h ****     };
  60:../../libs/libDaisy/src/sys/system.h **** 
  61:../../libs/libDaisy/src/sys/system.h ****     /** Describes the different regions of memory available to the Daisy */
  62:../../libs/libDaisy/src/sys/system.h ****     enum MemoryRegion
  63:../../libs/libDaisy/src/sys/system.h ****     {
  64:../../libs/libDaisy/src/sys/system.h ****         INTERNAL_FLASH = 0,
  65:../../libs/libDaisy/src/sys/system.h ****         ITCMRAM,
  66:../../libs/libDaisy/src/sys/system.h ****         DTCMRAM,
  67:../../libs/libDaisy/src/sys/system.h ****         SRAM_D1,
  68:../../libs/libDaisy/src/sys/system.h ****         SRAM_D2,
  69:../../libs/libDaisy/src/sys/system.h ****         SRAM_D3,
  70:../../libs/libDaisy/src/sys/system.h ****         SDRAM,
  71:../../libs/libDaisy/src/sys/system.h ****         QSPI,
  72:../../libs/libDaisy/src/sys/system.h ****         INVALID_ADDRESS,
  73:../../libs/libDaisy/src/sys/system.h ****     };
  74:../../libs/libDaisy/src/sys/system.h **** 
  75:../../libs/libDaisy/src/sys/system.h ****     /** Bootloader struct for controlling bootloading parameters */
  76:../../libs/libDaisy/src/sys/system.h ****     struct BootInfo
  77:../../libs/libDaisy/src/sys/system.h ****     {
  78:../../libs/libDaisy/src/sys/system.h ****         enum class Type : uint32_t
  79:../../libs/libDaisy/src/sys/system.h ****         {
  80:../../libs/libDaisy/src/sys/system.h ****             INVALID      = 0x00000000,
  81:../../libs/libDaisy/src/sys/system.h ****             JUMP         = 0xDEADBEEF,
  82:../../libs/libDaisy/src/sys/system.h ****             SKIP_TIMEOUT = 0x5AFEB007,
  83:../../libs/libDaisy/src/sys/system.h ****             INF_TIMEOUT  = 0xB0074EFA,
  84:../../libs/libDaisy/src/sys/system.h ****         } status;
  85:../../libs/libDaisy/src/sys/system.h ****         uint32_t data;
  86:../../libs/libDaisy/src/sys/system.h ****         enum class Version : uint32_t
ARM GAS  C:\Users\skipi\AppData\Local\Temp\cceg9rRe.s 			page 4


  87:../../libs/libDaisy/src/sys/system.h ****         {
  88:../../libs/libDaisy/src/sys/system.h ****             LT_v6_0 = 0, // Less than v6.0
  89:../../libs/libDaisy/src/sys/system.h ****             NONE,        // No bootloader present
  90:../../libs/libDaisy/src/sys/system.h ****             v6_0,        // v6.0
  91:../../libs/libDaisy/src/sys/system.h ****             v6_1,        // v6.1 or greater
  92:../../libs/libDaisy/src/sys/system.h ****             LAST
  93:../../libs/libDaisy/src/sys/system.h ****         } version;
  94:../../libs/libDaisy/src/sys/system.h ****     };
  95:../../libs/libDaisy/src/sys/system.h **** 
  96:../../libs/libDaisy/src/sys/system.h ****     System() {}
  97:../../libs/libDaisy/src/sys/system.h ****     ~System() {}
  44              		.loc 3 97 5 is_stmt 1 view .LVU3
  45              		.loc 3 97 5 is_stmt 0 view .LVU4
  46              	.LBE366:
  47              	.LBB367:
  48              	.LBI367:
  49              		.file 4 "../../libs/libDaisy/src/hid/usb.h"
   1:../../libs/libDaisy/src/hid/usb.h **** #pragma once
   2:../../libs/libDaisy/src/hid/usb.h **** #ifndef DSY_HID_USB_H
   3:../../libs/libDaisy/src/hid/usb.h **** #define DSY_HID_USB_H
   4:../../libs/libDaisy/src/hid/usb.h **** #include <stdint.h>
   5:../../libs/libDaisy/src/hid/usb.h **** #include <stdlib.h>
   6:../../libs/libDaisy/src/hid/usb.h **** 
   7:../../libs/libDaisy/src/hid/usb.h **** namespace daisy
   8:../../libs/libDaisy/src/hid/usb.h **** /** @addtogroup human_interface
   9:../../libs/libDaisy/src/hid/usb.h ****     @{
  10:../../libs/libDaisy/src/hid/usb.h **** */
  11:../../libs/libDaisy/src/hid/usb.h **** 
  12:../../libs/libDaisy/src/hid/usb.h **** {
  13:../../libs/libDaisy/src/hid/usb.h **** /** 
  14:../../libs/libDaisy/src/hid/usb.h ****     @brief Interface for initializing and using the USB Peripherals on the daisy
  15:../../libs/libDaisy/src/hid/usb.h ****     @author Stephen Hensley
  16:../../libs/libDaisy/src/hid/usb.h ****     @date December 2019
  17:../../libs/libDaisy/src/hid/usb.h **** */
  18:../../libs/libDaisy/src/hid/usb.h **** class UsbHandle
  19:../../libs/libDaisy/src/hid/usb.h **** {
  20:../../libs/libDaisy/src/hid/usb.h ****   public:
  21:../../libs/libDaisy/src/hid/usb.h ****     /** Return values for USBHandle Functions */
  22:../../libs/libDaisy/src/hid/usb.h ****     enum class Result
  23:../../libs/libDaisy/src/hid/usb.h ****     {
  24:../../libs/libDaisy/src/hid/usb.h ****         OK,
  25:../../libs/libDaisy/src/hid/usb.h ****         ERR,
  26:../../libs/libDaisy/src/hid/usb.h ****     };
  27:../../libs/libDaisy/src/hid/usb.h **** 
  28:../../libs/libDaisy/src/hid/usb.h ****     /** Specified which of the two USB Peripherals to initialize. */
  29:../../libs/libDaisy/src/hid/usb.h ****     enum UsbPeriph
  30:../../libs/libDaisy/src/hid/usb.h ****     {
  31:../../libs/libDaisy/src/hid/usb.h ****         FS_INTERNAL, /**< Internal pin */
  32:../../libs/libDaisy/src/hid/usb.h ****         FS_EXTERNAL, /**< FS External D+ pin is Pin 38 (GPIO32). FS External D- pin is Pin 37 (GPIO
  33:../../libs/libDaisy/src/hid/usb.h ****         FS_BOTH,     /**< Both */
  34:../../libs/libDaisy/src/hid/usb.h ****     };
  35:../../libs/libDaisy/src/hid/usb.h **** 
  36:../../libs/libDaisy/src/hid/usb.h **** 
  37:../../libs/libDaisy/src/hid/usb.h ****     /** Function called upon reception of a buffer */
  38:../../libs/libDaisy/src/hid/usb.h ****     typedef void (*ReceiveCallback)(uint8_t* buff, uint32_t* len);
  39:../../libs/libDaisy/src/hid/usb.h **** 
  40:../../libs/libDaisy/src/hid/usb.h ****     UsbHandle() {}
ARM GAS  C:\Users\skipi\AppData\Local\Temp\cceg9rRe.s 			page 5


  41:../../libs/libDaisy/src/hid/usb.h **** 
  42:../../libs/libDaisy/src/hid/usb.h ****     ~UsbHandle() {}
  50              		.loc 4 42 5 is_stmt 1 view .LVU5
  51              		.loc 4 42 5 is_stmt 0 view .LVU6
  52              	.LBE367:
  53              	.LBB368:
  54              	.LBI368:
  55              		.file 5 "../../libs/libDaisy/src/per/adc.h"
   1:../../libs/libDaisy/src/per/adc.h **** #pragma once
   2:../../libs/libDaisy/src/per/adc.h **** #ifndef DSY_ADC_H
   3:../../libs/libDaisy/src/per/adc.h **** #define DSY_ADC_H /**< Macro */
   4:../../libs/libDaisy/src/per/adc.h **** #include <stdint.h>
   5:../../libs/libDaisy/src/per/adc.h **** #include <stdlib.h>
   6:../../libs/libDaisy/src/per/adc.h **** #include "daisy_core.h"
   7:../../libs/libDaisy/src/per/adc.h **** #include "per/gpio.h"
   8:../../libs/libDaisy/src/per/adc.h **** 
   9:../../libs/libDaisy/src/per/adc.h **** #define DSY_ADC_MAX_CHANNELS 16 /**< Maximum number of ADC channels */
  10:../../libs/libDaisy/src/per/adc.h **** 
  11:../../libs/libDaisy/src/per/adc.h **** namespace daisy
  12:../../libs/libDaisy/src/per/adc.h **** {
  13:../../libs/libDaisy/src/per/adc.h **** /** @addtogroup per_analog
  14:../../libs/libDaisy/src/per/adc.h ****     @{
  15:../../libs/libDaisy/src/per/adc.h **** */
  16:../../libs/libDaisy/src/per/adc.h **** 
  17:../../libs/libDaisy/src/per/adc.h **** /* While there may not be many configuration options here,
  18:../../libs/libDaisy/src/per/adc.h **** using a struct like this allows us to add more configuration
  19:../../libs/libDaisy/src/per/adc.h **** later without breaking existing functionality.
  20:../../libs/libDaisy/src/per/adc.h **** */
  21:../../libs/libDaisy/src/per/adc.h **** 
  22:../../libs/libDaisy/src/per/adc.h **** /** @brief   Configuration Structure for an ADC Channel 
  23:../../libs/libDaisy/src/per/adc.h ****  *  @details This can be used to configure a a single input, 
  24:../../libs/libDaisy/src/per/adc.h ****  *           or a multiplexed input, allowing up to 8 inputs on 
  25:../../libs/libDaisy/src/per/adc.h ****  *           one channel.
  26:../../libs/libDaisy/src/per/adc.h ****  *  @note    Sharing data lines to multiple muxes _is_ possible, but
  27:../../libs/libDaisy/src/per/adc.h ****  *           each channel sharing data lines must be set to the maximum
  28:../../libs/libDaisy/src/per/adc.h ****  *           number of channels, even if some multiplexers have fewer
  29:../../libs/libDaisy/src/per/adc.h ****  *           inputs connected.
  30:../../libs/libDaisy/src/per/adc.h **** */
  31:../../libs/libDaisy/src/per/adc.h **** struct AdcChannelConfig
  32:../../libs/libDaisy/src/per/adc.h **** {
  33:../../libs/libDaisy/src/per/adc.h ****     /** Which pin to use for multiplexing */
  34:../../libs/libDaisy/src/per/adc.h ****     enum MuxPin
  35:../../libs/libDaisy/src/per/adc.h ****     {
  36:../../libs/libDaisy/src/per/adc.h ****         MUX_SEL_0,    /**< & */
  37:../../libs/libDaisy/src/per/adc.h ****         MUX_SEL_1,    /**< & */
  38:../../libs/libDaisy/src/per/adc.h ****         MUX_SEL_2,    /**< & */
  39:../../libs/libDaisy/src/per/adc.h ****         MUX_SEL_LAST, /**< & */
  40:../../libs/libDaisy/src/per/adc.h ****     };
  41:../../libs/libDaisy/src/per/adc.h **** 
  42:../../libs/libDaisy/src/per/adc.h ****     /** \brief per channel conversion speed added to fixed time based on bitdepth, etc. */
  43:../../libs/libDaisy/src/per/adc.h ****     enum ConversionSpeed
  44:../../libs/libDaisy/src/per/adc.h ****     {
  45:../../libs/libDaisy/src/per/adc.h ****         SPEED_1CYCLES_5,
  46:../../libs/libDaisy/src/per/adc.h ****         SPEED_2CYCLES_5,
  47:../../libs/libDaisy/src/per/adc.h ****         SPEED_8CYCLES_5,
  48:../../libs/libDaisy/src/per/adc.h ****         SPEED_16CYCLES_5,
  49:../../libs/libDaisy/src/per/adc.h ****         SPEED_32CYCLES_5,
ARM GAS  C:\Users\skipi\AppData\Local\Temp\cceg9rRe.s 			page 6


  50:../../libs/libDaisy/src/per/adc.h ****         SPEED_64CYCLES_5,
  51:../../libs/libDaisy/src/per/adc.h ****         SPEED_387CYCLES_5,
  52:../../libs/libDaisy/src/per/adc.h ****         SPEED_810CYCLES_5,
  53:../../libs/libDaisy/src/per/adc.h ****     };
  54:../../libs/libDaisy/src/per/adc.h **** 
  55:../../libs/libDaisy/src/per/adc.h ****     /** Initializes a single ADC pin as an ADC. 
  56:../../libs/libDaisy/src/per/adc.h ****     \param pin Pin to init.
  57:../../libs/libDaisy/src/per/adc.h ****     \param speed conversion speed for this pin defaults to 8.5 cycles
  58:../../libs/libDaisy/src/per/adc.h ****      */
  59:../../libs/libDaisy/src/per/adc.h ****     void InitSingle(Pin pin, ConversionSpeed speed = SPEED_8CYCLES_5);
  60:../../libs/libDaisy/src/per/adc.h **** 
  61:../../libs/libDaisy/src/per/adc.h ****     /** 
  62:../../libs/libDaisy/src/per/adc.h ****     Initializes a single ADC pin as a Multiplexed ADC.
  63:../../libs/libDaisy/src/per/adc.h ****     Requires a CD405X Multiplexer connected to the pin.
  64:../../libs/libDaisy/src/per/adc.h ****     You only need to supply the mux pins that are required,
  65:../../libs/libDaisy/src/per/adc.h ****     e.g. a 4052 mux would only require mux_0 and mux_1.
  66:../../libs/libDaisy/src/per/adc.h ****     Internal Callbacks handle the pin addressing.
  67:../../libs/libDaisy/src/per/adc.h ****     \param adc_pin &
  68:../../libs/libDaisy/src/per/adc.h ****     \param mux_channels must be 1-8
  69:../../libs/libDaisy/src/per/adc.h ****     \param mux_0 First mux pin
  70:../../libs/libDaisy/src/per/adc.h ****     \param mux_1 Second mux pin
  71:../../libs/libDaisy/src/per/adc.h ****     \param mux_2 Third mux pin
  72:../../libs/libDaisy/src/per/adc.h ****     \param speed conversion speed for this pin defaults to 8.5 cycles
  73:../../libs/libDaisy/src/per/adc.h ****     */
  74:../../libs/libDaisy/src/per/adc.h ****     void InitMux(Pin             adc_pin,
  75:../../libs/libDaisy/src/per/adc.h ****                  size_t          mux_channels,
  76:../../libs/libDaisy/src/per/adc.h ****                  Pin             mux_0,
  77:../../libs/libDaisy/src/per/adc.h ****                  Pin             mux_1 = Pin(PORTX, 0),
  78:../../libs/libDaisy/src/per/adc.h ****                  Pin             mux_2 = Pin(PORTX, 0),
  79:../../libs/libDaisy/src/per/adc.h ****                  ConversionSpeed speed = SPEED_8CYCLES_5);
  80:../../libs/libDaisy/src/per/adc.h **** 
  81:../../libs/libDaisy/src/per/adc.h ****     GPIO            pin_;                   /**< & */
  82:../../libs/libDaisy/src/per/adc.h ****     GPIO            mux_pin_[MUX_SEL_LAST]; /**< & */
  83:../../libs/libDaisy/src/per/adc.h ****     uint8_t         mux_channels_;          /**< & */
  84:../../libs/libDaisy/src/per/adc.h ****     ConversionSpeed speed_;
  85:../../libs/libDaisy/src/per/adc.h **** };
  86:../../libs/libDaisy/src/per/adc.h **** 
  87:../../libs/libDaisy/src/per/adc.h **** /**
  88:../../libs/libDaisy/src/per/adc.h ****    @brief Handler for analog to digital conversion
  89:../../libs/libDaisy/src/per/adc.h **** */
  90:../../libs/libDaisy/src/per/adc.h **** class AdcHandle
  91:../../libs/libDaisy/src/per/adc.h **** {
  92:../../libs/libDaisy/src/per/adc.h ****   public:
  93:../../libs/libDaisy/src/per/adc.h ****     /** Supported oversampling amounts */
  94:../../libs/libDaisy/src/per/adc.h ****     enum OverSampling
  95:../../libs/libDaisy/src/per/adc.h ****     {
  96:../../libs/libDaisy/src/per/adc.h ****         OVS_NONE, /**< & */
  97:../../libs/libDaisy/src/per/adc.h ****         OVS_4,    /**< & */
  98:../../libs/libDaisy/src/per/adc.h ****         OVS_8,    /**< & */
  99:../../libs/libDaisy/src/per/adc.h ****         OVS_16,   /**< & */
 100:../../libs/libDaisy/src/per/adc.h ****         OVS_32,   /**< & */
 101:../../libs/libDaisy/src/per/adc.h ****         OVS_64,   /**< & */
 102:../../libs/libDaisy/src/per/adc.h ****         OVS_128,  /**< & */
 103:../../libs/libDaisy/src/per/adc.h ****         OVS_256,  /**< & */
 104:../../libs/libDaisy/src/per/adc.h ****         OVS_512,  /**< & */
 105:../../libs/libDaisy/src/per/adc.h ****         OVS_1024, /**< & */
 106:../../libs/libDaisy/src/per/adc.h ****         OVS_LAST, /**< & */
ARM GAS  C:\Users\skipi\AppData\Local\Temp\cceg9rRe.s 			page 7


 107:../../libs/libDaisy/src/per/adc.h ****     };
 108:../../libs/libDaisy/src/per/adc.h **** 
 109:../../libs/libDaisy/src/per/adc.h ****     AdcHandle() {}
 110:../../libs/libDaisy/src/per/adc.h ****     ~AdcHandle() {}
  56              		.loc 5 110 5 is_stmt 1 view .LVU7
  57              		.loc 5 110 5 is_stmt 0 view .LVU8
  58              	.LBE368:
  59              	.LBB369:
  60              	.LBI369:
  61              		.file 6 "../../libs/libDaisy/src/hid/audio.h"
   1:../../libs/libDaisy/src/hid/audio.h **** #ifndef DSY_AUDIO_H
   2:../../libs/libDaisy/src/hid/audio.h **** #define DSY_AUDIO_H /**< & */
   3:../../libs/libDaisy/src/hid/audio.h **** 
   4:../../libs/libDaisy/src/hid/audio.h **** #include "per/sai.h"
   5:../../libs/libDaisy/src/hid/audio.h **** 
   6:../../libs/libDaisy/src/hid/audio.h **** namespace daisy
   7:../../libs/libDaisy/src/hid/audio.h **** {
   8:../../libs/libDaisy/src/hid/audio.h **** /** @brief Audio Engine Handle
   9:../../libs/libDaisy/src/hid/audio.h ****  *  @ingroup audio 
  10:../../libs/libDaisy/src/hid/audio.h ****  *  @details This class allows for higher level access to an audio engine.
  11:../../libs/libDaisy/src/hid/audio.h ****  *           If you're using a SOM like the DaisySeed or DaisyPatchSM (or any 
  12:../../libs/libDaisy/src/hid/audio.h ****  *            board that includes one of those objects) then the intialization
  13:../../libs/libDaisy/src/hid/audio.h ****  *            is already taken  care of.
  14:../../libs/libDaisy/src/hid/audio.h ****  *           If you're setting up your own custom hardware, or need to make changes
  15:../../libs/libDaisy/src/hid/audio.h ****  *           you will have to take the following steps:
  16:../../libs/libDaisy/src/hid/audio.h ****  *             1. Create and Initialize an SaiHandle or two depending on your requirements
  17:../../libs/libDaisy/src/hid/audio.h ****  *             2. Initialize the Audio Handle with the desired settings and the Initialized SaiHand
  18:../../libs/libDaisy/src/hid/audio.h ****  *             3. If the connected codec requires special configuration or initialization, do so
  19:../../libs/libDaisy/src/hid/audio.h ****  *             4. Write a callback method using either the AudioCallback or the InterleavingAudioCa
  20:../../libs/libDaisy/src/hid/audio.h ****  *             5. Start the Audio using one of the StartAudio function
  21:../../libs/libDaisy/src/hid/audio.h ****  */
  22:../../libs/libDaisy/src/hid/audio.h **** class AudioHandle
  23:../../libs/libDaisy/src/hid/audio.h **** {
  24:../../libs/libDaisy/src/hid/audio.h ****   public:
  25:../../libs/libDaisy/src/hid/audio.h ****     /** Manually configurable details about the Audio Engine */
  26:../../libs/libDaisy/src/hid/audio.h ****     /** TODO: Figure out how to get samplerate in here. */
  27:../../libs/libDaisy/src/hid/audio.h ****     struct Config
  28:../../libs/libDaisy/src/hid/audio.h ****     {
  29:../../libs/libDaisy/src/hid/audio.h ****         /** number of samples to process per callback */
  30:../../libs/libDaisy/src/hid/audio.h ****         size_t blocksize = 48;
  31:../../libs/libDaisy/src/hid/audio.h **** 
  32:../../libs/libDaisy/src/hid/audio.h ****         /**< Sample rate of audio */
  33:../../libs/libDaisy/src/hid/audio.h ****         SaiHandle::Config::SampleRate samplerate
  34:../../libs/libDaisy/src/hid/audio.h ****             = SaiHandle::Config::SampleRate::SAI_48KHZ;
  35:../../libs/libDaisy/src/hid/audio.h **** 
  36:../../libs/libDaisy/src/hid/audio.h ****         /** factor for adjustment before and after callback for hardware that may have extra headro
  37:../../libs/libDaisy/src/hid/audio.h ****         float postgain = 1.f;
  38:../../libs/libDaisy/src/hid/audio.h **** 
  39:../../libs/libDaisy/src/hid/audio.h ****         /** factor for additional one-sided compensation to audio path for hardware that may
  40:../../libs/libDaisy/src/hid/audio.h ****          *  have unequal input/output ranges
  41:../../libs/libDaisy/src/hid/audio.h ****          */
  42:../../libs/libDaisy/src/hid/audio.h ****         float output_compensation = 1.f;
  43:../../libs/libDaisy/src/hid/audio.h ****     };
  44:../../libs/libDaisy/src/hid/audio.h **** 
  45:../../libs/libDaisy/src/hid/audio.h ****     enum class Result
  46:../../libs/libDaisy/src/hid/audio.h ****     {
  47:../../libs/libDaisy/src/hid/audio.h ****         OK,
ARM GAS  C:\Users\skipi\AppData\Local\Temp\cceg9rRe.s 			page 8


  48:../../libs/libDaisy/src/hid/audio.h ****         ERR,
  49:../../libs/libDaisy/src/hid/audio.h ****     };
  50:../../libs/libDaisy/src/hid/audio.h **** 
  51:../../libs/libDaisy/src/hid/audio.h ****     /** Non-Interleaving input buffer
  52:../../libs/libDaisy/src/hid/audio.h ****      * Buffer arranged by float[chn][sample] 
  53:../../libs/libDaisy/src/hid/audio.h ****      * const so that the user can't modify the input
  54:../../libs/libDaisy/src/hid/audio.h ****      */
  55:../../libs/libDaisy/src/hid/audio.h ****     typedef const float* const* InputBuffer;
  56:../../libs/libDaisy/src/hid/audio.h **** 
  57:../../libs/libDaisy/src/hid/audio.h ****     /** Non-Interleaving output buffer
  58:../../libs/libDaisy/src/hid/audio.h ****      * Arranged by float[chn][sample] 
  59:../../libs/libDaisy/src/hid/audio.h ****      */
  60:../../libs/libDaisy/src/hid/audio.h ****     typedef float** OutputBuffer;
  61:../../libs/libDaisy/src/hid/audio.h **** 
  62:../../libs/libDaisy/src/hid/audio.h ****     /** Type for a Non-Interleaving audio callback 
  63:../../libs/libDaisy/src/hid/audio.h ****      * Non-Interleaving audio callbacks in daisy will be of this type
  64:../../libs/libDaisy/src/hid/audio.h ****      */
  65:../../libs/libDaisy/src/hid/audio.h ****     typedef void (*AudioCallback)(InputBuffer  in,
  66:../../libs/libDaisy/src/hid/audio.h ****                                   OutputBuffer out,
  67:../../libs/libDaisy/src/hid/audio.h ****                                   size_t       size);
  68:../../libs/libDaisy/src/hid/audio.h **** 
  69:../../libs/libDaisy/src/hid/audio.h ****     /** Interleaving Input buffer
  70:../../libs/libDaisy/src/hid/audio.h ****      ** audio is prepared as { L0, R0, L1, R1, . . . LN, RN }]
  71:../../libs/libDaisy/src/hid/audio.h ****      ** this is const, as the user shouldn't modify it
  72:../../libs/libDaisy/src/hid/audio.h ****     */
  73:../../libs/libDaisy/src/hid/audio.h ****     typedef const float* InterleavingInputBuffer;
  74:../../libs/libDaisy/src/hid/audio.h **** 
  75:../../libs/libDaisy/src/hid/audio.h ****     /** Interleaving Output buffer 
  76:../../libs/libDaisy/src/hid/audio.h ****      ** audio is prepared as { L0, R0, L1, R1, . . . LN, RN }
  77:../../libs/libDaisy/src/hid/audio.h ****     */
  78:../../libs/libDaisy/src/hid/audio.h ****     typedef float* InterleavingOutputBuffer;
  79:../../libs/libDaisy/src/hid/audio.h **** 
  80:../../libs/libDaisy/src/hid/audio.h ****     /** Interleaving Audio Callback 
  81:../../libs/libDaisy/src/hid/audio.h ****      * Interleaving audio callbacks in daisy must be of this type
  82:../../libs/libDaisy/src/hid/audio.h ****      */
  83:../../libs/libDaisy/src/hid/audio.h ****     typedef void (*InterleavingAudioCallback)(InterleavingInputBuffer  in,
  84:../../libs/libDaisy/src/hid/audio.h ****                                               InterleavingOutputBuffer out,
  85:../../libs/libDaisy/src/hid/audio.h ****                                               size_t                   size);
  86:../../libs/libDaisy/src/hid/audio.h **** 
  87:../../libs/libDaisy/src/hid/audio.h ****     AudioHandle() : pimpl_(nullptr) {}
  88:../../libs/libDaisy/src/hid/audio.h ****     ~AudioHandle() {}
  62              		.loc 6 88 5 is_stmt 1 view .LVU9
  63              		.loc 6 88 5 is_stmt 0 view .LVU10
  64              	.LBE369:
  65              		.loc 1 22 19 view .LVU11
  66 0000 7047     		bx	lr
  67              		.cfi_endproc
  68              	.LFE2671:
  70              		.weak	_ZN5daisy9DaisySeedD1Ev
  71              		.thumb_set _ZN5daisy9DaisySeedD1Ev,_ZN5daisy9DaisySeedD2Ev
  72 0002 00BF     		.section	.text._ZN7daisysp4AdsrD2Ev,"axG",%progbits,_ZN7daisysp4AdsrD5Ev,comdat
  73              		.align	1
  74              		.p2align 2,,3
  75              		.weak	_ZN7daisysp4AdsrD2Ev
  76              		.syntax unified
  77              		.thumb
  78              		.thumb_func
ARM GAS  C:\Users\skipi\AppData\Local\Temp\cceg9rRe.s 			page 9


  79              		.fpu fpv5-d16
  81              	_ZN7daisysp4AdsrD2Ev:
  82              	.LVL1:
  83              	.LFB2694:
  84              		.file 7 "../../libs/DaisySP/Source/Control/adsr.h"
   1:../../libs/DaisySP/Source/Control/adsr.h **** /*
   2:../../libs/DaisySP/Source/Control/adsr.h **** Copyright (c) 2020 Electrosmith, Corp, Paul Batchelor
   3:../../libs/DaisySP/Source/Control/adsr.h **** 
   4:../../libs/DaisySP/Source/Control/adsr.h **** Use of this source code is governed by an MIT-style
   5:../../libs/DaisySP/Source/Control/adsr.h **** license that can be found in the LICENSE file or at
   6:../../libs/DaisySP/Source/Control/adsr.h **** https://opensource.org/licenses/MIT.
   7:../../libs/DaisySP/Source/Control/adsr.h **** */
   8:../../libs/DaisySP/Source/Control/adsr.h **** 
   9:../../libs/DaisySP/Source/Control/adsr.h **** #pragma once
  10:../../libs/DaisySP/Source/Control/adsr.h **** #ifndef DSY_ADSR_H
  11:../../libs/DaisySP/Source/Control/adsr.h **** #define DSY_ADSR_H
  12:../../libs/DaisySP/Source/Control/adsr.h **** 
  13:../../libs/DaisySP/Source/Control/adsr.h **** #include <stdint.h>
  14:../../libs/DaisySP/Source/Control/adsr.h **** #ifdef __cplusplus
  15:../../libs/DaisySP/Source/Control/adsr.h **** 
  16:../../libs/DaisySP/Source/Control/adsr.h **** namespace daisysp
  17:../../libs/DaisySP/Source/Control/adsr.h **** {
  18:../../libs/DaisySP/Source/Control/adsr.h **** /** Distinct stages that the phase of the envelope can be located in.
  19:../../libs/DaisySP/Source/Control/adsr.h **** - IDLE   = located at phase location 0, and not currently running
  20:../../libs/DaisySP/Source/Control/adsr.h **** - ATTACK  = First segment of envelope where phase moves from 0 to 1
  21:../../libs/DaisySP/Source/Control/adsr.h **** - DECAY   = Second segment of envelope where phase moves from 1 to SUSTAIN value
  22:../../libs/DaisySP/Source/Control/adsr.h **** - RELEASE =     Fourth segment of envelop where phase moves from SUSTAIN to 0
  23:../../libs/DaisySP/Source/Control/adsr.h **** */
  24:../../libs/DaisySP/Source/Control/adsr.h **** enum
  25:../../libs/DaisySP/Source/Control/adsr.h **** {
  26:../../libs/DaisySP/Source/Control/adsr.h ****     ADSR_SEG_IDLE    = 0,
  27:../../libs/DaisySP/Source/Control/adsr.h ****     ADSR_SEG_ATTACK  = 1,
  28:../../libs/DaisySP/Source/Control/adsr.h ****     ADSR_SEG_DECAY   = 2,
  29:../../libs/DaisySP/Source/Control/adsr.h ****     ADSR_SEG_RELEASE = 4
  30:../../libs/DaisySP/Source/Control/adsr.h **** };
  31:../../libs/DaisySP/Source/Control/adsr.h **** 
  32:../../libs/DaisySP/Source/Control/adsr.h **** 
  33:../../libs/DaisySP/Source/Control/adsr.h **** /** adsr envelope module
  34:../../libs/DaisySP/Source/Control/adsr.h **** 
  35:../../libs/DaisySP/Source/Control/adsr.h **** Original author(s) : Paul Batchelor
  36:../../libs/DaisySP/Source/Control/adsr.h **** 
  37:../../libs/DaisySP/Source/Control/adsr.h **** Ported from Soundpipe by Ben Sergentanis, May 2020
  38:../../libs/DaisySP/Source/Control/adsr.h ****  
  39:../../libs/DaisySP/Source/Control/adsr.h **** Remake by Steffan DIedrichsen, May 2021
  40:../../libs/DaisySP/Source/Control/adsr.h **** */
  41:../../libs/DaisySP/Source/Control/adsr.h **** class Adsr
  42:../../libs/DaisySP/Source/Control/adsr.h **** {
  43:../../libs/DaisySP/Source/Control/adsr.h ****   public:
  44:../../libs/DaisySP/Source/Control/adsr.h ****     Adsr() {}
  45:../../libs/DaisySP/Source/Control/adsr.h ****     ~Adsr() {}
  85              		.loc 7 45 5 is_stmt 1 view -0
  86              		.cfi_startproc
  87              		@ args = 0, pretend = 0, frame = 0
  88              		@ frame_needed = 0, uses_anonymous_args = 0
  89              		@ link register save eliminated.
  90              		.loc 7 45 14 is_stmt 0 view .LVU13
  91 0000 7047     		bx	lr
ARM GAS  C:\Users\skipi\AppData\Local\Temp\cceg9rRe.s 			page 10


  92              		.cfi_endproc
  93              	.LFE2694:
  95              		.weak	_ZN7daisysp4AdsrD1Ev
  96              		.thumb_set _ZN7daisysp4AdsrD1Ev,_ZN7daisysp4AdsrD2Ev
  97              		.section	.text._ZN7daisysp10OscillatorD2Ev,"axG",%progbits,_ZN7daisysp10OscillatorD5Ev,comdat
  98              		.align	1
  99              		.p2align 2,,3
 100              		.weak	_ZN7daisysp10OscillatorD2Ev
 101              		.syntax unified
 102              		.thumb
 103              		.thumb_func
 104              		.fpu fpv5-d16
 106              	_ZN7daisysp10OscillatorD2Ev:
 107              	.LVL2:
 108              	.LFB4356:
 109              		.file 8 "../../libs/DaisySP/Source/Synthesis/oscillator.h"
   1:../../libs/DaisySP/Source/Synthesis/oscillator.h **** /*
   2:../../libs/DaisySP/Source/Synthesis/oscillator.h **** Copyright (c) 2020 Electrosmith, Corp
   3:../../libs/DaisySP/Source/Synthesis/oscillator.h **** 
   4:../../libs/DaisySP/Source/Synthesis/oscillator.h **** Use of this source code is governed by an MIT-style
   5:../../libs/DaisySP/Source/Synthesis/oscillator.h **** license that can be found in the LICENSE file or at
   6:../../libs/DaisySP/Source/Synthesis/oscillator.h **** https://opensource.org/licenses/MIT.
   7:../../libs/DaisySP/Source/Synthesis/oscillator.h **** */
   8:../../libs/DaisySP/Source/Synthesis/oscillator.h **** 
   9:../../libs/DaisySP/Source/Synthesis/oscillator.h **** #pragma once
  10:../../libs/DaisySP/Source/Synthesis/oscillator.h **** #ifndef DSY_OSCILLATOR_H
  11:../../libs/DaisySP/Source/Synthesis/oscillator.h **** #define DSY_OSCILLATOR_H
  12:../../libs/DaisySP/Source/Synthesis/oscillator.h **** #include <stdint.h>
  13:../../libs/DaisySP/Source/Synthesis/oscillator.h **** #include "Utility/dsp.h"
  14:../../libs/DaisySP/Source/Synthesis/oscillator.h **** #ifdef __cplusplus
  15:../../libs/DaisySP/Source/Synthesis/oscillator.h **** 
  16:../../libs/DaisySP/Source/Synthesis/oscillator.h **** namespace daisysp
  17:../../libs/DaisySP/Source/Synthesis/oscillator.h **** {
  18:../../libs/DaisySP/Source/Synthesis/oscillator.h **** /** Synthesis of several waveforms, including polyBLEP bandlimited waveforms.
  19:../../libs/DaisySP/Source/Synthesis/oscillator.h **** */
  20:../../libs/DaisySP/Source/Synthesis/oscillator.h **** class Oscillator
  21:../../libs/DaisySP/Source/Synthesis/oscillator.h **** {
  22:../../libs/DaisySP/Source/Synthesis/oscillator.h ****   public:
  23:../../libs/DaisySP/Source/Synthesis/oscillator.h ****     Oscillator() {}
  24:../../libs/DaisySP/Source/Synthesis/oscillator.h ****     ~Oscillator() {}
 110              		.loc 8 24 5 is_stmt 1 view -0
 111              		.cfi_startproc
 112              		@ args = 0, pretend = 0, frame = 0
 113              		@ frame_needed = 0, uses_anonymous_args = 0
 114              		@ link register save eliminated.
 115              		.loc 8 24 20 is_stmt 0 view .LVU15
 116 0000 7047     		bx	lr
 117              		.cfi_endproc
 118              	.LFE4356:
 120              		.weak	_ZN7daisysp10OscillatorD1Ev
 121              		.thumb_set _ZN7daisysp10OscillatorD1Ev,_ZN7daisysp10OscillatorD2Ev
 122              		.section	.text._ZN5daisy6Mpr121INS_18Mpr121I2CTransportEED2Ev,"axG",%progbits,_ZN5daisy6Mpr121INS_
 123              		.align	1
 124              		.p2align 2,,3
 125              		.weak	_ZN5daisy6Mpr121INS_18Mpr121I2CTransportEED2Ev
 126              		.syntax unified
 127              		.thumb
ARM GAS  C:\Users\skipi\AppData\Local\Temp\cceg9rRe.s 			page 11


 128              		.thumb_func
 129              		.fpu fpv5-d16
 131              	_ZN5daisy6Mpr121INS_18Mpr121I2CTransportEED2Ev:
 132              	.LVL3:
 133              	.LFB5425:
 134              		.file 9 "../../libs/libDaisy/src/dev/mpr121.h"
   1:../../libs/libDaisy/src/dev/mpr121.h **** #pragma once
   2:../../libs/libDaisy/src/dev/mpr121.h **** #ifndef DSY_MPR121_H
   3:../../libs/libDaisy/src/dev/mpr121.h **** #define DSY_MPR121_H
   4:../../libs/libDaisy/src/dev/mpr121.h **** 
   5:../../libs/libDaisy/src/dev/mpr121.h **** // The default I2C address
   6:../../libs/libDaisy/src/dev/mpr121.h **** #define MPR121_I2CADDR_DEFAULT 0x5A        ///< default I2C address
   7:../../libs/libDaisy/src/dev/mpr121.h **** #define MPR121_TOUCH_THRESHOLD_DEFAULT 2  ///< default touch threshold value
   8:../../libs/libDaisy/src/dev/mpr121.h **** #define MPR121_RELEASE_THRESHOLD_DEFAULT 0 ///< default relese threshold value
   9:../../libs/libDaisy/src/dev/mpr121.h **** 
  10:../../libs/libDaisy/src/dev/mpr121.h **** namespace daisy
  11:../../libs/libDaisy/src/dev/mpr121.h **** {
  12:../../libs/libDaisy/src/dev/mpr121.h **** /** @addtogroup external 
  13:../../libs/libDaisy/src/dev/mpr121.h ****     @{ 
  14:../../libs/libDaisy/src/dev/mpr121.h **** */
  15:../../libs/libDaisy/src/dev/mpr121.h **** 
  16:../../libs/libDaisy/src/dev/mpr121.h **** /** I2C Transport for MPR121 */
  17:../../libs/libDaisy/src/dev/mpr121.h **** class Mpr121I2CTransport
  18:../../libs/libDaisy/src/dev/mpr121.h **** {
  19:../../libs/libDaisy/src/dev/mpr121.h ****   public:
  20:../../libs/libDaisy/src/dev/mpr121.h ****     Mpr121I2CTransport() {}
  21:../../libs/libDaisy/src/dev/mpr121.h ****     ~Mpr121I2CTransport() {}
  22:../../libs/libDaisy/src/dev/mpr121.h **** 
  23:../../libs/libDaisy/src/dev/mpr121.h ****     struct Config
  24:../../libs/libDaisy/src/dev/mpr121.h ****     {
  25:../../libs/libDaisy/src/dev/mpr121.h ****         I2CHandle::Config::Peripheral periph;
  26:../../libs/libDaisy/src/dev/mpr121.h ****         I2CHandle::Config::Speed      speed;
  27:../../libs/libDaisy/src/dev/mpr121.h ****         Pin                           scl;
  28:../../libs/libDaisy/src/dev/mpr121.h ****         Pin                           sda;
  29:../../libs/libDaisy/src/dev/mpr121.h **** 
  30:../../libs/libDaisy/src/dev/mpr121.h ****         I2CHandle::Config::Mode mode;
  31:../../libs/libDaisy/src/dev/mpr121.h **** 
  32:../../libs/libDaisy/src/dev/mpr121.h ****         uint8_t dev_addr;
  33:../../libs/libDaisy/src/dev/mpr121.h **** 
  34:../../libs/libDaisy/src/dev/mpr121.h ****         Config()
  35:../../libs/libDaisy/src/dev/mpr121.h ****         {
  36:../../libs/libDaisy/src/dev/mpr121.h ****             periph = I2CHandle::Config::Peripheral::I2C_1;
  37:../../libs/libDaisy/src/dev/mpr121.h ****             speed  = I2CHandle::Config::Speed::I2C_400KHZ;
  38:../../libs/libDaisy/src/dev/mpr121.h **** 
  39:../../libs/libDaisy/src/dev/mpr121.h ****             scl = Pin(PORTB, 8);
  40:../../libs/libDaisy/src/dev/mpr121.h ****             sda = Pin(PORTB, 9);
  41:../../libs/libDaisy/src/dev/mpr121.h **** 
  42:../../libs/libDaisy/src/dev/mpr121.h ****             dev_addr = MPR121_I2CADDR_DEFAULT;
  43:../../libs/libDaisy/src/dev/mpr121.h ****         }
  44:../../libs/libDaisy/src/dev/mpr121.h ****     };
  45:../../libs/libDaisy/src/dev/mpr121.h **** 
  46:../../libs/libDaisy/src/dev/mpr121.h ****     /** \return Did the transaction error? i.e. Return true if error, false if ok */
  47:../../libs/libDaisy/src/dev/mpr121.h ****     inline bool Init(Config config)
  48:../../libs/libDaisy/src/dev/mpr121.h ****     {
  49:../../libs/libDaisy/src/dev/mpr121.h ****         config_ = config;
  50:../../libs/libDaisy/src/dev/mpr121.h **** 
  51:../../libs/libDaisy/src/dev/mpr121.h ****         I2CHandle::Config i2c_conf;
ARM GAS  C:\Users\skipi\AppData\Local\Temp\cceg9rRe.s 			page 12


  52:../../libs/libDaisy/src/dev/mpr121.h ****         i2c_conf.mode   = I2CHandle::Config::Mode::I2C_MASTER;
  53:../../libs/libDaisy/src/dev/mpr121.h ****         i2c_conf.periph = config.periph;
  54:../../libs/libDaisy/src/dev/mpr121.h ****         i2c_conf.speed  = config.speed;
  55:../../libs/libDaisy/src/dev/mpr121.h **** 
  56:../../libs/libDaisy/src/dev/mpr121.h ****         i2c_conf.pin_config.scl = config.scl;
  57:../../libs/libDaisy/src/dev/mpr121.h ****         i2c_conf.pin_config.sda = config.sda;
  58:../../libs/libDaisy/src/dev/mpr121.h **** 
  59:../../libs/libDaisy/src/dev/mpr121.h ****         return I2CHandle::Result::OK != i2c_.Init(i2c_conf);
  60:../../libs/libDaisy/src/dev/mpr121.h ****     }
  61:../../libs/libDaisy/src/dev/mpr121.h **** 
  62:../../libs/libDaisy/src/dev/mpr121.h ****     /** \return Did the transaction error? i.e. Return true if error, false if ok */
  63:../../libs/libDaisy/src/dev/mpr121.h ****     bool Write(uint8_t *data, uint16_t size)
  64:../../libs/libDaisy/src/dev/mpr121.h ****     {
  65:../../libs/libDaisy/src/dev/mpr121.h ****         return I2CHandle::Result::OK
  66:../../libs/libDaisy/src/dev/mpr121.h ****                != i2c_.TransmitBlocking(config_.dev_addr, data, size, 10);
  67:../../libs/libDaisy/src/dev/mpr121.h ****     }
  68:../../libs/libDaisy/src/dev/mpr121.h **** 
  69:../../libs/libDaisy/src/dev/mpr121.h ****     /** \return Did the transaction error? i.e. Return true if error, false if ok */
  70:../../libs/libDaisy/src/dev/mpr121.h ****     bool Read(uint8_t *data, uint16_t size)
  71:../../libs/libDaisy/src/dev/mpr121.h ****     {
  72:../../libs/libDaisy/src/dev/mpr121.h ****         return I2CHandle::Result::OK
  73:../../libs/libDaisy/src/dev/mpr121.h ****                != i2c_.ReceiveBlocking(config_.dev_addr, data, size, 10);
  74:../../libs/libDaisy/src/dev/mpr121.h ****     }
  75:../../libs/libDaisy/src/dev/mpr121.h ****     bool ReadMem(uint8_t *data, uint8_t memAddress, uint16_t memSize)
  76:../../libs/libDaisy/src/dev/mpr121.h ****     {
  77:../../libs/libDaisy/src/dev/mpr121.h ****         return I2CHandle::Result::OK
  78:../../libs/libDaisy/src/dev/mpr121.h ****                != i2c_.Mem_read(
  79:../../libs/libDaisy/src/dev/mpr121.h ****                    config_.dev_addr, memAddress, 1, data, memSize, 10);
  80:../../libs/libDaisy/src/dev/mpr121.h ****     }
  81:../../libs/libDaisy/src/dev/mpr121.h **** 
  82:../../libs/libDaisy/src/dev/mpr121.h ****   private:
  83:../../libs/libDaisy/src/dev/mpr121.h ****     I2CHandle i2c_;
  84:../../libs/libDaisy/src/dev/mpr121.h ****     Config    config_;
  85:../../libs/libDaisy/src/dev/mpr121.h **** };
  86:../../libs/libDaisy/src/dev/mpr121.h **** 
  87:../../libs/libDaisy/src/dev/mpr121.h **** 
  88:../../libs/libDaisy/src/dev/mpr121.h **** /** @brief Device support for MPR121 12x Capacitive Touch Sensor
  89:../../libs/libDaisy/src/dev/mpr121.h ****     @author beserge
  90:../../libs/libDaisy/src/dev/mpr121.h ****     @date December 2021
  91:../../libs/libDaisy/src/dev/mpr121.h **** */
  92:../../libs/libDaisy/src/dev/mpr121.h **** template <typename Transport>
  93:../../libs/libDaisy/src/dev/mpr121.h **** class Mpr121
  94:../../libs/libDaisy/src/dev/mpr121.h **** {
  95:../../libs/libDaisy/src/dev/mpr121.h ****   public:
  96:../../libs/libDaisy/src/dev/mpr121.h ****     Mpr121() {}
  97:../../libs/libDaisy/src/dev/mpr121.h ****     ~Mpr121() {}
 135              		.loc 9 97 5 is_stmt 1 view -0
 136              		.cfi_startproc
 137              		@ args = 0, pretend = 0, frame = 0
 138              		@ frame_needed = 0, uses_anonymous_args = 0
 139              		@ link register save eliminated.
 140              	.LBB370:
 141              	.LBI370:
  21:../../libs/libDaisy/src/dev/mpr121.h **** 
 142              		.loc 9 21 5 view .LVU17
  21:../../libs/libDaisy/src/dev/mpr121.h **** 
 143              		.loc 9 21 5 is_stmt 0 view .LVU18
ARM GAS  C:\Users\skipi\AppData\Local\Temp\cceg9rRe.s 			page 13


 144              	.LBE370:
 145              		.loc 9 97 16 view .LVU19
 146 0000 7047     		bx	lr
 147              		.cfi_endproc
 148              	.LFE5425:
 150              		.weak	_ZN5daisy6Mpr121INS_18Mpr121I2CTransportEED1Ev
 151              		.thumb_set _ZN5daisy6Mpr121INS_18Mpr121I2CTransportEED1Ev,_ZN5daisy6Mpr121INS_18Mpr121I2CTransport
 152 0002 00BF     		.section	.text._ZL13AudioCallbackPKfPfj,"ax",%progbits
 153              		.align	1
 154              		.p2align 2,,3
 155              		.syntax unified
 156              		.thumb
 157              		.thumb_func
 158              		.fpu fpv5-d16
 160              	_ZL13AudioCallbackPKfPfj:
 161              	.LVL4:
 162              	.LFB4840:
 163              		.file 10 "main.cpp"
   1:main.cpp      **** #include "../../libs/libDaisy/src/daisy_seed.h"
   2:main.cpp      **** #include "../../libs/DaisySP/Source/daisysp.h"
   3:main.cpp      **** #include "../../Classes/FIIR/CapFir.h"
   4:main.cpp      **** 
   5:main.cpp      **** #ifndef _BV
   6:main.cpp      **** #define _BV(bit) (1 << (bit))
   7:main.cpp      **** #endif
   8:main.cpp      **** #define DEBUG
   9:main.cpp      **** using namespace daisy;
  10:main.cpp      **** using namespace daisysp;
  11:main.cpp      **** 
  12:main.cpp      **** daisy::Mpr121I2C::Config mpr121ObjConf; // creates config for mpr121 (constructor sets all to deafu
  13:main.cpp      **** daisy::Mpr121I2C cap;                   // creates object for mpr121ù
  14:main.cpp      **** 
  15:main.cpp      **** DaisySeed hw;
  16:main.cpp      **** CapFir capFilter; // creates object for the CapFir filter
  17:main.cpp      **** 
  18:main.cpp      **** static Oscillator osc;     
  19:main.cpp      **** float f = 0.0f;     
  20:main.cpp      **** float delta = 0.0f; 
  21:main.cpp      **** float filtDelta = 0.0f; 
  22:main.cpp      **** bool gate = false;  
  23:main.cpp      **** 
  24:main.cpp      **** static Adsr env;
  25:main.cpp      **** 
  26:main.cpp      **** 
  27:main.cpp      **** uint16_t lastTouched = 0;                               // last touched value
  28:main.cpp      **** uint16_t currTouched = 0;                               // current touched value                   
  29:main.cpp      **** uint8_t touchTreshold = MPR121_TOUCH_THRESHOLD_DEFAULT; 
  30:main.cpp      **** 
  31:main.cpp      **** float output = 0.0f; // used to store the output value
  32:main.cpp      **** 
  33:main.cpp      **** static void AudioCallback(AudioHandle::InterleavingInputBuffer in, AudioHandle::InterleavingOutputB
  34:main.cpp      **** {
 164              		.loc 10 34 1 is_stmt 1 view -0
 165              		.cfi_startproc
 166              		@ args = 0, pretend = 0, frame = 0
 167              		@ frame_needed = 0, uses_anonymous_args = 0
  35:main.cpp      ****   float envOut, oscOut;
ARM GAS  C:\Users\skipi\AppData\Local\Temp\cceg9rRe.s 			page 14


 168              		.loc 10 35 3 view .LVU21
  36:main.cpp      ****   for (size_t i = 0; i < size; i += 2)
 169              		.loc 10 36 3 view .LVU22
 170              	.LBB371:
 171              		.loc 10 36 24 view .LVU23
 172 0000 FAB1     		cbz	r2, .L14
 173 0002 013A     		subs	r2, r2, #1
 174              	.LVL5:
 175              		.loc 10 36 24 is_stmt 0 view .LVU24
 176              	.LBE371:
  34:main.cpp      ****   float envOut, oscOut;
 177              		.loc 10 34 1 view .LVU25
 178 0004 2DE9F041 		push	{r4, r5, r6, r7, r8, lr}
 179              		.cfi_def_cfa_offset 24
 180              		.cfi_offset 4, -24
 181              		.cfi_offset 5, -20
 182              		.cfi_offset 6, -16
 183              		.cfi_offset 7, -12
 184              		.cfi_offset 8, -8
 185              		.cfi_offset 14, -4
 186 0008 0C46     		mov	r4, r1
 187              	.LBB376:
 188              		.loc 10 36 24 view .LVU26
 189 000a 0025     		movs	r5, #0
 190 000c DFF83C80 		ldr	r8, .L17+8
 191 0010 5608     		lsrs	r6, r2, #1
 192 0012 0C4F     		ldr	r7, .L17
 193              	.LVL6:
 194              	.L8:
  37:main.cpp      ****   {
  38:main.cpp      **** 
  39:main.cpp      ****     envOut = env.Process(gate); 
 195              		.loc 10 39 5 is_stmt 1 discriminator 2 view .LVU27
 196              		.loc 10 39 25 is_stmt 0 discriminator 2 view .LVU28
 197 0014 98F80010 		ldrb	r1, [r8]	@ zero_extendqisi2
 198 0018 0B48     		ldr	r0, .L17+4
 199 001a FFF7FEFF 		bl	_ZN7daisysp4Adsr7ProcessEb
 200              	.LVL7:
  40:main.cpp      ****     osc.SetAmp(envOut);
 201              		.loc 10 40 5 is_stmt 1 discriminator 2 view .LVU29
 202              	.LBB372:
 203              	.LBI372:
  25:../../libs/DaisySP/Source/Synthesis/oscillator.h ****     /** Choices for output waveforms, POLYBLEP are appropriately labeled. Others are naive forms.
  26:../../libs/DaisySP/Source/Synthesis/oscillator.h ****     */
  27:../../libs/DaisySP/Source/Synthesis/oscillator.h ****     enum
  28:../../libs/DaisySP/Source/Synthesis/oscillator.h ****     {
  29:../../libs/DaisySP/Source/Synthesis/oscillator.h ****         WAVE_SIN,
  30:../../libs/DaisySP/Source/Synthesis/oscillator.h ****         WAVE_TRI,
  31:../../libs/DaisySP/Source/Synthesis/oscillator.h ****         WAVE_SAW,
  32:../../libs/DaisySP/Source/Synthesis/oscillator.h ****         WAVE_RAMP,
  33:../../libs/DaisySP/Source/Synthesis/oscillator.h ****         WAVE_SQUARE,
  34:../../libs/DaisySP/Source/Synthesis/oscillator.h ****         WAVE_POLYBLEP_TRI,
  35:../../libs/DaisySP/Source/Synthesis/oscillator.h ****         WAVE_POLYBLEP_SAW,
  36:../../libs/DaisySP/Source/Synthesis/oscillator.h ****         WAVE_POLYBLEP_SQUARE,
  37:../../libs/DaisySP/Source/Synthesis/oscillator.h ****         WAVE_LAST,
  38:../../libs/DaisySP/Source/Synthesis/oscillator.h ****     };
  39:../../libs/DaisySP/Source/Synthesis/oscillator.h **** 
ARM GAS  C:\Users\skipi\AppData\Local\Temp\cceg9rRe.s 			page 15


  40:../../libs/DaisySP/Source/Synthesis/oscillator.h **** 
  41:../../libs/DaisySP/Source/Synthesis/oscillator.h ****     /** Initializes the Oscillator
  42:../../libs/DaisySP/Source/Synthesis/oscillator.h **** 
  43:../../libs/DaisySP/Source/Synthesis/oscillator.h ****         \param sample_rate - sample rate of the audio engine being run, and the frequency that the 
  44:../../libs/DaisySP/Source/Synthesis/oscillator.h **** 
  45:../../libs/DaisySP/Source/Synthesis/oscillator.h ****         Defaults:
  46:../../libs/DaisySP/Source/Synthesis/oscillator.h ****         - freq_ = 100 Hz
  47:../../libs/DaisySP/Source/Synthesis/oscillator.h ****         - amp_ = 0.5
  48:../../libs/DaisySP/Source/Synthesis/oscillator.h ****         - waveform_ = sine wave.
  49:../../libs/DaisySP/Source/Synthesis/oscillator.h ****     */
  50:../../libs/DaisySP/Source/Synthesis/oscillator.h ****     void Init(float sample_rate)
  51:../../libs/DaisySP/Source/Synthesis/oscillator.h ****     {
  52:../../libs/DaisySP/Source/Synthesis/oscillator.h ****         sr_        = sample_rate;
  53:../../libs/DaisySP/Source/Synthesis/oscillator.h ****         sr_recip_  = 1.0f / sample_rate;
  54:../../libs/DaisySP/Source/Synthesis/oscillator.h ****         freq_      = 100.0f;
  55:../../libs/DaisySP/Source/Synthesis/oscillator.h ****         amp_       = 0.5f;
  56:../../libs/DaisySP/Source/Synthesis/oscillator.h ****         pw_        = 0.5f;
  57:../../libs/DaisySP/Source/Synthesis/oscillator.h ****         phase_     = 0.0f;
  58:../../libs/DaisySP/Source/Synthesis/oscillator.h ****         phase_inc_ = CalcPhaseInc(freq_);
  59:../../libs/DaisySP/Source/Synthesis/oscillator.h ****         waveform_  = WAVE_SIN;
  60:../../libs/DaisySP/Source/Synthesis/oscillator.h ****         eoc_       = true;
  61:../../libs/DaisySP/Source/Synthesis/oscillator.h ****         eor_       = true;
  62:../../libs/DaisySP/Source/Synthesis/oscillator.h ****     }
  63:../../libs/DaisySP/Source/Synthesis/oscillator.h **** 
  64:../../libs/DaisySP/Source/Synthesis/oscillator.h **** 
  65:../../libs/DaisySP/Source/Synthesis/oscillator.h ****     /** Changes the frequency of the Oscillator, and recalculates phase increment.
  66:../../libs/DaisySP/Source/Synthesis/oscillator.h ****     */
  67:../../libs/DaisySP/Source/Synthesis/oscillator.h ****     inline void SetFreq(const float f)
  68:../../libs/DaisySP/Source/Synthesis/oscillator.h ****     {
  69:../../libs/DaisySP/Source/Synthesis/oscillator.h ****         freq_      = f;
  70:../../libs/DaisySP/Source/Synthesis/oscillator.h ****         phase_inc_ = CalcPhaseInc(f);
  71:../../libs/DaisySP/Source/Synthesis/oscillator.h ****     }
  72:../../libs/DaisySP/Source/Synthesis/oscillator.h **** 
  73:../../libs/DaisySP/Source/Synthesis/oscillator.h **** 
  74:../../libs/DaisySP/Source/Synthesis/oscillator.h ****     /** Sets the amplitude of the waveform.
  75:../../libs/DaisySP/Source/Synthesis/oscillator.h ****     */
  76:../../libs/DaisySP/Source/Synthesis/oscillator.h ****     inline void SetAmp(const float a) { amp_ = a; }
 204              		.loc 8 76 17 discriminator 2 view .LVU30
 205              	.LBB373:
 206              		.loc 8 76 41 discriminator 2 view .LVU31
 207              	.LBE373:
 208              	.LBE372:
  41:main.cpp      **** 
  42:main.cpp      ****     oscOut = osc.Process();
 209              		.loc 10 42 25 is_stmt 0 discriminator 2 view .LVU32
 210 001e 0948     		ldr	r0, .L17
 211              	.LBB375:
 212              	.LBB374:
 213              		.loc 8 76 46 discriminator 2 view .LVU33
 214 0020 87ED010A 		vstr.32	s0, [r7, #4]
 215              	.LVL8:
 216              		.loc 8 76 46 discriminator 2 view .LVU34
 217              	.LBE374:
 218              	.LBE375:
 219              		.loc 10 42 5 is_stmt 1 discriminator 2 view .LVU35
 220              		.loc 10 42 25 is_stmt 0 discriminator 2 view .LVU36
 221 0024 FFF7FEFF 		bl	_ZN7daisysp10Oscillator7ProcessEv
ARM GAS  C:\Users\skipi\AppData\Local\Temp\cceg9rRe.s 			page 16


 222              	.LVL9:
  43:main.cpp      ****     out[i] = out[i + 1] = oscOut;               // outputs the same value to left and right channel
 223              		.loc 10 43 5 is_stmt 1 discriminator 2 view .LVU37
 224              		.loc 10 43 12 is_stmt 0 discriminator 2 view .LVU38
 225 0028 2246     		mov	r2, r4
  36:main.cpp      ****   {
 226              		.loc 10 36 24 discriminator 2 view .LVU39
 227 002a AE42     		cmp	r6, r5
 228              		.loc 10 43 25 discriminator 2 view .LVU40
 229 002c 84ED010A 		vstr.32	s0, [r4, #4]
  36:main.cpp      ****   {
 230              		.loc 10 36 24 discriminator 2 view .LVU41
 231 0030 05F10105 		add	r5, r5, #1
 232              	.LVL10:
 233              		.loc 10 43 12 discriminator 2 view .LVU42
 234 0034 04F10804 		add	r4, r4, #8
 235 0038 82ED000A 		vstr.32	s0, [r2]
  36:main.cpp      ****   {
 236              		.loc 10 36 3 is_stmt 1 discriminator 2 view .LVU43
 237              	.LVL11:
  36:main.cpp      ****   {
 238              		.loc 10 36 24 discriminator 2 view .LVU44
 239 003c EAD1     		bne	.L8
 240              	.LBE376:
  44:main.cpp      ****   }
  45:main.cpp      **** }
 241              		.loc 10 45 1 is_stmt 0 view .LVU45
 242 003e BDE8F081 		pop	{r4, r5, r6, r7, r8, pc}
 243              	.LVL12:
 244              	.L14:
 245              		.cfi_def_cfa_offset 0
 246              		.cfi_restore 4
 247              		.cfi_restore 5
 248              		.cfi_restore 6
 249              		.cfi_restore 7
 250              		.cfi_restore 8
 251              		.cfi_restore 14
 252              		.loc 10 45 1 view .LVU46
 253 0042 7047     		bx	lr
 254              	.L18:
 255              		.align	2
 256              	.L17:
 257 0044 00000000 		.word	.LANCHOR2
 258 0048 00000000 		.word	.LANCHOR1
 259 004c 00000000 		.word	.LANCHOR0
 260              		.cfi_endproc
 261              	.LFE4840:
 263              		.section	.text._ZN5daisy6Mpr121INS_18Mpr121I2CTransportEE13WriteRegisterEhh,"axG",%progbits,_ZN5da
 264              		.align	1
 265              		.p2align 2,,3
 266              		.weak	_ZN5daisy6Mpr121INS_18Mpr121I2CTransportEE13WriteRegisterEhh
 267              		.syntax unified
 268              		.thumb
 269              		.thumb_func
 270              		.fpu fpv5-d16
 272              	_ZN5daisy6Mpr121INS_18Mpr121I2CTransportEE13WriteRegisterEhh:
 273              	.LVL13:
ARM GAS  C:\Users\skipi\AppData\Local\Temp\cceg9rRe.s 			page 17


 274              	.LFB5279:
  98:../../libs/libDaisy/src/dev/mpr121.h **** 
  99:../../libs/libDaisy/src/dev/mpr121.h ****     struct Config
 100:../../libs/libDaisy/src/dev/mpr121.h ****     {
 101:../../libs/libDaisy/src/dev/mpr121.h ****         typename Transport::Config transport_config;
 102:../../libs/libDaisy/src/dev/mpr121.h ****         uint8_t                    touch_threshold;
 103:../../libs/libDaisy/src/dev/mpr121.h ****         uint8_t                    release_threshold;
 104:../../libs/libDaisy/src/dev/mpr121.h **** 
 105:../../libs/libDaisy/src/dev/mpr121.h ****         Config()
 106:../../libs/libDaisy/src/dev/mpr121.h ****         {
 107:../../libs/libDaisy/src/dev/mpr121.h ****             touch_threshold   = MPR121_TOUCH_THRESHOLD_DEFAULT;
 108:../../libs/libDaisy/src/dev/mpr121.h ****             release_threshold = MPR121_RELEASE_THRESHOLD_DEFAULT;
 109:../../libs/libDaisy/src/dev/mpr121.h ****         }
 110:../../libs/libDaisy/src/dev/mpr121.h ****     };
 111:../../libs/libDaisy/src/dev/mpr121.h **** 
 112:../../libs/libDaisy/src/dev/mpr121.h ****     enum Result
 113:../../libs/libDaisy/src/dev/mpr121.h ****     {
 114:../../libs/libDaisy/src/dev/mpr121.h ****         OK = 0,
 115:../../libs/libDaisy/src/dev/mpr121.h ****         ERR
 116:../../libs/libDaisy/src/dev/mpr121.h ****     };
 117:../../libs/libDaisy/src/dev/mpr121.h **** 
 118:../../libs/libDaisy/src/dev/mpr121.h ****     /** Initialize the MPR121 device
 119:../../libs/libDaisy/src/dev/mpr121.h ****         \param config Configuration settings
 120:../../libs/libDaisy/src/dev/mpr121.h ****     */
 121:../../libs/libDaisy/src/dev/mpr121.h ****     Result Init(Config config)
 122:../../libs/libDaisy/src/dev/mpr121.h ****     {
 123:../../libs/libDaisy/src/dev/mpr121.h ****         config_ = config;
 124:../../libs/libDaisy/src/dev/mpr121.h **** 
 125:../../libs/libDaisy/src/dev/mpr121.h ****         SetTransportErr(transport_.Init(config_.transport_config));
 126:../../libs/libDaisy/src/dev/mpr121.h **** 
 127:../../libs/libDaisy/src/dev/mpr121.h ****         // soft reset
 128:../../libs/libDaisy/src/dev/mpr121.h ****         WriteRegister(MPR121_SOFTRESET, 0x63);
 129:../../libs/libDaisy/src/dev/mpr121.h ****         System::Delay(1);
 130:../../libs/libDaisy/src/dev/mpr121.h **** 
 131:../../libs/libDaisy/src/dev/mpr121.h ****         WriteRegister(MPR121_ECR, 0x0);
 132:../../libs/libDaisy/src/dev/mpr121.h **** 
 133:../../libs/libDaisy/src/dev/mpr121.h ****         // this doesn't work for some reason...
 134:../../libs/libDaisy/src/dev/mpr121.h ****         // uint8_t c = ReadRegister8(MPR121_CONFIG2);
 135:../../libs/libDaisy/src/dev/mpr121.h **** 
 136:../../libs/libDaisy/src/dev/mpr121.h ****         // if(c != 0x24)
 137:../../libs/libDaisy/src/dev/mpr121.h ****         //     return ERR;
 138:../../libs/libDaisy/src/dev/mpr121.h **** 
 139:../../libs/libDaisy/src/dev/mpr121.h ****         SetThresholds(config_.touch_threshold, config_.release_threshold);
 140:../../libs/libDaisy/src/dev/mpr121.h ****         WriteRegister(MPR121_MHDR, 0x01);
 141:../../libs/libDaisy/src/dev/mpr121.h ****         WriteRegister(MPR121_NHDR, 0x01);
 142:../../libs/libDaisy/src/dev/mpr121.h ****         WriteRegister(MPR121_NCLR, 0x0E);
 143:../../libs/libDaisy/src/dev/mpr121.h ****         WriteRegister(MPR121_FDLR, 0x00);
 144:../../libs/libDaisy/src/dev/mpr121.h **** 
 145:../../libs/libDaisy/src/dev/mpr121.h ****         WriteRegister(MPR121_MHDF, 0x01);
 146:../../libs/libDaisy/src/dev/mpr121.h ****         WriteRegister(MPR121_NHDF, 0x05);
 147:../../libs/libDaisy/src/dev/mpr121.h ****         WriteRegister(MPR121_NCLF, 0x01);
 148:../../libs/libDaisy/src/dev/mpr121.h ****         WriteRegister(MPR121_FDLF, 0x00);
 149:../../libs/libDaisy/src/dev/mpr121.h **** 
 150:../../libs/libDaisy/src/dev/mpr121.h ****         WriteRegister(MPR121_NHDT, 0x00);
 151:../../libs/libDaisy/src/dev/mpr121.h ****         WriteRegister(MPR121_NCLT, 0x00);
 152:../../libs/libDaisy/src/dev/mpr121.h ****         WriteRegister(MPR121_FDLT, 0x00);
 153:../../libs/libDaisy/src/dev/mpr121.h **** 
ARM GAS  C:\Users\skipi\AppData\Local\Temp\cceg9rRe.s 			page 18


 154:../../libs/libDaisy/src/dev/mpr121.h ****         WriteRegister(MPR121_DEBOUNCE, 0);
 155:../../libs/libDaisy/src/dev/mpr121.h ****         WriteRegister(MPR121_CONFIG1, 0x10); // default, 16uA charge current
 156:../../libs/libDaisy/src/dev/mpr121.h ****         WriteRegister(MPR121_CONFIG2, 0x20); // 0.5uS encoding, 1ms period
 157:../../libs/libDaisy/src/dev/mpr121.h **** 
 158:../../libs/libDaisy/src/dev/mpr121.h ****         // autoconfig
 159:../../libs/libDaisy/src/dev/mpr121.h ****         // WriteRegister(MPR121_AUTOCONFIG0, 0x0B);
 160:../../libs/libDaisy/src/dev/mpr121.h **** 
 161:../../libs/libDaisy/src/dev/mpr121.h ****         // correct values for Vdd = 3.3V
 162:../../libs/libDaisy/src/dev/mpr121.h ****         // WriteRegister(MPR121_UPLIMIT, 200);     // ((Vdd - 0.7)/Vdd) * 256
 163:../../libs/libDaisy/src/dev/mpr121.h ****         // WriteRegister(MPR121_TARGETLIMIT, 180); // UPLIMIT * 0.9
 164:../../libs/libDaisy/src/dev/mpr121.h ****         // WriteRegister(MPR121_LOWLIMIT, 130);    // UPLIMIT * 0.65
 165:../../libs/libDaisy/src/dev/mpr121.h ****         // autoconfig
 166:../../libs/libDaisy/src/dev/mpr121.h **** 
 167:../../libs/libDaisy/src/dev/mpr121.h ****         // enable X electrodes and start MPR121
 168:../../libs/libDaisy/src/dev/mpr121.h ****         uint8_t ECR_SETTING
 169:../../libs/libDaisy/src/dev/mpr121.h ****             = 0x80
 170:../../libs/libDaisy/src/dev/mpr121.h ****               + 12; // 5 bits for baseline tracking & proximity disabled + X
 171:../../libs/libDaisy/src/dev/mpr121.h ****                     // amount of electrodes running (12)
 172:../../libs/libDaisy/src/dev/mpr121.h ****         WriteRegister(MPR121_ECR,
 173:../../libs/libDaisy/src/dev/mpr121.h ****                       ECR_SETTING); // start with above ECR setting
 174:../../libs/libDaisy/src/dev/mpr121.h **** 
 175:../../libs/libDaisy/src/dev/mpr121.h ****         return GetTransportErr();
 176:../../libs/libDaisy/src/dev/mpr121.h ****     }
 177:../../libs/libDaisy/src/dev/mpr121.h **** 
 178:../../libs/libDaisy/src/dev/mpr121.h ****     /** Set the touch and release thresholds for all 13 channels on the
 179:../../libs/libDaisy/src/dev/mpr121.h ****         device to the passed values.
 180:../../libs/libDaisy/src/dev/mpr121.h ****         \param      touch The touch threshold value from 0 to 255.
 181:../../libs/libDaisy/src/dev/mpr121.h ****         \param      release The release threshold from 0 to 255.
 182:../../libs/libDaisy/src/dev/mpr121.h ****     */
 183:../../libs/libDaisy/src/dev/mpr121.h ****     void SetThresholds(uint8_t touch, uint8_t release)
 184:../../libs/libDaisy/src/dev/mpr121.h ****     {
 185:../../libs/libDaisy/src/dev/mpr121.h ****         // set all thresholds (the same)
 186:../../libs/libDaisy/src/dev/mpr121.h ****         for(uint8_t i = 0; i < 12; i++)
 187:../../libs/libDaisy/src/dev/mpr121.h ****         {
 188:../../libs/libDaisy/src/dev/mpr121.h ****             WriteRegister(MPR121_TOUCHTH_0 + 2 * i, touch);
 189:../../libs/libDaisy/src/dev/mpr121.h ****             WriteRegister(MPR121_RELEASETH_0 + 2 * i, release);
 190:../../libs/libDaisy/src/dev/mpr121.h ****         }
 191:../../libs/libDaisy/src/dev/mpr121.h ****     }
 192:../../libs/libDaisy/src/dev/mpr121.h **** 
 193:../../libs/libDaisy/src/dev/mpr121.h **** 
 194:../../libs/libDaisy/src/dev/mpr121.h ****     /** Read the filtered data from channel t. The ADC raw data outputs
 195:../../libs/libDaisy/src/dev/mpr121.h ****         run through 3 levels of digital filtering to filter out the high
 196:../../libs/libDaisy/src/dev/mpr121.h ****         frequency and low frequency noise encountered. For detailed information on
 197:../../libs/libDaisy/src/dev/mpr121.h ****         this filtering see page 6 of the device datasheet.
 198:../../libs/libDaisy/src/dev/mpr121.h ****         \param      t the channel to read
 199:../../libs/libDaisy/src/dev/mpr121.h ****         \returns    the filtered reading as a 10 bit unsigned value
 200:../../libs/libDaisy/src/dev/mpr121.h ****     */
 201:../../libs/libDaisy/src/dev/mpr121.h ****     uint16_t FilteredData(uint8_t t)
 202:../../libs/libDaisy/src/dev/mpr121.h ****     {
 203:../../libs/libDaisy/src/dev/mpr121.h ****         if(t > 12)
 204:../../libs/libDaisy/src/dev/mpr121.h ****             return 0;
 205:../../libs/libDaisy/src/dev/mpr121.h ****         return ReadRegister16(MPR121_FILTDATA_0L + t * 2);
 206:../../libs/libDaisy/src/dev/mpr121.h ****     }
 207:../../libs/libDaisy/src/dev/mpr121.h **** 
 208:../../libs/libDaisy/src/dev/mpr121.h ****     /** Read the baseline value for the channel. The 3rd level filtered
 209:../../libs/libDaisy/src/dev/mpr121.h ****         result is internally 10bit but only high 8 bits are readable
 210:../../libs/libDaisy/src/dev/mpr121.h ****         from registers 0x1E~0x2A as the baseline value output for each channel.
ARM GAS  C:\Users\skipi\AppData\Local\Temp\cceg9rRe.s 			page 19


 211:../../libs/libDaisy/src/dev/mpr121.h ****         \param      t the channel to read.
 212:../../libs/libDaisy/src/dev/mpr121.h ****         \returns    the baseline data that was read
 213:../../libs/libDaisy/src/dev/mpr121.h ****     */
 214:../../libs/libDaisy/src/dev/mpr121.h ****     uint16_t BaselineData(uint8_t t)
 215:../../libs/libDaisy/src/dev/mpr121.h ****     {
 216:../../libs/libDaisy/src/dev/mpr121.h ****         if(t > 12)
 217:../../libs/libDaisy/src/dev/mpr121.h ****             return 0;
 218:../../libs/libDaisy/src/dev/mpr121.h ****         uint16_t bl = ReadRegister8(MPR121_BASELINE_0 + t);
 219:../../libs/libDaisy/src/dev/mpr121.h ****         return (bl << 2);
 220:../../libs/libDaisy/src/dev/mpr121.h ****     }
 221:../../libs/libDaisy/src/dev/mpr121.h **** 
 222:../../libs/libDaisy/src/dev/mpr121.h ****     /** Read the touch status of all 13 channels as bit values in a 12 bit integer.
 223:../../libs/libDaisy/src/dev/mpr121.h ****         \returns    a 12 bit integer with each bit corresponding to the touch status
 224:../../libs/libDaisy/src/dev/mpr121.h ****         of a sensor. For example, if bit 0 is set then channel 0 of the
 225:../../libs/libDaisy/src/dev/mpr121.h ****         device is currently deemed to be touched.
 226:../../libs/libDaisy/src/dev/mpr121.h ****     */
 227:../../libs/libDaisy/src/dev/mpr121.h ****     uint16_t Touched()
 228:../../libs/libDaisy/src/dev/mpr121.h ****     {
 229:../../libs/libDaisy/src/dev/mpr121.h ****         uint16_t t = ReadRegister16(MPR121_TOUCHSTATUS_L);
 230:../../libs/libDaisy/src/dev/mpr121.h ****         return t & 0x0FFF;
 231:../../libs/libDaisy/src/dev/mpr121.h ****     }
 232:../../libs/libDaisy/src/dev/mpr121.h **** 
 233:../../libs/libDaisy/src/dev/mpr121.h ****     /** Read the contents of an 8 bit device register.
 234:../../libs/libDaisy/src/dev/mpr121.h ****         \param      reg the register address to read from
 235:../../libs/libDaisy/src/dev/mpr121.h ****         \returns    the 8 bit value that was read.
 236:../../libs/libDaisy/src/dev/mpr121.h ****     */
 237:../../libs/libDaisy/src/dev/mpr121.h ****     uint8_t ReadRegister8(uint8_t reg)
 238:../../libs/libDaisy/src/dev/mpr121.h ****     {
 239:../../libs/libDaisy/src/dev/mpr121.h ****         uint8_t buff;
 240:../../libs/libDaisy/src/dev/mpr121.h ****         SetTransportErr(transport_.ReadMem(&buff, reg, 1));
 241:../../libs/libDaisy/src/dev/mpr121.h ****         return buff;
 242:../../libs/libDaisy/src/dev/mpr121.h ****     }
 243:../../libs/libDaisy/src/dev/mpr121.h **** 
 244:../../libs/libDaisy/src/dev/mpr121.h ****     uint16_t ReadRegister16(uint8_t reg)
 245:../../libs/libDaisy/src/dev/mpr121.h ****     {
 246:../../libs/libDaisy/src/dev/mpr121.h ****         uint16_t buff;
 247:../../libs/libDaisy/src/dev/mpr121.h ****         SetTransportErr(transport_.ReadMem((uint8_t *)&buff, reg, 2));
 248:../../libs/libDaisy/src/dev/mpr121.h **** 
 249:../../libs/libDaisy/src/dev/mpr121.h **** 
 250:../../libs/libDaisy/src/dev/mpr121.h ****         return buff;
 251:../../libs/libDaisy/src/dev/mpr121.h ****     }
 252:../../libs/libDaisy/src/dev/mpr121.h **** 
 253:../../libs/libDaisy/src/dev/mpr121.h ****     /** Writes 8-bits to the specified destination register
 254:../../libs/libDaisy/src/dev/mpr121.h ****         \param  reg the register address to write to
 255:../../libs/libDaisy/src/dev/mpr121.h ****         \param  value the value to write
 256:../../libs/libDaisy/src/dev/mpr121.h ****     */
 257:../../libs/libDaisy/src/dev/mpr121.h ****     void WriteRegister(uint8_t reg, uint8_t value)
 275              		.loc 9 257 10 is_stmt 1 view -0
 276              		.cfi_startproc
 277              		@ args = 0, pretend = 0, frame = 8
 278              		@ frame_needed = 0, uses_anonymous_args = 0
 279              		.loc 9 257 10 is_stmt 0 view .LVU48
 280 0000 2DE9F043 		push	{r4, r5, r6, r7, r8, r9, lr}
 281              		.cfi_def_cfa_offset 28
 282              		.cfi_offset 4, -28
 283              		.cfi_offset 5, -24
 284              		.cfi_offset 6, -20
ARM GAS  C:\Users\skipi\AppData\Local\Temp\cceg9rRe.s 			page 20


 285              		.cfi_offset 7, -16
 286              		.cfi_offset 8, -12
 287              		.cfi_offset 9, -8
 288              		.cfi_offset 14, -4
 258:../../libs/libDaisy/src/dev/mpr121.h ****     {
 259:../../libs/libDaisy/src/dev/mpr121.h ****         // MPR121 must be put in Stop Mode to write to most registers
 260:../../libs/libDaisy/src/dev/mpr121.h ****         bool stop_required = true;
 261:../../libs/libDaisy/src/dev/mpr121.h **** 
 262:../../libs/libDaisy/src/dev/mpr121.h ****         // first get the current set value of the MPR121_ECR register
 263:../../libs/libDaisy/src/dev/mpr121.h ****         uint8_t ecr_reg = MPR121_ECR;
 264:../../libs/libDaisy/src/dev/mpr121.h ****         uint8_t buff[2] = {ecr_reg, 0x00};
 289              		.loc 9 264 17 view .LVU49
 290 0004 0023     		movs	r3, #0
 257:../../libs/libDaisy/src/dev/mpr121.h ****     {
 291              		.loc 9 257 10 view .LVU50
 292 0006 85B0     		sub	sp, sp, #20
 293              		.cfi_def_cfa_offset 48
 294              	.LBB407:
 295              	.LBB408:
  66:../../libs/libDaisy/src/dev/mpr121.h ****     }
 296              		.loc 9 66 40 view .LVU51
 297 0008 00F11806 		add	r6, r0, #24
 298 000c 4FF00A08 		mov	r8, #10
 299              	.LBE408:
 300              	.LBE407:
 257:../../libs/libDaisy/src/dev/mpr121.h ****     {
 301              		.loc 9 257 10 view .LVU52
 302 0010 0446     		mov	r4, r0
 303              		.loc 9 264 17 view .LVU53
 304 0012 4FF05E09 		mov	r9, #94
 257:../../libs/libDaisy/src/dev/mpr121.h ****     {
 305              		.loc 9 257 10 view .LVU54
 306 0016 0D46     		mov	r5, r1
 307              		.loc 9 264 17 view .LVU55
 308 0018 8DF80D30 		strb	r3, [sp, #13]
 309              	.LBB412:
 310              	.LBB409:
  66:../../libs/libDaisy/src/dev/mpr121.h ****     }
 311              		.loc 9 66 40 view .LVU56
 312 001c CDF80080 		str	r8, [sp]
 313 0020 0123     		movs	r3, #1
 314 0022 90F82C10 		ldrb	r1, [r0, #44]	@ zero_extendqisi2
 315              	.LVL14:
  66:../../libs/libDaisy/src/dev/mpr121.h ****     }
 316              		.loc 9 66 40 view .LVU57
 317              	.LBE409:
 318              	.LBE412:
 257:../../libs/libDaisy/src/dev/mpr121.h ****     {
 319              		.loc 9 257 10 view .LVU58
 320 0026 1746     		mov	r7, r2
 321              	.LBB413:
 322              	.LBB410:
  66:../../libs/libDaisy/src/dev/mpr121.h ****     }
 323              		.loc 9 66 40 view .LVU59
 324 0028 3046     		mov	r0, r6
 325              	.LVL15:
  66:../../libs/libDaisy/src/dev/mpr121.h ****     }
ARM GAS  C:\Users\skipi\AppData\Local\Temp\cceg9rRe.s 			page 21


 326              		.loc 9 66 40 view .LVU60
 327 002a 03AA     		add	r2, sp, #12
 328              	.LVL16:
  66:../../libs/libDaisy/src/dev/mpr121.h ****     }
 329              		.loc 9 66 40 view .LVU61
 330              	.LBE410:
 331              	.LBE413:
 332              		.loc 9 264 17 view .LVU62
 333 002c 8DF80C90 		strb	r9, [sp, #12]
 334              	.LVL17:
 335              	.LBB414:
 336              	.LBI407:
  63:../../libs/libDaisy/src/dev/mpr121.h ****     {
 337              		.loc 9 63 10 is_stmt 1 view .LVU63
 338              	.LBB411:
  65:../../libs/libDaisy/src/dev/mpr121.h ****                != i2c_.TransmitBlocking(config_.dev_addr, data, size, 10);
 339              		.loc 9 65 9 view .LVU64
  66:../../libs/libDaisy/src/dev/mpr121.h ****     }
 340              		.loc 9 66 40 is_stmt 0 view .LVU65
 341 0030 FFF7FEFF 		bl	_ZN5daisy9I2CHandle16TransmitBlockingEtPhtm
 342              	.LVL18:
  66:../../libs/libDaisy/src/dev/mpr121.h ****     }
 343              		.loc 9 66 40 view .LVU66
 344              	.LBE411:
 345              	.LBE414:
 346              	.LBB415:
 347              	.LBI415:
 265:../../libs/libDaisy/src/dev/mpr121.h **** 
 266:../../libs/libDaisy/src/dev/mpr121.h ****         SetTransportErr(transport_.Write(buff, 1));
 267:../../libs/libDaisy/src/dev/mpr121.h **** 
 268:../../libs/libDaisy/src/dev/mpr121.h ****         uint8_t ecr_backup;
 269:../../libs/libDaisy/src/dev/mpr121.h ****         SetTransportErr(transport_.Read(&ecr_backup, 1));
 270:../../libs/libDaisy/src/dev/mpr121.h ****         if((reg == MPR121_ECR) || ((0x73 <= reg) && (reg <= 0x7A)))
 271:../../libs/libDaisy/src/dev/mpr121.h ****         {
 272:../../libs/libDaisy/src/dev/mpr121.h ****             stop_required = false;
 273:../../libs/libDaisy/src/dev/mpr121.h ****         }
 274:../../libs/libDaisy/src/dev/mpr121.h **** 
 275:../../libs/libDaisy/src/dev/mpr121.h ****         if(stop_required)
 276:../../libs/libDaisy/src/dev/mpr121.h ****         {
 277:../../libs/libDaisy/src/dev/mpr121.h ****             // clear this register to set stop mode
 278:../../libs/libDaisy/src/dev/mpr121.h ****             SetTransportErr(transport_.Write(buff, 2));
 279:../../libs/libDaisy/src/dev/mpr121.h ****         }
 280:../../libs/libDaisy/src/dev/mpr121.h **** 
 281:../../libs/libDaisy/src/dev/mpr121.h ****         buff[0] = reg;
 282:../../libs/libDaisy/src/dev/mpr121.h ****         buff[1] = value;
 283:../../libs/libDaisy/src/dev/mpr121.h ****         SetTransportErr(transport_.Write(buff, 2));
 284:../../libs/libDaisy/src/dev/mpr121.h **** 
 285:../../libs/libDaisy/src/dev/mpr121.h ****         if(stop_required)
 286:../../libs/libDaisy/src/dev/mpr121.h ****         {
 287:../../libs/libDaisy/src/dev/mpr121.h ****             // write back the previous set ECR settings
 288:../../libs/libDaisy/src/dev/mpr121.h ****             buff[0] = ecr_reg;
 289:../../libs/libDaisy/src/dev/mpr121.h ****             buff[1] = ecr_backup;
 290:../../libs/libDaisy/src/dev/mpr121.h ****             SetTransportErr(transport_.Write(buff, 2));
 291:../../libs/libDaisy/src/dev/mpr121.h ****         }
 292:../../libs/libDaisy/src/dev/mpr121.h ****     }
 293:../../libs/libDaisy/src/dev/mpr121.h **** 
 294:../../libs/libDaisy/src/dev/mpr121.h ****     /** Device register map */
ARM GAS  C:\Users\skipi\AppData\Local\Temp\cceg9rRe.s 			page 22


 295:../../libs/libDaisy/src/dev/mpr121.h ****     enum RegMap
 296:../../libs/libDaisy/src/dev/mpr121.h ****     {
 297:../../libs/libDaisy/src/dev/mpr121.h ****         MPR121_TOUCHSTATUS_L = 0x00,
 298:../../libs/libDaisy/src/dev/mpr121.h ****         MPR121_TOUCHSTATUS_H = 0x01,
 299:../../libs/libDaisy/src/dev/mpr121.h ****         MPR121_FILTDATA_0L   = 0x04,
 300:../../libs/libDaisy/src/dev/mpr121.h ****         MPR121_FILTDATA_0H   = 0x05,
 301:../../libs/libDaisy/src/dev/mpr121.h ****         MPR121_BASELINE_0    = 0x1E,
 302:../../libs/libDaisy/src/dev/mpr121.h ****         MPR121_MHDR          = 0x2B,
 303:../../libs/libDaisy/src/dev/mpr121.h ****         MPR121_NHDR          = 0x2C,
 304:../../libs/libDaisy/src/dev/mpr121.h ****         MPR121_NCLR          = 0x2D,
 305:../../libs/libDaisy/src/dev/mpr121.h ****         MPR121_FDLR          = 0x2E,
 306:../../libs/libDaisy/src/dev/mpr121.h ****         MPR121_MHDF          = 0x2F,
 307:../../libs/libDaisy/src/dev/mpr121.h ****         MPR121_NHDF          = 0x30,
 308:../../libs/libDaisy/src/dev/mpr121.h ****         MPR121_NCLF          = 0x31,
 309:../../libs/libDaisy/src/dev/mpr121.h ****         MPR121_FDLF          = 0x32,
 310:../../libs/libDaisy/src/dev/mpr121.h ****         MPR121_NHDT          = 0x33,
 311:../../libs/libDaisy/src/dev/mpr121.h ****         MPR121_NCLT          = 0x34,
 312:../../libs/libDaisy/src/dev/mpr121.h ****         MPR121_FDLT          = 0x35,
 313:../../libs/libDaisy/src/dev/mpr121.h **** 
 314:../../libs/libDaisy/src/dev/mpr121.h ****         MPR121_TOUCHTH_0    = 0x41,
 315:../../libs/libDaisy/src/dev/mpr121.h ****         MPR121_RELEASETH_0  = 0x42,
 316:../../libs/libDaisy/src/dev/mpr121.h ****         MPR121_DEBOUNCE     = 0x5B,
 317:../../libs/libDaisy/src/dev/mpr121.h ****         MPR121_CONFIG1      = 0x5C,
 318:../../libs/libDaisy/src/dev/mpr121.h ****         MPR121_CONFIG2      = 0x5D,
 319:../../libs/libDaisy/src/dev/mpr121.h ****         MPR121_CHARGECURR_0 = 0x5F,
 320:../../libs/libDaisy/src/dev/mpr121.h ****         MPR121_CHARGETIME_1 = 0x6C,
 321:../../libs/libDaisy/src/dev/mpr121.h ****         MPR121_ECR          = 0x5E,
 322:../../libs/libDaisy/src/dev/mpr121.h ****         MPR121_AUTOCONFIG0  = 0x7B,
 323:../../libs/libDaisy/src/dev/mpr121.h ****         MPR121_AUTOCONFIG1  = 0x7C,
 324:../../libs/libDaisy/src/dev/mpr121.h ****         MPR121_UPLIMIT      = 0x7D,
 325:../../libs/libDaisy/src/dev/mpr121.h ****         MPR121_LOWLIMIT     = 0x7E,
 326:../../libs/libDaisy/src/dev/mpr121.h ****         MPR121_TARGETLIMIT  = 0x7F,
 327:../../libs/libDaisy/src/dev/mpr121.h **** 
 328:../../libs/libDaisy/src/dev/mpr121.h ****         MPR121_GPIODIR    = 0x76,
 329:../../libs/libDaisy/src/dev/mpr121.h ****         MPR121_GPIOEN     = 0x77,
 330:../../libs/libDaisy/src/dev/mpr121.h ****         MPR121_GPIOSET    = 0x78,
 331:../../libs/libDaisy/src/dev/mpr121.h ****         MPR121_GPIOCLR    = 0x79,
 332:../../libs/libDaisy/src/dev/mpr121.h ****         MPR121_GPIOTOGGLE = 0x7A,
 333:../../libs/libDaisy/src/dev/mpr121.h **** 
 334:../../libs/libDaisy/src/dev/mpr121.h ****         MPR121_SOFTRESET = 0x80,
 335:../../libs/libDaisy/src/dev/mpr121.h ****     };
 336:../../libs/libDaisy/src/dev/mpr121.h **** 
 337:../../libs/libDaisy/src/dev/mpr121.h ****   private:
 338:../../libs/libDaisy/src/dev/mpr121.h ****     Config    config_;
 339:../../libs/libDaisy/src/dev/mpr121.h ****     Transport transport_;
 340:../../libs/libDaisy/src/dev/mpr121.h ****     bool      transport_error_;
 341:../../libs/libDaisy/src/dev/mpr121.h **** 
 342:../../libs/libDaisy/src/dev/mpr121.h ****     /** Set the global transport_error_ bool */
 343:../../libs/libDaisy/src/dev/mpr121.h ****     void SetTransportErr(bool err) { transport_error_ |= err; }
 348              		.loc 9 343 10 is_stmt 1 view .LVU67
 349              	.LBE415:
 350              	.LBB419:
 351              	.LBB420:
  73:../../libs/libDaisy/src/dev/mpr121.h ****     }
 352              		.loc 9 73 39 is_stmt 0 view .LVU68
 353 0034 CDF80080 		str	r8, [sp]
 354 0038 0DF10B02 		add	r2, sp, #11
ARM GAS  C:\Users\skipi\AppData\Local\Temp\cceg9rRe.s 			page 23


 355              	.LBE420:
 356              	.LBE419:
 357              	.LBB424:
 358              	.LBB416:
 359              		.loc 9 343 55 view .LVU69
 360 003c 94F83030 		ldrb	r3, [r4, #48]	@ zero_extendqisi2
 361              	.LBE416:
 362              	.LBE424:
 363              	.LBB425:
 364              	.LBB421:
  73:../../libs/libDaisy/src/dev/mpr121.h ****     }
 365              		.loc 9 73 39 view .LVU70
 366 0040 94F82C10 		ldrb	r1, [r4, #44]	@ zero_extendqisi2
 367              	.LBE421:
 368              	.LBE425:
 369              	.LBB426:
 370              	.LBB417:
 371              		.loc 9 343 55 view .LVU71
 372 0044 0028     		cmp	r0, #0
 373 0046 18BF     		it	ne
 374 0048 43F00103 		orrne	r3, r3, #1
 375              	.LBE417:
 376              	.LBE426:
 377              	.LBB427:
 378              	.LBB422:
  73:../../libs/libDaisy/src/dev/mpr121.h ****     }
 379              		.loc 9 73 39 view .LVU72
 380 004c 3046     		mov	r0, r6
 381              	.LVL19:
  73:../../libs/libDaisy/src/dev/mpr121.h ****     }
 382              		.loc 9 73 39 view .LVU73
 383              	.LBE422:
 384              	.LBE427:
 385              	.LBB428:
 386              	.LBB418:
 387              		.loc 9 343 55 view .LVU74
 388 004e 84F83030 		strb	r3, [r4, #48]
 389              	.LVL20:
 390              		.loc 9 343 55 view .LVU75
 391              	.LBE418:
 392              	.LBE428:
 393              	.LBB429:
 394              	.LBI419:
  70:../../libs/libDaisy/src/dev/mpr121.h ****     {
 395              		.loc 9 70 10 is_stmt 1 view .LVU76
 396              	.LBB423:
  72:../../libs/libDaisy/src/dev/mpr121.h ****                != i2c_.ReceiveBlocking(config_.dev_addr, data, size, 10);
 397              		.loc 9 72 9 view .LVU77
  73:../../libs/libDaisy/src/dev/mpr121.h ****     }
 398              		.loc 9 73 39 is_stmt 0 view .LVU78
 399 0052 0123     		movs	r3, #1
 400 0054 FFF7FEFF 		bl	_ZN5daisy9I2CHandle15ReceiveBlockingEtPhtm
 401              	.LVL21:
  73:../../libs/libDaisy/src/dev/mpr121.h ****     }
 402              		.loc 9 73 39 view .LVU79
 403              	.LBE423:
 404              	.LBE429:
ARM GAS  C:\Users\skipi\AppData\Local\Temp\cceg9rRe.s 			page 24


 405              	.LBB430:
 406              	.LBI430:
 407              		.loc 9 343 10 is_stmt 1 view .LVU80
 408              	.LBB431:
 409              		.loc 9 343 55 is_stmt 0 view .LVU81
 410 0058 94F83030 		ldrb	r3, [r4, #48]	@ zero_extendqisi2
 411 005c 0028     		cmp	r0, #0
 412 005e 18BF     		it	ne
 413 0060 43F00103 		orrne	r3, r3, #1
 414 0064 84F83030 		strb	r3, [r4, #48]
 415              	.LVL22:
 416              		.loc 9 343 55 view .LVU82
 417              	.LBE431:
 418              	.LBE430:
 270:../../libs/libDaisy/src/dev/mpr121.h ****         {
 419              		.loc 9 270 50 view .LVU83
 420 0068 A5F17303 		sub	r3, r5, #115
 270:../../libs/libDaisy/src/dev/mpr121.h ****         {
 421              		.loc 9 270 9 view .LVU84
 422 006c 072B     		cmp	r3, #7
 423 006e 01D9     		bls	.L20
 424 0070 4D45     		cmp	r5, r9
 425 0072 17D1     		bne	.L24
 426              	.L20:
 427              	.LVL23:
 428              	.LBB432:
 429              	.LBB433:
  66:../../libs/libDaisy/src/dev/mpr121.h ****     }
 430              		.loc 9 66 40 view .LVU85
 431 0074 0A23     		movs	r3, #10
 432 0076 03AA     		add	r2, sp, #12
 433 0078 3046     		mov	r0, r6
 434              	.LBE433:
 435              	.LBE432:
 281:../../libs/libDaisy/src/dev/mpr121.h ****         buff[1] = value;
 436              		.loc 9 281 17 view .LVU86
 437 007a 8DF80C50 		strb	r5, [sp, #12]
 438              	.LBB442:
 439              	.LBB434:
  66:../../libs/libDaisy/src/dev/mpr121.h ****     }
 440              		.loc 9 66 40 view .LVU87
 441 007e 0093     		str	r3, [sp]
 442 0080 0223     		movs	r3, #2
 443              	.LBE434:
 444              	.LBE442:
 282:../../libs/libDaisy/src/dev/mpr121.h ****         SetTransportErr(transport_.Write(buff, 2));
 445              		.loc 9 282 17 view .LVU88
 446 0082 8DF80D70 		strb	r7, [sp, #13]
 447              	.LVL24:
 448              	.LBB443:
 449              	.LBI432:
  63:../../libs/libDaisy/src/dev/mpr121.h ****     {
 450              		.loc 9 63 10 is_stmt 1 view .LVU89
 451              	.LBB435:
  65:../../libs/libDaisy/src/dev/mpr121.h ****                != i2c_.TransmitBlocking(config_.dev_addr, data, size, 10);
 452              		.loc 9 65 9 view .LVU90
 453              	.L23:
ARM GAS  C:\Users\skipi\AppData\Local\Temp\cceg9rRe.s 			page 25


  66:../../libs/libDaisy/src/dev/mpr121.h ****     }
 454              		.loc 9 66 40 is_stmt 0 view .LVU91
 455 0086 94F82C10 		ldrb	r1, [r4, #44]	@ zero_extendqisi2
 456 008a FFF7FEFF 		bl	_ZN5daisy9I2CHandle16TransmitBlockingEtPhtm
 457              	.LVL25:
  66:../../libs/libDaisy/src/dev/mpr121.h ****     }
 458              		.loc 9 66 40 view .LVU92
 459              	.LBE435:
 460              	.LBE443:
 461              	.LBB444:
 462              	.LBI444:
 463              		.loc 9 343 10 is_stmt 1 view .LVU93
 464              	.LBB445:
 465              		.loc 9 343 55 is_stmt 0 view .LVU94
 466 008e 94F83030 		ldrb	r3, [r4, #48]	@ zero_extendqisi2
 467 0092 0028     		cmp	r0, #0
 468 0094 18BF     		it	ne
 469 0096 43F00103 		orrne	r3, r3, #1
 470 009a 84F83030 		strb	r3, [r4, #48]
 471              	.LVL26:
 472              		.loc 9 343 55 view .LVU95
 473              	.LBE445:
 474              	.LBE444:
 292:../../libs/libDaisy/src/dev/mpr121.h **** 
 475              		.loc 9 292 5 view .LVU96
 476 009e 05B0     		add	sp, sp, #20
 477              		.cfi_remember_state
 478              		.cfi_def_cfa_offset 28
 479              		@ sp needed
 480 00a0 BDE8F083 		pop	{r4, r5, r6, r7, r8, r9, pc}
 481              	.LVL27:
 482              	.L24:
 483              		.cfi_restore_state
 484              	.LBB449:
 485              	.LBI449:
  63:../../libs/libDaisy/src/dev/mpr121.h ****     {
 486              		.loc 9 63 10 is_stmt 1 view .LVU97
 487              	.LBB450:
  65:../../libs/libDaisy/src/dev/mpr121.h ****                != i2c_.TransmitBlocking(config_.dev_addr, data, size, 10);
 488              		.loc 9 65 9 view .LVU98
  66:../../libs/libDaisy/src/dev/mpr121.h ****     }
 489              		.loc 9 66 40 is_stmt 0 view .LVU99
 490 00a4 0223     		movs	r3, #2
 491 00a6 03AA     		add	r2, sp, #12
 492              	.LVL28:
  66:../../libs/libDaisy/src/dev/mpr121.h ****     }
 493              		.loc 9 66 40 view .LVU100
 494 00a8 CDF80080 		str	r8, [sp]
 495 00ac 3046     		mov	r0, r6
 496 00ae 94F82C10 		ldrb	r1, [r4, #44]	@ zero_extendqisi2
 497 00b2 FFF7FEFF 		bl	_ZN5daisy9I2CHandle16TransmitBlockingEtPhtm
 498              	.LVL29:
  66:../../libs/libDaisy/src/dev/mpr121.h ****     }
 499              		.loc 9 66 40 view .LVU101
 500              	.LBE450:
 501              	.LBE449:
 502              	.LBB451:
ARM GAS  C:\Users\skipi\AppData\Local\Temp\cceg9rRe.s 			page 26


 503              	.LBI451:
 504              		.loc 9 343 10 is_stmt 1 view .LVU102
 505              	.LBE451:
 506              	.LBB455:
 507              	.LBB436:
  66:../../libs/libDaisy/src/dev/mpr121.h ****     }
 508              		.loc 9 66 40 is_stmt 0 view .LVU103
 509 00b6 CDF80080 		str	r8, [sp]
 510              	.LBE436:
 511              	.LBE455:
 512              	.LBB456:
 513              	.LBB452:
 514              		.loc 9 343 55 view .LVU104
 515 00ba 94F83030 		ldrb	r3, [r4, #48]	@ zero_extendqisi2
 516              	.LBE452:
 517              	.LBE456:
 518              	.LBB457:
 519              	.LBB437:
  66:../../libs/libDaisy/src/dev/mpr121.h ****     }
 520              		.loc 9 66 40 view .LVU105
 521 00be 03AA     		add	r2, sp, #12
 522 00c0 94F82C10 		ldrb	r1, [r4, #44]	@ zero_extendqisi2
 523              	.LBE437:
 524              	.LBE457:
 525              	.LBB458:
 526              	.LBB453:
 527              		.loc 9 343 55 view .LVU106
 528 00c4 0028     		cmp	r0, #0
 529 00c6 18BF     		it	ne
 530 00c8 43F00103 		orrne	r3, r3, #1
 531              	.LBE453:
 532              	.LBE458:
 533              	.LBB459:
 534              	.LBB438:
  66:../../libs/libDaisy/src/dev/mpr121.h ****     }
 535              		.loc 9 66 40 view .LVU107
 536 00cc 3046     		mov	r0, r6
 537              	.LVL30:
  66:../../libs/libDaisy/src/dev/mpr121.h ****     }
 538              		.loc 9 66 40 view .LVU108
 539              	.LBE438:
 540              	.LBE459:
 281:../../libs/libDaisy/src/dev/mpr121.h ****         buff[1] = value;
 541              		.loc 9 281 17 view .LVU109
 542 00ce 8DF80C50 		strb	r5, [sp, #12]
 543              	.LBB460:
 544              	.LBB454:
 545              		.loc 9 343 55 view .LVU110
 546 00d2 84F83030 		strb	r3, [r4, #48]
 547              	.LVL31:
 548              		.loc 9 343 55 view .LVU111
 549              	.LBE454:
 550              	.LBE460:
 551              	.LBB461:
  63:../../libs/libDaisy/src/dev/mpr121.h ****     {
 552              		.loc 9 63 10 is_stmt 1 view .LVU112
 553              	.LBB439:
ARM GAS  C:\Users\skipi\AppData\Local\Temp\cceg9rRe.s 			page 27


  65:../../libs/libDaisy/src/dev/mpr121.h ****                != i2c_.TransmitBlocking(config_.dev_addr, data, size, 10);
 554              		.loc 9 65 9 view .LVU113
  66:../../libs/libDaisy/src/dev/mpr121.h ****     }
 555              		.loc 9 66 40 is_stmt 0 view .LVU114
 556 00d6 0223     		movs	r3, #2
 557              	.LBE439:
 558              	.LBE461:
 282:../../libs/libDaisy/src/dev/mpr121.h ****         SetTransportErr(transport_.Write(buff, 2));
 559              		.loc 9 282 17 view .LVU115
 560 00d8 8DF80D70 		strb	r7, [sp, #13]
 561              	.LBB462:
 562              	.LBB440:
  66:../../libs/libDaisy/src/dev/mpr121.h ****     }
 563              		.loc 9 66 40 view .LVU116
 564 00dc FFF7FEFF 		bl	_ZN5daisy9I2CHandle16TransmitBlockingEtPhtm
 565              	.LVL32:
  66:../../libs/libDaisy/src/dev/mpr121.h ****     }
 566              		.loc 9 66 40 view .LVU117
 567              	.LBE440:
 568              	.LBE462:
 569              	.LBB463:
 570              	.LBB464:
 571 00e0 CDF80080 		str	r8, [sp]
 572              	.LBE464:
 573              	.LBE463:
 574              	.LBB469:
 575              	.LBB441:
 576 00e4 0546     		mov	r5, r0
 577              	.LVL33:
  66:../../libs/libDaisy/src/dev/mpr121.h ****     }
 578              		.loc 9 66 40 view .LVU118
 579              	.LBE441:
 580              	.LBE469:
 581              	.LBB470:
 582              		.loc 9 343 10 is_stmt 1 view .LVU119
 583              	.LBB446:
 584              		.loc 9 343 55 is_stmt 0 view .LVU120
 585 00e6 94F83010 		ldrb	r1, [r4, #48]	@ zero_extendqisi2
 586              	.LBE446:
 587              	.LBE470:
 588              	.LBB471:
 589              	.LBB465:
  66:../../libs/libDaisy/src/dev/mpr121.h ****     }
 590              		.loc 9 66 40 view .LVU121
 591 00ea 03AA     		add	r2, sp, #12
 592              	.LBE465:
 593              	.LBE471:
 289:../../libs/libDaisy/src/dev/mpr121.h ****             SetTransportErr(transport_.Write(buff, 2));
 594              		.loc 9 289 21 view .LVU122
 595 00ec 9DF80B30 		ldrb	r3, [sp, #11]	@ zero_extendqisi2
 596              	.LBB472:
 597              	.LBB466:
  66:../../libs/libDaisy/src/dev/mpr121.h ****     }
 598              		.loc 9 66 40 view .LVU123
 599 00f0 3046     		mov	r0, r6
 600              	.LVL34:
  66:../../libs/libDaisy/src/dev/mpr121.h ****     }
ARM GAS  C:\Users\skipi\AppData\Local\Temp\cceg9rRe.s 			page 28


 601              		.loc 9 66 40 view .LVU124
 602              	.LBE466:
 603              	.LBE472:
 604              	.LBB473:
 605              	.LBB447:
 606              		.loc 9 343 55 view .LVU125
 607 00f2 002D     		cmp	r5, #0
 608 00f4 18BF     		it	ne
 609 00f6 41F00101 		orrne	r1, r1, #1
 610              	.LBE447:
 611              	.LBE473:
 288:../../libs/libDaisy/src/dev/mpr121.h ****             buff[1] = ecr_backup;
 612              		.loc 9 288 21 view .LVU126
 613 00fa 8DF80C90 		strb	r9, [sp, #12]
 289:../../libs/libDaisy/src/dev/mpr121.h ****             SetTransportErr(transport_.Write(buff, 2));
 614              		.loc 9 289 21 view .LVU127
 615 00fe 8DF80D30 		strb	r3, [sp, #13]
 616              	.LBB474:
 617              	.LBB467:
  66:../../libs/libDaisy/src/dev/mpr121.h ****     }
 618              		.loc 9 66 40 view .LVU128
 619 0102 0223     		movs	r3, #2
 620              	.LBE467:
 621              	.LBE474:
 622              	.LBB475:
 623              	.LBB448:
 624              		.loc 9 343 55 view .LVU129
 625 0104 84F83010 		strb	r1, [r4, #48]
 626              	.LVL35:
 627              		.loc 9 343 55 view .LVU130
 628              	.LBE448:
 629              	.LBE475:
 630              	.LBB476:
 631              	.LBI463:
  63:../../libs/libDaisy/src/dev/mpr121.h ****     {
 632              		.loc 9 63 10 is_stmt 1 view .LVU131
 633              	.LBB468:
  65:../../libs/libDaisy/src/dev/mpr121.h ****                != i2c_.TransmitBlocking(config_.dev_addr, data, size, 10);
 634              		.loc 9 65 9 view .LVU132
 635 0108 BDE7     		b	.L23
 636              	.LBE468:
 637              	.LBE476:
 638              		.cfi_endproc
 639              	.LFE5279:
 641 010a 00BF     		.section	.rodata.main.str1.4,"aMS",%progbits,1
 642              		.align	2
 643              	.LC0:
 644 0000 2D2D2D2D 		.ascii	"---------------------------------------------------"
 644      2D2D2D2D 
 644      2D2D2D2D 
 644      2D2D2D2D 
 644      2D2D2D2D 
 645 0033 2D2D2D2D 		.ascii	"-----------------------------\000"
 645      2D2D2D2D 
 645      2D2D2D2D 
 645      2D2D2D2D 
 645      2D2D2D2D 
ARM GAS  C:\Users\skipi\AppData\Local\Temp\cceg9rRe.s 			page 29


 646 0051 000000   		.align	2
 647              	.LC1:
 648 0054 43415020 		.ascii	"CAP 0 touched\000"
 648      3020746F 
 648      75636865 
 648      6400
 649 0062 0000     		.align	2
 650              	.LC2:
 651 0064 43415020 		.ascii	"CAP 0 released\000"
 651      30207265 
 651      6C656173 
 651      656400
 652 0073 00       		.align	2
 653              	.LC3:
 654 0074 2000     		.ascii	" \000"
 655 0076 0000     		.align	2
 656              	.LC4:
 657 0078 7C2000   		.ascii	"| \000"
 658 007b 00       		.align	2
 659              	.LC5:
 660 007c 7C204261 		.ascii	"| Baseline Touched Value : %d |\000"
 660      73656C69 
 660      6E652054 
 660      6F756368 
 660      65642056 
 661              		.align	2
 662              	.LC6:
 663 009c 7C204669 		.ascii	"| Filtered Touched Value : %d |\000"
 663      6C746572 
 663      65642054 
 663      6F756368 
 663      65642056 
 664              		.align	2
 665              	.LC7:
 666 00bc 7C204469 		.ascii	"| Difference Touched Value : %d |\000"
 666      66666572 
 666      656E6365 
 666      20546F75 
 666      63686564 
 667 00de 0000     		.align	2
 668              	.LC8:
 669 00e0 7C204672 		.ascii	"| Frequency : %f |\000"
 669      65717565 
 669      6E637920 
 669      3A202566 
 669      207C00
 670 00f3 00       		.align	2
 671              	.LC9:
 672 00f4 42617365 		.ascii	"Baseline Untouched Value : %d\000"
 672      6C696E65 
 672      20556E74 
 672      6F756368 
 672      65642056 
 673 0112 0000     		.align	2
 674              	.LC10:
 675 0114 46696C74 		.ascii	"Filtered Untouched Value : %d\000"
 675      65726564 
ARM GAS  C:\Users\skipi\AppData\Local\Temp\cceg9rRe.s 			page 30


 675      20556E74 
 675      6F756368 
 675      65642056 
 676 0132 0000     		.align	2
 677              	.LC11:
 678 0134 44696666 		.ascii	"Difference Untouched Value : %d\000"
 678      6572656E 
 678      63652055 
 678      6E746F75 
 678      63686564 
 679              		.section	.text.startup.main,"ax",%progbits
 680              		.align	1
 681              		.p2align 2,,3
 682              		.global	main
 683              		.syntax unified
 684              		.thumb
 685              		.thumb_func
 686              		.fpu fpv5-d16
 688              	main:
 689              	.LFB4841:
  46:main.cpp      **** 
  47:main.cpp      **** int main()
  48:main.cpp      **** {
 690              		.loc 10 48 1 view -0
 691              		.cfi_startproc
 692              		@ args = 0, pretend = 0, frame = 72
 693              		@ frame_needed = 0, uses_anonymous_args = 0
  49:main.cpp      **** 
  50:main.cpp      **** 
  51:main.cpp      **** 
  52:main.cpp      ****   float sampleRate;
 694              		.loc 10 52 3 view .LVU134
  53:main.cpp      ****   hw.Configure();
 695              		.loc 10 53 3 view .LVU135
  48:main.cpp      **** 
 696              		.loc 10 48 1 is_stmt 0 view .LVU136
 697 0000 2DE9F04F 		push	{r4, r5, r6, r7, r8, r9, r10, fp, lr}
 698              		.cfi_def_cfa_offset 36
 699              		.cfi_offset 4, -36
 700              		.cfi_offset 5, -32
 701              		.cfi_offset 6, -28
 702              		.cfi_offset 7, -24
 703              		.cfi_offset 8, -20
 704              		.cfi_offset 9, -16
 705              		.cfi_offset 10, -12
 706              		.cfi_offset 11, -8
 707              		.cfi_offset 14, -4
 708              		.loc 10 53 15 view .LVU137
 709 0004 CF48     		ldr	r0, .L51
 710              	.LBB697:
 711              	.LBB698:
  55:../../libs/DaisySP/Source/Synthesis/oscillator.h ****         pw_        = 0.5f;
 712              		.loc 8 55 20 view .LVU138
 713 0006 4FF07C55 		mov	r5, #1056964608
 714              	.LBE698:
 715              	.LBE697:
 716              	.LBB702:
ARM GAS  C:\Users\skipi\AppData\Local\Temp\cceg9rRe.s 			page 31


 717              	.LBB703:
  77:../../libs/DaisySP/Source/Synthesis/oscillator.h ****     /** Sets the waveform to be synthesized by the Process() function.
  78:../../libs/DaisySP/Source/Synthesis/oscillator.h ****     */
  79:../../libs/DaisySP/Source/Synthesis/oscillator.h ****     inline void SetWaveform(const uint8_t wf)
  80:../../libs/DaisySP/Source/Synthesis/oscillator.h ****     {
  81:../../libs/DaisySP/Source/Synthesis/oscillator.h ****         waveform_ = wf < WAVE_LAST ? wf : WAVE_SIN;
 718              		.loc 8 81 19 view .LVU139
 719 000a 4FF00108 		mov	r8, #1
 720              	.LBE703:
 721              	.LBE702:
  54:main.cpp      ****   hw.Init();
  55:main.cpp      ****   hw.SetAudioBlockSize(4);
  56:main.cpp      ****   sampleRate = hw.AudioSampleRate();
  57:main.cpp      **** 
  58:main.cpp      ****   osc.Init(sampleRate);                  // initializes the oscillator with the sample rate
  59:main.cpp      ****   osc.SetWaveform(Oscillator::WAVE_TRI); // sets the waveform
  60:main.cpp      ****   osc.SetFreq(440.0f);                   // sets the frequency
  61:main.cpp      ****   osc.SetAmp(0.5f);                      // sets the amplitude
  62:main.cpp      **** 
  63:main.cpp      ****   env.Init(sampleRate); // initializes the envelope with the sample rate
 722              		.loc 10 63 11 view .LVU140
 723 000e CE4C     		ldr	r4, .L51+4
 724 0010 DFF85C93 		ldr	r9, .L51+44
 725              	.LBB706:
 726              	.LBB707:
 139:../../libs/libDaisy/src/dev/mpr121.h ****         WriteRegister(MPR121_MHDR, 0x01);
 727              		.loc 9 139 22 view .LVU141
 728 0014 4127     		movs	r7, #65
 729              	.LBE707:
 730              	.LBE706:
  48:main.cpp      **** 
 731              		.loc 10 48 1 view .LVU142
 732 0016 2DED028B 		vpush.64	{d8}
 733              		.cfi_def_cfa_offset 44
 734              		.cfi_offset 80, -44
 735              		.cfi_offset 81, -40
 736 001a 97B0     		sub	sp, sp, #92
 737              		.cfi_def_cfa_offset 136
  53:main.cpp      ****   hw.Init();
 738              		.loc 10 53 15 view .LVU143
 739 001c FFF7FEFF 		bl	_ZN5daisy9DaisySeed9ConfigureEv
 740              	.LVL36:
  54:main.cpp      ****   hw.SetAudioBlockSize(4);
 741              		.loc 10 54 3 is_stmt 1 view .LVU144
  54:main.cpp      ****   hw.SetAudioBlockSize(4);
 742              		.loc 10 54 10 is_stmt 0 view .LVU145
 743 0020 0021     		movs	r1, #0
 744 0022 C848     		ldr	r0, .L51
 745 0024 0DF1180A 		add	r10, sp, #24
 746 0028 FFF7FEFF 		bl	_ZN5daisy9DaisySeed4InitEb
 747              	.LVL37:
  55:main.cpp      ****   sampleRate = hw.AudioSampleRate();
 748              		.loc 10 55 3 is_stmt 1 view .LVU146
  55:main.cpp      ****   sampleRate = hw.AudioSampleRate();
 749              		.loc 10 55 23 is_stmt 0 view .LVU147
 750 002c 0421     		movs	r1, #4
 751 002e C548     		ldr	r0, .L51
ARM GAS  C:\Users\skipi\AppData\Local\Temp\cceg9rRe.s 			page 32


 752 0030 FFF7FEFF 		bl	_ZN5daisy9DaisySeed17SetAudioBlockSizeEj
 753              	.LVL38:
  56:main.cpp      **** 
 754              		.loc 10 56 3 is_stmt 1 view .LVU148
  56:main.cpp      **** 
 755              		.loc 10 56 34 is_stmt 0 view .LVU149
 756 0034 C348     		ldr	r0, .L51
 757 0036 FFF7FEFF 		bl	_ZN5daisy9DaisySeed15AudioSampleRateEv
 758              	.LVL39:
 759              	.LBB882:
 760              	.LBB699:
  53:../../libs/DaisySP/Source/Synthesis/oscillator.h ****         freq_      = 100.0f;
 761              		.loc 8 53 27 view .LVU150
 762 003a F7EE006A 		vmov.f32	s13, #1.0e+0
 763              	.LBE699:
 764              	.LBE882:
  56:main.cpp      **** 
 765              		.loc 10 56 34 view .LVU151
 766 003e B0EE408A 		vmov.f32	s16, s0
 767              	.LVL40:
  58:main.cpp      ****   osc.SetWaveform(Oscillator::WAVE_TRI); // sets the waveform
 768              		.loc 10 58 3 is_stmt 1 view .LVU152
 769              	.LBB883:
 770              	.LBI697:
  50:../../libs/DaisySP/Source/Synthesis/oscillator.h ****     {
 771              		.loc 8 50 10 view .LVU153
 772              	.LBB700:
  52:../../libs/DaisySP/Source/Synthesis/oscillator.h ****         sr_recip_  = 1.0f / sample_rate;
 773              		.loc 8 52 9 view .LVU154
  54:../../libs/DaisySP/Source/Synthesis/oscillator.h ****         amp_       = 0.5f;
 774              		.loc 8 54 20 is_stmt 0 view .LVU155
 775 0042 DFEDC27A 		vldr.32	s15, .L51+8
  58:../../libs/DaisySP/Source/Synthesis/oscillator.h ****         waveform_  = WAVE_SIN;
 776              		.loc 8 58 34 view .LVU156
 777 0046 C248     		ldr	r0, .L51+12
  57:../../libs/DaisySP/Source/Synthesis/oscillator.h ****         phase_inc_ = CalcPhaseInc(freq_);
 778              		.loc 8 57 20 view .LVU157
 779 0048 0023     		movs	r3, #0
  58:../../libs/DaisySP/Source/Synthesis/oscillator.h ****         waveform_  = WAVE_SIN;
 780              		.loc 8 58 34 view .LVU158
 781 004a B0EE670A 		vmov.f32	s0, s15
 782              	.LVL41:
  53:../../libs/DaisySP/Source/Synthesis/oscillator.h ****         freq_      = 100.0f;
 783              		.loc 8 53 27 view .LVU159
 784 004e 86EE887A 		vdiv.f32	s14, s13, s16
  56:../../libs/DaisySP/Source/Synthesis/oscillator.h ****         phase_     = 0.0f;
 785              		.loc 8 56 20 view .LVU160
 786 0052 0646     		mov	r6, r0
  54:../../libs/DaisySP/Source/Synthesis/oscillator.h ****         amp_       = 0.5f;
 787              		.loc 8 54 20 view .LVU161
 788 0054 C0ED027A 		vstr.32	s15, [r0, #8]
  55:../../libs/DaisySP/Source/Synthesis/oscillator.h ****         pw_        = 0.5f;
 789              		.loc 8 55 20 view .LVU162
 790 0058 4560     		str	r5, [r0, #4]	@ float
  56:../../libs/DaisySP/Source/Synthesis/oscillator.h ****         phase_     = 0.0f;
 791              		.loc 8 56 20 view .LVU163
 792 005a C560     		str	r5, [r0, #12]	@ float
ARM GAS  C:\Users\skipi\AppData\Local\Temp\cceg9rRe.s 			page 33


  57:../../libs/DaisySP/Source/Synthesis/oscillator.h ****         phase_inc_ = CalcPhaseInc(freq_);
 793              		.loc 8 57 20 view .LVU164
 794 005c 8361     		str	r3, [r0, #24]	@ float
  52:../../libs/DaisySP/Source/Synthesis/oscillator.h ****         sr_recip_  = 1.0f / sample_rate;
 795              		.loc 8 52 20 view .LVU165
 796 005e 80ED048A 		vstr.32	s16, [r0, #16]
  53:../../libs/DaisySP/Source/Synthesis/oscillator.h ****         freq_      = 100.0f;
 797              		.loc 8 53 9 is_stmt 1 view .LVU166
  53:../../libs/DaisySP/Source/Synthesis/oscillator.h ****         freq_      = 100.0f;
 798              		.loc 8 53 20 is_stmt 0 view .LVU167
 799 0062 80ED057A 		vstr.32	s14, [r0, #20]
  54:../../libs/DaisySP/Source/Synthesis/oscillator.h ****         amp_       = 0.5f;
 800              		.loc 8 54 9 is_stmt 1 view .LVU168
  55:../../libs/DaisySP/Source/Synthesis/oscillator.h ****         pw_        = 0.5f;
 801              		.loc 8 55 9 view .LVU169
  56:../../libs/DaisySP/Source/Synthesis/oscillator.h ****         phase_     = 0.0f;
 802              		.loc 8 56 9 view .LVU170
  57:../../libs/DaisySP/Source/Synthesis/oscillator.h ****         phase_inc_ = CalcPhaseInc(freq_);
 803              		.loc 8 57 9 view .LVU171
  58:../../libs/DaisySP/Source/Synthesis/oscillator.h ****         waveform_  = WAVE_SIN;
 804              		.loc 8 58 9 view .LVU172
  58:../../libs/DaisySP/Source/Synthesis/oscillator.h ****         waveform_  = WAVE_SIN;
 805              		.loc 8 58 34 is_stmt 0 view .LVU173
 806 0066 FFF7FEFF 		bl	_ZN7daisysp10Oscillator12CalcPhaseIncEf
 807              	.LVL42:
  61:../../libs/DaisySP/Source/Synthesis/oscillator.h ****     }
 808              		.loc 8 61 20 view .LVU174
 809 006a 40F20113 		movw	r3, #257
  58:../../libs/DaisySP/Source/Synthesis/oscillator.h ****         waveform_  = WAVE_SIN;
 810              		.loc 8 58 34 view .LVU175
 811 006e F0EE407A 		vmov.f32	s15, s0
 812              	.LBE700:
 813              	.LBE883:
 814              	.LBB884:
 815              	.LBB885:
  69:../../libs/DaisySP/Source/Synthesis/oscillator.h ****         phase_inc_ = CalcPhaseInc(f);
 816              		.loc 8 69 20 view .LVU176
 817 0072 9FEDB80A 		vldr.32	s0, .L51+16
  70:../../libs/DaisySP/Source/Synthesis/oscillator.h ****     }
 818              		.loc 8 70 34 view .LVU177
 819 0076 3046     		mov	r0, r6
 820              	.LBE885:
 821              	.LBE884:
 822              	.LBB889:
 823              	.LBB701:
  61:../../libs/DaisySP/Source/Synthesis/oscillator.h ****     }
 824              		.loc 8 61 20 view .LVU178
 825 0078 3385     		strh	r3, [r6, #40]	@ movhi
  58:../../libs/DaisySP/Source/Synthesis/oscillator.h ****         waveform_  = WAVE_SIN;
 826              		.loc 8 58 20 view .LVU179
 827 007a C6ED077A 		vstr.32	s15, [r6, #28]
  59:../../libs/DaisySP/Source/Synthesis/oscillator.h ****         eoc_       = true;
 828              		.loc 8 59 9 is_stmt 1 view .LVU180
  60:../../libs/DaisySP/Source/Synthesis/oscillator.h ****         eor_       = true;
 829              		.loc 8 60 9 view .LVU181
  61:../../libs/DaisySP/Source/Synthesis/oscillator.h ****     }
 830              		.loc 8 61 9 view .LVU182
ARM GAS  C:\Users\skipi\AppData\Local\Temp\cceg9rRe.s 			page 34


 831              	.LVL43:
  61:../../libs/DaisySP/Source/Synthesis/oscillator.h ****     }
 832              		.loc 8 61 9 is_stmt 0 view .LVU183
 833              	.LBE701:
 834              	.LBE889:
  59:main.cpp      ****   osc.SetFreq(440.0f);                   // sets the frequency
 835              		.loc 10 59 3 is_stmt 1 view .LVU184
 836              	.LBB890:
 837              	.LBI702:
  79:../../libs/DaisySP/Source/Synthesis/oscillator.h ****     {
 838              		.loc 8 79 17 view .LVU185
 839              	.LBB704:
 840              		.loc 8 81 9 view .LVU186
 841              		.loc 8 81 9 is_stmt 0 view .LVU187
 842              	.LBE704:
 843              	.LBE890:
  60:main.cpp      ****   osc.SetAmp(0.5f);                      // sets the amplitude
 844              		.loc 10 60 3 is_stmt 1 view .LVU188
 845              	.LBB891:
 846              	.LBI884:
  67:../../libs/DaisySP/Source/Synthesis/oscillator.h ****     {
 847              		.loc 8 67 17 view .LVU189
 848              	.LBB886:
  69:../../libs/DaisySP/Source/Synthesis/oscillator.h ****         phase_inc_ = CalcPhaseInc(f);
 849              		.loc 8 69 9 view .LVU190
  70:../../libs/DaisySP/Source/Synthesis/oscillator.h ****     }
 850              		.loc 8 70 9 view .LVU191
 851              	.LBE886:
 852              	.LBE891:
 853              	.LBB892:
 854              	.LBB705:
 855              		.loc 8 81 19 is_stmt 0 view .LVU192
 856 007e 86F80080 		strb	r8, [r6]
 857              	.LBE705:
 858              	.LBE892:
 859              	.LBB893:
 860              	.LBB887:
  69:../../libs/DaisySP/Source/Synthesis/oscillator.h ****         phase_inc_ = CalcPhaseInc(f);
 861              		.loc 8 69 20 view .LVU193
 862 0082 86ED020A 		vstr.32	s0, [r6, #8]
  70:../../libs/DaisySP/Source/Synthesis/oscillator.h ****     }
 863              		.loc 8 70 34 view .LVU194
 864 0086 FFF7FEFF 		bl	_ZN7daisysp10Oscillator12CalcPhaseIncEf
 865              	.LVL44:
 866 008a F0EE407A 		vmov.f32	s15, s0
 867              	.LBE887:
 868              	.LBE893:
 869              		.loc 10 63 11 view .LVU195
 870 008e 2046     		mov	r0, r4
 871 0090 B0EE480A 		vmov.f32	s0, s16
 872 0094 4146     		mov	r1, r8
 873              	.LBB894:
 874              	.LBB895:
  76:../../libs/DaisySP/Source/Synthesis/oscillator.h ****     /** Sets the waveform to be synthesized by the Process() function.
 875              		.loc 8 76 46 view .LVU196
 876 0096 7560     		str	r5, [r6, #4]	@ float
 877              	.LBE895:
ARM GAS  C:\Users\skipi\AppData\Local\Temp\cceg9rRe.s 			page 35


 878              	.LBE894:
 879              	.LBB897:
 880              	.LBB888:
  70:../../libs/DaisySP/Source/Synthesis/oscillator.h ****     }
 881              		.loc 8 70 20 view .LVU197
 882 0098 C6ED077A 		vstr.32	s15, [r6, #28]
 883              	.LVL45:
  70:../../libs/DaisySP/Source/Synthesis/oscillator.h ****     }
 884              		.loc 8 70 20 view .LVU198
 885              	.LBE888:
 886              	.LBE897:
  61:main.cpp      **** 
 887              		.loc 10 61 3 is_stmt 1 view .LVU199
 888              	.LBB898:
 889              	.LBI894:
  76:../../libs/DaisySP/Source/Synthesis/oscillator.h ****     /** Sets the waveform to be synthesized by the Process() function.
 890              		.loc 8 76 17 view .LVU200
 891              	.LBB896:
  76:../../libs/DaisySP/Source/Synthesis/oscillator.h ****     /** Sets the waveform to be synthesized by the Process() function.
 892              		.loc 8 76 41 view .LVU201
  76:../../libs/DaisySP/Source/Synthesis/oscillator.h ****     /** Sets the waveform to be synthesized by the Process() function.
 893              		.loc 8 76 41 is_stmt 0 view .LVU202
 894              	.LBE896:
 895              	.LBE898:
 896              		.loc 10 63 3 is_stmt 1 view .LVU203
 897              		.loc 10 63 11 is_stmt 0 view .LVU204
 898 009c FFF7FEFF 		bl	_ZN7daisysp4Adsr4InitEfi
 899              	.LVL46:
  64:main.cpp      ****   env.SetTime(ADSR_SEG_ATTACK, 0.05f);
 900              		.loc 10 64 3 is_stmt 1 view .LVU205
 901              		.loc 10 64 14 is_stmt 0 view .LVU206
 902 00a0 2046     		mov	r0, r4
 903 00a2 9FEDAD0A 		vldr.32	s0, .L51+20
 904 00a6 4146     		mov	r1, r8
 905 00a8 FFF7FEFF 		bl	_ZN7daisysp4Adsr7SetTimeEif
 906              	.LVL47:
  65:main.cpp      ****   env.SetTime(ADSR_SEG_DECAY, 0.1f);
 907              		.loc 10 65 3 is_stmt 1 view .LVU207
 908              		.loc 10 65 14 is_stmt 0 view .LVU208
 909 00ac 2046     		mov	r0, r4
 910 00ae 9FEDAB0A 		vldr.32	s0, .L51+24
 911 00b2 0221     		movs	r1, #2
 912 00b4 FFF7FEFF 		bl	_ZN7daisysp4Adsr7SetTimeEif
 913              	.LVL48:
  66:main.cpp      ****   env.SetSustainLevel(0.7f);
 914              		.loc 10 66 3 is_stmt 1 view .LVU209
 915              	.LBB899:
 916              	.LBI899:
  46:../../libs/DaisySP/Source/Control/adsr.h ****     /** Initializes the Adsr module.
  47:../../libs/DaisySP/Source/Control/adsr.h ****         \param sample_rate - The sample rate of the audio engine being run. 
  48:../../libs/DaisySP/Source/Control/adsr.h ****     */
  49:../../libs/DaisySP/Source/Control/adsr.h ****     void Init(float sample_rate, int blockSize = 1);
  50:../../libs/DaisySP/Source/Control/adsr.h ****     /**
  51:../../libs/DaisySP/Source/Control/adsr.h ****      \function Retrigger forces the envelope back to attack phase
  52:../../libs/DaisySP/Source/Control/adsr.h ****      \param hard  resets the history to zero, results in a click.
  53:../../libs/DaisySP/Source/Control/adsr.h ****      */
  54:../../libs/DaisySP/Source/Control/adsr.h ****     void Retrigger(bool hard);
ARM GAS  C:\Users\skipi\AppData\Local\Temp\cceg9rRe.s 			page 36


  55:../../libs/DaisySP/Source/Control/adsr.h ****     /** Processes one sample through the filter and returns one sample.
  56:../../libs/DaisySP/Source/Control/adsr.h ****         \param gate - trigger the envelope, hold it to sustain 
  57:../../libs/DaisySP/Source/Control/adsr.h ****     */
  58:../../libs/DaisySP/Source/Control/adsr.h ****     float Process(bool gate);
  59:../../libs/DaisySP/Source/Control/adsr.h ****     /** Sets time
  60:../../libs/DaisySP/Source/Control/adsr.h ****         Set time per segment in seconds
  61:../../libs/DaisySP/Source/Control/adsr.h ****     */
  62:../../libs/DaisySP/Source/Control/adsr.h ****     void SetTime(int seg, float time);
  63:../../libs/DaisySP/Source/Control/adsr.h ****     void SetAttackTime(float timeInS, float shape = 0.0f);
  64:../../libs/DaisySP/Source/Control/adsr.h ****     void SetDecayTime(float timeInS);
  65:../../libs/DaisySP/Source/Control/adsr.h ****     void SetReleaseTime(float timeInS);
  66:../../libs/DaisySP/Source/Control/adsr.h **** 
  67:../../libs/DaisySP/Source/Control/adsr.h ****   private:
  68:../../libs/DaisySP/Source/Control/adsr.h ****     void SetTimeConstant(float timeInS, float& time, float& coeff);
  69:../../libs/DaisySP/Source/Control/adsr.h **** 
  70:../../libs/DaisySP/Source/Control/adsr.h ****   public:
  71:../../libs/DaisySP/Source/Control/adsr.h ****     /** Sustain level
  72:../../libs/DaisySP/Source/Control/adsr.h ****         \param sus_level - sets sustain level, 0...1.0
  73:../../libs/DaisySP/Source/Control/adsr.h ****     */
  74:../../libs/DaisySP/Source/Control/adsr.h ****     inline void SetSustainLevel(float sus_level)
 917              		.loc 7 74 17 view .LVU210
 918              	.LBB900:
  75:../../libs/DaisySP/Source/Control/adsr.h ****     {
  76:../../libs/DaisySP/Source/Control/adsr.h ****         sus_level = (sus_level <= 0.f) ? -0.01f // forces envelope into idle
 919              		.loc 7 76 9 view .LVU211
  77:../../libs/DaisySP/Source/Control/adsr.h ****                                        : (sus_level > 1.f) ? 1.f : sus_level;
  78:../../libs/DaisySP/Source/Control/adsr.h ****         sus_level_ = sus_level;
 920              		.loc 7 78 9 view .LVU212
 921              		.loc 7 78 20 is_stmt 0 view .LVU213
 922 00b8 A94B     		ldr	r3, .L51+28
 923              	.LBE900:
 924              	.LBE899:
  67:main.cpp      ****   env.SetTime(ADSR_SEG_RELEASE, 0.2f);
 925              		.loc 10 67 14 view .LVU214
 926 00ba 9FEDAA0A 		vldr.32	s0, .L51+32
 927 00be 0421     		movs	r1, #4
 928 00c0 2046     		mov	r0, r4
 929              	.LBB902:
 930              	.LBB901:
 931              		.loc 7 78 20 view .LVU215
 932 00c2 2360     		str	r3, [r4]	@ float
 933              	.LVL49:
 934              		.loc 7 78 20 view .LVU216
 935              	.LBE901:
 936              	.LBE902:
 937              		.loc 10 67 3 is_stmt 1 view .LVU217
 938              		.loc 10 67 14 is_stmt 0 view .LVU218
 939 00c4 FFF7FEFF 		bl	_ZN7daisysp4Adsr7SetTimeEif
 940              	.LVL50:
  68:main.cpp      **** 
  69:main.cpp      ****   #ifdef DEBUG
  70:main.cpp      ****   hw.StartLog(false); // starts the log to the serial port
 941              		.loc 10 70 3 is_stmt 1 view .LVU219
 942              	.LBB903:
 943              	.LBI903:
  23:../../libs/libDaisy/src/daisy_seed.h **** 
  24:../../libs/libDaisy/src/daisy_seed.h ****     /** This function used to provide a pre-initialization configuraiton 
ARM GAS  C:\Users\skipi\AppData\Local\Temp\cceg9rRe.s 			page 37


  25:../../libs/libDaisy/src/daisy_seed.h ****      *  it has since been deprecated, and does nothing.
  26:../../libs/libDaisy/src/daisy_seed.h ****      */
  27:../../libs/libDaisy/src/daisy_seed.h ****     void Configure();
  28:../../libs/libDaisy/src/daisy_seed.h **** 
  29:../../libs/libDaisy/src/daisy_seed.h ****     /** 
  30:../../libs/libDaisy/src/daisy_seed.h ****     Initializes the Daisy Seed and the following peripherals:
  31:../../libs/libDaisy/src/daisy_seed.h ****     SDRAM, QSPI, 24-bit 48kHz Audio via AK4556, Internal USB,
  32:../../libs/libDaisy/src/daisy_seed.h ****     as well as the built-in LED and Testpoint.
  33:../../libs/libDaisy/src/daisy_seed.h **** 
  34:../../libs/libDaisy/src/daisy_seed.h ****     ADCs, DACs, and other special peripherals (such as I2C, SPI, etc.)
  35:../../libs/libDaisy/src/daisy_seed.h ****     can be initialized using their specific initializers within libdaisy
  36:../../libs/libDaisy/src/daisy_seed.h ****     for a specific application.
  37:../../libs/libDaisy/src/daisy_seed.h ****     */
  38:../../libs/libDaisy/src/daisy_seed.h ****     void Init(bool boost = false);
  39:../../libs/libDaisy/src/daisy_seed.h **** 
  40:../../libs/libDaisy/src/daisy_seed.h ****     /** 
  41:../../libs/libDaisy/src/daisy_seed.h ****     Deinitializes all peripherals automatically handled by `Init`.
  42:../../libs/libDaisy/src/daisy_seed.h ****     */
  43:../../libs/libDaisy/src/daisy_seed.h ****     void DeInit();
  44:../../libs/libDaisy/src/daisy_seed.h **** 
  45:../../libs/libDaisy/src/daisy_seed.h ****     /** 
  46:../../libs/libDaisy/src/daisy_seed.h ****     Wait some ms before going on.
  47:../../libs/libDaisy/src/daisy_seed.h ****     \param del Delay time in ms.
  48:../../libs/libDaisy/src/daisy_seed.h ****     */
  49:../../libs/libDaisy/src/daisy_seed.h ****     void DelayMs(size_t del);
  50:../../libs/libDaisy/src/daisy_seed.h **** 
  51:../../libs/libDaisy/src/daisy_seed.h ****     /** 
  52:../../libs/libDaisy/src/daisy_seed.h ****     Returns the gpio_pin corresponding to the index 0-31.
  53:../../libs/libDaisy/src/daisy_seed.h ****     For the given GPIO on the Daisy Seed (labeled 1-32 in docs).
  54:../../libs/libDaisy/src/daisy_seed.h ****     */
  55:../../libs/libDaisy/src/daisy_seed.h ****     static Pin GetPin(uint8_t pin_idx);
  56:../../libs/libDaisy/src/daisy_seed.h **** 
  57:../../libs/libDaisy/src/daisy_seed.h ****     /** Begins the audio for the seeds builtin audio.
  58:../../libs/libDaisy/src/daisy_seed.h ****     the specified callback will get called whenever
  59:../../libs/libDaisy/src/daisy_seed.h ****     new data is ready to be prepared.
  60:../../libs/libDaisy/src/daisy_seed.h ****     */
  61:../../libs/libDaisy/src/daisy_seed.h ****     void StartAudio(AudioHandle::InterleavingAudioCallback cb);
  62:../../libs/libDaisy/src/daisy_seed.h **** 
  63:../../libs/libDaisy/src/daisy_seed.h ****     /** Begins the audio for the seeds builtin audio.
  64:../../libs/libDaisy/src/daisy_seed.h ****     the specified callback will get called whenever
  65:../../libs/libDaisy/src/daisy_seed.h ****     new data is ready to be prepared.
  66:../../libs/libDaisy/src/daisy_seed.h ****     This will use the newer non-interleaved callback.
  67:../../libs/libDaisy/src/daisy_seed.h ****     */
  68:../../libs/libDaisy/src/daisy_seed.h ****     void StartAudio(AudioHandle::AudioCallback cb);
  69:../../libs/libDaisy/src/daisy_seed.h **** 
  70:../../libs/libDaisy/src/daisy_seed.h ****     /** Changes to a new interleaved callback
  71:../../libs/libDaisy/src/daisy_seed.h ****      */
  72:../../libs/libDaisy/src/daisy_seed.h ****     void ChangeAudioCallback(AudioHandle::InterleavingAudioCallback cb);
  73:../../libs/libDaisy/src/daisy_seed.h **** 
  74:../../libs/libDaisy/src/daisy_seed.h ****     /** Changes to a new multichannel callback
  75:../../libs/libDaisy/src/daisy_seed.h ****      */
  76:../../libs/libDaisy/src/daisy_seed.h ****     void ChangeAudioCallback(AudioHandle::AudioCallback cb);
  77:../../libs/libDaisy/src/daisy_seed.h **** 
  78:../../libs/libDaisy/src/daisy_seed.h ****     /** Stops the audio if it is running. */
  79:../../libs/libDaisy/src/daisy_seed.h ****     void StopAudio();
  80:../../libs/libDaisy/src/daisy_seed.h **** 
  81:../../libs/libDaisy/src/daisy_seed.h ****     /** Updates the Audio Sample Rate, and reinitializes.
ARM GAS  C:\Users\skipi\AppData\Local\Temp\cceg9rRe.s 			page 38


  82:../../libs/libDaisy/src/daisy_seed.h ****      ** Audio must be stopped for this to work.
  83:../../libs/libDaisy/src/daisy_seed.h ****      */
  84:../../libs/libDaisy/src/daisy_seed.h ****     void SetAudioSampleRate(SaiHandle::Config::SampleRate samplerate);
  85:../../libs/libDaisy/src/daisy_seed.h **** 
  86:../../libs/libDaisy/src/daisy_seed.h ****     /** Returns the audio sample rate in Hz as a floating point number.
  87:../../libs/libDaisy/src/daisy_seed.h ****      */
  88:../../libs/libDaisy/src/daisy_seed.h ****     float AudioSampleRate();
  89:../../libs/libDaisy/src/daisy_seed.h **** 
  90:../../libs/libDaisy/src/daisy_seed.h ****     /** Sets the number of samples processed per channel by the audio callback.
  91:../../libs/libDaisy/src/daisy_seed.h ****      */
  92:../../libs/libDaisy/src/daisy_seed.h ****     void SetAudioBlockSize(size_t blocksize);
  93:../../libs/libDaisy/src/daisy_seed.h **** 
  94:../../libs/libDaisy/src/daisy_seed.h ****     /** Returns the number of samples per channel in a block of audio. */
  95:../../libs/libDaisy/src/daisy_seed.h ****     size_t AudioBlockSize();
  96:../../libs/libDaisy/src/daisy_seed.h **** 
  97:../../libs/libDaisy/src/daisy_seed.h ****     /** Returns the rate in Hz that the Audio callback is called */
  98:../../libs/libDaisy/src/daisy_seed.h ****     float AudioCallbackRate() const;
  99:../../libs/libDaisy/src/daisy_seed.h **** 
 100:../../libs/libDaisy/src/daisy_seed.h ****     /** Returns the SAI Handle for the Daisy Seed 
 101:../../libs/libDaisy/src/daisy_seed.h ****      *  This can be useful when adding a secondary codec,
 102:../../libs/libDaisy/src/daisy_seed.h ****      *  the result of this function can be passed to the audio reinit 
 103:../../libs/libDaisy/src/daisy_seed.h ****      *  with an SAI2 configuration
 104:../../libs/libDaisy/src/daisy_seed.h ****      */
 105:../../libs/libDaisy/src/daisy_seed.h ****     const SaiHandle& AudioSaiHandle() const;
 106:../../libs/libDaisy/src/daisy_seed.h **** 
 107:../../libs/libDaisy/src/daisy_seed.h ****     /** Sets the state of the built in LED
 108:../../libs/libDaisy/src/daisy_seed.h ****      */
 109:../../libs/libDaisy/src/daisy_seed.h ****     void SetLed(bool state);
 110:../../libs/libDaisy/src/daisy_seed.h **** 
 111:../../libs/libDaisy/src/daisy_seed.h ****     /** Sets the state of the test point near pin 10
 112:../../libs/libDaisy/src/daisy_seed.h ****      */
 113:../../libs/libDaisy/src/daisy_seed.h ****     void SetTestPoint(bool state);
 114:../../libs/libDaisy/src/daisy_seed.h **** 
 115:../../libs/libDaisy/src/daisy_seed.h ****     /** Print formatted debug log message
 116:../../libs/libDaisy/src/daisy_seed.h ****      */
 117:../../libs/libDaisy/src/daisy_seed.h ****     template <typename... VA>
 118:../../libs/libDaisy/src/daisy_seed.h ****     static void Print(const char* format, VA... va)
 119:../../libs/libDaisy/src/daisy_seed.h ****     {
 120:../../libs/libDaisy/src/daisy_seed.h ****         Log::Print(format, va...);
 121:../../libs/libDaisy/src/daisy_seed.h ****     }
 122:../../libs/libDaisy/src/daisy_seed.h **** 
 123:../../libs/libDaisy/src/daisy_seed.h ****     /** Print formatted debug log message with automatic line termination
 124:../../libs/libDaisy/src/daisy_seed.h ****     */
 125:../../libs/libDaisy/src/daisy_seed.h ****     template <typename... VA>
 126:../../libs/libDaisy/src/daisy_seed.h ****     static void PrintLine(const char* format, VA... va)
 127:../../libs/libDaisy/src/daisy_seed.h ****     {
 128:../../libs/libDaisy/src/daisy_seed.h ****         Log::PrintLine(format, va...);
 129:../../libs/libDaisy/src/daisy_seed.h ****     }
 130:../../libs/libDaisy/src/daisy_seed.h **** 
 131:../../libs/libDaisy/src/daisy_seed.h ****     /** Start the logging session. Optionally wait for terminal connection before proceeding.
 132:../../libs/libDaisy/src/daisy_seed.h ****     */
 133:../../libs/libDaisy/src/daisy_seed.h ****     static void StartLog(bool wait_for_pc = false)
 944              		.loc 1 133 17 view .LVU220
 945              	.LBB904:
 134:../../libs/libDaisy/src/daisy_seed.h ****     {
 135:../../libs/libDaisy/src/daisy_seed.h ****         Log::StartLog(wait_for_pc);
 946              		.loc 1 135 9 view .LVU221
ARM GAS  C:\Users\skipi\AppData\Local\Temp\cceg9rRe.s 			page 39


 947              		.loc 1 135 22 is_stmt 0 view .LVU222
 948 00c8 0020     		movs	r0, #0
 949 00ca FFF7FEFF 		bl	_ZN5daisy6LoggerILNS_17LoggerDestinationE1EE8StartLogEb
 950              	.LVL51:
 951              		.loc 1 135 22 view .LVU223
 952              	.LBE904:
 953              	.LBE903:
  71:main.cpp      ****   #endif
  72:main.cpp      **** 
  73:main.cpp      **** 
  74:main.cpp      ****   daisy::Mpr121I2C::Result status = cap.Init(mpr121ObjConf);
 954              		.loc 10 74 3 is_stmt 1 view .LVU224
 955              		.loc 10 74 3 is_stmt 0 view .LVU225
 956 00ce 0DF1400C 		add	ip, sp, #64
 957              	.LBB905:
 958              	.LBB880:
 123:../../libs/libDaisy/src/dev/mpr121.h **** 
 959              		.loc 9 123 9 view .LVU226
 960 00d2 A54C     		ldr	r4, .L51+36
 961 00d4 E646     		mov	lr, ip
 962 00d6 6546     		mov	r5, ip
 963 00d8 2646     		mov	r6, r4
 964              	.LBB708:
 965              	.LBB709:
  49:../../libs/libDaisy/src/dev/mpr121.h **** 
 966              		.loc 9 49 17 view .LVU227
 967 00da CDF814A0 		str	r10, [sp, #20]
 968 00de 04F11C0B 		add	fp, r4, #28
 969 00e2 B9E80F00 		ldmia	r9!, {r0, r1, r2, r3}
 970 00e6 ACE80F00 		stmia	ip!, {r0, r1, r2, r3}
 971 00ea 99E80300 		ldm	r9, {r0, r1}
 972 00ee 4CF8040B 		str	r0, [ip], #4
 973 00f2 ACF80010 		strh	r1, [ip]	@ movhi
 974              	.LBE709:
 975              	.LBE708:
 976              	.LBE880:
 977              	.LBI706:
 121:../../libs/libDaisy/src/dev/mpr121.h ****     {
 978              		.loc 9 121 12 is_stmt 1 view .LVU228
 979 00f6 A446     		mov	ip, r4
 980              	.LBB881:
 123:../../libs/libDaisy/src/dev/mpr121.h **** 
 981              		.loc 9 123 9 is_stmt 0 view .LVU229
 982 00f8 BEE80F00 		ldmia	lr!, {r0, r1, r2, r3}
 983 00fc 0FC6     		stmia	r6!, {r0, r1, r2, r3}
 984 00fe 9EE80300 		ldm	lr, {r0, r1}
 985 0102 46F8040B 		str	r0, [r6], #4
 986 0106 3180     		strh	r1, [r6]	@ movhi
 987              	.LVL52:
 123:../../libs/libDaisy/src/dev/mpr121.h **** 
 988              		.loc 9 123 9 view .LVU230
 989 0108 0646     		mov	r6, r0
 990 010a BCE80F00 		ldmia	ip!, {r0, r1, r2, r3}
 991 010e AAE80F00 		stmia	r10!, {r0, r1, r2, r3}
 992              	.LBB721:
 993              	.LBB719:
  56:../../libs/libDaisy/src/dev/mpr121.h ****         i2c_conf.pin_config.sda = config.sda;
ARM GAS  C:\Users\skipi\AppData\Local\Temp\cceg9rRe.s 			page 40


 994              		.loc 9 56 33 view .LVU231
 995 0112 BDF82030 		ldrh	r3, [sp, #32]
 996              	.LBB710:
 997              	.LBB711:
 998              		.file 11 "../../libs/libDaisy/src/per/i2c.h"
   1:../../libs/libDaisy/src/per/i2c.h **** #pragma once
   2:../../libs/libDaisy/src/per/i2c.h **** #include "util/hal_map.h"
   3:../../libs/libDaisy/src/per/i2c.h **** #include "daisy_core.h"
   4:../../libs/libDaisy/src/per/i2c.h **** 
   5:../../libs/libDaisy/src/per/i2c.h **** namespace daisy
   6:../../libs/libDaisy/src/per/i2c.h **** {
   7:../../libs/libDaisy/src/per/i2c.h **** /** A handle for interacting with an I2C peripheral. This is a dumb
   8:../../libs/libDaisy/src/per/i2c.h ****  *  gateway that internally points to one of the four I2C peripherals
   9:../../libs/libDaisy/src/per/i2c.h ****  *  after it was initialised. It can then be copied and passed around.
  10:../../libs/libDaisy/src/per/i2c.h ****  *  Use an I2CHandle like this:
  11:../../libs/libDaisy/src/per/i2c.h ****  *  
  12:../../libs/libDaisy/src/per/i2c.h ****  *      // setup the configuration
  13:../../libs/libDaisy/src/per/i2c.h ****  *      I2CHandle::Config i2c_conf;
  14:../../libs/libDaisy/src/per/i2c.h ****  *      i2c_conf.periph = I2CHandle::Config::Peripheral::I2C_1;
  15:../../libs/libDaisy/src/per/i2c.h ****  *      i2c_conf.speed  = I2CHandle::Config::Speed::I2C_400KHZ;
  16:../../libs/libDaisy/src/per/i2c.h ****  *      i2c_conf.mode   = I2CHandle::Config::Mode::Master;
  17:../../libs/libDaisy/src/per/i2c.h ****  *      i2c_conf.pin_config.scl  = {DSY_GPIOB, 8};
  18:../../libs/libDaisy/src/per/i2c.h ****  *      i2c_conf.pin_config.sda  = {DSY_GPIOB, 9};
  19:../../libs/libDaisy/src/per/i2c.h ****  *      // initialise the peripheral
  20:../../libs/libDaisy/src/per/i2c.h ****  *      I2CHandle i2c;
  21:../../libs/libDaisy/src/per/i2c.h ****  *      i2c.Init(i2c_conf);
  22:../../libs/libDaisy/src/per/i2c.h ****  *      // now i2c points to the corresponding peripheral and can be used.
  23:../../libs/libDaisy/src/per/i2c.h ****  *      i2c.TransmitBlocking( ... );
  24:../../libs/libDaisy/src/per/i2c.h ****  */
  25:../../libs/libDaisy/src/per/i2c.h **** class I2CHandle
  26:../../libs/libDaisy/src/per/i2c.h **** {
  27:../../libs/libDaisy/src/per/i2c.h ****   public:
  28:../../libs/libDaisy/src/per/i2c.h ****     /** Contains settings for initialising an I2C interface. */
  29:../../libs/libDaisy/src/per/i2c.h ****     struct Config
 999              		.loc 11 29 12 view .LVU232
 1000 0116 4FF01002 		mov	r2, #16
 1001 011a CAF80060 		str	r6, [r10]
 1002              	.LBE711:
 1003              	.LBE710:
  56:../../libs/libDaisy/src/dev/mpr121.h ****         i2c_conf.pin_config.sda = config.sda;
 1004              		.loc 9 56 33 view .LVU233
 1005 011e ADF83030 		strh	r3, [sp, #48]	@ movhi
  57:../../libs/libDaisy/src/dev/mpr121.h **** 
 1006              		.loc 9 57 33 view .LVU234
 1007 0122 BDF82230 		ldrh	r3, [sp, #34]
 1008              	.LBB717:
 1009              	.LBB715:
 1010              		.loc 11 29 12 view .LVU235
 1011 0126 8DF83C20 		strb	r2, [sp, #60]
 1012              	.LBE715:
 1013              	.LBE717:
  52:../../libs/libDaisy/src/dev/mpr121.h ****         i2c_conf.periph = config.periph;
 1014              		.loc 9 52 25 view .LVU236
 1015 012a 0022     		movs	r2, #0
  57:../../libs/libDaisy/src/dev/mpr121.h **** 
 1016              		.loc 9 57 33 view .LVU237
 1017 012c ADF83230 		strh	r3, [sp, #50]	@ movhi
ARM GAS  C:\Users\skipi\AppData\Local\Temp\cceg9rRe.s 			page 41


  49:../../libs/libDaisy/src/dev/mpr121.h **** 
 1018              		.loc 9 49 17 view .LVU238
 1019 0130 059B     		ldr	r3, [sp, #20]
  52:../../libs/libDaisy/src/dev/mpr121.h ****         i2c_conf.periph = config.periph;
 1020              		.loc 9 52 25 view .LVU239
 1021 0132 0E92     		str	r2, [sp, #56]
 1022              	.LVL53:
  49:../../libs/libDaisy/src/dev/mpr121.h **** 
 1023              		.loc 9 49 17 view .LVU240
 1024 0134 9C46     		mov	ip, r3
 1025 0136 0690     		str	r0, [sp, #24]
  53:../../libs/libDaisy/src/dev/mpr121.h ****         i2c_conf.speed  = config.speed;
 1026              		.loc 9 53 25 view .LVU241
 1027 0138 0B90     		str	r0, [sp, #44]
 1028              	.LVL54:
  53:../../libs/libDaisy/src/dev/mpr121.h ****         i2c_conf.speed  = config.speed;
 1029              		.loc 9 53 25 view .LVU242
 1030              	.LBE719:
 1031              	.LBI708:
  47:../../libs/libDaisy/src/dev/mpr121.h ****     {
 1032              		.loc 9 47 17 is_stmt 1 view .LVU243
 1033              	.LBB720:
  49:../../libs/libDaisy/src/dev/mpr121.h **** 
 1034              		.loc 9 49 9 view .LVU244
  49:../../libs/libDaisy/src/dev/mpr121.h **** 
 1035              		.loc 9 49 17 is_stmt 0 view .LVU245
 1036 013a 0791     		str	r1, [sp, #28]
  54:../../libs/libDaisy/src/dev/mpr121.h **** 
 1037              		.loc 9 54 25 view .LVU246
 1038 013c 0D91     		str	r1, [sp, #52]
  49:../../libs/libDaisy/src/dev/mpr121.h **** 
 1039              		.loc 9 49 17 view .LVU247
 1040 013e BCE80F00 		ldmia	ip!, {r0, r1, r2, r3}
 1041              	.LVL55:
  49:../../libs/libDaisy/src/dev/mpr121.h **** 
 1042              		.loc 9 49 17 view .LVU248
 1043 0142 ABE80F00 		stmia	fp!, {r0, r1, r2, r3}
  59:../../libs/libDaisy/src/dev/mpr121.h ****     }
 1044              		.loc 9 59 50 view .LVU249
 1045 0146 0BA9     		add	r1, sp, #44
  49:../../libs/libDaisy/src/dev/mpr121.h **** 
 1046              		.loc 9 49 17 view .LVU250
 1047 0148 8BF80060 		strb	r6, [fp]
  51:../../libs/libDaisy/src/dev/mpr121.h ****         i2c_conf.mode   = I2CHandle::Config::Mode::I2C_MASTER;
 1048              		.loc 9 51 9 is_stmt 1 view .LVU251
 1049              	.LVL56:
 1050              	.LBB718:
 1051              	.LBI710:
 1052              		.loc 11 29 12 view .LVU252
 1053              	.LBB716:
 1054              	.LBB712:
 1055              	.LBI712:
  30:../../libs/libDaisy/src/per/i2c.h ****     {
  31:../../libs/libDaisy/src/per/i2c.h ****         /** Specifies whether the interface will operate in master or slave mode. */
  32:../../libs/libDaisy/src/per/i2c.h ****         enum class Mode
  33:../../libs/libDaisy/src/per/i2c.h ****         {
  34:../../libs/libDaisy/src/per/i2c.h ****             I2C_MASTER,
ARM GAS  C:\Users\skipi\AppData\Local\Temp\cceg9rRe.s 			page 42


  35:../../libs/libDaisy/src/per/i2c.h ****             I2C_SLAVE,
  36:../../libs/libDaisy/src/per/i2c.h ****         };
  37:../../libs/libDaisy/src/per/i2c.h **** 
  38:../../libs/libDaisy/src/per/i2c.h ****         /** Specifices the internal peripheral to use (these are mapped to different pins on the ha
  39:../../libs/libDaisy/src/per/i2c.h ****         enum class Peripheral
  40:../../libs/libDaisy/src/per/i2c.h ****         {
  41:../../libs/libDaisy/src/per/i2c.h ****             I2C_1 = 0, /**< & */
  42:../../libs/libDaisy/src/per/i2c.h ****             I2C_2,     /**< & */
  43:../../libs/libDaisy/src/per/i2c.h ****             I2C_3,     /**< & */
  44:../../libs/libDaisy/src/per/i2c.h ****             I2C_4,     /**< & */
  45:../../libs/libDaisy/src/per/i2c.h ****         };
  46:../../libs/libDaisy/src/per/i2c.h **** 
  47:../../libs/libDaisy/src/per/i2c.h ****         /** Rate at which the clock/data will be sent/received. The device being used will have max
  48:../../libs/libDaisy/src/per/i2c.h ****          *  1MHZ Mode is currently 886kHz
  49:../../libs/libDaisy/src/per/i2c.h ****          */
  50:../../libs/libDaisy/src/per/i2c.h ****         enum class Speed
  51:../../libs/libDaisy/src/per/i2c.h ****         {
  52:../../libs/libDaisy/src/per/i2c.h ****             I2C_100KHZ, /**< & */
  53:../../libs/libDaisy/src/per/i2c.h ****             I2C_400KHZ, /**< & */
  54:../../libs/libDaisy/src/per/i2c.h ****             I2C_1MHZ,   /**< & */
  55:../../libs/libDaisy/src/per/i2c.h ****         };
  56:../../libs/libDaisy/src/per/i2c.h **** 
  57:../../libs/libDaisy/src/per/i2c.h ****         Peripheral periph; /**< & */
  58:../../libs/libDaisy/src/per/i2c.h ****         struct
  59:../../libs/libDaisy/src/per/i2c.h ****         {
 1056              		.loc 11 59 9 view .LVU253
 1057              	.LBB713:
 1058              	.LBI713:
 1059              		.file 12 "../../libs/libDaisy/src/daisy_core.h"
   1:../../libs/libDaisy/src/daisy_core.h **** #pragma once
   2:../../libs/libDaisy/src/daisy_core.h **** #ifndef DSY_CORE_HW_H
   3:../../libs/libDaisy/src/daisy_core.h **** #define DSY_CORE_HW_H /**< & */
   4:../../libs/libDaisy/src/daisy_core.h **** #include <stdint.h>
   5:../../libs/libDaisy/src/daisy_core.h **** #include <stdlib.h>
   6:../../libs/libDaisy/src/daisy_core.h **** 
   7:../../libs/libDaisy/src/daisy_core.h **** #if defined(_MSC_VER)
   8:../../libs/libDaisy/src/daisy_core.h **** #define FORCE_INLINE __forceinline /**< & */
   9:../../libs/libDaisy/src/daisy_core.h **** #elif defined(__clang__)
  10:../../libs/libDaisy/src/daisy_core.h **** #define FORCE_INLINE inline __attribute__((always_inline)) /**< & */
  11:../../libs/libDaisy/src/daisy_core.h **** #pragma clang diagnostic ignored "-Wduplicate-decl-specifier"
  12:../../libs/libDaisy/src/daisy_core.h **** #elif defined(__GNUC__)
  13:../../libs/libDaisy/src/daisy_core.h **** #define FORCE_INLINE inline __attribute__((always_inline)) /**< & */
  14:../../libs/libDaisy/src/daisy_core.h **** #else
  15:../../libs/libDaisy/src/daisy_core.h **** #error unknown compiler
  16:../../libs/libDaisy/src/daisy_core.h **** #endif
  17:../../libs/libDaisy/src/daisy_core.h **** 
  18:../../libs/libDaisy/src/daisy_core.h **** /** @addtogroup utility
  19:../../libs/libDaisy/src/daisy_core.h ****     @{
  20:../../libs/libDaisy/src/daisy_core.h **** */
  21:../../libs/libDaisy/src/daisy_core.h **** 
  22:../../libs/libDaisy/src/daisy_core.h **** /** Macro for area of memory that is configured as cacheless
  23:../../libs/libDaisy/src/daisy_core.h **** This should be used primarily for DMA buffers, and the like.
  24:../../libs/libDaisy/src/daisy_core.h **** */
  25:../../libs/libDaisy/src/daisy_core.h **** #define DMA_BUFFER_MEM_SECTION __attribute__((section(".sram1_bss")))
  26:../../libs/libDaisy/src/daisy_core.h **** /** 
  27:../../libs/libDaisy/src/daisy_core.h **** THE DTCM RAM section is also non-cached. However, is not suitable 
  28:../../libs/libDaisy/src/daisy_core.h **** for DMA transfers. Performance is on par with internal SRAM w/ 
ARM GAS  C:\Users\skipi\AppData\Local\Temp\cceg9rRe.s 			page 43


  29:../../libs/libDaisy/src/daisy_core.h **** cache enabled.
  30:../../libs/libDaisy/src/daisy_core.h **** */
  31:../../libs/libDaisy/src/daisy_core.h **** #define DTCM_MEM_SECTION __attribute__((section(".dtcmram_bss")))
  32:../../libs/libDaisy/src/daisy_core.h **** 
  33:../../libs/libDaisy/src/daisy_core.h **** #define FBIPMAX 0.999985f             /**< close to 1.0f-LSB at 16 bit */
  34:../../libs/libDaisy/src/daisy_core.h **** #define FBIPMIN (-FBIPMAX)            /**< - (1 - LSB) */
  35:../../libs/libDaisy/src/daisy_core.h **** #define U82F_SCALE 0.0078740f         /**< 1 / 127 */
  36:../../libs/libDaisy/src/daisy_core.h **** #define F2U8_SCALE 127.0f             /**< 128 - 1 */
  37:../../libs/libDaisy/src/daisy_core.h **** #define S82F_SCALE 0.0078125f         /**< 1 / (2**7) */
  38:../../libs/libDaisy/src/daisy_core.h **** #define F2S8_SCALE 127.0f             /**< (2 ** 7) - 1 */
  39:../../libs/libDaisy/src/daisy_core.h **** #define S162F_SCALE 3.0517578125e-05f /**< 1 / (2** 15) */
  40:../../libs/libDaisy/src/daisy_core.h **** #define F2S16_SCALE 32767.0f          /**< (2 ** 15) - 1 */
  41:../../libs/libDaisy/src/daisy_core.h **** #define F2S24_SCALE 8388608.0f        /**< 2 ** 23 */
  42:../../libs/libDaisy/src/daisy_core.h **** #define S242F_SCALE 1.192092896e-07f  /**< 1 / (2 ** 23) */
  43:../../libs/libDaisy/src/daisy_core.h **** #define S24SIGN 0x800000              /**< 2 ** 23 */
  44:../../libs/libDaisy/src/daisy_core.h **** #define S322F_SCALE 4.6566129e-10f    /**< 1 / (2** 31) */
  45:../../libs/libDaisy/src/daisy_core.h **** #define F2S32_SCALE 2147483647.f      /**< (2 ** 31) - 1 */
  46:../../libs/libDaisy/src/daisy_core.h **** 
  47:../../libs/libDaisy/src/daisy_core.h **** 
  48:../../libs/libDaisy/src/daisy_core.h **** /** shorthand macro for simplifying the reading of the left 
  49:../../libs/libDaisy/src/daisy_core.h ****  *  channel of a non-interleaved output buffer named out */
  50:../../libs/libDaisy/src/daisy_core.h **** #define OUT_L out[0]
  51:../../libs/libDaisy/src/daisy_core.h **** 
  52:../../libs/libDaisy/src/daisy_core.h **** /** shorthand macro for simplifying the reading of the right 
  53:../../libs/libDaisy/src/daisy_core.h ****  *  channel of a non-interleaved output buffer named out */
  54:../../libs/libDaisy/src/daisy_core.h **** #define OUT_R out[1]
  55:../../libs/libDaisy/src/daisy_core.h **** 
  56:../../libs/libDaisy/src/daisy_core.h **** /** shorthand macro for simplifying the reading of the left 
  57:../../libs/libDaisy/src/daisy_core.h ****  *  channel of a non-interleaved input buffer named in */
  58:../../libs/libDaisy/src/daisy_core.h **** #define IN_L in[0]
  59:../../libs/libDaisy/src/daisy_core.h **** 
  60:../../libs/libDaisy/src/daisy_core.h **** /** shorthand macro for simplifying the reading of the right 
  61:../../libs/libDaisy/src/daisy_core.h ****  *  channel of a non-interleaved input buffer named in */
  62:../../libs/libDaisy/src/daisy_core.h **** #define IN_R in[1]
  63:../../libs/libDaisy/src/daisy_core.h **** 
  64:../../libs/libDaisy/src/daisy_core.h **** /** 
  65:../../libs/libDaisy/src/daisy_core.h ****     Computes cube.
  66:../../libs/libDaisy/src/daisy_core.h ****     \param x Number to be cubed
  67:../../libs/libDaisy/src/daisy_core.h ****     \return x ^ 3
  68:../../libs/libDaisy/src/daisy_core.h **** */
  69:../../libs/libDaisy/src/daisy_core.h **** FORCE_INLINE float cube(float x)
  70:../../libs/libDaisy/src/daisy_core.h **** {
  71:../../libs/libDaisy/src/daisy_core.h ****     return (x * x) * x;
  72:../../libs/libDaisy/src/daisy_core.h **** }
  73:../../libs/libDaisy/src/daisy_core.h **** 
  74:../../libs/libDaisy/src/daisy_core.h **** /** 
  75:../../libs/libDaisy/src/daisy_core.h ****     Converts unsigned 8-bit to float
  76:../../libs/libDaisy/src/daisy_core.h ****     \param x Number to be scaled.
  77:../../libs/libDaisy/src/daisy_core.h ****     \return Scaled number.
  78:../../libs/libDaisy/src/daisy_core.h **** */
  79:../../libs/libDaisy/src/daisy_core.h **** FORCE_INLINE float u82f(uint8_t x)
  80:../../libs/libDaisy/src/daisy_core.h **** {
  81:../../libs/libDaisy/src/daisy_core.h ****     return ((float)x - 127.f) * U82F_SCALE;
  82:../../libs/libDaisy/src/daisy_core.h **** }
  83:../../libs/libDaisy/src/daisy_core.h **** 
  84:../../libs/libDaisy/src/daisy_core.h **** /**
  85:../../libs/libDaisy/src/daisy_core.h ****     Converts float to unsigned 8-bit
ARM GAS  C:\Users\skipi\AppData\Local\Temp\cceg9rRe.s 			page 44


  86:../../libs/libDaisy/src/daisy_core.h **** */
  87:../../libs/libDaisy/src/daisy_core.h **** FORCE_INLINE uint8_t f2u8(float x)
  88:../../libs/libDaisy/src/daisy_core.h **** {
  89:../../libs/libDaisy/src/daisy_core.h ****     x = x <= FBIPMIN ? FBIPMIN : x;
  90:../../libs/libDaisy/src/daisy_core.h ****     x = x >= FBIPMAX ? FBIPMAX : x;
  91:../../libs/libDaisy/src/daisy_core.h ****     return (uint8_t)((x * F2U8_SCALE) + F2U8_SCALE);
  92:../../libs/libDaisy/src/daisy_core.h **** }
  93:../../libs/libDaisy/src/daisy_core.h **** 
  94:../../libs/libDaisy/src/daisy_core.h **** 
  95:../../libs/libDaisy/src/daisy_core.h **** /** 
  96:../../libs/libDaisy/src/daisy_core.h ****     Converts Signed 8-bit to float
  97:../../libs/libDaisy/src/daisy_core.h ****     \param x Number to be scaled.
  98:../../libs/libDaisy/src/daisy_core.h ****     \return Scaled number.
  99:../../libs/libDaisy/src/daisy_core.h **** */
 100:../../libs/libDaisy/src/daisy_core.h **** FORCE_INLINE float s82f(int8_t x)
 101:../../libs/libDaisy/src/daisy_core.h **** {
 102:../../libs/libDaisy/src/daisy_core.h ****     return (float)x * S82F_SCALE;
 103:../../libs/libDaisy/src/daisy_core.h **** }
 104:../../libs/libDaisy/src/daisy_core.h **** 
 105:../../libs/libDaisy/src/daisy_core.h **** /**
 106:../../libs/libDaisy/src/daisy_core.h ****     Converts float to Signed 8-bit
 107:../../libs/libDaisy/src/daisy_core.h **** */
 108:../../libs/libDaisy/src/daisy_core.h **** FORCE_INLINE int8_t f2s8(float x)
 109:../../libs/libDaisy/src/daisy_core.h **** {
 110:../../libs/libDaisy/src/daisy_core.h ****     x = x <= FBIPMIN ? FBIPMIN : x;
 111:../../libs/libDaisy/src/daisy_core.h ****     x = x >= FBIPMAX ? FBIPMAX : x;
 112:../../libs/libDaisy/src/daisy_core.h ****     return (int32_t)(x * F2S8_SCALE);
 113:../../libs/libDaisy/src/daisy_core.h **** }
 114:../../libs/libDaisy/src/daisy_core.h **** 
 115:../../libs/libDaisy/src/daisy_core.h **** /** 
 116:../../libs/libDaisy/src/daisy_core.h ****     Converts Signed 16-bit to float
 117:../../libs/libDaisy/src/daisy_core.h ****     \param x Number to be scaled.
 118:../../libs/libDaisy/src/daisy_core.h ****     \return Scaled number.
 119:../../libs/libDaisy/src/daisy_core.h **** */
 120:../../libs/libDaisy/src/daisy_core.h **** FORCE_INLINE float s162f(int16_t x)
 121:../../libs/libDaisy/src/daisy_core.h **** {
 122:../../libs/libDaisy/src/daisy_core.h ****     return (float)x * S162F_SCALE;
 123:../../libs/libDaisy/src/daisy_core.h **** }
 124:../../libs/libDaisy/src/daisy_core.h **** 
 125:../../libs/libDaisy/src/daisy_core.h **** /**
 126:../../libs/libDaisy/src/daisy_core.h ****     Converts float to Signed 16-bit
 127:../../libs/libDaisy/src/daisy_core.h **** */
 128:../../libs/libDaisy/src/daisy_core.h **** FORCE_INLINE int16_t f2s16(float x)
 129:../../libs/libDaisy/src/daisy_core.h **** {
 130:../../libs/libDaisy/src/daisy_core.h ****     x = x <= FBIPMIN ? FBIPMIN : x;
 131:../../libs/libDaisy/src/daisy_core.h ****     x = x >= FBIPMAX ? FBIPMAX : x;
 132:../../libs/libDaisy/src/daisy_core.h ****     return (int32_t)(x * F2S16_SCALE);
 133:../../libs/libDaisy/src/daisy_core.h **** }
 134:../../libs/libDaisy/src/daisy_core.h **** 
 135:../../libs/libDaisy/src/daisy_core.h **** /**
 136:../../libs/libDaisy/src/daisy_core.h ****     Converts Signed 24-bit to float
 137:../../libs/libDaisy/src/daisy_core.h ****  */
 138:../../libs/libDaisy/src/daisy_core.h **** FORCE_INLINE float s242f(int32_t x)
 139:../../libs/libDaisy/src/daisy_core.h **** {
 140:../../libs/libDaisy/src/daisy_core.h ****     x = (x ^ S24SIGN) - S24SIGN; //sign extend aka ((x<<8)>>8)
 141:../../libs/libDaisy/src/daisy_core.h ****     return (float)x * S242F_SCALE;
 142:../../libs/libDaisy/src/daisy_core.h **** }
ARM GAS  C:\Users\skipi\AppData\Local\Temp\cceg9rRe.s 			page 45


 143:../../libs/libDaisy/src/daisy_core.h **** /**
 144:../../libs/libDaisy/src/daisy_core.h ****     Converts float to Signed 24-bit
 145:../../libs/libDaisy/src/daisy_core.h ****  */
 146:../../libs/libDaisy/src/daisy_core.h **** FORCE_INLINE int32_t f2s24(float x)
 147:../../libs/libDaisy/src/daisy_core.h **** {
 148:../../libs/libDaisy/src/daisy_core.h ****     x = x <= FBIPMIN ? FBIPMIN : x;
 149:../../libs/libDaisy/src/daisy_core.h ****     x = x >= FBIPMAX ? FBIPMAX : x;
 150:../../libs/libDaisy/src/daisy_core.h ****     return (int32_t)(x * F2S24_SCALE);
 151:../../libs/libDaisy/src/daisy_core.h **** }
 152:../../libs/libDaisy/src/daisy_core.h **** 
 153:../../libs/libDaisy/src/daisy_core.h **** /**
 154:../../libs/libDaisy/src/daisy_core.h ****     Converts Signed 32-bit to float
 155:../../libs/libDaisy/src/daisy_core.h ****  */
 156:../../libs/libDaisy/src/daisy_core.h **** FORCE_INLINE float s322f(int32_t x)
 157:../../libs/libDaisy/src/daisy_core.h **** {
 158:../../libs/libDaisy/src/daisy_core.h ****     return (float)x * S322F_SCALE;
 159:../../libs/libDaisy/src/daisy_core.h **** }
 160:../../libs/libDaisy/src/daisy_core.h **** /**
 161:../../libs/libDaisy/src/daisy_core.h ****     Converts float to Signed 24-bit
 162:../../libs/libDaisy/src/daisy_core.h ****  */
 163:../../libs/libDaisy/src/daisy_core.h **** FORCE_INLINE int32_t f2s32(float x)
 164:../../libs/libDaisy/src/daisy_core.h **** {
 165:../../libs/libDaisy/src/daisy_core.h ****     x = x <= FBIPMIN ? FBIPMIN : x;
 166:../../libs/libDaisy/src/daisy_core.h ****     x = x >= FBIPMAX ? FBIPMAX : x;
 167:../../libs/libDaisy/src/daisy_core.h ****     return (int32_t)(x * F2S32_SCALE);
 168:../../libs/libDaisy/src/daisy_core.h **** }
 169:../../libs/libDaisy/src/daisy_core.h **** 
 170:../../libs/libDaisy/src/daisy_core.h **** #ifdef __cplusplus
 171:../../libs/libDaisy/src/daisy_core.h **** 
 172:../../libs/libDaisy/src/daisy_core.h **** namespace daisy
 173:../../libs/libDaisy/src/daisy_core.h **** {
 174:../../libs/libDaisy/src/daisy_core.h **** /** @brief GPIO Port names */
 175:../../libs/libDaisy/src/daisy_core.h **** enum GPIOPort
 176:../../libs/libDaisy/src/daisy_core.h **** {
 177:../../libs/libDaisy/src/daisy_core.h ****     PORTA, /**< Port A */
 178:../../libs/libDaisy/src/daisy_core.h ****     PORTB, /**< Port B */
 179:../../libs/libDaisy/src/daisy_core.h ****     PORTC, /**< Port C */
 180:../../libs/libDaisy/src/daisy_core.h ****     PORTD, /**< Port D */
 181:../../libs/libDaisy/src/daisy_core.h ****     PORTE, /**< Port E */
 182:../../libs/libDaisy/src/daisy_core.h ****     PORTF, /**< Port F */
 183:../../libs/libDaisy/src/daisy_core.h ****     PORTG, /**< Port G */
 184:../../libs/libDaisy/src/daisy_core.h ****     PORTH, /**< Port H */
 185:../../libs/libDaisy/src/daisy_core.h ****     PORTI, /**< Port I */
 186:../../libs/libDaisy/src/daisy_core.h ****     PORTJ, /**< Port J */
 187:../../libs/libDaisy/src/daisy_core.h ****     PORTK, /**< Port K */
 188:../../libs/libDaisy/src/daisy_core.h ****     PORTX, /**< Used as a dummy port to signal an invalid pin. */
 189:../../libs/libDaisy/src/daisy_core.h **** };
 190:../../libs/libDaisy/src/daisy_core.h **** 
 191:../../libs/libDaisy/src/daisy_core.h **** /** @brief representation of hardware port/pin combination */
 192:../../libs/libDaisy/src/daisy_core.h **** struct Pin
 193:../../libs/libDaisy/src/daisy_core.h **** {
 194:../../libs/libDaisy/src/daisy_core.h ****     GPIOPort port;
 195:../../libs/libDaisy/src/daisy_core.h ****     uint8_t  pin;
 196:../../libs/libDaisy/src/daisy_core.h **** 
 197:../../libs/libDaisy/src/daisy_core.h ****     /** @brief Constructor creates a valid pin. 
 198:../../libs/libDaisy/src/daisy_core.h ****      *  @param pt GPIOPort between PA, and PK corresponding to STM32 Port.
 199:../../libs/libDaisy/src/daisy_core.h ****      *  @param pn pin number in range of 0-15
ARM GAS  C:\Users\skipi\AppData\Local\Temp\cceg9rRe.s 			page 46


 200:../../libs/libDaisy/src/daisy_core.h ****     */
 201:../../libs/libDaisy/src/daisy_core.h ****     constexpr Pin(const GPIOPort pt, const uint8_t pn) : port(pt), pin(pn) {}
 202:../../libs/libDaisy/src/daisy_core.h **** 
 203:../../libs/libDaisy/src/daisy_core.h ****     /** @brief Basic Constructor creates an invalid Pin object */
 204:../../libs/libDaisy/src/daisy_core.h ****     constexpr Pin() : port(PORTX), pin(255) {}
 1060              		.loc 12 204 15 view .LVU254
 1061              		.loc 12 204 15 is_stmt 0 view .LVU255
 1062              	.LBE713:
 1063              	.LBB714:
 1064              	.LBI714:
 1065              		.loc 12 204 15 is_stmt 1 view .LVU256
 1066              		.loc 12 204 15 is_stmt 0 view .LVU257
 1067              	.LBE714:
 1068              	.LBE712:
 1069              	.LBE716:
 1070              	.LBE718:
  52:../../libs/libDaisy/src/dev/mpr121.h ****         i2c_conf.periph = config.periph;
 1071              		.loc 9 52 9 is_stmt 1 view .LVU258
  53:../../libs/libDaisy/src/dev/mpr121.h ****         i2c_conf.speed  = config.speed;
 1072              		.loc 9 53 9 view .LVU259
  54:../../libs/libDaisy/src/dev/mpr121.h **** 
 1073              		.loc 9 54 9 view .LVU260
  56:../../libs/libDaisy/src/dev/mpr121.h ****         i2c_conf.pin_config.sda = config.sda;
 1074              		.loc 9 56 9 view .LVU261
  57:../../libs/libDaisy/src/dev/mpr121.h **** 
 1075              		.loc 9 57 9 view .LVU262
  59:../../libs/libDaisy/src/dev/mpr121.h ****     }
 1076              		.loc 9 59 9 view .LVU263
  59:../../libs/libDaisy/src/dev/mpr121.h ****     }
 1077              		.loc 9 59 50 is_stmt 0 view .LVU264
 1078 014c 04F11800 		add	r0, r4, #24
 1079              	.LVL57:
  59:../../libs/libDaisy/src/dev/mpr121.h ****     }
 1080              		.loc 9 59 50 view .LVU265
 1081 0150 FFF7FEFF 		bl	_ZN5daisy9I2CHandle4InitERKNS0_6ConfigE
 1082              	.LVL58:
  59:../../libs/libDaisy/src/dev/mpr121.h ****     }
 1083              		.loc 9 59 50 view .LVU266
 1084              	.LBE720:
 1085              	.LBE721:
 1086              	.LBB722:
 1087              	.LBI722:
 1088              		.loc 9 343 10 is_stmt 1 view .LVU267
 1089              	.LBB723:
 1090              		.loc 9 343 55 is_stmt 0 view .LVU268
 1091 0154 94F83030 		ldrb	r3, [r4, #48]	@ zero_extendqisi2
 1092              	.LBE723:
 1093              	.LBE722:
 128:../../libs/libDaisy/src/dev/mpr121.h ****         System::Delay(1);
 1094              		.loc 9 128 22 view .LVU269
 1095 0158 8021     		movs	r1, #128
 1096 015a 6322     		movs	r2, #99
 1097              	.LBB726:
 1098              	.LBB724:
 1099              		.loc 9 343 55 view .LVU270
 1100 015c 0028     		cmp	r0, #0
 1101 015e 18BF     		it	ne
ARM GAS  C:\Users\skipi\AppData\Local\Temp\cceg9rRe.s 			page 47


 1102 0160 43F00103 		orrne	r3, r3, #1
 1103              	.LBE724:
 1104              	.LBE726:
 128:../../libs/libDaisy/src/dev/mpr121.h ****         System::Delay(1);
 1105              		.loc 9 128 22 view .LVU271
 1106 0164 2046     		mov	r0, r4
 1107              	.LVL59:
 1108              	.LBB727:
 1109              	.LBB725:
 1110              		.loc 9 343 55 view .LVU272
 1111 0166 84F83030 		strb	r3, [r4, #48]
 1112              	.LVL60:
 1113              		.loc 9 343 55 view .LVU273
 1114              	.LBE725:
 1115              	.LBE727:
 128:../../libs/libDaisy/src/dev/mpr121.h ****         System::Delay(1);
 1116              		.loc 9 128 22 view .LVU274
 1117 016a FFF7FEFF 		bl	_ZN5daisy6Mpr121INS_18Mpr121I2CTransportEE13WriteRegisterEhh
 1118              	.LVL61:
 129:../../libs/libDaisy/src/dev/mpr121.h **** 
 1119              		.loc 9 129 22 view .LVU275
 1120 016e 4046     		mov	r0, r8
 1121 0170 FFF7FEFF 		bl	_ZN5daisy6System5DelayEm
 1122              	.LVL62:
 131:../../libs/libDaisy/src/dev/mpr121.h **** 
 1123              		.loc 9 131 22 view .LVU276
 1124 0174 0022     		movs	r2, #0
 1125 0176 5E21     		movs	r1, #94
 1126 0178 2046     		mov	r0, r4
 1127 017a FFF7FEFF 		bl	_ZN5daisy6Mpr121INS_18Mpr121I2CTransportEE13WriteRegisterEhh
 1128              	.LVL63:
 139:../../libs/libDaisy/src/dev/mpr121.h ****         WriteRegister(MPR121_MHDR, 0x01);
 1129              		.loc 9 139 22 view .LVU277
 1130 017e 94F814B0 		ldrb	fp, [r4, #20]	@ zero_extendqisi2
 1131 0182 94F815A0 		ldrb	r10, [r4, #21]	@ zero_extendqisi2
 1132              	.LVL64:
 1133              	.LBB728:
 1134              	.LBI728:
 183:../../libs/libDaisy/src/dev/mpr121.h ****     {
 1135              		.loc 9 183 10 is_stmt 1 view .LVU278
 1136              	.LBB729:
 186:../../libs/libDaisy/src/dev/mpr121.h ****         {
 1137              		.loc 9 186 30 view .LVU279
 1138              	.L26:
 1139              	.LBB730:
 1140              	.LBI730:
 257:../../libs/libDaisy/src/dev/mpr121.h ****     {
 1141              		.loc 9 257 10 view .LVU280
 1142              	.LBB731:
 1143              	.LBB732:
 1144              	.LBB733:
  66:../../libs/libDaisy/src/dev/mpr121.h ****     }
 1145              		.loc 9 66 40 is_stmt 0 view .LVU281
 1146 0186 0A26     		movs	r6, #10
 1147              	.LBE733:
 1148              	.LBE732:
 264:../../libs/libDaisy/src/dev/mpr121.h **** 
ARM GAS  C:\Users\skipi\AppData\Local\Temp\cceg9rRe.s 			page 48


 1149              		.loc 9 264 17 view .LVU282
 1150 0188 4FF00009 		mov	r9, #0
 1151 018c 4FF05E08 		mov	r8, #94
 1152              	.LBB736:
 1153              	.LBB734:
  66:../../libs/libDaisy/src/dev/mpr121.h ****     }
 1154              		.loc 9 66 40 view .LVU283
 1155 0190 0123     		movs	r3, #1
 1156 0192 0BAA     		add	r2, sp, #44
 1157 0194 0096     		str	r6, [sp]
 1158 0196 7548     		ldr	r0, .L51+40
 1159 0198 94F82C10 		ldrb	r1, [r4, #44]	@ zero_extendqisi2
 1160              	.LBE734:
 1161              	.LBE736:
 264:../../libs/libDaisy/src/dev/mpr121.h **** 
 1162              		.loc 9 264 17 view .LVU284
 1163 019c 8DF82D90 		strb	r9, [sp, #45]
 1164 01a0 8DF82C80 		strb	r8, [sp, #44]
 1165              	.LVL65:
 1166              	.LBB737:
 1167              	.LBI732:
  63:../../libs/libDaisy/src/dev/mpr121.h ****     {
 1168              		.loc 9 63 10 is_stmt 1 view .LVU285
 1169              	.LBB735:
  65:../../libs/libDaisy/src/dev/mpr121.h ****                != i2c_.TransmitBlocking(config_.dev_addr, data, size, 10);
 1170              		.loc 9 65 9 view .LVU286
  66:../../libs/libDaisy/src/dev/mpr121.h ****     }
 1171              		.loc 9 66 40 is_stmt 0 view .LVU287
 1172 01a4 FFF7FEFF 		bl	_ZN5daisy9I2CHandle16TransmitBlockingEtPhtm
 1173              	.LVL66:
  66:../../libs/libDaisy/src/dev/mpr121.h ****     }
 1174              		.loc 9 66 40 view .LVU288
 1175              	.LBE735:
 1176              	.LBE737:
 1177              	.LBB738:
 1178              	.LBI738:
 1179              		.loc 9 343 10 is_stmt 1 view .LVU289
 1180              	.LBB739:
 1181              		.loc 9 343 55 is_stmt 0 view .LVU290
 1182 01a8 94F83020 		ldrb	r2, [r4, #48]	@ zero_extendqisi2
 1183              	.LBE739:
 1184              	.LBE738:
 1185              	.LBB742:
 1186              	.LBB743:
  73:../../libs/libDaisy/src/dev/mpr121.h ****     }
 1187              		.loc 9 73 39 view .LVU291
 1188 01ac 0123     		movs	r3, #1
 1189 01ae 0096     		str	r6, [sp]
 1190              	.LBE743:
 1191              	.LBE742:
 1192              	.LBB746:
 1193              	.LBB740:
 1194              		.loc 9 343 55 view .LVU292
 1195 01b0 4845     		cmp	r0, r9
 1196 01b2 18BF     		it	ne
 1197 01b4 42F00102 		orrne	r2, r2, #1
 1198              	.LBE740:
ARM GAS  C:\Users\skipi\AppData\Local\Temp\cceg9rRe.s 			page 49


 1199              	.LBE746:
 1200              	.LBB747:
 1201              	.LBB744:
  73:../../libs/libDaisy/src/dev/mpr121.h ****     }
 1202              		.loc 9 73 39 view .LVU293
 1203 01b8 94F82C10 		ldrb	r1, [r4, #44]	@ zero_extendqisi2
 1204 01bc 6B48     		ldr	r0, .L51+40
 1205              	.LVL67:
  73:../../libs/libDaisy/src/dev/mpr121.h ****     }
 1206              		.loc 9 73 39 view .LVU294
 1207              	.LBE744:
 1208              	.LBE747:
 1209              	.LBB748:
 1210              	.LBB741:
 1211              		.loc 9 343 55 view .LVU295
 1212 01be 84F83020 		strb	r2, [r4, #48]
 1213              	.LVL68:
 1214              		.loc 9 343 55 view .LVU296
 1215              	.LBE741:
 1216              	.LBE748:
 1217              	.LBB749:
 1218              	.LBI742:
  70:../../libs/libDaisy/src/dev/mpr121.h ****     {
 1219              		.loc 9 70 10 is_stmt 1 view .LVU297
 1220              	.LBB745:
  72:../../libs/libDaisy/src/dev/mpr121.h ****                != i2c_.ReceiveBlocking(config_.dev_addr, data, size, 10);
 1221              		.loc 9 72 9 view .LVU298
  73:../../libs/libDaisy/src/dev/mpr121.h ****     }
 1222              		.loc 9 73 39 is_stmt 0 view .LVU299
 1223 01c2 06AA     		add	r2, sp, #24
 1224 01c4 FFF7FEFF 		bl	_ZN5daisy9I2CHandle15ReceiveBlockingEtPhtm
 1225              	.LVL69:
  73:../../libs/libDaisy/src/dev/mpr121.h ****     }
 1226              		.loc 9 73 39 view .LVU300
 1227              	.LBE745:
 1228              	.LBE749:
 1229              	.LBB750:
 1230              	.LBI750:
 1231              		.loc 9 343 10 is_stmt 1 view .LVU301
 1232              	.LBB751:
 1233              		.loc 9 343 55 is_stmt 0 view .LVU302
 1234 01c8 94F83020 		ldrb	r2, [r4, #48]	@ zero_extendqisi2
 1235              	.LBE751:
 1236              	.LBE750:
 1237              	.LBB754:
 1238              	.LBB755:
  66:../../libs/libDaisy/src/dev/mpr121.h ****     }
 1239              		.loc 9 66 40 view .LVU303
 1240 01cc 0223     		movs	r3, #2
 1241 01ce 0096     		str	r6, [sp]
 1242              	.LBE755:
 1243              	.LBE754:
 1244              	.LBB758:
 1245              	.LBB752:
 1246              		.loc 9 343 55 view .LVU304
 1247 01d0 4845     		cmp	r0, r9
 1248 01d2 18BF     		it	ne
ARM GAS  C:\Users\skipi\AppData\Local\Temp\cceg9rRe.s 			page 50


 1249 01d4 42F00102 		orrne	r2, r2, #1
 1250              	.LBE752:
 1251              	.LBE758:
 1252              	.LBB759:
 1253              	.LBB756:
  66:../../libs/libDaisy/src/dev/mpr121.h ****     }
 1254              		.loc 9 66 40 view .LVU305
 1255 01d8 94F82C10 		ldrb	r1, [r4, #44]	@ zero_extendqisi2
 1256 01dc 6348     		ldr	r0, .L51+40
 1257              	.LVL70:
  66:../../libs/libDaisy/src/dev/mpr121.h ****     }
 1258              		.loc 9 66 40 view .LVU306
 1259              	.LBE756:
 1260              	.LBE759:
 1261              	.LBB760:
 1262              	.LBB753:
 1263              		.loc 9 343 55 view .LVU307
 1264 01de 84F83020 		strb	r2, [r4, #48]
 1265              	.LVL71:
 1266              		.loc 9 343 55 view .LVU308
 1267              	.LBE753:
 1268              	.LBE760:
 1269              	.LBB761:
 1270              	.LBI754:
  63:../../libs/libDaisy/src/dev/mpr121.h ****     {
 1271              		.loc 9 63 10 is_stmt 1 view .LVU309
 1272              	.LBB757:
  65:../../libs/libDaisy/src/dev/mpr121.h ****                != i2c_.TransmitBlocking(config_.dev_addr, data, size, 10);
 1273              		.loc 9 65 9 view .LVU310
  66:../../libs/libDaisy/src/dev/mpr121.h ****     }
 1274              		.loc 9 66 40 is_stmt 0 view .LVU311
 1275 01e2 0BAA     		add	r2, sp, #44
 1276              	.LVL72:
  66:../../libs/libDaisy/src/dev/mpr121.h ****     }
 1277              		.loc 9 66 40 view .LVU312
 1278 01e4 FFF7FEFF 		bl	_ZN5daisy9I2CHandle16TransmitBlockingEtPhtm
 1279              	.LVL73:
  66:../../libs/libDaisy/src/dev/mpr121.h ****     }
 1280              		.loc 9 66 40 view .LVU313
 1281              	.LBE757:
 1282              	.LBE761:
 1283              	.LBB762:
 1284              	.LBI762:
 1285              		.loc 9 343 10 is_stmt 1 view .LVU314
 1286              	.LBB763:
 1287              		.loc 9 343 55 is_stmt 0 view .LVU315
 1288 01e8 94F83020 		ldrb	r2, [r4, #48]	@ zero_extendqisi2
 1289              	.LBE763:
 1290              	.LBE762:
 1291              	.LBB766:
 1292              	.LBB767:
  66:../../libs/libDaisy/src/dev/mpr121.h ****     }
 1293              		.loc 9 66 40 view .LVU316
 1294 01ec 0223     		movs	r3, #2
 1295 01ee 0096     		str	r6, [sp]
 1296              	.LBE767:
 1297              	.LBE766:
ARM GAS  C:\Users\skipi\AppData\Local\Temp\cceg9rRe.s 			page 51


 1298              	.LBB771:
 1299              	.LBB764:
 1300              		.loc 9 343 55 view .LVU317
 1301 01f0 4845     		cmp	r0, r9
 1302 01f2 18BF     		it	ne
 1303 01f4 42F00102 		orrne	r2, r2, #1
 1304              	.LBE764:
 1305              	.LBE771:
 1306              	.LBB772:
 1307              	.LBB768:
  66:../../libs/libDaisy/src/dev/mpr121.h ****     }
 1308              		.loc 9 66 40 view .LVU318
 1309 01f8 94F82C10 		ldrb	r1, [r4, #44]	@ zero_extendqisi2
 1310 01fc 5B48     		ldr	r0, .L51+40
 1311              	.LVL74:
  66:../../libs/libDaisy/src/dev/mpr121.h ****     }
 1312              		.loc 9 66 40 view .LVU319
 1313              	.LBE768:
 1314              	.LBE772:
 1315              	.LBB773:
 1316              	.LBB765:
 1317              		.loc 9 343 55 view .LVU320
 1318 01fe 84F83020 		strb	r2, [r4, #48]
 1319              	.LVL75:
 1320              		.loc 9 343 55 view .LVU321
 1321              	.LBE765:
 1322              	.LBE773:
 1323              	.LBB774:
 1324              	.LBI766:
  63:../../libs/libDaisy/src/dev/mpr121.h ****     {
 1325              		.loc 9 63 10 is_stmt 1 view .LVU322
 1326              	.LBB769:
  65:../../libs/libDaisy/src/dev/mpr121.h ****                != i2c_.TransmitBlocking(config_.dev_addr, data, size, 10);
 1327              		.loc 9 65 9 view .LVU323
  66:../../libs/libDaisy/src/dev/mpr121.h ****     }
 1328              		.loc 9 66 40 is_stmt 0 view .LVU324
 1329 0202 0BAA     		add	r2, sp, #44
 1330              	.LVL76:
  66:../../libs/libDaisy/src/dev/mpr121.h ****     }
 1331              		.loc 9 66 40 view .LVU325
 1332              	.LBE769:
 1333              	.LBE774:
 281:../../libs/libDaisy/src/dev/mpr121.h ****         buff[1] = value;
 1334              		.loc 9 281 17 view .LVU326
 1335 0204 8DF82C70 		strb	r7, [sp, #44]
 282:../../libs/libDaisy/src/dev/mpr121.h ****         SetTransportErr(transport_.Write(buff, 2));
 1336              		.loc 9 282 17 view .LVU327
 1337 0208 8DF82DB0 		strb	fp, [sp, #45]
 1338              	.LBB775:
 1339              	.LBB770:
  66:../../libs/libDaisy/src/dev/mpr121.h ****     }
 1340              		.loc 9 66 40 view .LVU328
 1341 020c FFF7FEFF 		bl	_ZN5daisy9I2CHandle16TransmitBlockingEtPhtm
 1342              	.LVL77:
  66:../../libs/libDaisy/src/dev/mpr121.h ****     }
 1343              		.loc 9 66 40 view .LVU329
 1344              	.LBE770:
ARM GAS  C:\Users\skipi\AppData\Local\Temp\cceg9rRe.s 			page 52


 1345              	.LBE775:
 1346              	.LBB776:
 1347              	.LBI776:
 1348              		.loc 9 343 10 is_stmt 1 view .LVU330
 1349              	.LBB777:
 1350              		.loc 9 343 55 is_stmt 0 view .LVU331
 1351 0210 94F83030 		ldrb	r3, [r4, #48]	@ zero_extendqisi2
 1352              	.LBE777:
 1353              	.LBE776:
 289:../../libs/libDaisy/src/dev/mpr121.h ****             SetTransportErr(transport_.Write(buff, 2));
 1354              		.loc 9 289 21 view .LVU332
 1355 0214 9DF81820 		ldrb	r2, [sp, #24]	@ zero_extendqisi2
 1356              	.LBB780:
 1357              	.LBB778:
 1358              		.loc 9 343 55 view .LVU333
 1359 0218 4845     		cmp	r0, r9
 1360 021a 18BF     		it	ne
 1361 021c 43F00103 		orrne	r3, r3, #1
 1362              	.LBE778:
 1363              	.LBE780:
 1364              	.LBB781:
 1365              	.LBB782:
  66:../../libs/libDaisy/src/dev/mpr121.h ****     }
 1366              		.loc 9 66 40 view .LVU334
 1367 0220 0096     		str	r6, [sp]
 1368              	.LBE782:
 1369              	.LBE781:
 289:../../libs/libDaisy/src/dev/mpr121.h ****             SetTransportErr(transport_.Write(buff, 2));
 1370              		.loc 9 289 21 view .LVU335
 1371 0222 8DF82D20 		strb	r2, [sp, #45]
 1372              	.LBB786:
 1373              	.LBB783:
  66:../../libs/libDaisy/src/dev/mpr121.h ****     }
 1374              		.loc 9 66 40 view .LVU336
 1375 0226 0BAA     		add	r2, sp, #44
 1376 0228 94F82C10 		ldrb	r1, [r4, #44]	@ zero_extendqisi2
 1377              	.LBE783:
 1378              	.LBE786:
 1379              	.LBB787:
 1380              	.LBB779:
 1381              		.loc 9 343 55 view .LVU337
 1382 022c 84F83030 		strb	r3, [r4, #48]
 1383              	.LVL78:
 1384              		.loc 9 343 55 view .LVU338
 1385              	.LBE779:
 1386              	.LBE787:
 1387              	.LBB788:
 1388              	.LBI781:
  63:../../libs/libDaisy/src/dev/mpr121.h ****     {
 1389              		.loc 9 63 10 is_stmt 1 view .LVU339
 1390              	.LBB784:
  65:../../libs/libDaisy/src/dev/mpr121.h ****                != i2c_.TransmitBlocking(config_.dev_addr, data, size, 10);
 1391              		.loc 9 65 9 view .LVU340
  66:../../libs/libDaisy/src/dev/mpr121.h ****     }
 1392              		.loc 9 66 40 is_stmt 0 view .LVU341
 1393 0230 0223     		movs	r3, #2
 1394 0232 4E48     		ldr	r0, .L51+40
ARM GAS  C:\Users\skipi\AppData\Local\Temp\cceg9rRe.s 			page 53


 1395              	.LBE784:
 1396              	.LBE788:
 288:../../libs/libDaisy/src/dev/mpr121.h ****             buff[1] = ecr_backup;
 1397              		.loc 9 288 21 view .LVU342
 1398 0234 8DF82C80 		strb	r8, [sp, #44]
 1399              	.LBB789:
 1400              	.LBB785:
  66:../../libs/libDaisy/src/dev/mpr121.h ****     }
 1401              		.loc 9 66 40 view .LVU343
 1402 0238 FFF7FEFF 		bl	_ZN5daisy9I2CHandle16TransmitBlockingEtPhtm
 1403              	.LVL79:
  66:../../libs/libDaisy/src/dev/mpr121.h ****     }
 1404              		.loc 9 66 40 view .LVU344
 1405              	.LBE785:
 1406              	.LBE789:
 1407              	.LBB790:
 1408              	.LBI790:
 1409              		.loc 9 343 10 is_stmt 1 view .LVU345
 1410              	.LBB791:
 1411              		.loc 9 343 55 is_stmt 0 view .LVU346
 1412 023c 94F83020 		ldrb	r2, [r4, #48]	@ zero_extendqisi2
 1413              	.LBE791:
 1414              	.LBE790:
 1415              	.LBE731:
 1416              	.LBE730:
 1417              	.LBB798:
 1418              	.LBB799:
 1419              	.LBB800:
 1420              	.LBB801:
  66:../../libs/libDaisy/src/dev/mpr121.h ****     }
 1421              		.loc 9 66 40 view .LVU347
 1422 0240 0123     		movs	r3, #1
 1423 0242 0096     		str	r6, [sp]
 1424              	.LBE801:
 1425              	.LBE800:
 1426              	.LBE799:
 1427              	.LBE798:
 1428              	.LBB871:
 1429              	.LBB796:
 1430              	.LBB794:
 1431              	.LBB792:
 1432              		.loc 9 343 55 view .LVU348
 1433 0244 4845     		cmp	r0, r9
 1434 0246 18BF     		it	ne
 1435 0248 42F00102 		orrne	r2, r2, #1
 1436              	.LBE792:
 1437              	.LBE794:
 1438              	.LBE796:
 1439              	.LBE871:
 1440              	.LBB872:
 1441              	.LBB866:
 1442              	.LBB805:
 1443              	.LBB802:
  66:../../libs/libDaisy/src/dev/mpr121.h ****     }
 1444              		.loc 9 66 40 view .LVU349
 1445 024c 94F82C10 		ldrb	r1, [r4, #44]	@ zero_extendqisi2
 1446 0250 4648     		ldr	r0, .L51+40
ARM GAS  C:\Users\skipi\AppData\Local\Temp\cceg9rRe.s 			page 54


 1447              	.LVL80:
  66:../../libs/libDaisy/src/dev/mpr121.h ****     }
 1448              		.loc 9 66 40 view .LVU350
 1449              	.LBE802:
 1450              	.LBE805:
 1451              	.LBE866:
 1452              	.LBE872:
 1453              	.LBB873:
 1454              	.LBB797:
 1455              	.LBB795:
 1456              	.LBB793:
 1457              		.loc 9 343 55 view .LVU351
 1458 0252 84F83020 		strb	r2, [r4, #48]
 1459              	.LVL81:
 1460              		.loc 9 343 55 view .LVU352
 1461              	.LBE793:
 1462              	.LBE795:
 1463              	.LBE797:
 1464              	.LBE873:
 1465              	.LBB874:
 1466              	.LBI798:
 257:../../libs/libDaisy/src/dev/mpr121.h ****     {
 1467              		.loc 9 257 10 is_stmt 1 view .LVU353
 1468              	.LBB867:
 1469              	.LBB806:
 1470              	.LBI800:
  63:../../libs/libDaisy/src/dev/mpr121.h ****     {
 1471              		.loc 9 63 10 view .LVU354
 1472              	.LBB803:
  65:../../libs/libDaisy/src/dev/mpr121.h ****                != i2c_.TransmitBlocking(config_.dev_addr, data, size, 10);
 1473              		.loc 9 65 9 view .LVU355
  66:../../libs/libDaisy/src/dev/mpr121.h ****     }
 1474              		.loc 9 66 40 is_stmt 0 view .LVU356
 1475 0256 0BAA     		add	r2, sp, #44
 1476              	.LVL82:
  66:../../libs/libDaisy/src/dev/mpr121.h ****     }
 1477              		.loc 9 66 40 view .LVU357
 1478              	.LBE803:
 1479              	.LBE806:
 264:../../libs/libDaisy/src/dev/mpr121.h **** 
 1480              		.loc 9 264 17 view .LVU358
 1481 0258 8DF82D90 		strb	r9, [sp, #45]
 1482 025c 8DF82C80 		strb	r8, [sp, #44]
 1483              	.LBB807:
 1484              	.LBB804:
  66:../../libs/libDaisy/src/dev/mpr121.h ****     }
 1485              		.loc 9 66 40 view .LVU359
 1486 0260 FFF7FEFF 		bl	_ZN5daisy9I2CHandle16TransmitBlockingEtPhtm
 1487              	.LVL83:
  66:../../libs/libDaisy/src/dev/mpr121.h ****     }
 1488              		.loc 9 66 40 view .LVU360
 1489              	.LBE804:
 1490              	.LBE807:
 1491              	.LBB808:
 1492              	.LBI808:
 1493              		.loc 9 343 10 is_stmt 1 view .LVU361
 1494              	.LBB809:
ARM GAS  C:\Users\skipi\AppData\Local\Temp\cceg9rRe.s 			page 55


 1495              		.loc 9 343 55 is_stmt 0 view .LVU362
 1496 0264 94F83020 		ldrb	r2, [r4, #48]	@ zero_extendqisi2
 1497              	.LBE809:
 1498              	.LBE808:
 1499              	.LBB812:
 1500              	.LBB813:
  73:../../libs/libDaisy/src/dev/mpr121.h ****     }
 1501              		.loc 9 73 39 view .LVU363
 1502 0268 0123     		movs	r3, #1
 1503 026a 0096     		str	r6, [sp]
 1504              	.LBE813:
 1505              	.LBE812:
 1506              	.LBB816:
 1507              	.LBB810:
 1508              		.loc 9 343 55 view .LVU364
 1509 026c 4845     		cmp	r0, r9
 1510 026e 18BF     		it	ne
 1511 0270 42F00102 		orrne	r2, r2, #1
 1512              	.LBE810:
 1513              	.LBE816:
 1514              	.LBB817:
 1515              	.LBB814:
  73:../../libs/libDaisy/src/dev/mpr121.h ****     }
 1516              		.loc 9 73 39 view .LVU365
 1517 0274 94F82C10 		ldrb	r1, [r4, #44]	@ zero_extendqisi2
 1518 0278 3C48     		ldr	r0, .L51+40
 1519              	.LVL84:
  73:../../libs/libDaisy/src/dev/mpr121.h ****     }
 1520              		.loc 9 73 39 view .LVU366
 1521              	.LBE814:
 1522              	.LBE817:
 1523              	.LBB818:
 1524              	.LBB811:
 1525              		.loc 9 343 55 view .LVU367
 1526 027a 84F83020 		strb	r2, [r4, #48]
 1527              	.LVL85:
 1528              		.loc 9 343 55 view .LVU368
 1529              	.LBE811:
 1530              	.LBE818:
 1531              	.LBB819:
 1532              	.LBI812:
  70:../../libs/libDaisy/src/dev/mpr121.h ****     {
 1533              		.loc 9 70 10 is_stmt 1 view .LVU369
 1534              	.LBB815:
  72:../../libs/libDaisy/src/dev/mpr121.h ****                != i2c_.ReceiveBlocking(config_.dev_addr, data, size, 10);
 1535              		.loc 9 72 9 view .LVU370
  73:../../libs/libDaisy/src/dev/mpr121.h ****     }
 1536              		.loc 9 73 39 is_stmt 0 view .LVU371
 1537 027e 06AA     		add	r2, sp, #24
 1538 0280 FFF7FEFF 		bl	_ZN5daisy9I2CHandle15ReceiveBlockingEtPhtm
 1539              	.LVL86:
  73:../../libs/libDaisy/src/dev/mpr121.h ****     }
 1540              		.loc 9 73 39 view .LVU372
 1541              	.LBE815:
 1542              	.LBE819:
 1543              	.LBB820:
 1544              	.LBI820:
ARM GAS  C:\Users\skipi\AppData\Local\Temp\cceg9rRe.s 			page 56


 1545              		.loc 9 343 10 is_stmt 1 view .LVU373
 1546              	.LBB821:
 1547              		.loc 9 343 55 is_stmt 0 view .LVU374
 1548 0284 94F83020 		ldrb	r2, [r4, #48]	@ zero_extendqisi2
 1549              	.LBE821:
 1550              	.LBE820:
 1551              	.LBB824:
 1552              	.LBB825:
  66:../../libs/libDaisy/src/dev/mpr121.h ****     }
 1553              		.loc 9 66 40 view .LVU375
 1554 0288 0223     		movs	r3, #2
 1555 028a 0096     		str	r6, [sp]
 1556              	.LBE825:
 1557              	.LBE824:
 1558              	.LBB828:
 1559              	.LBB822:
 1560              		.loc 9 343 55 view .LVU376
 1561 028c 4845     		cmp	r0, r9
 1562 028e 18BF     		it	ne
 1563 0290 42F00102 		orrne	r2, r2, #1
 1564              	.LBE822:
 1565              	.LBE828:
 1566              	.LBB829:
 1567              	.LBB826:
  66:../../libs/libDaisy/src/dev/mpr121.h ****     }
 1568              		.loc 9 66 40 view .LVU377
 1569 0294 94F82C10 		ldrb	r1, [r4, #44]	@ zero_extendqisi2
 1570 0298 3448     		ldr	r0, .L51+40
 1571              	.LVL87:
  66:../../libs/libDaisy/src/dev/mpr121.h ****     }
 1572              		.loc 9 66 40 view .LVU378
 1573              	.LBE826:
 1574              	.LBE829:
 1575              	.LBB830:
 1576              	.LBB823:
 1577              		.loc 9 343 55 view .LVU379
 1578 029a 84F83020 		strb	r2, [r4, #48]
 1579              	.LVL88:
 1580              		.loc 9 343 55 view .LVU380
 1581              	.LBE823:
 1582              	.LBE830:
 1583              	.LBB831:
 1584              	.LBI824:
  63:../../libs/libDaisy/src/dev/mpr121.h ****     {
 1585              		.loc 9 63 10 is_stmt 1 view .LVU381
 1586              	.LBB827:
  65:../../libs/libDaisy/src/dev/mpr121.h ****                != i2c_.TransmitBlocking(config_.dev_addr, data, size, 10);
 1587              		.loc 9 65 9 view .LVU382
  66:../../libs/libDaisy/src/dev/mpr121.h ****     }
 1588              		.loc 9 66 40 is_stmt 0 view .LVU383
 1589 029e 0BAA     		add	r2, sp, #44
 1590              	.LVL89:
  66:../../libs/libDaisy/src/dev/mpr121.h ****     }
 1591              		.loc 9 66 40 view .LVU384
 1592 02a0 FFF7FEFF 		bl	_ZN5daisy9I2CHandle16TransmitBlockingEtPhtm
 1593              	.LVL90:
  66:../../libs/libDaisy/src/dev/mpr121.h ****     }
ARM GAS  C:\Users\skipi\AppData\Local\Temp\cceg9rRe.s 			page 57


 1594              		.loc 9 66 40 view .LVU385
 1595              	.LBE827:
 1596              	.LBE831:
 1597              	.LBB832:
 1598              	.LBI832:
 1599              		.loc 9 343 10 is_stmt 1 view .LVU386
 1600              	.LBB833:
 1601              		.loc 9 343 55 is_stmt 0 view .LVU387
 1602 02a4 94F83030 		ldrb	r3, [r4, #48]	@ zero_extendqisi2
 1603              	.LBE833:
 1604              	.LBE832:
 281:../../libs/libDaisy/src/dev/mpr121.h ****         buff[1] = value;
 1605              		.loc 9 281 17 view .LVU388
 1606 02a8 7A1C     		adds	r2, r7, #1
 1607              	.LBB836:
 1608              	.LBB837:
  66:../../libs/libDaisy/src/dev/mpr121.h ****     }
 1609              		.loc 9 66 40 view .LVU389
 1610 02aa 0096     		str	r6, [sp]
 1611              	.LBE837:
 1612              	.LBE836:
 1613              	.LBB842:
 1614              	.LBB834:
 1615              		.loc 9 343 55 view .LVU390
 1616 02ac 4845     		cmp	r0, r9
 1617 02ae 18BF     		it	ne
 1618 02b0 43F00103 		orrne	r3, r3, #1
 1619              	.LBE834:
 1620              	.LBE842:
 1621              	.LBB843:
 1622              	.LBB838:
  66:../../libs/libDaisy/src/dev/mpr121.h ****     }
 1623              		.loc 9 66 40 view .LVU391
 1624 02b4 94F82C10 		ldrb	r1, [r4, #44]	@ zero_extendqisi2
 1625              	.LBE838:
 1626              	.LBE843:
 281:../../libs/libDaisy/src/dev/mpr121.h ****         buff[1] = value;
 1627              		.loc 9 281 17 view .LVU392
 1628 02b8 8DF82C20 		strb	r2, [sp, #44]
 1629              	.LBB844:
 1630              	.LBB839:
  66:../../libs/libDaisy/src/dev/mpr121.h ****     }
 1631              		.loc 9 66 40 view .LVU393
 1632 02bc 0BAA     		add	r2, sp, #44
 1633              	.LBE839:
 1634              	.LBE844:
 1635              	.LBB845:
 1636              	.LBB835:
 1637              		.loc 9 343 55 view .LVU394
 1638 02be 84F83030 		strb	r3, [r4, #48]
 1639              	.LVL91:
 1640              		.loc 9 343 55 view .LVU395
 1641              	.LBE835:
 1642              	.LBE845:
 1643              	.LBB846:
 1644              	.LBI836:
  63:../../libs/libDaisy/src/dev/mpr121.h ****     {
ARM GAS  C:\Users\skipi\AppData\Local\Temp\cceg9rRe.s 			page 58


 1645              		.loc 9 63 10 is_stmt 1 view .LVU396
 1646              	.LBB840:
  65:../../libs/libDaisy/src/dev/mpr121.h ****                != i2c_.TransmitBlocking(config_.dev_addr, data, size, 10);
 1647              		.loc 9 65 9 view .LVU397
  66:../../libs/libDaisy/src/dev/mpr121.h ****     }
 1648              		.loc 9 66 40 is_stmt 0 view .LVU398
 1649 02c2 0223     		movs	r3, #2
 1650 02c4 2948     		ldr	r0, .L51+40
 1651              	.LBE840:
 1652              	.LBE846:
 1653              	.LBE867:
 1654              	.LBE874:
 186:../../libs/libDaisy/src/dev/mpr121.h ****         {
 1655              		.loc 9 186 30 view .LVU399
 1656 02c6 0237     		adds	r7, r7, #2
 1657              	.LVL92:
 1658              	.LBB875:
 1659              	.LBB868:
 282:../../libs/libDaisy/src/dev/mpr121.h ****         SetTransportErr(transport_.Write(buff, 2));
 1660              		.loc 9 282 17 view .LVU400
 1661 02c8 8DF82DA0 		strb	r10, [sp, #45]
 1662              	.LBB847:
 1663              	.LBB841:
  66:../../libs/libDaisy/src/dev/mpr121.h ****     }
 1664              		.loc 9 66 40 view .LVU401
 1665 02cc FFF7FEFF 		bl	_ZN5daisy9I2CHandle16TransmitBlockingEtPhtm
 1666              	.LVL93:
  66:../../libs/libDaisy/src/dev/mpr121.h ****     }
 1667              		.loc 9 66 40 view .LVU402
 1668              	.LBE841:
 1669              	.LBE847:
 1670              	.LBB848:
 1671              	.LBI848:
 1672              		.loc 9 343 10 is_stmt 1 view .LVU403
 1673              	.LBB849:
 1674              		.loc 9 343 55 is_stmt 0 view .LVU404
 1675 02d0 94F83020 		ldrb	r2, [r4, #48]	@ zero_extendqisi2
 1676              	.LBE849:
 1677              	.LBE848:
 1678              	.LBB852:
 1679              	.LBB853:
  66:../../libs/libDaisy/src/dev/mpr121.h ****     }
 1680              		.loc 9 66 40 view .LVU405
 1681 02d4 0223     		movs	r3, #2
 1682              	.LBE853:
 1683              	.LBE852:
 289:../../libs/libDaisy/src/dev/mpr121.h ****             SetTransportErr(transport_.Write(buff, 2));
 1684              		.loc 9 289 21 view .LVU406
 1685 02d6 9DF81810 		ldrb	r1, [sp, #24]	@ zero_extendqisi2
 1686              	.LBE868:
 1687              	.LBE875:
 186:../../libs/libDaisy/src/dev/mpr121.h ****         {
 1688              		.loc 9 186 30 view .LVU407
 1689 02da FFB2     		uxtb	r7, r7
 1690              	.LBB876:
 1691              	.LBB869:
 1692              	.LBB857:
ARM GAS  C:\Users\skipi\AppData\Local\Temp\cceg9rRe.s 			page 59


 1693              	.LBB850:
 1694              		.loc 9 343 55 view .LVU408
 1695 02dc 4845     		cmp	r0, r9
 1696 02de 18BF     		it	ne
 1697 02e0 42F00102 		orrne	r2, r2, #1
 1698              	.LBE850:
 1699              	.LBE857:
 1700              	.LBB858:
 1701              	.LBB854:
  66:../../libs/libDaisy/src/dev/mpr121.h ****     }
 1702              		.loc 9 66 40 view .LVU409
 1703 02e4 0096     		str	r6, [sp]
 1704              	.LBE854:
 1705              	.LBE858:
 289:../../libs/libDaisy/src/dev/mpr121.h ****             SetTransportErr(transport_.Write(buff, 2));
 1706              		.loc 9 289 21 view .LVU410
 1707 02e6 8DF82D10 		strb	r1, [sp, #45]
 1708              	.LBB859:
 1709              	.LBB851:
 1710              		.loc 9 343 55 view .LVU411
 1711 02ea 84F83020 		strb	r2, [r4, #48]
 1712              	.LVL94:
 1713              		.loc 9 343 55 view .LVU412
 1714              	.LBE851:
 1715              	.LBE859:
 1716              	.LBB860:
 1717              	.LBI852:
  63:../../libs/libDaisy/src/dev/mpr121.h ****     {
 1718              		.loc 9 63 10 is_stmt 1 view .LVU413
 1719              	.LBB855:
  65:../../libs/libDaisy/src/dev/mpr121.h ****                != i2c_.TransmitBlocking(config_.dev_addr, data, size, 10);
 1720              		.loc 9 65 9 view .LVU414
  66:../../libs/libDaisy/src/dev/mpr121.h ****     }
 1721              		.loc 9 66 40 is_stmt 0 view .LVU415
 1722 02ee 0BAA     		add	r2, sp, #44
 1723              	.LVL95:
  66:../../libs/libDaisy/src/dev/mpr121.h ****     }
 1724              		.loc 9 66 40 view .LVU416
 1725 02f0 94F82C10 		ldrb	r1, [r4, #44]	@ zero_extendqisi2
 1726 02f4 1D48     		ldr	r0, .L51+40
 1727              	.LBE855:
 1728              	.LBE860:
 288:../../libs/libDaisy/src/dev/mpr121.h ****             buff[1] = ecr_backup;
 1729              		.loc 9 288 21 view .LVU417
 1730 02f6 8DF82C80 		strb	r8, [sp, #44]
 1731              	.LBB861:
 1732              	.LBB856:
  66:../../libs/libDaisy/src/dev/mpr121.h ****     }
 1733              		.loc 9 66 40 view .LVU418
 1734 02fa FFF7FEFF 		bl	_ZN5daisy9I2CHandle16TransmitBlockingEtPhtm
 1735              	.LVL96:
  66:../../libs/libDaisy/src/dev/mpr121.h ****     }
 1736              		.loc 9 66 40 view .LVU419
 1737              	.LBE856:
 1738              	.LBE861:
 1739              	.LBB862:
 1740              	.LBI862:
ARM GAS  C:\Users\skipi\AppData\Local\Temp\cceg9rRe.s 			page 60


 1741              		.loc 9 343 10 is_stmt 1 view .LVU420
 1742              	.LBB863:
 1743              		.loc 9 343 55 is_stmt 0 view .LVU421
 1744 02fe 94F83030 		ldrb	r3, [r4, #48]	@ zero_extendqisi2
 1745 0302 4845     		cmp	r0, r9
 1746 0304 18BF     		it	ne
 1747 0306 43F00103 		orrne	r3, r3, #1
 1748              	.LBE863:
 1749              	.LBE862:
 1750              	.LBE869:
 1751              	.LBE876:
 186:../../libs/libDaisy/src/dev/mpr121.h ****         {
 1752              		.loc 9 186 30 view .LVU422
 1753 030a 592F     		cmp	r7, #89
 1754              	.LBB877:
 1755              	.LBB870:
 1756              	.LBB865:
 1757              	.LBB864:
 1758              		.loc 9 343 55 view .LVU423
 1759 030c 84F83030 		strb	r3, [r4, #48]
 1760              	.LVL97:
 1761              		.loc 9 343 55 view .LVU424
 1762              	.LBE864:
 1763              	.LBE865:
 1764              	.LBE870:
 1765              	.LBE877:
 186:../../libs/libDaisy/src/dev/mpr121.h ****         {
 1766              		.loc 9 186 9 is_stmt 1 view .LVU425
 186:../../libs/libDaisy/src/dev/mpr121.h ****         {
 1767              		.loc 9 186 30 view .LVU426
 1768 0310 7FF439AF 		bne	.L26
 1769              	.LVL98:
 186:../../libs/libDaisy/src/dev/mpr121.h ****         {
 1770              		.loc 9 186 30 is_stmt 0 view .LVU427
 1771              	.LBE729:
 1772              	.LBE728:
 140:../../libs/libDaisy/src/dev/mpr121.h ****         WriteRegister(MPR121_NHDR, 0x01);
 1773              		.loc 9 140 22 view .LVU428
 1774 0314 0122     		movs	r2, #1
 1775 0316 2B21     		movs	r1, #43
 1776 0318 1348     		ldr	r0, .L51+36
 1777 031a FFF7FEFF 		bl	_ZN5daisy6Mpr121INS_18Mpr121I2CTransportEE13WriteRegisterEhh
 1778              	.LVL99:
 141:../../libs/libDaisy/src/dev/mpr121.h ****         WriteRegister(MPR121_NCLR, 0x0E);
 1779              		.loc 9 141 22 view .LVU429
 1780 031e 0122     		movs	r2, #1
 1781 0320 2C21     		movs	r1, #44
 1782 0322 1148     		ldr	r0, .L51+36
 1783 0324 FFF7FEFF 		bl	_ZN5daisy6Mpr121INS_18Mpr121I2CTransportEE13WriteRegisterEhh
 1784              	.LVL100:
 142:../../libs/libDaisy/src/dev/mpr121.h ****         WriteRegister(MPR121_FDLR, 0x00);
 1785              		.loc 9 142 22 view .LVU430
 1786 0328 2D21     		movs	r1, #45
 1787 032a 0F48     		ldr	r0, .L51+36
 1788 032c 0E22     		movs	r2, #14
 1789 032e FFF7FEFF 		bl	_ZN5daisy6Mpr121INS_18Mpr121I2CTransportEE13WriteRegisterEhh
 1790              	.LVL101:
ARM GAS  C:\Users\skipi\AppData\Local\Temp\cceg9rRe.s 			page 61


 143:../../libs/libDaisy/src/dev/mpr121.h **** 
 1791              		.loc 9 143 22 view .LVU431
 1792 0332 4A46     		mov	r2, r9
 1793 0334 2E21     		movs	r1, #46
 1794 0336 0C48     		ldr	r0, .L51+36
 1795 0338 FFF7FEFF 		bl	_ZN5daisy6Mpr121INS_18Mpr121I2CTransportEE13WriteRegisterEhh
 1796              	.LVL102:
 145:../../libs/libDaisy/src/dev/mpr121.h ****         WriteRegister(MPR121_NHDF, 0x05);
 1797              		.loc 9 145 22 view .LVU432
 1798 033c 0122     		movs	r2, #1
 1799 033e 2F21     		movs	r1, #47
 1800 0340 18E0     		b	.L52
 1801              	.L53:
 1802 0342 00BF     		.align	2
 1803              	.L51:
 1804 0344 00000000 		.word	.LANCHOR3
 1805 0348 00000000 		.word	.LANCHOR1
 1806 034c 0000C842 		.word	1120403456
 1807 0350 00000000 		.word	.LANCHOR2
 1808 0354 0000DC43 		.word	1138491392
 1809 0358 CDCC4C3D 		.word	1028443341
 1810 035c CDCCCC3D 		.word	1036831949
 1811 0360 3333333F 		.word	1060320051
 1812 0364 CDCC4C3E 		.word	1045220557
 1813 0368 00000000 		.word	.LANCHOR5
 1814 036c 18000000 		.word	.LANCHOR5+24
 1815 0370 00000000 		.word	.LANCHOR4
 1816              	.L52:
 1817 0374 3048     		ldr	r0, .L54
 1818 0376 FFF7FEFF 		bl	_ZN5daisy6Mpr121INS_18Mpr121I2CTransportEE13WriteRegisterEhh
 1819              	.LVL103:
 146:../../libs/libDaisy/src/dev/mpr121.h ****         WriteRegister(MPR121_NCLF, 0x01);
 1820              		.loc 9 146 22 view .LVU433
 1821 037a 0522     		movs	r2, #5
 1822 037c 3021     		movs	r1, #48
 1823 037e 2E48     		ldr	r0, .L54
 1824 0380 FFF7FEFF 		bl	_ZN5daisy6Mpr121INS_18Mpr121I2CTransportEE13WriteRegisterEhh
 1825              	.LVL104:
 147:../../libs/libDaisy/src/dev/mpr121.h ****         WriteRegister(MPR121_FDLF, 0x00);
 1826              		.loc 9 147 22 view .LVU434
 1827 0384 3121     		movs	r1, #49
 1828 0386 2C48     		ldr	r0, .L54
 1829 0388 0122     		movs	r2, #1
 1830 038a FFF7FEFF 		bl	_ZN5daisy6Mpr121INS_18Mpr121I2CTransportEE13WriteRegisterEhh
 1831              	.LVL105:
 148:../../libs/libDaisy/src/dev/mpr121.h **** 
 1832              		.loc 9 148 22 view .LVU435
 1833 038e 4A46     		mov	r2, r9
 1834 0390 3221     		movs	r1, #50
 1835 0392 2948     		ldr	r0, .L54
 1836 0394 FFF7FEFF 		bl	_ZN5daisy6Mpr121INS_18Mpr121I2CTransportEE13WriteRegisterEhh
 1837              	.LVL106:
 150:../../libs/libDaisy/src/dev/mpr121.h ****         WriteRegister(MPR121_NCLT, 0x00);
 1838              		.loc 9 150 22 view .LVU436
 1839 0398 4A46     		mov	r2, r9
 1840 039a 3321     		movs	r1, #51
 1841 039c 2648     		ldr	r0, .L54
ARM GAS  C:\Users\skipi\AppData\Local\Temp\cceg9rRe.s 			page 62


 1842 039e FFF7FEFF 		bl	_ZN5daisy6Mpr121INS_18Mpr121I2CTransportEE13WriteRegisterEhh
 1843              	.LVL107:
 151:../../libs/libDaisy/src/dev/mpr121.h ****         WriteRegister(MPR121_FDLT, 0x00);
 1844              		.loc 9 151 22 view .LVU437
 1845 03a2 4A46     		mov	r2, r9
 1846 03a4 3421     		movs	r1, #52
 1847 03a6 2448     		ldr	r0, .L54
 1848 03a8 FFF7FEFF 		bl	_ZN5daisy6Mpr121INS_18Mpr121I2CTransportEE13WriteRegisterEhh
 1849              	.LVL108:
 152:../../libs/libDaisy/src/dev/mpr121.h **** 
 1850              		.loc 9 152 22 view .LVU438
 1851 03ac 4A46     		mov	r2, r9
 1852 03ae 3521     		movs	r1, #53
 1853 03b0 2148     		ldr	r0, .L54
 1854 03b2 FFF7FEFF 		bl	_ZN5daisy6Mpr121INS_18Mpr121I2CTransportEE13WriteRegisterEhh
 1855              	.LVL109:
 154:../../libs/libDaisy/src/dev/mpr121.h ****         WriteRegister(MPR121_CONFIG1, 0x10); // default, 16uA charge current
 1856              		.loc 9 154 22 view .LVU439
 1857 03b6 4A46     		mov	r2, r9
 1858 03b8 5B21     		movs	r1, #91
 1859 03ba 1F48     		ldr	r0, .L54
 1860 03bc FFF7FEFF 		bl	_ZN5daisy6Mpr121INS_18Mpr121I2CTransportEE13WriteRegisterEhh
 1861              	.LVL110:
 155:../../libs/libDaisy/src/dev/mpr121.h ****         WriteRegister(MPR121_CONFIG2, 0x20); // 0.5uS encoding, 1ms period
 1862              		.loc 9 155 22 view .LVU440
 1863 03c0 1022     		movs	r2, #16
 1864 03c2 5C21     		movs	r1, #92
 1865 03c4 1C48     		ldr	r0, .L54
 1866 03c6 FFF7FEFF 		bl	_ZN5daisy6Mpr121INS_18Mpr121I2CTransportEE13WriteRegisterEhh
 1867              	.LVL111:
 156:../../libs/libDaisy/src/dev/mpr121.h **** 
 1868              		.loc 9 156 22 view .LVU441
 1869 03ca 2022     		movs	r2, #32
 1870 03cc 5D21     		movs	r1, #93
 1871 03ce 1A48     		ldr	r0, .L54
 1872 03d0 FFF7FEFF 		bl	_ZN5daisy6Mpr121INS_18Mpr121I2CTransportEE13WriteRegisterEhh
 1873              	.LVL112:
 172:../../libs/libDaisy/src/dev/mpr121.h ****                       ECR_SETTING); // start with above ECR setting
 1874              		.loc 9 172 22 view .LVU442
 1875 03d4 4146     		mov	r1, r8
 1876 03d6 8C22     		movs	r2, #140
 1877 03d8 1748     		ldr	r0, .L54
 1878 03da FFF7FEFF 		bl	_ZN5daisy6Mpr121INS_18Mpr121I2CTransportEE13WriteRegisterEhh
 1879              	.LVL113:
 1880              	.LBB878:
 1881              	.LBI878:
 344:../../libs/libDaisy/src/dev/mpr121.h **** 
 345:../../libs/libDaisy/src/dev/mpr121.h ****     /** Get the global transport_error_ bool (as a Result), then reset it */
 346:../../libs/libDaisy/src/dev/mpr121.h ****     Result GetTransportErr()
 1882              		.loc 9 346 12 is_stmt 1 view .LVU443
 1883              	.LBB879:
 347:../../libs/libDaisy/src/dev/mpr121.h ****     {
 348:../../libs/libDaisy/src/dev/mpr121.h ****         Result ret       = transport_error_ ? ERR : OK;
 1884              		.loc 9 348 45 is_stmt 0 view .LVU444
 1885 03de 94F83060 		ldrb	r6, [r4, #48]	@ zero_extendqisi2
 1886 03e2 A6B1     		cbz	r6, .L27
 1887              	.LVL114:
ARM GAS  C:\Users\skipi\AppData\Local\Temp\cceg9rRe.s 			page 63


 349:../../libs/libDaisy/src/dev/mpr121.h ****         transport_error_ = false;
 1888              		.loc 9 349 26 view .LVU445
 1889 03e4 84F83090 		strb	r9, [r4, #48]
 1890              	.LVL115:
 1891              		.loc 9 349 26 view .LVU446
 1892              	.LBE879:
 1893              	.LBE878:
 1894              	.LBE881:
 1895              	.LBE905:
  75:main.cpp      ****   if (status != daisy::Mpr121I2C::Result::OK) // initializes the mpr121 with the config and see if 
 1896              		.loc 10 75 3 is_stmt 1 view .LVU447
 1897              	.L28:
  76:main.cpp      ****   {
  77:main.cpp      ****     while (1)
 1898              		.loc 10 77 5 discriminator 1 view .LVU448
  78:main.cpp      ****     {
  79:main.cpp      ****       hw.SetLed(true); // blink if not ok
 1899              		.loc 10 79 7 discriminator 1 view .LVU449
 1900              		.loc 10 79 16 is_stmt 0 discriminator 1 view .LVU450
 1901 03e8 0121     		movs	r1, #1
 1902 03ea 1448     		ldr	r0, .L54+4
 1903 03ec FFF7FEFF 		bl	_ZN5daisy9DaisySeed6SetLedEb
 1904              	.LVL116:
  80:main.cpp      ****       hw.DelayMs(500);
 1905              		.loc 10 80 7 is_stmt 1 discriminator 1 view .LVU451
 1906              		.loc 10 80 17 is_stmt 0 discriminator 1 view .LVU452
 1907 03f0 4FF4FA71 		mov	r1, #500
 1908 03f4 1148     		ldr	r0, .L54+4
 1909 03f6 FFF7FEFF 		bl	_ZN5daisy9DaisySeed7DelayMsEj
 1910              	.LVL117:
  81:main.cpp      ****       hw.SetLed(false);
 1911              		.loc 10 81 7 is_stmt 1 discriminator 1 view .LVU453
 1912              		.loc 10 81 16 is_stmt 0 discriminator 1 view .LVU454
 1913 03fa 0021     		movs	r1, #0
 1914 03fc 0F48     		ldr	r0, .L54+4
 1915 03fe FFF7FEFF 		bl	_ZN5daisy9DaisySeed6SetLedEb
 1916              	.LVL118:
  82:main.cpp      ****       hw.DelayMs(500);
 1917              		.loc 10 82 7 is_stmt 1 discriminator 1 view .LVU455
 1918              		.loc 10 82 17 is_stmt 0 discriminator 1 view .LVU456
 1919 0402 4FF4FA71 		mov	r1, #500
 1920 0406 0D48     		ldr	r0, .L54+4
 1921 0408 FFF7FEFF 		bl	_ZN5daisy9DaisySeed7DelayMsEj
 1922              	.LVL119:
  77:main.cpp      ****     {
 1923              		.loc 10 77 5 is_stmt 1 discriminator 1 view .LVU457
 1924 040c ECE7     		b	.L28
 1925              	.LVL120:
 1926              	.L27:
  75:main.cpp      ****   {
 1927              		.loc 10 75 3 view .LVU458
  83:main.cpp      ****     }
  84:main.cpp      ****   }
  85:main.cpp      ****   else
  86:main.cpp      ****   {
  87:main.cpp      ****     hw.SetLed(true);
 1928              		.loc 10 87 5 view .LVU459
ARM GAS  C:\Users\skipi\AppData\Local\Temp\cceg9rRe.s 			page 64


 1929              		.loc 10 87 14 is_stmt 0 view .LVU460
 1930 040e 0121     		movs	r1, #1
 1931 0410 0A48     		ldr	r0, .L54+4
 1932 0412 FFF7FEFF 		bl	_ZN5daisy9DaisySeed6SetLedEb
 1933              	.LVL121:
  88:main.cpp      ****   }
  89:main.cpp      **** 
  90:main.cpp      ****   // cap.SetThresholds(12, 6);                                           // sets the touch and rele
  91:main.cpp      ****   capFilter.Init(CapFir::ResType::LOW); 
 1934              		.loc 10 91 3 is_stmt 1 view .LVU461
 1935              		.loc 10 91 17 is_stmt 0 view .LVU462
 1936 0416 3146     		mov	r1, r6
 1937 0418 0948     		ldr	r0, .L54+8
 1938 041a FFF7FEFF 		bl	_ZN6CapFir4InitENS_7ResTypeE
 1939              	.LVL122:
  92:main.cpp      ****   hw.StartAudio(AudioCallback);
 1940              		.loc 10 92 3 is_stmt 1 view .LVU463
 1941              		.loc 10 92 16 is_stmt 0 view .LVU464
 1942 041e 0949     		ldr	r1, .L54+12
 1943 0420 0648     		ldr	r0, .L54+4
 1944 0422 094F     		ldr	r7, .L54+16
 1945 0424 FFF7FEFF 		bl	_ZN5daisy9DaisySeed10StartAudioEPFvPKfPfjE
 1946              	.LVL123:
 1947 0428 DFF82090 		ldr	r9, .L54+20
 1948 042c DFF82080 		ldr	r8, .L54+24
 1949 0430 DFF820B0 		ldr	fp, .L54+28
 1950 0434 8DE0     		b	.L29
 1951              	.L55:
 1952 0436 00BF     		.align	2
 1953              	.L54:
 1954 0438 00000000 		.word	.LANCHOR5
 1955 043c 00000000 		.word	.LANCHOR3
 1956 0440 00000000 		.word	.LANCHOR6
 1957 0444 00000000 		.word	_ZL13AudioCallbackPKfPfj
 1958 0448 00000000 		.word	.LANCHOR7
 1959 044c 00000000 		.word	.LANCHOR8
 1960 0450 00000000 		.word	.LANCHOR0
 1961 0454 00000000 		.word	.LANCHOR12
 1962              	.L49:
  93:main.cpp      **** 
  94:main.cpp      ****   while (1)
  95:main.cpp      ****   {
  96:main.cpp      ****     currTouched = cap.Touched();                                   // reads the touched channels fr
  97:main.cpp      ****     if ((currTouched & _BV(0)) && !(lastTouched & _BV(0)) || gate) // if the channel 0 is touched a
 1963              		.loc 10 97 32 discriminator 1 view .LVU465
 1964 0458 B9F80030 		ldrh	r3, [r9]
 1965 045c D907     		lsls	r1, r3, #31
 1966 045e 40F19880 		bpl	.L37
 1967              		.loc 10 97 59 view .LVU466
 1968 0462 98F80030 		ldrb	r3, [r8]	@ zero_extendqisi2
 1969 0466 002B     		cmp	r3, #0
 1970 0468 40F09380 		bne	.L37
 1971              	.L35:
  98:main.cpp      ****     {
  99:main.cpp      ****       gate = true; // sets the gate to true
 100:main.cpp      ****       delta = (float)(cap.FilteredData(0) - cap.BaselineData(0) - touchTreshold); // calculates the
 101:main.cpp      ****       filtDelta = capFilter.Process(delta); 
ARM GAS  C:\Users\skipi\AppData\Local\Temp\cceg9rRe.s 			page 65


 102:main.cpp      ****       f = 880 + (filtDelta / 70) * 880;
 103:main.cpp      ****       osc.SetFreq(f);
 104:main.cpp      ****       #ifdef DEBUG // sets the gate to true
 105:main.cpp      ****         hw.PrintLine("-----------------------------------------------------------------------------
 106:main.cpp      ****         hw.PrintLine("CAP 0 touched");
 107:main.cpp      ****       #endif
 108:main.cpp      ****     }
 109:main.cpp      **** 
 110:main.cpp      ****     if (!(currTouched & _BV(0)) && (lastTouched & _BV(0))) // if the channel 0 was touched and it i
 111:main.cpp      ****     {
 112:main.cpp      ****       gate = false; // sets the gate to false
 113:main.cpp      ****       #ifdef DEBUG
 114:main.cpp      ****         hw.PrintLine("CAP 0 released");
 115:main.cpp      ****         hw.PrintLine("-----------------------------------------------------------------------------
 116:main.cpp      ****         hw.PrintLine(" ");
 117:main.cpp      ****       #endif
 118:main.cpp      ****     }
 119:main.cpp      **** 
 120:main.cpp      ****     // calculates the frequency based on the delta value
 121:main.cpp      **** 
 122:main.cpp      **** #ifdef DEBUG
 123:main.cpp      ****     if (gate)
 124:main.cpp      ****     {
 125:main.cpp      ****       hw.PrintLine("| ");
 126:main.cpp      ****       hw.PrintLine("| Baseline Touched Value : %d |", cap.BaselineData(0));
 127:main.cpp      ****       hw.PrintLine("| Filtered Touched Value : %d |", cap.FilteredData(0));
 128:main.cpp      ****       hw.PrintLine("| Difference Touched Value : %d |", cap.BaselineData(0) - cap.FilteredData(0));
 129:main.cpp      ****       hw.PrintLine("| Frequency : %f |", f);
 130:main.cpp      ****       hw.PrintLine("| ");
 131:main.cpp      ****     }
 132:main.cpp      ****     else
 133:main.cpp      ****     {
 134:main.cpp      ****       hw.PrintLine(" ");
 1972              		.loc 10 134 7 is_stmt 1 view .LVU467
 1973              	.LVL124:
 1974              	.LBB906:
 1975              	.LBI906:
 126:../../libs/libDaisy/src/daisy_seed.h ****     {
 1976              		.loc 1 126 17 view .LVU468
 1977              	.LBB907:
 128:../../libs/libDaisy/src/daisy_seed.h ****     }
 1978              		.loc 1 128 23 is_stmt 0 view .LVU469
 1979 046c BB48     		ldr	r0, .L56
 1980              	.LBE907:
 1981              	.LBE906:
 1982              	.LBB909:
 1983              	.LBB910:
 1984              	.LBB911:
 1985              	.LBB912:
 1986              	.LBB913:
 1987              	.LBB914:
 1988              	.LBB915:
 1989              	.LBB916:
  78:../../libs/libDaisy/src/dev/mpr121.h ****                    config_.dev_addr, memAddress, 1, data, memSize, 10);
 1990              		.loc 9 78 32 view .LVU470
 1991 046e 0A26     		movs	r6, #10
 1992              	.LBE916:
ARM GAS  C:\Users\skipi\AppData\Local\Temp\cceg9rRe.s 			page 66


 1993              	.LBE915:
 1994              	.LBE914:
 1995              	.LBE913:
 1996              	.LBE912:
 1997              	.LBE911:
 1998              	.LBE910:
 1999              	.LBE909:
 2000              	.LBB942:
 2001              	.LBB908:
 128:../../libs/libDaisy/src/daisy_seed.h ****     }
 2002              		.loc 1 128 23 view .LVU471
 2003 0470 FFF7FEFF 		bl	_ZN5daisy6LoggerILNS_17LoggerDestinationE1EE9PrintLineEPKcz
 2004              	.LVL125:
 128:../../libs/libDaisy/src/daisy_seed.h ****     }
 2005              		.loc 1 128 23 view .LVU472
 2006              	.LBE908:
 2007              	.LBE942:
 135:main.cpp      ****       hw.PrintLine(" ");
 2008              		.loc 10 135 7 is_stmt 1 view .LVU473
 2009              	.LBB943:
 2010              	.LBI943:
 126:../../libs/libDaisy/src/daisy_seed.h ****     {
 2011              		.loc 1 126 17 view .LVU474
 2012              	.LBB944:
 128:../../libs/libDaisy/src/daisy_seed.h ****     }
 2013              		.loc 1 128 23 is_stmt 0 view .LVU475
 2014 0474 B948     		ldr	r0, .L56
 2015 0476 FFF7FEFF 		bl	_ZN5daisy6LoggerILNS_17LoggerDestinationE1EE9PrintLineEPKcz
 2016              	.LVL126:
 128:../../libs/libDaisy/src/daisy_seed.h ****     }
 2017              		.loc 1 128 23 view .LVU476
 2018              	.LBE944:
 2019              	.LBE943:
 136:main.cpp      ****       hw.PrintLine("Baseline Untouched Value : %d", cap.BaselineData(0));
 2020              		.loc 10 136 7 is_stmt 1 view .LVU477
 2021              	.LBB945:
 2022              	.LBI909:
 214:../../libs/libDaisy/src/dev/mpr121.h ****     {
 2023              		.loc 9 214 14 view .LVU478
 2024              	.LBB939:
 2025              	.LBB936:
 2026              	.LBI911:
 214:../../libs/libDaisy/src/dev/mpr121.h ****     {
 2027              		.loc 9 214 14 view .LVU479
 2028              	.LBB933:
 2029              	.LBB930:
 2030              	.LBI913:
 237:../../libs/libDaisy/src/dev/mpr121.h ****     {
 2031              		.loc 9 237 13 view .LVU480
 2032              	.LBB927:
 2033              	.LBB919:
 2034              	.LBI915:
  75:../../libs/libDaisy/src/dev/mpr121.h ****     {
 2035              		.loc 9 75 10 view .LVU481
 2036              	.LBB917:
  77:../../libs/libDaisy/src/dev/mpr121.h ****                != i2c_.Mem_read(
 2037              		.loc 9 77 9 view .LVU482
ARM GAS  C:\Users\skipi\AppData\Local\Temp\cceg9rRe.s 			page 67


  78:../../libs/libDaisy/src/dev/mpr121.h ****                    config_.dev_addr, memAddress, 1, data, memSize, 10);
 2038              		.loc 9 78 32 is_stmt 0 view .LVU483
 2039 047a 0123     		movs	r3, #1
 2040 047c 1E22     		movs	r2, #30
 2041 047e 0095     		str	r5, [sp]
 2042 0480 B748     		ldr	r0, .L56+4
 2043              	.LBE917:
 2044              	.LBE919:
 2045              	.LBE927:
 2046              	.LBE930:
 2047              	.LBE933:
 2048              	.LBE936:
 2049              	.LBE939:
 2050              	.LBE945:
 2051              	.LBB946:
 2052              	.LBB947:
 2053              	.LBB948:
 2054              	.LBB949:
 2055              	.LBB950:
 2056              	.LBB951:
 2057 0482 4FF0020A 		mov	r10, #2
 2058              	.LBE951:
 2059              	.LBE950:
 2060              	.LBE949:
 2061              	.LBE948:
 2062              	.LBE947:
 2063              	.LBE946:
 2064              	.LBB969:
 2065              	.LBB940:
 2066              	.LBB937:
 2067              	.LBB934:
 2068              	.LBB931:
 2069              	.LBB928:
 2070              	.LBB920:
 2071              	.LBB918:
 2072 0486 CDE90136 		strd	r3, r6, [sp, #4]
 2073 048a 94F82C10 		ldrb	r1, [r4, #44]	@ zero_extendqisi2
 2074 048e FFF7FEFF 		bl	_ZN5daisy9I2CHandle8Mem_readEtttPhtm
 2075              	.LVL127:
  78:../../libs/libDaisy/src/dev/mpr121.h ****                    config_.dev_addr, memAddress, 1, data, memSize, 10);
 2076              		.loc 9 78 32 view .LVU484
 2077              	.LBE918:
 2078              	.LBE920:
 2079              	.LBB921:
 2080              	.LBI921:
 343:../../libs/libDaisy/src/dev/mpr121.h **** 
 2081              		.loc 9 343 10 is_stmt 1 view .LVU485
 2082              	.LBB922:
 343:../../libs/libDaisy/src/dev/mpr121.h **** 
 2083              		.loc 9 343 55 is_stmt 0 view .LVU486
 2084 0492 94F83020 		ldrb	r2, [r4, #48]	@ zero_extendqisi2
 2085              	.LBE922:
 2086              	.LBE921:
 241:../../libs/libDaisy/src/dev/mpr121.h ****     }
 2087              		.loc 9 241 16 view .LVU487
 2088 0496 9DF84010 		ldrb	r1, [sp, #64]	@ zero_extendqisi2
 2089              	.LBB925:
ARM GAS  C:\Users\skipi\AppData\Local\Temp\cceg9rRe.s 			page 68


 2090              	.LBB923:
 343:../../libs/libDaisy/src/dev/mpr121.h **** 
 2091              		.loc 9 343 55 view .LVU488
 2092 049a 0028     		cmp	r0, #0
 2093 049c 18BF     		it	ne
 2094 049e 42F00102 		orrne	r2, r2, #1
 2095              	.LBE923:
 2096              	.LBE925:
 2097              	.LBE928:
 2098              	.LBE931:
 2099              	.LBE934:
 2100              	.LBE937:
 2101              	.LBE940:
 2102              	.LBE969:
 2103              	.LBB970:
 2104              	.LBB971:
 128:../../libs/libDaisy/src/daisy_seed.h ****     }
 2105              		.loc 1 128 23 view .LVU489
 2106 04a2 B048     		ldr	r0, .L56+8
 2107              	.LVL128:
 128:../../libs/libDaisy/src/daisy_seed.h ****     }
 2108              		.loc 1 128 23 view .LVU490
 2109 04a4 8900     		lsls	r1, r1, #2
 2110              	.LBE971:
 2111              	.LBE970:
 2112              	.LBB973:
 2113              	.LBB941:
 2114              	.LBB938:
 2115              	.LBB935:
 2116              	.LBB932:
 2117              	.LBB929:
 2118              	.LBB926:
 2119              	.LBB924:
 343:../../libs/libDaisy/src/dev/mpr121.h **** 
 2120              		.loc 9 343 55 view .LVU491
 2121 04a6 84F83020 		strb	r2, [r4, #48]
 2122              	.LVL129:
 343:../../libs/libDaisy/src/dev/mpr121.h **** 
 2123              		.loc 9 343 55 view .LVU492
 2124              	.LBE924:
 2125              	.LBE926:
 2126              	.LBE929:
 2127              	.LBE932:
 2128              	.LBE935:
 2129              	.LBE938:
 2130              	.LBE941:
 2131              	.LBE973:
 2132              	.LBB974:
 2133              	.LBI970:
 126:../../libs/libDaisy/src/daisy_seed.h ****     {
 2134              		.loc 1 126 17 is_stmt 1 view .LVU493
 2135              	.LBB972:
 128:../../libs/libDaisy/src/daisy_seed.h ****     }
 2136              		.loc 1 128 23 is_stmt 0 view .LVU494
 2137 04aa FFF7FEFF 		bl	_ZN5daisy6LoggerILNS_17LoggerDestinationE1EE9PrintLineEPKcz
 2138              	.LVL130:
 128:../../libs/libDaisy/src/daisy_seed.h ****     }
ARM GAS  C:\Users\skipi\AppData\Local\Temp\cceg9rRe.s 			page 69


 2139              		.loc 1 128 23 view .LVU495
 2140              	.LBE972:
 2141              	.LBE974:
 137:main.cpp      ****       hw.PrintLine("Filtered Untouched Value : %d", cap.FilteredData(0));
 2142              		.loc 10 137 7 is_stmt 1 view .LVU496
 2143              	.LBB975:
 2144              	.LBI946:
 201:../../libs/libDaisy/src/dev/mpr121.h ****     {
 2145              		.loc 9 201 14 view .LVU497
 2146              	.LBB966:
 2147              	.LBI947:
 201:../../libs/libDaisy/src/dev/mpr121.h ****     {
 2148              		.loc 9 201 14 view .LVU498
 2149              	.LBB963:
 2150              	.LBI948:
 244:../../libs/libDaisy/src/dev/mpr121.h ****     {
 2151              		.loc 9 244 14 view .LVU499
 2152              	.LBB960:
 2153              	.LBB953:
 2154              	.LBI950:
  75:../../libs/libDaisy/src/dev/mpr121.h ****     {
 2155              		.loc 9 75 10 view .LVU500
 2156              	.LBB952:
  77:../../libs/libDaisy/src/dev/mpr121.h ****                != i2c_.Mem_read(
 2157              		.loc 9 77 9 view .LVU501
  78:../../libs/libDaisy/src/dev/mpr121.h ****                    config_.dev_addr, memAddress, 1, data, memSize, 10);
 2158              		.loc 9 78 32 is_stmt 0 view .LVU502
 2159 04ae 0123     		movs	r3, #1
 2160 04b0 0422     		movs	r2, #4
 2161 04b2 0095     		str	r5, [sp]
 2162 04b4 AA48     		ldr	r0, .L56+4
 2163 04b6 CDE901A6 		strd	r10, r6, [sp, #4]
 2164 04ba 94F82C10 		ldrb	r1, [r4, #44]	@ zero_extendqisi2
 2165 04be FFF7FEFF 		bl	_ZN5daisy9I2CHandle8Mem_readEtttPhtm
 2166              	.LVL131:
  78:../../libs/libDaisy/src/dev/mpr121.h ****                    config_.dev_addr, memAddress, 1, data, memSize, 10);
 2167              		.loc 9 78 32 view .LVU503
 2168              	.LBE952:
 2169              	.LBE953:
 2170              	.LBB954:
 2171              	.LBI954:
 343:../../libs/libDaisy/src/dev/mpr121.h **** 
 2172              		.loc 9 343 10 is_stmt 1 view .LVU504
 2173              	.LBB955:
 343:../../libs/libDaisy/src/dev/mpr121.h **** 
 2174              		.loc 9 343 55 is_stmt 0 view .LVU505
 2175 04c2 94F83020 		ldrb	r2, [r4, #48]	@ zero_extendqisi2
 2176              	.LBE955:
 2177              	.LBE954:
 2178              	.LBE960:
 2179              	.LBE963:
 2180              	.LBE966:
 2181              	.LBE975:
 2182              	.LBB976:
 2183              	.LBB977:
 128:../../libs/libDaisy/src/daisy_seed.h ****     }
 2184              		.loc 1 128 23 view .LVU506
ARM GAS  C:\Users\skipi\AppData\Local\Temp\cceg9rRe.s 			page 70


 2185 04c6 BDF84010 		ldrh	r1, [sp, #64]
 2186              	.LBE977:
 2187              	.LBE976:
 2188              	.LBB980:
 2189              	.LBB967:
 2190              	.LBB964:
 2191              	.LBB961:
 2192              	.LBB958:
 2193              	.LBB956:
 343:../../libs/libDaisy/src/dev/mpr121.h **** 
 2194              		.loc 9 343 55 view .LVU507
 2195 04ca 0028     		cmp	r0, #0
 2196 04cc 18BF     		it	ne
 2197 04ce 42F00102 		orrne	r2, r2, #1
 2198              	.LBE956:
 2199              	.LBE958:
 2200              	.LBE961:
 2201              	.LBE964:
 2202              	.LBE967:
 2203              	.LBE980:
 2204              	.LBB981:
 2205              	.LBB978:
 128:../../libs/libDaisy/src/daisy_seed.h ****     }
 2206              		.loc 1 128 23 view .LVU508
 2207 04d2 A548     		ldr	r0, .L56+12
 2208              	.LVL132:
 128:../../libs/libDaisy/src/daisy_seed.h ****     }
 2209              		.loc 1 128 23 view .LVU509
 2210              	.LBE978:
 2211              	.LBE981:
 2212              	.LBB982:
 2213              	.LBB968:
 2214              	.LBB965:
 2215              	.LBB962:
 2216              	.LBB959:
 2217              	.LBB957:
 343:../../libs/libDaisy/src/dev/mpr121.h **** 
 2218              		.loc 9 343 55 view .LVU510
 2219 04d4 84F83020 		strb	r2, [r4, #48]
 2220              	.LVL133:
 343:../../libs/libDaisy/src/dev/mpr121.h **** 
 2221              		.loc 9 343 55 view .LVU511
 2222              	.LBE957:
 2223              	.LBE959:
 2224              	.LBE962:
 2225              	.LBE965:
 2226              	.LBE968:
 2227              	.LBE982:
 2228              	.LBB983:
 2229              	.LBI976:
 126:../../libs/libDaisy/src/daisy_seed.h ****     {
 2230              		.loc 1 126 17 is_stmt 1 view .LVU512
 2231              	.LBB979:
 128:../../libs/libDaisy/src/daisy_seed.h ****     }
 2232              		.loc 1 128 23 is_stmt 0 view .LVU513
 2233 04d8 FFF7FEFF 		bl	_ZN5daisy6LoggerILNS_17LoggerDestinationE1EE9PrintLineEPKcz
 2234              	.LVL134:
ARM GAS  C:\Users\skipi\AppData\Local\Temp\cceg9rRe.s 			page 71


 128:../../libs/libDaisy/src/daisy_seed.h ****     }
 2235              		.loc 1 128 23 view .LVU514
 2236              	.LBE979:
 2237              	.LBE983:
 138:main.cpp      ****       hw.PrintLine("Difference Untouched Value : %d", cap.BaselineData(0) - cap.FilteredData(0));
 2238              		.loc 10 138 7 is_stmt 1 view .LVU515
 2239              	.LBB984:
 2240              	.LBI984:
 214:../../libs/libDaisy/src/dev/mpr121.h ****     {
 2241              		.loc 9 214 14 view .LVU516
 2242              	.LBB985:
 2243              	.LBB986:
 2244              	.LBI986:
 214:../../libs/libDaisy/src/dev/mpr121.h ****     {
 2245              		.loc 9 214 14 view .LVU517
 2246              	.LBB987:
 2247              	.LBB988:
 2248              	.LBI988:
 237:../../libs/libDaisy/src/dev/mpr121.h ****     {
 2249              		.loc 9 237 13 view .LVU518
 2250              	.LBB989:
 2251              	.LBB990:
 2252              	.LBI990:
  75:../../libs/libDaisy/src/dev/mpr121.h ****     {
 2253              		.loc 9 75 10 view .LVU519
 2254              	.LBB991:
  77:../../libs/libDaisy/src/dev/mpr121.h ****                != i2c_.Mem_read(
 2255              		.loc 9 77 9 view .LVU520
  78:../../libs/libDaisy/src/dev/mpr121.h ****                    config_.dev_addr, memAddress, 1, data, memSize, 10);
 2256              		.loc 9 78 32 is_stmt 0 view .LVU521
 2257 04dc 0123     		movs	r3, #1
 2258 04de 0296     		str	r6, [sp, #8]
 2259 04e0 1E22     		movs	r2, #30
 2260 04e2 9F48     		ldr	r0, .L56+4
 2261 04e4 CDE90053 		strd	r5, r3, [sp]
 2262 04e8 94F82C10 		ldrb	r1, [r4, #44]	@ zero_extendqisi2
 2263 04ec FFF7FEFF 		bl	_ZN5daisy9I2CHandle8Mem_readEtttPhtm
 2264              	.LVL135:
  78:../../libs/libDaisy/src/dev/mpr121.h ****                    config_.dev_addr, memAddress, 1, data, memSize, 10);
 2265              		.loc 9 78 32 view .LVU522
 2266              	.LBE991:
 2267              	.LBE990:
 2268              	.LBB992:
 2269              	.LBI992:
 343:../../libs/libDaisy/src/dev/mpr121.h **** 
 2270              		.loc 9 343 10 is_stmt 1 view .LVU523
 2271              	.LBE992:
 2272              	.LBE989:
 2273              	.LBE988:
 2274              	.LBE987:
 2275              	.LBE986:
 2276              	.LBE985:
 2277              	.LBE984:
 2278              	.LBB1009:
 2279              	.LBB1010:
 2280              	.LBB1011:
 2281              	.LBB1012:
ARM GAS  C:\Users\skipi\AppData\Local\Temp\cceg9rRe.s 			page 72


 2282              	.LBB1013:
 2283              	.LBB1014:
  78:../../libs/libDaisy/src/dev/mpr121.h ****                    config_.dev_addr, memAddress, 1, data, memSize, 10);
 2284              		.loc 9 78 32 is_stmt 0 view .LVU524
 2285 04f0 0296     		str	r6, [sp, #8]
 2286 04f2 CDF804A0 		str	r10, [sp, #4]
 2287 04f6 0422     		movs	r2, #4
 2288 04f8 0095     		str	r5, [sp]
 2289 04fa 0123     		movs	r3, #1
 2290              	.LBE1014:
 2291              	.LBE1013:
 2292              	.LBE1012:
 2293              	.LBE1011:
 2294              	.LBE1010:
 2295              	.LBE1009:
 2296              	.LBB1034:
 2297              	.LBB1007:
 2298              	.LBB1005:
 2299              	.LBB1003:
 2300              	.LBB1001:
 2301              	.LBB999:
 2302              	.LBB996:
 2303              	.LBB993:
 343:../../libs/libDaisy/src/dev/mpr121.h **** 
 2304              		.loc 9 343 55 view .LVU525
 2305 04fc 94F83010 		ldrb	r1, [r4, #48]	@ zero_extendqisi2
 2306              	.LBE993:
 2307              	.LBE996:
 241:../../libs/libDaisy/src/dev/mpr121.h ****     }
 2308              		.loc 9 241 16 view .LVU526
 2309 0500 9DF84060 		ldrb	r6, [sp, #64]	@ zero_extendqisi2
 2310              	.LBB997:
 2311              	.LBB994:
 343:../../libs/libDaisy/src/dev/mpr121.h **** 
 2312              		.loc 9 343 55 view .LVU527
 2313 0504 0028     		cmp	r0, #0
 2314 0506 18BF     		it	ne
 2315 0508 41F00101 		orrne	r1, r1, #1
 2316              	.LBE994:
 2317              	.LBE997:
 2318              	.LBE999:
 2319              	.LBE1001:
 2320              	.LBE1003:
 2321              	.LBE1005:
 2322              	.LBE1007:
 2323              	.LBE1034:
 2324              	.LBB1035:
 2325              	.LBB1031:
 2326              	.LBB1028:
 2327              	.LBB1025:
 2328              	.LBB1017:
 2329              	.LBB1015:
  78:../../libs/libDaisy/src/dev/mpr121.h ****                    config_.dev_addr, memAddress, 1, data, memSize, 10);
 2330              		.loc 9 78 32 view .LVU528
 2331 050c 9448     		ldr	r0, .L56+4
 2332              	.LVL136:
  78:../../libs/libDaisy/src/dev/mpr121.h ****                    config_.dev_addr, memAddress, 1, data, memSize, 10);
ARM GAS  C:\Users\skipi\AppData\Local\Temp\cceg9rRe.s 			page 73


 2333              		.loc 9 78 32 view .LVU529
 2334              	.LBE1015:
 2335              	.LBE1017:
 2336              	.LBE1025:
 2337              	.LBE1028:
 2338              	.LBE1031:
 2339              	.LBE1035:
 2340              	.LBB1036:
 2341              	.LBB1008:
 2342              	.LBB1006:
 2343              	.LBB1004:
 2344              	.LBB1002:
 2345              	.LBB1000:
 2346              	.LBB998:
 2347              	.LBB995:
 343:../../libs/libDaisy/src/dev/mpr121.h **** 
 2348              		.loc 9 343 55 view .LVU530
 2349 050e 84F83010 		strb	r1, [r4, #48]
 2350              	.LVL137:
 343:../../libs/libDaisy/src/dev/mpr121.h **** 
 2351              		.loc 9 343 55 view .LVU531
 2352              	.LBE995:
 2353              	.LBE998:
 2354              	.LBE1000:
 2355              	.LBE1002:
 2356              	.LBE1004:
 2357              	.LBE1006:
 2358              	.LBE1008:
 2359              	.LBE1036:
 2360              	.LBB1037:
 2361              	.LBI1009:
 201:../../libs/libDaisy/src/dev/mpr121.h ****     {
 2362              		.loc 9 201 14 is_stmt 1 view .LVU532
 2363              	.LBB1032:
 2364              	.LBI1010:
 201:../../libs/libDaisy/src/dev/mpr121.h ****     {
 2365              		.loc 9 201 14 view .LVU533
 2366              	.LBB1029:
 2367              	.LBI1011:
 244:../../libs/libDaisy/src/dev/mpr121.h ****     {
 2368              		.loc 9 244 14 view .LVU534
 2369              	.LBB1026:
 2370              	.LBB1018:
 2371              	.LBI1013:
  75:../../libs/libDaisy/src/dev/mpr121.h ****     {
 2372              		.loc 9 75 10 view .LVU535
 2373              	.LBB1016:
  77:../../libs/libDaisy/src/dev/mpr121.h ****                != i2c_.Mem_read(
 2374              		.loc 9 77 9 view .LVU536
  78:../../libs/libDaisy/src/dev/mpr121.h ****                    config_.dev_addr, memAddress, 1, data, memSize, 10);
 2375              		.loc 9 78 32 is_stmt 0 view .LVU537
 2376 0512 94F82C10 		ldrb	r1, [r4, #44]	@ zero_extendqisi2
 2377 0516 FFF7FEFF 		bl	_ZN5daisy9I2CHandle8Mem_readEtttPhtm
 2378              	.LVL138:
  78:../../libs/libDaisy/src/dev/mpr121.h ****                    config_.dev_addr, memAddress, 1, data, memSize, 10);
 2379              		.loc 9 78 32 view .LVU538
 2380              	.LBE1016:
ARM GAS  C:\Users\skipi\AppData\Local\Temp\cceg9rRe.s 			page 74


 2381              	.LBE1018:
 2382              	.LBB1019:
 2383              	.LBI1019:
 343:../../libs/libDaisy/src/dev/mpr121.h **** 
 2384              		.loc 9 343 10 is_stmt 1 view .LVU539
 2385              	.LBB1020:
 343:../../libs/libDaisy/src/dev/mpr121.h **** 
 2386              		.loc 9 343 55 is_stmt 0 view .LVU540
 2387 051a 94F83030 		ldrb	r3, [r4, #48]	@ zero_extendqisi2
 2388              	.LBE1020:
 2389              	.LBE1019:
 250:../../libs/libDaisy/src/dev/mpr121.h ****     }
 2390              		.loc 9 250 16 view .LVU541
 2391 051e BDF84010 		ldrh	r1, [sp, #64]
 2392              	.LBB1023:
 2393              	.LBB1021:
 343:../../libs/libDaisy/src/dev/mpr121.h **** 
 2394              		.loc 9 343 55 view .LVU542
 2395 0522 0028     		cmp	r0, #0
 2396 0524 18BF     		it	ne
 2397 0526 43F00103 		orrne	r3, r3, #1
 2398              	.LBE1021:
 2399              	.LBE1023:
 2400              	.LBE1026:
 2401              	.LBE1029:
 2402              	.LBE1032:
 2403              	.LBE1037:
 2404              	.LBB1038:
 2405              	.LBB1039:
 128:../../libs/libDaisy/src/daisy_seed.h ****     }
 2406              		.loc 1 128 23 view .LVU543
 2407 052a 9048     		ldr	r0, .L56+16
 2408              	.LVL139:
 128:../../libs/libDaisy/src/daisy_seed.h ****     }
 2409              		.loc 1 128 23 view .LVU544
 2410 052c C1EB8601 		rsb	r1, r1, r6, lsl #2
 2411              	.LBE1039:
 2412              	.LBE1038:
 2413              	.LBB1041:
 2414              	.LBB1033:
 2415              	.LBB1030:
 2416              	.LBB1027:
 2417              	.LBB1024:
 2418              	.LBB1022:
 343:../../libs/libDaisy/src/dev/mpr121.h **** 
 2419              		.loc 9 343 55 view .LVU545
 2420 0530 84F83030 		strb	r3, [r4, #48]
 2421              	.LVL140:
 343:../../libs/libDaisy/src/dev/mpr121.h **** 
 2422              		.loc 9 343 55 view .LVU546
 2423              	.LBE1022:
 2424              	.LBE1024:
 2425              	.LBE1027:
 2426              	.LBE1030:
 2427              	.LBE1033:
 2428              	.LBE1041:
 2429              	.LBB1042:
ARM GAS  C:\Users\skipi\AppData\Local\Temp\cceg9rRe.s 			page 75


 2430              	.LBI1038:
 126:../../libs/libDaisy/src/daisy_seed.h ****     {
 2431              		.loc 1 126 17 is_stmt 1 view .LVU547
 2432              	.LBB1040:
 128:../../libs/libDaisy/src/daisy_seed.h ****     }
 2433              		.loc 1 128 23 is_stmt 0 view .LVU548
 2434 0534 FFF7FEFF 		bl	_ZN5daisy6LoggerILNS_17LoggerDestinationE1EE9PrintLineEPKcz
 2435              	.LVL141:
 128:../../libs/libDaisy/src/daisy_seed.h ****     }
 2436              		.loc 1 128 23 view .LVU549
 2437              	.LBE1040:
 2438              	.LBE1042:
 139:main.cpp      ****       hw.PrintLine(" ");
 2439              		.loc 10 139 7 is_stmt 1 view .LVU550
 2440              	.LBB1043:
 2441              	.LBI1043:
 126:../../libs/libDaisy/src/daisy_seed.h ****     {
 2442              		.loc 1 126 17 view .LVU551
 2443              	.LBB1044:
 128:../../libs/libDaisy/src/daisy_seed.h ****     }
 2444              		.loc 1 128 23 is_stmt 0 view .LVU552
 2445 0538 8848     		ldr	r0, .L56
 2446 053a FFF7FEFF 		bl	_ZN5daisy6LoggerILNS_17LoggerDestinationE1EE9PrintLineEPKcz
 2447              	.LVL142:
 128:../../libs/libDaisy/src/daisy_seed.h ****     }
 2448              		.loc 1 128 23 view .LVU553
 2449              	.LBE1044:
 2450              	.LBE1043:
 140:main.cpp      ****       hw.PrintLine(" ");
 2451              		.loc 10 140 7 is_stmt 1 view .LVU554
 2452              	.LBB1045:
 2453              	.LBI1045:
 126:../../libs/libDaisy/src/daisy_seed.h ****     {
 2454              		.loc 1 126 17 view .LVU555
 2455              	.LBB1046:
 128:../../libs/libDaisy/src/daisy_seed.h ****     }
 2456              		.loc 1 128 23 is_stmt 0 view .LVU556
 2457 053e 8748     		ldr	r0, .L56
 2458 0540 FFF7FEFF 		bl	_ZN5daisy6LoggerILNS_17LoggerDestinationE1EE9PrintLineEPKcz
 2459              	.LVL143:
 2460              	.L36:
 128:../../libs/libDaisy/src/daisy_seed.h ****     }
 2461              		.loc 1 128 23 view .LVU557
 2462              	.LBE1046:
 2463              	.LBE1045:
 141:main.cpp      ****     }
 142:main.cpp      **** #endif
 143:main.cpp      **** 
 144:main.cpp      ****     lastTouched = currTouched;
 2464              		.loc 10 144 5 is_stmt 1 view .LVU558
 2465              		.loc 10 144 17 is_stmt 0 view .LVU559
 2466 0544 3B88     		ldrh	r3, [r7]
 145:main.cpp      **** 
 146:main.cpp      ****     hw.DelayMs(10);
 2467              		.loc 10 146 15 view .LVU560
 2468 0546 0A21     		movs	r1, #10
 2469 0548 8948     		ldr	r0, .L56+20
ARM GAS  C:\Users\skipi\AppData\Local\Temp\cceg9rRe.s 			page 76


 144:main.cpp      **** 
 2470              		.loc 10 144 17 view .LVU561
 2471 054a A9F80030 		strh	r3, [r9]	@ movhi
 2472              		.loc 10 146 5 is_stmt 1 view .LVU562
 2473              		.loc 10 146 15 is_stmt 0 view .LVU563
 2474 054e FFF7FEFF 		bl	_ZN5daisy9DaisySeed7DelayMsEj
 2475              	.LVL144:
  94:main.cpp      ****   {
 2476              		.loc 10 94 3 is_stmt 1 view .LVU564
 2477              	.L29:
  94:main.cpp      ****   {
 2478              		.loc 10 94 3 view .LVU565
  96:main.cpp      ****     if ((currTouched & _BV(0)) && !(lastTouched & _BV(0)) || gate) // if the channel 0 is touched a
 2479              		.loc 10 96 5 view .LVU566
 2480              	.LBB1047:
 2481              	.LBI1047:
 227:../../libs/libDaisy/src/dev/mpr121.h ****     {
 2482              		.loc 9 227 14 view .LVU567
 2483              	.LBB1048:
 2484              	.LBB1049:
 2485              	.LBI1049:
 244:../../libs/libDaisy/src/dev/mpr121.h ****     {
 2486              		.loc 9 244 14 view .LVU568
 2487              	.LBB1050:
 2488              	.LBB1051:
 2489              	.LBI1051:
  75:../../libs/libDaisy/src/dev/mpr121.h ****     {
 2490              		.loc 9 75 10 view .LVU569
 2491              	.LBB1052:
  77:../../libs/libDaisy/src/dev/mpr121.h ****                != i2c_.Mem_read(
 2492              		.loc 9 77 9 view .LVU570
  78:../../libs/libDaisy/src/dev/mpr121.h ****                    config_.dev_addr, memAddress, 1, data, memSize, 10);
 2493              		.loc 9 78 32 is_stmt 0 view .LVU571
 2494 0552 0A21     		movs	r1, #10
 2495 0554 0222     		movs	r2, #2
 2496 0556 0123     		movs	r3, #1
 2497 0558 0095     		str	r5, [sp]
 2498 055a 8148     		ldr	r0, .L56+4
 2499 055c CDE90121 		strd	r2, r1, [sp, #4]
 2500 0560 0022     		movs	r2, #0
 2501 0562 94F82C10 		ldrb	r1, [r4, #44]	@ zero_extendqisi2
 2502 0566 FFF7FEFF 		bl	_ZN5daisy9I2CHandle8Mem_readEtttPhtm
 2503              	.LVL145:
  78:../../libs/libDaisy/src/dev/mpr121.h ****                    config_.dev_addr, memAddress, 1, data, memSize, 10);
 2504              		.loc 9 78 32 view .LVU572
 2505              	.LBE1052:
 2506              	.LBE1051:
 2507              	.LBB1053:
 2508              	.LBI1053:
 343:../../libs/libDaisy/src/dev/mpr121.h **** 
 2509              		.loc 9 343 10 is_stmt 1 view .LVU573
 2510              	.LBB1054:
 343:../../libs/libDaisy/src/dev/mpr121.h **** 
 2511              		.loc 9 343 55 is_stmt 0 view .LVU574
 2512 056a 94F83030 		ldrb	r3, [r4, #48]	@ zero_extendqisi2
 2513              	.LBE1054:
 2514              	.LBE1053:
ARM GAS  C:\Users\skipi\AppData\Local\Temp\cceg9rRe.s 			page 77


 250:../../libs/libDaisy/src/dev/mpr121.h ****     }
 2515              		.loc 9 250 16 view .LVU575
 2516 056e BDF84020 		ldrh	r2, [sp, #64]
 2517              	.LBB1057:
 2518              	.LBB1055:
 343:../../libs/libDaisy/src/dev/mpr121.h **** 
 2519              		.loc 9 343 55 view .LVU576
 2520 0572 0028     		cmp	r0, #0
 2521 0574 18BF     		it	ne
 2522 0576 43F00103 		orrne	r3, r3, #1
 2523              	.LBE1055:
 2524              	.LBE1057:
 2525              	.LBE1050:
 2526              	.LBE1049:
 2527              	.LBE1048:
 2528              	.LBE1047:
  97:main.cpp      ****     {
 2529              		.loc 10 97 5 view .LVU577
 2530 057a D007     		lsls	r0, r2, #31
 2531              	.LVL146:
 2532              	.LBB1062:
 2533              	.LBB1061:
 2534              	.LBB1060:
 2535              	.LBB1059:
 2536              	.LBB1058:
 2537              	.LBB1056:
 343:../../libs/libDaisy/src/dev/mpr121.h **** 
 2538              		.loc 9 343 55 view .LVU578
 2539 057c 84F83030 		strb	r3, [r4, #48]
 2540              	.LVL147:
 343:../../libs/libDaisy/src/dev/mpr121.h **** 
 2541              		.loc 9 343 55 view .LVU579
 2542              	.LBE1056:
 2543              	.LBE1058:
 2544              	.LBE1059:
 2545              	.LBE1060:
 230:../../libs/libDaisy/src/dev/mpr121.h ****     }
 2546              		.loc 9 230 20 view .LVU580
 2547 0580 C2F30B03 		ubfx	r3, r2, #0, #12
 2548              	.LBE1061:
 2549              	.LBE1062:
  96:main.cpp      ****     if ((currTouched & _BV(0)) && !(lastTouched & _BV(0)) || gate) // if the channel 0 is touched a
 2550              		.loc 10 96 17 view .LVU581
 2551 0584 3B80     		strh	r3, [r7]	@ movhi
  97:main.cpp      ****     {
 2552              		.loc 10 97 5 is_stmt 1 view .LVU582
 2553 0586 3FF567AF 		bmi	.L49
  97:main.cpp      ****     {
 2554              		.loc 10 97 59 is_stmt 0 view .LVU583
 2555 058a 98F80030 		ldrb	r3, [r8]	@ zero_extendqisi2
 2556 058e 002B     		cmp	r3, #0
 2557 0590 5ED0     		beq	.L32
 2558              	.L37:
  99:main.cpp      ****       delta = (float)(cap.FilteredData(0) - cap.BaselineData(0) - touchTreshold); // calculates the
 2559              		.loc 10 99 7 is_stmt 1 view .LVU584
  99:main.cpp      ****       delta = (float)(cap.FilteredData(0) - cap.BaselineData(0) - touchTreshold); // calculates the
 2560              		.loc 10 99 12 is_stmt 0 view .LVU585
ARM GAS  C:\Users\skipi\AppData\Local\Temp\cceg9rRe.s 			page 78


 2561 0592 0126     		movs	r6, #1
 2562              	.LBB1063:
 2563              	.LBB1064:
 2564              	.LBB1065:
 2565              	.LBB1066:
 2566              	.LBB1067:
 2567              	.LBB1068:
  78:../../libs/libDaisy/src/dev/mpr121.h ****                    config_.dev_addr, memAddress, 1, data, memSize, 10);
 2568              		.loc 9 78 32 view .LVU586
 2569 0594 4FF00A0A 		mov	r10, #10
 2570 0598 0223     		movs	r3, #2
 2571 059a 0095     		str	r5, [sp]
 2572 059c CDF808A0 		str	r10, [sp, #8]
 2573 05a0 0422     		movs	r2, #4
 2574              	.LBE1068:
 2575              	.LBE1067:
 2576              	.LBE1066:
 2577              	.LBE1065:
 2578              	.LBE1064:
 2579              	.LBE1063:
  99:main.cpp      ****       delta = (float)(cap.FilteredData(0) - cap.BaselineData(0) - touchTreshold); // calculates the
 2580              		.loc 10 99 12 view .LVU587
 2581 05a2 88F80060 		strb	r6, [r8]
 100:main.cpp      ****       filtDelta = capFilter.Process(delta); 
 2582              		.loc 10 100 7 is_stmt 1 view .LVU588
 2583              	.LVL148:
 2584              	.LBB1087:
 2585              	.LBI1063:
 201:../../libs/libDaisy/src/dev/mpr121.h ****     {
 2586              		.loc 9 201 14 view .LVU589
 2587              	.LBB1084:
 2588              	.LBI1064:
 201:../../libs/libDaisy/src/dev/mpr121.h ****     {
 2589              		.loc 9 201 14 view .LVU590
 2590              	.LBB1081:
 2591              	.LBI1065:
 244:../../libs/libDaisy/src/dev/mpr121.h ****     {
 2592              		.loc 9 244 14 view .LVU591
 2593              	.LBB1078:
 2594              	.LBB1070:
 2595              	.LBI1067:
  75:../../libs/libDaisy/src/dev/mpr121.h ****     {
 2596              		.loc 9 75 10 view .LVU592
 2597              	.LBB1069:
  77:../../libs/libDaisy/src/dev/mpr121.h ****                != i2c_.Mem_read(
 2598              		.loc 9 77 9 view .LVU593
  78:../../libs/libDaisy/src/dev/mpr121.h ****                    config_.dev_addr, memAddress, 1, data, memSize, 10);
 2599              		.loc 9 78 32 is_stmt 0 view .LVU594
 2600 05a6 6E48     		ldr	r0, .L56+4
 2601 05a8 0193     		str	r3, [sp, #4]
 2602 05aa 3346     		mov	r3, r6
 2603 05ac 94F82C10 		ldrb	r1, [r4, #44]	@ zero_extendqisi2
 2604 05b0 FFF7FEFF 		bl	_ZN5daisy9I2CHandle8Mem_readEtttPhtm
 2605              	.LVL149:
  78:../../libs/libDaisy/src/dev/mpr121.h ****                    config_.dev_addr, memAddress, 1, data, memSize, 10);
 2606              		.loc 9 78 32 view .LVU595
 2607              	.LBE1069:
ARM GAS  C:\Users\skipi\AppData\Local\Temp\cceg9rRe.s 			page 79


 2608              	.LBE1070:
 2609              	.LBB1071:
 2610              	.LBI1071:
 343:../../libs/libDaisy/src/dev/mpr121.h **** 
 2611              		.loc 9 343 10 is_stmt 1 view .LVU596
 2612              	.LBE1071:
 2613              	.LBE1078:
 2614              	.LBE1081:
 2615              	.LBE1084:
 2616              	.LBE1087:
 2617              	.LBB1088:
 2618              	.LBB1089:
 2619              	.LBB1090:
 2620              	.LBB1091:
 2621              	.LBB1092:
 2622              	.LBB1093:
 2623              	.LBB1094:
 2624              	.LBB1095:
  78:../../libs/libDaisy/src/dev/mpr121.h ****                    config_.dev_addr, memAddress, 1, data, memSize, 10);
 2625              		.loc 9 78 32 is_stmt 0 view .LVU597
 2626 05b4 CDF808A0 		str	r10, [sp, #8]
 2627 05b8 3346     		mov	r3, r6
 2628 05ba 1E22     		movs	r2, #30
 2629 05bc CDE90056 		strd	r5, r6, [sp]
 2630              	.LBE1095:
 2631              	.LBE1094:
 2632              	.LBE1093:
 2633              	.LBE1092:
 2634              	.LBE1091:
 2635              	.LBE1090:
 2636              	.LBE1089:
 2637              	.LBE1088:
 2638              	.LBB1127:
 2639              	.LBB1085:
 2640              	.LBB1082:
 2641              	.LBB1079:
 2642              	.LBB1075:
 2643              	.LBB1072:
 343:../../libs/libDaisy/src/dev/mpr121.h **** 
 2644              		.loc 9 343 55 view .LVU598
 2645 05c0 94F83010 		ldrb	r1, [r4, #48]	@ zero_extendqisi2
 2646              	.LBE1072:
 2647              	.LBE1075:
 250:../../libs/libDaisy/src/dev/mpr121.h ****     }
 2648              		.loc 9 250 16 view .LVU599
 2649 05c4 BDF84060 		ldrh	r6, [sp, #64]
 2650              	.LBB1076:
 2651              	.LBB1073:
 343:../../libs/libDaisy/src/dev/mpr121.h **** 
 2652              		.loc 9 343 55 view .LVU600
 2653 05c8 0028     		cmp	r0, #0
 2654 05ca 18BF     		it	ne
 2655 05cc 41F00101 		orrne	r1, r1, #1
 2656              	.LBE1073:
 2657              	.LBE1076:
 2658              	.LBE1079:
 2659              	.LBE1082:
ARM GAS  C:\Users\skipi\AppData\Local\Temp\cceg9rRe.s 			page 80


 2660              	.LBE1085:
 2661              	.LBE1127:
 2662              	.LBB1128:
 2663              	.LBB1123:
 2664              	.LBB1119:
 2665              	.LBB1115:
 2666              	.LBB1111:
 2667              	.LBB1107:
 2668              	.LBB1098:
 2669              	.LBB1096:
  78:../../libs/libDaisy/src/dev/mpr121.h ****                    config_.dev_addr, memAddress, 1, data, memSize, 10);
 2670              		.loc 9 78 32 view .LVU601
 2671 05d0 6348     		ldr	r0, .L56+4
 2672              	.LVL150:
  78:../../libs/libDaisy/src/dev/mpr121.h ****                    config_.dev_addr, memAddress, 1, data, memSize, 10);
 2673              		.loc 9 78 32 view .LVU602
 2674              	.LBE1096:
 2675              	.LBE1098:
 2676              	.LBE1107:
 2677              	.LBE1111:
 2678              	.LBE1115:
 2679              	.LBE1119:
 2680              	.LBE1123:
 2681              	.LBE1128:
 2682              	.LBB1129:
 2683              	.LBB1086:
 2684              	.LBB1083:
 2685              	.LBB1080:
 2686              	.LBB1077:
 2687              	.LBB1074:
 343:../../libs/libDaisy/src/dev/mpr121.h **** 
 2688              		.loc 9 343 55 view .LVU603
 2689 05d2 84F83010 		strb	r1, [r4, #48]
 2690              	.LVL151:
 343:../../libs/libDaisy/src/dev/mpr121.h **** 
 2691              		.loc 9 343 55 view .LVU604
 2692              	.LBE1074:
 2693              	.LBE1077:
 2694              	.LBE1080:
 2695              	.LBE1083:
 2696              	.LBE1086:
 2697              	.LBE1129:
 2698              	.LBB1130:
 2699              	.LBI1088:
 214:../../libs/libDaisy/src/dev/mpr121.h ****     {
 2700              		.loc 9 214 14 is_stmt 1 view .LVU605
 2701              	.LBB1124:
 2702              	.LBB1120:
 2703              	.LBI1090:
 214:../../libs/libDaisy/src/dev/mpr121.h ****     {
 2704              		.loc 9 214 14 view .LVU606
 2705              	.LBB1116:
 2706              	.LBB1112:
 2707              	.LBI1092:
 237:../../libs/libDaisy/src/dev/mpr121.h ****     {
 2708              		.loc 9 237 13 view .LVU607
 2709              	.LBB1108:
ARM GAS  C:\Users\skipi\AppData\Local\Temp\cceg9rRe.s 			page 81


 2710              	.LBB1099:
 2711              	.LBI1094:
  75:../../libs/libDaisy/src/dev/mpr121.h ****     {
 2712              		.loc 9 75 10 view .LVU608
 2713              	.LBB1097:
  77:../../libs/libDaisy/src/dev/mpr121.h ****                != i2c_.Mem_read(
 2714              		.loc 9 77 9 view .LVU609
  78:../../libs/libDaisy/src/dev/mpr121.h ****                    config_.dev_addr, memAddress, 1, data, memSize, 10);
 2715              		.loc 9 78 32 is_stmt 0 view .LVU610
 2716 05d6 94F82C10 		ldrb	r1, [r4, #44]	@ zero_extendqisi2
 2717 05da FFF7FEFF 		bl	_ZN5daisy9I2CHandle8Mem_readEtttPhtm
 2718              	.LVL152:
  78:../../libs/libDaisy/src/dev/mpr121.h ****                    config_.dev_addr, memAddress, 1, data, memSize, 10);
 2719              		.loc 9 78 32 view .LVU611
 2720              	.LBE1097:
 2721              	.LBE1099:
 2722              	.LBB1100:
 2723              	.LBI1100:
 343:../../libs/libDaisy/src/dev/mpr121.h **** 
 2724              		.loc 9 343 10 is_stmt 1 view .LVU612
 2725              	.LBE1100:
 241:../../libs/libDaisy/src/dev/mpr121.h ****     }
 2726              		.loc 9 241 16 is_stmt 0 view .LVU613
 2727 05de 9DF84020 		ldrb	r2, [sp, #64]	@ zero_extendqisi2
 2728              	.LBB1104:
 2729              	.LBB1101:
 343:../../libs/libDaisy/src/dev/mpr121.h **** 
 2730              		.loc 9 343 55 view .LVU614
 2731 05e2 94F83030 		ldrb	r3, [r4, #48]	@ zero_extendqisi2
 2732              	.LBE1101:
 2733              	.LBE1104:
 2734              	.LBE1108:
 2735              	.LBE1112:
 2736              	.LBE1116:
 2737              	.LBE1120:
 2738              	.LBE1124:
 2739              	.LBE1130:
 100:main.cpp      ****       filtDelta = capFilter.Process(delta); 
 2740              		.loc 10 100 43 view .LVU615
 2741 05e6 A6EB8206 		sub	r6, r6, r2, lsl #2
 100:main.cpp      ****       filtDelta = capFilter.Process(delta); 
 2742              		.loc 10 100 67 view .LVU616
 2743 05ea 624A     		ldr	r2, .L56+24
 2744              	.LBB1131:
 2745              	.LBB1125:
 2746              	.LBB1121:
 2747              	.LBB1117:
 2748              	.LBB1113:
 2749              	.LBB1109:
 2750              	.LBB1105:
 2751              	.LBB1102:
 343:../../libs/libDaisy/src/dev/mpr121.h **** 
 2752              		.loc 9 343 55 view .LVU617
 2753 05ec 0028     		cmp	r0, #0
 2754 05ee 18BF     		it	ne
 2755 05f0 43F00103 		orrne	r3, r3, #1
 2756              	.LBE1102:
ARM GAS  C:\Users\skipi\AppData\Local\Temp\cceg9rRe.s 			page 82


 2757              	.LBE1105:
 2758              	.LBE1109:
 2759              	.LBE1113:
 2760              	.LBE1117:
 2761              	.LBE1121:
 2762              	.LBE1125:
 2763              	.LBE1131:
 101:main.cpp      ****       f = 880 + (filtDelta / 70) * 880;
 2764              		.loc 10 101 36 view .LVU618
 2765 05f4 6048     		ldr	r0, .L56+28
 2766              	.LVL153:
 100:main.cpp      ****       filtDelta = capFilter.Process(delta); 
 2767              		.loc 10 100 67 view .LVU619
 2768 05f6 1278     		ldrb	r2, [r2]	@ zero_extendqisi2
 2769              	.LBB1132:
 2770              	.LBB1126:
 2771              	.LBB1122:
 2772              	.LBB1118:
 2773              	.LBB1114:
 2774              	.LBB1110:
 2775              	.LBB1106:
 2776              	.LBB1103:
 343:../../libs/libDaisy/src/dev/mpr121.h **** 
 2777              		.loc 9 343 55 view .LVU620
 2778 05f8 84F83030 		strb	r3, [r4, #48]
 2779              	.LVL154:
 343:../../libs/libDaisy/src/dev/mpr121.h **** 
 2780              		.loc 9 343 55 view .LVU621
 2781              	.LBE1103:
 2782              	.LBE1106:
 2783              	.LBE1110:
 2784              	.LBE1114:
 2785              	.LBE1118:
 2786              	.LBE1122:
 2787              	.LBE1126:
 2788              	.LBE1132:
 100:main.cpp      ****       filtDelta = capFilter.Process(delta); 
 2789              		.loc 10 100 65 view .LVU622
 2790 05fc B61A     		subs	r6, r6, r2
 100:main.cpp      ****       filtDelta = capFilter.Process(delta); 
 2791              		.loc 10 100 13 view .LVU623
 2792 05fe 5F4B     		ldr	r3, .L56+32
 100:main.cpp      ****       filtDelta = capFilter.Process(delta); 
 2793              		.loc 10 100 15 view .LVU624
 2794 0600 07EE906A 		vmov	s15, r6	@ int
 2795 0604 B8EEE70A 		vcvt.f32.s32	s0, s15
 100:main.cpp      ****       filtDelta = capFilter.Process(delta); 
 2796              		.loc 10 100 13 view .LVU625
 2797 0608 83ED000A 		vstr.32	s0, [r3]
 101:main.cpp      ****       f = 880 + (filtDelta / 70) * 880;
 2798              		.loc 10 101 7 is_stmt 1 view .LVU626
 101:main.cpp      ****       f = 880 + (filtDelta / 70) * 880;
 2799              		.loc 10 101 36 is_stmt 0 view .LVU627
 2800 060c FFF7FEFF 		bl	_ZN6CapFir7ProcessEf
 2801              	.LVL155:
 102:main.cpp      ****       osc.SetFreq(f);
 2802              		.loc 10 102 28 view .LVU628
ARM GAS  C:\Users\skipi\AppData\Local\Temp\cceg9rRe.s 			page 83


 2803 0610 DFED5B6A 		vldr.32	s13, .L56+36
 102:main.cpp      ****       osc.SetFreq(f);
 2804              		.loc 10 102 15 view .LVU629
 2805 0614 DFED5B7A 		vldr.32	s15, .L56+40
 102:main.cpp      ****       osc.SetFreq(f);
 2806              		.loc 10 102 28 view .LVU630
 2807 0618 80EE267A 		vdiv.f32	s14, s0, s13
 101:main.cpp      ****       f = 880 + (filtDelta / 70) * 880;
 2808              		.loc 10 101 17 view .LVU631
 2809 061c 5A4B     		ldr	r3, .L56+44
 2810              	.LBB1133:
 2811              	.LBB1134:
  70:../../libs/DaisySP/Source/Synthesis/oscillator.h ****     }
 2812              		.loc 8 70 34 view .LVU632
 2813 061e 5B48     		ldr	r0, .L56+48
 2814              	.LBE1134:
 2815              	.LBE1133:
 101:main.cpp      ****       f = 880 + (filtDelta / 70) * 880;
 2816              		.loc 10 101 17 view .LVU633
 2817 0620 83ED000A 		vstr.32	s0, [r3]
 102:main.cpp      ****       osc.SetFreq(f);
 2818              		.loc 10 102 7 is_stmt 1 view .LVU634
 2819              	.LBB1139:
 2820              	.LBB1135:
  69:../../libs/DaisySP/Source/Synthesis/oscillator.h ****         phase_inc_ = CalcPhaseInc(f);
 2821              		.loc 8 69 20 is_stmt 0 view .LVU635
 2822 0624 0646     		mov	r6, r0
 2823              	.LBE1135:
 2824              	.LBE1139:
 102:main.cpp      ****       osc.SetFreq(f);
 2825              		.loc 10 102 15 view .LVU636
 2826 0626 E7EE277A 		vfma.f32	s15, s14, s15
 2827 062a B0EE670A 		vmov.f32	s0, s15
 2828              	.LBB1140:
 2829              	.LBB1136:
  69:../../libs/DaisySP/Source/Synthesis/oscillator.h ****         phase_inc_ = CalcPhaseInc(f);
 2830              		.loc 8 69 20 view .LVU637
 2831 062e C0ED027A 		vstr.32	s15, [r0, #8]
 2832              	.LBE1136:
 2833              	.LBE1140:
 102:main.cpp      ****       osc.SetFreq(f);
 2834              		.loc 10 102 9 view .LVU638
 2835 0632 CBED007A 		vstr.32	s15, [fp]
 103:main.cpp      ****       #ifdef DEBUG // sets the gate to true
 2836              		.loc 10 103 7 is_stmt 1 view .LVU639
 2837              	.LVL156:
 2838              	.LBB1141:
 2839              	.LBI1133:
  67:../../libs/DaisySP/Source/Synthesis/oscillator.h ****     {
 2840              		.loc 8 67 17 view .LVU640
 2841              	.LBB1137:
  69:../../libs/DaisySP/Source/Synthesis/oscillator.h ****         phase_inc_ = CalcPhaseInc(f);
 2842              		.loc 8 69 9 view .LVU641
  70:../../libs/DaisySP/Source/Synthesis/oscillator.h ****     }
 2843              		.loc 8 70 9 view .LVU642
  70:../../libs/DaisySP/Source/Synthesis/oscillator.h ****     }
 2844              		.loc 8 70 34 is_stmt 0 view .LVU643
ARM GAS  C:\Users\skipi\AppData\Local\Temp\cceg9rRe.s 			page 84


 2845 0636 FFF7FEFF 		bl	_ZN7daisysp10Oscillator12CalcPhaseIncEf
 2846              	.LVL157:
  70:../../libs/DaisySP/Source/Synthesis/oscillator.h ****     }
 2847              		.loc 8 70 34 view .LVU644
 2848              	.LBE1137:
 2849              	.LBE1141:
 2850              	.LBB1142:
 2851              	.LBB1143:
 128:../../libs/libDaisy/src/daisy_seed.h ****     }
 2852              		.loc 1 128 23 view .LVU645
 2853 063a 5548     		ldr	r0, .L56+52
 2854              	.LBE1143:
 2855              	.LBE1142:
 2856              	.LBB1145:
 2857              	.LBB1138:
  70:../../libs/DaisySP/Source/Synthesis/oscillator.h ****     }
 2858              		.loc 8 70 20 view .LVU646
 2859 063c 86ED070A 		vstr.32	s0, [r6, #28]
 2860              	.LVL158:
  70:../../libs/DaisySP/Source/Synthesis/oscillator.h ****     }
 2861              		.loc 8 70 20 view .LVU647
 2862              	.LBE1138:
 2863              	.LBE1145:
 105:main.cpp      ****         hw.PrintLine("CAP 0 touched");
 2864              		.loc 10 105 9 is_stmt 1 view .LVU648
 2865              	.LBB1146:
 2866              	.LBI1142:
 126:../../libs/libDaisy/src/daisy_seed.h ****     {
 2867              		.loc 1 126 17 view .LVU649
 2868              	.LBB1144:
 128:../../libs/libDaisy/src/daisy_seed.h ****     }
 2869              		.loc 1 128 23 is_stmt 0 view .LVU650
 2870 0640 FFF7FEFF 		bl	_ZN5daisy6LoggerILNS_17LoggerDestinationE1EE9PrintLineEPKcz
 2871              	.LVL159:
 128:../../libs/libDaisy/src/daisy_seed.h ****     }
 2872              		.loc 1 128 23 view .LVU651
 2873              	.LBE1144:
 2874              	.LBE1146:
 106:main.cpp      ****       #endif
 2875              		.loc 10 106 9 is_stmt 1 view .LVU652
 2876              	.LBB1147:
 2877              	.LBI1147:
 126:../../libs/libDaisy/src/daisy_seed.h ****     {
 2878              		.loc 1 126 17 view .LVU653
 2879              	.LBB1148:
 128:../../libs/libDaisy/src/daisy_seed.h ****     }
 2880              		.loc 1 128 23 is_stmt 0 view .LVU654
 2881 0644 5348     		ldr	r0, .L56+56
 2882 0646 FFF7FEFF 		bl	_ZN5daisy6LoggerILNS_17LoggerDestinationE1EE9PrintLineEPKcz
 2883              	.LVL160:
 128:../../libs/libDaisy/src/daisy_seed.h ****     }
 2884              		.loc 1 128 23 view .LVU655
 2885              	.LBE1148:
 2886              	.LBE1147:
 110:main.cpp      ****     {
 2887              		.loc 10 110 5 is_stmt 1 view .LVU656
 2888 064a 3B88     		ldrh	r3, [r7]
ARM GAS  C:\Users\skipi\AppData\Local\Temp\cceg9rRe.s 			page 85


 2889 064c DA07     		lsls	r2, r3, #31
 2890 064e 03D4     		bmi	.L33
 2891              	.L32:
 110:main.cpp      ****     {
 2892              		.loc 10 110 33 is_stmt 0 view .LVU657
 2893 0650 B9F80030 		ldrh	r3, [r9]
 2894 0654 DB07     		lsls	r3, r3, #31
 2895 0656 74D4     		bmi	.L50
 2896              	.L33:
 123:main.cpp      ****     {
 2897              		.loc 10 123 5 is_stmt 1 view .LVU658
 2898 0658 98F80030 		ldrb	r3, [r8]	@ zero_extendqisi2
 2899 065c 002B     		cmp	r3, #0
 2900 065e 3FF405AF 		beq	.L35
 125:main.cpp      ****       hw.PrintLine("| Baseline Touched Value : %d |", cap.BaselineData(0));
 2901              		.loc 10 125 7 view .LVU659
 2902              	.LVL161:
 2903              	.LBB1149:
 2904              	.LBI1149:
 126:../../libs/libDaisy/src/daisy_seed.h ****     {
 2905              		.loc 1 126 17 view .LVU660
 2906              	.LBB1150:
 128:../../libs/libDaisy/src/daisy_seed.h ****     }
 2907              		.loc 1 128 23 is_stmt 0 view .LVU661
 2908 0662 4D48     		ldr	r0, .L56+60
 2909              	.LBE1150:
 2910              	.LBE1149:
 2911              	.LBB1152:
 2912              	.LBB1153:
 2913              	.LBB1154:
 2914              	.LBB1155:
 2915              	.LBB1156:
 2916              	.LBB1157:
 2917              	.LBB1158:
 2918              	.LBB1159:
  78:../../libs/libDaisy/src/dev/mpr121.h ****                    config_.dev_addr, memAddress, 1, data, memSize, 10);
 2919              		.loc 9 78 32 view .LVU662
 2920 0664 0A26     		movs	r6, #10
 2921              	.LBE1159:
 2922              	.LBE1158:
 2923              	.LBE1157:
 2924              	.LBE1156:
 2925              	.LBE1155:
 2926              	.LBE1154:
 2927              	.LBE1153:
 2928              	.LBE1152:
 2929              	.LBB1185:
 2930              	.LBB1151:
 128:../../libs/libDaisy/src/daisy_seed.h ****     }
 2931              		.loc 1 128 23 view .LVU663
 2932 0666 FFF7FEFF 		bl	_ZN5daisy6LoggerILNS_17LoggerDestinationE1EE9PrintLineEPKcz
 2933              	.LVL162:
 128:../../libs/libDaisy/src/daisy_seed.h ****     }
 2934              		.loc 1 128 23 view .LVU664
 2935              	.LBE1151:
 2936              	.LBE1185:
 126:main.cpp      ****       hw.PrintLine("| Filtered Touched Value : %d |", cap.FilteredData(0));
ARM GAS  C:\Users\skipi\AppData\Local\Temp\cceg9rRe.s 			page 86


 2937              		.loc 10 126 7 is_stmt 1 view .LVU665
 2938              	.LBB1186:
 2939              	.LBI1152:
 214:../../libs/libDaisy/src/dev/mpr121.h ****     {
 2940              		.loc 9 214 14 view .LVU666
 2941              	.LBB1182:
 2942              	.LBB1179:
 2943              	.LBI1154:
 214:../../libs/libDaisy/src/dev/mpr121.h ****     {
 2944              		.loc 9 214 14 view .LVU667
 2945              	.LBB1176:
 2946              	.LBB1173:
 2947              	.LBI1156:
 237:../../libs/libDaisy/src/dev/mpr121.h ****     {
 2948              		.loc 9 237 13 view .LVU668
 2949              	.LBB1170:
 2950              	.LBB1162:
 2951              	.LBI1158:
  75:../../libs/libDaisy/src/dev/mpr121.h ****     {
 2952              		.loc 9 75 10 view .LVU669
 2953              	.LBB1160:
  77:../../libs/libDaisy/src/dev/mpr121.h ****                != i2c_.Mem_read(
 2954              		.loc 9 77 9 view .LVU670
  78:../../libs/libDaisy/src/dev/mpr121.h ****                    config_.dev_addr, memAddress, 1, data, memSize, 10);
 2955              		.loc 9 78 32 is_stmt 0 view .LVU671
 2956 066a 0123     		movs	r3, #1
 2957 066c 0095     		str	r5, [sp]
 2958 066e 1E22     		movs	r2, #30
 2959 0670 3B48     		ldr	r0, .L56+4
 2960              	.LBE1160:
 2961              	.LBE1162:
 2962              	.LBE1170:
 2963              	.LBE1173:
 2964              	.LBE1176:
 2965              	.LBE1179:
 2966              	.LBE1182:
 2967              	.LBE1186:
 2968              	.LBB1187:
 2969              	.LBB1188:
 2970              	.LBB1189:
 2971              	.LBB1190:
 2972              	.LBB1191:
 2973              	.LBB1192:
 2974 0672 4FF0020A 		mov	r10, #2
 2975              	.LBE1192:
 2976              	.LBE1191:
 2977              	.LBE1190:
 2978              	.LBE1189:
 2979              	.LBE1188:
 2980              	.LBE1187:
 2981              	.LBB1210:
 2982              	.LBB1183:
 2983              	.LBB1180:
 2984              	.LBB1177:
 2985              	.LBB1174:
 2986              	.LBB1171:
 2987              	.LBB1163:
ARM GAS  C:\Users\skipi\AppData\Local\Temp\cceg9rRe.s 			page 87


 2988              	.LBB1161:
 2989 0676 CDE90136 		strd	r3, r6, [sp, #4]
 2990 067a 94F82C10 		ldrb	r1, [r4, #44]	@ zero_extendqisi2
 2991 067e FFF7FEFF 		bl	_ZN5daisy9I2CHandle8Mem_readEtttPhtm
 2992              	.LVL163:
  78:../../libs/libDaisy/src/dev/mpr121.h ****                    config_.dev_addr, memAddress, 1, data, memSize, 10);
 2993              		.loc 9 78 32 view .LVU672
 2994              	.LBE1161:
 2995              	.LBE1163:
 2996              	.LBB1164:
 2997              	.LBI1164:
 343:../../libs/libDaisy/src/dev/mpr121.h **** 
 2998              		.loc 9 343 10 is_stmt 1 view .LVU673
 2999              	.LBB1165:
 343:../../libs/libDaisy/src/dev/mpr121.h **** 
 3000              		.loc 9 343 55 is_stmt 0 view .LVU674
 3001 0682 94F83020 		ldrb	r2, [r4, #48]	@ zero_extendqisi2
 3002              	.LBE1165:
 3003              	.LBE1164:
 241:../../libs/libDaisy/src/dev/mpr121.h ****     }
 3004              		.loc 9 241 16 view .LVU675
 3005 0686 9DF84010 		ldrb	r1, [sp, #64]	@ zero_extendqisi2
 3006              	.LBB1168:
 3007              	.LBB1166:
 343:../../libs/libDaisy/src/dev/mpr121.h **** 
 3008              		.loc 9 343 55 view .LVU676
 3009 068a 0028     		cmp	r0, #0
 3010 068c 18BF     		it	ne
 3011 068e 42F00102 		orrne	r2, r2, #1
 3012              	.LBE1166:
 3013              	.LBE1168:
 3014              	.LBE1171:
 3015              	.LBE1174:
 3016              	.LBE1177:
 3017              	.LBE1180:
 3018              	.LBE1183:
 3019              	.LBE1210:
 3020              	.LBB1211:
 3021              	.LBB1212:
 128:../../libs/libDaisy/src/daisy_seed.h ****     }
 3022              		.loc 1 128 23 view .LVU677
 3023 0692 4248     		ldr	r0, .L56+64
 3024              	.LVL164:
 128:../../libs/libDaisy/src/daisy_seed.h ****     }
 3025              		.loc 1 128 23 view .LVU678
 3026 0694 8900     		lsls	r1, r1, #2
 3027              	.LBE1212:
 3028              	.LBE1211:
 3029              	.LBB1214:
 3030              	.LBB1184:
 3031              	.LBB1181:
 3032              	.LBB1178:
 3033              	.LBB1175:
 3034              	.LBB1172:
 3035              	.LBB1169:
 3036              	.LBB1167:
 343:../../libs/libDaisy/src/dev/mpr121.h **** 
ARM GAS  C:\Users\skipi\AppData\Local\Temp\cceg9rRe.s 			page 88


 3037              		.loc 9 343 55 view .LVU679
 3038 0696 84F83020 		strb	r2, [r4, #48]
 3039              	.LVL165:
 343:../../libs/libDaisy/src/dev/mpr121.h **** 
 3040              		.loc 9 343 55 view .LVU680
 3041              	.LBE1167:
 3042              	.LBE1169:
 3043              	.LBE1172:
 3044              	.LBE1175:
 3045              	.LBE1178:
 3046              	.LBE1181:
 3047              	.LBE1184:
 3048              	.LBE1214:
 3049              	.LBB1215:
 3050              	.LBI1211:
 126:../../libs/libDaisy/src/daisy_seed.h ****     {
 3051              		.loc 1 126 17 is_stmt 1 view .LVU681
 3052              	.LBB1213:
 128:../../libs/libDaisy/src/daisy_seed.h ****     }
 3053              		.loc 1 128 23 is_stmt 0 view .LVU682
 3054 069a FFF7FEFF 		bl	_ZN5daisy6LoggerILNS_17LoggerDestinationE1EE9PrintLineEPKcz
 3055              	.LVL166:
 128:../../libs/libDaisy/src/daisy_seed.h ****     }
 3056              		.loc 1 128 23 view .LVU683
 3057              	.LBE1213:
 3058              	.LBE1215:
 127:main.cpp      ****       hw.PrintLine("| Difference Touched Value : %d |", cap.BaselineData(0) - cap.FilteredData(0));
 3059              		.loc 10 127 7 is_stmt 1 view .LVU684
 3060              	.LBB1216:
 3061              	.LBI1187:
 201:../../libs/libDaisy/src/dev/mpr121.h ****     {
 3062              		.loc 9 201 14 view .LVU685
 3063              	.LBB1207:
 3064              	.LBI1188:
 201:../../libs/libDaisy/src/dev/mpr121.h ****     {
 3065              		.loc 9 201 14 view .LVU686
 3066              	.LBB1204:
 3067              	.LBI1189:
 244:../../libs/libDaisy/src/dev/mpr121.h ****     {
 3068              		.loc 9 244 14 view .LVU687
 3069              	.LBB1201:
 3070              	.LBB1194:
 3071              	.LBI1191:
  75:../../libs/libDaisy/src/dev/mpr121.h ****     {
 3072              		.loc 9 75 10 view .LVU688
 3073              	.LBB1193:
  77:../../libs/libDaisy/src/dev/mpr121.h ****                != i2c_.Mem_read(
 3074              		.loc 9 77 9 view .LVU689
  78:../../libs/libDaisy/src/dev/mpr121.h ****                    config_.dev_addr, memAddress, 1, data, memSize, 10);
 3075              		.loc 9 78 32 is_stmt 0 view .LVU690
 3076 069e 0123     		movs	r3, #1
 3077 06a0 0095     		str	r5, [sp]
 3078 06a2 0422     		movs	r2, #4
 3079 06a4 2E48     		ldr	r0, .L56+4
 3080 06a6 CDE901A6 		strd	r10, r6, [sp, #4]
 3081 06aa 94F82C10 		ldrb	r1, [r4, #44]	@ zero_extendqisi2
 3082 06ae FFF7FEFF 		bl	_ZN5daisy9I2CHandle8Mem_readEtttPhtm
ARM GAS  C:\Users\skipi\AppData\Local\Temp\cceg9rRe.s 			page 89


 3083              	.LVL167:
  78:../../libs/libDaisy/src/dev/mpr121.h ****                    config_.dev_addr, memAddress, 1, data, memSize, 10);
 3084              		.loc 9 78 32 view .LVU691
 3085              	.LBE1193:
 3086              	.LBE1194:
 3087              	.LBB1195:
 3088              	.LBI1195:
 343:../../libs/libDaisy/src/dev/mpr121.h **** 
 3089              		.loc 9 343 10 is_stmt 1 view .LVU692
 3090              	.LBB1196:
 343:../../libs/libDaisy/src/dev/mpr121.h **** 
 3091              		.loc 9 343 55 is_stmt 0 view .LVU693
 3092 06b2 94F83020 		ldrb	r2, [r4, #48]	@ zero_extendqisi2
 3093              	.LBE1196:
 3094              	.LBE1195:
 3095              	.LBE1201:
 3096              	.LBE1204:
 3097              	.LBE1207:
 3098              	.LBE1216:
 3099              	.LBB1217:
 3100              	.LBB1218:
 128:../../libs/libDaisy/src/daisy_seed.h ****     }
 3101              		.loc 1 128 23 view .LVU694
 3102 06b6 BDF84010 		ldrh	r1, [sp, #64]
 3103              	.LBE1218:
 3104              	.LBE1217:
 3105              	.LBB1221:
 3106              	.LBB1208:
 3107              	.LBB1205:
 3108              	.LBB1202:
 3109              	.LBB1199:
 3110              	.LBB1197:
 343:../../libs/libDaisy/src/dev/mpr121.h **** 
 3111              		.loc 9 343 55 view .LVU695
 3112 06ba 0028     		cmp	r0, #0
 3113 06bc 18BF     		it	ne
 3114 06be 42F00102 		orrne	r2, r2, #1
 3115              	.LBE1197:
 3116              	.LBE1199:
 3117              	.LBE1202:
 3118              	.LBE1205:
 3119              	.LBE1208:
 3120              	.LBE1221:
 3121              	.LBB1222:
 3122              	.LBB1219:
 128:../../libs/libDaisy/src/daisy_seed.h ****     }
 3123              		.loc 1 128 23 view .LVU696
 3124 06c2 3748     		ldr	r0, .L56+68
 3125              	.LVL168:
 128:../../libs/libDaisy/src/daisy_seed.h ****     }
 3126              		.loc 1 128 23 view .LVU697
 3127              	.LBE1219:
 3128              	.LBE1222:
 3129              	.LBB1223:
 3130              	.LBB1209:
 3131              	.LBB1206:
 3132              	.LBB1203:
ARM GAS  C:\Users\skipi\AppData\Local\Temp\cceg9rRe.s 			page 90


 3133              	.LBB1200:
 3134              	.LBB1198:
 343:../../libs/libDaisy/src/dev/mpr121.h **** 
 3135              		.loc 9 343 55 view .LVU698
 3136 06c4 84F83020 		strb	r2, [r4, #48]
 3137              	.LVL169:
 343:../../libs/libDaisy/src/dev/mpr121.h **** 
 3138              		.loc 9 343 55 view .LVU699
 3139              	.LBE1198:
 3140              	.LBE1200:
 3141              	.LBE1203:
 3142              	.LBE1206:
 3143              	.LBE1209:
 3144              	.LBE1223:
 3145              	.LBB1224:
 3146              	.LBI1217:
 126:../../libs/libDaisy/src/daisy_seed.h ****     {
 3147              		.loc 1 126 17 is_stmt 1 view .LVU700
 3148              	.LBB1220:
 128:../../libs/libDaisy/src/daisy_seed.h ****     }
 3149              		.loc 1 128 23 is_stmt 0 view .LVU701
 3150 06c8 FFF7FEFF 		bl	_ZN5daisy6LoggerILNS_17LoggerDestinationE1EE9PrintLineEPKcz
 3151              	.LVL170:
 128:../../libs/libDaisy/src/daisy_seed.h ****     }
 3152              		.loc 1 128 23 view .LVU702
 3153              	.LBE1220:
 3154              	.LBE1224:
 128:main.cpp      ****       hw.PrintLine("| Frequency : %f |", f);
 3155              		.loc 10 128 7 is_stmt 1 view .LVU703
 3156              	.LBB1225:
 3157              	.LBI1225:
 214:../../libs/libDaisy/src/dev/mpr121.h ****     {
 3158              		.loc 9 214 14 view .LVU704
 3159              	.LBB1226:
 3160              	.LBB1227:
 3161              	.LBI1227:
 214:../../libs/libDaisy/src/dev/mpr121.h ****     {
 3162              		.loc 9 214 14 view .LVU705
 3163              	.LBB1228:
 3164              	.LBB1229:
 3165              	.LBI1229:
 237:../../libs/libDaisy/src/dev/mpr121.h ****     {
 3166              		.loc 9 237 13 view .LVU706
 3167              	.LBB1230:
 3168              	.LBB1231:
 3169              	.LBI1231:
  75:../../libs/libDaisy/src/dev/mpr121.h ****     {
 3170              		.loc 9 75 10 view .LVU707
 3171              	.LBB1232:
  77:../../libs/libDaisy/src/dev/mpr121.h ****                != i2c_.Mem_read(
 3172              		.loc 9 77 9 view .LVU708
  78:../../libs/libDaisy/src/dev/mpr121.h ****                    config_.dev_addr, memAddress, 1, data, memSize, 10);
 3173              		.loc 9 78 32 is_stmt 0 view .LVU709
 3174 06cc 0123     		movs	r3, #1
 3175 06ce 0296     		str	r6, [sp, #8]
 3176 06d0 1E22     		movs	r2, #30
 3177 06d2 2348     		ldr	r0, .L56+4
ARM GAS  C:\Users\skipi\AppData\Local\Temp\cceg9rRe.s 			page 91


 3178 06d4 CDE90053 		strd	r5, r3, [sp]
 3179 06d8 94F82C10 		ldrb	r1, [r4, #44]	@ zero_extendqisi2
 3180 06dc FFF7FEFF 		bl	_ZN5daisy9I2CHandle8Mem_readEtttPhtm
 3181              	.LVL171:
  78:../../libs/libDaisy/src/dev/mpr121.h ****                    config_.dev_addr, memAddress, 1, data, memSize, 10);
 3182              		.loc 9 78 32 view .LVU710
 3183              	.LBE1232:
 3184              	.LBE1231:
 3185              	.LBB1233:
 3186              	.LBI1233:
 343:../../libs/libDaisy/src/dev/mpr121.h **** 
 3187              		.loc 9 343 10 is_stmt 1 view .LVU711
 3188              	.LBE1233:
 3189              	.LBE1230:
 3190              	.LBE1229:
 3191              	.LBE1228:
 3192              	.LBE1227:
 3193              	.LBE1226:
 3194              	.LBE1225:
 3195              	.LBB1250:
 3196              	.LBB1251:
 3197              	.LBB1252:
 3198              	.LBB1253:
 3199              	.LBB1254:
 3200              	.LBB1255:
  78:../../libs/libDaisy/src/dev/mpr121.h ****                    config_.dev_addr, memAddress, 1, data, memSize, 10);
 3201              		.loc 9 78 32 is_stmt 0 view .LVU712
 3202 06e0 0296     		str	r6, [sp, #8]
 3203 06e2 CDF804A0 		str	r10, [sp, #4]
 3204 06e6 0422     		movs	r2, #4
 3205 06e8 0095     		str	r5, [sp]
 3206 06ea 0123     		movs	r3, #1
 3207              	.LBE1255:
 3208              	.LBE1254:
 3209              	.LBE1253:
 3210              	.LBE1252:
 3211              	.LBE1251:
 3212              	.LBE1250:
 3213              	.LBB1275:
 3214              	.LBB1248:
 3215              	.LBB1246:
 3216              	.LBB1244:
 3217              	.LBB1242:
 3218              	.LBB1240:
 3219              	.LBB1237:
 3220              	.LBB1234:
 343:../../libs/libDaisy/src/dev/mpr121.h **** 
 3221              		.loc 9 343 55 view .LVU713
 3222 06ec 94F83010 		ldrb	r1, [r4, #48]	@ zero_extendqisi2
 3223              	.LBE1234:
 3224              	.LBE1237:
 241:../../libs/libDaisy/src/dev/mpr121.h ****     }
 3225              		.loc 9 241 16 view .LVU714
 3226 06f0 9DF84060 		ldrb	r6, [sp, #64]	@ zero_extendqisi2
 3227              	.LBB1238:
 3228              	.LBB1235:
 343:../../libs/libDaisy/src/dev/mpr121.h **** 
ARM GAS  C:\Users\skipi\AppData\Local\Temp\cceg9rRe.s 			page 92


 3229              		.loc 9 343 55 view .LVU715
 3230 06f4 0028     		cmp	r0, #0
 3231 06f6 18BF     		it	ne
 3232 06f8 41F00101 		orrne	r1, r1, #1
 3233              	.LBE1235:
 3234              	.LBE1238:
 3235              	.LBE1240:
 3236              	.LBE1242:
 3237              	.LBE1244:
 3238              	.LBE1246:
 3239              	.LBE1248:
 3240              	.LBE1275:
 3241              	.LBB1276:
 3242              	.LBB1272:
 3243              	.LBB1269:
 3244              	.LBB1266:
 3245              	.LBB1258:
 3246              	.LBB1256:
  78:../../libs/libDaisy/src/dev/mpr121.h ****                    config_.dev_addr, memAddress, 1, data, memSize, 10);
 3247              		.loc 9 78 32 view .LVU716
 3248 06fc 1848     		ldr	r0, .L56+4
 3249              	.LVL172:
  78:../../libs/libDaisy/src/dev/mpr121.h ****                    config_.dev_addr, memAddress, 1, data, memSize, 10);
 3250              		.loc 9 78 32 view .LVU717
 3251              	.LBE1256:
 3252              	.LBE1258:
 3253              	.LBE1266:
 3254              	.LBE1269:
 3255              	.LBE1272:
 3256              	.LBE1276:
 3257              	.LBB1277:
 3258              	.LBB1249:
 3259              	.LBB1247:
 3260              	.LBB1245:
 3261              	.LBB1243:
 3262              	.LBB1241:
 3263              	.LBB1239:
 3264              	.LBB1236:
 343:../../libs/libDaisy/src/dev/mpr121.h **** 
 3265              		.loc 9 343 55 view .LVU718
 3266 06fe 84F83010 		strb	r1, [r4, #48]
 3267              	.LVL173:
 343:../../libs/libDaisy/src/dev/mpr121.h **** 
 3268              		.loc 9 343 55 view .LVU719
 3269              	.LBE1236:
 3270              	.LBE1239:
 3271              	.LBE1241:
 3272              	.LBE1243:
 3273              	.LBE1245:
 3274              	.LBE1247:
 3275              	.LBE1249:
 3276              	.LBE1277:
 3277              	.LBB1278:
 3278              	.LBI1250:
 201:../../libs/libDaisy/src/dev/mpr121.h ****     {
 3279              		.loc 9 201 14 is_stmt 1 view .LVU720
 3280              	.LBB1273:
ARM GAS  C:\Users\skipi\AppData\Local\Temp\cceg9rRe.s 			page 93


 3281              	.LBI1251:
 201:../../libs/libDaisy/src/dev/mpr121.h ****     {
 3282              		.loc 9 201 14 view .LVU721
 3283              	.LBB1270:
 3284              	.LBI1252:
 244:../../libs/libDaisy/src/dev/mpr121.h ****     {
 3285              		.loc 9 244 14 view .LVU722
 3286              	.LBB1267:
 3287              	.LBB1259:
 3288              	.LBI1254:
  75:../../libs/libDaisy/src/dev/mpr121.h ****     {
 3289              		.loc 9 75 10 view .LVU723
 3290              	.LBB1257:
  77:../../libs/libDaisy/src/dev/mpr121.h ****                != i2c_.Mem_read(
 3291              		.loc 9 77 9 view .LVU724
  78:../../libs/libDaisy/src/dev/mpr121.h ****                    config_.dev_addr, memAddress, 1, data, memSize, 10);
 3292              		.loc 9 78 32 is_stmt 0 view .LVU725
 3293 0702 94F82C10 		ldrb	r1, [r4, #44]	@ zero_extendqisi2
 3294 0706 FFF7FEFF 		bl	_ZN5daisy9I2CHandle8Mem_readEtttPhtm
 3295              	.LVL174:
  78:../../libs/libDaisy/src/dev/mpr121.h ****                    config_.dev_addr, memAddress, 1, data, memSize, 10);
 3296              		.loc 9 78 32 view .LVU726
 3297              	.LBE1257:
 3298              	.LBE1259:
 3299              	.LBB1260:
 3300              	.LBI1260:
 343:../../libs/libDaisy/src/dev/mpr121.h **** 
 3301              		.loc 9 343 10 is_stmt 1 view .LVU727
 3302              	.LBB1261:
 343:../../libs/libDaisy/src/dev/mpr121.h **** 
 3303              		.loc 9 343 55 is_stmt 0 view .LVU728
 3304 070a 94F83030 		ldrb	r3, [r4, #48]	@ zero_extendqisi2
 3305              	.LBE1261:
 3306              	.LBE1260:
 250:../../libs/libDaisy/src/dev/mpr121.h ****     }
 3307              		.loc 9 250 16 view .LVU729
 3308 070e BDF84010 		ldrh	r1, [sp, #64]
 3309              	.LBB1264:
 3310              	.LBB1262:
 343:../../libs/libDaisy/src/dev/mpr121.h **** 
 3311              		.loc 9 343 55 view .LVU730
 3312 0712 0028     		cmp	r0, #0
 3313 0714 18BF     		it	ne
 3314 0716 43F00103 		orrne	r3, r3, #1
 3315              	.LBE1262:
 3316              	.LBE1264:
 3317              	.LBE1267:
 3318              	.LBE1270:
 3319              	.LBE1273:
 3320              	.LBE1278:
 3321              	.LBB1279:
 3322              	.LBB1280:
 128:../../libs/libDaisy/src/daisy_seed.h ****     }
 3323              		.loc 1 128 23 view .LVU731
 3324 071a 2248     		ldr	r0, .L56+72
 3325              	.LVL175:
 128:../../libs/libDaisy/src/daisy_seed.h ****     }
ARM GAS  C:\Users\skipi\AppData\Local\Temp\cceg9rRe.s 			page 94


 3326              		.loc 1 128 23 view .LVU732
 3327 071c C1EB8601 		rsb	r1, r1, r6, lsl #2
 3328              	.LBE1280:
 3329              	.LBE1279:
 3330              	.LBB1282:
 3331              	.LBB1274:
 3332              	.LBB1271:
 3333              	.LBB1268:
 3334              	.LBB1265:
 3335              	.LBB1263:
 343:../../libs/libDaisy/src/dev/mpr121.h **** 
 3336              		.loc 9 343 55 view .LVU733
 3337 0720 84F83030 		strb	r3, [r4, #48]
 3338              	.LVL176:
 343:../../libs/libDaisy/src/dev/mpr121.h **** 
 3339              		.loc 9 343 55 view .LVU734
 3340              	.LBE1263:
 3341              	.LBE1265:
 3342              	.LBE1268:
 3343              	.LBE1271:
 3344              	.LBE1274:
 3345              	.LBE1282:
 3346              	.LBB1283:
 3347              	.LBI1279:
 126:../../libs/libDaisy/src/daisy_seed.h ****     {
 3348              		.loc 1 126 17 is_stmt 1 view .LVU735
 3349              	.LBB1281:
 128:../../libs/libDaisy/src/daisy_seed.h ****     }
 3350              		.loc 1 128 23 is_stmt 0 view .LVU736
 3351 0724 FFF7FEFF 		bl	_ZN5daisy6LoggerILNS_17LoggerDestinationE1EE9PrintLineEPKcz
 3352              	.LVL177:
 128:../../libs/libDaisy/src/daisy_seed.h ****     }
 3353              		.loc 1 128 23 view .LVU737
 3354              	.LBE1281:
 3355              	.LBE1283:
 129:main.cpp      ****       hw.PrintLine("| ");
 3356              		.loc 10 129 7 is_stmt 1 view .LVU738
 3357              	.LBB1284:
 3358              	.LBI1284:
 126:../../libs/libDaisy/src/daisy_seed.h ****     {
 3359              		.loc 1 126 17 view .LVU739
 3360              	.LBB1285:
 128:../../libs/libDaisy/src/daisy_seed.h ****     }
 3361              		.loc 1 128 23 is_stmt 0 view .LVU740
 3362 0728 DBED007A 		vldr.32	s15, [fp]
 3363 072c 1E48     		ldr	r0, .L56+76
 3364 072e B7EEE77A 		vcvt.f64.f32	d7, s15
 3365 0732 53EC172B 		vmov	r2, r3, d7
 3366 0736 FFF7FEFF 		bl	_ZN5daisy6LoggerILNS_17LoggerDestinationE1EE9PrintLineEPKcz
 3367              	.LVL178:
 128:../../libs/libDaisy/src/daisy_seed.h ****     }
 3368              		.loc 1 128 23 view .LVU741
 3369              	.LBE1285:
 3370              	.LBE1284:
 130:main.cpp      ****     }
 3371              		.loc 10 130 7 is_stmt 1 view .LVU742
 3372              	.LBB1286:
ARM GAS  C:\Users\skipi\AppData\Local\Temp\cceg9rRe.s 			page 95


 3373              	.LBI1286:
 126:../../libs/libDaisy/src/daisy_seed.h ****     {
 3374              		.loc 1 126 17 view .LVU743
 3375              	.LBB1287:
 128:../../libs/libDaisy/src/daisy_seed.h ****     }
 3376              		.loc 1 128 23 is_stmt 0 view .LVU744
 3377 073a 1748     		ldr	r0, .L56+60
 3378 073c FFF7FEFF 		bl	_ZN5daisy6LoggerILNS_17LoggerDestinationE1EE9PrintLineEPKcz
 3379              	.LVL179:
 129:../../libs/libDaisy/src/daisy_seed.h **** 
 3380              		.loc 1 129 5 view .LVU745
 3381 0740 00E7     		b	.L36
 3382              	.LVL180:
 3383              	.L50:
 129:../../libs/libDaisy/src/daisy_seed.h **** 
 3384              		.loc 1 129 5 view .LVU746
 3385              	.LBE1287:
 3386              	.LBE1286:
 112:main.cpp      ****       #ifdef DEBUG
 3387              		.loc 10 112 7 is_stmt 1 view .LVU747
 112:main.cpp      ****       #ifdef DEBUG
 3388              		.loc 10 112 12 is_stmt 0 view .LVU748
 3389 0742 0023     		movs	r3, #0
 3390              	.LBB1288:
 3391              	.LBB1289:
 128:../../libs/libDaisy/src/daisy_seed.h ****     }
 3392              		.loc 1 128 23 view .LVU749
 3393 0744 1948     		ldr	r0, .L56+80
 3394              	.LBE1289:
 3395              	.LBE1288:
 112:main.cpp      ****       #ifdef DEBUG
 3396              		.loc 10 112 12 view .LVU750
 3397 0746 88F80030 		strb	r3, [r8]
 114:main.cpp      ****         hw.PrintLine("-----------------------------------------------------------------------------
 3398              		.loc 10 114 9 is_stmt 1 view .LVU751
 3399              	.LVL181:
 3400              	.LBB1291:
 3401              	.LBI1288:
 126:../../libs/libDaisy/src/daisy_seed.h ****     {
 3402              		.loc 1 126 17 view .LVU752
 3403              	.LBB1290:
 128:../../libs/libDaisy/src/daisy_seed.h ****     }
 3404              		.loc 1 128 23 is_stmt 0 view .LVU753
 3405 074a FFF7FEFF 		bl	_ZN5daisy6LoggerILNS_17LoggerDestinationE1EE9PrintLineEPKcz
 3406              	.LVL182:
 128:../../libs/libDaisy/src/daisy_seed.h ****     }
 3407              		.loc 1 128 23 view .LVU754
 3408              	.LBE1290:
 3409              	.LBE1291:
 115:main.cpp      ****         hw.PrintLine(" ");
 3410              		.loc 10 115 9 is_stmt 1 view .LVU755
 3411              	.LBB1292:
 3412              	.LBI1292:
 126:../../libs/libDaisy/src/daisy_seed.h ****     {
 3413              		.loc 1 126 17 view .LVU756
 3414              	.LBB1293:
 128:../../libs/libDaisy/src/daisy_seed.h ****     }
ARM GAS  C:\Users\skipi\AppData\Local\Temp\cceg9rRe.s 			page 96


 3415              		.loc 1 128 23 is_stmt 0 view .LVU757
 3416 074e 1048     		ldr	r0, .L56+52
 3417 0750 FFF7FEFF 		bl	_ZN5daisy6LoggerILNS_17LoggerDestinationE1EE9PrintLineEPKcz
 3418              	.LVL183:
 128:../../libs/libDaisy/src/daisy_seed.h ****     }
 3419              		.loc 1 128 23 view .LVU758
 3420              	.LBE1293:
 3421              	.LBE1292:
 116:main.cpp      ****       #endif
 3422              		.loc 10 116 9 is_stmt 1 view .LVU759
 3423              	.LBB1294:
 3424              	.LBI1294:
 126:../../libs/libDaisy/src/daisy_seed.h ****     {
 3425              		.loc 1 126 17 view .LVU760
 3426              	.LBB1295:
 128:../../libs/libDaisy/src/daisy_seed.h ****     }
 3427              		.loc 1 128 23 is_stmt 0 view .LVU761
 3428 0754 0148     		ldr	r0, .L56
 3429 0756 FFF7FEFF 		bl	_ZN5daisy6LoggerILNS_17LoggerDestinationE1EE9PrintLineEPKcz
 3430              	.LVL184:
 129:../../libs/libDaisy/src/daisy_seed.h **** 
 3431              		.loc 1 129 5 view .LVU762
 3432 075a 7DE7     		b	.L33
 3433              	.L57:
 3434              		.align	2
 3435              	.L56:
 3436 075c 74000000 		.word	.LC3
 3437 0760 18000000 		.word	.LANCHOR5+24
 3438 0764 F4000000 		.word	.LC9
 3439 0768 14010000 		.word	.LC10
 3440 076c 34010000 		.word	.LC11
 3441 0770 00000000 		.word	.LANCHOR3
 3442 0774 00000000 		.word	.LANCHOR9
 3443 0778 00000000 		.word	.LANCHOR6
 3444 077c 00000000 		.word	.LANCHOR10
 3445 0780 00008C42 		.word	1116471296
 3446 0784 00005C44 		.word	1146880000
 3447 0788 00000000 		.word	.LANCHOR11
 3448 078c 00000000 		.word	.LANCHOR2
 3449 0790 00000000 		.word	.LC0
 3450 0794 54000000 		.word	.LC1
 3451 0798 78000000 		.word	.LC4
 3452 079c 7C000000 		.word	.LC5
 3453 07a0 9C000000 		.word	.LC6
 3454 07a4 BC000000 		.word	.LC7
 3455 07a8 E0000000 		.word	.LC8
 3456 07ac 64000000 		.word	.LC2
 3457              	.LBE1295:
 3458              	.LBE1294:
 3459              		.cfi_endproc
 3460              	.LFE4841:
 3462              		.section	.text.startup._GLOBAL__sub_I_mpr121ObjConf,"ax",%progbits
 3463              		.align	1
 3464              		.p2align 2,,3
 3465              		.syntax unified
 3466              		.thumb
 3467              		.thumb_func
ARM GAS  C:\Users\skipi\AppData\Local\Temp\cceg9rRe.s 			page 97


 3468              		.fpu fpv5-d16
 3470              	_GLOBAL__sub_I_mpr121ObjConf:
 3471              	.LFB5427:
 147:main.cpp      ****   }
 148:main.cpp      **** }
 3472              		.loc 10 148 1 is_stmt 1 view -0
 3473              		.cfi_startproc
 3474              		@ args = 0, pretend = 0, frame = 0
 3475              		@ frame_needed = 0, uses_anonymous_args = 0
 3476              	.LBB1407:
 3477              	.LBI1407:
 3478              		.loc 10 148 1 view .LVU764
 3479              	.LVL185:
 3480              	.LBB1408:
 3481              	.LBB1409:
 3482              	.LBI1409:
 105:../../libs/libDaisy/src/dev/mpr121.h ****         {
 3483              		.loc 9 105 9 view .LVU765
 3484              	.LBB1410:
 3485              	.LBB1411:
 3486              	.LBI1411:
  34:../../libs/libDaisy/src/dev/mpr121.h ****         {
 3487              		.loc 9 34 9 view .LVU766
 3488              	.LBB1412:
 3489              	.LBB1413:
 3490              	.LBB1414:
 3491              	.LBI1414:
 3492              		.loc 12 204 15 view .LVU767
 3493              		.loc 12 204 15 is_stmt 0 view .LVU768
 3494              	.LBE1414:
 3495              	.LBB1415:
 3496              	.LBI1415:
 3497              		.loc 12 204 15 is_stmt 1 view .LVU769
 3498              		.loc 12 204 15 is_stmt 0 view .LVU770
 3499              	.LBE1415:
  36:../../libs/libDaisy/src/dev/mpr121.h ****             speed  = I2CHandle::Config::Speed::I2C_400KHZ;
 3500              		.loc 9 36 13 is_stmt 1 view .LVU771
  37:../../libs/libDaisy/src/dev/mpr121.h **** 
 3501              		.loc 9 37 13 view .LVU772
  39:../../libs/libDaisy/src/dev/mpr121.h ****             sda = Pin(PORTB, 9);
 3502              		.loc 9 39 13 view .LVU773
 3503              	.LBB1416:
 3504              	.LBI1416:
 201:../../libs/libDaisy/src/daisy_core.h **** 
 3505              		.loc 12 201 15 view .LVU774
 201:../../libs/libDaisy/src/daisy_core.h **** 
 3506              		.loc 12 201 15 is_stmt 0 view .LVU775
 3507              	.LBE1416:
  40:../../libs/libDaisy/src/dev/mpr121.h **** 
 3508              		.loc 9 40 13 is_stmt 1 view .LVU776
 3509              	.LBB1417:
 3510              	.LBI1417:
 201:../../libs/libDaisy/src/daisy_core.h **** 
 3511              		.loc 12 201 15 view .LVU777
 201:../../libs/libDaisy/src/daisy_core.h **** 
 3512              		.loc 12 201 15 is_stmt 0 view .LVU778
 3513              	.LBE1417:
ARM GAS  C:\Users\skipi\AppData\Local\Temp\cceg9rRe.s 			page 98


  42:../../libs/libDaisy/src/dev/mpr121.h ****         }
 3514              		.loc 9 42 13 is_stmt 1 view .LVU779
  42:../../libs/libDaisy/src/dev/mpr121.h ****         }
 3515              		.loc 9 42 13 is_stmt 0 view .LVU780
 3516              	.LBE1413:
 3517              	.LBE1412:
 3518              	.LBE1411:
 3519              	.LBE1410:
 3520              	.LBE1409:
 3521              	.LBE1408:
 3522              	.LBE1407:
 3523              		.loc 10 148 1 view .LVU781
 3524 0000 38B5     		push	{r3, r4, r5, lr}
 3525              		.cfi_def_cfa_offset 16
 3526              		.cfi_offset 3, -16
 3527              		.cfi_offset 4, -12
 3528              		.cfi_offset 5, -8
 3529              		.cfi_offset 14, -4
 3530              	.LBB1571:
 3531              	.LBB1569:
 3532              	.LBB1427:
 3533              	.LBB1428:
 3534              	.LBB1429:
 3535              	.LBB1430:
 3536              	.LBB1431:
 3537              	.LBB1432:
 3538              	.LBB1433:
  36:../../libs/libDaisy/src/dev/mpr121.h ****             speed  = I2CHandle::Config::Speed::I2C_400KHZ;
 3539              		.loc 9 36 20 view .LVU782
 3540 0002 2E48     		ldr	r0, .L60
 3541              	.LBE1433:
 3542              	.LBE1432:
 3543              	.LBE1431:
 3544              	.LBE1430:
 3545              	.LBE1429:
 3546              	.LBE1428:
 3547              	.LBE1427:
 3548              	.LBB1466:
 3549              	.LBB1424:
 105:../../libs/libDaisy/src/dev/mpr121.h ****         {
 3550              		.loc 9 105 9 view .LVU783
 3551 0004 5A21     		movs	r1, #90
 3552              	.LBB1422:
 3553              	.LBB1420:
 3554              	.LBB1418:
  36:../../libs/libDaisy/src/dev/mpr121.h ****             speed  = I2CHandle::Config::Speed::I2C_400KHZ;
 3555              		.loc 9 36 20 view .LVU784
 3556 0006 2E4B     		ldr	r3, .L60+4
 3557 0008 0024     		movs	r4, #0
  37:../../libs/libDaisy/src/dev/mpr121.h **** 
 3558              		.loc 9 37 20 view .LVU785
 3559 000a 0125     		movs	r5, #1
 3560              	.LBE1418:
 3561              	.LBE1420:
 3562              	.LBE1422:
 105:../../libs/libDaisy/src/dev/mpr121.h ****         {
 3563              		.loc 9 105 9 view .LVU786
ARM GAS  C:\Users\skipi\AppData\Local\Temp\cceg9rRe.s 			page 99


 3564 000c 2D4A     		ldr	r2, .L60+8
 3565 000e 1961     		str	r1, [r3, #16]
 3566              	.LBE1424:
 3567              	.LBE1466:
 3568              	.LBB1467:
 3569              	.LBB1463:
  96:../../libs/libDaisy/src/dev/mpr121.h ****     ~Mpr121() {}
 3570              		.loc 9 96 5 view .LVU787
 3571 0010 0161     		str	r1, [r0, #16]
 3572 0012 C162     		str	r1, [r0, #44]
 3573              	.LBE1463:
 3574              	.LBE1467:
 3575              	.LBB1468:
 3576              	.LBB1425:
 105:../../libs/libDaisy/src/dev/mpr121.h ****         {
 3577              		.loc 9 105 9 view .LVU788
 3578 0014 0221     		movs	r1, #2
 3579 0016 9A60     		str	r2, [r3, #8]
 3580 0018 9982     		strh	r1, [r3, #20]	@ movhi
 3581              	.LVL186:
 105:../../libs/libDaisy/src/dev/mpr121.h ****         {
 3582              		.loc 9 105 9 view .LVU789
 3583              	.LBE1425:
 3584              	.LBE1468:
 3585              	.LBB1469:
 3586              	.LBI1427:
  96:../../libs/libDaisy/src/dev/mpr121.h ****     ~Mpr121() {}
 3587              		.loc 9 96 5 is_stmt 1 view .LVU790
 3588              	.LBB1464:
 3589              	.LBB1446:
 3590              	.LBI1429:
 105:../../libs/libDaisy/src/dev/mpr121.h ****         {
 3591              		.loc 9 105 9 view .LVU791
 3592              	.LBB1444:
 3593              	.LBB1442:
 3594              	.LBI1431:
  34:../../libs/libDaisy/src/dev/mpr121.h ****         {
 3595              		.loc 9 34 9 view .LVU792
 3596              	.LBB1440:
 3597              	.LBB1438:
 3598              	.LBB1434:
 3599              	.LBI1434:
 3600              		.loc 12 204 15 view .LVU793
 3601              		.loc 12 204 15 is_stmt 0 view .LVU794
 3602              	.LBE1434:
 3603              	.LBB1435:
 3604              	.LBI1435:
 3605              		.loc 12 204 15 is_stmt 1 view .LVU795
 3606              		.loc 12 204 15 is_stmt 0 view .LVU796
 3607              	.LBE1435:
  36:../../libs/libDaisy/src/dev/mpr121.h ****             speed  = I2CHandle::Config::Speed::I2C_400KHZ;
 3608              		.loc 9 36 13 is_stmt 1 view .LVU797
  37:../../libs/libDaisy/src/dev/mpr121.h **** 
 3609              		.loc 9 37 13 view .LVU798
  39:../../libs/libDaisy/src/dev/mpr121.h ****             sda = Pin(PORTB, 9);
 3610              		.loc 9 39 13 view .LVU799
 3611              	.LBB1436:
ARM GAS  C:\Users\skipi\AppData\Local\Temp\cceg9rRe.s 			page 100


 3612              	.LBI1436:
 201:../../libs/libDaisy/src/daisy_core.h **** 
 3613              		.loc 12 201 15 view .LVU800
 201:../../libs/libDaisy/src/daisy_core.h **** 
 3614              		.loc 12 201 15 is_stmt 0 view .LVU801
 3615              	.LBE1436:
  40:../../libs/libDaisy/src/dev/mpr121.h **** 
 3616              		.loc 9 40 13 is_stmt 1 view .LVU802
 3617              	.LBB1437:
 3618              	.LBI1437:
 201:../../libs/libDaisy/src/daisy_core.h **** 
 3619              		.loc 12 201 15 view .LVU803
 201:../../libs/libDaisy/src/daisy_core.h **** 
 3620              		.loc 12 201 15 is_stmt 0 view .LVU804
 3621              	.LBE1437:
  42:../../libs/libDaisy/src/dev/mpr121.h ****         }
 3622              		.loc 9 42 13 is_stmt 1 view .LVU805
  42:../../libs/libDaisy/src/dev/mpr121.h ****         }
 3623              		.loc 9 42 13 is_stmt 0 view .LVU806
 3624              	.LBE1438:
 3625              	.LBE1440:
 3626              	.LBE1442:
 3627              	.LBE1444:
 3628              	.LBE1446:
 3629              	.LBB1447:
 3630              	.LBI1447:
  20:../../libs/libDaisy/src/dev/mpr121.h ****     ~Mpr121I2CTransport() {}
 3631              		.loc 9 20 5 is_stmt 1 view .LVU807
 3632              	.LBB1448:
 3633              	.LBB1449:
 3634              	.LBI1449:
  60:../../libs/libDaisy/src/per/i2c.h ****             Pin scl;  /**< & */
  61:../../libs/libDaisy/src/per/i2c.h ****             Pin sda;  /**< & */
  62:../../libs/libDaisy/src/per/i2c.h ****         } pin_config; /**< & */
  63:../../libs/libDaisy/src/per/i2c.h **** 
  64:../../libs/libDaisy/src/per/i2c.h ****         Speed speed; /**< & */
  65:../../libs/libDaisy/src/per/i2c.h ****         Mode  mode;  /**< & */
  66:../../libs/libDaisy/src/per/i2c.h ****         // 0x10 is chosen as a default to avoid conflicts with reserved addresses
  67:../../libs/libDaisy/src/per/i2c.h ****         uint8_t address = 0x10; /**< & */
  68:../../libs/libDaisy/src/per/i2c.h ****     };
  69:../../libs/libDaisy/src/per/i2c.h **** 
  70:../../libs/libDaisy/src/per/i2c.h ****     /** Return values for I2C functions. */
  71:../../libs/libDaisy/src/per/i2c.h ****     enum class Result
  72:../../libs/libDaisy/src/per/i2c.h ****     {
  73:../../libs/libDaisy/src/per/i2c.h ****         OK, /**< & */
  74:../../libs/libDaisy/src/per/i2c.h ****         ERR /**< & */
  75:../../libs/libDaisy/src/per/i2c.h ****     };
  76:../../libs/libDaisy/src/per/i2c.h **** 
  77:../../libs/libDaisy/src/per/i2c.h ****     enum class Direction
  78:../../libs/libDaisy/src/per/i2c.h ****     {
  79:../../libs/libDaisy/src/per/i2c.h ****         TRANSMIT, /**< & */
  80:../../libs/libDaisy/src/per/i2c.h ****         RECEIVE,  /**< & */
  81:../../libs/libDaisy/src/per/i2c.h ****     };
  82:../../libs/libDaisy/src/per/i2c.h **** 
  83:../../libs/libDaisy/src/per/i2c.h ****     I2CHandle() : pimpl_(nullptr) {}
 3635              		.loc 11 83 5 view .LVU808
 3636              		.loc 11 83 5 is_stmt 0 view .LVU809
ARM GAS  C:\Users\skipi\AppData\Local\Temp\cceg9rRe.s 			page 101


 3637              	.LBE1449:
 3638              	.LBB1450:
 3639              	.LBI1450:
  34:../../libs/libDaisy/src/dev/mpr121.h ****         {
 3640              		.loc 9 34 9 is_stmt 1 view .LVU810
 3641              	.LBB1451:
 3642              	.LBB1452:
 3643              	.LBB1453:
 3644              	.LBI1453:
 3645              		.loc 12 204 15 view .LVU811
 3646              		.loc 12 204 15 is_stmt 0 view .LVU812
 3647              	.LBE1453:
 3648              	.LBB1454:
 3649              	.LBI1454:
 3650              		.loc 12 204 15 is_stmt 1 view .LVU813
 3651              		.loc 12 204 15 is_stmt 0 view .LVU814
 3652              	.LBE1454:
  36:../../libs/libDaisy/src/dev/mpr121.h ****             speed  = I2CHandle::Config::Speed::I2C_400KHZ;
 3653              		.loc 9 36 13 is_stmt 1 view .LVU815
  37:../../libs/libDaisy/src/dev/mpr121.h **** 
 3654              		.loc 9 37 13 view .LVU816
  39:../../libs/libDaisy/src/dev/mpr121.h ****             sda = Pin(PORTB, 9);
 3655              		.loc 9 39 13 view .LVU817
 3656              	.LBB1455:
 3657              	.LBI1455:
 201:../../libs/libDaisy/src/daisy_core.h **** 
 3658              		.loc 12 201 15 view .LVU818
 201:../../libs/libDaisy/src/daisy_core.h **** 
 3659              		.loc 12 201 15 is_stmt 0 view .LVU819
 3660              	.LBE1455:
  40:../../libs/libDaisy/src/dev/mpr121.h **** 
 3661              		.loc 9 40 13 is_stmt 1 view .LVU820
 3662              	.LBB1456:
 3663              	.LBI1456:
 201:../../libs/libDaisy/src/daisy_core.h **** 
 3664              		.loc 12 201 15 view .LVU821
 201:../../libs/libDaisy/src/daisy_core.h **** 
 3665              		.loc 12 201 15 is_stmt 0 view .LVU822
 3666              	.LBE1456:
  42:../../libs/libDaisy/src/dev/mpr121.h ****         }
 3667              		.loc 9 42 13 is_stmt 1 view .LVU823
  37:../../libs/libDaisy/src/dev/mpr121.h **** 
 3668              		.loc 9 37 20 is_stmt 0 view .LVU824
 3669 001a 0562     		str	r5, [r0, #32]
 3670              	.LBE1452:
 3671              	.LBE1451:
 3672              	.LBE1450:
 3673              	.LBE1448:
 3674              	.LBE1447:
  96:../../libs/libDaisy/src/dev/mpr121.h ****     ~Mpr121() {}
 3675              		.loc 9 96 5 view .LVU825
 3676 001c 8260     		str	r2, [r0, #8]
 3677 001e 4262     		str	r2, [r0, #36]
 3678 0020 4161     		str	r1, [r0, #20]
 3679              	.LBE1464:
 3680              	.LBE1469:
  13:main.cpp      **** 
ARM GAS  C:\Users\skipi\AppData\Local\Temp\cceg9rRe.s 			page 102


 3681              		.loc 10 13 18 view .LVU826
 3682 0022 294A     		ldr	r2, .L60+12
 3683 0024 2949     		ldr	r1, .L60+16
 3684              	.LBB1470:
 3685              	.LBB1426:
 3686              	.LBB1423:
 3687              	.LBB1421:
 3688              	.LBB1419:
  37:../../libs/libDaisy/src/dev/mpr121.h **** 
 3689              		.loc 9 37 20 view .LVU827
 3690 0026 C3E90045 		strd	r4, r5, [r3]
 3691              	.LBE1419:
 3692              	.LBE1421:
 3693              	.LBE1423:
 3694              	.LBE1426:
 3695              	.LBE1470:
 3696              	.LBB1471:
 3697              	.LBB1465:
 3698              	.LBB1461:
 3699              	.LBB1445:
 3700              	.LBB1443:
 3701              	.LBB1441:
 3702              	.LBB1439:
 3703 002a C0E90045 		strd	r4, r5, [r0]
 3704              	.LBE1439:
 3705              	.LBE1441:
 3706              	.LBE1443:
 3707              	.LBE1445:
 3708              	.LBE1461:
 3709              	.LBB1462:
 3710              	.LBB1460:
 3711              	.LBB1459:
 3712              	.LBB1458:
 3713              	.LBB1457:
  36:../../libs/libDaisy/src/dev/mpr121.h ****             speed  = I2CHandle::Config::Speed::I2C_400KHZ;
 3714              		.loc 9 36 20 view .LVU828
 3715 002e C0E90644 		strd	r4, r4, [r0, #24]
 3716              	.LBE1457:
 3717              	.LBE1458:
 3718              	.LBE1459:
 3719              	.LBE1460:
 3720              	.LBE1462:
 3721              	.LBE1465:
 3722              	.LBE1471:
  13:main.cpp      **** 
 3723              		.loc 10 13 18 view .LVU829
 3724 0032 FFF7FEFF 		bl	__aeabi_atexit
 3725              	.LVL187:
 3726              	.LBB1472:
 3727              	.LBI1472:
  21:../../libs/libDaisy/src/daisy_seed.h ****     ~DaisySeed() {}
 3728              		.loc 1 21 5 is_stmt 1 view .LVU830
 3729              	.LBB1473:
 3730              	.LBB1474:
 3731              	.LBI1474:
 3732              		.file 13 "../../libs/libDaisy/src/per/qspi.h"
   1:../../libs/libDaisy/src/per/qspi.h **** #ifndef DSY_QSPI
ARM GAS  C:\Users\skipi\AppData\Local\Temp\cceg9rRe.s 			page 103


   2:../../libs/libDaisy/src/per/qspi.h **** #define DSY_QSPI /**< Macro */
   3:../../libs/libDaisy/src/per/qspi.h **** 
   4:../../libs/libDaisy/src/per/qspi.h **** #ifndef UNIT_TEST // for unit tests, a dummy implementation
   5:../../libs/libDaisy/src/per/qspi.h **** 
   6:../../libs/libDaisy/src/per/qspi.h **** #include <cstdint>
   7:../../libs/libDaisy/src/per/qspi.h **** #include "daisy_core.h"
   8:../../libs/libDaisy/src/per/qspi.h **** #include "util/hal_map.h"
   9:../../libs/libDaisy/src/per/qspi.h **** 
  10:../../libs/libDaisy/src/per/qspi.h **** #define DSY_QSPI_TEXT       \
  11:../../libs/libDaisy/src/per/qspi.h ****     __attribute__((section( \
  12:../../libs/libDaisy/src/per/qspi.h ****         ".qspiflash_text"))) /**< used for reading memory in memory_mapped mode. */
  13:../../libs/libDaisy/src/per/qspi.h **** #define DSY_QSPI_DATA       \
  14:../../libs/libDaisy/src/per/qspi.h ****     __attribute__((section( \
  15:../../libs/libDaisy/src/per/qspi.h ****         ".qspiflash_data"))) /**< used for reading memory in memory_mapped mode. */
  16:../../libs/libDaisy/src/per/qspi.h **** #define DSY_QSPI_BSS        \
  17:../../libs/libDaisy/src/per/qspi.h ****     __attribute__((section( \
  18:../../libs/libDaisy/src/per/qspi.h ****         ".qspiflash_bss"))) /**< used for reading memory in memory_mapped mode. */
  19:../../libs/libDaisy/src/per/qspi.h **** 
  20:../../libs/libDaisy/src/per/qspi.h **** namespace daisy
  21:../../libs/libDaisy/src/per/qspi.h **** {
  22:../../libs/libDaisy/src/per/qspi.h **** /** @addtogroup serial
  23:../../libs/libDaisy/src/per/qspi.h **** @{
  24:../../libs/libDaisy/src/per/qspi.h **** */
  25:../../libs/libDaisy/src/per/qspi.h **** 
  26:../../libs/libDaisy/src/per/qspi.h **** /**
  27:../../libs/libDaisy/src/per/qspi.h ****  Driver for QSPI peripheral to interface with external flash memory. \n
  28:../../libs/libDaisy/src/per/qspi.h ****     Currently supported QSPI Devices: \n
  29:../../libs/libDaisy/src/per/qspi.h ****     * IS25LP080D
  30:../../libs/libDaisy/src/per/qspi.h **** */
  31:../../libs/libDaisy/src/per/qspi.h **** class QSPIHandle
  32:../../libs/libDaisy/src/per/qspi.h **** {
  33:../../libs/libDaisy/src/per/qspi.h ****   public:
  34:../../libs/libDaisy/src/per/qspi.h ****     enum Result
  35:../../libs/libDaisy/src/per/qspi.h ****     {
  36:../../libs/libDaisy/src/per/qspi.h ****         OK = 0,
  37:../../libs/libDaisy/src/per/qspi.h ****         ERR
  38:../../libs/libDaisy/src/per/qspi.h ****     };
  39:../../libs/libDaisy/src/per/qspi.h **** 
  40:../../libs/libDaisy/src/per/qspi.h ****     /** Indicates the current status of the module.
  41:../../libs/libDaisy/src/per/qspi.h ****          *  Warnings are indicated by a leading W.
  42:../../libs/libDaisy/src/per/qspi.h ****          *  Errors are indicated by a leading E and cause an immediate exit.
  43:../../libs/libDaisy/src/per/qspi.h ****          *
  44:../../libs/libDaisy/src/per/qspi.h ****          *  \param GOOD - No errors have been reported.
  45:../../libs/libDaisy/src/per/qspi.h ****          *  \param E_HAL_ERROR - HAL code did not return HAL_OK.
  46:../../libs/libDaisy/src/per/qspi.h ****          *  \param E_SWITCHING_MODES - An error was encountered while switching QSPI peripheral mod
  47:../../libs/libDaisy/src/per/qspi.h ****          *  \param E_INVALID_MODE - QSPI should not be written to while the program is executing fr
  48:../../libs/libDaisy/src/per/qspi.h ****          */
  49:../../libs/libDaisy/src/per/qspi.h ****     enum Status
  50:../../libs/libDaisy/src/per/qspi.h ****     {
  51:../../libs/libDaisy/src/per/qspi.h ****         GOOD = 0,
  52:../../libs/libDaisy/src/per/qspi.h ****         E_HAL_ERROR,
  53:../../libs/libDaisy/src/per/qspi.h ****         E_SWITCHING_MODES,
  54:../../libs/libDaisy/src/per/qspi.h ****         E_INVALID_MODE,
  55:../../libs/libDaisy/src/per/qspi.h ****     };
  56:../../libs/libDaisy/src/per/qspi.h **** 
  57:../../libs/libDaisy/src/per/qspi.h ****     /** Configuration structure for interfacing with QSPI Driver */
  58:../../libs/libDaisy/src/per/qspi.h ****     struct Config
ARM GAS  C:\Users\skipi\AppData\Local\Temp\cceg9rRe.s 			page 104


  59:../../libs/libDaisy/src/per/qspi.h ****     {
  60:../../libs/libDaisy/src/per/qspi.h ****         /** Flash Devices supported. (Both of these are more-or-less the same, just different sizes
  61:../../libs/libDaisy/src/per/qspi.h ****         enum Device
  62:../../libs/libDaisy/src/per/qspi.h ****         {
  63:../../libs/libDaisy/src/per/qspi.h ****             IS25LP080D,  /**< & */
  64:../../libs/libDaisy/src/per/qspi.h ****             IS25LP064A,  /**< & */
  65:../../libs/libDaisy/src/per/qspi.h ****             DEVICE_LAST, /**< & */
  66:../../libs/libDaisy/src/per/qspi.h ****         };
  67:../../libs/libDaisy/src/per/qspi.h **** 
  68:../../libs/libDaisy/src/per/qspi.h ****         /**
  69:../../libs/libDaisy/src/per/qspi.h ****         Modes of operation.
  70:../../libs/libDaisy/src/per/qspi.h ****         Memory Mapped mode: QSPI configured so that the QSPI can be
  71:../../libs/libDaisy/src/per/qspi.h ****         read from starting address 0x90000000. Writing is not
  72:../../libs/libDaisy/src/per/qspi.h ****         possible in this mode. \n
  73:../../libs/libDaisy/src/per/qspi.h ****         Indirect Polling mode: Device driver enabled.
  74:../../libs/libDaisy/src/per/qspi.h ****         */
  75:../../libs/libDaisy/src/per/qspi.h ****         enum Mode
  76:../../libs/libDaisy/src/per/qspi.h ****         {
  77:../../libs/libDaisy/src/per/qspi.h ****             MEMORY_MAPPED,    /**< & */
  78:../../libs/libDaisy/src/per/qspi.h ****             INDIRECT_POLLING, /**< & */
  79:../../libs/libDaisy/src/per/qspi.h ****             MODE_LAST,
  80:../../libs/libDaisy/src/per/qspi.h ****         };
  81:../../libs/libDaisy/src/per/qspi.h **** 
  82:../../libs/libDaisy/src/per/qspi.h ****         //SCK,  CE# (active low)
  83:../../libs/libDaisy/src/per/qspi.h ****         struct
  84:../../libs/libDaisy/src/per/qspi.h ****         {
  85:../../libs/libDaisy/src/per/qspi.h ****             Pin io0; /**< & */
  86:../../libs/libDaisy/src/per/qspi.h ****             Pin io1; /**< & */
  87:../../libs/libDaisy/src/per/qspi.h ****             Pin io2; /**< & */
  88:../../libs/libDaisy/src/per/qspi.h ****             Pin io3; /**< & */
  89:../../libs/libDaisy/src/per/qspi.h ****             Pin clk; /**< & */
  90:../../libs/libDaisy/src/per/qspi.h ****             Pin ncs; /**< & */
  91:../../libs/libDaisy/src/per/qspi.h ****         } pin_config;
  92:../../libs/libDaisy/src/per/qspi.h **** 
  93:../../libs/libDaisy/src/per/qspi.h ****         Device device;
  94:../../libs/libDaisy/src/per/qspi.h ****         Mode   mode;
  95:../../libs/libDaisy/src/per/qspi.h ****     };
  96:../../libs/libDaisy/src/per/qspi.h **** 
  97:../../libs/libDaisy/src/per/qspi.h ****     /**
  98:../../libs/libDaisy/src/per/qspi.h ****         Initializes QSPI peripheral, and Resets, and prepares memory for access.
  99:../../libs/libDaisy/src/per/qspi.h ****         \param config should be populated with the mode, device and pin_config before calling this 
 100:../../libs/libDaisy/src/per/qspi.h ****         \return Result::OK or Result::ERR
 101:../../libs/libDaisy/src/per/qspi.h ****         */
 102:../../libs/libDaisy/src/per/qspi.h ****     Result Init(const Config& config);
 103:../../libs/libDaisy/src/per/qspi.h **** 
 104:../../libs/libDaisy/src/per/qspi.h ****     /** Returns the current config. */
 105:../../libs/libDaisy/src/per/qspi.h ****     const Config& GetConfig() const;
 106:../../libs/libDaisy/src/per/qspi.h **** 
 107:../../libs/libDaisy/src/per/qspi.h ****     // Couldn't this just be called before anything else in init? That
 108:../../libs/libDaisy/src/per/qspi.h ****     // would make manually calling it unnecessary.
 109:../../libs/libDaisy/src/per/qspi.h ****     /**
 110:../../libs/libDaisy/src/per/qspi.h ****         Deinitializes the peripheral
 111:../../libs/libDaisy/src/per/qspi.h ****         This should be called before reinitializing QSPI in a different mode.
 112:../../libs/libDaisy/src/per/qspi.h ****         \return Result::OK or Result::ERR
 113:../../libs/libDaisy/src/per/qspi.h ****         */
 114:../../libs/libDaisy/src/per/qspi.h ****     Result DeInit();
 115:../../libs/libDaisy/src/per/qspi.h **** 
ARM GAS  C:\Users\skipi\AppData\Local\Temp\cceg9rRe.s 			page 105


 116:../../libs/libDaisy/src/per/qspi.h ****     /**
 117:../../libs/libDaisy/src/per/qspi.h ****         Writes a single page to to the specified address on the QSPI chip.
 118:../../libs/libDaisy/src/per/qspi.h ****         For IS25LP*, page size is 256 bytes.
 119:../../libs/libDaisy/src/per/qspi.h ****         \param address Address to write to
 120:../../libs/libDaisy/src/per/qspi.h ****         \param size Buffer size
 121:../../libs/libDaisy/src/per/qspi.h ****         \param buffer Buffer to write
 122:../../libs/libDaisy/src/per/qspi.h ****         \return Result::OK or Result::ERR
 123:../../libs/libDaisy/src/per/qspi.h ****         */
 124:../../libs/libDaisy/src/per/qspi.h ****     Result WritePage(uint32_t address, uint32_t size, uint8_t* buffer);
 125:../../libs/libDaisy/src/per/qspi.h **** 
 126:../../libs/libDaisy/src/per/qspi.h ****     /**
 127:../../libs/libDaisy/src/per/qspi.h ****         Writes data in buffer to to the QSPI. Starting at address to address+size
 128:../../libs/libDaisy/src/per/qspi.h ****         \param address Address to write to
 129:../../libs/libDaisy/src/per/qspi.h ****         \param size Buffer size
 130:../../libs/libDaisy/src/per/qspi.h ****         \param buffer Buffer to write
 131:../../libs/libDaisy/src/per/qspi.h ****         \return Result::OK or Result::ERR
 132:../../libs/libDaisy/src/per/qspi.h ****         */
 133:../../libs/libDaisy/src/per/qspi.h ****     Result Write(uint32_t address, uint32_t size, uint8_t* buffer);
 134:../../libs/libDaisy/src/per/qspi.h **** 
 135:../../libs/libDaisy/src/per/qspi.h ****     /**
 136:../../libs/libDaisy/src/per/qspi.h ****         Erases the area specified on the chip.
 137:../../libs/libDaisy/src/per/qspi.h ****         Erasures will happen by 4K, 32K or 64K increments.
 138:../../libs/libDaisy/src/per/qspi.h ****         Smallest erase possible is 4kB at a time. (on IS25LP*)
 139:../../libs/libDaisy/src/per/qspi.h ****         \param start_addr Address to begin erasing from
 140:../../libs/libDaisy/src/per/qspi.h ****         \param end_addr  Address to stop erasing at
 141:../../libs/libDaisy/src/per/qspi.h ****         \return Result::OK or Result::ERR
 142:../../libs/libDaisy/src/per/qspi.h ****         */
 143:../../libs/libDaisy/src/per/qspi.h ****     Result Erase(uint32_t start_addr, uint32_t end_addr);
 144:../../libs/libDaisy/src/per/qspi.h **** 
 145:../../libs/libDaisy/src/per/qspi.h ****     /**
 146:../../libs/libDaisy/src/per/qspi.h ****          Erases a single sector of the chip.
 147:../../libs/libDaisy/src/per/qspi.h ****         TODO: Document the size of this function.
 148:../../libs/libDaisy/src/per/qspi.h ****         \param address Address of sector to erase
 149:../../libs/libDaisy/src/per/qspi.h ****         \return Result::OK or Result::ERR
 150:../../libs/libDaisy/src/per/qspi.h ****         */
 151:../../libs/libDaisy/src/per/qspi.h ****     Result EraseSector(uint32_t address);
 152:../../libs/libDaisy/src/per/qspi.h **** 
 153:../../libs/libDaisy/src/per/qspi.h ****     /** Returns the current class status. Useful for debugging.
 154:../../libs/libDaisy/src/per/qspi.h ****      *  \returns Status
 155:../../libs/libDaisy/src/per/qspi.h ****      */
 156:../../libs/libDaisy/src/per/qspi.h ****     Status GetStatus();
 157:../../libs/libDaisy/src/per/qspi.h **** 
 158:../../libs/libDaisy/src/per/qspi.h ****     /** Returns a pointer to the actual memory used
 159:../../libs/libDaisy/src/per/qspi.h ****      *  The memory at this address is read-only
 160:../../libs/libDaisy/src/per/qspi.h ****      *  to write to it use the Write function.
 161:../../libs/libDaisy/src/per/qspi.h ****      *
 162:../../libs/libDaisy/src/per/qspi.h ****      *  \param offset returns the pointer starting this
 163:../../libs/libDaisy/src/per/qspi.h ****      *                many bytes into the memory
 164:../../libs/libDaisy/src/per/qspi.h ****     */
 165:../../libs/libDaisy/src/per/qspi.h ****     void* GetData(uint32_t offset = 0);
 166:../../libs/libDaisy/src/per/qspi.h **** 
 167:../../libs/libDaisy/src/per/qspi.h ****     QSPIHandle() : pimpl_(nullptr) {}
 3733              		.loc 13 167 5 view .LVU831
 3734              		.loc 13 167 5 is_stmt 0 view .LVU832
 3735              	.LBE1474:
 3736              	.LBB1479:
 3737              	.LBI1479:
ARM GAS  C:\Users\skipi\AppData\Local\Temp\cceg9rRe.s 			page 106


  58:../../libs/libDaisy/src/per/qspi.h ****     {
 3738              		.loc 13 58 12 is_stmt 1 view .LVU833
 3739              	.LBB1480:
 3740              	.LBI1480:
  84:../../libs/libDaisy/src/per/qspi.h ****             Pin io0; /**< & */
 3741              		.loc 13 84 9 view .LVU834
 3742              	.LBB1481:
 3743              	.LBI1481:
 3744              		.loc 12 204 15 view .LVU835
 3745              		.loc 12 204 15 is_stmt 0 view .LVU836
 3746              	.LBE1481:
 3747              	.LBB1482:
 3748              	.LBI1482:
 3749              		.loc 12 204 15 is_stmt 1 view .LVU837
 3750              		.loc 12 204 15 is_stmt 0 view .LVU838
 3751              	.LBE1482:
 3752              	.LBB1483:
 3753              	.LBI1483:
 3754              		.loc 12 204 15 is_stmt 1 view .LVU839
 3755              		.loc 12 204 15 is_stmt 0 view .LVU840
 3756              	.LBE1483:
 3757              	.LBB1484:
 3758              	.LBI1484:
 3759              		.loc 12 204 15 is_stmt 1 view .LVU841
 3760              		.loc 12 204 15 is_stmt 0 view .LVU842
 3761              	.LBE1484:
 3762              	.LBB1485:
 3763              	.LBI1485:
 3764              		.loc 12 204 15 is_stmt 1 view .LVU843
 3765              		.loc 12 204 15 is_stmt 0 view .LVU844
 3766              	.LBE1485:
 3767              	.LBB1486:
 3768              	.LBI1486:
 3769              		.loc 12 204 15 is_stmt 1 view .LVU845
 3770              		.loc 12 204 15 is_stmt 0 view .LVU846
 3771              	.LBE1486:
 3772              	.LBE1480:
 3773              	.LBE1479:
 3774              	.LBB1487:
 3775              	.LBI1487:
  87:../../libs/libDaisy/src/hid/audio.h ****     ~AudioHandle() {}
 3776              		.loc 6 87 5 is_stmt 1 view .LVU847
  87:../../libs/libDaisy/src/hid/audio.h ****     ~AudioHandle() {}
 3777              		.loc 6 87 5 is_stmt 0 view .LVU848
 3778              	.LBE1487:
 3779              	.LBB1490:
 3780              	.LBI1490:
 109:../../libs/libDaisy/src/per/adc.h ****     ~AdcHandle() {}
 3781              		.loc 5 109 5 is_stmt 1 view .LVU849
 109:../../libs/libDaisy/src/per/adc.h ****     ~AdcHandle() {}
 3782              		.loc 5 109 5 is_stmt 0 view .LVU850
 3783              	.LBE1490:
 3784              	.LBB1491:
 3785              	.LBI1491:
 3786              		.file 14 "../../libs/libDaisy/src/per/dac.h"
   1:../../libs/libDaisy/src/per/dac.h **** #pragma once
   2:../../libs/libDaisy/src/per/dac.h **** #ifndef DSY_DAC_H
ARM GAS  C:\Users\skipi\AppData\Local\Temp\cceg9rRe.s 			page 107


   3:../../libs/libDaisy/src/per/dac.h **** #define DSY_DAC_H
   4:../../libs/libDaisy/src/per/dac.h **** #include "stm32h7xx_hal.h"
   5:../../libs/libDaisy/src/per/dac.h **** #include "daisy_core.h"
   6:../../libs/libDaisy/src/per/dac.h **** 
   7:../../libs/libDaisy/src/per/dac.h **** namespace daisy
   8:../../libs/libDaisy/src/per/dac.h **** {
   9:../../libs/libDaisy/src/per/dac.h **** /** @brief DAC handle for Built-in DAC Peripheral 
  10:../../libs/libDaisy/src/per/dac.h ****  *  @ingroup per_analog
  11:../../libs/libDaisy/src/per/dac.h ****  ** 
  12:../../libs/libDaisy/src/per/dac.h ****  ** For now only Normal Mode is supported,
  13:../../libs/libDaisy/src/per/dac.h ****  ** Sample and hold mode provides reduced power consumption, but requires a bit more setup.
  14:../../libs/libDaisy/src/per/dac.h ****  **
  15:../../libs/libDaisy/src/per/dac.h ****  ** For now connecting the DAC through other internal peripherals is also not supported.
  16:../../libs/libDaisy/src/per/dac.h ****  **
  17:../../libs/libDaisy/src/per/dac.h ****  ** Since the DAC channels have dedicated pins we don't need to pass in a pin config like with
  18:../../libs/libDaisy/src/per/dac.h ****  ** other modules. However, it is still important to not try to use the DAC pins for anything else.
  19:../../libs/libDaisy/src/per/dac.h ****  ** DAC Channel 1 is on PA4, and DAC Channel 2 is on PA5
  20:../../libs/libDaisy/src/per/dac.h ****  ***/
  21:../../libs/libDaisy/src/per/dac.h **** class DacHandle
  22:../../libs/libDaisy/src/per/dac.h **** {
  23:../../libs/libDaisy/src/per/dac.h ****   public:
  24:../../libs/libDaisy/src/per/dac.h ****     /** Return Values for the DacHandle class */
  25:../../libs/libDaisy/src/per/dac.h ****     enum class Result
  26:../../libs/libDaisy/src/per/dac.h ****     {
  27:../../libs/libDaisy/src/per/dac.h ****         OK,
  28:../../libs/libDaisy/src/per/dac.h ****         ERR,
  29:../../libs/libDaisy/src/per/dac.h ****     };
  30:../../libs/libDaisy/src/per/dac.h **** 
  31:../../libs/libDaisy/src/per/dac.h ****     /** Selects which channel(s) will be configured for use. */
  32:../../libs/libDaisy/src/per/dac.h ****     enum class Channel
  33:../../libs/libDaisy/src/per/dac.h ****     {
  34:../../libs/libDaisy/src/per/dac.h ****         ONE,
  35:../../libs/libDaisy/src/per/dac.h ****         TWO,
  36:../../libs/libDaisy/src/per/dac.h ****         BOTH,
  37:../../libs/libDaisy/src/per/dac.h ****     };
  38:../../libs/libDaisy/src/per/dac.h **** 
  39:../../libs/libDaisy/src/per/dac.h ****     /** Sets the Mode for the DAC channels.
  40:../../libs/libDaisy/src/per/dac.h ****      **
  41:../../libs/libDaisy/src/per/dac.h ****      ** Polling mode uses the blocking mode to transmit a single value at a time.
  42:../../libs/libDaisy/src/per/dac.h ****      **
  43:../../libs/libDaisy/src/per/dac.h ****      ** DMA mode uses a buffer, and periodically transmits it triggering a 
  44:../../libs/libDaisy/src/per/dac.h ****      ** callback to fill the buffer when it is ready for more samples.
  45:../../libs/libDaisy/src/per/dac.h ****      ***/
  46:../../libs/libDaisy/src/per/dac.h ****     enum class Mode
  47:../../libs/libDaisy/src/per/dac.h ****     {
  48:../../libs/libDaisy/src/per/dac.h ****         POLLING,
  49:../../libs/libDaisy/src/per/dac.h ****         DMA,
  50:../../libs/libDaisy/src/per/dac.h ****     };
  51:../../libs/libDaisy/src/per/dac.h **** 
  52:../../libs/libDaisy/src/per/dac.h ****     /** Sets the number of bits per sample transmitted out of the DAC.
  53:../../libs/libDaisy/src/per/dac.h ****      ** The output range will be: 0V - VDDA
  54:../../libs/libDaisy/src/per/dac.h ****      ** The resolution will be roughly: bitdepth / (VDDA - 0V) 
  55:../../libs/libDaisy/src/per/dac.h ****      ***/
  56:../../libs/libDaisy/src/per/dac.h ****     enum class BitDepth
  57:../../libs/libDaisy/src/per/dac.h ****     {
  58:../../libs/libDaisy/src/per/dac.h ****         BITS_8,
  59:../../libs/libDaisy/src/per/dac.h ****         BITS_12
ARM GAS  C:\Users\skipi\AppData\Local\Temp\cceg9rRe.s 			page 108


  60:../../libs/libDaisy/src/per/dac.h ****     };
  61:../../libs/libDaisy/src/per/dac.h **** 
  62:../../libs/libDaisy/src/per/dac.h ****     /** Sets whether the DAC output is buffered for higher drive ability. */
  63:../../libs/libDaisy/src/per/dac.h ****     enum class BufferState
  64:../../libs/libDaisy/src/per/dac.h ****     {
  65:../../libs/libDaisy/src/per/dac.h ****         ENABLED,
  66:../../libs/libDaisy/src/per/dac.h ****         DISABLED,
  67:../../libs/libDaisy/src/per/dac.h ****     };
  68:../../libs/libDaisy/src/per/dac.h **** 
  69:../../libs/libDaisy/src/per/dac.h ****     /** Configuration structure for initializing the DAC structure. */
  70:../../libs/libDaisy/src/per/dac.h ****     struct Config
  71:../../libs/libDaisy/src/per/dac.h ****     {
  72:../../libs/libDaisy/src/per/dac.h ****         /** Target Samplerate in Hz used to configure the internal 
  73:../../libs/libDaisy/src/per/dac.h ****          ** timebase for DMA mode. Does nothing in POLLING mode.
  74:../../libs/libDaisy/src/per/dac.h ****          ** If the value is 0 at Init time this will default to 48000Hz 
  75:../../libs/libDaisy/src/per/dac.h ****          ** otherwise the driver will attempt meet the target.*/
  76:../../libs/libDaisy/src/per/dac.h ****         uint32_t target_samplerate;
  77:../../libs/libDaisy/src/per/dac.h **** 
  78:../../libs/libDaisy/src/per/dac.h ****         Channel     chn;
  79:../../libs/libDaisy/src/per/dac.h ****         Mode        mode;
  80:../../libs/libDaisy/src/per/dac.h ****         BitDepth    bitdepth;
  81:../../libs/libDaisy/src/per/dac.h ****         BufferState buff_state;
  82:../../libs/libDaisy/src/per/dac.h ****     };
  83:../../libs/libDaisy/src/per/dac.h **** 
  84:../../libs/libDaisy/src/per/dac.h ****     DacHandle() : pimpl_(nullptr) {}
 3787              		.loc 14 84 5 is_stmt 1 view .LVU851
 3788              		.loc 14 84 5 is_stmt 0 view .LVU852
 3789              	.LBE1491:
 3790              	.LBB1494:
 3791              	.LBI1494:
  40:../../libs/libDaisy/src/hid/usb.h **** 
 3792              		.loc 4 40 5 is_stmt 1 view .LVU853
  40:../../libs/libDaisy/src/hid/usb.h **** 
 3793              		.loc 4 40 5 is_stmt 0 view .LVU854
 3794              	.LBE1494:
 3795              	.LBB1495:
 3796              	.LBI1495:
 3797              		.file 15 "../../libs/libDaisy/src/per/gpio.h"
   1:../../libs/libDaisy/src/per/gpio.h **** #pragma once
   2:../../libs/libDaisy/src/per/gpio.h **** #ifndef DSY_GPIO_H
   3:../../libs/libDaisy/src/per/gpio.h **** #define DSY_GPIO_H
   4:../../libs/libDaisy/src/per/gpio.h **** #include "daisy_core.h"
   5:../../libs/libDaisy/src/per/gpio.h **** 
   6:../../libs/libDaisy/src/per/gpio.h **** #ifdef __cplusplus
   7:../../libs/libDaisy/src/per/gpio.h **** 
   8:../../libs/libDaisy/src/per/gpio.h **** namespace daisy
   9:../../libs/libDaisy/src/per/gpio.h **** {
  10:../../libs/libDaisy/src/per/gpio.h **** /** @brief General Purpose I/O control 
  11:../../libs/libDaisy/src/per/gpio.h ****  *  @details peripheral control over a single GPIO
  12:../../libs/libDaisy/src/per/gpio.h ****  *  @ingroup peripheral
  13:../../libs/libDaisy/src/per/gpio.h ****  *   
  14:../../libs/libDaisy/src/per/gpio.h ****  *  Button Input (with internal Pullup resistor)
  15:../../libs/libDaisy/src/per/gpio.h ****  *  @include GPIO_Input.cpp 
  16:../../libs/libDaisy/src/per/gpio.h ****  * 
  17:../../libs/libDaisy/src/per/gpio.h ****  *  Output Example (perfect for blinking an LED)
  18:../../libs/libDaisy/src/per/gpio.h ****  *  @include GPIO_Output.cpp
  19:../../libs/libDaisy/src/per/gpio.h ****  * 
ARM GAS  C:\Users\skipi\AppData\Local\Temp\cceg9rRe.s 			page 109


  20:../../libs/libDaisy/src/per/gpio.h **** */
  21:../../libs/libDaisy/src/per/gpio.h **** class GPIO
  22:../../libs/libDaisy/src/per/gpio.h **** {
  23:../../libs/libDaisy/src/per/gpio.h ****   public:
  24:../../libs/libDaisy/src/per/gpio.h ****     /** @brief Mode of operation for the specified GPIO */
  25:../../libs/libDaisy/src/per/gpio.h ****     enum class Mode
  26:../../libs/libDaisy/src/per/gpio.h ****     {
  27:../../libs/libDaisy/src/per/gpio.h ****         INPUT,      /**< Input for reading state of pin */
  28:../../libs/libDaisy/src/per/gpio.h ****         OUTPUT,     /**< Output w/ push-pull configuration */
  29:../../libs/libDaisy/src/per/gpio.h ****         OPEN_DRAIN, /**< Output w/ open-drain configuration */
  30:../../libs/libDaisy/src/per/gpio.h ****         ANALOG,     /**< Analog for connection to ADC or DAC peripheral */
  31:../../libs/libDaisy/src/per/gpio.h ****     };
  32:../../libs/libDaisy/src/per/gpio.h **** 
  33:../../libs/libDaisy/src/per/gpio.h ****     /** @brief Configures whether an internal Pull up or Pull down resistor is used. 
  34:../../libs/libDaisy/src/per/gpio.h ****      *  
  35:../../libs/libDaisy/src/per/gpio.h ****      * Internal Pull up/down resistors are typically 40k ohms, and will be between
  36:../../libs/libDaisy/src/per/gpio.h ****      * 30k and 50k
  37:../../libs/libDaisy/src/per/gpio.h ****      * 
  38:../../libs/libDaisy/src/per/gpio.h ****      * When the Pin is configured in Analog mode, the pull up/down resistors are
  39:../../libs/libDaisy/src/per/gpio.h ****      * disabled by hardware. 
  40:../../libs/libDaisy/src/per/gpio.h ****      */
  41:../../libs/libDaisy/src/per/gpio.h ****     enum class Pull
  42:../../libs/libDaisy/src/per/gpio.h ****     {
  43:../../libs/libDaisy/src/per/gpio.h ****         NOPULL,   /**< No pull up resistor */
  44:../../libs/libDaisy/src/per/gpio.h ****         PULLUP,   /**< Internal pull up enabled */
  45:../../libs/libDaisy/src/per/gpio.h ****         PULLDOWN, /**< Internal pull down enabled*/
  46:../../libs/libDaisy/src/per/gpio.h ****     };
  47:../../libs/libDaisy/src/per/gpio.h **** 
  48:../../libs/libDaisy/src/per/gpio.h ****     /** @brief Output speed controls the drive strength, and slew rate of the pin */
  49:../../libs/libDaisy/src/per/gpio.h ****     enum class Speed
  50:../../libs/libDaisy/src/per/gpio.h ****     {
  51:../../libs/libDaisy/src/per/gpio.h ****         LOW,
  52:../../libs/libDaisy/src/per/gpio.h ****         MEDIUM,
  53:../../libs/libDaisy/src/per/gpio.h ****         HIGH,
  54:../../libs/libDaisy/src/per/gpio.h ****         VERY_HIGH,
  55:../../libs/libDaisy/src/per/gpio.h ****     };
  56:../../libs/libDaisy/src/per/gpio.h **** 
  57:../../libs/libDaisy/src/per/gpio.h ****     /** @brief Configuration for a given GPIO */
  58:../../libs/libDaisy/src/per/gpio.h ****     struct Config
  59:../../libs/libDaisy/src/per/gpio.h ****     {
  60:../../libs/libDaisy/src/per/gpio.h ****         Pin   pin;
  61:../../libs/libDaisy/src/per/gpio.h ****         Mode  mode;
  62:../../libs/libDaisy/src/per/gpio.h ****         Pull  pull;
  63:../../libs/libDaisy/src/per/gpio.h ****         Speed speed;
  64:../../libs/libDaisy/src/per/gpio.h **** 
  65:../../libs/libDaisy/src/per/gpio.h ****         /** Constructor with no arguments will prepare an invalid GPIO set as
  66:../../libs/libDaisy/src/per/gpio.h ****          *  an input, with no pullup. 
  67:../../libs/libDaisy/src/per/gpio.h ****          */
  68:../../libs/libDaisy/src/per/gpio.h ****         Config()
  69:../../libs/libDaisy/src/per/gpio.h ****         : pin(), mode(Mode::INPUT), pull(Pull::NOPULL), speed(Speed::LOW)
  70:../../libs/libDaisy/src/per/gpio.h ****         {
  71:../../libs/libDaisy/src/per/gpio.h ****         }
  72:../../libs/libDaisy/src/per/gpio.h ****     };
  73:../../libs/libDaisy/src/per/gpio.h **** 
  74:../../libs/libDaisy/src/per/gpio.h ****     GPIO() {}
 3798              		.loc 15 74 5 is_stmt 1 view .LVU855
 3799              	.LBB1496:
ARM GAS  C:\Users\skipi\AppData\Local\Temp\cceg9rRe.s 			page 110


 3800              	.LBB1497:
 3801              	.LBI1497:
  68:../../libs/libDaisy/src/per/gpio.h ****         : pin(), mode(Mode::INPUT), pull(Pull::NOPULL), speed(Speed::LOW)
 3802              		.loc 15 68 9 view .LVU856
 3803              	.LBB1498:
 3804              	.LBB1499:
 3805              	.LBB1500:
 3806              	.LBI1500:
 3807              		.loc 12 204 15 view .LVU857
 3808              		.loc 12 204 15 is_stmt 0 view .LVU858
 3809              	.LBE1500:
 3810              	.LBE1499:
 3811              	.LBE1498:
 3812              	.LBE1497:
 3813              	.LBE1496:
 3814              	.LBE1495:
 3815              	.LBB1509:
 3816              	.LBI1509:
 3817              		.loc 15 74 5 is_stmt 1 view .LVU859
 3818              	.LBB1510:
 3819              	.LBB1511:
 3820              	.LBI1511:
  68:../../libs/libDaisy/src/per/gpio.h ****         : pin(), mode(Mode::INPUT), pull(Pull::NOPULL), speed(Speed::LOW)
 3821              		.loc 15 68 9 view .LVU860
 3822              	.LBB1512:
 3823              	.LBB1513:
 3824              	.LBB1514:
 3825              	.LBI1514:
 3826              		.loc 12 204 15 view .LVU861
 3827              		.loc 12 204 15 is_stmt 0 view .LVU862
 3828              	.LBE1514:
 3829              	.LBE1513:
 3830              	.LBE1512:
 3831              	.LBE1511:
 3832              	.LBE1510:
 3833              	.LBE1509:
 3834              	.LBB1523:
 3835              	.LBI1523:
  96:../../libs/libDaisy/src/sys/system.h ****     ~System() {}
 3836              		.loc 3 96 5 is_stmt 1 view .LVU863
  96:../../libs/libDaisy/src/sys/system.h ****     ~System() {}
 3837              		.loc 3 96 5 is_stmt 0 view .LVU864
 3838              	.LBE1523:
 3839              	.LBB1524:
 3840              	.LBI1524:
  20:../../libs/libDaisy/src/dev/codec_ak4556.h ****     ~Ak4556() {}
 3841              		.loc 2 20 5 is_stmt 1 view .LVU865
 3842              	.LBB1525:
 3843              	.LBI1525:
 3844              		.loc 15 74 5 view .LVU866
 3845              	.LBB1526:
 3846              	.LBB1527:
 3847              	.LBI1527:
  68:../../libs/libDaisy/src/per/gpio.h ****         : pin(), mode(Mode::INPUT), pull(Pull::NOPULL), speed(Speed::LOW)
 3848              		.loc 15 68 9 view .LVU867
 3849              	.LBB1528:
 3850              	.LBB1529:
ARM GAS  C:\Users\skipi\AppData\Local\Temp\cceg9rRe.s 			page 111


 3851              	.LBB1530:
 3852              	.LBI1530:
 3853              		.loc 12 204 15 view .LVU868
 3854              		.loc 12 204 15 is_stmt 0 view .LVU869
 3855              	.LBE1530:
 3856              	.LBE1529:
 3857              	.LBE1528:
 3858              	.LBE1527:
 3859              	.LBE1526:
 3860              	.LBE1525:
 3861              	.LBE1524:
 3862              	.LBB1541:
 3863              	.LBI1541:
 3864              		.file 16 "../../libs/libDaisy/src/per/sai.h"
   1:../../libs/libDaisy/src/per/sai.h **** #pragma once
   2:../../libs/libDaisy/src/per/sai.h **** #ifndef DSY_SAI_H
   3:../../libs/libDaisy/src/per/sai.h **** #define DSY_SAI_H
   4:../../libs/libDaisy/src/per/sai.h **** 
   5:../../libs/libDaisy/src/per/sai.h **** #include "util/hal_map.h"
   6:../../libs/libDaisy/src/per/sai.h **** #include "daisy_core.h"
   7:../../libs/libDaisy/src/per/sai.h **** 
   8:../../libs/libDaisy/src/per/sai.h **** namespace daisy
   9:../../libs/libDaisy/src/per/sai.h **** {
  10:../../libs/libDaisy/src/per/sai.h **** /** 
  11:../../libs/libDaisy/src/per/sai.h ****  * Support for I2S Audio Protocol with different bit-depth, samplerate options
  12:../../libs/libDaisy/src/per/sai.h ****  * Allows for master or slave, as well as freedom of selecting direction, 
  13:../../libs/libDaisy/src/per/sai.h ****  * and other behavior for each peripheral, and block.
  14:../../libs/libDaisy/src/per/sai.h ****  * 
  15:../../libs/libDaisy/src/per/sai.h ****  * DMA Transfer commands must use buffers located within non-cached memory or use cache maintenance
  16:../../libs/libDaisy/src/per/sai.h ****  * To declare an unitialized global element in the DMA memory section:
  17:../../libs/libDaisy/src/per/sai.h ****  *    int32_t DSY_DMA_BUFFER_SECTOR my_buffer[96];
  18:../../libs/libDaisy/src/per/sai.h ****  *
  19:../../libs/libDaisy/src/per/sai.h ****  * Callback functions will be called once per half of the buffer. In the above example, 
  20:../../libs/libDaisy/src/per/sai.h ****  * the callback function would be called once for every 48 samples.
  21:../../libs/libDaisy/src/per/sai.h ****  * 
  22:../../libs/libDaisy/src/per/sai.h ****  * Use SAI Handle like this:
  23:../../libs/libDaisy/src/per/sai.h ****  * 
  24:../../libs/libDaisy/src/per/sai.h ****  *  SaiHandle::Config sai_config;
  25:../../libs/libDaisy/src/per/sai.h ****  *  sai_config.periph          = SaiHandle::Config::Peripheral::SAI_1;
  26:../../libs/libDaisy/src/per/sai.h ****  *  sai_config.sr              = SaiHandle::Config::SampleRate::SAI_48KHZ;
  27:../../libs/libDaisy/src/per/sai.h ****  *  sai_config.bit_depth       = SaiHandle::Config::BitDepth::SAI_24BIT;
  28:../../libs/libDaisy/src/per/sai.h ****  *  sai_config.a_sync          = SaiHandle::Config::Sync::MASTER;
  29:../../libs/libDaisy/src/per/sai.h ****  *  sai_config.b_sync          = SaiHandle::Config::Sync::SLAVE;
  30:../../libs/libDaisy/src/per/sai.h ****  *  sai_config.a_dir           = SaiHandle::Config::Direction::RECEIVE;
  31:../../libs/libDaisy/src/per/sai.h ****  *  sai_config.b_dir           = SaiHandle::Config::Direction::TRANSMIT;
  32:../../libs/libDaisy/src/per/sai.h ****  *  sai_config.pin_config.fs   = {DSY_GPIOE, 4};
  33:../../libs/libDaisy/src/per/sai.h ****  *  sai_config.pin_config.mclk = {DSY_GPIOE, 2};
  34:../../libs/libDaisy/src/per/sai.h ****  *  sai_config.pin_config.sck  = {DSY_GPIOE, 5};
  35:../../libs/libDaisy/src/per/sai.h ****  *  sai_config.pin_config.sa   = {DSY_GPIOE, 6};
  36:../../libs/libDaisy/src/per/sai.h ****  *  sai_config.pin_config.sb   = {DSY_GPIOE, 3};
  37:../../libs/libDaisy/src/per/sai.h ****  *  // Then Initialize
  38:../../libs/libDaisy/src/per/sai.h ****  *  SaiHandle sai;
  39:../../libs/libDaisy/src/per/sai.h ****  *  sai.Init(sai_config);
  40:../../libs/libDaisy/src/per/sai.h ****  *  // Now you can use it:
  41:../../libs/libDaisy/src/per/sai.h ****  *  sai.StartDma(. . .);
  42:../../libs/libDaisy/src/per/sai.h ****  */
  43:../../libs/libDaisy/src/per/sai.h **** class SaiHandle
ARM GAS  C:\Users\skipi\AppData\Local\Temp\cceg9rRe.s 			page 112


  44:../../libs/libDaisy/src/per/sai.h **** {
  45:../../libs/libDaisy/src/per/sai.h ****   public:
  46:../../libs/libDaisy/src/per/sai.h ****     /** Contains settings for initialising an SAI Interface */
  47:../../libs/libDaisy/src/per/sai.h ****     struct Config
  48:../../libs/libDaisy/src/per/sai.h ****     {
  49:../../libs/libDaisy/src/per/sai.h ****         /** Specifies the internal peripheral to use (mapped to different hardware pins) */
  50:../../libs/libDaisy/src/per/sai.h ****         enum class Peripheral
  51:../../libs/libDaisy/src/per/sai.h ****         {
  52:../../libs/libDaisy/src/per/sai.h ****             SAI_1,
  53:../../libs/libDaisy/src/per/sai.h ****             SAI_2,
  54:../../libs/libDaisy/src/per/sai.h ****         };
  55:../../libs/libDaisy/src/per/sai.h **** 
  56:../../libs/libDaisy/src/per/sai.h ****         /** Rate at which samples will be streaming to/from the device. */
  57:../../libs/libDaisy/src/per/sai.h ****         enum class SampleRate
  58:../../libs/libDaisy/src/per/sai.h ****         {
  59:../../libs/libDaisy/src/per/sai.h ****             SAI_8KHZ,
  60:../../libs/libDaisy/src/per/sai.h ****             SAI_16KHZ,
  61:../../libs/libDaisy/src/per/sai.h ****             SAI_32KHZ,
  62:../../libs/libDaisy/src/per/sai.h ****             SAI_48KHZ,
  63:../../libs/libDaisy/src/per/sai.h ****             SAI_96KHZ,
  64:../../libs/libDaisy/src/per/sai.h ****         };
  65:../../libs/libDaisy/src/per/sai.h **** 
  66:../../libs/libDaisy/src/per/sai.h ****         /** Bit Depth that the hardware expects to be transferred to/from the device. */
  67:../../libs/libDaisy/src/per/sai.h ****         enum class BitDepth
  68:../../libs/libDaisy/src/per/sai.h ****         {
  69:../../libs/libDaisy/src/per/sai.h ****             SAI_16BIT,
  70:../../libs/libDaisy/src/per/sai.h ****             SAI_24BIT,
  71:../../libs/libDaisy/src/per/sai.h ****             SAI_32BIT,
  72:../../libs/libDaisy/src/per/sai.h ****         };
  73:../../libs/libDaisy/src/per/sai.h **** 
  74:../../libs/libDaisy/src/per/sai.h ****         /** Specifies whether a particular block is the master or the slave 
  75:../../libs/libDaisy/src/per/sai.h ****          ** If both are set to slave, no MCLK signal will be used, and it is
  76:../../libs/libDaisy/src/per/sai.h ****          ** expected that the codec will have its own xtal.
  77:../../libs/libDaisy/src/per/sai.h ****          */
  78:../../libs/libDaisy/src/per/sai.h ****         enum class Sync
  79:../../libs/libDaisy/src/per/sai.h ****         {
  80:../../libs/libDaisy/src/per/sai.h ****             MASTER,
  81:../../libs/libDaisy/src/per/sai.h ****             SLAVE,
  82:../../libs/libDaisy/src/per/sai.h ****         };
  83:../../libs/libDaisy/src/per/sai.h **** 
  84:../../libs/libDaisy/src/per/sai.h ****         /** Specifies the direction for each peripheral block. */
  85:../../libs/libDaisy/src/per/sai.h ****         enum class Direction
  86:../../libs/libDaisy/src/per/sai.h ****         {
  87:../../libs/libDaisy/src/per/sai.h ****             TRANSMIT,
  88:../../libs/libDaisy/src/per/sai.h ****             RECEIVE,
  89:../../libs/libDaisy/src/per/sai.h ****         };
  90:../../libs/libDaisy/src/per/sai.h **** 
  91:../../libs/libDaisy/src/per/sai.h ****         Peripheral periph;
  92:../../libs/libDaisy/src/per/sai.h ****         struct
  93:../../libs/libDaisy/src/per/sai.h ****         {
  94:../../libs/libDaisy/src/per/sai.h ****             Pin mclk, fs, sck, sa, sb;
  95:../../libs/libDaisy/src/per/sai.h ****         } pin_config;
  96:../../libs/libDaisy/src/per/sai.h ****         SampleRate sr;
  97:../../libs/libDaisy/src/per/sai.h ****         BitDepth   bit_depth;
  98:../../libs/libDaisy/src/per/sai.h ****         Sync       a_sync, b_sync;
  99:../../libs/libDaisy/src/per/sai.h ****         Direction  a_dir, b_dir;
 100:../../libs/libDaisy/src/per/sai.h ****     };
ARM GAS  C:\Users\skipi\AppData\Local\Temp\cceg9rRe.s 			page 113


 101:../../libs/libDaisy/src/per/sai.h **** 
 102:../../libs/libDaisy/src/per/sai.h ****     /** Return values for SAI functions */
 103:../../libs/libDaisy/src/per/sai.h ****     enum class Result
 104:../../libs/libDaisy/src/per/sai.h ****     {
 105:../../libs/libDaisy/src/per/sai.h ****         OK,
 106:../../libs/libDaisy/src/per/sai.h ****         ERR,
 107:../../libs/libDaisy/src/per/sai.h ****     };
 108:../../libs/libDaisy/src/per/sai.h **** 
 109:../../libs/libDaisy/src/per/sai.h ****     SaiHandle() : pimpl_(nullptr) {}
 3865              		.loc 16 109 5 is_stmt 1 view .LVU870
 3866              	.LBE1541:
 3867              	.LBB1544:
 3868              	.LBB1475:
 3869              	.LBB1476:
 3870              		.loc 13 167 34 is_stmt 0 view .LVU871
 3871 0036 2648     		ldr	r0, .L60+20
 3872              	.LBE1476:
 3873              	.LBE1475:
 3874              	.LBE1544:
  21:../../libs/libDaisy/src/daisy_seed.h ****     ~DaisySeed() {}
 3875              		.loc 1 21 17 view .LVU872
 3876 0038 4FF60B73 		movw	r3, #65291
 3877 003c 6FF0F411 		mvn	r1, #15991028
 3878              	.LBE1473:
 3879              	.LBE1472:
  16:main.cpp      **** 
 3880              		.loc 10 16 8 view .LVU873
 3881 0040 244D     		ldr	r5, .L60+24
 3882              	.LBB1558:
 3883              	.LBB1555:
  21:../../libs/libDaisy/src/daisy_seed.h ****     ~DaisySeed() {}
 3884              		.loc 1 21 17 view .LVU874
 3885 0042 8365     		str	r3, [r0, #88]
 3886              	.LBE1555:
 3887              	.LBE1558:
  15:main.cpp      **** CapFir capFilter; // creates object for the CapFir filter
 3888              		.loc 10 15 11 view .LVU875
 3889 0044 204A     		ldr	r2, .L60+12
 3890              	.LBB1559:
 3891              	.LBB1556:
 3892              	.LBB1545:
 3893              	.LBB1478:
 3894              	.LBB1477:
 3895              		.loc 13 167 34 view .LVU876
 3896 0046 0460     		str	r4, [r0]
 3897              	.LBE1477:
 3898              	.LBE1478:
 3899              	.LBE1545:
 3900              	.LBB1546:
 3901              	.LBB1488:
 3902              	.LBB1489:
  87:../../libs/libDaisy/src/hid/audio.h ****     ~AudioHandle() {}
 3903              		.loc 6 87 35 view .LVU877
 3904 0048 4461     		str	r4, [r0, #20]
 3905              	.LBE1489:
 3906              	.LBE1488:
 3907              	.LBE1546:
ARM GAS  C:\Users\skipi\AppData\Local\Temp\cceg9rRe.s 			page 114


  21:../../libs/libDaisy/src/daisy_seed.h ****     ~DaisySeed() {}
 3908              		.loc 1 21 17 view .LVU878
 3909 004a C160     		str	r1, [r0, #12]
 3910              	.LBB1547:
 3911              	.LBB1492:
 3912              	.LBB1493:
 3913              		.loc 14 84 33 view .LVU879
 3914 004c 0462     		str	r4, [r0, #32]
 3915              	.LBE1493:
 3916              	.LBE1492:
 3917              	.LBE1547:
 3918              	.LBB1548:
 3919              	.LBB1539:
 3920              	.LBB1537:
 3921              	.LBB1535:
 3922              	.LBB1533:
 3923              	.LBB1531:
  69:../../libs/libDaisy/src/per/gpio.h ****         {
 3924              		.loc 15 69 73 view .LVU880
 3925 004e 4466     		str	r4, [r0, #100]
 3926              	.LBE1531:
 3927              	.LBE1533:
 3928              	.LBE1535:
 3929              	.LBE1537:
 3930              	.LBE1539:
 3931              	.LBE1548:
 3932              	.LBB1549:
 3933              	.LBB1542:
 3934              	.LBB1543:
 3935              		.loc 16 109 33 view .LVU881
 3936 0050 0467     		str	r4, [r0, #112]
 3937              	.LVL188:
 3938              		.loc 16 109 33 view .LVU882
 3939              	.LBE1543:
 3940              	.LBE1542:
 3941              	.LBE1549:
 3942              	.LBB1550:
 3943              	.LBB1507:
 3944              	.LBB1505:
 3945              	.LBB1503:
 3946              	.LBB1501:
  69:../../libs/libDaisy/src/per/gpio.h ****         {
 3947              		.loc 15 69 73 view .LVU883
 3948 0052 C0E90A34 		strd	r3, r4, [r0, #40]
 3949              	.LBE1501:
 3950              	.LBE1503:
 3951              	.LBE1505:
 3952              	.LBE1507:
 3953              	.LBE1550:
 3954              	.LBB1551:
 3955              	.LBB1521:
 3956              	.LBB1519:
 3957              	.LBB1517:
 3958              	.LBB1515:
 3959 0056 C0E90F34 		strd	r3, r4, [r0, #60]
 3960              	.LBE1515:
 3961              	.LBE1517:
ARM GAS  C:\Users\skipi\AppData\Local\Temp\cceg9rRe.s 			page 115


 3962              	.LBE1519:
 3963              	.LBE1521:
 3964              	.LBE1551:
  21:../../libs/libDaisy/src/daisy_seed.h ****     ~DaisySeed() {}
 3965              		.loc 1 21 17 view .LVU884
 3966 005a C0E90111 		strd	r1, r1, [r0, #4]
 3967              	.LBB1552:
 3968              	.LBB1508:
 3969              	.LBB1506:
 3970              	.LBB1504:
 3971              	.LBB1502:
  69:../../libs/libDaisy/src/per/gpio.h ****         {
 3972              		.loc 15 69 73 view .LVU885
 3973 005e C0E90C44 		strd	r4, r4, [r0, #48]
 3974              	.LBE1502:
 3975              	.LBE1504:
 3976              	.LBE1506:
 3977              	.LBE1508:
 3978              	.LBE1552:
 3979              	.LBE1556:
 3980              	.LBE1559:
  15:main.cpp      **** CapFir capFilter; // creates object for the CapFir filter
 3981              		.loc 10 15 11 view .LVU886
 3982 0062 1D49     		ldr	r1, .L60+28
 3983              	.LBB1560:
 3984              	.LBB1557:
 3985              	.LBB1553:
 3986              	.LBB1522:
 3987              	.LBB1520:
 3988              	.LBB1518:
 3989              	.LBB1516:
  69:../../libs/libDaisy/src/per/gpio.h ****         {
 3990              		.loc 15 69 73 view .LVU887
 3991 0064 C0E91144 		strd	r4, r4, [r0, #68]
 3992              	.LBE1516:
 3993              	.LBE1518:
 3994              	.LBE1520:
 3995              	.LBE1522:
 3996              	.LBE1553:
 3997              	.LBB1554:
 3998              	.LBB1540:
 3999              	.LBB1538:
 4000              	.LBB1536:
 4001              	.LBB1534:
 4002              	.LBB1532:
 4003 0068 C0E91744 		strd	r4, r4, [r0, #92]
 4004              	.LBE1532:
 4005              	.LBE1534:
 4006              	.LBE1536:
 4007              	.LBE1538:
 4008              	.LBE1540:
 4009              	.LBE1554:
 4010              	.LBE1557:
 4011              	.LBE1560:
  15:main.cpp      **** CapFir capFilter; // creates object for the CapFir filter
 4012              		.loc 10 15 11 view .LVU888
 4013 006c FFF7FEFF 		bl	__aeabi_atexit
ARM GAS  C:\Users\skipi\AppData\Local\Temp\cceg9rRe.s 			page 116


 4014              	.LVL189:
  16:main.cpp      **** 
 4015              		.loc 10 16 8 view .LVU889
 4016 0070 2846     		mov	r0, r5
 4017 0072 FFF7FEFF 		bl	_ZN6CapFirC1Ev
 4018              	.LVL190:
 4019 0076 144A     		ldr	r2, .L60+12
 4020 0078 1849     		ldr	r1, .L60+32
 4021 007a 2846     		mov	r0, r5
 4022 007c FFF7FEFF 		bl	__aeabi_atexit
 4023              	.LVL191:
 4024              	.LBB1561:
 4025              	.LBI1561:
  23:../../libs/DaisySP/Source/Synthesis/oscillator.h ****     ~Oscillator() {}
 4026              		.loc 8 23 5 is_stmt 1 view .LVU890
  23:../../libs/DaisySP/Source/Synthesis/oscillator.h ****     ~Oscillator() {}
 4027              		.loc 8 23 5 is_stmt 0 view .LVU891
 4028              	.LBE1561:
  18:main.cpp      **** float f = 0.0f;     
 4029              		.loc 10 18 19 view .LVU892
 4030 0080 114A     		ldr	r2, .L60+12
 4031 0082 1749     		ldr	r1, .L60+36
 4032 0084 1748     		ldr	r0, .L60+40
 4033 0086 FFF7FEFF 		bl	__aeabi_atexit
 4034              	.LVL192:
 4035              	.LBB1562:
 4036              	.LBI1562:
  44:../../libs/DaisySP/Source/Control/adsr.h ****     ~Adsr() {}
 4037              		.loc 7 44 5 is_stmt 1 view .LVU893
 4038              	.LBB1563:
 4039              	.LBB1564:
  44:../../libs/DaisySP/Source/Control/adsr.h ****     ~Adsr() {}
 4040              		.loc 7 44 12 is_stmt 0 view .LVU894
 4041 008a 1748     		ldr	r0, .L60+44
 4042 008c 0023     		movs	r3, #0
 4043 008e DFF860C0 		ldr	ip, .L60+52
 4044              	.LBE1564:
 4045 0092 8485     		strh	r4, [r0, #44]	@ movhi
 4046              	.LVL193:
 4047              	.LBB1565:
  44:../../libs/DaisySP/Source/Control/adsr.h ****     ~Adsr() {}
 4048              		.loc 7 44 12 view .LVU895
 4049 0094 0360     		str	r3, [r0]	@ float
 4050 0096 4360     		str	r3, [r0, #4]	@ float
 4051 0098 C360     		str	r3, [r0, #12]	@ float
 4052 009a C361     		str	r3, [r0, #28]	@ float
 4053 009c 0362     		str	r3, [r0, #32]	@ float
 4054 009e 4362     		str	r3, [r0, #36]	@ float
 4055              	.LBE1565:
 4056              	.LBE1563:
 4057              	.LBE1562:
  24:main.cpp      **** 
 4058              		.loc 10 24 13 view .LVU896
 4059 00a0 094A     		ldr	r2, .L60+12
 4060 00a2 1249     		ldr	r1, .L60+48
 4061              	.LBB1568:
 4062              	.LBB1567:
ARM GAS  C:\Users\skipi\AppData\Local\Temp\cceg9rRe.s 			page 117


 4063              	.LBB1566:
  44:../../libs/DaisySP/Source/Control/adsr.h ****     ~Adsr() {}
 4064              		.loc 7 44 12 view .LVU897
 4065 00a4 C0F808C0 		str	ip, [r0, #8]	@ float
 4066 00a8 C0F810C0 		str	ip, [r0, #16]	@ float
 4067 00ac C0F814C0 		str	ip, [r0, #20]	@ float
 4068 00b0 C0F818C0 		str	ip, [r0, #24]	@ float
 4069              	.LBE1566:
 4070              	.LBE1567:
 4071              	.LBE1568:
 4072              	.LBE1569:
 4073              	.LBE1571:
 4074              		.loc 10 148 1 view .LVU898
 4075 00b4 BDE83840 		pop	{r3, r4, r5, lr}
 4076              		.cfi_restore 14
 4077              		.cfi_restore 5
 4078              		.cfi_restore 4
 4079              		.cfi_restore 3
 4080              		.cfi_def_cfa_offset 0
 4081              	.LBB1572:
 4082              	.LBB1570:
  24:main.cpp      **** 
 4083              		.loc 10 24 13 view .LVU899
 4084 00b8 FFF7FEBF 		b	__aeabi_atexit
 4085              	.LVL194:
 4086              	.L61:
 4087              		.align	2
 4088              	.L60:
 4089 00bc 00000000 		.word	.LANCHOR5
 4090 00c0 00000000 		.word	.LANCHOR4
 4091 00c4 01080109 		.word	151062529
 4092 00c8 00000000 		.word	__dso_handle
 4093 00cc 00000000 		.word	_ZN5daisy6Mpr121INS_18Mpr121I2CTransportEED1Ev
 4094 00d0 00000000 		.word	.LANCHOR3
 4095 00d4 00000000 		.word	.LANCHOR6
 4096 00d8 00000000 		.word	_ZN5daisy9DaisySeedD1Ev
 4097 00dc 00000000 		.word	_ZN6CapFirD1Ev
 4098 00e0 00000000 		.word	_ZN7daisysp10OscillatorD1Ev
 4099 00e4 00000000 		.word	.LANCHOR2
 4100 00e8 00000000 		.word	.LANCHOR1
 4101 00ec 00000000 		.word	_ZN7daisysp4AdsrD1Ev
 4102 00f0 000080BF 		.word	-1082130432
 4103              	.LBE1570:
 4104              	.LBE1572:
 4105              		.cfi_endproc
 4106              	.LFE5427:
 4108              		.section	.init_array,"aw",%init_array
 4109              		.align	2
 4110 0000 00000000 		.word	_GLOBAL__sub_I_mpr121ObjConf(target1)
 4111              		.global	output
 4112              		.global	touchTreshold
 4113              		.global	currTouched
 4114              		.global	lastTouched
 4115              		.global	gate
 4116              		.global	filtDelta
 4117              		.global	delta
 4118              		.global	f
ARM GAS  C:\Users\skipi\AppData\Local\Temp\cceg9rRe.s 			page 118


 4119              		.global	capFilter
 4120              		.global	hw
 4121              		.global	cap
 4122              		.global	mpr121ObjConf
 4123              		.section	.bss._ZL3env,"aw",%nobits
 4124              		.align	2
 4125              		.set	.LANCHOR1,. + 0
 4128              	_ZL3env:
 4129 0000 00000000 		.space	48
 4129      00000000 
 4129      00000000 
 4129      00000000 
 4129      00000000 
 4130              		.section	.bss._ZL3osc,"aw",%nobits
 4131              		.align	2
 4132              		.set	.LANCHOR2,. + 0
 4135              	_ZL3osc:
 4136 0000 00000000 		.space	44
 4136      00000000 
 4136      00000000 
 4136      00000000 
 4136      00000000 
 4137              		.section	.bss.cap,"aw",%nobits
 4138              		.align	2
 4139              		.set	.LANCHOR5,. + 0
 4142              	cap:
 4143 0000 00000000 		.space	52
 4143      00000000 
 4143      00000000 
 4143      00000000 
 4143      00000000 
 4144              		.section	.bss.capFilter,"aw",%nobits
 4145              		.align	2
 4146              		.set	.LANCHOR6,. + 0
 4149              	capFilter:
 4150 0000 00000000 		.space	900
 4150      00000000 
 4150      00000000 
 4150      00000000 
 4150      00000000 
 4151              		.section	.bss.currTouched,"aw",%nobits
 4152              		.align	1
 4153              		.set	.LANCHOR7,. + 0
 4156              	currTouched:
 4157 0000 0000     		.space	2
 4158              		.section	.bss.delta,"aw",%nobits
 4159              		.align	2
 4160              		.set	.LANCHOR10,. + 0
 4163              	delta:
 4164 0000 00000000 		.space	4
 4165              		.section	.bss.f,"aw",%nobits
 4166              		.align	2
 4167              		.set	.LANCHOR12,. + 0
 4170              	f:
 4171 0000 00000000 		.space	4
 4172              		.section	.bss.filtDelta,"aw",%nobits
 4173              		.align	2
ARM GAS  C:\Users\skipi\AppData\Local\Temp\cceg9rRe.s 			page 119


 4174              		.set	.LANCHOR11,. + 0
 4177              	filtDelta:
 4178 0000 00000000 		.space	4
 4179              		.section	.bss.gate,"aw",%nobits
 4180              		.set	.LANCHOR0,. + 0
 4183              	gate:
 4184 0000 00       		.space	1
 4185              		.section	.bss.hw,"aw",%nobits
 4186              		.align	2
 4187              		.set	.LANCHOR3,. + 0
 4190              	hw:
 4191 0000 00000000 		.space	116
 4191      00000000 
 4191      00000000 
 4191      00000000 
 4191      00000000 
 4192              		.section	.bss.lastTouched,"aw",%nobits
 4193              		.align	1
 4194              		.set	.LANCHOR8,. + 0
 4197              	lastTouched:
 4198 0000 0000     		.space	2
 4199              		.section	.bss.mpr121ObjConf,"aw",%nobits
 4200              		.align	2
 4201              		.set	.LANCHOR4,. + 0
 4204              	mpr121ObjConf:
 4205 0000 00000000 		.space	24
 4205      00000000 
 4205      00000000 
 4205      00000000 
 4205      00000000 
 4206              		.section	.bss.output,"aw",%nobits
 4207              		.align	2
 4210              	output:
 4211 0000 00000000 		.space	4
 4212              		.section	.data.touchTreshold,"aw"
 4213              		.set	.LANCHOR9,. + 0
 4216              	touchTreshold:
 4217 0000 02       		.byte	2
 4218              		.text
 4219              	.Letext0:
 4220              		.file 17 "c:\\program files\\daisytoolchain\\arm-none-eabi\\include\\machine\\_default_types.h"
 4221              		.file 18 "c:\\program files\\daisytoolchain\\arm-none-eabi\\include\\sys\\_stdint.h"
 4222              		.file 19 "c:\\program files\\daisytoolchain\\arm-none-eabi\\include\\stdint.h"
 4223              		.file 20 "c:\\program files\\daisytoolchain\\lib\\gcc\\arm-none-eabi\\10.2.1\\include\\stddef.h"
 4224              		.file 21 "c:\\program files\\daisytoolchain\\arm-none-eabi\\include\\c++\\10.2.1\\cmath"
 4225              		.file 22 "c:\\program files\\daisytoolchain\\arm-none-eabi\\include\\c++\\10.2.1\\bits\\std_abs.h"
 4226              		.file 23 "c:\\program files\\daisytoolchain\\arm-none-eabi\\include\\c++\\10.2.1\\cstdlib"
 4227              		.file 24 "c:\\program files\\daisytoolchain\\arm-none-eabi\\include\\c++\\10.2.1\\cstdint"
 4228              		.file 25 "c:\\program files\\daisytoolchain\\arm-none-eabi\\include\\c++\\10.2.1\\type_traits"
 4229              		.file 26 "c:\\program files\\daisytoolchain\\arm-none-eabi\\include\\c++\\10.2.1\\debug\\debug.h"
 4230              		.file 27 "c:\\program files\\daisytoolchain\\arm-none-eabi\\include\\c++\\10.2.1\\arm-none-eabi\\t
 4231              		.file 28 "c:\\program files\\daisytoolchain\\arm-none-eabi\\include\\c++\\10.2.1\\bits\\algorithmf
 4232              		.file 29 "c:\\program files\\daisytoolchain\\arm-none-eabi\\include\\c++\\10.2.1\\bits\\stl_pair.h
 4233              		.file 30 "c:\\program files\\daisytoolchain\\arm-none-eabi\\include\\c++\\10.2.1\\bits\\exception_
 4234              		.file 31 "c:\\program files\\daisytoolchain\\arm-none-eabi\\include\\c++\\10.2.1\\cstdarg"
 4235              		.file 32 "c:\\program files\\daisytoolchain\\arm-none-eabi\\include\\c++\\10.2.1\\cstdio"
 4236              		.file 33 "c:\\program files\\daisytoolchain\\arm-none-eabi\\include\\c++\\10.2.1\\cstring"
ARM GAS  C:\Users\skipi\AppData\Local\Temp\cceg9rRe.s 			page 120


 4237              		.file 34 "c:\\program files\\daisytoolchain\\arm-none-eabi\\include\\c++\\10.2.1\\cwchar"
 4238              		.file 35 "c:\\program files\\daisytoolchain\\arm-none-eabi\\include\\c++\\10.2.1\\clocale"
 4239              		.file 36 "c:\\program files\\daisytoolchain\\arm-none-eabi\\include\\c++\\10.2.1\\bits\\basic_stri
 4240              		.file 37 "c:\\program files\\daisytoolchain\\arm-none-eabi\\include\\c++\\10.2.1\\bits\\stl_tempbu
 4241              		.file 38 "c:\\program files\\daisytoolchain\\arm-none-eabi\\include\\c++\\10.2.1\\bits\\predefined
 4242              		.file 39 "c:\\program files\\daisytoolchain\\arm-none-eabi\\include\\sys\\_types.h"
 4243              		.file 40 "c:\\program files\\daisytoolchain\\arm-none-eabi\\include\\sys\\reent.h"
 4244              		.file 41 "c:\\program files\\daisytoolchain\\arm-none-eabi\\include\\sys\\lock.h"
 4245              		.file 42 "c:\\program files\\daisytoolchain\\arm-none-eabi\\include\\math.h"
 4246              		.file 43 "c:\\program files\\daisytoolchain\\arm-none-eabi\\include\\stdlib.h"
 4247              		.file 44 "c:\\program files\\daisytoolchain\\arm-none-eabi\\include\\c++\\10.2.1\\math.h"
 4248              		.file 45 "c:\\program files\\daisytoolchain\\arm-none-eabi\\include\\c++\\10.2.1\\stdlib.h"
 4249              		.file 46 "../../libs/libDaisy/src/per/tim.h"
 4250              		.file 47 "../../libs/libDaisy/src/hid/logger_impl.h"
 4251              		.file 48 "../../libs/libDaisy/src/util/wav_format.h"
 4252              		.file 49 "../../libs/libDaisy/src/dev/sr_595.h"
 4253              		.file 50 "../../libs/libDaisy/src/dev/max11300.h"
 4254              		.file 51 "../../libs/libDaisy/src/hid/logger.h"
 4255              		.file 52 "../../libs/libDaisy/src/dev/sdram.h"
 4256              		.file 53 "c:\\program files\\daisytoolchain\\lib\\gcc\\arm-none-eabi\\10.2.1\\include\\stdarg.h"
 4257              		.file 54 "c:\\program files\\daisytoolchain\\arm-none-eabi\\include\\stdio.h"
 4258              		.file 55 "c:\\program files\\daisytoolchain\\arm-none-eabi\\include\\string.h"
 4259              		.file 56 "../../libs/DaisySP/Source/Control/adenv.h"
 4260              		.file 57 "../../libs/DaisySP/Source/Utility/dsp.h"
 4261              		.file 58 "c:\\program files\\daisytoolchain\\arm-none-eabi\\include\\wchar.h"
 4262              		.file 59 "c:\\program files\\daisytoolchain\\arm-none-eabi\\include\\locale.h"
 4263              		.file 60 "../../Classes/FIIR/CapFir.h"
 4264              		.file 61 "<built-in>"
ARM GAS  C:\Users\skipi\AppData\Local\Temp\cceg9rRe.s 			page 121


DEFINED SYMBOLS
                            *ABS*:00000000 main.cpp
C:\Users\skipi\AppData\Local\Temp\cceg9rRe.s:17     .text._ZN5daisy9DaisySeedD2Ev:00000000 $t
C:\Users\skipi\AppData\Local\Temp\cceg9rRe.s:26     .text._ZN5daisy9DaisySeedD2Ev:00000000 _ZN5daisy9DaisySeedD2Ev
C:\Users\skipi\AppData\Local\Temp\cceg9rRe.s:26     .text._ZN5daisy9DaisySeedD2Ev:00000000 _ZN5daisy9DaisySeedD1Ev
C:\Users\skipi\AppData\Local\Temp\cceg9rRe.s:73     .text._ZN7daisysp4AdsrD2Ev:00000000 $t
C:\Users\skipi\AppData\Local\Temp\cceg9rRe.s:81     .text._ZN7daisysp4AdsrD2Ev:00000000 _ZN7daisysp4AdsrD2Ev
C:\Users\skipi\AppData\Local\Temp\cceg9rRe.s:81     .text._ZN7daisysp4AdsrD2Ev:00000000 _ZN7daisysp4AdsrD1Ev
C:\Users\skipi\AppData\Local\Temp\cceg9rRe.s:98     .text._ZN7daisysp10OscillatorD2Ev:00000000 $t
C:\Users\skipi\AppData\Local\Temp\cceg9rRe.s:106    .text._ZN7daisysp10OscillatorD2Ev:00000000 _ZN7daisysp10OscillatorD2Ev
C:\Users\skipi\AppData\Local\Temp\cceg9rRe.s:106    .text._ZN7daisysp10OscillatorD2Ev:00000000 _ZN7daisysp10OscillatorD1Ev
C:\Users\skipi\AppData\Local\Temp\cceg9rRe.s:123    .text._ZN5daisy6Mpr121INS_18Mpr121I2CTransportEED2Ev:00000000 $t
C:\Users\skipi\AppData\Local\Temp\cceg9rRe.s:131    .text._ZN5daisy6Mpr121INS_18Mpr121I2CTransportEED2Ev:00000000 _ZN5daisy6Mpr121INS_18Mpr121I2CTransportEED2Ev
C:\Users\skipi\AppData\Local\Temp\cceg9rRe.s:131    .text._ZN5daisy6Mpr121INS_18Mpr121I2CTransportEED2Ev:00000000 _ZN5daisy6Mpr121INS_18Mpr121I2CTransportEED1Ev
C:\Users\skipi\AppData\Local\Temp\cceg9rRe.s:153    .text._ZL13AudioCallbackPKfPfj:00000000 $t
C:\Users\skipi\AppData\Local\Temp\cceg9rRe.s:160    .text._ZL13AudioCallbackPKfPfj:00000000 _ZL13AudioCallbackPKfPfj
C:\Users\skipi\AppData\Local\Temp\cceg9rRe.s:257    .text._ZL13AudioCallbackPKfPfj:00000044 $d
C:\Users\skipi\AppData\Local\Temp\cceg9rRe.s:264    .text._ZN5daisy6Mpr121INS_18Mpr121I2CTransportEE13WriteRegisterEhh:00000000 $t
C:\Users\skipi\AppData\Local\Temp\cceg9rRe.s:272    .text._ZN5daisy6Mpr121INS_18Mpr121I2CTransportEE13WriteRegisterEhh:00000000 _ZN5daisy6Mpr121INS_18Mpr121I2CTransportEE13WriteRegisterEhh
C:\Users\skipi\AppData\Local\Temp\cceg9rRe.s:642    .rodata.main.str1.4:00000000 $d
C:\Users\skipi\AppData\Local\Temp\cceg9rRe.s:680    .text.startup.main:00000000 $t
C:\Users\skipi\AppData\Local\Temp\cceg9rRe.s:688    .text.startup.main:00000000 main
C:\Users\skipi\AppData\Local\Temp\cceg9rRe.s:1804   .text.startup.main:00000344 $d
C:\Users\skipi\AppData\Local\Temp\cceg9rRe.s:1817   .text.startup.main:00000374 $t
C:\Users\skipi\AppData\Local\Temp\cceg9rRe.s:1954   .text.startup.main:00000438 $d
C:\Users\skipi\AppData\Local\Temp\cceg9rRe.s:1964   .text.startup.main:00000458 $t
C:\Users\skipi\AppData\Local\Temp\cceg9rRe.s:3436   .text.startup.main:0000075c $d
C:\Users\skipi\AppData\Local\Temp\cceg9rRe.s:3463   .text.startup._GLOBAL__sub_I_mpr121ObjConf:00000000 $t
C:\Users\skipi\AppData\Local\Temp\cceg9rRe.s:3470   .text.startup._GLOBAL__sub_I_mpr121ObjConf:00000000 _GLOBAL__sub_I_mpr121ObjConf
C:\Users\skipi\AppData\Local\Temp\cceg9rRe.s:4089   .text.startup._GLOBAL__sub_I_mpr121ObjConf:000000bc $d
C:\Users\skipi\AppData\Local\Temp\cceg9rRe.s:4109   .init_array:00000000 $d
C:\Users\skipi\AppData\Local\Temp\cceg9rRe.s:4210   .bss.output:00000000 output
C:\Users\skipi\AppData\Local\Temp\cceg9rRe.s:4216   .data.touchTreshold:00000000 touchTreshold
C:\Users\skipi\AppData\Local\Temp\cceg9rRe.s:4156   .bss.currTouched:00000000 currTouched
C:\Users\skipi\AppData\Local\Temp\cceg9rRe.s:4197   .bss.lastTouched:00000000 lastTouched
C:\Users\skipi\AppData\Local\Temp\cceg9rRe.s:4183   .bss.gate:00000000 gate
C:\Users\skipi\AppData\Local\Temp\cceg9rRe.s:4177   .bss.filtDelta:00000000 filtDelta
C:\Users\skipi\AppData\Local\Temp\cceg9rRe.s:4163   .bss.delta:00000000 delta
C:\Users\skipi\AppData\Local\Temp\cceg9rRe.s:4170   .bss.f:00000000 f
C:\Users\skipi\AppData\Local\Temp\cceg9rRe.s:4149   .bss.capFilter:00000000 capFilter
C:\Users\skipi\AppData\Local\Temp\cceg9rRe.s:4190   .bss.hw:00000000 hw
C:\Users\skipi\AppData\Local\Temp\cceg9rRe.s:4142   .bss.cap:00000000 cap
C:\Users\skipi\AppData\Local\Temp\cceg9rRe.s:4204   .bss.mpr121ObjConf:00000000 mpr121ObjConf
C:\Users\skipi\AppData\Local\Temp\cceg9rRe.s:4124   .bss._ZL3env:00000000 $d
C:\Users\skipi\AppData\Local\Temp\cceg9rRe.s:4128   .bss._ZL3env:00000000 _ZL3env
C:\Users\skipi\AppData\Local\Temp\cceg9rRe.s:4131   .bss._ZL3osc:00000000 $d
C:\Users\skipi\AppData\Local\Temp\cceg9rRe.s:4135   .bss._ZL3osc:00000000 _ZL3osc
C:\Users\skipi\AppData\Local\Temp\cceg9rRe.s:4138   .bss.cap:00000000 $d
C:\Users\skipi\AppData\Local\Temp\cceg9rRe.s:4145   .bss.capFilter:00000000 $d
C:\Users\skipi\AppData\Local\Temp\cceg9rRe.s:4152   .bss.currTouched:00000000 $d
C:\Users\skipi\AppData\Local\Temp\cceg9rRe.s:4159   .bss.delta:00000000 $d
C:\Users\skipi\AppData\Local\Temp\cceg9rRe.s:4166   .bss.f:00000000 $d
C:\Users\skipi\AppData\Local\Temp\cceg9rRe.s:4173   .bss.filtDelta:00000000 $d
C:\Users\skipi\AppData\Local\Temp\cceg9rRe.s:4184   .bss.gate:00000000 $d
C:\Users\skipi\AppData\Local\Temp\cceg9rRe.s:4186   .bss.hw:00000000 $d
C:\Users\skipi\AppData\Local\Temp\cceg9rRe.s:4193   .bss.lastTouched:00000000 $d
C:\Users\skipi\AppData\Local\Temp\cceg9rRe.s:4200   .bss.mpr121ObjConf:00000000 $d
ARM GAS  C:\Users\skipi\AppData\Local\Temp\cceg9rRe.s 			page 122


C:\Users\skipi\AppData\Local\Temp\cceg9rRe.s:4207   .bss.output:00000000 $d
                           .group:00000000 _ZN5daisy9DaisySeedD5Ev
                           .group:00000000 _ZN7daisysp4AdsrD5Ev
                           .group:00000000 _ZN7daisysp10OscillatorD5Ev
                           .group:00000000 _ZN5daisy6Mpr121INS_18Mpr121I2CTransportEED5Ev

UNDEFINED SYMBOLS
_ZN7daisysp4Adsr7ProcessEb
_ZN7daisysp10Oscillator7ProcessEv
_ZN5daisy9I2CHandle16TransmitBlockingEtPhtm
_ZN5daisy9I2CHandle15ReceiveBlockingEtPhtm
_ZN5daisy9DaisySeed9ConfigureEv
_ZN5daisy9DaisySeed4InitEb
_ZN5daisy9DaisySeed17SetAudioBlockSizeEj
_ZN5daisy9DaisySeed15AudioSampleRateEv
_ZN7daisysp10Oscillator12CalcPhaseIncEf
_ZN7daisysp4Adsr4InitEfi
_ZN7daisysp4Adsr7SetTimeEif
_ZN5daisy6LoggerILNS_17LoggerDestinationE1EE8StartLogEb
_ZN5daisy9I2CHandle4InitERKNS0_6ConfigE
_ZN5daisy6System5DelayEm
_ZN5daisy9DaisySeed6SetLedEb
_ZN5daisy9DaisySeed7DelayMsEj
_ZN6CapFir4InitENS_7ResTypeE
_ZN5daisy9DaisySeed10StartAudioEPFvPKfPfjE
_ZN5daisy6LoggerILNS_17LoggerDestinationE1EE9PrintLineEPKcz
_ZN5daisy9I2CHandle8Mem_readEtttPhtm
_ZN6CapFir7ProcessEf
__aeabi_atexit
_ZN6CapFirC1Ev
__dso_handle
_ZN6CapFirD1Ev
