ARM GAS  C:\Users\skipi\AppData\Local\Temp\ccTbm0XL.s 			page 1


   1              		.cpu cortex-m7
   2              		.eabi_attribute 28, 1
   3              		.eabi_attribute 20, 1
   4              		.eabi_attribute 21, 1
   5              		.eabi_attribute 23, 3
   6              		.eabi_attribute 24, 1
   7              		.eabi_attribute 25, 1
   8              		.eabi_attribute 26, 1
   9              		.eabi_attribute 30, 2
  10              		.eabi_attribute 34, 1
  11              		.eabi_attribute 18, 4
  12              		.file	"main.cpp"
  13              		.text
  14              	.Ltext0:
  15              		.cfi_sections	.debug_frame
  16              		.section	.text._ZN5daisy7EncoderD2Ev,"axG",%progbits,_ZN5daisy7EncoderD5Ev,comdat
  17              		.align	1
  18              		.p2align 2,,3
  19              		.weak	_ZN5daisy7EncoderD2Ev
  20              		.arch armv7e-m
  21              		.syntax unified
  22              		.thumb
  23              		.thumb_func
  24              		.fpu fpv5-d16
  26              	_ZN5daisy7EncoderD2Ev:
  27              	.LVL0:
  28              	.LFB1700:
  29              		.file 1 "../../libs/libDaisy/src/hid/encoder.h"
   1:../../libs/libDaisy/src/hid/encoder.h **** #pragma once
   2:../../libs/libDaisy/src/hid/encoder.h **** #ifndef DSY_ENCODER_H
   3:../../libs/libDaisy/src/hid/encoder.h **** #define DSY_ENCODER_H
   4:../../libs/libDaisy/src/hid/encoder.h **** #include "daisy_core.h"
   5:../../libs/libDaisy/src/hid/encoder.h **** #include "per/gpio.h"
   6:../../libs/libDaisy/src/hid/encoder.h **** #include "hid/switch.h"
   7:../../libs/libDaisy/src/hid/encoder.h **** 
   8:../../libs/libDaisy/src/hid/encoder.h **** namespace daisy
   9:../../libs/libDaisy/src/hid/encoder.h **** {
  10:../../libs/libDaisy/src/hid/encoder.h **** /** 
  11:../../libs/libDaisy/src/hid/encoder.h ****     @brief Generic Class for handling Quadrature Encoders \n 
  12:../../libs/libDaisy/src/hid/encoder.h ****     Inspired/influenced by Mutable Instruments (pichenettes) Encoder classes
  13:../../libs/libDaisy/src/hid/encoder.h ****     @author Stephen Hensley
  14:../../libs/libDaisy/src/hid/encoder.h ****     @date December 2019
  15:../../libs/libDaisy/src/hid/encoder.h ****     @ingroup controls
  16:../../libs/libDaisy/src/hid/encoder.h **** */
  17:../../libs/libDaisy/src/hid/encoder.h **** class Encoder
  18:../../libs/libDaisy/src/hid/encoder.h **** {
  19:../../libs/libDaisy/src/hid/encoder.h ****   public:
  20:../../libs/libDaisy/src/hid/encoder.h ****     Encoder() {}
  21:../../libs/libDaisy/src/hid/encoder.h ****     ~Encoder() {}
  30              		.loc 1 21 5 view -0
  31              		.cfi_startproc
  32              		@ args = 0, pretend = 0, frame = 0
  33              		@ frame_needed = 0, uses_anonymous_args = 0
  34              		@ link register save eliminated.
  35              	.LBB260:
  36              	.LBI260:
  37              		.file 2 "../../libs/libDaisy/src/hid/switch.h"
ARM GAS  C:\Users\skipi\AppData\Local\Temp\ccTbm0XL.s 			page 2


   1:../../libs/libDaisy/src/hid/switch.h **** #pragma once
   2:../../libs/libDaisy/src/hid/switch.h **** #ifndef DSY_SWITCH_H
   3:../../libs/libDaisy/src/hid/switch.h **** #define DSY_SWITCH_H
   4:../../libs/libDaisy/src/hid/switch.h **** #include "daisy_core.h"
   5:../../libs/libDaisy/src/hid/switch.h **** #include "per/gpio.h"
   6:../../libs/libDaisy/src/hid/switch.h **** #include "sys/system.h"
   7:../../libs/libDaisy/src/hid/switch.h **** 
   8:../../libs/libDaisy/src/hid/switch.h **** namespace daisy
   9:../../libs/libDaisy/src/hid/switch.h **** {
  10:../../libs/libDaisy/src/hid/switch.h **** /** 
  11:../../libs/libDaisy/src/hid/switch.h ****     Generic Class for handling momentary/latching switches \n 
  12:../../libs/libDaisy/src/hid/switch.h ****     Inspired/influenced by Mutable Instruments (pichenettes) Switch classes
  13:../../libs/libDaisy/src/hid/switch.h ****     @author Stephen Hensley
  14:../../libs/libDaisy/src/hid/switch.h ****     @date December 2019
  15:../../libs/libDaisy/src/hid/switch.h ****     @ingroup controls
  16:../../libs/libDaisy/src/hid/switch.h **** */
  17:../../libs/libDaisy/src/hid/switch.h **** class Switch
  18:../../libs/libDaisy/src/hid/switch.h **** {
  19:../../libs/libDaisy/src/hid/switch.h ****   public:
  20:../../libs/libDaisy/src/hid/switch.h ****     /** Specifies the expected behavior of the switch */
  21:../../libs/libDaisy/src/hid/switch.h ****     enum Type
  22:../../libs/libDaisy/src/hid/switch.h ****     {
  23:../../libs/libDaisy/src/hid/switch.h ****         TYPE_TOGGLE,    /**< & */
  24:../../libs/libDaisy/src/hid/switch.h ****         TYPE_MOMENTARY, /**< & */
  25:../../libs/libDaisy/src/hid/switch.h ****     };
  26:../../libs/libDaisy/src/hid/switch.h ****     /** Specifies whether the pressed is HIGH or LOW. */
  27:../../libs/libDaisy/src/hid/switch.h ****     enum Polarity
  28:../../libs/libDaisy/src/hid/switch.h ****     {
  29:../../libs/libDaisy/src/hid/switch.h ****         POLARITY_NORMAL,   /**< & */
  30:../../libs/libDaisy/src/hid/switch.h ****         POLARITY_INVERTED, /**< & */
  31:../../libs/libDaisy/src/hid/switch.h ****     };
  32:../../libs/libDaisy/src/hid/switch.h **** 
  33:../../libs/libDaisy/src/hid/switch.h ****     Switch() {}
  34:../../libs/libDaisy/src/hid/switch.h ****     ~Switch() {}
  38              		.loc 2 34 5 view .LVU1
  39              		.loc 2 34 5 is_stmt 0 view .LVU2
  40              	.LBE260:
  41              		.loc 1 21 17 view .LVU3
  42 0000 7047     		bx	lr
  43              		.cfi_endproc
  44              	.LFE1700:
  46              		.weak	_ZN5daisy7EncoderD1Ev
  47              		.thumb_set _ZN5daisy7EncoderD1Ev,_ZN5daisy7EncoderD2Ev
  48 0002 00BF     		.section	.text._ZN5daisy9DaisySeedD2Ev,"axG",%progbits,_ZN5daisy9DaisySeedD5Ev,comdat
  49              		.align	1
  50              		.p2align 2,,3
  51              		.weak	_ZN5daisy9DaisySeedD2Ev
  52              		.syntax unified
  53              		.thumb
  54              		.thumb_func
  55              		.fpu fpv5-d16
  57              	_ZN5daisy9DaisySeedD2Ev:
  58              	.LVL1:
  59              	.LFB2671:
  60              		.file 3 "../../libs/libDaisy/src/daisy_seed.h"
   1:../../libs/libDaisy/src/daisy_seed.h **** #pragma once
   2:../../libs/libDaisy/src/daisy_seed.h **** #ifndef DSY_SEED_H
ARM GAS  C:\Users\skipi\AppData\Local\Temp\ccTbm0XL.s 			page 3


   3:../../libs/libDaisy/src/daisy_seed.h **** #define DSY_SEED_H
   4:../../libs/libDaisy/src/daisy_seed.h **** 
   5:../../libs/libDaisy/src/daisy_seed.h **** #include "daisy.h"
   6:../../libs/libDaisy/src/daisy_seed.h **** 
   7:../../libs/libDaisy/src/daisy_seed.h **** //Uncomment this out if you're still using the rev2 hardware
   8:../../libs/libDaisy/src/daisy_seed.h **** //#define SEED_REV2
   9:../../libs/libDaisy/src/daisy_seed.h **** 
  10:../../libs/libDaisy/src/daisy_seed.h **** namespace daisy
  11:../../libs/libDaisy/src/daisy_seed.h **** {
  12:../../libs/libDaisy/src/daisy_seed.h **** /**
  13:../../libs/libDaisy/src/daisy_seed.h ****    @brief This is the higher-level interface for the Daisy board. \n 
  14:../../libs/libDaisy/src/daisy_seed.h ****     All basic peripheral configuration/initialization is setup here. \n
  15:../../libs/libDaisy/src/daisy_seed.h **** 
  16:../../libs/libDaisy/src/daisy_seed.h ****    @ingroup boards
  17:../../libs/libDaisy/src/daisy_seed.h **** */
  18:../../libs/libDaisy/src/daisy_seed.h **** class DaisySeed
  19:../../libs/libDaisy/src/daisy_seed.h **** {
  20:../../libs/libDaisy/src/daisy_seed.h ****   public:
  21:../../libs/libDaisy/src/daisy_seed.h ****     DaisySeed() {}
  22:../../libs/libDaisy/src/daisy_seed.h ****     ~DaisySeed() {}
  61              		.loc 3 22 5 is_stmt 1 view -0
  62              		.cfi_startproc
  63              		@ args = 0, pretend = 0, frame = 0
  64              		@ frame_needed = 0, uses_anonymous_args = 0
  65              		@ link register save eliminated.
  66              	.LBB261:
  67              	.LBI261:
  68              		.file 4 "../../libs/libDaisy/src/dev/codec_ak4556.h"
   1:../../libs/libDaisy/src/dev/codec_ak4556.h **** #pragma once
   2:../../libs/libDaisy/src/dev/codec_ak4556.h **** #ifndef DSY_CODEC_AK4556_H
   3:../../libs/libDaisy/src/dev/codec_ak4556.h **** #define DSY_CODEC_AK4556_H
   4:../../libs/libDaisy/src/dev/codec_ak4556.h **** 
   5:../../libs/libDaisy/src/dev/codec_ak4556.h **** #include "daisy_core.h"
   6:../../libs/libDaisy/src/dev/codec_ak4556.h **** #include "per/gpio.h"
   7:../../libs/libDaisy/src/dev/codec_ak4556.h **** 
   8:../../libs/libDaisy/src/dev/codec_ak4556.h **** namespace daisy
   9:../../libs/libDaisy/src/dev/codec_ak4556.h **** {
  10:../../libs/libDaisy/src/dev/codec_ak4556.h **** /** @brief Ak4556 Codec support 
  11:../../libs/libDaisy/src/dev/codec_ak4556.h ****  ** @author shensley
  12:../../libs/libDaisy/src/dev/codec_ak4556.h ****  ** @addtogroup codec
  13:../../libs/libDaisy/src/dev/codec_ak4556.h ****  ** 
  14:../../libs/libDaisy/src/dev/codec_ak4556.h ****  ** I don't see any real reason to have this be more than a function, but in case we want
  15:../../libs/libDaisy/src/dev/codec_ak4556.h ****  ** to add other functions down the road I wrapped the function in a class.
  16:../../libs/libDaisy/src/dev/codec_ak4556.h ****  ***/
  17:../../libs/libDaisy/src/dev/codec_ak4556.h **** class Ak4556
  18:../../libs/libDaisy/src/dev/codec_ak4556.h **** {
  19:../../libs/libDaisy/src/dev/codec_ak4556.h ****   public:
  20:../../libs/libDaisy/src/dev/codec_ak4556.h ****     Ak4556() {}
  21:../../libs/libDaisy/src/dev/codec_ak4556.h ****     ~Ak4556() {}
  69              		.loc 4 21 5 view .LVU5
  70              		.loc 4 21 5 is_stmt 0 view .LVU6
  71              	.LBE261:
  72              	.LBB262:
  73              	.LBI262:
  74              		.file 5 "../../libs/libDaisy/src/sys/system.h"
   1:../../libs/libDaisy/src/sys/system.h **** #ifndef DSY_SYSTEM_H
   2:../../libs/libDaisy/src/sys/system.h **** #define DSY_SYSTEM_H
ARM GAS  C:\Users\skipi\AppData\Local\Temp\ccTbm0XL.s 			page 4


   3:../../libs/libDaisy/src/sys/system.h **** 
   4:../../libs/libDaisy/src/sys/system.h **** #ifndef UNIT_TEST // for unit tests, a dummy implementation is provided below
   5:../../libs/libDaisy/src/sys/system.h **** 
   6:../../libs/libDaisy/src/sys/system.h **** #include <cstdint>
   7:../../libs/libDaisy/src/sys/system.h **** #include "per/tim.h"
   8:../../libs/libDaisy/src/sys/system.h **** 
   9:../../libs/libDaisy/src/sys/system.h **** namespace daisy
  10:../../libs/libDaisy/src/sys/system.h **** {
  11:../../libs/libDaisy/src/sys/system.h **** /** A handle for interacting with the Core System.
  12:../../libs/libDaisy/src/sys/system.h ****  ** This includes the Clock tree, MPU, global DMA initialization,
  13:../../libs/libDaisy/src/sys/system.h ****  ** cache handling, and any other necessary global initiailzation
  14:../../libs/libDaisy/src/sys/system.h ****  **
  15:../../libs/libDaisy/src/sys/system.h ****  ** @author shensley
  16:../../libs/libDaisy/src/sys/system.h ****  ** @ingroup system
  17:../../libs/libDaisy/src/sys/system.h ****  */
  18:../../libs/libDaisy/src/sys/system.h **** class System
  19:../../libs/libDaisy/src/sys/system.h **** {
  20:../../libs/libDaisy/src/sys/system.h ****   public:
  21:../../libs/libDaisy/src/sys/system.h ****     /** Contains settings for initializing the System */
  22:../../libs/libDaisy/src/sys/system.h ****     struct Config
  23:../../libs/libDaisy/src/sys/system.h ****     {
  24:../../libs/libDaisy/src/sys/system.h ****         /** Specifies the system clock frequency that feeds APB/AHB clocks, etc. */
  25:../../libs/libDaisy/src/sys/system.h ****         enum class SysClkFreq
  26:../../libs/libDaisy/src/sys/system.h ****         {
  27:../../libs/libDaisy/src/sys/system.h ****             FREQ_400MHZ,
  28:../../libs/libDaisy/src/sys/system.h ****             FREQ_480MHZ,
  29:../../libs/libDaisy/src/sys/system.h ****         };
  30:../../libs/libDaisy/src/sys/system.h **** 
  31:../../libs/libDaisy/src/sys/system.h ****         /** Method to call on the struct to set to defaults
  32:../../libs/libDaisy/src/sys/system.h ****          ** CPU Freq set to 400MHz
  33:../../libs/libDaisy/src/sys/system.h ****          ** Cache Enabled
  34:../../libs/libDaisy/src/sys/system.h ****          ** */
  35:../../libs/libDaisy/src/sys/system.h ****         void Defaults()
  36:../../libs/libDaisy/src/sys/system.h ****         {
  37:../../libs/libDaisy/src/sys/system.h ****             cpu_freq    = SysClkFreq::FREQ_400MHZ;
  38:../../libs/libDaisy/src/sys/system.h ****             use_dcache  = true;
  39:../../libs/libDaisy/src/sys/system.h ****             use_icache  = true;
  40:../../libs/libDaisy/src/sys/system.h ****             skip_clocks = false;
  41:../../libs/libDaisy/src/sys/system.h ****         }
  42:../../libs/libDaisy/src/sys/system.h **** 
  43:../../libs/libDaisy/src/sys/system.h ****         /** Method to call on the struct to set to boost mode:
  44:../../libs/libDaisy/src/sys/system.h ****          ** CPU Freq set to 480MHz
  45:../../libs/libDaisy/src/sys/system.h ****          ** Cache Enabled
  46:../../libs/libDaisy/src/sys/system.h ****          ** */
  47:../../libs/libDaisy/src/sys/system.h ****         void Boost()
  48:../../libs/libDaisy/src/sys/system.h ****         {
  49:../../libs/libDaisy/src/sys/system.h ****             cpu_freq    = SysClkFreq::FREQ_480MHZ;
  50:../../libs/libDaisy/src/sys/system.h ****             use_dcache  = true;
  51:../../libs/libDaisy/src/sys/system.h ****             use_icache  = true;
  52:../../libs/libDaisy/src/sys/system.h ****             skip_clocks = false;
  53:../../libs/libDaisy/src/sys/system.h ****         }
  54:../../libs/libDaisy/src/sys/system.h **** 
  55:../../libs/libDaisy/src/sys/system.h ****         SysClkFreq cpu_freq;
  56:../../libs/libDaisy/src/sys/system.h ****         bool       use_dcache;
  57:../../libs/libDaisy/src/sys/system.h ****         bool       use_icache;
  58:../../libs/libDaisy/src/sys/system.h ****         bool       skip_clocks;
  59:../../libs/libDaisy/src/sys/system.h ****     };
ARM GAS  C:\Users\skipi\AppData\Local\Temp\ccTbm0XL.s 			page 5


  60:../../libs/libDaisy/src/sys/system.h **** 
  61:../../libs/libDaisy/src/sys/system.h ****     /** Describes the different regions of memory available to the Daisy */
  62:../../libs/libDaisy/src/sys/system.h ****     enum MemoryRegion
  63:../../libs/libDaisy/src/sys/system.h ****     {
  64:../../libs/libDaisy/src/sys/system.h ****         INTERNAL_FLASH = 0,
  65:../../libs/libDaisy/src/sys/system.h ****         ITCMRAM,
  66:../../libs/libDaisy/src/sys/system.h ****         DTCMRAM,
  67:../../libs/libDaisy/src/sys/system.h ****         SRAM_D1,
  68:../../libs/libDaisy/src/sys/system.h ****         SRAM_D2,
  69:../../libs/libDaisy/src/sys/system.h ****         SRAM_D3,
  70:../../libs/libDaisy/src/sys/system.h ****         SDRAM,
  71:../../libs/libDaisy/src/sys/system.h ****         QSPI,
  72:../../libs/libDaisy/src/sys/system.h ****         INVALID_ADDRESS,
  73:../../libs/libDaisy/src/sys/system.h ****     };
  74:../../libs/libDaisy/src/sys/system.h **** 
  75:../../libs/libDaisy/src/sys/system.h ****     /** Bootloader struct for controlling bootloading parameters */
  76:../../libs/libDaisy/src/sys/system.h ****     struct BootInfo
  77:../../libs/libDaisy/src/sys/system.h ****     {
  78:../../libs/libDaisy/src/sys/system.h ****         enum class Type : uint32_t
  79:../../libs/libDaisy/src/sys/system.h ****         {
  80:../../libs/libDaisy/src/sys/system.h ****             INVALID      = 0x00000000,
  81:../../libs/libDaisy/src/sys/system.h ****             JUMP         = 0xDEADBEEF,
  82:../../libs/libDaisy/src/sys/system.h ****             SKIP_TIMEOUT = 0x5AFEB007,
  83:../../libs/libDaisy/src/sys/system.h ****             INF_TIMEOUT  = 0xB0074EFA,
  84:../../libs/libDaisy/src/sys/system.h ****         } status;
  85:../../libs/libDaisy/src/sys/system.h ****         uint32_t data;
  86:../../libs/libDaisy/src/sys/system.h ****         enum class Version : uint32_t
  87:../../libs/libDaisy/src/sys/system.h ****         {
  88:../../libs/libDaisy/src/sys/system.h ****             LT_v6_0 = 0, // Less than v6.0
  89:../../libs/libDaisy/src/sys/system.h ****             NONE,        // No bootloader present
  90:../../libs/libDaisy/src/sys/system.h ****             v6_0,        // v6.0
  91:../../libs/libDaisy/src/sys/system.h ****             v6_1,        // v6.1 or greater
  92:../../libs/libDaisy/src/sys/system.h ****             LAST
  93:../../libs/libDaisy/src/sys/system.h ****         } version;
  94:../../libs/libDaisy/src/sys/system.h ****     };
  95:../../libs/libDaisy/src/sys/system.h **** 
  96:../../libs/libDaisy/src/sys/system.h ****     System() {}
  97:../../libs/libDaisy/src/sys/system.h ****     ~System() {}
  75              		.loc 5 97 5 is_stmt 1 view .LVU7
  76              		.loc 5 97 5 is_stmt 0 view .LVU8
  77              	.LBE262:
  78              	.LBB263:
  79              	.LBI263:
  80              		.file 6 "../../libs/libDaisy/src/hid/usb.h"
   1:../../libs/libDaisy/src/hid/usb.h **** #pragma once
   2:../../libs/libDaisy/src/hid/usb.h **** #ifndef DSY_HID_USB_H
   3:../../libs/libDaisy/src/hid/usb.h **** #define DSY_HID_USB_H
   4:../../libs/libDaisy/src/hid/usb.h **** #include <stdint.h>
   5:../../libs/libDaisy/src/hid/usb.h **** #include <stdlib.h>
   6:../../libs/libDaisy/src/hid/usb.h **** 
   7:../../libs/libDaisy/src/hid/usb.h **** namespace daisy
   8:../../libs/libDaisy/src/hid/usb.h **** /** @addtogroup human_interface
   9:../../libs/libDaisy/src/hid/usb.h ****     @{
  10:../../libs/libDaisy/src/hid/usb.h **** */
  11:../../libs/libDaisy/src/hid/usb.h **** 
  12:../../libs/libDaisy/src/hid/usb.h **** {
  13:../../libs/libDaisy/src/hid/usb.h **** /** 
ARM GAS  C:\Users\skipi\AppData\Local\Temp\ccTbm0XL.s 			page 6


  14:../../libs/libDaisy/src/hid/usb.h ****     @brief Interface for initializing and using the USB Peripherals on the daisy
  15:../../libs/libDaisy/src/hid/usb.h ****     @author Stephen Hensley
  16:../../libs/libDaisy/src/hid/usb.h ****     @date December 2019
  17:../../libs/libDaisy/src/hid/usb.h **** */
  18:../../libs/libDaisy/src/hid/usb.h **** class UsbHandle
  19:../../libs/libDaisy/src/hid/usb.h **** {
  20:../../libs/libDaisy/src/hid/usb.h ****   public:
  21:../../libs/libDaisy/src/hid/usb.h ****     /** Return values for USBHandle Functions */
  22:../../libs/libDaisy/src/hid/usb.h ****     enum class Result
  23:../../libs/libDaisy/src/hid/usb.h ****     {
  24:../../libs/libDaisy/src/hid/usb.h ****         OK,
  25:../../libs/libDaisy/src/hid/usb.h ****         ERR,
  26:../../libs/libDaisy/src/hid/usb.h ****     };
  27:../../libs/libDaisy/src/hid/usb.h **** 
  28:../../libs/libDaisy/src/hid/usb.h ****     /** Specified which of the two USB Peripherals to initialize. */
  29:../../libs/libDaisy/src/hid/usb.h ****     enum UsbPeriph
  30:../../libs/libDaisy/src/hid/usb.h ****     {
  31:../../libs/libDaisy/src/hid/usb.h ****         FS_INTERNAL, /**< Internal pin */
  32:../../libs/libDaisy/src/hid/usb.h ****         FS_EXTERNAL, /**< FS External D+ pin is Pin 38 (GPIO32). FS External D- pin is Pin 37 (GPIO
  33:../../libs/libDaisy/src/hid/usb.h ****         FS_BOTH,     /**< Both */
  34:../../libs/libDaisy/src/hid/usb.h ****     };
  35:../../libs/libDaisy/src/hid/usb.h **** 
  36:../../libs/libDaisy/src/hid/usb.h **** 
  37:../../libs/libDaisy/src/hid/usb.h ****     /** Function called upon reception of a buffer */
  38:../../libs/libDaisy/src/hid/usb.h ****     typedef void (*ReceiveCallback)(uint8_t* buff, uint32_t* len);
  39:../../libs/libDaisy/src/hid/usb.h **** 
  40:../../libs/libDaisy/src/hid/usb.h ****     UsbHandle() {}
  41:../../libs/libDaisy/src/hid/usb.h **** 
  42:../../libs/libDaisy/src/hid/usb.h ****     ~UsbHandle() {}
  81              		.loc 6 42 5 is_stmt 1 view .LVU9
  82              		.loc 6 42 5 is_stmt 0 view .LVU10
  83              	.LBE263:
  84              	.LBB264:
  85              	.LBI264:
  86              		.file 7 "../../libs/libDaisy/src/per/adc.h"
   1:../../libs/libDaisy/src/per/adc.h **** #pragma once
   2:../../libs/libDaisy/src/per/adc.h **** #ifndef DSY_ADC_H
   3:../../libs/libDaisy/src/per/adc.h **** #define DSY_ADC_H /**< Macro */
   4:../../libs/libDaisy/src/per/adc.h **** #include <stdint.h>
   5:../../libs/libDaisy/src/per/adc.h **** #include <stdlib.h>
   6:../../libs/libDaisy/src/per/adc.h **** #include "daisy_core.h"
   7:../../libs/libDaisy/src/per/adc.h **** #include "per/gpio.h"
   8:../../libs/libDaisy/src/per/adc.h **** 
   9:../../libs/libDaisy/src/per/adc.h **** #define DSY_ADC_MAX_CHANNELS 16 /**< Maximum number of ADC channels */
  10:../../libs/libDaisy/src/per/adc.h **** 
  11:../../libs/libDaisy/src/per/adc.h **** namespace daisy
  12:../../libs/libDaisy/src/per/adc.h **** {
  13:../../libs/libDaisy/src/per/adc.h **** /** @addtogroup per_analog
  14:../../libs/libDaisy/src/per/adc.h ****     @{
  15:../../libs/libDaisy/src/per/adc.h **** */
  16:../../libs/libDaisy/src/per/adc.h **** 
  17:../../libs/libDaisy/src/per/adc.h **** /* While there may not be many configuration options here,
  18:../../libs/libDaisy/src/per/adc.h **** using a struct like this allows us to add more configuration
  19:../../libs/libDaisy/src/per/adc.h **** later without breaking existing functionality.
  20:../../libs/libDaisy/src/per/adc.h **** */
  21:../../libs/libDaisy/src/per/adc.h **** 
  22:../../libs/libDaisy/src/per/adc.h **** /** @brief   Configuration Structure for an ADC Channel 
ARM GAS  C:\Users\skipi\AppData\Local\Temp\ccTbm0XL.s 			page 7


  23:../../libs/libDaisy/src/per/adc.h ****  *  @details This can be used to configure a a single input, 
  24:../../libs/libDaisy/src/per/adc.h ****  *           or a multiplexed input, allowing up to 8 inputs on 
  25:../../libs/libDaisy/src/per/adc.h ****  *           one channel.
  26:../../libs/libDaisy/src/per/adc.h ****  *  @note    Sharing data lines to multiple muxes _is_ possible, but
  27:../../libs/libDaisy/src/per/adc.h ****  *           each channel sharing data lines must be set to the maximum
  28:../../libs/libDaisy/src/per/adc.h ****  *           number of channels, even if some multiplexers have fewer
  29:../../libs/libDaisy/src/per/adc.h ****  *           inputs connected.
  30:../../libs/libDaisy/src/per/adc.h **** */
  31:../../libs/libDaisy/src/per/adc.h **** struct AdcChannelConfig
  32:../../libs/libDaisy/src/per/adc.h **** {
  33:../../libs/libDaisy/src/per/adc.h ****     /** Which pin to use for multiplexing */
  34:../../libs/libDaisy/src/per/adc.h ****     enum MuxPin
  35:../../libs/libDaisy/src/per/adc.h ****     {
  36:../../libs/libDaisy/src/per/adc.h ****         MUX_SEL_0,    /**< & */
  37:../../libs/libDaisy/src/per/adc.h ****         MUX_SEL_1,    /**< & */
  38:../../libs/libDaisy/src/per/adc.h ****         MUX_SEL_2,    /**< & */
  39:../../libs/libDaisy/src/per/adc.h ****         MUX_SEL_LAST, /**< & */
  40:../../libs/libDaisy/src/per/adc.h ****     };
  41:../../libs/libDaisy/src/per/adc.h **** 
  42:../../libs/libDaisy/src/per/adc.h ****     /** \brief per channel conversion speed added to fixed time based on bitdepth, etc. */
  43:../../libs/libDaisy/src/per/adc.h ****     enum ConversionSpeed
  44:../../libs/libDaisy/src/per/adc.h ****     {
  45:../../libs/libDaisy/src/per/adc.h ****         SPEED_1CYCLES_5,
  46:../../libs/libDaisy/src/per/adc.h ****         SPEED_2CYCLES_5,
  47:../../libs/libDaisy/src/per/adc.h ****         SPEED_8CYCLES_5,
  48:../../libs/libDaisy/src/per/adc.h ****         SPEED_16CYCLES_5,
  49:../../libs/libDaisy/src/per/adc.h ****         SPEED_32CYCLES_5,
  50:../../libs/libDaisy/src/per/adc.h ****         SPEED_64CYCLES_5,
  51:../../libs/libDaisy/src/per/adc.h ****         SPEED_387CYCLES_5,
  52:../../libs/libDaisy/src/per/adc.h ****         SPEED_810CYCLES_5,
  53:../../libs/libDaisy/src/per/adc.h ****     };
  54:../../libs/libDaisy/src/per/adc.h **** 
  55:../../libs/libDaisy/src/per/adc.h ****     /** Initializes a single ADC pin as an ADC. 
  56:../../libs/libDaisy/src/per/adc.h ****     \param pin Pin to init.
  57:../../libs/libDaisy/src/per/adc.h ****     \param speed conversion speed for this pin defaults to 8.5 cycles
  58:../../libs/libDaisy/src/per/adc.h ****      */
  59:../../libs/libDaisy/src/per/adc.h ****     void InitSingle(Pin pin, ConversionSpeed speed = SPEED_8CYCLES_5);
  60:../../libs/libDaisy/src/per/adc.h **** 
  61:../../libs/libDaisy/src/per/adc.h ****     /** 
  62:../../libs/libDaisy/src/per/adc.h ****     Initializes a single ADC pin as a Multiplexed ADC.
  63:../../libs/libDaisy/src/per/adc.h ****     Requires a CD405X Multiplexer connected to the pin.
  64:../../libs/libDaisy/src/per/adc.h ****     You only need to supply the mux pins that are required,
  65:../../libs/libDaisy/src/per/adc.h ****     e.g. a 4052 mux would only require mux_0 and mux_1.
  66:../../libs/libDaisy/src/per/adc.h ****     Internal Callbacks handle the pin addressing.
  67:../../libs/libDaisy/src/per/adc.h ****     \param adc_pin &
  68:../../libs/libDaisy/src/per/adc.h ****     \param mux_channels must be 1-8
  69:../../libs/libDaisy/src/per/adc.h ****     \param mux_0 First mux pin
  70:../../libs/libDaisy/src/per/adc.h ****     \param mux_1 Second mux pin
  71:../../libs/libDaisy/src/per/adc.h ****     \param mux_2 Third mux pin
  72:../../libs/libDaisy/src/per/adc.h ****     \param speed conversion speed for this pin defaults to 8.5 cycles
  73:../../libs/libDaisy/src/per/adc.h ****     */
  74:../../libs/libDaisy/src/per/adc.h ****     void InitMux(Pin             adc_pin,
  75:../../libs/libDaisy/src/per/adc.h ****                  size_t          mux_channels,
  76:../../libs/libDaisy/src/per/adc.h ****                  Pin             mux_0,
  77:../../libs/libDaisy/src/per/adc.h ****                  Pin             mux_1 = Pin(PORTX, 0),
  78:../../libs/libDaisy/src/per/adc.h ****                  Pin             mux_2 = Pin(PORTX, 0),
  79:../../libs/libDaisy/src/per/adc.h ****                  ConversionSpeed speed = SPEED_8CYCLES_5);
ARM GAS  C:\Users\skipi\AppData\Local\Temp\ccTbm0XL.s 			page 8


  80:../../libs/libDaisy/src/per/adc.h **** 
  81:../../libs/libDaisy/src/per/adc.h ****     GPIO            pin_;                   /**< & */
  82:../../libs/libDaisy/src/per/adc.h ****     GPIO            mux_pin_[MUX_SEL_LAST]; /**< & */
  83:../../libs/libDaisy/src/per/adc.h ****     uint8_t         mux_channels_;          /**< & */
  84:../../libs/libDaisy/src/per/adc.h ****     ConversionSpeed speed_;
  85:../../libs/libDaisy/src/per/adc.h **** };
  86:../../libs/libDaisy/src/per/adc.h **** 
  87:../../libs/libDaisy/src/per/adc.h **** /**
  88:../../libs/libDaisy/src/per/adc.h ****    @brief Handler for analog to digital conversion
  89:../../libs/libDaisy/src/per/adc.h **** */
  90:../../libs/libDaisy/src/per/adc.h **** class AdcHandle
  91:../../libs/libDaisy/src/per/adc.h **** {
  92:../../libs/libDaisy/src/per/adc.h ****   public:
  93:../../libs/libDaisy/src/per/adc.h ****     /** Supported oversampling amounts */
  94:../../libs/libDaisy/src/per/adc.h ****     enum OverSampling
  95:../../libs/libDaisy/src/per/adc.h ****     {
  96:../../libs/libDaisy/src/per/adc.h ****         OVS_NONE, /**< & */
  97:../../libs/libDaisy/src/per/adc.h ****         OVS_4,    /**< & */
  98:../../libs/libDaisy/src/per/adc.h ****         OVS_8,    /**< & */
  99:../../libs/libDaisy/src/per/adc.h ****         OVS_16,   /**< & */
 100:../../libs/libDaisy/src/per/adc.h ****         OVS_32,   /**< & */
 101:../../libs/libDaisy/src/per/adc.h ****         OVS_64,   /**< & */
 102:../../libs/libDaisy/src/per/adc.h ****         OVS_128,  /**< & */
 103:../../libs/libDaisy/src/per/adc.h ****         OVS_256,  /**< & */
 104:../../libs/libDaisy/src/per/adc.h ****         OVS_512,  /**< & */
 105:../../libs/libDaisy/src/per/adc.h ****         OVS_1024, /**< & */
 106:../../libs/libDaisy/src/per/adc.h ****         OVS_LAST, /**< & */
 107:../../libs/libDaisy/src/per/adc.h ****     };
 108:../../libs/libDaisy/src/per/adc.h **** 
 109:../../libs/libDaisy/src/per/adc.h ****     AdcHandle() {}
 110:../../libs/libDaisy/src/per/adc.h ****     ~AdcHandle() {}
  87              		.loc 7 110 5 is_stmt 1 view .LVU11
  88              		.loc 7 110 5 is_stmt 0 view .LVU12
  89              	.LBE264:
  90              	.LBB265:
  91              	.LBI265:
  92              		.file 8 "../../libs/libDaisy/src/hid/audio.h"
   1:../../libs/libDaisy/src/hid/audio.h **** #ifndef DSY_AUDIO_H
   2:../../libs/libDaisy/src/hid/audio.h **** #define DSY_AUDIO_H /**< & */
   3:../../libs/libDaisy/src/hid/audio.h **** 
   4:../../libs/libDaisy/src/hid/audio.h **** #include "per/sai.h"
   5:../../libs/libDaisy/src/hid/audio.h **** 
   6:../../libs/libDaisy/src/hid/audio.h **** namespace daisy
   7:../../libs/libDaisy/src/hid/audio.h **** {
   8:../../libs/libDaisy/src/hid/audio.h **** /** @brief Audio Engine Handle
   9:../../libs/libDaisy/src/hid/audio.h ****  *  @ingroup audio 
  10:../../libs/libDaisy/src/hid/audio.h ****  *  @details This class allows for higher level access to an audio engine.
  11:../../libs/libDaisy/src/hid/audio.h ****  *           If you're using a SOM like the DaisySeed or DaisyPatchSM (or any 
  12:../../libs/libDaisy/src/hid/audio.h ****  *            board that includes one of those objects) then the intialization
  13:../../libs/libDaisy/src/hid/audio.h ****  *            is already taken  care of.
  14:../../libs/libDaisy/src/hid/audio.h ****  *           If you're setting up your own custom hardware, or need to make changes
  15:../../libs/libDaisy/src/hid/audio.h ****  *           you will have to take the following steps:
  16:../../libs/libDaisy/src/hid/audio.h ****  *             1. Create and Initialize an SaiHandle or two depending on your requirements
  17:../../libs/libDaisy/src/hid/audio.h ****  *             2. Initialize the Audio Handle with the desired settings and the Initialized SaiHand
  18:../../libs/libDaisy/src/hid/audio.h ****  *             3. If the connected codec requires special configuration or initialization, do so
  19:../../libs/libDaisy/src/hid/audio.h ****  *             4. Write a callback method using either the AudioCallback or the InterleavingAudioCa
  20:../../libs/libDaisy/src/hid/audio.h ****  *             5. Start the Audio using one of the StartAudio function
ARM GAS  C:\Users\skipi\AppData\Local\Temp\ccTbm0XL.s 			page 9


  21:../../libs/libDaisy/src/hid/audio.h ****  */
  22:../../libs/libDaisy/src/hid/audio.h **** class AudioHandle
  23:../../libs/libDaisy/src/hid/audio.h **** {
  24:../../libs/libDaisy/src/hid/audio.h ****   public:
  25:../../libs/libDaisy/src/hid/audio.h ****     /** Manually configurable details about the Audio Engine */
  26:../../libs/libDaisy/src/hid/audio.h ****     /** TODO: Figure out how to get samplerate in here. */
  27:../../libs/libDaisy/src/hid/audio.h ****     struct Config
  28:../../libs/libDaisy/src/hid/audio.h ****     {
  29:../../libs/libDaisy/src/hid/audio.h ****         /** number of samples to process per callback */
  30:../../libs/libDaisy/src/hid/audio.h ****         size_t blocksize = 48;
  31:../../libs/libDaisy/src/hid/audio.h **** 
  32:../../libs/libDaisy/src/hid/audio.h ****         /**< Sample rate of audio */
  33:../../libs/libDaisy/src/hid/audio.h ****         SaiHandle::Config::SampleRate samplerate
  34:../../libs/libDaisy/src/hid/audio.h ****             = SaiHandle::Config::SampleRate::SAI_48KHZ;
  35:../../libs/libDaisy/src/hid/audio.h **** 
  36:../../libs/libDaisy/src/hid/audio.h ****         /** factor for adjustment before and after callback for hardware that may have extra headro
  37:../../libs/libDaisy/src/hid/audio.h ****         float postgain = 1.f;
  38:../../libs/libDaisy/src/hid/audio.h **** 
  39:../../libs/libDaisy/src/hid/audio.h ****         /** factor for additional one-sided compensation to audio path for hardware that may
  40:../../libs/libDaisy/src/hid/audio.h ****          *  have unequal input/output ranges
  41:../../libs/libDaisy/src/hid/audio.h ****          */
  42:../../libs/libDaisy/src/hid/audio.h ****         float output_compensation = 1.f;
  43:../../libs/libDaisy/src/hid/audio.h ****     };
  44:../../libs/libDaisy/src/hid/audio.h **** 
  45:../../libs/libDaisy/src/hid/audio.h ****     enum class Result
  46:../../libs/libDaisy/src/hid/audio.h ****     {
  47:../../libs/libDaisy/src/hid/audio.h ****         OK,
  48:../../libs/libDaisy/src/hid/audio.h ****         ERR,
  49:../../libs/libDaisy/src/hid/audio.h ****     };
  50:../../libs/libDaisy/src/hid/audio.h **** 
  51:../../libs/libDaisy/src/hid/audio.h ****     /** Non-Interleaving input buffer
  52:../../libs/libDaisy/src/hid/audio.h ****      * Buffer arranged by float[chn][sample] 
  53:../../libs/libDaisy/src/hid/audio.h ****      * const so that the user can't modify the input
  54:../../libs/libDaisy/src/hid/audio.h ****      */
  55:../../libs/libDaisy/src/hid/audio.h ****     typedef const float* const* InputBuffer;
  56:../../libs/libDaisy/src/hid/audio.h **** 
  57:../../libs/libDaisy/src/hid/audio.h ****     /** Non-Interleaving output buffer
  58:../../libs/libDaisy/src/hid/audio.h ****      * Arranged by float[chn][sample] 
  59:../../libs/libDaisy/src/hid/audio.h ****      */
  60:../../libs/libDaisy/src/hid/audio.h ****     typedef float** OutputBuffer;
  61:../../libs/libDaisy/src/hid/audio.h **** 
  62:../../libs/libDaisy/src/hid/audio.h ****     /** Type for a Non-Interleaving audio callback 
  63:../../libs/libDaisy/src/hid/audio.h ****      * Non-Interleaving audio callbacks in daisy will be of this type
  64:../../libs/libDaisy/src/hid/audio.h ****      */
  65:../../libs/libDaisy/src/hid/audio.h ****     typedef void (*AudioCallback)(InputBuffer  in,
  66:../../libs/libDaisy/src/hid/audio.h ****                                   OutputBuffer out,
  67:../../libs/libDaisy/src/hid/audio.h ****                                   size_t       size);
  68:../../libs/libDaisy/src/hid/audio.h **** 
  69:../../libs/libDaisy/src/hid/audio.h ****     /** Interleaving Input buffer
  70:../../libs/libDaisy/src/hid/audio.h ****      ** audio is prepared as { L0, R0, L1, R1, . . . LN, RN }]
  71:../../libs/libDaisy/src/hid/audio.h ****      ** this is const, as the user shouldn't modify it
  72:../../libs/libDaisy/src/hid/audio.h ****     */
  73:../../libs/libDaisy/src/hid/audio.h ****     typedef const float* InterleavingInputBuffer;
  74:../../libs/libDaisy/src/hid/audio.h **** 
  75:../../libs/libDaisy/src/hid/audio.h ****     /** Interleaving Output buffer 
  76:../../libs/libDaisy/src/hid/audio.h ****      ** audio is prepared as { L0, R0, L1, R1, . . . LN, RN }
  77:../../libs/libDaisy/src/hid/audio.h ****     */
ARM GAS  C:\Users\skipi\AppData\Local\Temp\ccTbm0XL.s 			page 10


  78:../../libs/libDaisy/src/hid/audio.h ****     typedef float* InterleavingOutputBuffer;
  79:../../libs/libDaisy/src/hid/audio.h **** 
  80:../../libs/libDaisy/src/hid/audio.h ****     /** Interleaving Audio Callback 
  81:../../libs/libDaisy/src/hid/audio.h ****      * Interleaving audio callbacks in daisy must be of this type
  82:../../libs/libDaisy/src/hid/audio.h ****      */
  83:../../libs/libDaisy/src/hid/audio.h ****     typedef void (*InterleavingAudioCallback)(InterleavingInputBuffer  in,
  84:../../libs/libDaisy/src/hid/audio.h ****                                               InterleavingOutputBuffer out,
  85:../../libs/libDaisy/src/hid/audio.h ****                                               size_t                   size);
  86:../../libs/libDaisy/src/hid/audio.h **** 
  87:../../libs/libDaisy/src/hid/audio.h ****     AudioHandle() : pimpl_(nullptr) {}
  88:../../libs/libDaisy/src/hid/audio.h ****     ~AudioHandle() {}
  93              		.loc 8 88 5 is_stmt 1 view .LVU13
  94              		.loc 8 88 5 is_stmt 0 view .LVU14
  95              	.LBE265:
  96              		.loc 3 22 19 view .LVU15
  97 0000 7047     		bx	lr
  98              		.cfi_endproc
  99              	.LFE2671:
 101              		.weak	_ZN5daisy9DaisySeedD1Ev
 102              		.thumb_set _ZN5daisy9DaisySeedD1Ev,_ZN5daisy9DaisySeedD2Ev
 103 0002 00BF     		.section	.rodata.main.str1.4,"aMS",%progbits,1
 104              		.align	2
 105              	.LC0:
 106 0000 44454C54 		.ascii	"DELTA\000"
 106      4100
 107 0006 0000     		.align	2
 108              	.LC1:
 109 0008 43555256 		.ascii	"CURVE\000"
 109      4500
 110 000e 0000     		.align	2
 111              	.LC2:
 112 0010 3D3D3D20 		.ascii	"=== TEST ENCODER AVVIATO ===\000"
 112      54455354 
 112      20454E43 
 112      4F444552 
 112      20415656 
 113 002d 000000   		.align	2
 114              	.LC3:
 115 0030 55736120 		.ascii	"Usa D13 (A), D14 (B) e D10 (Click)\000"
 115      44313320 
 115      2841292C 
 115      20443134 
 115      20284229 
 116 0053 00       		.align	2
 117              	.LC4:
 118 0054 3E3E3E20 		.ascii	">>> CAMBIO MENU: %s\000"
 118      43414D42 
 118      494F204D 
 118      454E553A 
 118      20257300 
 119              		.align	2
 120              	.LC5:
 121 0068 4D6F6469 		.ascii	"Modifica DELTA: %.2f\000"
 121      66696361 
 121      2044454C 
 121      54413A20 
 121      252E3266 
ARM GAS  C:\Users\skipi\AppData\Local\Temp\ccTbm0XL.s 			page 11


 122 007d 000000   		.align	2
 123              	.LC6:
 124 0080 4D6F6469 		.ascii	"Modifica CURVE: %.2f\000"
 124      66696361 
 124      20435552 
 124      56453A20 
 124      252E3266 
 125              		.section	.text.startup.main,"ax",%progbits
 126              		.align	1
 127              		.p2align 2,,3
 128              		.global	main
 129              		.syntax unified
 130              		.thumb
 131              		.thumb_func
 132              		.fpu fpv5-d16
 134              	main:
 135              	.LFB2676:
 136              		.file 9 "main.cpp"
   1:main.cpp      **** #include "../../libs/libDaisy/src/daisy_seed.h"
   2:main.cpp      **** 
   3:main.cpp      **** using namespace daisy;
   4:main.cpp      **** 
   5:main.cpp      **** DaisySeed hw;
   6:main.cpp      **** Encoder   enc;
   7:main.cpp      **** 
   8:main.cpp      **** // Variabili di test per simulare i tuoi parametri
   9:main.cpp      **** float test_delta = 50.0f;
  10:main.cpp      **** float test_curve = 1.1f;
  11:main.cpp      **** int   menu_mode  = 0; // 0: Delta, 1: Curve
  12:main.cpp      **** 
  13:main.cpp      **** int main()
  14:main.cpp      **** {
 137              		.loc 9 14 1 is_stmt 1 view -0
 138              		.cfi_startproc
 139              		@ args = 0, pretend = 0, frame = 16
 140              		@ frame_needed = 0, uses_anonymous_args = 0
  15:main.cpp      ****     // 1. INIZIALIZZAZIONE HARDWARE
  16:main.cpp      ****     hw.Init();
 141              		.loc 9 16 5 view .LVU17
  14:main.cpp      ****     // 1. INIZIALIZZAZIONE HARDWARE
 142              		.loc 9 14 1 is_stmt 0 view .LVU18
 143 0000 F0B5     		push	{r4, r5, r6, r7, lr}
 144              		.cfi_def_cfa_offset 20
 145              		.cfi_offset 4, -20
 146              		.cfi_offset 5, -16
 147              		.cfi_offset 6, -12
 148              		.cfi_offset 7, -8
 149              		.cfi_offset 14, -4
 150              		.loc 9 16 12 view .LVU19
 151 0002 0021     		movs	r1, #0
  14:main.cpp      ****     // 1. INIZIALIZZAZIONE HARDWARE
 152              		.loc 9 14 1 view .LVU20
 153 0004 85B0     		sub	sp, sp, #20
 154              		.cfi_def_cfa_offset 40
 155              		.loc 9 16 12 view .LVU21
 156 0006 3D48     		ldr	r0, .L22
 157 0008 FFF7FEFF 		bl	_ZN5daisy9DaisySeed4InitEb
ARM GAS  C:\Users\skipi\AppData\Local\Temp\ccTbm0XL.s 			page 12


 158              	.LVL2:
  17:main.cpp      ****     
  18:main.cpp      ****     // Avvia la comunicazione seriale e attende che l'utente apra il monitor
  19:main.cpp      ****     // Se passi 'true', la Daisy aspetterà finché non connetti il terminale
  20:main.cpp      ****     hw.StartLog(true); 
 159              		.loc 9 20 5 is_stmt 1 view .LVU22
 160              	.LBB266:
 161              	.LBI266:
  23:../../libs/libDaisy/src/daisy_seed.h **** 
  24:../../libs/libDaisy/src/daisy_seed.h ****     /** This function used to provide a pre-initialization configuraiton 
  25:../../libs/libDaisy/src/daisy_seed.h ****      *  it has since been deprecated, and does nothing.
  26:../../libs/libDaisy/src/daisy_seed.h ****      */
  27:../../libs/libDaisy/src/daisy_seed.h ****     void Configure();
  28:../../libs/libDaisy/src/daisy_seed.h **** 
  29:../../libs/libDaisy/src/daisy_seed.h ****     /** 
  30:../../libs/libDaisy/src/daisy_seed.h ****     Initializes the Daisy Seed and the following peripherals:
  31:../../libs/libDaisy/src/daisy_seed.h ****     SDRAM, QSPI, 24-bit 48kHz Audio via AK4556, Internal USB,
  32:../../libs/libDaisy/src/daisy_seed.h ****     as well as the built-in LED and Testpoint.
  33:../../libs/libDaisy/src/daisy_seed.h **** 
  34:../../libs/libDaisy/src/daisy_seed.h ****     ADCs, DACs, and other special peripherals (such as I2C, SPI, etc.)
  35:../../libs/libDaisy/src/daisy_seed.h ****     can be initialized using their specific initializers within libdaisy
  36:../../libs/libDaisy/src/daisy_seed.h ****     for a specific application.
  37:../../libs/libDaisy/src/daisy_seed.h ****     */
  38:../../libs/libDaisy/src/daisy_seed.h ****     void Init(bool boost = false);
  39:../../libs/libDaisy/src/daisy_seed.h **** 
  40:../../libs/libDaisy/src/daisy_seed.h ****     /** 
  41:../../libs/libDaisy/src/daisy_seed.h ****     Deinitializes all peripherals automatically handled by `Init`.
  42:../../libs/libDaisy/src/daisy_seed.h ****     */
  43:../../libs/libDaisy/src/daisy_seed.h ****     void DeInit();
  44:../../libs/libDaisy/src/daisy_seed.h **** 
  45:../../libs/libDaisy/src/daisy_seed.h ****     /** 
  46:../../libs/libDaisy/src/daisy_seed.h ****     Wait some ms before going on.
  47:../../libs/libDaisy/src/daisy_seed.h ****     \param del Delay time in ms.
  48:../../libs/libDaisy/src/daisy_seed.h ****     */
  49:../../libs/libDaisy/src/daisy_seed.h ****     void DelayMs(size_t del);
  50:../../libs/libDaisy/src/daisy_seed.h **** 
  51:../../libs/libDaisy/src/daisy_seed.h ****     /** 
  52:../../libs/libDaisy/src/daisy_seed.h ****     Returns the gpio_pin corresponding to the index 0-31.
  53:../../libs/libDaisy/src/daisy_seed.h ****     For the given GPIO on the Daisy Seed (labeled 1-32 in docs).
  54:../../libs/libDaisy/src/daisy_seed.h ****     */
  55:../../libs/libDaisy/src/daisy_seed.h ****     static Pin GetPin(uint8_t pin_idx);
  56:../../libs/libDaisy/src/daisy_seed.h **** 
  57:../../libs/libDaisy/src/daisy_seed.h ****     /** Begins the audio for the seeds builtin audio.
  58:../../libs/libDaisy/src/daisy_seed.h ****     the specified callback will get called whenever
  59:../../libs/libDaisy/src/daisy_seed.h ****     new data is ready to be prepared.
  60:../../libs/libDaisy/src/daisy_seed.h ****     */
  61:../../libs/libDaisy/src/daisy_seed.h ****     void StartAudio(AudioHandle::InterleavingAudioCallback cb);
  62:../../libs/libDaisy/src/daisy_seed.h **** 
  63:../../libs/libDaisy/src/daisy_seed.h ****     /** Begins the audio for the seeds builtin audio.
  64:../../libs/libDaisy/src/daisy_seed.h ****     the specified callback will get called whenever
  65:../../libs/libDaisy/src/daisy_seed.h ****     new data is ready to be prepared.
  66:../../libs/libDaisy/src/daisy_seed.h ****     This will use the newer non-interleaved callback.
  67:../../libs/libDaisy/src/daisy_seed.h ****     */
  68:../../libs/libDaisy/src/daisy_seed.h ****     void StartAudio(AudioHandle::AudioCallback cb);
  69:../../libs/libDaisy/src/daisy_seed.h **** 
  70:../../libs/libDaisy/src/daisy_seed.h ****     /** Changes to a new interleaved callback
  71:../../libs/libDaisy/src/daisy_seed.h ****      */
ARM GAS  C:\Users\skipi\AppData\Local\Temp\ccTbm0XL.s 			page 13


  72:../../libs/libDaisy/src/daisy_seed.h ****     void ChangeAudioCallback(AudioHandle::InterleavingAudioCallback cb);
  73:../../libs/libDaisy/src/daisy_seed.h **** 
  74:../../libs/libDaisy/src/daisy_seed.h ****     /** Changes to a new multichannel callback
  75:../../libs/libDaisy/src/daisy_seed.h ****      */
  76:../../libs/libDaisy/src/daisy_seed.h ****     void ChangeAudioCallback(AudioHandle::AudioCallback cb);
  77:../../libs/libDaisy/src/daisy_seed.h **** 
  78:../../libs/libDaisy/src/daisy_seed.h ****     /** Stops the audio if it is running. */
  79:../../libs/libDaisy/src/daisy_seed.h ****     void StopAudio();
  80:../../libs/libDaisy/src/daisy_seed.h **** 
  81:../../libs/libDaisy/src/daisy_seed.h ****     /** Updates the Audio Sample Rate, and reinitializes.
  82:../../libs/libDaisy/src/daisy_seed.h ****      ** Audio must be stopped for this to work.
  83:../../libs/libDaisy/src/daisy_seed.h ****      */
  84:../../libs/libDaisy/src/daisy_seed.h ****     void SetAudioSampleRate(SaiHandle::Config::SampleRate samplerate);
  85:../../libs/libDaisy/src/daisy_seed.h **** 
  86:../../libs/libDaisy/src/daisy_seed.h ****     /** Returns the audio sample rate in Hz as a floating point number.
  87:../../libs/libDaisy/src/daisy_seed.h ****      */
  88:../../libs/libDaisy/src/daisy_seed.h ****     float AudioSampleRate();
  89:../../libs/libDaisy/src/daisy_seed.h **** 
  90:../../libs/libDaisy/src/daisy_seed.h ****     /** Sets the number of samples processed per channel by the audio callback.
  91:../../libs/libDaisy/src/daisy_seed.h ****      */
  92:../../libs/libDaisy/src/daisy_seed.h ****     void SetAudioBlockSize(size_t blocksize);
  93:../../libs/libDaisy/src/daisy_seed.h **** 
  94:../../libs/libDaisy/src/daisy_seed.h ****     /** Returns the number of samples per channel in a block of audio. */
  95:../../libs/libDaisy/src/daisy_seed.h ****     size_t AudioBlockSize();
  96:../../libs/libDaisy/src/daisy_seed.h **** 
  97:../../libs/libDaisy/src/daisy_seed.h ****     /** Returns the rate in Hz that the Audio callback is called */
  98:../../libs/libDaisy/src/daisy_seed.h ****     float AudioCallbackRate() const;
  99:../../libs/libDaisy/src/daisy_seed.h **** 
 100:../../libs/libDaisy/src/daisy_seed.h ****     /** Returns the SAI Handle for the Daisy Seed 
 101:../../libs/libDaisy/src/daisy_seed.h ****      *  This can be useful when adding a secondary codec,
 102:../../libs/libDaisy/src/daisy_seed.h ****      *  the result of this function can be passed to the audio reinit 
 103:../../libs/libDaisy/src/daisy_seed.h ****      *  with an SAI2 configuration
 104:../../libs/libDaisy/src/daisy_seed.h ****      */
 105:../../libs/libDaisy/src/daisy_seed.h ****     const SaiHandle& AudioSaiHandle() const;
 106:../../libs/libDaisy/src/daisy_seed.h **** 
 107:../../libs/libDaisy/src/daisy_seed.h ****     /** Sets the state of the built in LED
 108:../../libs/libDaisy/src/daisy_seed.h ****      */
 109:../../libs/libDaisy/src/daisy_seed.h ****     void SetLed(bool state);
 110:../../libs/libDaisy/src/daisy_seed.h **** 
 111:../../libs/libDaisy/src/daisy_seed.h ****     /** Sets the state of the test point near pin 10
 112:../../libs/libDaisy/src/daisy_seed.h ****      */
 113:../../libs/libDaisy/src/daisy_seed.h ****     void SetTestPoint(bool state);
 114:../../libs/libDaisy/src/daisy_seed.h **** 
 115:../../libs/libDaisy/src/daisy_seed.h ****     /** Print formatted debug log message
 116:../../libs/libDaisy/src/daisy_seed.h ****      */
 117:../../libs/libDaisy/src/daisy_seed.h ****     template <typename... VA>
 118:../../libs/libDaisy/src/daisy_seed.h ****     static void Print(const char* format, VA... va)
 119:../../libs/libDaisy/src/daisy_seed.h ****     {
 120:../../libs/libDaisy/src/daisy_seed.h ****         Log::Print(format, va...);
 121:../../libs/libDaisy/src/daisy_seed.h ****     }
 122:../../libs/libDaisy/src/daisy_seed.h **** 
 123:../../libs/libDaisy/src/daisy_seed.h ****     /** Print formatted debug log message with automatic line termination
 124:../../libs/libDaisy/src/daisy_seed.h ****     */
 125:../../libs/libDaisy/src/daisy_seed.h ****     template <typename... VA>
 126:../../libs/libDaisy/src/daisy_seed.h ****     static void PrintLine(const char* format, VA... va)
 127:../../libs/libDaisy/src/daisy_seed.h ****     {
 128:../../libs/libDaisy/src/daisy_seed.h ****         Log::PrintLine(format, va...);
ARM GAS  C:\Users\skipi\AppData\Local\Temp\ccTbm0XL.s 			page 14


 129:../../libs/libDaisy/src/daisy_seed.h ****     }
 130:../../libs/libDaisy/src/daisy_seed.h **** 
 131:../../libs/libDaisy/src/daisy_seed.h ****     /** Start the logging session. Optionally wait for terminal connection before proceeding.
 132:../../libs/libDaisy/src/daisy_seed.h ****     */
 133:../../libs/libDaisy/src/daisy_seed.h ****     static void StartLog(bool wait_for_pc = false)
 162              		.loc 3 133 17 view .LVU23
 163              	.LBB267:
 134:../../libs/libDaisy/src/daisy_seed.h ****     {
 135:../../libs/libDaisy/src/daisy_seed.h ****         Log::StartLog(wait_for_pc);
 164              		.loc 3 135 9 view .LVU24
 165              		.loc 3 135 22 is_stmt 0 view .LVU25
 166 000c 0120     		movs	r0, #1
 167 000e FFF7FEFF 		bl	_ZN5daisy6LoggerILNS_17LoggerDestinationE1EE8StartLogEb
 168              	.LVL3:
 169              		.loc 3 135 22 view .LVU26
 170              	.LBE267:
 171              	.LBE266:
  21:main.cpp      ****     hw.PrintLine("=== TEST ENCODER AVVIATO ===");
 172              		.loc 9 21 5 is_stmt 1 view .LVU27
 173              	.LBB268:
 174              	.LBI268:
 126:../../libs/libDaisy/src/daisy_seed.h ****     {
 175              		.loc 3 126 17 view .LVU28
 176              	.LBB269:
 128:../../libs/libDaisy/src/daisy_seed.h ****     }
 177              		.loc 3 128 23 is_stmt 0 view .LVU29
 178 0012 3B48     		ldr	r0, .L22+4
 179 0014 FFF7FEFF 		bl	_ZN5daisy6LoggerILNS_17LoggerDestinationE1EE9PrintLineEPKcz
 180              	.LVL4:
 128:../../libs/libDaisy/src/daisy_seed.h ****     }
 181              		.loc 3 128 23 view .LVU30
 182              	.LBE269:
 183              	.LBE268:
  22:main.cpp      ****     hw.PrintLine("Usa D13 (A), D14 (B) e D10 (Click)");
 184              		.loc 9 22 5 is_stmt 1 view .LVU31
 185              	.LBB270:
 186              	.LBI270:
 126:../../libs/libDaisy/src/daisy_seed.h ****     {
 187              		.loc 3 126 17 view .LVU32
 188              	.LBB271:
 128:../../libs/libDaisy/src/daisy_seed.h ****     }
 189              		.loc 3 128 23 is_stmt 0 view .LVU33
 190 0018 3A48     		ldr	r0, .L22+8
 191 001a FFF7FEFF 		bl	_ZN5daisy6LoggerILNS_17LoggerDestinationE1EE9PrintLineEPKcz
 192              	.LVL5:
 128:../../libs/libDaisy/src/daisy_seed.h ****     }
 193              		.loc 3 128 23 view .LVU34
 194              	.LBE271:
 195              	.LBE270:
  23:main.cpp      **** 
  24:main.cpp      ****     // 2. INIZIALIZZAZIONE ENCODER
  25:main.cpp      ****     // Configurazione: Pin A, Pin B, Pin Click
  26:main.cpp      ****     enc.Init(hw.GetPin(13), hw.GetPin(14), hw.GetPin(10));
 196              		.loc 9 26 5 is_stmt 1 view .LVU35
 197              		.loc 9 26 13 is_stmt 0 view .LVU36
 198 001e 0D20     		movs	r0, #13
 199 0020 FFF7FEFF 		bl	_ZN5daisy9DaisySeed6GetPinEh
ARM GAS  C:\Users\skipi\AppData\Local\Temp\ccTbm0XL.s 			page 15


 200              	.LVL6:
 201 0024 0346     		mov	r3, r0	@ movhi
 202 0026 0E20     		movs	r0, #14
 203 0028 374C     		ldr	r4, .L22+12
 204 002a ADF80430 		strh	r3, [sp, #4]	@ movhi
 205 002e FFF7FEFF 		bl	_ZN5daisy9DaisySeed6GetPinEh
 206              	.LVL7:
 207 0032 0346     		mov	r3, r0	@ movhi
 208 0034 0A20     		movs	r0, #10
 209 0036 354D     		ldr	r5, .L22+16
 210 0038 ADF80830 		strh	r3, [sp, #8]	@ movhi
 211 003c FFF7FEFF 		bl	_ZN5daisy9DaisySeed6GetPinEh
 212              	.LVL8:
 213 0040 9FED330A 		vldr.32	s0, .L22+20
 214 0044 ADF80C00 		strh	r0, [sp, #12]	@ movhi
 215 0048 2046     		mov	r0, r4
 216 004a 0199     		ldr	r1, [sp, #4]
 217 004c 314E     		ldr	r6, .L22+24
 218 004e 324F     		ldr	r7, .L22+28
 219 0050 DDE90223 		ldrd	r2, r3, [sp, #8]
 220 0054 FFF7FEFF 		bl	_ZN5daisy7Encoder4InitENS_3PinES1_S1_f
 221              	.LVL9:
 222 0058 0EE0     		b	.L9
 223              	.LVL10:
 224              	.L21:
 225              	.LBB272:
  27:main.cpp      **** 
  28:main.cpp      ****     while(1)
  29:main.cpp      ****     {
  30:main.cpp      ****         // 3. AGGIORNAMENTO STATO (Debounce)
  31:main.cpp      ****         // Questa funzione deve essere chiamata costantemente
  32:main.cpp      ****         enc.Debounce();
  33:main.cpp      **** 
  34:main.cpp      ****         // 4. TEST CLICK (RisingEdge)
  35:main.cpp      ****         if(enc.RisingEdge())
  36:main.cpp      ****         {
  37:main.cpp      ****             menu_mode = (menu_mode + 1) % 2;
  38:main.cpp      ****             hw.PrintLine(">>> CAMBIO MENU: %s", (menu_mode == 0 ? "DELTA" : "CURVE"));
  39:main.cpp      ****             
  40:main.cpp      ****             // Feedback visivo sul LED della Daisy
  41:main.cpp      ****             hw.SetLed(menu_mode == 0); 
  42:main.cpp      ****         }
  43:main.cpp      **** 
  44:main.cpp      ****         // 5. TEST ROTAZIONE (Increment)
  45:main.cpp      ****         int32_t inc = enc.Increment();
  46:main.cpp      ****         if(inc != 0)
  47:main.cpp      ****         {
  48:main.cpp      ****             if(menu_mode == 0)
  49:main.cpp      ****             {
  50:main.cpp      ****                 test_delta += (inc * 5.0f);
 226              		.loc 9 50 28 view .LVU37
 227 005a 96ED007A 		vldr.32	s14, [r6]
 228 005e A7EEA67A 		vfma.f32	s14, s15, s13
 229              	.LBB273:
 230              	.LBB274:
 128:../../libs/libDaisy/src/daisy_seed.h ****     }
 231              		.loc 3 128 23 view .LVU38
ARM GAS  C:\Users\skipi\AppData\Local\Temp\ccTbm0XL.s 			page 16


 232 0062 B7EEC76A 		vcvt.f64.f32	d6, s14
 233              	.LBE274:
 234              	.LBE273:
 235              		.loc 9 50 28 view .LVU39
 236 0066 86ED007A 		vstr.32	s14, [r6]
 237              	.LBB278:
 238              	.LBB275:
 128:../../libs/libDaisy/src/daisy_seed.h ****     }
 239              		.loc 3 128 23 view .LVU40
 240 006a 53EC162B 		vmov	r2, r3, d6
 241              	.LBE275:
 242              	.LBE278:
  51:main.cpp      ****                 hw.PrintLine("Modifica DELTA: %.2f", test_delta);
 243              		.loc 9 51 17 is_stmt 1 view .LVU41
 244              	.LVL11:
 245              	.LBB279:
 246              	.LBI273:
 126:../../libs/libDaisy/src/daisy_seed.h ****     {
 247              		.loc 3 126 17 view .LVU42
 248              	.LBB276:
 128:../../libs/libDaisy/src/daisy_seed.h ****     }
 249              		.loc 3 128 23 is_stmt 0 view .LVU43
 250 006e FFF7FEFF 		bl	_ZN5daisy6LoggerILNS_17LoggerDestinationE1EE9PrintLineEPKcz
 251              	.LVL12:
 252              	.L7:
 128:../../libs/libDaisy/src/daisy_seed.h ****     }
 253              		.loc 3 128 23 view .LVU44
 254              	.LBE276:
 255              	.LBE279:
  52:main.cpp      ****             }
  53:main.cpp      ****             else
  54:main.cpp      ****             {
  55:main.cpp      ****                 test_curve += (inc * 0.1f);
  56:main.cpp      ****                 hw.PrintLine("Modifica CURVE: %.2f", test_curve);
  57:main.cpp      ****             }
  58:main.cpp      ****         }
  59:main.cpp      **** 
  60:main.cpp      ****         // Piccolo delay per non saturare la CPU (circa 1000Hz)
  61:main.cpp      ****         System::Delay(1);
 256              		.loc 9 61 9 is_stmt 1 view .LVU45
 257              		.loc 9 61 22 is_stmt 0 view .LVU46
 258 0072 0120     		movs	r0, #1
 259 0074 FFF7FEFF 		bl	_ZN5daisy6System5DelayEm
 260              	.LVL13:
 261              	.LBE272:
  28:main.cpp      ****     {
 262              		.loc 9 28 5 is_stmt 1 view .LVU47
 263              	.L9:
  28:main.cpp      ****     {
 264              		.loc 9 28 5 view .LVU48
 265              	.LBB303:
  32:main.cpp      **** 
 266              		.loc 9 32 9 view .LVU49
  32:main.cpp      **** 
 267              		.loc 9 32 21 is_stmt 0 view .LVU50
 268 0078 2348     		ldr	r0, .L22+12
 269 007a FFF7FEFF 		bl	_ZN5daisy7Encoder8DebounceEv
ARM GAS  C:\Users\skipi\AppData\Local\Temp\ccTbm0XL.s 			page 17


 270              	.LVL14:
  35:main.cpp      ****         {
 271              		.loc 9 35 9 is_stmt 1 view .LVU51
 272              	.LBB280:
 273              	.LBI280:
  22:../../libs/libDaisy/src/hid/encoder.h **** 
  23:../../libs/libDaisy/src/hid/encoder.h ****     /** Initializes the encoder with the specified hardware pins.
  24:../../libs/libDaisy/src/hid/encoder.h ****      * Update rate is to be deprecated in a future release
  25:../../libs/libDaisy/src/hid/encoder.h ****      */
  26:../../libs/libDaisy/src/hid/encoder.h ****     void Init(Pin a, Pin b, Pin click, float update_rate = 0.f);
  27:../../libs/libDaisy/src/hid/encoder.h ****     /** Called at update_rate to debounce and handle timing for the switch.
  28:../../libs/libDaisy/src/hid/encoder.h ****      * In order for events not to be missed, its important that the Edge/Pressed checks be made at 
  29:../../libs/libDaisy/src/hid/encoder.h ****      */
  30:../../libs/libDaisy/src/hid/encoder.h ****     void Debounce();
  31:../../libs/libDaisy/src/hid/encoder.h **** 
  32:../../libs/libDaisy/src/hid/encoder.h ****     /** Returns +1 if the encoder was turned clockwise, -1 if it was turned counter-clockwise, or 0
  33:../../libs/libDaisy/src/hid/encoder.h ****     inline int32_t Increment() const { return updated_ ? inc_ : 0; }
  34:../../libs/libDaisy/src/hid/encoder.h **** 
  35:../../libs/libDaisy/src/hid/encoder.h ****     /** Returns true if the encoder was just pressed. */
  36:../../libs/libDaisy/src/hid/encoder.h ****     inline bool RisingEdge() const { return sw_.RisingEdge(); }
 274              		.loc 1 36 17 view .LVU52
 275              	.LBE280:
 276              	.LBE303:
 277              		.loc 1 36 38 view .LVU53
 278              	.LBB304:
 279              	.LBB283:
 280              	.LBB281:
 281              	.LBI281:
  35:../../libs/libDaisy/src/hid/switch.h **** 
  36:../../libs/libDaisy/src/hid/switch.h ****     /** 
  37:../../libs/libDaisy/src/hid/switch.h ****     Initializes the switch object with a given port/pin combo.
  38:../../libs/libDaisy/src/hid/switch.h ****     \param pin port/pin object to tell the switch which hardware pin to use.
  39:../../libs/libDaisy/src/hid/switch.h ****     \param update_rate Does nothing. Backwards compatibility until next breaking update.
  40:../../libs/libDaisy/src/hid/switch.h ****     \param t switch type -- Default: TYPE_MOMENTARY
  41:../../libs/libDaisy/src/hid/switch.h ****     \param pol switch polarity -- Default: POLARITY_INVERTED
  42:../../libs/libDaisy/src/hid/switch.h ****     \param pu switch pull up/down -- Default: PULL_UP
  43:../../libs/libDaisy/src/hid/switch.h ****     */
  44:../../libs/libDaisy/src/hid/switch.h ****     void Init(Pin        pin,
  45:../../libs/libDaisy/src/hid/switch.h ****               float      update_rate,
  46:../../libs/libDaisy/src/hid/switch.h ****               Type       t,
  47:../../libs/libDaisy/src/hid/switch.h ****               Polarity   pol,
  48:../../libs/libDaisy/src/hid/switch.h ****               GPIO::Pull pu = GPIO::Pull::PULLUP);
  49:../../libs/libDaisy/src/hid/switch.h **** 
  50:../../libs/libDaisy/src/hid/switch.h ****     /**
  51:../../libs/libDaisy/src/hid/switch.h ****        Simplified Init.
  52:../../libs/libDaisy/src/hid/switch.h ****        \param pin port/pin object to tell the switch which hardware pin to use.
  53:../../libs/libDaisy/src/hid/switch.h ****        \param update_rate Left for backwards compatibility until next breaking change.
  54:../../libs/libDaisy/src/hid/switch.h ****     */
  55:../../libs/libDaisy/src/hid/switch.h ****     void Init(Pin pin, float update_rate = 0.f);
  56:../../libs/libDaisy/src/hid/switch.h **** 
  57:../../libs/libDaisy/src/hid/switch.h ****     /** 
  58:../../libs/libDaisy/src/hid/switch.h ****     Called at update_rate to debounce and handle timing for the switch.
  59:../../libs/libDaisy/src/hid/switch.h ****     In order for events not to be missed, its important that the Edge/Pressed checks
  60:../../libs/libDaisy/src/hid/switch.h ****     be made at the same rate as the debounce function is being called.
  61:../../libs/libDaisy/src/hid/switch.h ****     */
  62:../../libs/libDaisy/src/hid/switch.h ****     void Debounce();
  63:../../libs/libDaisy/src/hid/switch.h **** 
ARM GAS  C:\Users\skipi\AppData\Local\Temp\ccTbm0XL.s 			page 18


  64:../../libs/libDaisy/src/hid/switch.h ****     /** \return true if a button was just pressed. */
  65:../../libs/libDaisy/src/hid/switch.h ****     inline bool RisingEdge() const { return updated_ ? state_ == 0x7f : false; }
 282              		.loc 2 65 17 view .LVU54
 283              	.LBB282:
 284              		.loc 2 65 38 view .LVU55
 285              		.loc 2 65 54 is_stmt 0 view .LVU56
 286 007e 237B     		ldrb	r3, [r4, #12]	@ zero_extendqisi2
 287 0080 E3B1     		cbz	r3, .L5
 288              	.LBE282:
 289              	.LBE281:
 290              	.LBE283:
  37:main.cpp      ****             hw.PrintLine(">>> CAMBIO MENU: %s", (menu_mode == 0 ? "DELTA" : "CURVE"));
 291              		.loc 9 37 13 is_stmt 1 view .LVU57
  35:main.cpp      ****         {
 292              		.loc 9 35 9 is_stmt 0 view .LVU58
 293 0082 94F82430 		ldrb	r3, [r4, #36]	@ zero_extendqisi2
  38:main.cpp      ****             
 294              		.loc 9 38 25 view .LVU59
 295 0086 2549     		ldr	r1, .L22+32
  35:main.cpp      ****         {
 296              		.loc 9 35 9 view .LVU60
 297 0088 7F2B     		cmp	r3, #127
  38:main.cpp      ****             
 298              		.loc 9 38 25 view .LVU61
 299 008a 254A     		ldr	r2, .L22+36
 300              	.LBB284:
 301              	.LBB285:
 128:../../libs/libDaisy/src/daisy_seed.h ****     }
 302              		.loc 3 128 23 view .LVU62
 303 008c 2548     		ldr	r0, .L22+40
 304              	.LBE285:
 305              	.LBE284:
  35:main.cpp      ****         {
 306              		.loc 9 35 9 view .LVU63
 307 008e 15D1     		bne	.L5
  37:main.cpp      ****             hw.PrintLine(">>> CAMBIO MENU: %s", (menu_mode == 0 ? "DELTA" : "CURVE"));
 308              		.loc 9 37 36 view .LVU64
 309 0090 2B68     		ldr	r3, [r5]
  37:main.cpp      ****             hw.PrintLine(">>> CAMBIO MENU: %s", (menu_mode == 0 ? "DELTA" : "CURVE"));
 310              		.loc 9 37 41 view .LVU65
 311 0092 0133     		adds	r3, r3, #1
 312 0094 03F00103 		and	r3, r3, #1
 313 0098 9C46     		mov	ip, r3
 314 009a 48BF     		it	mi
 315 009c C3F1000C 		rsbmi	ip, r3, #0
 316              	.LBB288:
 317              	.LBB286:
 128:../../libs/libDaisy/src/daisy_seed.h ****     }
 318              		.loc 3 128 23 view .LVU66
 319 00a0 002B     		cmp	r3, #0
 320 00a2 18BF     		it	ne
 321 00a4 1146     		movne	r1, r2
 322              	.LBE286:
 323              	.LBE288:
  37:main.cpp      ****             hw.PrintLine(">>> CAMBIO MENU: %s", (menu_mode == 0 ? "DELTA" : "CURVE"));
 324              		.loc 9 37 23 view .LVU67
 325 00a6 C5F800C0 		str	ip, [r5]
ARM GAS  C:\Users\skipi\AppData\Local\Temp\ccTbm0XL.s 			page 19


  38:main.cpp      ****             
 326              		.loc 9 38 13 is_stmt 1 view .LVU68
 327              	.LVL15:
 328              	.LBB289:
 329              	.LBI284:
 126:../../libs/libDaisy/src/daisy_seed.h ****     {
 330              		.loc 3 126 17 view .LVU69
 331              	.LBB287:
 128:../../libs/libDaisy/src/daisy_seed.h ****     }
 332              		.loc 3 128 23 is_stmt 0 view .LVU70
 333 00aa FFF7FEFF 		bl	_ZN5daisy6LoggerILNS_17LoggerDestinationE1EE9PrintLineEPKcz
 334              	.LVL16:
 128:../../libs/libDaisy/src/daisy_seed.h ****     }
 335              		.loc 3 128 23 view .LVU71
 336              	.LBE287:
 337              	.LBE289:
  41:main.cpp      ****         }
 338              		.loc 9 41 13 is_stmt 1 view .LVU72
  41:main.cpp      ****         }
 339              		.loc 9 41 22 is_stmt 0 view .LVU73
 340 00ae 2968     		ldr	r1, [r5]
 341 00b0 1248     		ldr	r0, .L22
 342 00b2 B1FA81F1 		clz	r1, r1
 343 00b6 4909     		lsrs	r1, r1, #5
 344 00b8 FFF7FEFF 		bl	_ZN5daisy9DaisySeed6SetLedEb
 345              	.LVL17:
 346              	.L5:
  45:main.cpp      ****         if(inc != 0)
 347              		.loc 9 45 9 is_stmt 1 view .LVU74
 348              	.LBB290:
 349              	.LBI290:
  33:../../libs/libDaisy/src/hid/encoder.h **** 
 350              		.loc 1 33 20 view .LVU75
 351              	.LBB291:
  33:../../libs/libDaisy/src/hid/encoder.h **** 
 352              		.loc 1 33 40 view .LVU76
  33:../../libs/libDaisy/src/hid/encoder.h **** 
 353              		.loc 1 33 56 is_stmt 0 view .LVU77
 354 00bc 2379     		ldrb	r3, [r4, #4]	@ zero_extendqisi2
 355 00be 002B     		cmp	r3, #0
 356 00c0 D7D0     		beq	.L7
 357              	.LBE291:
 358              	.LBE290:
  48:main.cpp      ****             {
 359              		.loc 9 48 13 is_stmt 1 view .LVU78
 360              	.LBB293:
 361              	.LBB292:
  33:../../libs/libDaisy/src/hid/encoder.h **** 
 362              		.loc 1 33 56 is_stmt 0 view .LVU79
 363 00c2 A36D     		ldr	r3, [r4, #88]
 364              	.LVL18:
  33:../../libs/libDaisy/src/hid/encoder.h **** 
 365              		.loc 1 33 56 view .LVU80
 366              	.LBE292:
 367              	.LBE293:
  46:main.cpp      ****         {
 368              		.loc 9 46 9 is_stmt 1 view .LVU81
ARM GAS  C:\Users\skipi\AppData\Local\Temp\ccTbm0XL.s 			page 20


 369 00c4 002B     		cmp	r3, #0
 370 00c6 D4D0     		beq	.L7
  50:main.cpp      ****                 hw.PrintLine("Modifica DELTA: %.2f", test_delta);
 371              		.loc 9 50 17 view .LVU82
  50:main.cpp      ****                 hw.PrintLine("Modifica DELTA: %.2f", test_delta);
 372              		.loc 9 50 36 is_stmt 0 view .LVU83
 373 00c8 07EE903A 		vmov	s15, r3	@ int
  48:main.cpp      ****             {
 374              		.loc 9 48 13 view .LVU84
 375 00cc 2A68     		ldr	r2, [r5]
  50:main.cpp      ****                 hw.PrintLine("Modifica DELTA: %.2f", test_delta);
 376              		.loc 9 50 28 view .LVU85
 377 00ce F1EE046A 		vmov.f32	s13, #5.0e+0
 378              	.LBB294:
 379              	.LBB277:
 128:../../libs/libDaisy/src/daisy_seed.h ****     }
 380              		.loc 3 128 23 view .LVU86
 381 00d2 1548     		ldr	r0, .L22+44
 382              	.LBE277:
 383              	.LBE294:
  50:main.cpp      ****                 hw.PrintLine("Modifica DELTA: %.2f", test_delta);
 384              		.loc 9 50 36 view .LVU87
 385 00d4 F8EEE77A 		vcvt.f32.s32	s15, s15
  48:main.cpp      ****             {
 386              		.loc 9 48 13 view .LVU88
 387 00d8 002A     		cmp	r2, #0
 388 00da BED0     		beq	.L21
  55:main.cpp      ****                 hw.PrintLine("Modifica CURVE: %.2f", test_curve);
 389              		.loc 9 55 17 is_stmt 1 view .LVU89
  55:main.cpp      ****                 hw.PrintLine("Modifica CURVE: %.2f", test_curve);
 390              		.loc 9 55 28 is_stmt 0 view .LVU90
 391 00dc 97ED007A 		vldr.32	s14, [r7]
 392 00e0 DFED126A 		vldr.32	s13, .L22+48
 393              	.LBB295:
 394              	.LBB296:
 128:../../libs/libDaisy/src/daisy_seed.h ****     }
 395              		.loc 3 128 23 view .LVU91
 396 00e4 1248     		ldr	r0, .L22+52
 397              	.LBE296:
 398              	.LBE295:
  55:main.cpp      ****                 hw.PrintLine("Modifica CURVE: %.2f", test_curve);
 399              		.loc 9 55 28 view .LVU92
 400 00e6 A7EEA67A 		vfma.f32	s14, s15, s13
 401              	.LBB300:
 402              	.LBB297:
 128:../../libs/libDaisy/src/daisy_seed.h ****     }
 403              		.loc 3 128 23 view .LVU93
 404 00ea B7EEC76A 		vcvt.f64.f32	d6, s14
 405              	.LBE297:
 406              	.LBE300:
  55:main.cpp      ****                 hw.PrintLine("Modifica CURVE: %.2f", test_curve);
 407              		.loc 9 55 28 view .LVU94
 408 00ee 87ED007A 		vstr.32	s14, [r7]
 409              	.LBB301:
 410              	.LBB298:
 128:../../libs/libDaisy/src/daisy_seed.h ****     }
 411              		.loc 3 128 23 view .LVU95
ARM GAS  C:\Users\skipi\AppData\Local\Temp\ccTbm0XL.s 			page 21


 412 00f2 53EC162B 		vmov	r2, r3, d6
 413              	.LBE298:
 414              	.LBE301:
  56:main.cpp      ****             }
 415              		.loc 9 56 17 is_stmt 1 view .LVU96
 416              	.LVL19:
 417              	.LBB302:
 418              	.LBI295:
 126:../../libs/libDaisy/src/daisy_seed.h ****     {
 419              		.loc 3 126 17 view .LVU97
 420              	.LBB299:
 128:../../libs/libDaisy/src/daisy_seed.h ****     }
 421              		.loc 3 128 23 is_stmt 0 view .LVU98
 422 00f6 FFF7FEFF 		bl	_ZN5daisy6LoggerILNS_17LoggerDestinationE1EE9PrintLineEPKcz
 423              	.LVL20:
 129:../../libs/libDaisy/src/daisy_seed.h **** 
 424              		.loc 3 129 5 view .LVU99
 425 00fa BAE7     		b	.L7
 426              	.L23:
 427              		.align	2
 428              	.L22:
 429 00fc 00000000 		.word	.LANCHOR0
 430 0100 10000000 		.word	.LC2
 431 0104 30000000 		.word	.LC3
 432 0108 00000000 		.word	.LANCHOR1
 433 010c 00000000 		.word	.LANCHOR2
 434 0110 00000000 		.word	0
 435 0114 00000000 		.word	.LANCHOR3
 436 0118 00000000 		.word	.LANCHOR4
 437 011c 00000000 		.word	.LC0
 438 0120 08000000 		.word	.LC1
 439 0124 54000000 		.word	.LC4
 440 0128 68000000 		.word	.LC5
 441 012c CDCCCC3D 		.word	1036831949
 442 0130 80000000 		.word	.LC6
 443              	.LBE299:
 444              	.LBE302:
 445              	.LBE304:
 446              		.cfi_endproc
 447              	.LFE2676:
 449              		.section	.text.startup._GLOBAL__sub_I_hw,"ax",%progbits
 450              		.align	1
 451              		.p2align 2,,3
 452              		.syntax unified
 453              		.thumb
 454              		.thumb_func
 455              		.fpu fpv5-d16
 457              	_GLOBAL__sub_I_hw:
 458              	.LFB2698:
  62:main.cpp      ****     }
  63:main.cpp      **** }...
 459              		.loc 9 63 1 is_stmt 1 view -0
 460              		.cfi_startproc
 461              		@ args = 0, pretend = 0, frame = 0
 462              		@ frame_needed = 0, uses_anonymous_args = 0
 463              	.LBB399:
 464              	.LBI399:
ARM GAS  C:\Users\skipi\AppData\Local\Temp\ccTbm0XL.s 			page 22


 465              		.loc 9 63 1 view .LVU101
 466              	.LVL21:
 467              	.LBB400:
 468              	.LBB401:
 469              	.LBI401:
  21:../../libs/libDaisy/src/daisy_seed.h ****     ~DaisySeed() {}
 470              		.loc 3 21 5 view .LVU102
 471              	.LBB402:
 472              	.LBB403:
 473              	.LBI403:
 474              		.file 10 "../../libs/libDaisy/src/per/qspi.h"
   1:../../libs/libDaisy/src/per/qspi.h **** #ifndef DSY_QSPI
   2:../../libs/libDaisy/src/per/qspi.h **** #define DSY_QSPI /**< Macro */
   3:../../libs/libDaisy/src/per/qspi.h **** 
   4:../../libs/libDaisy/src/per/qspi.h **** #ifndef UNIT_TEST // for unit tests, a dummy implementation
   5:../../libs/libDaisy/src/per/qspi.h **** 
   6:../../libs/libDaisy/src/per/qspi.h **** #include <cstdint>
   7:../../libs/libDaisy/src/per/qspi.h **** #include "daisy_core.h"
   8:../../libs/libDaisy/src/per/qspi.h **** #include "util/hal_map.h"
   9:../../libs/libDaisy/src/per/qspi.h **** 
  10:../../libs/libDaisy/src/per/qspi.h **** #define DSY_QSPI_TEXT       \
  11:../../libs/libDaisy/src/per/qspi.h ****     __attribute__((section( \
  12:../../libs/libDaisy/src/per/qspi.h ****         ".qspiflash_text"))) /**< used for reading memory in memory_mapped mode. */
  13:../../libs/libDaisy/src/per/qspi.h **** #define DSY_QSPI_DATA       \
  14:../../libs/libDaisy/src/per/qspi.h ****     __attribute__((section( \
  15:../../libs/libDaisy/src/per/qspi.h ****         ".qspiflash_data"))) /**< used for reading memory in memory_mapped mode. */
  16:../../libs/libDaisy/src/per/qspi.h **** #define DSY_QSPI_BSS        \
  17:../../libs/libDaisy/src/per/qspi.h ****     __attribute__((section( \
  18:../../libs/libDaisy/src/per/qspi.h ****         ".qspiflash_bss"))) /**< used for reading memory in memory_mapped mode. */
  19:../../libs/libDaisy/src/per/qspi.h **** 
  20:../../libs/libDaisy/src/per/qspi.h **** namespace daisy
  21:../../libs/libDaisy/src/per/qspi.h **** {
  22:../../libs/libDaisy/src/per/qspi.h **** /** @addtogroup serial
  23:../../libs/libDaisy/src/per/qspi.h **** @{
  24:../../libs/libDaisy/src/per/qspi.h **** */
  25:../../libs/libDaisy/src/per/qspi.h **** 
  26:../../libs/libDaisy/src/per/qspi.h **** /**
  27:../../libs/libDaisy/src/per/qspi.h ****  Driver for QSPI peripheral to interface with external flash memory. \n
  28:../../libs/libDaisy/src/per/qspi.h ****     Currently supported QSPI Devices: \n
  29:../../libs/libDaisy/src/per/qspi.h ****     * IS25LP080D
  30:../../libs/libDaisy/src/per/qspi.h **** */
  31:../../libs/libDaisy/src/per/qspi.h **** class QSPIHandle
  32:../../libs/libDaisy/src/per/qspi.h **** {
  33:../../libs/libDaisy/src/per/qspi.h ****   public:
  34:../../libs/libDaisy/src/per/qspi.h ****     enum Result
  35:../../libs/libDaisy/src/per/qspi.h ****     {
  36:../../libs/libDaisy/src/per/qspi.h ****         OK = 0,
  37:../../libs/libDaisy/src/per/qspi.h ****         ERR
  38:../../libs/libDaisy/src/per/qspi.h ****     };
  39:../../libs/libDaisy/src/per/qspi.h **** 
  40:../../libs/libDaisy/src/per/qspi.h ****     /** Indicates the current status of the module.
  41:../../libs/libDaisy/src/per/qspi.h ****          *  Warnings are indicated by a leading W.
  42:../../libs/libDaisy/src/per/qspi.h ****          *  Errors are indicated by a leading E and cause an immediate exit.
  43:../../libs/libDaisy/src/per/qspi.h ****          *
  44:../../libs/libDaisy/src/per/qspi.h ****          *  \param GOOD - No errors have been reported.
  45:../../libs/libDaisy/src/per/qspi.h ****          *  \param E_HAL_ERROR - HAL code did not return HAL_OK.
  46:../../libs/libDaisy/src/per/qspi.h ****          *  \param E_SWITCHING_MODES - An error was encountered while switching QSPI peripheral mod
ARM GAS  C:\Users\skipi\AppData\Local\Temp\ccTbm0XL.s 			page 23


  47:../../libs/libDaisy/src/per/qspi.h ****          *  \param E_INVALID_MODE - QSPI should not be written to while the program is executing fr
  48:../../libs/libDaisy/src/per/qspi.h ****          */
  49:../../libs/libDaisy/src/per/qspi.h ****     enum Status
  50:../../libs/libDaisy/src/per/qspi.h ****     {
  51:../../libs/libDaisy/src/per/qspi.h ****         GOOD = 0,
  52:../../libs/libDaisy/src/per/qspi.h ****         E_HAL_ERROR,
  53:../../libs/libDaisy/src/per/qspi.h ****         E_SWITCHING_MODES,
  54:../../libs/libDaisy/src/per/qspi.h ****         E_INVALID_MODE,
  55:../../libs/libDaisy/src/per/qspi.h ****     };
  56:../../libs/libDaisy/src/per/qspi.h **** 
  57:../../libs/libDaisy/src/per/qspi.h ****     /** Configuration structure for interfacing with QSPI Driver */
  58:../../libs/libDaisy/src/per/qspi.h ****     struct Config
  59:../../libs/libDaisy/src/per/qspi.h ****     {
  60:../../libs/libDaisy/src/per/qspi.h ****         /** Flash Devices supported. (Both of these are more-or-less the same, just different sizes
  61:../../libs/libDaisy/src/per/qspi.h ****         enum Device
  62:../../libs/libDaisy/src/per/qspi.h ****         {
  63:../../libs/libDaisy/src/per/qspi.h ****             IS25LP080D,  /**< & */
  64:../../libs/libDaisy/src/per/qspi.h ****             IS25LP064A,  /**< & */
  65:../../libs/libDaisy/src/per/qspi.h ****             DEVICE_LAST, /**< & */
  66:../../libs/libDaisy/src/per/qspi.h ****         };
  67:../../libs/libDaisy/src/per/qspi.h **** 
  68:../../libs/libDaisy/src/per/qspi.h ****         /**
  69:../../libs/libDaisy/src/per/qspi.h ****         Modes of operation.
  70:../../libs/libDaisy/src/per/qspi.h ****         Memory Mapped mode: QSPI configured so that the QSPI can be
  71:../../libs/libDaisy/src/per/qspi.h ****         read from starting address 0x90000000. Writing is not
  72:../../libs/libDaisy/src/per/qspi.h ****         possible in this mode. \n
  73:../../libs/libDaisy/src/per/qspi.h ****         Indirect Polling mode: Device driver enabled.
  74:../../libs/libDaisy/src/per/qspi.h ****         */
  75:../../libs/libDaisy/src/per/qspi.h ****         enum Mode
  76:../../libs/libDaisy/src/per/qspi.h ****         {
  77:../../libs/libDaisy/src/per/qspi.h ****             MEMORY_MAPPED,    /**< & */
  78:../../libs/libDaisy/src/per/qspi.h ****             INDIRECT_POLLING, /**< & */
  79:../../libs/libDaisy/src/per/qspi.h ****             MODE_LAST,
  80:../../libs/libDaisy/src/per/qspi.h ****         };
  81:../../libs/libDaisy/src/per/qspi.h **** 
  82:../../libs/libDaisy/src/per/qspi.h ****         //SCK,  CE# (active low)
  83:../../libs/libDaisy/src/per/qspi.h ****         struct
  84:../../libs/libDaisy/src/per/qspi.h ****         {
  85:../../libs/libDaisy/src/per/qspi.h ****             Pin io0; /**< & */
  86:../../libs/libDaisy/src/per/qspi.h ****             Pin io1; /**< & */
  87:../../libs/libDaisy/src/per/qspi.h ****             Pin io2; /**< & */
  88:../../libs/libDaisy/src/per/qspi.h ****             Pin io3; /**< & */
  89:../../libs/libDaisy/src/per/qspi.h ****             Pin clk; /**< & */
  90:../../libs/libDaisy/src/per/qspi.h ****             Pin ncs; /**< & */
  91:../../libs/libDaisy/src/per/qspi.h ****         } pin_config;
  92:../../libs/libDaisy/src/per/qspi.h **** 
  93:../../libs/libDaisy/src/per/qspi.h ****         Device device;
  94:../../libs/libDaisy/src/per/qspi.h ****         Mode   mode;
  95:../../libs/libDaisy/src/per/qspi.h ****     };
  96:../../libs/libDaisy/src/per/qspi.h **** 
  97:../../libs/libDaisy/src/per/qspi.h ****     /**
  98:../../libs/libDaisy/src/per/qspi.h ****         Initializes QSPI peripheral, and Resets, and prepares memory for access.
  99:../../libs/libDaisy/src/per/qspi.h ****         \param config should be populated with the mode, device and pin_config before calling this 
 100:../../libs/libDaisy/src/per/qspi.h ****         \return Result::OK or Result::ERR
 101:../../libs/libDaisy/src/per/qspi.h ****         */
 102:../../libs/libDaisy/src/per/qspi.h ****     Result Init(const Config& config);
 103:../../libs/libDaisy/src/per/qspi.h **** 
ARM GAS  C:\Users\skipi\AppData\Local\Temp\ccTbm0XL.s 			page 24


 104:../../libs/libDaisy/src/per/qspi.h ****     /** Returns the current config. */
 105:../../libs/libDaisy/src/per/qspi.h ****     const Config& GetConfig() const;
 106:../../libs/libDaisy/src/per/qspi.h **** 
 107:../../libs/libDaisy/src/per/qspi.h ****     // Couldn't this just be called before anything else in init? That
 108:../../libs/libDaisy/src/per/qspi.h ****     // would make manually calling it unnecessary.
 109:../../libs/libDaisy/src/per/qspi.h ****     /**
 110:../../libs/libDaisy/src/per/qspi.h ****         Deinitializes the peripheral
 111:../../libs/libDaisy/src/per/qspi.h ****         This should be called before reinitializing QSPI in a different mode.
 112:../../libs/libDaisy/src/per/qspi.h ****         \return Result::OK or Result::ERR
 113:../../libs/libDaisy/src/per/qspi.h ****         */
 114:../../libs/libDaisy/src/per/qspi.h ****     Result DeInit();
 115:../../libs/libDaisy/src/per/qspi.h **** 
 116:../../libs/libDaisy/src/per/qspi.h ****     /**
 117:../../libs/libDaisy/src/per/qspi.h ****         Writes a single page to to the specified address on the QSPI chip.
 118:../../libs/libDaisy/src/per/qspi.h ****         For IS25LP*, page size is 256 bytes.
 119:../../libs/libDaisy/src/per/qspi.h ****         \param address Address to write to
 120:../../libs/libDaisy/src/per/qspi.h ****         \param size Buffer size
 121:../../libs/libDaisy/src/per/qspi.h ****         \param buffer Buffer to write
 122:../../libs/libDaisy/src/per/qspi.h ****         \return Result::OK or Result::ERR
 123:../../libs/libDaisy/src/per/qspi.h ****         */
 124:../../libs/libDaisy/src/per/qspi.h ****     Result WritePage(uint32_t address, uint32_t size, uint8_t* buffer);
 125:../../libs/libDaisy/src/per/qspi.h **** 
 126:../../libs/libDaisy/src/per/qspi.h ****     /**
 127:../../libs/libDaisy/src/per/qspi.h ****         Writes data in buffer to to the QSPI. Starting at address to address+size
 128:../../libs/libDaisy/src/per/qspi.h ****         \param address Address to write to
 129:../../libs/libDaisy/src/per/qspi.h ****         \param size Buffer size
 130:../../libs/libDaisy/src/per/qspi.h ****         \param buffer Buffer to write
 131:../../libs/libDaisy/src/per/qspi.h ****         \return Result::OK or Result::ERR
 132:../../libs/libDaisy/src/per/qspi.h ****         */
 133:../../libs/libDaisy/src/per/qspi.h ****     Result Write(uint32_t address, uint32_t size, uint8_t* buffer);
 134:../../libs/libDaisy/src/per/qspi.h **** 
 135:../../libs/libDaisy/src/per/qspi.h ****     /**
 136:../../libs/libDaisy/src/per/qspi.h ****         Erases the area specified on the chip.
 137:../../libs/libDaisy/src/per/qspi.h ****         Erasures will happen by 4K, 32K or 64K increments.
 138:../../libs/libDaisy/src/per/qspi.h ****         Smallest erase possible is 4kB at a time. (on IS25LP*)
 139:../../libs/libDaisy/src/per/qspi.h ****         \param start_addr Address to begin erasing from
 140:../../libs/libDaisy/src/per/qspi.h ****         \param end_addr  Address to stop erasing at
 141:../../libs/libDaisy/src/per/qspi.h ****         \return Result::OK or Result::ERR
 142:../../libs/libDaisy/src/per/qspi.h ****         */
 143:../../libs/libDaisy/src/per/qspi.h ****     Result Erase(uint32_t start_addr, uint32_t end_addr);
 144:../../libs/libDaisy/src/per/qspi.h **** 
 145:../../libs/libDaisy/src/per/qspi.h ****     /**
 146:../../libs/libDaisy/src/per/qspi.h ****          Erases a single sector of the chip.
 147:../../libs/libDaisy/src/per/qspi.h ****         TODO: Document the size of this function.
 148:../../libs/libDaisy/src/per/qspi.h ****         \param address Address of sector to erase
 149:../../libs/libDaisy/src/per/qspi.h ****         \return Result::OK or Result::ERR
 150:../../libs/libDaisy/src/per/qspi.h ****         */
 151:../../libs/libDaisy/src/per/qspi.h ****     Result EraseSector(uint32_t address);
 152:../../libs/libDaisy/src/per/qspi.h **** 
 153:../../libs/libDaisy/src/per/qspi.h ****     /** Returns the current class status. Useful for debugging.
 154:../../libs/libDaisy/src/per/qspi.h ****      *  \returns Status
 155:../../libs/libDaisy/src/per/qspi.h ****      */
 156:../../libs/libDaisy/src/per/qspi.h ****     Status GetStatus();
 157:../../libs/libDaisy/src/per/qspi.h **** 
 158:../../libs/libDaisy/src/per/qspi.h ****     /** Returns a pointer to the actual memory used
 159:../../libs/libDaisy/src/per/qspi.h ****      *  The memory at this address is read-only
 160:../../libs/libDaisy/src/per/qspi.h ****      *  to write to it use the Write function.
ARM GAS  C:\Users\skipi\AppData\Local\Temp\ccTbm0XL.s 			page 25


 161:../../libs/libDaisy/src/per/qspi.h ****      *
 162:../../libs/libDaisy/src/per/qspi.h ****      *  \param offset returns the pointer starting this
 163:../../libs/libDaisy/src/per/qspi.h ****      *                many bytes into the memory
 164:../../libs/libDaisy/src/per/qspi.h ****     */
 165:../../libs/libDaisy/src/per/qspi.h ****     void* GetData(uint32_t offset = 0);
 166:../../libs/libDaisy/src/per/qspi.h **** 
 167:../../libs/libDaisy/src/per/qspi.h ****     QSPIHandle() : pimpl_(nullptr) {}
 475              		.loc 10 167 5 view .LVU103
 476              		.loc 10 167 5 is_stmt 0 view .LVU104
 477              	.LBE403:
 478              	.LBB408:
 479              	.LBI408:
  58:../../libs/libDaisy/src/per/qspi.h ****     {
 480              		.loc 10 58 12 is_stmt 1 view .LVU105
 481              	.LBB409:
 482              	.LBI409:
  84:../../libs/libDaisy/src/per/qspi.h ****             Pin io0; /**< & */
 483              		.loc 10 84 9 view .LVU106
 484              	.LBB410:
 485              	.LBI410:
 486              		.file 11 "../../libs/libDaisy/src/daisy_core.h"
   1:../../libs/libDaisy/src/daisy_core.h **** #pragma once
   2:../../libs/libDaisy/src/daisy_core.h **** #ifndef DSY_CORE_HW_H
   3:../../libs/libDaisy/src/daisy_core.h **** #define DSY_CORE_HW_H /**< & */
   4:../../libs/libDaisy/src/daisy_core.h **** #include <stdint.h>
   5:../../libs/libDaisy/src/daisy_core.h **** #include <stdlib.h>
   6:../../libs/libDaisy/src/daisy_core.h **** 
   7:../../libs/libDaisy/src/daisy_core.h **** #if defined(_MSC_VER)
   8:../../libs/libDaisy/src/daisy_core.h **** #define FORCE_INLINE __forceinline /**< & */
   9:../../libs/libDaisy/src/daisy_core.h **** #elif defined(__clang__)
  10:../../libs/libDaisy/src/daisy_core.h **** #define FORCE_INLINE inline __attribute__((always_inline)) /**< & */
  11:../../libs/libDaisy/src/daisy_core.h **** #pragma clang diagnostic ignored "-Wduplicate-decl-specifier"
  12:../../libs/libDaisy/src/daisy_core.h **** #elif defined(__GNUC__)
  13:../../libs/libDaisy/src/daisy_core.h **** #define FORCE_INLINE inline __attribute__((always_inline)) /**< & */
  14:../../libs/libDaisy/src/daisy_core.h **** #else
  15:../../libs/libDaisy/src/daisy_core.h **** #error unknown compiler
  16:../../libs/libDaisy/src/daisy_core.h **** #endif
  17:../../libs/libDaisy/src/daisy_core.h **** 
  18:../../libs/libDaisy/src/daisy_core.h **** /** @addtogroup utility
  19:../../libs/libDaisy/src/daisy_core.h ****     @{
  20:../../libs/libDaisy/src/daisy_core.h **** */
  21:../../libs/libDaisy/src/daisy_core.h **** 
  22:../../libs/libDaisy/src/daisy_core.h **** /** Macro for area of memory that is configured as cacheless
  23:../../libs/libDaisy/src/daisy_core.h **** This should be used primarily for DMA buffers, and the like.
  24:../../libs/libDaisy/src/daisy_core.h **** */
  25:../../libs/libDaisy/src/daisy_core.h **** #define DMA_BUFFER_MEM_SECTION __attribute__((section(".sram1_bss")))
  26:../../libs/libDaisy/src/daisy_core.h **** /** 
  27:../../libs/libDaisy/src/daisy_core.h **** THE DTCM RAM section is also non-cached. However, is not suitable 
  28:../../libs/libDaisy/src/daisy_core.h **** for DMA transfers. Performance is on par with internal SRAM w/ 
  29:../../libs/libDaisy/src/daisy_core.h **** cache enabled.
  30:../../libs/libDaisy/src/daisy_core.h **** */
  31:../../libs/libDaisy/src/daisy_core.h **** #define DTCM_MEM_SECTION __attribute__((section(".dtcmram_bss")))
  32:../../libs/libDaisy/src/daisy_core.h **** 
  33:../../libs/libDaisy/src/daisy_core.h **** #define FBIPMAX 0.999985f             /**< close to 1.0f-LSB at 16 bit */
  34:../../libs/libDaisy/src/daisy_core.h **** #define FBIPMIN (-FBIPMAX)            /**< - (1 - LSB) */
  35:../../libs/libDaisy/src/daisy_core.h **** #define U82F_SCALE 0.0078740f         /**< 1 / 127 */
  36:../../libs/libDaisy/src/daisy_core.h **** #define F2U8_SCALE 127.0f             /**< 128 - 1 */
ARM GAS  C:\Users\skipi\AppData\Local\Temp\ccTbm0XL.s 			page 26


  37:../../libs/libDaisy/src/daisy_core.h **** #define S82F_SCALE 0.0078125f         /**< 1 / (2**7) */
  38:../../libs/libDaisy/src/daisy_core.h **** #define F2S8_SCALE 127.0f             /**< (2 ** 7) - 1 */
  39:../../libs/libDaisy/src/daisy_core.h **** #define S162F_SCALE 3.0517578125e-05f /**< 1 / (2** 15) */
  40:../../libs/libDaisy/src/daisy_core.h **** #define F2S16_SCALE 32767.0f          /**< (2 ** 15) - 1 */
  41:../../libs/libDaisy/src/daisy_core.h **** #define F2S24_SCALE 8388608.0f        /**< 2 ** 23 */
  42:../../libs/libDaisy/src/daisy_core.h **** #define S242F_SCALE 1.192092896e-07f  /**< 1 / (2 ** 23) */
  43:../../libs/libDaisy/src/daisy_core.h **** #define S24SIGN 0x800000              /**< 2 ** 23 */
  44:../../libs/libDaisy/src/daisy_core.h **** #define S322F_SCALE 4.6566129e-10f    /**< 1 / (2** 31) */
  45:../../libs/libDaisy/src/daisy_core.h **** #define F2S32_SCALE 2147483647.f      /**< (2 ** 31) - 1 */
  46:../../libs/libDaisy/src/daisy_core.h **** 
  47:../../libs/libDaisy/src/daisy_core.h **** 
  48:../../libs/libDaisy/src/daisy_core.h **** /** shorthand macro for simplifying the reading of the left 
  49:../../libs/libDaisy/src/daisy_core.h ****  *  channel of a non-interleaved output buffer named out */
  50:../../libs/libDaisy/src/daisy_core.h **** #define OUT_L out[0]
  51:../../libs/libDaisy/src/daisy_core.h **** 
  52:../../libs/libDaisy/src/daisy_core.h **** /** shorthand macro for simplifying the reading of the right 
  53:../../libs/libDaisy/src/daisy_core.h ****  *  channel of a non-interleaved output buffer named out */
  54:../../libs/libDaisy/src/daisy_core.h **** #define OUT_R out[1]
  55:../../libs/libDaisy/src/daisy_core.h **** 
  56:../../libs/libDaisy/src/daisy_core.h **** /** shorthand macro for simplifying the reading of the left 
  57:../../libs/libDaisy/src/daisy_core.h ****  *  channel of a non-interleaved input buffer named in */
  58:../../libs/libDaisy/src/daisy_core.h **** #define IN_L in[0]
  59:../../libs/libDaisy/src/daisy_core.h **** 
  60:../../libs/libDaisy/src/daisy_core.h **** /** shorthand macro for simplifying the reading of the right 
  61:../../libs/libDaisy/src/daisy_core.h ****  *  channel of a non-interleaved input buffer named in */
  62:../../libs/libDaisy/src/daisy_core.h **** #define IN_R in[1]
  63:../../libs/libDaisy/src/daisy_core.h **** 
  64:../../libs/libDaisy/src/daisy_core.h **** /** 
  65:../../libs/libDaisy/src/daisy_core.h ****     Computes cube.
  66:../../libs/libDaisy/src/daisy_core.h ****     \param x Number to be cubed
  67:../../libs/libDaisy/src/daisy_core.h ****     \return x ^ 3
  68:../../libs/libDaisy/src/daisy_core.h **** */
  69:../../libs/libDaisy/src/daisy_core.h **** FORCE_INLINE float cube(float x)
  70:../../libs/libDaisy/src/daisy_core.h **** {
  71:../../libs/libDaisy/src/daisy_core.h ****     return (x * x) * x;
  72:../../libs/libDaisy/src/daisy_core.h **** }
  73:../../libs/libDaisy/src/daisy_core.h **** 
  74:../../libs/libDaisy/src/daisy_core.h **** /** 
  75:../../libs/libDaisy/src/daisy_core.h ****     Converts unsigned 8-bit to float
  76:../../libs/libDaisy/src/daisy_core.h ****     \param x Number to be scaled.
  77:../../libs/libDaisy/src/daisy_core.h ****     \return Scaled number.
  78:../../libs/libDaisy/src/daisy_core.h **** */
  79:../../libs/libDaisy/src/daisy_core.h **** FORCE_INLINE float u82f(uint8_t x)
  80:../../libs/libDaisy/src/daisy_core.h **** {
  81:../../libs/libDaisy/src/daisy_core.h ****     return ((float)x - 127.f) * U82F_SCALE;
  82:../../libs/libDaisy/src/daisy_core.h **** }
  83:../../libs/libDaisy/src/daisy_core.h **** 
  84:../../libs/libDaisy/src/daisy_core.h **** /**
  85:../../libs/libDaisy/src/daisy_core.h ****     Converts float to unsigned 8-bit
  86:../../libs/libDaisy/src/daisy_core.h **** */
  87:../../libs/libDaisy/src/daisy_core.h **** FORCE_INLINE uint8_t f2u8(float x)
  88:../../libs/libDaisy/src/daisy_core.h **** {
  89:../../libs/libDaisy/src/daisy_core.h ****     x = x <= FBIPMIN ? FBIPMIN : x;
  90:../../libs/libDaisy/src/daisy_core.h ****     x = x >= FBIPMAX ? FBIPMAX : x;
  91:../../libs/libDaisy/src/daisy_core.h ****     return (uint8_t)((x * F2U8_SCALE) + F2U8_SCALE);
  92:../../libs/libDaisy/src/daisy_core.h **** }
  93:../../libs/libDaisy/src/daisy_core.h **** 
ARM GAS  C:\Users\skipi\AppData\Local\Temp\ccTbm0XL.s 			page 27


  94:../../libs/libDaisy/src/daisy_core.h **** 
  95:../../libs/libDaisy/src/daisy_core.h **** /** 
  96:../../libs/libDaisy/src/daisy_core.h ****     Converts Signed 8-bit to float
  97:../../libs/libDaisy/src/daisy_core.h ****     \param x Number to be scaled.
  98:../../libs/libDaisy/src/daisy_core.h ****     \return Scaled number.
  99:../../libs/libDaisy/src/daisy_core.h **** */
 100:../../libs/libDaisy/src/daisy_core.h **** FORCE_INLINE float s82f(int8_t x)
 101:../../libs/libDaisy/src/daisy_core.h **** {
 102:../../libs/libDaisy/src/daisy_core.h ****     return (float)x * S82F_SCALE;
 103:../../libs/libDaisy/src/daisy_core.h **** }
 104:../../libs/libDaisy/src/daisy_core.h **** 
 105:../../libs/libDaisy/src/daisy_core.h **** /**
 106:../../libs/libDaisy/src/daisy_core.h ****     Converts float to Signed 8-bit
 107:../../libs/libDaisy/src/daisy_core.h **** */
 108:../../libs/libDaisy/src/daisy_core.h **** FORCE_INLINE int8_t f2s8(float x)
 109:../../libs/libDaisy/src/daisy_core.h **** {
 110:../../libs/libDaisy/src/daisy_core.h ****     x = x <= FBIPMIN ? FBIPMIN : x;
 111:../../libs/libDaisy/src/daisy_core.h ****     x = x >= FBIPMAX ? FBIPMAX : x;
 112:../../libs/libDaisy/src/daisy_core.h ****     return (int32_t)(x * F2S8_SCALE);
 113:../../libs/libDaisy/src/daisy_core.h **** }
 114:../../libs/libDaisy/src/daisy_core.h **** 
 115:../../libs/libDaisy/src/daisy_core.h **** /** 
 116:../../libs/libDaisy/src/daisy_core.h ****     Converts Signed 16-bit to float
 117:../../libs/libDaisy/src/daisy_core.h ****     \param x Number to be scaled.
 118:../../libs/libDaisy/src/daisy_core.h ****     \return Scaled number.
 119:../../libs/libDaisy/src/daisy_core.h **** */
 120:../../libs/libDaisy/src/daisy_core.h **** FORCE_INLINE float s162f(int16_t x)
 121:../../libs/libDaisy/src/daisy_core.h **** {
 122:../../libs/libDaisy/src/daisy_core.h ****     return (float)x * S162F_SCALE;
 123:../../libs/libDaisy/src/daisy_core.h **** }
 124:../../libs/libDaisy/src/daisy_core.h **** 
 125:../../libs/libDaisy/src/daisy_core.h **** /**
 126:../../libs/libDaisy/src/daisy_core.h ****     Converts float to Signed 16-bit
 127:../../libs/libDaisy/src/daisy_core.h **** */
 128:../../libs/libDaisy/src/daisy_core.h **** FORCE_INLINE int16_t f2s16(float x)
 129:../../libs/libDaisy/src/daisy_core.h **** {
 130:../../libs/libDaisy/src/daisy_core.h ****     x = x <= FBIPMIN ? FBIPMIN : x;
 131:../../libs/libDaisy/src/daisy_core.h ****     x = x >= FBIPMAX ? FBIPMAX : x;
 132:../../libs/libDaisy/src/daisy_core.h ****     return (int32_t)(x * F2S16_SCALE);
 133:../../libs/libDaisy/src/daisy_core.h **** }
 134:../../libs/libDaisy/src/daisy_core.h **** 
 135:../../libs/libDaisy/src/daisy_core.h **** /**
 136:../../libs/libDaisy/src/daisy_core.h ****     Converts Signed 24-bit to float
 137:../../libs/libDaisy/src/daisy_core.h ****  */
 138:../../libs/libDaisy/src/daisy_core.h **** FORCE_INLINE float s242f(int32_t x)
 139:../../libs/libDaisy/src/daisy_core.h **** {
 140:../../libs/libDaisy/src/daisy_core.h ****     x = (x ^ S24SIGN) - S24SIGN; //sign extend aka ((x<<8)>>8)
 141:../../libs/libDaisy/src/daisy_core.h ****     return (float)x * S242F_SCALE;
 142:../../libs/libDaisy/src/daisy_core.h **** }
 143:../../libs/libDaisy/src/daisy_core.h **** /**
 144:../../libs/libDaisy/src/daisy_core.h ****     Converts float to Signed 24-bit
 145:../../libs/libDaisy/src/daisy_core.h ****  */
 146:../../libs/libDaisy/src/daisy_core.h **** FORCE_INLINE int32_t f2s24(float x)
 147:../../libs/libDaisy/src/daisy_core.h **** {
 148:../../libs/libDaisy/src/daisy_core.h ****     x = x <= FBIPMIN ? FBIPMIN : x;
 149:../../libs/libDaisy/src/daisy_core.h ****     x = x >= FBIPMAX ? FBIPMAX : x;
 150:../../libs/libDaisy/src/daisy_core.h ****     return (int32_t)(x * F2S24_SCALE);
ARM GAS  C:\Users\skipi\AppData\Local\Temp\ccTbm0XL.s 			page 28


 151:../../libs/libDaisy/src/daisy_core.h **** }
 152:../../libs/libDaisy/src/daisy_core.h **** 
 153:../../libs/libDaisy/src/daisy_core.h **** /**
 154:../../libs/libDaisy/src/daisy_core.h ****     Converts Signed 32-bit to float
 155:../../libs/libDaisy/src/daisy_core.h ****  */
 156:../../libs/libDaisy/src/daisy_core.h **** FORCE_INLINE float s322f(int32_t x)
 157:../../libs/libDaisy/src/daisy_core.h **** {
 158:../../libs/libDaisy/src/daisy_core.h ****     return (float)x * S322F_SCALE;
 159:../../libs/libDaisy/src/daisy_core.h **** }
 160:../../libs/libDaisy/src/daisy_core.h **** /**
 161:../../libs/libDaisy/src/daisy_core.h ****     Converts float to Signed 24-bit
 162:../../libs/libDaisy/src/daisy_core.h ****  */
 163:../../libs/libDaisy/src/daisy_core.h **** FORCE_INLINE int32_t f2s32(float x)
 164:../../libs/libDaisy/src/daisy_core.h **** {
 165:../../libs/libDaisy/src/daisy_core.h ****     x = x <= FBIPMIN ? FBIPMIN : x;
 166:../../libs/libDaisy/src/daisy_core.h ****     x = x >= FBIPMAX ? FBIPMAX : x;
 167:../../libs/libDaisy/src/daisy_core.h ****     return (int32_t)(x * F2S32_SCALE);
 168:../../libs/libDaisy/src/daisy_core.h **** }
 169:../../libs/libDaisy/src/daisy_core.h **** 
 170:../../libs/libDaisy/src/daisy_core.h **** #ifdef __cplusplus
 171:../../libs/libDaisy/src/daisy_core.h **** 
 172:../../libs/libDaisy/src/daisy_core.h **** namespace daisy
 173:../../libs/libDaisy/src/daisy_core.h **** {
 174:../../libs/libDaisy/src/daisy_core.h **** /** @brief GPIO Port names */
 175:../../libs/libDaisy/src/daisy_core.h **** enum GPIOPort
 176:../../libs/libDaisy/src/daisy_core.h **** {
 177:../../libs/libDaisy/src/daisy_core.h ****     PORTA, /**< Port A */
 178:../../libs/libDaisy/src/daisy_core.h ****     PORTB, /**< Port B */
 179:../../libs/libDaisy/src/daisy_core.h ****     PORTC, /**< Port C */
 180:../../libs/libDaisy/src/daisy_core.h ****     PORTD, /**< Port D */
 181:../../libs/libDaisy/src/daisy_core.h ****     PORTE, /**< Port E */
 182:../../libs/libDaisy/src/daisy_core.h ****     PORTF, /**< Port F */
 183:../../libs/libDaisy/src/daisy_core.h ****     PORTG, /**< Port G */
 184:../../libs/libDaisy/src/daisy_core.h ****     PORTH, /**< Port H */
 185:../../libs/libDaisy/src/daisy_core.h ****     PORTI, /**< Port I */
 186:../../libs/libDaisy/src/daisy_core.h ****     PORTJ, /**< Port J */
 187:../../libs/libDaisy/src/daisy_core.h ****     PORTK, /**< Port K */
 188:../../libs/libDaisy/src/daisy_core.h ****     PORTX, /**< Used as a dummy port to signal an invalid pin. */
 189:../../libs/libDaisy/src/daisy_core.h **** };
 190:../../libs/libDaisy/src/daisy_core.h **** 
 191:../../libs/libDaisy/src/daisy_core.h **** /** @brief representation of hardware port/pin combination */
 192:../../libs/libDaisy/src/daisy_core.h **** struct Pin
 193:../../libs/libDaisy/src/daisy_core.h **** {
 194:../../libs/libDaisy/src/daisy_core.h ****     GPIOPort port;
 195:../../libs/libDaisy/src/daisy_core.h ****     uint8_t  pin;
 196:../../libs/libDaisy/src/daisy_core.h **** 
 197:../../libs/libDaisy/src/daisy_core.h ****     /** @brief Constructor creates a valid pin. 
 198:../../libs/libDaisy/src/daisy_core.h ****      *  @param pt GPIOPort between PA, and PK corresponding to STM32 Port.
 199:../../libs/libDaisy/src/daisy_core.h ****      *  @param pn pin number in range of 0-15
 200:../../libs/libDaisy/src/daisy_core.h ****     */
 201:../../libs/libDaisy/src/daisy_core.h ****     constexpr Pin(const GPIOPort pt, const uint8_t pn) : port(pt), pin(pn) {}
 202:../../libs/libDaisy/src/daisy_core.h **** 
 203:../../libs/libDaisy/src/daisy_core.h ****     /** @brief Basic Constructor creates an invalid Pin object */
 204:../../libs/libDaisy/src/daisy_core.h ****     constexpr Pin() : port(PORTX), pin(255) {}
 487              		.loc 11 204 15 view .LVU107
 488              		.loc 11 204 15 is_stmt 0 view .LVU108
 489              	.LBE410:
ARM GAS  C:\Users\skipi\AppData\Local\Temp\ccTbm0XL.s 			page 29


 490              	.LBB411:
 491              	.LBI411:
 492              		.loc 11 204 15 is_stmt 1 view .LVU109
 493              		.loc 11 204 15 is_stmt 0 view .LVU110
 494              	.LBE411:
 495              	.LBB412:
 496              	.LBI412:
 497              		.loc 11 204 15 is_stmt 1 view .LVU111
 498              		.loc 11 204 15 is_stmt 0 view .LVU112
 499              	.LBE412:
 500              	.LBB413:
 501              	.LBI413:
 502              		.loc 11 204 15 is_stmt 1 view .LVU113
 503              		.loc 11 204 15 is_stmt 0 view .LVU114
 504              	.LBE413:
 505              	.LBB414:
 506              	.LBI414:
 507              		.loc 11 204 15 is_stmt 1 view .LVU115
 508              		.loc 11 204 15 is_stmt 0 view .LVU116
 509              	.LBE414:
 510              	.LBB415:
 511              	.LBI415:
 512              		.loc 11 204 15 is_stmt 1 view .LVU117
 513              		.loc 11 204 15 is_stmt 0 view .LVU118
 514              	.LBE415:
 515              	.LBE409:
 516              	.LBE408:
 517              	.LBB416:
 518              	.LBI416:
  87:../../libs/libDaisy/src/hid/audio.h ****     ~AudioHandle() {}
 519              		.loc 8 87 5 is_stmt 1 view .LVU119
  87:../../libs/libDaisy/src/hid/audio.h ****     ~AudioHandle() {}
 520              		.loc 8 87 5 is_stmt 0 view .LVU120
 521              	.LBE416:
 522              	.LBB419:
 523              	.LBI419:
 109:../../libs/libDaisy/src/per/adc.h ****     ~AdcHandle() {}
 524              		.loc 7 109 5 is_stmt 1 view .LVU121
 109:../../libs/libDaisy/src/per/adc.h ****     ~AdcHandle() {}
 525              		.loc 7 109 5 is_stmt 0 view .LVU122
 526              	.LBE419:
 527              	.LBB420:
 528              	.LBI420:
 529              		.file 12 "../../libs/libDaisy/src/per/dac.h"
   1:../../libs/libDaisy/src/per/dac.h **** #pragma once
   2:../../libs/libDaisy/src/per/dac.h **** #ifndef DSY_DAC_H
   3:../../libs/libDaisy/src/per/dac.h **** #define DSY_DAC_H
   4:../../libs/libDaisy/src/per/dac.h **** #include "stm32h7xx_hal.h"
   5:../../libs/libDaisy/src/per/dac.h **** #include "daisy_core.h"
   6:../../libs/libDaisy/src/per/dac.h **** 
   7:../../libs/libDaisy/src/per/dac.h **** namespace daisy
   8:../../libs/libDaisy/src/per/dac.h **** {
   9:../../libs/libDaisy/src/per/dac.h **** /** @brief DAC handle for Built-in DAC Peripheral 
  10:../../libs/libDaisy/src/per/dac.h ****  *  @ingroup per_analog
  11:../../libs/libDaisy/src/per/dac.h ****  ** 
  12:../../libs/libDaisy/src/per/dac.h ****  ** For now only Normal Mode is supported,
  13:../../libs/libDaisy/src/per/dac.h ****  ** Sample and hold mode provides reduced power consumption, but requires a bit more setup.
ARM GAS  C:\Users\skipi\AppData\Local\Temp\ccTbm0XL.s 			page 30


  14:../../libs/libDaisy/src/per/dac.h ****  **
  15:../../libs/libDaisy/src/per/dac.h ****  ** For now connecting the DAC through other internal peripherals is also not supported.
  16:../../libs/libDaisy/src/per/dac.h ****  **
  17:../../libs/libDaisy/src/per/dac.h ****  ** Since the DAC channels have dedicated pins we don't need to pass in a pin config like with
  18:../../libs/libDaisy/src/per/dac.h ****  ** other modules. However, it is still important to not try to use the DAC pins for anything else.
  19:../../libs/libDaisy/src/per/dac.h ****  ** DAC Channel 1 is on PA4, and DAC Channel 2 is on PA5
  20:../../libs/libDaisy/src/per/dac.h ****  ***/
  21:../../libs/libDaisy/src/per/dac.h **** class DacHandle
  22:../../libs/libDaisy/src/per/dac.h **** {
  23:../../libs/libDaisy/src/per/dac.h ****   public:
  24:../../libs/libDaisy/src/per/dac.h ****     /** Return Values for the DacHandle class */
  25:../../libs/libDaisy/src/per/dac.h ****     enum class Result
  26:../../libs/libDaisy/src/per/dac.h ****     {
  27:../../libs/libDaisy/src/per/dac.h ****         OK,
  28:../../libs/libDaisy/src/per/dac.h ****         ERR,
  29:../../libs/libDaisy/src/per/dac.h ****     };
  30:../../libs/libDaisy/src/per/dac.h **** 
  31:../../libs/libDaisy/src/per/dac.h ****     /** Selects which channel(s) will be configured for use. */
  32:../../libs/libDaisy/src/per/dac.h ****     enum class Channel
  33:../../libs/libDaisy/src/per/dac.h ****     {
  34:../../libs/libDaisy/src/per/dac.h ****         ONE,
  35:../../libs/libDaisy/src/per/dac.h ****         TWO,
  36:../../libs/libDaisy/src/per/dac.h ****         BOTH,
  37:../../libs/libDaisy/src/per/dac.h ****     };
  38:../../libs/libDaisy/src/per/dac.h **** 
  39:../../libs/libDaisy/src/per/dac.h ****     /** Sets the Mode for the DAC channels.
  40:../../libs/libDaisy/src/per/dac.h ****      **
  41:../../libs/libDaisy/src/per/dac.h ****      ** Polling mode uses the blocking mode to transmit a single value at a time.
  42:../../libs/libDaisy/src/per/dac.h ****      **
  43:../../libs/libDaisy/src/per/dac.h ****      ** DMA mode uses a buffer, and periodically transmits it triggering a 
  44:../../libs/libDaisy/src/per/dac.h ****      ** callback to fill the buffer when it is ready for more samples.
  45:../../libs/libDaisy/src/per/dac.h ****      ***/
  46:../../libs/libDaisy/src/per/dac.h ****     enum class Mode
  47:../../libs/libDaisy/src/per/dac.h ****     {
  48:../../libs/libDaisy/src/per/dac.h ****         POLLING,
  49:../../libs/libDaisy/src/per/dac.h ****         DMA,
  50:../../libs/libDaisy/src/per/dac.h ****     };
  51:../../libs/libDaisy/src/per/dac.h **** 
  52:../../libs/libDaisy/src/per/dac.h ****     /** Sets the number of bits per sample transmitted out of the DAC.
  53:../../libs/libDaisy/src/per/dac.h ****      ** The output range will be: 0V - VDDA
  54:../../libs/libDaisy/src/per/dac.h ****      ** The resolution will be roughly: bitdepth / (VDDA - 0V) 
  55:../../libs/libDaisy/src/per/dac.h ****      ***/
  56:../../libs/libDaisy/src/per/dac.h ****     enum class BitDepth
  57:../../libs/libDaisy/src/per/dac.h ****     {
  58:../../libs/libDaisy/src/per/dac.h ****         BITS_8,
  59:../../libs/libDaisy/src/per/dac.h ****         BITS_12
  60:../../libs/libDaisy/src/per/dac.h ****     };
  61:../../libs/libDaisy/src/per/dac.h **** 
  62:../../libs/libDaisy/src/per/dac.h ****     /** Sets whether the DAC output is buffered for higher drive ability. */
  63:../../libs/libDaisy/src/per/dac.h ****     enum class BufferState
  64:../../libs/libDaisy/src/per/dac.h ****     {
  65:../../libs/libDaisy/src/per/dac.h ****         ENABLED,
  66:../../libs/libDaisy/src/per/dac.h ****         DISABLED,
  67:../../libs/libDaisy/src/per/dac.h ****     };
  68:../../libs/libDaisy/src/per/dac.h **** 
  69:../../libs/libDaisy/src/per/dac.h ****     /** Configuration structure for initializing the DAC structure. */
  70:../../libs/libDaisy/src/per/dac.h ****     struct Config
ARM GAS  C:\Users\skipi\AppData\Local\Temp\ccTbm0XL.s 			page 31


  71:../../libs/libDaisy/src/per/dac.h ****     {
  72:../../libs/libDaisy/src/per/dac.h ****         /** Target Samplerate in Hz used to configure the internal 
  73:../../libs/libDaisy/src/per/dac.h ****          ** timebase for DMA mode. Does nothing in POLLING mode.
  74:../../libs/libDaisy/src/per/dac.h ****          ** If the value is 0 at Init time this will default to 48000Hz 
  75:../../libs/libDaisy/src/per/dac.h ****          ** otherwise the driver will attempt meet the target.*/
  76:../../libs/libDaisy/src/per/dac.h ****         uint32_t target_samplerate;
  77:../../libs/libDaisy/src/per/dac.h **** 
  78:../../libs/libDaisy/src/per/dac.h ****         Channel     chn;
  79:../../libs/libDaisy/src/per/dac.h ****         Mode        mode;
  80:../../libs/libDaisy/src/per/dac.h ****         BitDepth    bitdepth;
  81:../../libs/libDaisy/src/per/dac.h ****         BufferState buff_state;
  82:../../libs/libDaisy/src/per/dac.h ****     };
  83:../../libs/libDaisy/src/per/dac.h **** 
  84:../../libs/libDaisy/src/per/dac.h ****     DacHandle() : pimpl_(nullptr) {}
 530              		.loc 12 84 5 is_stmt 1 view .LVU123
 531              		.loc 12 84 5 is_stmt 0 view .LVU124
 532              	.LBE420:
 533              	.LBB423:
 534              	.LBI423:
  40:../../libs/libDaisy/src/hid/usb.h **** 
 535              		.loc 6 40 5 is_stmt 1 view .LVU125
  40:../../libs/libDaisy/src/hid/usb.h **** 
 536              		.loc 6 40 5 is_stmt 0 view .LVU126
 537              	.LBE423:
 538              	.LBB424:
 539              	.LBI424:
 540              		.file 13 "../../libs/libDaisy/src/per/gpio.h"
   1:../../libs/libDaisy/src/per/gpio.h **** #pragma once
   2:../../libs/libDaisy/src/per/gpio.h **** #ifndef DSY_GPIO_H
   3:../../libs/libDaisy/src/per/gpio.h **** #define DSY_GPIO_H
   4:../../libs/libDaisy/src/per/gpio.h **** #include "daisy_core.h"
   5:../../libs/libDaisy/src/per/gpio.h **** 
   6:../../libs/libDaisy/src/per/gpio.h **** #ifdef __cplusplus
   7:../../libs/libDaisy/src/per/gpio.h **** 
   8:../../libs/libDaisy/src/per/gpio.h **** namespace daisy
   9:../../libs/libDaisy/src/per/gpio.h **** {
  10:../../libs/libDaisy/src/per/gpio.h **** /** @brief General Purpose I/O control 
  11:../../libs/libDaisy/src/per/gpio.h ****  *  @details peripheral control over a single GPIO
  12:../../libs/libDaisy/src/per/gpio.h ****  *  @ingroup peripheral
  13:../../libs/libDaisy/src/per/gpio.h ****  *   
  14:../../libs/libDaisy/src/per/gpio.h ****  *  Button Input (with internal Pullup resistor)
  15:../../libs/libDaisy/src/per/gpio.h ****  *  @include GPIO_Input.cpp 
  16:../../libs/libDaisy/src/per/gpio.h ****  * 
  17:../../libs/libDaisy/src/per/gpio.h ****  *  Output Example (perfect for blinking an LED)
  18:../../libs/libDaisy/src/per/gpio.h ****  *  @include GPIO_Output.cpp
  19:../../libs/libDaisy/src/per/gpio.h ****  * 
  20:../../libs/libDaisy/src/per/gpio.h **** */
  21:../../libs/libDaisy/src/per/gpio.h **** class GPIO
  22:../../libs/libDaisy/src/per/gpio.h **** {
  23:../../libs/libDaisy/src/per/gpio.h ****   public:
  24:../../libs/libDaisy/src/per/gpio.h ****     /** @brief Mode of operation for the specified GPIO */
  25:../../libs/libDaisy/src/per/gpio.h ****     enum class Mode
  26:../../libs/libDaisy/src/per/gpio.h ****     {
  27:../../libs/libDaisy/src/per/gpio.h ****         INPUT,      /**< Input for reading state of pin */
  28:../../libs/libDaisy/src/per/gpio.h ****         OUTPUT,     /**< Output w/ push-pull configuration */
  29:../../libs/libDaisy/src/per/gpio.h ****         OPEN_DRAIN, /**< Output w/ open-drain configuration */
  30:../../libs/libDaisy/src/per/gpio.h ****         ANALOG,     /**< Analog for connection to ADC or DAC peripheral */
ARM GAS  C:\Users\skipi\AppData\Local\Temp\ccTbm0XL.s 			page 32


  31:../../libs/libDaisy/src/per/gpio.h ****     };
  32:../../libs/libDaisy/src/per/gpio.h **** 
  33:../../libs/libDaisy/src/per/gpio.h ****     /** @brief Configures whether an internal Pull up or Pull down resistor is used. 
  34:../../libs/libDaisy/src/per/gpio.h ****      *  
  35:../../libs/libDaisy/src/per/gpio.h ****      * Internal Pull up/down resistors are typically 40k ohms, and will be between
  36:../../libs/libDaisy/src/per/gpio.h ****      * 30k and 50k
  37:../../libs/libDaisy/src/per/gpio.h ****      * 
  38:../../libs/libDaisy/src/per/gpio.h ****      * When the Pin is configured in Analog mode, the pull up/down resistors are
  39:../../libs/libDaisy/src/per/gpio.h ****      * disabled by hardware. 
  40:../../libs/libDaisy/src/per/gpio.h ****      */
  41:../../libs/libDaisy/src/per/gpio.h ****     enum class Pull
  42:../../libs/libDaisy/src/per/gpio.h ****     {
  43:../../libs/libDaisy/src/per/gpio.h ****         NOPULL,   /**< No pull up resistor */
  44:../../libs/libDaisy/src/per/gpio.h ****         PULLUP,   /**< Internal pull up enabled */
  45:../../libs/libDaisy/src/per/gpio.h ****         PULLDOWN, /**< Internal pull down enabled*/
  46:../../libs/libDaisy/src/per/gpio.h ****     };
  47:../../libs/libDaisy/src/per/gpio.h **** 
  48:../../libs/libDaisy/src/per/gpio.h ****     /** @brief Output speed controls the drive strength, and slew rate of the pin */
  49:../../libs/libDaisy/src/per/gpio.h ****     enum class Speed
  50:../../libs/libDaisy/src/per/gpio.h ****     {
  51:../../libs/libDaisy/src/per/gpio.h ****         LOW,
  52:../../libs/libDaisy/src/per/gpio.h ****         MEDIUM,
  53:../../libs/libDaisy/src/per/gpio.h ****         HIGH,
  54:../../libs/libDaisy/src/per/gpio.h ****         VERY_HIGH,
  55:../../libs/libDaisy/src/per/gpio.h ****     };
  56:../../libs/libDaisy/src/per/gpio.h **** 
  57:../../libs/libDaisy/src/per/gpio.h ****     /** @brief Configuration for a given GPIO */
  58:../../libs/libDaisy/src/per/gpio.h ****     struct Config
  59:../../libs/libDaisy/src/per/gpio.h ****     {
  60:../../libs/libDaisy/src/per/gpio.h ****         Pin   pin;
  61:../../libs/libDaisy/src/per/gpio.h ****         Mode  mode;
  62:../../libs/libDaisy/src/per/gpio.h ****         Pull  pull;
  63:../../libs/libDaisy/src/per/gpio.h ****         Speed speed;
  64:../../libs/libDaisy/src/per/gpio.h **** 
  65:../../libs/libDaisy/src/per/gpio.h ****         /** Constructor with no arguments will prepare an invalid GPIO set as
  66:../../libs/libDaisy/src/per/gpio.h ****          *  an input, with no pullup. 
  67:../../libs/libDaisy/src/per/gpio.h ****          */
  68:../../libs/libDaisy/src/per/gpio.h ****         Config()
  69:../../libs/libDaisy/src/per/gpio.h ****         : pin(), mode(Mode::INPUT), pull(Pull::NOPULL), speed(Speed::LOW)
  70:../../libs/libDaisy/src/per/gpio.h ****         {
  71:../../libs/libDaisy/src/per/gpio.h ****         }
  72:../../libs/libDaisy/src/per/gpio.h ****     };
  73:../../libs/libDaisy/src/per/gpio.h **** 
  74:../../libs/libDaisy/src/per/gpio.h ****     GPIO() {}
 541              		.loc 13 74 5 is_stmt 1 view .LVU127
 542              	.LBB425:
 543              	.LBB426:
 544              	.LBI426:
  68:../../libs/libDaisy/src/per/gpio.h ****         : pin(), mode(Mode::INPUT), pull(Pull::NOPULL), speed(Speed::LOW)
 545              		.loc 13 68 9 view .LVU128
 546              	.LBB427:
 547              	.LBB428:
 548              	.LBB429:
 549              	.LBI429:
 550              		.loc 11 204 15 view .LVU129
 551              		.loc 11 204 15 is_stmt 0 view .LVU130
 552              	.LBE429:
ARM GAS  C:\Users\skipi\AppData\Local\Temp\ccTbm0XL.s 			page 33


 553              	.LBE428:
 554              	.LBE427:
 555              	.LBE426:
 556              	.LBE425:
 557              	.LBE424:
 558              	.LBB434:
 559              	.LBI434:
 560              		.loc 13 74 5 is_stmt 1 view .LVU131
 561              	.LBB435:
 562              	.LBB436:
 563              	.LBI436:
  68:../../libs/libDaisy/src/per/gpio.h ****         : pin(), mode(Mode::INPUT), pull(Pull::NOPULL), speed(Speed::LOW)
 564              		.loc 13 68 9 view .LVU132
 565              	.LBB437:
 566              	.LBB438:
 567              	.LBB439:
 568              	.LBI439:
 569              		.loc 11 204 15 view .LVU133
 570              		.loc 11 204 15 is_stmt 0 view .LVU134
 571              	.LBE439:
 572              	.LBE438:
 573              	.LBE437:
 574              	.LBE436:
 575              	.LBE435:
 576              	.LBE434:
 577              	.LBB444:
 578              	.LBI444:
  96:../../libs/libDaisy/src/sys/system.h ****     ~System() {}
 579              		.loc 5 96 5 is_stmt 1 view .LVU135
  96:../../libs/libDaisy/src/sys/system.h ****     ~System() {}
 580              		.loc 5 96 5 is_stmt 0 view .LVU136
 581              	.LBE444:
 582              	.LBB445:
 583              	.LBI445:
  20:../../libs/libDaisy/src/dev/codec_ak4556.h ****     ~Ak4556() {}
 584              		.loc 4 20 5 is_stmt 1 view .LVU137
 585              	.LBB446:
 586              	.LBI446:
 587              		.loc 13 74 5 view .LVU138
 588              	.LBB447:
 589              	.LBB448:
 590              	.LBI448:
  68:../../libs/libDaisy/src/per/gpio.h ****         : pin(), mode(Mode::INPUT), pull(Pull::NOPULL), speed(Speed::LOW)
 591              		.loc 13 68 9 view .LVU139
 592              	.LBB449:
 593              	.LBB450:
 594              	.LBB451:
 595              	.LBI451:
 596              		.loc 11 204 15 view .LVU140
 597              		.loc 11 204 15 is_stmt 0 view .LVU141
 598              	.LBE451:
 599              	.LBE450:
 600              	.LBE449:
 601              	.LBE448:
 602              	.LBE447:
 603              	.LBE446:
 604              	.LBE445:
ARM GAS  C:\Users\skipi\AppData\Local\Temp\ccTbm0XL.s 			page 34


 605              	.LBB457:
 606              	.LBI457:
 607              		.file 14 "../../libs/libDaisy/src/per/sai.h"
   1:../../libs/libDaisy/src/per/sai.h **** #pragma once
   2:../../libs/libDaisy/src/per/sai.h **** #ifndef DSY_SAI_H
   3:../../libs/libDaisy/src/per/sai.h **** #define DSY_SAI_H
   4:../../libs/libDaisy/src/per/sai.h **** 
   5:../../libs/libDaisy/src/per/sai.h **** #include "util/hal_map.h"
   6:../../libs/libDaisy/src/per/sai.h **** #include "daisy_core.h"
   7:../../libs/libDaisy/src/per/sai.h **** 
   8:../../libs/libDaisy/src/per/sai.h **** namespace daisy
   9:../../libs/libDaisy/src/per/sai.h **** {
  10:../../libs/libDaisy/src/per/sai.h **** /** 
  11:../../libs/libDaisy/src/per/sai.h ****  * Support for I2S Audio Protocol with different bit-depth, samplerate options
  12:../../libs/libDaisy/src/per/sai.h ****  * Allows for master or slave, as well as freedom of selecting direction, 
  13:../../libs/libDaisy/src/per/sai.h ****  * and other behavior for each peripheral, and block.
  14:../../libs/libDaisy/src/per/sai.h ****  * 
  15:../../libs/libDaisy/src/per/sai.h ****  * DMA Transfer commands must use buffers located within non-cached memory or use cache maintenance
  16:../../libs/libDaisy/src/per/sai.h ****  * To declare an unitialized global element in the DMA memory section:
  17:../../libs/libDaisy/src/per/sai.h ****  *    int32_t DSY_DMA_BUFFER_SECTOR my_buffer[96];
  18:../../libs/libDaisy/src/per/sai.h ****  *
  19:../../libs/libDaisy/src/per/sai.h ****  * Callback functions will be called once per half of the buffer. In the above example, 
  20:../../libs/libDaisy/src/per/sai.h ****  * the callback function would be called once for every 48 samples.
  21:../../libs/libDaisy/src/per/sai.h ****  * 
  22:../../libs/libDaisy/src/per/sai.h ****  * Use SAI Handle like this:
  23:../../libs/libDaisy/src/per/sai.h ****  * 
  24:../../libs/libDaisy/src/per/sai.h ****  *  SaiHandle::Config sai_config;
  25:../../libs/libDaisy/src/per/sai.h ****  *  sai_config.periph          = SaiHandle::Config::Peripheral::SAI_1;
  26:../../libs/libDaisy/src/per/sai.h ****  *  sai_config.sr              = SaiHandle::Config::SampleRate::SAI_48KHZ;
  27:../../libs/libDaisy/src/per/sai.h ****  *  sai_config.bit_depth       = SaiHandle::Config::BitDepth::SAI_24BIT;
  28:../../libs/libDaisy/src/per/sai.h ****  *  sai_config.a_sync          = SaiHandle::Config::Sync::MASTER;
  29:../../libs/libDaisy/src/per/sai.h ****  *  sai_config.b_sync          = SaiHandle::Config::Sync::SLAVE;
  30:../../libs/libDaisy/src/per/sai.h ****  *  sai_config.a_dir           = SaiHandle::Config::Direction::RECEIVE;
  31:../../libs/libDaisy/src/per/sai.h ****  *  sai_config.b_dir           = SaiHandle::Config::Direction::TRANSMIT;
  32:../../libs/libDaisy/src/per/sai.h ****  *  sai_config.pin_config.fs   = {DSY_GPIOE, 4};
  33:../../libs/libDaisy/src/per/sai.h ****  *  sai_config.pin_config.mclk = {DSY_GPIOE, 2};
  34:../../libs/libDaisy/src/per/sai.h ****  *  sai_config.pin_config.sck  = {DSY_GPIOE, 5};
  35:../../libs/libDaisy/src/per/sai.h ****  *  sai_config.pin_config.sa   = {DSY_GPIOE, 6};
  36:../../libs/libDaisy/src/per/sai.h ****  *  sai_config.pin_config.sb   = {DSY_GPIOE, 3};
  37:../../libs/libDaisy/src/per/sai.h ****  *  // Then Initialize
  38:../../libs/libDaisy/src/per/sai.h ****  *  SaiHandle sai;
  39:../../libs/libDaisy/src/per/sai.h ****  *  sai.Init(sai_config);
  40:../../libs/libDaisy/src/per/sai.h ****  *  // Now you can use it:
  41:../../libs/libDaisy/src/per/sai.h ****  *  sai.StartDma(. . .);
  42:../../libs/libDaisy/src/per/sai.h ****  */
  43:../../libs/libDaisy/src/per/sai.h **** class SaiHandle
  44:../../libs/libDaisy/src/per/sai.h **** {
  45:../../libs/libDaisy/src/per/sai.h ****   public:
  46:../../libs/libDaisy/src/per/sai.h ****     /** Contains settings for initialising an SAI Interface */
  47:../../libs/libDaisy/src/per/sai.h ****     struct Config
  48:../../libs/libDaisy/src/per/sai.h ****     {
  49:../../libs/libDaisy/src/per/sai.h ****         /** Specifies the internal peripheral to use (mapped to different hardware pins) */
  50:../../libs/libDaisy/src/per/sai.h ****         enum class Peripheral
  51:../../libs/libDaisy/src/per/sai.h ****         {
  52:../../libs/libDaisy/src/per/sai.h ****             SAI_1,
  53:../../libs/libDaisy/src/per/sai.h ****             SAI_2,
  54:../../libs/libDaisy/src/per/sai.h ****         };
ARM GAS  C:\Users\skipi\AppData\Local\Temp\ccTbm0XL.s 			page 35


  55:../../libs/libDaisy/src/per/sai.h **** 
  56:../../libs/libDaisy/src/per/sai.h ****         /** Rate at which samples will be streaming to/from the device. */
  57:../../libs/libDaisy/src/per/sai.h ****         enum class SampleRate
  58:../../libs/libDaisy/src/per/sai.h ****         {
  59:../../libs/libDaisy/src/per/sai.h ****             SAI_8KHZ,
  60:../../libs/libDaisy/src/per/sai.h ****             SAI_16KHZ,
  61:../../libs/libDaisy/src/per/sai.h ****             SAI_32KHZ,
  62:../../libs/libDaisy/src/per/sai.h ****             SAI_48KHZ,
  63:../../libs/libDaisy/src/per/sai.h ****             SAI_96KHZ,
  64:../../libs/libDaisy/src/per/sai.h ****         };
  65:../../libs/libDaisy/src/per/sai.h **** 
  66:../../libs/libDaisy/src/per/sai.h ****         /** Bit Depth that the hardware expects to be transferred to/from the device. */
  67:../../libs/libDaisy/src/per/sai.h ****         enum class BitDepth
  68:../../libs/libDaisy/src/per/sai.h ****         {
  69:../../libs/libDaisy/src/per/sai.h ****             SAI_16BIT,
  70:../../libs/libDaisy/src/per/sai.h ****             SAI_24BIT,
  71:../../libs/libDaisy/src/per/sai.h ****             SAI_32BIT,
  72:../../libs/libDaisy/src/per/sai.h ****         };
  73:../../libs/libDaisy/src/per/sai.h **** 
  74:../../libs/libDaisy/src/per/sai.h ****         /** Specifies whether a particular block is the master or the slave 
  75:../../libs/libDaisy/src/per/sai.h ****          ** If both are set to slave, no MCLK signal will be used, and it is
  76:../../libs/libDaisy/src/per/sai.h ****          ** expected that the codec will have its own xtal.
  77:../../libs/libDaisy/src/per/sai.h ****          */
  78:../../libs/libDaisy/src/per/sai.h ****         enum class Sync
  79:../../libs/libDaisy/src/per/sai.h ****         {
  80:../../libs/libDaisy/src/per/sai.h ****             MASTER,
  81:../../libs/libDaisy/src/per/sai.h ****             SLAVE,
  82:../../libs/libDaisy/src/per/sai.h ****         };
  83:../../libs/libDaisy/src/per/sai.h **** 
  84:../../libs/libDaisy/src/per/sai.h ****         /** Specifies the direction for each peripheral block. */
  85:../../libs/libDaisy/src/per/sai.h ****         enum class Direction
  86:../../libs/libDaisy/src/per/sai.h ****         {
  87:../../libs/libDaisy/src/per/sai.h ****             TRANSMIT,
  88:../../libs/libDaisy/src/per/sai.h ****             RECEIVE,
  89:../../libs/libDaisy/src/per/sai.h ****         };
  90:../../libs/libDaisy/src/per/sai.h **** 
  91:../../libs/libDaisy/src/per/sai.h ****         Peripheral periph;
  92:../../libs/libDaisy/src/per/sai.h ****         struct
  93:../../libs/libDaisy/src/per/sai.h ****         {
  94:../../libs/libDaisy/src/per/sai.h ****             Pin mclk, fs, sck, sa, sb;
  95:../../libs/libDaisy/src/per/sai.h ****         } pin_config;
  96:../../libs/libDaisy/src/per/sai.h ****         SampleRate sr;
  97:../../libs/libDaisy/src/per/sai.h ****         BitDepth   bit_depth;
  98:../../libs/libDaisy/src/per/sai.h ****         Sync       a_sync, b_sync;
  99:../../libs/libDaisy/src/per/sai.h ****         Direction  a_dir, b_dir;
 100:../../libs/libDaisy/src/per/sai.h ****     };
 101:../../libs/libDaisy/src/per/sai.h **** 
 102:../../libs/libDaisy/src/per/sai.h ****     /** Return values for SAI functions */
 103:../../libs/libDaisy/src/per/sai.h ****     enum class Result
 104:../../libs/libDaisy/src/per/sai.h ****     {
 105:../../libs/libDaisy/src/per/sai.h ****         OK,
 106:../../libs/libDaisy/src/per/sai.h ****         ERR,
 107:../../libs/libDaisy/src/per/sai.h ****     };
 108:../../libs/libDaisy/src/per/sai.h **** 
 109:../../libs/libDaisy/src/per/sai.h ****     SaiHandle() : pimpl_(nullptr) {}
 608              		.loc 14 109 5 is_stmt 1 view .LVU142
 609              	.LBE457:
ARM GAS  C:\Users\skipi\AppData\Local\Temp\ccTbm0XL.s 			page 36


 610              	.LBE402:
 611              	.LBE401:
 612              	.LBE400:
 613              	.LBE399:
 614              		.loc 9 63 1 is_stmt 0 view .LVU143
 615 0000 38B5     		push	{r3, r4, r5, lr}
 616              		.cfi_def_cfa_offset 16
 617              		.cfi_offset 3, -16
 618              		.cfi_offset 4, -12
 619              		.cfi_offset 5, -8
 620              		.cfi_offset 14, -4
 621              	.LBB515:
 622              	.LBB513:
 623              	.LBB470:
 624              	.LBB468:
 625              	.LBB460:
 626              	.LBB404:
 627              	.LBB405:
 628              		.loc 10 167 34 view .LVU144
 629 0002 1848     		ldr	r0, .L26
 630 0004 0024     		movs	r4, #0
 631              	.LBE405:
 632              	.LBE404:
 633              	.LBE460:
  21:../../libs/libDaisy/src/daisy_seed.h ****     ~DaisySeed() {}
 634              		.loc 3 21 17 view .LVU145
 635 0006 4FF60B75 		movw	r5, #65291
 636 000a 6FF0F413 		mvn	r3, #15991028
 637              	.LBE468:
 638              	.LBE470:
   5:main.cpp      **** DaisySeed hw;
 639              		.loc 9 5 11 view .LVU146
 640 000e 164A     		ldr	r2, .L26+4
 641 0010 1649     		ldr	r1, .L26+8
 642              	.LBB471:
 643              	.LBB469:
 644              	.LBB461:
 645              	.LBB407:
 646              	.LBB406:
 647              		.loc 10 167 34 view .LVU147
 648 0012 0460     		str	r4, [r0]
 649              	.LBE406:
 650              	.LBE407:
 651              	.LBE461:
 652              	.LBB462:
 653              	.LBB417:
 654              	.LBB418:
  87:../../libs/libDaisy/src/hid/audio.h ****     ~AudioHandle() {}
 655              		.loc 8 87 35 view .LVU148
 656 0014 4461     		str	r4, [r0, #20]
 657              	.LBE418:
 658              	.LBE417:
 659              	.LBE462:
  21:../../libs/libDaisy/src/daisy_seed.h ****     ~DaisySeed() {}
 660              		.loc 3 21 17 view .LVU149
 661 0016 C360     		str	r3, [r0, #12]
 662              	.LBB463:
ARM GAS  C:\Users\skipi\AppData\Local\Temp\ccTbm0XL.s 			page 37


 663              	.LBB421:
 664              	.LBB422:
 665              		.loc 12 84 33 view .LVU150
 666 0018 0462     		str	r4, [r0, #32]
 667              	.LBE422:
 668              	.LBE421:
 669              	.LBE463:
 670              	.LBB464:
 671              	.LBB458:
 672              	.LBB459:
 673              		.loc 14 109 33 view .LVU151
 674 001a 0467     		str	r4, [r0, #112]
 675              	.LVL22:
 676              		.loc 14 109 33 view .LVU152
 677              	.LBE459:
 678              	.LBE458:
 679              	.LBE464:
  21:../../libs/libDaisy/src/daisy_seed.h ****     ~DaisySeed() {}
 680              		.loc 3 21 17 view .LVU153
 681 001c C0E90133 		strd	r3, r3, [r0, #4]
 682              	.LBB465:
 683              	.LBB433:
 684              	.LBB432:
 685              	.LBB431:
 686              	.LBB430:
  69:../../libs/libDaisy/src/per/gpio.h ****         {
 687              		.loc 13 69 73 view .LVU154
 688 0020 C0E90A54 		strd	r5, r4, [r0, #40]
 689 0024 C0E90C44 		strd	r4, r4, [r0, #48]
 690              	.LBE430:
 691              	.LBE431:
 692              	.LBE432:
 693              	.LBE433:
 694              	.LBE465:
 695              	.LBB466:
 696              	.LBB443:
 697              	.LBB442:
 698              	.LBB441:
 699              	.LBB440:
 700 0028 C0E90F54 		strd	r5, r4, [r0, #60]
 701 002c C0E91144 		strd	r4, r4, [r0, #68]
 702              	.LBE440:
 703              	.LBE441:
 704              	.LBE442:
 705              	.LBE443:
 706              	.LBE466:
 707              	.LBB467:
 708              	.LBB456:
 709              	.LBB455:
 710              	.LBB454:
 711              	.LBB453:
 712              	.LBB452:
 713 0030 C0E91654 		strd	r5, r4, [r0, #88]
 714 0034 C0E91844 		strd	r4, r4, [r0, #96]
 715              	.LBE452:
 716              	.LBE453:
 717              	.LBE454:
ARM GAS  C:\Users\skipi\AppData\Local\Temp\ccTbm0XL.s 			page 38


 718              	.LBE455:
 719              	.LBE456:
 720              	.LBE467:
 721              	.LBE469:
 722              	.LBE471:
   5:main.cpp      **** DaisySeed hw;
 723              		.loc 9 5 11 view .LVU155
 724 0038 FFF7FEFF 		bl	__aeabi_atexit
 725              	.LVL23:
 726              	.LBB472:
 727              	.LBI472:
  20:../../libs/libDaisy/src/hid/encoder.h ****     ~Encoder() {}
 728              		.loc 1 20 5 is_stmt 1 view .LVU156
 729              	.LBB473:
 730              	.LBB474:
 731              	.LBI474:
  33:../../libs/libDaisy/src/hid/switch.h ****     ~Switch() {}
 732              		.loc 2 33 5 view .LVU157
 733              	.LBB475:
 734              	.LBB476:
 735              	.LBI476:
 736              		.loc 13 74 5 view .LVU158
 737              	.LBB477:
 738              	.LBB478:
 739              	.LBI478:
  68:../../libs/libDaisy/src/per/gpio.h ****         : pin(), mode(Mode::INPUT), pull(Pull::NOPULL), speed(Speed::LOW)
 740              		.loc 13 68 9 view .LVU159
 741              	.LBB479:
 742              	.LBB480:
 743              	.LBB481:
 744              	.LBI481:
 745              		.loc 11 204 15 view .LVU160
 746              		.loc 11 204 15 is_stmt 0 view .LVU161
 747              	.LBE481:
 748              	.LBE480:
 749              	.LBE479:
 750              	.LBE478:
 751              	.LBE477:
 752              	.LBE476:
 753              	.LBE475:
 754              	.LBE474:
 755              	.LBB488:
 756              	.LBI488:
 757              		.loc 13 74 5 is_stmt 1 view .LVU162
 758              	.LBB489:
 759              	.LBB490:
 760              	.LBI490:
  68:../../libs/libDaisy/src/per/gpio.h ****         : pin(), mode(Mode::INPUT), pull(Pull::NOPULL), speed(Speed::LOW)
 761              		.loc 13 68 9 view .LVU163
 762              	.LBB491:
 763              	.LBB492:
 764              	.LBB493:
 765              	.LBI493:
 766              		.loc 11 204 15 view .LVU164
 767              		.loc 11 204 15 is_stmt 0 view .LVU165
 768              	.LBE493:
 769              	.LBE492:
ARM GAS  C:\Users\skipi\AppData\Local\Temp\ccTbm0XL.s 			page 39


 770              	.LBE491:
 771              	.LBE490:
 772              	.LBE489:
 773              	.LBE488:
 774              	.LBB498:
 775              	.LBI498:
 776              		.loc 13 74 5 is_stmt 1 view .LVU166
 777              	.LBB499:
 778              	.LBB500:
 779              	.LBI500:
  68:../../libs/libDaisy/src/per/gpio.h ****         : pin(), mode(Mode::INPUT), pull(Pull::NOPULL), speed(Speed::LOW)
 780              		.loc 13 68 9 view .LVU167
 781              	.LBB501:
 782              	.LBB502:
 783              	.LBB503:
 784              	.LBI503:
 785              		.loc 11 204 15 view .LVU168
 786              		.loc 11 204 15 is_stmt 0 view .LVU169
 787              	.LBE503:
 788              	.LBE502:
 789              	.LBE501:
 790              	.LBE500:
 791              	.LBE499:
 792              	.LBE498:
  20:../../libs/libDaisy/src/hid/encoder.h ****     ~Encoder() {}
 793              		.loc 1 20 15 view .LVU170
 794 003c 0C48     		ldr	r0, .L26+12
 795              	.LBE473:
 796              	.LBE472:
   6:main.cpp      **** Encoder   enc;
 797              		.loc 9 6 11 view .LVU171
 798 003e 0A4A     		ldr	r2, .L26+4
 799 0040 0C49     		ldr	r1, .L26+16
 800              	.LBB512:
 801              	.LBB511:
 802              	.LBB508:
 803              	.LBB487:
 804              	.LBB486:
 805              	.LBB485:
 806              	.LBB484:
 807              	.LBB483:
 808              	.LBB482:
  69:../../libs/libDaisy/src/per/gpio.h ****         {
 809              		.loc 13 69 73 view .LVU172
 810 0042 C0E90454 		strd	r5, r4, [r0, #16]
 811 0046 C0E90644 		strd	r4, r4, [r0, #24]
 812              	.LBE482:
 813              	.LBE483:
 814              	.LBE484:
 815              	.LBE485:
 816              	.LBE486:
 817              	.LBE487:
 818              	.LBE508:
 819              	.LBB509:
 820              	.LBB497:
 821              	.LBB496:
 822              	.LBB495:
ARM GAS  C:\Users\skipi\AppData\Local\Temp\ccTbm0XL.s 			page 40


 823              	.LBB494:
 824 004a C0E90B54 		strd	r5, r4, [r0, #44]
 825 004e C0E90D44 		strd	r4, r4, [r0, #52]
 826              	.LBE494:
 827              	.LBE495:
 828              	.LBE496:
 829              	.LBE497:
 830              	.LBE509:
 831              	.LBB510:
 832              	.LBB507:
 833              	.LBB506:
 834              	.LBB505:
 835              	.LBB504:
 836 0052 C0E91054 		strd	r5, r4, [r0, #64]
 837 0056 C0E91244 		strd	r4, r4, [r0, #72]
 838              	.LVL24:
  69:../../libs/libDaisy/src/per/gpio.h ****         {
 839              		.loc 13 69 73 view .LVU173
 840              	.LBE504:
 841              	.LBE505:
 842              	.LBE506:
 843              	.LBE507:
 844              	.LBE510:
 845              	.LBE511:
 846              	.LBE512:
 847              	.LBE513:
 848              	.LBE515:
 849              		.loc 9 63 1 view .LVU174
 850 005a BDE83840 		pop	{r3, r4, r5, lr}
 851              		.cfi_restore 14
 852              		.cfi_restore 5
 853              		.cfi_restore 4
 854              		.cfi_restore 3
 855              		.cfi_def_cfa_offset 0
 856              	.LBB516:
 857              	.LBB514:
   6:main.cpp      **** Encoder   enc;
 858              		.loc 9 6 11 view .LVU175
 859 005e FFF7FEBF 		b	__aeabi_atexit
 860              	.LVL25:
 861              	.L27:
 862 0062 00BF     		.align	2
 863              	.L26:
 864 0064 00000000 		.word	.LANCHOR0
 865 0068 00000000 		.word	__dso_handle
 866 006c 00000000 		.word	_ZN5daisy9DaisySeedD1Ev
 867 0070 00000000 		.word	.LANCHOR1
 868 0074 00000000 		.word	_ZN5daisy7EncoderD1Ev
 869              	.LBE514:
 870              	.LBE516:
 871              		.cfi_endproc
 872              	.LFE2698:
 874              		.section	.init_array,"aw",%init_array
 875              		.align	2
 876 0000 00000000 		.word	_GLOBAL__sub_I_hw(target1)
 877              		.global	menu_mode
 878              		.global	test_curve
ARM GAS  C:\Users\skipi\AppData\Local\Temp\ccTbm0XL.s 			page 41


 879              		.global	test_delta
 880              		.global	enc
 881              		.global	hw
 882              		.section	.bss.enc,"aw",%nobits
 883              		.align	2
 884              		.set	.LANCHOR1,. + 0
 887              	enc:
 888 0000 00000000 		.space	92
 888      00000000 
 888      00000000 
 888      00000000 
 888      00000000 
 889              		.section	.bss.hw,"aw",%nobits
 890              		.align	2
 891              		.set	.LANCHOR0,. + 0
 894              	hw:
 895 0000 00000000 		.space	116
 895      00000000 
 895      00000000 
 895      00000000 
 895      00000000 
 896              		.section	.bss.menu_mode,"aw",%nobits
 897              		.align	2
 898              		.set	.LANCHOR2,. + 0
 901              	menu_mode:
 902 0000 00000000 		.space	4
 903              		.section	.data.test_curve,"aw"
 904              		.align	2
 905              		.set	.LANCHOR4,. + 0
 908              	test_curve:
 909 0000 CDCC8C3F 		.word	1066192077
 910              		.section	.data.test_delta,"aw"
 911              		.align	2
 912              		.set	.LANCHOR3,. + 0
 915              	test_delta:
 916 0000 00004842 		.word	1112014848
 917              		.text
 918              	.Letext0:
 919              		.file 15 "c:\\program files\\daisytoolchain\\arm-none-eabi\\include\\machine\\_default_types.h"
 920              		.file 16 "c:\\program files\\daisytoolchain\\arm-none-eabi\\include\\sys\\_stdint.h"
 921              		.file 17 "c:\\program files\\daisytoolchain\\arm-none-eabi\\include\\stdint.h"
 922              		.file 18 "c:\\program files\\daisytoolchain\\lib\\gcc\\arm-none-eabi\\10.2.1\\include\\stddef.h"
 923              		.file 19 "c:\\program files\\daisytoolchain\\arm-none-eabi\\include\\c++\\10.2.1\\cmath"
 924              		.file 20 "c:\\program files\\daisytoolchain\\arm-none-eabi\\include\\c++\\10.2.1\\bits\\std_abs.h"
 925              		.file 21 "c:\\program files\\daisytoolchain\\arm-none-eabi\\include\\c++\\10.2.1\\cstdlib"
 926              		.file 22 "c:\\program files\\daisytoolchain\\arm-none-eabi\\include\\c++\\10.2.1\\cstdint"
 927              		.file 23 "c:\\program files\\daisytoolchain\\arm-none-eabi\\include\\c++\\10.2.1\\type_traits"
 928              		.file 24 "c:\\program files\\daisytoolchain\\arm-none-eabi\\include\\c++\\10.2.1\\debug\\debug.h"
 929              		.file 25 "c:\\program files\\daisytoolchain\\arm-none-eabi\\include\\c++\\10.2.1\\arm-none-eabi\\t
 930              		.file 26 "c:\\program files\\daisytoolchain\\arm-none-eabi\\include\\c++\\10.2.1\\bits\\algorithmf
 931              		.file 27 "c:\\program files\\daisytoolchain\\arm-none-eabi\\include\\c++\\10.2.1\\bits\\stl_pair.h
 932              		.file 28 "c:\\program files\\daisytoolchain\\arm-none-eabi\\include\\c++\\10.2.1\\bits\\exception_
 933              		.file 29 "c:\\program files\\daisytoolchain\\arm-none-eabi\\include\\c++\\10.2.1\\cstdarg"
 934              		.file 30 "c:\\program files\\daisytoolchain\\arm-none-eabi\\include\\c++\\10.2.1\\cstdio"
 935              		.file 31 "c:\\program files\\daisytoolchain\\arm-none-eabi\\include\\c++\\10.2.1\\cstring"
 936              		.file 32 "c:\\program files\\daisytoolchain\\arm-none-eabi\\include\\c++\\10.2.1\\bits\\predefined
 937              		.file 33 "c:\\program files\\daisytoolchain\\arm-none-eabi\\include\\sys\\_types.h"
ARM GAS  C:\Users\skipi\AppData\Local\Temp\ccTbm0XL.s 			page 42


 938              		.file 34 "c:\\program files\\daisytoolchain\\arm-none-eabi\\include\\sys\\reent.h"
 939              		.file 35 "c:\\program files\\daisytoolchain\\arm-none-eabi\\include\\sys\\lock.h"
 940              		.file 36 "c:\\program files\\daisytoolchain\\arm-none-eabi\\include\\math.h"
 941              		.file 37 "c:\\program files\\daisytoolchain\\arm-none-eabi\\include\\stdlib.h"
 942              		.file 38 "c:\\program files\\daisytoolchain\\arm-none-eabi\\include\\c++\\10.2.1\\math.h"
 943              		.file 39 "c:\\program files\\daisytoolchain\\arm-none-eabi\\include\\c++\\10.2.1\\stdlib.h"
 944              		.file 40 "../../libs/libDaisy/src/per/tim.h"
 945              		.file 41 "../../libs/libDaisy/src/hid/logger_impl.h"
 946              		.file 42 "../../libs/libDaisy/src/util/wav_format.h"
 947              		.file 43 "../../libs/libDaisy/src/dev/sr_595.h"
 948              		.file 44 "../../libs/libDaisy/src/dev/max11300.h"
 949              		.file 45 "../../libs/libDaisy/src/hid/logger.h"
 950              		.file 46 "../../libs/libDaisy/src/dev/sdram.h"
 951              		.file 47 "c:\\program files\\daisytoolchain\\lib\\gcc\\arm-none-eabi\\10.2.1\\include\\stdarg.h"
 952              		.file 48 "c:\\program files\\daisytoolchain\\arm-none-eabi\\include\\stdio.h"
 953              		.file 49 "c:\\program files\\daisytoolchain\\arm-none-eabi\\include\\string.h"
 954              		.file 50 "<built-in>"
ARM GAS  C:\Users\skipi\AppData\Local\Temp\ccTbm0XL.s 			page 43

